ccopy_reg
_reconstructor
p1
(cete2.phylo.phylotree
PhyloNode
p2
c__builtin__
object
p3
NtRp4
(dp5
S'_faces'
p6
g1
(cete2.treeview.main
_FaceAreas
p7
g3
NtRp8
(dp9
S'branch-top'
p10
g1
(cete2.treeview.main
FaceContainer
p11
c__builtin__
dict
p12
(dtRp13
sS'float'
p14
g1
(g11
g12
(dtRp15
sS'branch-bottom'
p16
g1
(g11
g12
(dtRp17
sS'aligned'
p18
g1
(g11
g12
(dtRp19
sS'branch-right'
p20
g1
(g11
g12
(dtRp21
sS'float-behind'
p22
g1
(g11
g12
(dtRp23
sbsS'_species'
p24
S'Unknown'
p25
sS'features'
p26
c__builtin__
set
p27
((lp28
S'dist'
p29
aS'name'
p30
aS'bsize'
p31
aS'support'
p32
aS'_nid'
p33
aS'shape'
p34
aS'fgcolor'
p35
atRp36
sS'_children'
p37
(lp38
g1
(g2
g3
NtRp39
(dp40
g6
g1
(g7
g3
NtRp41
(dp42
g10
g1
(g11
g12
(dtRp43
sg14
g1
(g11
g12
(dtRp44
sg16
g1
(g11
g12
(dtRp45
sg18
g1
(g11
g12
(dtRp46
sg20
g1
(g11
g12
(dtRp47
sg22
g1
(g11
g12
(dtRp48
sbsg24
g25
sg26
g27
((lp49
g33
ag32
ag29
ag30
atRp50
sg37
(lp51
g1
(g2
g3
NtRp52
(dp53
g6
g1
(g7
g3
NtRp54
(dp55
g10
g1
(g11
g12
(dtRp56
sg14
g1
(g11
g12
(dtRp57
sg16
g1
(g11
g12
(dtRp58
sg18
g1
(g11
g12
(dtRp59
sg20
g1
(g11
g12
(dtRp60
sg22
g1
(g11
g12
(dtRp61
sbsg24
g25
sg26
g27
((lp62
g33
ag32
ag29
ag30
atRp63
sg37
(lp64
g1
(g2
g3
NtRp65
(dp66
g6
g1
(g7
g3
NtRp67
(dp68
g10
g1
(g11
g12
(dtRp69
sg14
g1
(g11
g12
(dtRp70
sg16
g1
(g11
g12
(dtRp71
sg18
g1
(g11
g12
(dtRp72
sg20
g1
(g11
g12
(dtRp73
sg22
g1
(g11
g12
(dtRp74
sbsg24
g25
sg26
g27
((lp75
g33
ag32
ag29
ag30
atRp76
sg37
(lp77
g1
(g2
g3
NtRp78
(dp79
g6
g1
(g7
g3
NtRp80
(dp81
g10
g1
(g11
g12
(dtRp82
sg14
g1
(g11
g12
(dtRp83
sg16
g1
(g11
g12
(dtRp84
sg18
g1
(g11
g12
(dtRp85
sg20
g1
(g11
g12
(dtRp86
sg22
g1
(g11
g12
(dtRp87
sbsg24
g25
sg26
g27
((lp88
g33
ag32
ag29
ag30
atRp89
sg37
(lp90
g1
(g2
g3
NtRp91
(dp92
g6
g1
(g7
g3
NtRp93
(dp94
g10
g1
(g11
g12
(dtRp95
sg14
g1
(g11
g12
(dtRp96
sg16
g1
(g11
g12
(dtRp97
sg18
g1
(g11
g12
(dtRp98
sg20
g1
(g11
g12
(dtRp99
sg22
g1
(g11
g12
(dtRp100
sbsg24
g25
sg26
g27
((lp101
g33
ag32
ag29
ag30
atRp102
sg37
(lp103
g1
(g2
g3
NtRp104
(dp105
g6
g1
(g7
g3
NtRp106
(dp107
g10
g1
(g11
g12
(dtRp108
sg14
g1
(g11
g12
(dtRp109
sg16
g1
(g11
g12
(dtRp110
sg18
g1
(g11
g12
(dtRp111
sg20
g1
(g11
g12
(dtRp112
sg22
g1
(g11
g12
(dtRp113
sbsg24
S'Yli'
p114
sg26
g27
((lp115
g29
ag30
aS'sequence'
p116
ag32
ag33
aS'species'
p117
atRp118
sg37
(lp119
sS'_up'
p120
g91
sS'sequence'
p121
S'RWLSTKDLYSRLELTGLNQNVHAMFVMPLGFGNPMGDMFARLNNSFWLVPLSLEGAGTGWTVYFPLAHSGPAVDLAFHLSSSLLGAINFTNMRGPLFWTALLLLSLPVLAGTGIDRNFNTFEGGDALYHLFWFFGHPEVYIIPGFGSHSAISKFGMYASIGLGFVWSHHMFVGLDDRAYFTSATMIAPTSIKFSWLATYGGRTALAFIFLFTGGTGVLNSADPFHDSYYVVHFHYVLSMGAFSIGWYLWPGLYNLFWFNFPMHFLGGMPRRNYPDAGWNSGSAYQLGPSGTNEPH'
p122
sS'_dist'
p123
F0.00011
sS'_name'
p124
S'NoName'
p125
sg33
S'93'
p126
sS'_img_style'
p127
g1
(cete2.treeview.main
NodeStyle
p128
g12
(dp129
S'size'
p130
I4
sS'hz_line_color'
p131
S'#000000'
p132
sS'faces_bgcolor'
p133
S'#FFFFFF'
p134
sS'vt_line_color'
p135
g132
sS'draw_descendants'
p136
I01
sg34
S'square'
p137
sS'bgcolor'
p138
g134
sS'hz_line_type'
p139
I0
sS'vt_line_width'
p140
I0
sS'vt_line_type'
p141
I0
sS'node_bgcolor'
p142
g134
sg35
S'#000000'
p143
sS'hz_line_width'
p144
I0
stRp145
sS'_speciesFunction'
p146
cete2.phylo.phylotree
_parse_species
p147
sS'_support'
p148
F1
sS'_temp_faces'
p149
Nsg30
S'YlipoB'
p150
sbag1
(g2
g3
NtRp151
(dp152
g6
g1
(g7
g3
NtRp153
(dp154
g10
g1
(g11
g12
(dtRp155
sg14
g1
(g11
g12
(dtRp156
sg16
g1
(g11
g12
(dtRp157
sg18
g1
(g11
g12
(dtRp158
sg20
g1
(g11
g12
(dtRp159
sg22
g1
(g11
g12
(dtRp160
sbsg24
S'Yli'
p161
sg26
g27
((lp162
g29
ag30
aS'sequence'
p163
ag32
ag33
aS'species'
p164
atRp165
sg37
(lp166
sg120
g91
sg121
S'RWLSTKDLYSRLELTGLNQNVHAMFVMPLGFGNPMGDMFARLNNSFWLVPLSLEGAGTGWTVYFPLAHSGPAVDLAFHLSSSLLGAINFTNMRGPLFWTALLLLSLPVLAGTGIDRNFNTFEGGDALYHLFWFFGHPEVYIIPGFGSHSAISKFGMYASIGLGFVWSHHMFVGLDDRAYFTSATMIAPTSIKFSWLATYGGRTALAFIFLFTGGTGVLNSADPFHDSYYVVHFHYVLSMGAFSIGWYLWPGLYNLFWFNFPMHFLGGMPRRNYPDAGWNSGSAYQLGPSGTNEPH'
p167
sg123
F0.00048000000000000001
sg124
g125
sg33
S'91'
p168
sg127
g1
(g128
g12
(dp169
g130
I4
sg131
g132
sg133
g134
sg135
g132
sg136
I01
sg34
g137
sg138
g134
sg139
I0
sg140
I0
sg141
I0
sg142
g134
sg35
g143
sg144
I0
stRp170
sg146
g147
sg148
F1
sg149
Nsg30
S'YlipoA'
p171
sbasg120
g78
sg123
F0.02656
sg124
g125
sg33
S'90'
p172
sg127
g1
(g128
g12
(dp173
g130
I6
sg131
g132
sg133
g134
sg135
g132
sg136
I01
sg34
S'circle'
p174
sg138
g134
sg139
I0
sg140
I0
sg141
I0
sg142
g134
sg35
S'#0030c1'
p175
sg144
I0
stRp176
sg146
g147
sg148
F1
sg149
Nsg30
S'NoName'
p177
sbag1
(g2
g3
NtRp178
(dp179
g6
g1
(g7
g3
NtRp180
(dp181
g10
g1
(g11
g12
(dtRp182
sg14
g1
(g11
g12
(dtRp183
sg16
g1
(g11
g12
(dtRp184
sg18
g1
(g11
g12
(dtRp185
sg20
g1
(g11
g12
(dtRp186
sg22
g1
(g11
g12
(dtRp187
sbsg24
g25
sg26
g27
((lp188
g33
ag32
ag29
ag30
atRp189
sg37
(lp190
g1
(g2
g3
NtRp191
(dp192
g6
g1
(g7
g3
NtRp193
(dp194
g10
g1
(g11
g12
(dtRp195
sg14
g1
(g11
g12
(dtRp196
sg16
g1
(g11
g12
(dtRp197
sg18
g1
(g11
g12
(dtRp198
sg20
g1
(g11
g12
(dtRp199
sg22
g1
(g11
g12
(dtRp200
sbsg24
S'Cga'
p201
sg26
g27
((lp202
g29
ag30
aS'sequence'
p203
ag32
ag33
aS'species'
p204
atRp205
sg37
(lp206
sg120
g178
sg121
S'RWLSTKDLYSRLELTGLNQNVHAMFVMPLGFGNPMGDMFARLNNSFWLVPLSLEGAGTGWTVYFPLAHSGPAVDLAFHLSSSLLGAINFTNMRGPLFWTALLLLSLPVLAGTGIDRNFNTFEGGDALYHLFWFFGHPEVYIIPGFGSHSAISKFGMYASIGLGFVWSHHMFVGLDDRAYFTSATMIAPTSIKFSWLSTYGGRTALAFIFLFTGGTGVLNSADPFHDSYYVVHFHYVLSMGAFSIGWYLWPGLYNLFWFNFPMHFLGGMPRRNYPDAGWNSGSAYQLGPSGTNEPH'
p207
sg123
F0.016299999999999999
sg124
g125
sg33
S'95'
p208
sg127
g1
(g128
g12
(dp209
g130
I4
sg131
g132
sg133
g134
sg135
g132
sg136
I01
sg34
g137
sg138
g134
sg139
I0
sg140
I0
sg141
I0
sg142
g134
sg35
g143
sg144
I0
stRp210
sg146
g147
sg148
F1
sg149
Nsg30
S'CgallA'
p211
sbag1
(g2
g3
NtRp212
(dp213
g6
g1
(g7
g3
NtRp214
(dp215
g10
g1
(g11
g12
(dtRp216
sg14
g1
(g11
g12
(dtRp217
sg16
g1
(g11
g12
(dtRp218
sg18
g1
(g11
g12
(dtRp219
sg20
g1
(g11
g12
(dtRp220
sg22
g1
(g11
g12
(dtRp221
sbsg24
S'Cde'
p222
sg26
g27
((lp223
g29
ag30
aS'sequence'
p224
ag32
ag33
aS'species'
p225
atRp226
sg37
(lp227
sg120
g178
sg121
S'RWLSTKDLYSRLELTGLNQNVHAMFVMPLGFGNPMGDMFARLNNSFWLVPLSLEGAGTGWTVYFPLAHSGPAVDLAFHLSSSLLGAINFTNMRGPLFWTALLLLSLPVLAGTGIDRNFNTFEGGDALYHLFFFNGHPEVYIIPGFGSHSAISKFGMYASIGLGFVWSHHMFVGLDDRAYFTSATMIAPTSIKFSWLATYGGRTALAFIFLFTGGTGVLNSADPFHDSYYVVHFHYVLSMGAFSIGWYLWPGLYNLFWFNFPMHFLGGMPRRNYPDAGWNSGSAYQLGPSGTNEPH'
p228
sg123
F0.018610000000000002
sg124
g125
sg33
S'101'
p229
sg127
g1
(g128
g12
(dp230
g130
I4
sg131
g132
sg133
g134
sg135
g132
sg136
I01
sg34
g137
sg138
g134
sg139
I0
sg140
I0
sg141
I0
sg142
g134
sg35
g143
sg144
I0
stRp231
sg146
g147
sg148
F1
sg149
Nsg30
S'CdefoA'
p232
sbasg120
g78
sg123
F0.00282
sg124
g125
sg33
S'88'
p233
sg127
g1
(g128
g12
(dp234
g130
I6
sg131
g132
sg133
g134
sg135
g132
sg136
I01
sg34
g174
sg138
g134
sg139
I0
sg140
I0
sg141
I0
sg142
g134
sg35
g175
sg144
I0
stRp235
sg146
g147
sg148
F0.96999999999999997
sg149
Nsg30
S'NoName'
p236
sbasg120
g65
sg123
F0.00479
sg124
g125
sg33
S'84'
p237
sg127
g1
(g128
g12
(dp238
g130
I6
sg131
g132
sg133
g134
sg135
g132
sg136
I01
sg34
g174
sg138
g134
sg139
I0
sg140
I0
sg141
I0
sg142
g134
sg35
g175
sg144
I0
stRp239
sg146
g147
sg148
F0.80000000000000004
sg149
Nsg30
S'NoName'
p240
sbag1
(g2
g3
NtRp241
(dp242
g6
g1
(g7
g3
NtRp243
(dp244
g10
g1
(g11
g12
(dtRp245
sg14
g1
(g11
g12
(dtRp246
sg16
g1
(g11
g12
(dtRp247
sg18
g1
(g11
g12
(dtRp248
sg20
g1
(g11
g12
(dtRp249
sg22
g1
(g11
g12
(dtRp250
sbsg24
S'Cal'
p251
sg26
g27
((lp252
g29
ag30
aS'sequence'
p253
ag32
ag33
aS'species'
p254
atRp255
sg37
(lp256
sg120
g65
sg121
S'RWLSTKDLYSRLELTGLNQNVHAMFVMPLGFGNPMGDMFARLNNSFWLVPMSLEGAGTGWTVYFPLAHSGPAVDLAFHLASSLLGAINFTNMRGPLFWTALLLLSLPVLAGTGIDRNFNTFEGGDALYHLFWFFGHPEVYIIPGFGSHSAISKFGMYASIGLGFVWSHHMFVGLDDRAYFTSATMIAPTSIKFSWLATYGGRTALAFIFLFTGGTGVLNSADPFHDSYYVVHFHYVLSMGAFSIGWYLWPGLYNLFWFNFPMHFLGGMPRRNYPDAGWNSGSAYQLGPSGTNEPH'
p257
sg123
F0.035970000000000002
sg124
g125
sg33
S'99'
p258
sg127
g1
(g128
g12
(dp259
g130
I4
sg131
g132
sg133
g134
sg135
g132
sg136
I01
sg34
g137
sg138
g134
sg139
I0
sg140
I0
sg141
I0
sg142
g134
sg35
g143
sg144
I0
stRp260
sg146
g147
sg148
F1
sg149
Nsg30
S'CalimA'
p261
sbasg120
g52
sg123
F1.1444799999999999
sg124
g125
sg33
S'86'
p262
sg127
g1
(g128
g12
(dp263
g130
I6
sg131
g132
sg133
g134
sg135
g132
sg136
I01
sg34
g174
sg138
g134
sg139
I0
sg140
I0
sg141
I0
sg142
g134
sg35
g175
sg144
I0
stRp264
sg146
g147
sg148
F0.97999999999999998
sg149
Nsg30
S'NoName'
p265
sbag1
(g2
g3
NtRp266
(dp267
g6
g1
(g7
g3
NtRp268
(dp269
g10
g1
(g11
g12
(dtRp270
sg14
g1
(g11
g12
(dtRp271
sg16
g1
(g11
g12
(dtRp272
sg18
g1
(g11
g12
(dtRp273
sg20
g1
(g11
g12
(dtRp274
sg22
g1
(g11
g12
(dtRp275
sbsg24
g25
sg26
g27
((lp276
g33
ag32
ag29
ag30
atRp277
sg37
(lp278
g1
(g2
g3
NtRp279
(dp280
g6
g1
(g7
g3
NtRp281
(dp282
g10
g1
(g11
g12
(dtRp283
sg14
g1
(g11
g12
(dtRp284
sg16
g1
(g11
g12
(dtRp285
sg18
g1
(g11
g12
(dtRp286
sg20
g1
(g11
g12
(dtRp287
sg22
g1
(g11
g12
(dtRp288
sbsg24
g25
sg26
g27
((lp289
g33
ag32
ag29
ag30
atRp290
sg37
(lp291
g1
(g2
g3
NtRp292
(dp293
g6
g1
(g7
g3
NtRp294
(dp295
g10
g1
(g11
g12
(dtRp296
sg14
g1
(g11
g12
(dtRp297
sg16
g1
(g11
g12
(dtRp298
sg18
g1
(g11
g12
(dtRp299
sg20
g1
(g11
g12
(dtRp300
sg22
g1
(g11
g12
(dtRp301
sbsg24
g25
sg26
g27
((lp302
g33
ag32
ag29
ag30
atRp303
sg37
(lp304
g1
(g2
g3
NtRp305
(dp306
g6
g1
(g7
g3
NtRp307
(dp308
g10
g1
(g11
g12
(dtRp309
sg14
g1
(g11
g12
(dtRp310
sg16
g1
(g11
g12
(dtRp311
sg18
g1
(g11
g12
(dtRp312
sg20
g1
(g11
g12
(dtRp313
sg22
g1
(g11
g12
(dtRp314
sbsg24
g25
sg26
g27
((lp315
g33
ag32
ag29
ag30
atRp316
sg37
(lp317
g1
(g2
g3
NtRp318
(dp319
g6
g1
(g7
g3
NtRp320
(dp321
g10
g1
(g11
g12
(dtRp322
sg14
g1
(g11
g12
(dtRp323
sg16
g1
(g11
g12
(dtRp324
sg18
g1
(g11
g12
(dtRp325
sg20
g1
(g11
g12
(dtRp326
sg22
g1
(g11
g12
(dtRp327
sbsg24
S'Mst'
p328
sg26
g27
((lp329
g29
ag30
aS'sequence'
p330
ag32
ag33
aS'species'
p331
atRp332
sg37
(lp333
sg120
g305
sg121
S'RWLSTKDLYSRLELPTLNQNVHAMFVMPSGFGNPMGDMLARLNNSFWLVPVSLEGAGTGWTVYPPLSHSGASVDLVFHMSSSLLGAINFTNMRGTLFWTALLLLSLPVLSGTLLDRNFNTFEGGDPLYHLFWFFGHPEVYIIPGFGSHSTYKKFGMYASMGLGFVWSHHMYVGLDDRAYFTSATMMAPTGVKFSWLATYGGRPFLAFMFLFTGGTGVLNASDAFHDTYYVVHFHYVLSLGAFSLGYYFWPGLYNLFMFNFPLHFLGGMPRRPYPDAGWNSGSSYQLGPDESNEPH'
p334
sg123
F0.087190000000000004
sg124
g125
sg33
S'111'
p335
sg127
g1
(g128
g12
(dp336
g130
I4
sg131
g132
sg133
g134
sg135
g132
sg136
I01
sg34
g137
sg138
g134
sg139
I0
sg140
I0
sg141
I0
sg142
g134
sg35
g143
sg144
I0
stRp337
sg146
g147
sg148
F1
sg149
Nsg30
S'MstarA'
p338
sbag1
(g2
g3
NtRp339
(dp340
g6
g1
(g7
g3
NtRp341
(dp342
g10
g1
(g11
g12
(dtRp343
sg14
g1
(g11
g12
(dtRp344
sg16
g1
(g11
g12
(dtRp345
sg18
g1
(g11
g12
(dtRp346
sg20
g1
(g11
g12
(dtRp347
sg22
g1
(g11
g12
(dtRp348
sbsg24
S'Min'
p349
sg26
g27
((lp350
g29
ag30
aS'sequence'
p351
ag32
ag33
aS'species'
p352
atRp353
sg37
(lp354
sg120
g305
sg121
S'RWLSTKDLYSRLELPTLNQNVHAMFVMPAGFGNPMGDMLARLNNSFWLVPVSLEGAGTGWTVYPPLSHSGPSVDLVFHISSSLLGSMNFTNMRGTLFWTSLLLLSLPVLSGTLLDRNFNTFEGGDPLYHLFYKMMLFSMYMMPGFGSHSAYKKFGMYASIGLGFVWSHHMYVGLDDRAYFTSATMIAPTGVKFSWLATYGGRPFLAFMFLFTGGTGVLNASDAFHDTYYVVHFHYVLSLGAFSLGYYFWPGLYNLFTFNFPLHFLGGMPRRPYPDAGWNSGSSYQLGPDESNEPH'
p355
sg123
F0.040719999999999999
sg124
g125
sg33
S'2'
sg127
g1
(g128
g12
(dp356
g130
I4
sg131
g132
sg133
g134
sg135
g132
sg136
I01
sg34
g137
sg138
g134
sg139
I0
sg140
I0
sg141
I0
sg142
g134
sg35
g143
sg144
I0
stRp357
sg146
g147
sg148
F1
sg149
Nsg30
S'MingeA'
p358
sbasg120
g292
sg123
F0.037420000000000002
sg124
g125
sg33
S'109'
p359
sg127
g1
(g128
g12
(dp360
g130
I6
sg131
g132
sg133
g134
sg135
g132
sg136
I01
sg34
g174
sg138
g134
sg139
I0
sg140
I0
sg141
I0
sg142
g134
sg35
g175
sg144
I0
stRp361
sg146
g147
sg148
F0.98999999999999999
sg149
Nsg30
S'NoName'
p362
sbag1
(g2
g3
NtRp363
(dp364
g6
g1
(g7
g3
NtRp365
(dp366
g10
g1
(g11
g12
(dtRp367
sg14
g1
(g11
g12
(dtRp368
sg16
g1
(g11
g12
(dtRp369
sg18
g1
(g11
g12
(dtRp370
sg20
g1
(g11
g12
(dtRp371
sg22
g1
(g11
g12
(dtRp372
sbsg24
g25
sg26
g27
((lp373
g33
ag32
ag29
ag30
atRp374
sg37
(lp375
g1
(g2
g3
NtRp376
(dp377
g6
g1
(g7
g3
NtRp378
(dp379
g10
g1
(g11
g12
(dtRp380
sg14
g1
(g11
g12
(dtRp381
sg16
g1
(g11
g12
(dtRp382
sg18
g1
(g11
g12
(dtRp383
sg20
g1
(g11
g12
(dtRp384
sg22
g1
(g11
g12
(dtRp385
sbsg24
g25
sg26
g27
((lp386
g33
ag32
ag29
ag30
atRp387
sg37
(lp388
g1
(g2
g3
NtRp389
(dp390
g6
g1
(g7
g3
NtRp391
(dp392
g10
g1
(g11
g12
(dtRp393
sg14
g1
(g11
g12
(dtRp394
sg16
g1
(g11
g12
(dtRp395
sg18
g1
(g11
g12
(dtRp396
sg20
g1
(g11
g12
(dtRp397
sg22
g1
(g11
g12
(dtRp398
sbsg24
S'Mte'
p399
sg26
g27
((lp400
g29
ag30
aS'sequence'
p401
ag32
ag33
aS'species'
p402
atRp403
sg37
(lp404
sg120
g376
sg121
S'RWLSTKDLYSRLELPTLNQNVHAMFVMPAGFGNPMGDMLARLNNSFWLVPLSLEGAGTGWTVYPPLSHSGPSVDMVFHISSSLLGAINFTNMRGTLFWTALLLLSLPVLSGTLLDRNFNTFEGGDPLYHLFWFFGHPEVYIIPGFGSHSAYKKFGMYASIGLGFVWSHHMYVGLDDRAYFTSATMIAPTGVKFSWLATYGGRPFLAFIFLFTGGTGVLNASDAFHDTYYVVHFHYVLSLGAFSLGYYFWPGLYNLFYFNFPMHALGGMPRRPYPDAGWNSGSSYQLGPDESNEPH'
p405
sg123
F0.042599999999999999
sg124
g125
sg33
S'3'
sg127
g1
(g128
g12
(dp406
g130
I4
sg131
g132
sg133
g134
sg135
g132
sg136
I01
sg34
g137
sg138
g134
sg139
I0
sg140
I0
sg141
I0
sg142
g134
sg35
g143
sg144
I0
stRp407
sg146
g147
sg148
F1
sg149
Nsg30
S'MtetrA'
p408
sbag1
(g2
g3
NtRp409
(dp410
g6
g1
(g7
g3
NtRp411
(dp412
g10
g1
(g11
g12
(dtRp413
sg14
g1
(g11
g12
(dtRp414
sg16
g1
(g11
g12
(dtRp415
sg18
g1
(g11
g12
(dtRp416
sg20
g1
(g11
g12
(dtRp417
sg22
g1
(g11
g12
(dtRp418
sbsg24
g25
sg26
g27
((lp419
g33
ag32
ag29
ag30
atRp420
sg37
(lp421
g1
(g2
g3
NtRp422
(dp423
g6
g1
(g7
g3
NtRp424
(dp425
g10
g1
(g11
g12
(dtRp426
sg14
g1
(g11
g12
(dtRp427
sg16
g1
(g11
g12
(dtRp428
sg18
g1
(g11
g12
(dtRp429
sg20
g1
(g11
g12
(dtRp430
sg22
g1
(g11
g12
(dtRp431
sbsg24
S'Mma'
p432
sg26
g27
((lp433
g29
ag30
aS'sequence'
p434
ag32
ag33
aS'species'
p435
atRp436
sg37
(lp437
sg120
g409
sg121
S'RWLSTKDLYSRLELPTLNQNVHAMFVMPAGFGNPMGDMLARLNNSFWLVPLSLEGPGTGWTVYPPLSHSGPSVDMVFHISSSLLGAINFTNMRGTLFWTALLLLSLPVLSGTLLDRNFNTFEGGDPLYHLFWFFGHPEVYIIPGFGSHSAYKKFGMYASIGLGFVWSHHMYVGLDDRAYFTSATMIAPTGVKFSWLATYGGRPFLAFIFLFTGGTGVLNASDAFHDSYYVVHFHYVLSLGAFSLGYYFWPGLYNLFFFNFPMHALGGMPRRPYPDAGWNSGSSYQLGPDESNEPH'
p438
sg123
F0.00055000000000000003
sg124
g125
sg33
S'6'
sg127
g1
(g128
g12
(dp439
g130
I4
sg131
g132
sg133
g134
sg135
g132
sg136
I01
sg34
g137
sg138
g134
sg139
I0
sg140
I0
sg141
I0
sg142
g134
sg35
g143
sg144
I0
stRp440
sg146
g147
sg148
F1
sg149
Nsg30
S'MmagnB'
p441
sbag1
(g2
g3
NtRp442
(dp443
g6
g1
(g7
g3
NtRp444
(dp445
g10
g1
(g11
g12
(dtRp446
sg14
g1
(g11
g12
(dtRp447
sg16
g1
(g11
g12
(dtRp448
sg18
g1
(g11
g12
(dtRp449
sg20
g1
(g11
g12
(dtRp450
sg22
g1
(g11
g12
(dtRp451
sbsg24
S'Mma'
p452
sg26
g27
((lp453
g29
ag30
aS'sequence'
p454
ag32
ag33
aS'species'
p455
atRp456
sg37
(lp457
sg120
g409
sg121
S'RWLSTKDLYSRLELPTLNQNVHAMFVMPAGFGNPMGDMLARLNNSFWLVPLSLEGPGTGWTVYPPLSHSGPSVDMVFHISSSLLGAINFTNMRGTLFWTALLLLSLPVLSGTLLDRNFNTFEGGDPLYHLFWFFGHPEVYIIPGFGSHSAYKKFGMYASIGLGFVWSHHMYVGLDDRAYFTSATMIAPTGVKFSWLATYGGRPFLAFIFLFTGGTGVLNASDAFHDSYYVVHFHYVLSLGAFSLGYYFWPGLYNLFFFNFPMHALGGMPRRPYPDAGWNSGSSYQLGPDESNEPH'
p458
sg123
F0.00088000000000000003
sg124
g125
sg33
S'12'
p459
sg127
g1
(g128
g12
(dp460
g130
I4
sg131
g132
sg133
g134
sg135
g132
sg136
I01
sg34
g137
sg138
g134
sg139
I0
sg140
I0
sg141
I0
sg142
g134
sg35
g143
sg144
I0
stRp461
sg146
g147
sg148
F1
sg149
Nsg30
S'MmagnA'
p462
sbasg120
g376
sg123
F0.011140000000000001
sg124
g125
sg33
S'5'
sg127
g1
(g128
g12
(dp463
g130
I6
sg131
g132
sg133
g134
sg135
g132
sg136
I01
sg34
g174
sg138
g134
sg139
I0
sg140
I0
sg141
I0
sg142
g134
sg35
g175
sg144
I0
stRp464
sg146
g147
sg148
F0.98999999999999999
sg149
Nsg30
S'NoName'
p465
sbasg120
g363
sg123
F0.11189
sg124
g125
sg33
S'0'
sg127
g1
(g128
g12
(dp466
g130
I6
sg131
g132
sg133
g134
sg135
g132
sg136
I01
sg34
g174
sg138
g134
sg139
I0
sg140
I0
sg141
I0
sg142
g134
sg35
g175
sg144
I0
stRp467
sg146
g147
sg148
F0.98999999999999999
sg149
Nsg30
S'NoName'
p468
sbag1
(g2
g3
NtRp469
(dp470
g6
g1
(g7
g3
NtRp471
(dp472
g10
g1
(g11
g12
(dtRp473
sg14
g1
(g11
g12
(dtRp474
sg16
g1
(g11
g12
(dtRp475
sg18
g1
(g11
g12
(dtRp476
sg20
g1
(g11
g12
(dtRp477
sg22
g1
(g11
g12
(dtRp478
sbsg24
g25
sg26
g27
((lp479
g33
ag32
ag29
ag30
atRp480
sg37
(lp481
g1
(g2
g3
NtRp482
(dp483
g6
g1
(g7
g3
NtRp484
(dp485
g10
g1
(g11
g12
(dtRp486
sg14
g1
(g11
g12
(dtRp487
sg16
g1
(g11
g12
(dtRp488
sg18
g1
(g11
g12
(dtRp489
sg20
g1
(g11
g12
(dtRp490
sg22
g1
(g11
g12
(dtRp491
sbsg24
S'Scl'
p492
sg26
g27
((lp493
g29
ag30
aS'sequence'
p494
ag32
ag33
aS'species'
p495
atRp496
sg37
(lp497
sg120
g469
sg121
S'RWLSTKDLYSRLELPTLNQNVHAMFVMPAGFGNPMGDMLARLNNSFWLVPLSLEGPGTGWTVYPPLSHSGPSVDMVFHMSSSLLGAINFTNMRGTLFWTALLLLSLPVLAGTLLDRNFNTFEGGDPLYHLFWFFGHPEVYMIPGFGSHSTYKKFGMYASMGLGFVWSHHMYVGLDDRAYFTAATMIAPTGVKFSWLATYGGRPFLTFMFLFTGGTGVLNASDAFHDTYYVVHFHYVLSLGAFSLGYYFWPGLYNLFMFNFPLHFLGGMPRRPYPDAGWNSGSSYQLGPDESNEPH'
p498
sg123
F0.020899999999999998
sg124
g125
sg33
S'16'
p499
sg127
g1
(g128
g12
(dp500
g130
I4
sg131
g132
sg133
g134
sg135
g132
sg136
I01
sg34
g137
sg138
g134
sg139
I0
sg140
I0
sg141
I0
sg142
g134
sg35
g143
sg144
I0
stRp501
sg146
g147
sg148
F1
sg149
Nsg30
S'SclavA'
p502
sbag1
(g2
g3
NtRp503
(dp504
g6
g1
(g7
g3
NtRp505
(dp506
g10
g1
(g11
g12
(dtRp507
sg14
g1
(g11
g12
(dtRp508
sg16
g1
(g11
g12
(dtRp509
sg18
g1
(g11
g12
(dtRp510
sg20
g1
(g11
g12
(dtRp511
sg22
g1
(g11
g12
(dtRp512
sbsg24
S'Msp'
p513
sg26
g27
((lp514
g29
ag30
aS'sequence'
p515
ag32
ag33
aS'species'
p516
atRp517
sg37
(lp518
sg120
g469
sg121
S'RWLSTKDLYSRLELPTLNQNVHAMFVMPAGFGNPMGDMLARLNNSFWLVPLSLEGPGTGWTVYPPLSHSGPSVDMVFHMSSSLLGAMNFTNMRGTLFWTALLLLSLPVLAGTLLDRNFNTFEGGDPLYHLFWFFGHPEVYMIPGFGSHSTYKKFGMYASMGLGFVWSHHMYVGLDDRAYFTAATMIAPTGVKFSWLATYGGRPFLTFMFLFTGGTGVLNASDAFHDTYYVVHFHYVLSLGAFSLGYYFWPGLYNLFMFNFPLHFLGGMPRRPYPDAGWNSGSSYQLGPDESNEPH'
p519
sg123
F0.13538
sg124
g125
sg33
S'13'
p520
sg127
g1
(g128
g12
(dp521
g130
I4
sg131
g132
sg133
g134
sg135
g132
sg136
I01
sg34
g137
sg138
g134
sg139
I0
sg140
I0
sg141
I0
sg142
g134
sg35
g143
sg144
I0
stRp522
sg146
g147
sg148
F1
sg149
Nsg30
S'MspicA'
p523
sbasg120
g363
sg123
F0.10536
sg124
g125
sg33
S'8'
sg127
g1
(g128
g12
(dp524
g130
I6
sg131
g132
sg133
g134
sg135
g132
sg136
I01
sg34
g174
sg138
g134
sg139
I0
sg140
I0
sg141
I0
sg142
g134
sg35
g175
sg144
I0
stRp525
sg146
g147
sg148
F0.98999999999999999
sg149
Nsg30
S'NoName'
p526
sbasg120
g292
sg123
F0.03209
sg124
g125
sg33
S'106'
p527
sg127
g1
(g128
g12
(dp528
g130
I6
sg131
g132
sg133
g134
sg135
g132
sg136
I01
sg34
g174
sg138
g134
sg139
I0
sg140
I0
sg141
I0
sg142
g134
sg35
g175
sg144
I0
stRp529
sg146
g147
sg148
F0.98999999999999999
sg149
Nsg30
S'NoName'
p530
sbasg120
g279
sg123
F0.32869999999999999
sg124
g125
sg33
S'103'
p531
sg127
g1
(g128
g12
(dp532
g130
I6
sg131
g132
sg133
g134
sg135
g132
sg136
I01
sg34
g174
sg138
g134
sg139
I0
sg140
I0
sg141
I0
sg142
g134
sg35
g175
sg144
I0
stRp533
sg146
g147
sg148
F0.98999999999999999
sg149
Nsg30
S'NoName'
p534
sbag1
(g2
g3
NtRp535
(dp536
g6
g1
(g7
g3
NtRp537
(dp538
g10
g1
(g11
g12
(dtRp539
sg14
g1
(g11
g12
(dtRp540
sg16
g1
(g11
g12
(dtRp541
sg18
g1
(g11
g12
(dtRp542
sg20
g1
(g11
g12
(dtRp543
sg22
g1
(g11
g12
(dtRp544
sbsg24
g25
sg26
g27
((lp545
g33
ag32
ag29
ag30
atRp546
sg37
(lp547
g1
(g2
g3
NtRp548
(dp549
g6
g1
(g7
g3
NtRp550
(dp551
g10
g1
(g11
g12
(dtRp552
sg14
g1
(g11
g12
(dtRp553
sg16
g1
(g11
g12
(dtRp554
sg18
g1
(g11
g12
(dtRp555
sg20
g1
(g11
g12
(dtRp556
sg22
g1
(g11
g12
(dtRp557
sbsg24
g25
sg26
g27
((lp558
g33
ag32
ag29
ag30
atRp559
sg37
(lp560
g1
(g2
g3
NtRp561
(dp562
g6
g1
(g7
g3
NtRp563
(dp564
g10
g1
(g11
g12
(dtRp565
sg14
g1
(g11
g12
(dtRp566
sg16
g1
(g11
g12
(dtRp567
sg18
g1
(g11
g12
(dtRp568
sg20
g1
(g11
g12
(dtRp569
sg22
g1
(g11
g12
(dtRp570
sbsg24
S'Cze'
p571
sg26
g27
((lp572
g29
ag30
aS'sequence'
p573
ag32
ag33
aS'species'
p574
atRp575
sg37
(lp576
sg120
g548
sg121
S'SWLSTQNLYSRIELPNLNQNVHAMFVMPTGLANPQGDTFPRMNNAFVLLPMSLDGPGSGWTLYPPLTHSGSSMDMAFHLSSSIFGAINLTNMRGPLFWTALMMLALPVLAGTLLDRNFNTFVGGDPLYHIFWFFGHPEVYIIPVFGSQQVYKKFGMYASIGLGFVWSHHMFVGLDDRAYFSGASLIAPTGSKFSWLATYGGRPLLAFMVLFTGGTGVMNSSDMFHDTYYVVHFHYVLSLGVFGVAYYFWPGLYNLFWFNFPLHFLGGLPRRPYPDAGWNSGSSYQFGPDESNEPH'
p577
sg123
F1.5682799999999999
sg124
g125
sg33
S'23'
p578
sg127
g1
(g128
g12
(dp579
g130
I4
sg131
g132
sg133
g134
sg135
g132
sg136
I01
sg34
g137
sg138
g134
sg139
I0
sg140
I0
sg141
I0
sg142
g134
sg35
g143
sg144
I0
stRp580
sg146
g147
sg148
F1
sg149
Nsg30
S'CzempA'
p581
sbag1
(g2
g3
NtRp582
(dp583
g6
g1
(g7
g3
NtRp584
(dp585
g10
g1
(g11
g12
(dtRp586
sg14
g1
(g11
g12
(dtRp587
sg16
g1
(g11
g12
(dtRp588
sg18
g1
(g11
g12
(dtRp589
sg20
g1
(g11
g12
(dtRp590
sg22
g1
(g11
g12
(dtRp591
sbsg24
g25
sg26
g27
((lp592
g33
ag32
ag29
ag30
atRp593
sg37
(lp594
g1
(g2
g3
NtRp595
(dp596
g6
g1
(g7
g3
NtRp597
(dp598
g10
g1
(g11
g12
(dtRp599
sg14
g1
(g11
g12
(dtRp600
sg16
g1
(g11
g12
(dtRp601
sg18
g1
(g11
g12
(dtRp602
sg20
g1
(g11
g12
(dtRp603
sg22
g1
(g11
g12
(dtRp604
sbsg24
S'Csa'
p605
sg26
g27
((lp606
g29
ag30
aS'sequence'
p607
ag32
ag33
aS'species'
p608
atRp609
sg37
(lp610
sg120
g582
sg121
S'----------RLELPNLNQNVHAMFVMPSGFGNPMGDMLARLNNSFWLVPLSLDGPGTGWTMYPPLSHSGASVDLVFHISSSLLGAMNFTNMRGTLFWTALLLLSLPVLSGTLLDRNFNTFEGGDMLYHMFWFFGHPEVYMMPGFGSQSVYKKFGMYASMGLGFVWSHHMFVGLDDRAYFTAATLMAPTGVKFSWLASYGGRPLLAFMFLFTGGTGVLNASDAFHDTYYVVHFHYVLSLGAFSLGYYFWPGLYNLFWFNFPQHFLGAMPRRPYPDAGWNSGSSYQMGPDFSNEPH'
p611
sg123
F0.65920000000000001
sg124
g125
sg33
S'27'
p612
sg127
g1
(g128
g12
(dp613
g130
I4
sg131
g132
sg133
g134
sg135
g132
sg136
I01
sg34
g137
sg138
g134
sg139
I0
sg140
I0
sg141
I0
sg142
g134
sg35
g143
sg144
I0
stRp614
sg146
g147
sg148
F1
sg149
Nsg30
S'CsantA'
p615
sbag1
(g2
g3
NtRp616
(dp617
g6
g1
(g7
g3
NtRp618
(dp619
g10
g1
(g11
g12
(dtRp620
sg14
g1
(g11
g12
(dtRp621
sg16
g1
(g11
g12
(dtRp622
sg18
g1
(g11
g12
(dtRp623
sg20
g1
(g11
g12
(dtRp624
sg22
g1
(g11
g12
(dtRp625
sbsg24
S'Csa'
p626
sg26
g27
((lp627
g29
ag30
aS'sequence'
p628
ag32
ag33
aS'species'
p629
atRp630
sg37
(lp631
sg120
g582
sg121
S'RWLSTKDLYSRLELPAMSQNVHAMFVMPSGFANPMGDTLPRVNNAAILMPMSLEGPGTGWTVYPPLSHSGVSVDLVFHISSSLAGAMNLTNMRGPLFWTALLLLSLPVLAGTLIDRNFNTFDGGDVLYHLFWFFGHPEVYIIPGFGSESRYNKFGMYASIGLGFVWSHHMYVGLDDRSYFTAATLIAPTGVKFSWMATFGGRPFLTFLALFTGGTGVLNASDAFHDTYYVVHFHYVLSLGAFSMGYYYWPGLYNLFWFNFPQHFLGGQPRRSYPDAGWNSGSSYQLGPDESNEPH'
p632
sg123
F1.3581099999999999
sg124
g125
sg33
S'24'
p633
sg127
g1
(g128
g12
(dp634
g130
I4
sg131
g132
sg133
g134
sg135
g132
sg136
I01
sg34
g137
sg138
g134
sg139
I0
sg140
I0
sg141
I0
sg142
g134
sg35
g143
sg144
I0
stRp635
sg146
g147
sg148
F1
sg149
Nsg30
S'CsalmA'
p636
sbasg120
g548
sg123
F0.19968
sg124
g125
sg33
S'17'
p637
sg127
g1
(g128
g12
(dp638
g130
I6
sg131
g132
sg133
g134
sg135
g132
sg136
I01
sg34
g174
sg138
g134
sg139
I0
sg140
I0
sg141
I0
sg142
g134
sg35
g175
sg144
I0
stRp639
sg146
g147
sg148
F0.97999999999999998
sg149
Nsg30
S'NoName'
p640
sbasg120
g535
sg123
F0.14363999999999999
sg124
g125
sg33
S'19'
p641
sg127
g1
(g128
g12
(dp642
g130
I6
sg131
g132
sg133
g134
sg135
g132
sg136
I01
sg34
g174
sg138
g134
sg139
I0
sg140
I0
sg141
I0
sg142
g134
sg35
g175
sg144
I0
stRp643
sg146
g147
sg148
F0.93000000000000005
sg149
Nsg30
S'NoName'
p644
sbag1
(g2
g3
NtRp645
(dp646
g6
g1
(g7
g3
NtRp647
(dp648
g10
g1
(g11
g12
(dtRp649
sg14
g1
(g11
g12
(dtRp650
sg16
g1
(g11
g12
(dtRp651
sg18
g1
(g11
g12
(dtRp652
sg20
g1
(g11
g12
(dtRp653
sg22
g1
(g11
g12
(dtRp654
sbsg24
S'Bar'
p655
sg26
g27
((lp656
g29
ag30
aS'sequence'
p657
ag32
ag33
aS'species'
p658
atRp659
sg37
(lp660
sg120
g535
sg121
S'RWLSTKDLYSRLELPNLNQNSHAMFVMPTGFGNPMGDMLSRLNNSFWLVPLSLEGPGTGWTVYPPLSHSGPSVDLVFHVSSSLLGAMNFTNMRGTLFWTVLLLLALPVLAGTLLDRNFNTFEGGDPLYHMFWFFGHPEVYIIPGFGSQAVYNKFGMYASIGLGFVWSHHMYVGMDDRAYFTAATLIAPTGVKFSWLASYGGRPLLTFIGLFTGGTGVLNAADAFHDSYYVVHFHYVLSLGAFSLGYYFWPGLYNLFWFNFPQHFLGSMPRRPYPDAGWNSGSSVQLGPDVNNEPH'
p661
sg123
F0.74575000000000002
sg124
g125
sg33
S'30'
p662
sg127
g1
(g128
g12
(dp663
g130
I4
sg131
g132
sg133
g134
sg135
g132
sg136
I01
sg34
g137
sg138
g134
sg139
I0
sg140
I0
sg141
I0
sg142
g134
sg35
g143
sg144
I0
stRp664
sg146
g147
sg148
F1
sg149
Nsg30
S'BarxA'
p665
sbasg120
g279
sg123
F0.25233
sg124
g125
sg33
S'10'
p666
sg127
g1
(g128
g12
(dp667
g130
I6
sg131
g132
sg133
g134
sg135
g132
sg136
I01
sg34
g174
sg138
g134
sg139
I0
sg140
I0
sg141
I0
sg142
g134
sg35
g175
sg144
I0
stRp668
sg146
g147
sg148
F0.97999999999999998
sg149
Nsg30
S'NoName'
p669
sbasg120
g266
sg123
F0.42224
sg124
g125
sg33
S'105'
p670
sg127
g1
(g128
g12
(dp671
g130
I6
sg131
g132
sg133
g134
sg135
g132
sg136
I01
sg34
g174
sg138
g134
sg139
I0
sg140
I0
sg141
I0
sg142
g134
sg35
g175
sg144
I0
stRp672
sg146
g147
sg148
F0.97999999999999998
sg149
Nsg30
S'NoName'
p673
sbag1
(g2
g3
NtRp674
(dp675
g6
g1
(g7
g3
NtRp676
(dp677
g10
g1
(g11
g12
(dtRp678
sg14
g1
(g11
g12
(dtRp679
sg16
g1
(g11
g12
(dtRp680
sg18
g1
(g11
g12
(dtRp681
sg20
g1
(g11
g12
(dtRp682
sg22
g1
(g11
g12
(dtRp683
sbsg24
g25
sg26
g27
((lp684
g33
ag32
ag29
ag30
atRp685
sg37
(lp686
g1
(g2
g3
NtRp687
(dp688
g6
g1
(g7
g3
NtRp689
(dp690
g10
g1
(g11
g12
(dtRp691
sg14
g1
(g11
g12
(dtRp692
sg16
g1
(g11
g12
(dtRp693
sg18
g1
(g11
g12
(dtRp694
sg20
g1
(g11
g12
(dtRp695
sg22
g1
(g11
g12
(dtRp696
sbsg24
g25
sg26
g27
((lp697
g33
ag32
ag29
ag30
atRp698
sg37
(lp699
g1
(g2
g3
NtRp700
(dp701
g6
g1
(g7
g3
NtRp702
(dp703
g10
g1
(g11
g12
(dtRp704
sg14
g1
(g11
g12
(dtRp705
sg16
g1
(g11
g12
(dtRp706
sg18
g1
(g11
g12
(dtRp707
sg20
g1
(g11
g12
(dtRp708
sg22
g1
(g11
g12
(dtRp709
sbsg24
g25
sg26
g27
((lp710
g33
ag32
ag29
ag30
atRp711
sg37
(lp712
g1
(g2
g3
NtRp713
(dp714
g6
g1
(g7
g3
NtRp715
(dp716
g10
g1
(g11
g12
(dtRp717
sg14
g1
(g11
g12
(dtRp718
sg16
g1
(g11
g12
(dtRp719
sg18
g1
(g11
g12
(dtRp720
sg20
g1
(g11
g12
(dtRp721
sg22
g1
(g11
g12
(dtRp722
sbsg24
g25
sg26
g27
((lp723
g33
ag32
ag29
ag30
atRp724
sg37
(lp725
g1
(g2
g3
NtRp726
(dp727
g6
g1
(g7
g3
NtRp728
(dp729
g10
g1
(g11
g12
(dtRp730
sg14
g1
(g11
g12
(dtRp731
sg16
g1
(g11
g12
(dtRp732
sg18
g1
(g11
g12
(dtRp733
sg20
g1
(g11
g12
(dtRp734
sg22
g1
(g11
g12
(dtRp735
sbsg24
S'Mfa'
p736
sg26
g27
((lp737
g29
ag30
aS'sequence'
p738
ag32
ag33
aS'species'
p739
atRp740
sg37
(lp741
sg120
g713
sg121
S'RWLSTKDLYSRLELGNLNQNVHAMFVMPLGFGNPLGDMFARLNNSFWLPPLSLEGAGTGWTVYPPLSHSGPSVDLAFHLTSSLLGAINFTNMRGPLFWTALLLLSLPVLAGTLLDRNFNTFEGGDPLYHLFWFFGHPEVYIIPGFGSHSTYKKFGMYASIGLGFVWSHHMYVGLDDRAYFTSATMIAPTGIKFSWLATYGGRPMLAFLFLFTGGTGVLNASDAFHDTYFVVHFHYVLSMGAFSLAYYYWPGLYNLFWFNFPMHFLGGMPRRPYPDAGWNSGSSYQMGPDESNEPH'
p742
sg123
F0.14163999999999999
sg124
g125
sg33
S'35'
p743
sg127
g1
(g128
g12
(dp744
g130
I4
sg131
g132
sg133
g134
sg135
g132
sg136
I01
sg34
g137
sg138
g134
sg139
I0
sg140
I0
sg141
I0
sg142
g134
sg35
g143
sg144
I0
stRp745
sg146
g147
sg148
F1
sg149
Nsg30
S'MfariB'
p746
sbag1
(g2
g3
NtRp747
(dp748
g6
g1
(g7
g3
NtRp749
(dp750
g10
g1
(g11
g12
(dtRp751
sg14
g1
(g11
g12
(dtRp752
sg16
g1
(g11
g12
(dtRp753
sg18
g1
(g11
g12
(dtRp754
sg20
g1
(g11
g12
(dtRp755
sg22
g1
(g11
g12
(dtRp756
sbsg24
S'Csa'
p757
sg26
g27
((lp758
g29
ag30
aS'sequence'
p759
ag32
ag33
aS'species'
p760
atRp761
sg37
(lp762
sg120
g713
sg121
S'RWLSTKDLYSRLELGNFNQNVHAMFVMPLGFGNPLGDMFARLNNSFWLPPLSLEGAGTGWTVYPPLSHSGPSVDLAFHLTSSLLGAINFTNMRGPLFWTALLLLSLPVLAATLLDRNFNTFEGGDPLYHLFWFFGHPEVYIIPGFGSHSTYKKFGMYASMGLGFVWSHHMYVGLDDRAYFTSATMIAPTGMKFSWLATYGGRPMLAFLFLFTGGTGVLNASDAFHDTYYVVHFHYVLSMGAFSLAYYYWPGLYNWFWFNFPMHFLGGMPRRPYPDAGWNSGSSYQMGPDESNEPH'
p763
sg123
F0.069970000000000004
sg124
g125
sg33
S'135'
p764
sg127
g1
(g128
g12
(dp765
g130
I4
sg131
g132
sg133
g134
sg135
g132
sg136
I01
sg34
g137
sg138
g134
sg139
I0
sg140
I0
sg141
I0
sg142
g134
sg35
g143
sg144
I0
stRp766
sg146
g147
sg148
F1
sg149
Nsg30
S'CsakeA'
p767
sbasg120
g700
sg123
F0.048980000000000003
sg124
g125
sg33
S'31'
p768
sg127
g1
(g128
g12
(dp769
g130
I6
sg131
g132
sg133
g134
sg135
g132
sg136
I01
sg34
g174
sg138
g134
sg139
I0
sg140
I0
sg141
I0
sg142
g134
sg35
g175
sg144
I0
stRp770
sg146
g147
sg148
F0.98999999999999999
sg149
Nsg30
S'NoName'
p771
sbag1
(g2
g3
NtRp772
(dp773
g6
g1
(g7
g3
NtRp774
(dp775
g10
g1
(g11
g12
(dtRp776
sg14
g1
(g11
g12
(dtRp777
sg16
g1
(g11
g12
(dtRp778
sg18
g1
(g11
g12
(dtRp779
sg20
g1
(g11
g12
(dtRp780
sg22
g1
(g11
g12
(dtRp781
sbsg24
g25
sg26
g27
((lp782
g33
ag32
ag29
ag30
atRp783
sg37
(lp784
g1
(g2
g3
NtRp785
(dp786
g6
g1
(g7
g3
NtRp787
(dp788
g10
g1
(g11
g12
(dtRp789
sg14
g1
(g11
g12
(dtRp790
sg16
g1
(g11
g12
(dtRp791
sg18
g1
(g11
g12
(dtRp792
sg20
g1
(g11
g12
(dtRp793
sg22
g1
(g11
g12
(dtRp794
sbsg24
g25
sg26
g27
((lp795
g33
ag32
ag29
ag30
atRp796
sg37
(lp797
g1
(g2
g3
NtRp798
(dp799
g6
g1
(g7
g3
NtRp800
(dp801
g10
g1
(g11
g12
(dtRp802
sg14
g1
(g11
g12
(dtRp803
sg16
g1
(g11
g12
(dtRp804
sg18
g1
(g11
g12
(dtRp805
sg20
g1
(g11
g12
(dtRp806
sg22
g1
(g11
g12
(dtRp807
sbsg24
S'Mfa'
p808
sg26
g27
((lp809
g29
ag30
aS'sequence'
p810
ag32
ag33
aS'species'
p811
atRp812
sg37
(lp813
sg120
g785
sg121
S'RWLSTKDLYSRAELGNFNHNVHAMFVMPLGFGNPMGDMFARLNNSFWLPPLSLEGAGTGWTVYPPLSHSGPSVDLAFHLTSSLLGAMNFTNMRGPLFWTALLLLSLPVLAGTLLDRNFNTFEGGDPLYHLFWFFGHPEVYIIPGFGSHSTYKKFGMYASMGLGFVWSHHMYVGLDDRAYFTSATMMAPTGIKFSWLATYGGRPMLAFLFLFTGGTGVLNASDAFHDTYYMYHFHYVLSMGAFSLGYYYWPGLYNWFWFNFPMHFLGGMPRRPYPDAGWNSGSSKQLGPDESNEPH'
p814
sg123
F0.29086000000000001
sg124
g125
sg33
S'140'
p815
sg127
g1
(g128
g12
(dp816
g130
I4
sg131
g132
sg133
g134
sg135
g132
sg136
I01
sg34
g137
sg138
g134
sg139
I0
sg140
I0
sg141
I0
sg142
g134
sg35
g143
sg144
I0
stRp817
sg146
g147
sg148
F1
sg149
Nsg30
S'MfariA'
p818
sbag1
(g2
g3
NtRp819
(dp820
g6
g1
(g7
g3
NtRp821
(dp822
g10
g1
(g11
g12
(dtRp823
sg14
g1
(g11
g12
(dtRp824
sg16
g1
(g11
g12
(dtRp825
sg18
g1
(g11
g12
(dtRp826
sg20
g1
(g11
g12
(dtRp827
sg22
g1
(g11
g12
(dtRp828
sbsg24
S'Dha'
p829
sg26
g27
((lp830
g29
ag30
aS'sequence'
p831
ag32
ag33
aS'species'
p832
atRp833
sg37
(lp834
sg120
g785
sg121
S'RWLSTKDLYSRMELGNFNQNVHAMFIMPWGFGNPLGDMFARLNNSFWLPPLSLEGAGTGWTLYPPLSHSGPSVDLAFHLTSSLLGAMNFTNMRGPLFWTALLLLSLPVLAATLLDRNFNTFEGGDPLYHLFWFFGHPEVYIMPGFGSHSTYKKFGMYASIGLGFVWSHHMFVGLDDRAYFTSATMIAPTGIKFSWLATYGGRPMLAFLFLFTGGTGVLNASDAFHDTYYVVHFHYVLSMGAFSLAYYYWPGLYNLFWFNFPMHFLGGMPRRPYPDAGWNSGSSKQLGPDESNDPH'
p835
sg123
F0.11043
sg124
g125
sg33
S'142'
p836
sg127
g1
(g128
g12
(dp837
g130
I4
sg131
g132
sg133
g134
sg135
g132
sg136
I01
sg34
g137
sg138
g134
sg139
I0
sg140
I0
sg141
I0
sg142
g134
sg35
g143
sg144
I0
stRp838
sg146
g147
sg148
F1
sg149
Nsg30
S'DhansA'
p839
sbasg120
g772
sg123
F0.046699999999999998
sg124
g125
sg33
S'137'
p840
sg127
g1
(g128
g12
(dp841
g130
I6
sg131
g132
sg133
g134
sg135
g132
sg136
I01
sg34
g174
sg138
g134
sg139
I0
sg140
I0
sg141
I0
sg142
g134
sg35
g175
sg144
I0
stRp842
sg146
g147
sg148
F0.65000000000000002
sg149
Nsg30
S'NoName'
p843
sbag1
(g2
g3
NtRp844
(dp845
g6
g1
(g7
g3
NtRp846
(dp847
g10
g1
(g11
g12
(dtRp848
sg14
g1
(g11
g12
(dtRp849
sg16
g1
(g11
g12
(dtRp850
sg18
g1
(g11
g12
(dtRp851
sg20
g1
(g11
g12
(dtRp852
sg22
g1
(g11
g12
(dtRp853
sbsg24
g25
sg26
g27
((lp854
g33
ag32
ag29
ag30
atRp855
sg37
(lp856
g1
(g2
g3
NtRp857
(dp858
g6
g1
(g7
g3
NtRp859
(dp860
g10
g1
(g11
g12
(dtRp861
sg14
g1
(g11
g12
(dtRp862
sg16
g1
(g11
g12
(dtRp863
sg18
g1
(g11
g12
(dtRp864
sg20
g1
(g11
g12
(dtRp865
sg22
g1
(g11
g12
(dtRp866
sbsg24
S'Clu'
p867
sg26
g27
((lp868
g29
ag30
aS'sequence'
p869
ag32
ag33
aS'species'
p870
atRp871
sg37
(lp872
sg120
g844
sg121
S'RWLSTKDLYSRLELPDLNQNVHAMFVMPLGFGNPMGDMFARLNNSFWLPPLSLEGAGTGWTVYPPLSHSGPSVDLAFHLTSSLLGAINFTNMRGPLFWTALLLLSLPVLAGTLLDRNFNTFEGGDPLYHLFWFFGHPEVYMMPGFGSHSTYKKFGMYASMGLGFVWSHHMYVGLDDRAYFTSATMMAPTGMKFSWLATYGGRPMLAFLFLFTGGTGVLNASDAFHDTYYVVHFHYVLSMGAFSLGYYYWPGLYNWFWFNFPMHFLGGMPRRPYPDAGWNSGSSRQLGPDESNEPH'
p873
sg123
F0.037310000000000003
sg124
g125
sg33
S'145'
p874
sg127
g1
(g128
g12
(dp875
g130
I4
sg131
g132
sg133
g134
sg135
g132
sg136
I01
sg34
g137
sg138
g134
sg139
I0
sg140
I0
sg141
I0
sg142
g134
sg35
g143
sg144
I0
stRp876
sg146
g147
sg148
F1
sg149
Nsg30
S'ClusiA'
p877
sbag1
(g2
g3
NtRp878
(dp879
g6
g1
(g7
g3
NtRp880
(dp881
g10
g1
(g11
g12
(dtRp882
sg14
g1
(g11
g12
(dtRp883
sg16
g1
(g11
g12
(dtRp884
sg18
g1
(g11
g12
(dtRp885
sg20
g1
(g11
g12
(dtRp886
sg22
g1
(g11
g12
(dtRp887
sbsg24
g25
sg26
g27
((lp888
g33
ag32
ag29
ag30
atRp889
sg37
(lp890
g1
(g2
g3
NtRp891
(dp892
g6
g1
(g7
g3
NtRp893
(dp894
g10
g1
(g11
g12
(dtRp895
sg14
g1
(g11
g12
(dtRp896
sg16
g1
(g11
g12
(dtRp897
sg18
g1
(g11
g12
(dtRp898
sg20
g1
(g11
g12
(dtRp899
sg22
g1
(g11
g12
(dtRp900
sbsg24
S'Mgu'
p901
sg26
g27
((lp902
g29
ag30
aS'sequence'
p903
ag32
ag33
aS'species'
p904
atRp905
sg37
(lp906
sg120
g878
sg121
S'---------------------------------------------------------------------------------------------------------------------------------------------------------------------------------------------------------------------------------------HFHYVLSMGAFSLGYYYWPGLYNWFWFNFPMHFLGGMPRRPYPDAGWNSGSSKQLGPDESNEPH'
p907
sg123
F0.0044999999999999997
sg124
g125
sg33
S'149'
p908
sg127
g1
(g128
g12
(dp909
g130
I4
sg131
g132
sg133
g134
sg135
g132
sg136
I01
sg34
g137
sg138
g134
sg139
I0
sg140
I0
sg141
I0
sg142
g134
sg35
g143
sg144
I0
stRp910
sg146
g147
sg148
F1
sg149
Nsg30
S'MguilB'
p911
sbag1
(g2
g3
NtRp912
(dp913
g6
g1
(g7
g3
NtRp914
(dp915
g10
g1
(g11
g12
(dtRp916
sg14
g1
(g11
g12
(dtRp917
sg16
g1
(g11
g12
(dtRp918
sg18
g1
(g11
g12
(dtRp919
sg20
g1
(g11
g12
(dtRp920
sg22
g1
(g11
g12
(dtRp921
sbsg24
S'Mgu'
p922
sg26
g27
((lp923
g29
ag30
aS'sequence'
p924
ag32
ag33
aS'species'
p925
atRp926
sg37
(lp927
sg120
g878
sg121
S'RWLSTKDLYSRMELGNFNQNVHAMFVMPIGFGNPMGDMFARLNNSFWLPPLSLEGAGTGWTVYPPLSHSGPSVDMAFHLTSSLLGAMNFTNMRGPLFWTALLLLSLPVLAGTLLDRNFNTFEGGDPLYHLFWFFGHPEVYMMPGFGSHSTYKKFGMYASIGLGFVWSHHMYVGLDDRAYFTSATMMAPTGMKFSWLSTYGGRPMLAFLFLFTGGTGVLNASDAFHDTYYVVHFHYVLSMGAFSLGYYYWPGLYNWFWFNFPMHFLGGMPRRPYPDAGWNSGSSKQLGPDESNEPH'
p928
sg123
F0.0020100000000000001
sg124
g125
sg33
S'151'
p929
sg127
g1
(g128
g12
(dp930
g130
I4
sg131
g132
sg133
g134
sg135
g132
sg136
I01
sg34
g137
sg138
g134
sg139
I0
sg140
I0
sg141
I0
sg142
g134
sg35
g143
sg144
I0
stRp931
sg146
g147
sg148
F1
sg149
Nsg30
S'MguilA'
p932
sbasg120
g844
sg123
F0.25231999999999999
sg124
g125
sg33
S'144'
p933
sg127
g1
(g128
g12
(dp934
g130
I6
sg131
g132
sg133
g134
sg135
g132
sg136
I01
sg34
g174
sg138
g134
sg139
I0
sg140
I0
sg141
I0
sg142
g134
sg35
g175
sg144
I0
stRp935
sg146
g147
sg148
F0.98999999999999999
sg149
Nsg30
S'NoName'
p936
sbasg120
g772
sg123
F0.090679999999999997
sg124
g125
sg33
S'138'
p937
sg127
g1
(g128
g12
(dp938
g130
I6
sg131
g132
sg133
g134
sg135
g132
sg136
I01
sg34
g174
sg138
g134
sg139
I0
sg140
I0
sg141
I0
sg142
g134
sg35
g175
sg144
I0
stRp939
sg146
g147
sg148
F0.98999999999999999
sg149
Nsg30
S'NoName'
p940
sbasg120
g700
sg123
F0.032190000000000003
sg124
g125
sg33
S'37'
p941
sg127
g1
(g128
g12
(dp942
g130
I6
sg131
g132
sg133
g134
sg135
g132
sg136
I01
sg34
g174
sg138
g134
sg139
I0
sg140
I0
sg141
I0
sg142
g134
sg35
g175
sg144
I0
stRp943
sg146
g147
sg148
F0.64000000000000001
sg149
Nsg30
S'NoName'
p944
sbasg120
g687
sg123
F0.12181
sg124
g125
sg33
S'33'
p945
sg127
g1
(g128
g12
(dp946
g130
I6
sg131
g132
sg133
g134
sg135
g132
sg136
I01
sg34
g174
sg138
g134
sg139
I0
sg140
I0
sg141
I0
sg142
g134
sg35
g175
sg144
I0
stRp947
sg146
g147
sg148
F0.98999999999999999
sg149
Nsg30
S'NoName'
p948
sbag1
(g2
g3
NtRp949
(dp950
g6
g1
(g7
g3
NtRp951
(dp952
g10
g1
(g11
g12
(dtRp953
sg14
g1
(g11
g12
(dtRp954
sg16
g1
(g11
g12
(dtRp955
sg18
g1
(g11
g12
(dtRp956
sg20
g1
(g11
g12
(dtRp957
sg22
g1
(g11
g12
(dtRp958
sbsg24
g25
sg26
g27
((lp959
g33
ag32
ag29
ag30
atRp960
sg37
(lp961
g1
(g2
g3
NtRp962
(dp963
g6
g1
(g7
g3
NtRp964
(dp965
g10
g1
(g11
g12
(dtRp966
sg14
g1
(g11
g12
(dtRp967
sg16
g1
(g11
g12
(dtRp968
sg18
g1
(g11
g12
(dtRp969
sg20
g1
(g11
g12
(dtRp970
sg22
g1
(g11
g12
(dtRp971
sbsg24
g25
sg26
g27
((lp972
g33
ag32
ag29
ag30
atRp973
sg37
(lp974
g1
(g2
g3
NtRp975
(dp976
g6
g1
(g7
g3
NtRp977
(dp978
g10
g1
(g11
g12
(dtRp979
sg14
g1
(g11
g12
(dtRp980
sg16
g1
(g11
g12
(dtRp981
sg18
g1
(g11
g12
(dtRp982
sg20
g1
(g11
g12
(dtRp983
sg22
g1
(g11
g12
(dtRp984
sbsg24
S'Cbl'
p985
sg26
g27
((lp986
g29
ag30
aS'sequence'
p987
ag32
ag33
aS'species'
p988
atRp989
sg37
(lp990
sg120
g962
sg121
S'RWLSTKDLYSRLELANLNQNVHAMFVMPLGMGNPMGDMFARLNNSFWLPPLSLEGPGTGWTLYAPLSHSGPSVDMAFHLTSSLLGAINFTNMRGPLYWTALLLLSLPVLAATLLDRNFNTFEGGDPLYHLFWFFGHPEVYMIPGFGSHSTYKKFGMYASIGLGFVWSHHMYVGLDDRAYFTSATMIAPTGIKFSWMATYGGRPMLAFLFLFTGGTGVLNASDAFHDTYYVVHFHYVLSMGAFSLGYYYWPGLYNLFWFNFPMHFLGGMPRRPYPDAGWNSGSSYQLGPDESNEPH'
p991
sg123
F0.36785000000000001
sg124
g125
sg33
S'156'
p992
sg127
g1
(g128
g12
(dp993
g130
I4
sg131
g132
sg133
g134
sg135
g132
sg136
I01
sg34
g137
sg138
g134
sg139
I0
sg140
I0
sg141
I0
sg142
g134
sg35
g143
sg144
I0
stRp994
sg146
g147
sg148
F1
sg149
Nsg30
S'CblacA'
p995
sbag1
(g2
g3
NtRp996
(dp997
g6
g1
(g7
g3
NtRp998
(dp999
g10
g1
(g11
g12
(dtRp1000
sg14
g1
(g11
g12
(dtRp1001
sg16
g1
(g11
g12
(dtRp1002
sg18
g1
(g11
g12
(dtRp1003
sg20
g1
(g11
g12
(dtRp1004
sg22
g1
(g11
g12
(dtRp1005
sbsg24
g25
sg26
g27
((lp1006
g33
ag32
ag29
ag30
atRp1007
sg37
(lp1008
g1
(g2
g3
NtRp1009
(dp1010
g6
g1
(g7
g3
NtRp1011
(dp1012
g10
g1
(g11
g12
(dtRp1013
sg14
g1
(g11
g12
(dtRp1014
sg16
g1
(g11
g12
(dtRp1015
sg18
g1
(g11
g12
(dtRp1016
sg20
g1
(g11
g12
(dtRp1017
sg22
g1
(g11
g12
(dtRp1018
sbsg24
g25
sg26
g27
((lp1019
g33
ag32
ag29
ag30
atRp1020
sg37
(lp1021
g1
(g2
g3
NtRp1022
(dp1023
g6
g1
(g7
g3
NtRp1024
(dp1025
g10
g1
(g11
g12
(dtRp1026
sg14
g1
(g11
g12
(dtRp1027
sg16
g1
(g11
g12
(dtRp1028
sg18
g1
(g11
g12
(dtRp1029
sg20
g1
(g11
g12
(dtRp1030
sg22
g1
(g11
g12
(dtRp1031
sbsg24
g25
sg26
g27
((lp1032
g33
ag32
ag29
ag30
atRp1033
sg37
(lp1034
g1
(g2
g3
NtRp1035
(dp1036
g6
g1
(g7
g3
NtRp1037
(dp1038
g10
g1
(g11
g12
(dtRp1039
sg14
g1
(g11
g12
(dtRp1040
sg16
g1
(g11
g12
(dtRp1041
sg18
g1
(g11
g12
(dtRp1042
sg20
g1
(g11
g12
(dtRp1043
sg22
g1
(g11
g12
(dtRp1044
sbsg24
g25
sg26
g27
((lp1045
g33
ag32
ag29
ag30
atRp1046
sg37
(lp1047
g1
(g2
g3
NtRp1048
(dp1049
g6
g1
(g7
g3
NtRp1050
(dp1051
g10
g1
(g11
g12
(dtRp1052
sg14
g1
(g11
g12
(dtRp1053
sg16
g1
(g11
g12
(dtRp1054
sg18
g1
(g11
g12
(dtRp1055
sg20
g1
(g11
g12
(dtRp1056
sg22
g1
(g11
g12
(dtRp1057
sbsg24
S'Lel'
p1058
sg26
g27
((lp1059
g29
ag30
aS'sequence'
p1060
ag32
ag33
aS'species'
p1061
atRp1062
sg37
(lp1063
sg120
g1035
sg121
S'RWLSTKDLYSRLELPGLDQNVHAMFVMPLGFGNPMGDMFARLNNSFWLPPLSLEGAGTGWTVYPPLSHSGPSVDLAFHLTSSLLGAINFTNMRGPLYWTALLLFSLPVLAGTLLDRNFNTFDGGDPLYHLFWFFGHPEVYIIPGFGSHSTYKKFGMYASIGLGFVWSHHMYVGLDDRAYFTSATMIAPTGIKFSWLATYGGRPMLAFLFLFTGGTGVLNASDAFHDTYYTVHFHYVLSMGAFSLGYYYWYGLYNLFWFNFPMHFLGGMPRRPYPDAGWNSGSSYQLGPDESNEPH'
p1064
sg123
F0.18278
sg124
g125
sg33
S'166'
p1065
sg127
g1
(g128
g12
(dp1066
g130
I4
sg131
g132
sg133
g134
sg135
g132
sg136
I01
sg34
g137
sg138
g134
sg139
I0
sg140
I0
sg141
I0
sg142
g134
sg35
g143
sg144
I0
stRp1067
sg146
g147
sg148
F1
sg149
Nsg30
S'LelonA'
p1068
sbag1
(g2
g3
NtRp1069
(dp1070
g6
g1
(g7
g3
NtRp1071
(dp1072
g10
g1
(g11
g12
(dtRp1073
sg14
g1
(g11
g12
(dtRp1074
sg16
g1
(g11
g12
(dtRp1075
sg18
g1
(g11
g12
(dtRp1076
sg20
g1
(g11
g12
(dtRp1077
sg22
g1
(g11
g12
(dtRp1078
sbsg24
S'Cox'
p1079
sg26
g27
((lp1080
g29
ag30
aS'sequence'
p1081
ag32
ag33
aS'species'
p1082
atRp1083
sg37
(lp1084
sg120
g1035
sg121
S'RWLSTKDLYSRLELSGLDQNVHAMFVMPIGFGNPMGDMFARLNNSFWLPPLSLEGPGVGWTVYPPLSHSGPSVDLAFHLTSSLLGAINFTNMRGPLYWTALLLLSLPVLAGTLLDRNFNTFDGGDPLYHLFWFFGHPEVYMIPGFGSHATYKKFGMYASIGLGFVWSHHMYVGLDDRAYFTSATMIAPTGIKFSWLATYGGRPMLAFLFLFTGGTGILNASDAFHDTYYTVHFHYVLSMGAFSLGYYLWYGLYNIFWFNFPMHFLGGMPRRPYPDAGWNSGSSYQLGPDESNEPH'
p1085
sg123
F0.17860000000000001
sg124
g125
sg33
S'167'
p1086
sg127
g1
(g128
g12
(dp1087
g130
I4
sg131
g132
sg133
g134
sg135
g132
sg136
I01
sg34
g137
sg138
g134
sg139
I0
sg140
I0
sg141
I0
sg142
g134
sg35
g143
sg144
I0
stRp1088
sg146
g147
sg148
F1
sg149
Nsg30
S'CoxycA'
p1089
sbasg120
g1022
sg123
F0.041480000000000003
sg124
g125
sg33
S'162'
p1090
sg127
g1
(g128
g12
(dp1091
g130
I6
sg131
g132
sg133
g134
sg135
g132
sg136
I01
sg34
g174
sg138
g134
sg139
I0
sg140
I0
sg141
I0
sg142
g134
sg35
g175
sg144
I0
stRp1092
sg146
g147
sg148
F0.98999999999999999
sg149
Nsg30
S'NoName'
p1093
sbag1
(g2
g3
NtRp1094
(dp1095
g6
g1
(g7
g3
NtRp1096
(dp1097
g10
g1
(g11
g12
(dtRp1098
sg14
g1
(g11
g12
(dtRp1099
sg16
g1
(g11
g12
(dtRp1100
sg18
g1
(g11
g12
(dtRp1101
sg20
g1
(g11
g12
(dtRp1102
sg22
g1
(g11
g12
(dtRp1103
sbsg24
g25
sg26
g27
((lp1104
g33
ag32
ag29
ag30
atRp1105
sg37
(lp1106
g1
(g2
g3
NtRp1107
(dp1108
g6
g1
(g7
g3
NtRp1109
(dp1110
g10
g1
(g11
g12
(dtRp1111
sg14
g1
(g11
g12
(dtRp1112
sg16
g1
(g11
g12
(dtRp1113
sg18
g1
(g11
g12
(dtRp1114
sg20
g1
(g11
g12
(dtRp1115
sg22
g1
(g11
g12
(dtRp1116
sbsg24
g25
sg26
g27
((lp1117
g33
ag32
ag29
ag30
atRp1118
sg37
(lp1119
g1
(g2
g3
NtRp1120
(dp1121
g6
g1
(g7
g3
NtRp1122
(dp1123
g10
g1
(g11
g12
(dtRp1124
sg14
g1
(g11
g12
(dtRp1125
sg16
g1
(g11
g12
(dtRp1126
sg18
g1
(g11
g12
(dtRp1127
sg20
g1
(g11
g12
(dtRp1128
sg22
g1
(g11
g12
(dtRp1129
sbsg24
g25
sg26
g27
((lp1130
g33
ag32
ag29
ag30
atRp1131
sg37
(lp1132
g1
(g2
g3
NtRp1133
(dp1134
g6
g1
(g7
g3
NtRp1135
(dp1136
g10
g1
(g11
g12
(dtRp1137
sg14
g1
(g11
g12
(dtRp1138
sg16
g1
(g11
g12
(dtRp1139
sg18
g1
(g11
g12
(dtRp1140
sg20
g1
(g11
g12
(dtRp1141
sg22
g1
(g11
g12
(dtRp1142
sbsg24
S'Cth'
p1143
sg26
g27
((lp1144
g29
ag30
aS'sequence'
p1145
ag32
ag33
aS'species'
p1146
atRp1147
sg37
(lp1148
sg120
g1120
sg121
S'RWLSTKDLYSRLELPGLNQNVHAMFVMPLGFGNPMGDMFARLNNSFWLPPLSLEGAGTGWTVYPPLSHSGPSVDLAFHLTSSLLGAINFTNMRGPLYWTALLLLSLPVLAGTLLDRNFNTFEGGDPLYHLFWFFGHPEVYIIPGFGSHSTYKKFGMYASIGLGFVWSHHMYVGLDDRAYFTSATMIAPTGIKFSWLATYGGRPMLAFLFLFTGGTGVLNASDAFHDTYYTVHFHYVLSMGAFSLGYYYWYGLYNLFWFNFPMHFLGGMPRRPYPDAGWNSGSSYQLGPDESNEPH'
p1149
sg123
F0.010059999999999999
sg124
g125
sg33
S'174'
p1150
sg127
g1
(g128
g12
(dp1151
g130
I4
sg131
g132
sg133
g134
sg135
g132
sg136
I01
sg34
g137
sg138
g134
sg139
I0
sg140
I0
sg141
I0
sg142
g134
sg35
g143
sg144
I0
stRp1152
sg146
g147
sg148
F1
sg149
Nsg30
S'CtheaA'
p1153
sbag1
(g2
g3
NtRp1154
(dp1155
g6
g1
(g7
g3
NtRp1156
(dp1157
g10
g1
(g11
g12
(dtRp1158
sg14
g1
(g11
g12
(dtRp1159
sg16
g1
(g11
g12
(dtRp1160
sg18
g1
(g11
g12
(dtRp1161
sg20
g1
(g11
g12
(dtRp1162
sg22
g1
(g11
g12
(dtRp1163
sbsg24
g25
sg26
g27
((lp1164
g33
ag32
ag29
ag30
atRp1165
sg37
(lp1166
g1
(g2
g3
NtRp1167
(dp1168
g6
g1
(g7
g3
NtRp1169
(dp1170
g10
g1
(g11
g12
(dtRp1171
sg14
g1
(g11
g12
(dtRp1172
sg16
g1
(g11
g12
(dtRp1173
sg18
g1
(g11
g12
(dtRp1174
sg20
g1
(g11
g12
(dtRp1175
sg22
g1
(g11
g12
(dtRp1176
sbsg24
g25
sg26
g27
((lp1177
g33
ag32
ag29
ag30
atRp1178
sg37
(lp1179
g1
(g2
g3
NtRp1180
(dp1181
g6
g1
(g7
g3
NtRp1182
(dp1183
g10
g1
(g11
g12
(dtRp1184
sg14
g1
(g11
g12
(dtRp1185
sg16
g1
(g11
g12
(dtRp1186
sg18
g1
(g11
g12
(dtRp1187
sg20
g1
(g11
g12
(dtRp1188
sg22
g1
(g11
g12
(dtRp1189
sbsg24
g25
sg26
g27
((lp1190
g33
ag32
ag29
ag30
atRp1191
sg37
(lp1192
g1
(g2
g3
NtRp1193
(dp1194
g6
g1
(g7
g3
NtRp1195
(dp1196
g10
g1
(g11
g12
(dtRp1197
sg14
g1
(g11
g12
(dtRp1198
sg16
g1
(g11
g12
(dtRp1199
sg18
g1
(g11
g12
(dtRp1200
sg20
g1
(g11
g12
(dtRp1201
sg22
g1
(g11
g12
(dtRp1202
sbsg24
S'Cor'
p1203
sg26
g27
((lp1204
g29
ag30
aS'sequence'
p1205
ag32
ag33
aS'species'
p1206
atRp1207
sg37
(lp1208
sg120
g1180
sg121
S'RWLSTKDLYSRLELPGLNQNVHAMFVMPLGFGNPMGDMFARLNNSFWLPPLSLEGAGTGWTVYPPLSHSGPSVDLAFHLTSSLLGAINFTNMRGPLFWTALLLLSLPVLAGTLLDRNFNTFEGGDPLYHLFWFFGHPEVYIIPGFGSHSTYKKFGMYASIGLGFVWSHHMYVGLDDRAYFTSATMIAPTGIKFSWLATYGGRPMLAFLFLFTGGTGVLNASDAFHDTYYTVHFHYVLSMGAFSLGYYYWYGLYNLFWFNFPMHFLGGMPRRPYPDAGWNSGSSYQLGPDESNEPH'
p1209
sg123
F0.00132
sg124
g125
sg33
S'181'
p1210
sg127
g1
(g128
g12
(dp1211
g130
I4
sg131
g132
sg133
g134
sg135
g132
sg136
I01
sg34
g137
sg138
g134
sg139
I0
sg140
I0
sg141
I0
sg142
g134
sg35
g143
sg144
I0
stRp1212
sg146
g147
sg148
F1
sg149
Nsg30
S'CorthC'
p1213
sbag1
(g2
g3
NtRp1214
(dp1215
g6
g1
(g7
g3
NtRp1216
(dp1217
g10
g1
(g11
g12
(dtRp1218
sg14
g1
(g11
g12
(dtRp1219
sg16
g1
(g11
g12
(dtRp1220
sg18
g1
(g11
g12
(dtRp1221
sg20
g1
(g11
g12
(dtRp1222
sg22
g1
(g11
g12
(dtRp1223
sbsg24
S'Cor'
p1224
sg26
g27
((lp1225
g29
ag30
aS'sequence'
p1226
ag32
ag33
aS'species'
p1227
atRp1228
sg37
(lp1229
sg120
g1180
sg121
S'RWLSTKDLYSRLELPGLNQNVHAMFVMPLGFGNPMGDMFARLNNSFWLPPLSLEGAGTGWTVYPPLSHSGPSVDLAFHLTSSLLGAINFTNMRGPLFWTALLLLSLPVLAGTLLDRNFNTFEGGDPLYHLFWFFGHPEVYIIPGFGSHSTYKKFGMYASIGLGFVWSHHMYVGLDDRAYFTSATMIAPTGIKFSWLATYGGRPMLAFLFLFTGGTGVLNASDAFHDTYYTVHFHYVLSMGAFSLGYYYWYGLYNLFWFNFPMHFLGGMPRRPYPDAGWNSGSSYQLGPDESNEPH'
p1230
sg123
F0.00093000000000000005
sg124
g125
sg33
S'183'
p1231
sg127
g1
(g128
g12
(dp1232
g130
I4
sg131
g132
sg133
g134
sg135
g132
sg136
I01
sg34
g137
sg138
g134
sg139
I0
sg140
I0
sg141
I0
sg142
g134
sg35
g143
sg144
I0
stRp1233
sg146
g147
sg148
F1
sg149
Nsg30
S'CorthB'
p1234
sbasg120
g1167
sg123
F0.00052999999999999998
sg124
g125
sg33
S'178'
p1235
sg127
g1
(g128
g12
(dp1236
g130
I6
sg131
g132
sg133
g134
sg135
g132
sg136
I01
sg34
g174
sg138
g134
sg139
I0
sg140
I0
sg141
I0
sg142
g134
sg35
g175
sg144
I0
stRp1237
sg146
g147
sg148
F0.85999999999999999
sg149
Nsg30
S'NoName'
p1238
sbag1
(g2
g3
NtRp1239
(dp1240
g6
g1
(g7
g3
NtRp1241
(dp1242
g10
g1
(g11
g12
(dtRp1243
sg14
g1
(g11
g12
(dtRp1244
sg16
g1
(g11
g12
(dtRp1245
sg18
g1
(g11
g12
(dtRp1246
sg20
g1
(g11
g12
(dtRp1247
sg22
g1
(g11
g12
(dtRp1248
sbsg24
S'Cor'
p1249
sg26
g27
((lp1250
g29
ag30
aS'sequence'
p1251
ag32
ag33
aS'species'
p1252
atRp1253
sg37
(lp1254
sg120
g1167
sg121
S'RWLSTKDLYSRLELPGLNQNVHAMFVMPLGFGNPMGDMFARLNNSFWLPPLSLEGAGTGWTVYPPLSHSGPSVDLAFHLTSSLLGAINFTNMRGPLFWTALLLLSLPVLAGTLLDRNFNTFEGGDPLYHLFWFFGHPEVYIIPGFGSHSTYKKFGMYASIGLGFVWSHHMYVGLDDRAYFTSATMIAPTGIKFSWLATYGGRPMLAFLFLFTGGTGVLNASDAFHDTYYTVHFHYVLSMGAFSLGYYYWYGLYNLFWFNFPMHFLGGMPRRPYPDAGWNSGSSYQLGPDESNEPH'
p1255
sg123
F0.0021099999999999999
sg124
g125
sg33
S'184'
p1256
sg127
g1
(g128
g12
(dp1257
g130
I4
sg131
g132
sg133
g134
sg135
g132
sg136
I01
sg34
g137
sg138
g134
sg139
I0
sg140
I0
sg141
I0
sg142
g134
sg35
g143
sg144
I0
stRp1258
sg146
g147
sg148
F1
sg149
Nsg30
S'CorthA'
p1259
sbasg120
g1154
sg123
F0.0031199999999999999
sg124
g125
sg33
S'177'
p1260
sg127
g1
(g128
g12
(dp1261
g130
I6
sg131
g132
sg133
g134
sg135
g132
sg136
I01
sg34
g174
sg138
g134
sg139
I0
sg140
I0
sg141
I0
sg142
g134
sg35
g175
sg144
I0
stRp1262
sg146
g147
sg148
F0.98999999999999999
sg149
Nsg30
S'NoName'
p1263
sbag1
(g2
g3
NtRp1264
(dp1265
g6
g1
(g7
g3
NtRp1266
(dp1267
g10
g1
(g11
g12
(dtRp1268
sg14
g1
(g11
g12
(dtRp1269
sg16
g1
(g11
g12
(dtRp1270
sg18
g1
(g11
g12
(dtRp1271
sg20
g1
(g11
g12
(dtRp1272
sg22
g1
(g11
g12
(dtRp1273
sbsg24
g25
sg26
g27
((lp1274
g33
ag32
ag29
ag30
atRp1275
sg37
(lp1276
g1
(g2
g3
NtRp1277
(dp1278
g6
g1
(g7
g3
NtRp1279
(dp1280
g10
g1
(g11
g12
(dtRp1281
sg14
g1
(g11
g12
(dtRp1282
sg16
g1
(g11
g12
(dtRp1283
sg18
g1
(g11
g12
(dtRp1284
sg20
g1
(g11
g12
(dtRp1285
sg22
g1
(g11
g12
(dtRp1286
sbsg24
g25
sg26
g27
((lp1287
g33
ag32
ag29
ag30
atRp1288
sg37
(lp1289
g1
(g2
g3
NtRp1290
(dp1291
g6
g1
(g7
g3
NtRp1292
(dp1293
g10
g1
(g11
g12
(dtRp1294
sg14
g1
(g11
g12
(dtRp1295
sg16
g1
(g11
g12
(dtRp1296
sg18
g1
(g11
g12
(dtRp1297
sg20
g1
(g11
g12
(dtRp1298
sg22
g1
(g11
g12
(dtRp1299
sbsg24
S'Cpa'
p1300
sg26
g27
((lp1301
g29
ag30
aS'sequence'
p1302
ag32
ag33
aS'species'
p1303
atRp1304
sg37
(lp1305
sg120
g1277
sg121
S'RWLSTKDLYSRLELPGLNQNVHAMFVMPLGFGNPMGDMFARLNNSFWLPPLSLEGAGTGWTVYPPLSHSGPSVDLAFHLTSSLLGAINFTNMRGPLFWTALLLLSLPVLAGTLLDRNFNTFEGGDPLYHLFWFFGHPEVYIIPGFGSHSTYKKFGMYASIGLGFVWSHHMYVGLDDRAYFTSATMIAPTSIKFSWLATYGGRTALAFIFLFTGGTGVLNSADPFHDSYYVVHFHYVLSMGAFSIGWYLWPGLYNLFWFNFPMHFLGGMPRRNYPDAGWNSGSAYQLGPSGTNEPH'
p1306
sg123
F0.00012999999999999999
sg124
g125
sg33
S'189'
p1307
sg127
g1
(g128
g12
(dp1308
g130
I4
sg131
g132
sg133
g134
sg135
g132
sg136
I01
sg34
g137
sg138
g134
sg139
I0
sg140
I0
sg141
I0
sg142
g134
sg35
g143
sg144
I0
stRp1309
sg146
g147
sg148
F1
sg149
Nsg30
S'CparaD'
p1310
sbag1
(g2
g3
NtRp1311
(dp1312
g6
g1
(g7
g3
NtRp1313
(dp1314
g10
g1
(g11
g12
(dtRp1315
sg14
g1
(g11
g12
(dtRp1316
sg16
g1
(g11
g12
(dtRp1317
sg18
g1
(g11
g12
(dtRp1318
sg20
g1
(g11
g12
(dtRp1319
sg22
g1
(g11
g12
(dtRp1320
sbsg24
S'Cpa'
p1321
sg26
g27
((lp1322
g29
ag30
aS'sequence'
p1323
ag32
ag33
aS'species'
p1324
atRp1325
sg37
(lp1326
sg120
g1277
sg121
S'RWLSTKDLYSRLELPGLNQNVHAMFVMPLGFGNPMGDMFARLNNSFWLPPLSLEGAGTGWTVYPPLSHSGPSVDLAFHLTSSLLGAINFTNMRGPLFWTALLLLSLPVLAGTLLDRNFNTFEGGDPLYHLFWFFGHPEVYIIPGFGSHSTYKKFGMYASIGLGFVWSHHMYVGLDDRAYFTSATMIAPTGIKFSWLATYGGRPMLAFLFLFTGGTGVVNASDAFHDTYYVVHFHYVLSMGAFSLGYYYWYGLYNLFWFNFPMHFLGGMPRRPYPDAGWNSGSSYSLGPDESNEPH'
p1327
sg123
F0.00012999999999999999
sg124
g125
sg33
S'190'
p1328
sg127
g1
(g128
g12
(dp1329
g130
I4
sg131
g132
sg133
g134
sg135
g132
sg136
I01
sg34
g137
sg138
g134
sg139
I0
sg140
I0
sg141
I0
sg142
g134
sg35
g143
sg144
I0
stRp1330
sg146
g147
sg148
F1
sg149
Nsg30
S'CparaB'
p1331
sbasg120
g1264
sg123
F0.00051000000000000004
sg124
g125
sg33
S'186'
p1332
sg127
g1
(g128
g12
(dp1333
g130
I6
sg131
g132
sg133
g134
sg135
g132
sg136
I01
sg34
g174
sg138
g134
sg139
I0
sg140
I0
sg141
I0
sg142
g134
sg35
g175
sg144
I0
stRp1334
sg146
g147
sg148
F0.98999999999999999
sg149
Nsg30
S'NoName'
p1335
sbag1
(g2
g3
NtRp1336
(dp1337
g6
g1
(g7
g3
NtRp1338
(dp1339
g10
g1
(g11
g12
(dtRp1340
sg14
g1
(g11
g12
(dtRp1341
sg16
g1
(g11
g12
(dtRp1342
sg18
g1
(g11
g12
(dtRp1343
sg20
g1
(g11
g12
(dtRp1344
sg22
g1
(g11
g12
(dtRp1345
sbsg24
S'Cpa'
p1346
sg26
g27
((lp1347
g29
ag30
aS'sequence'
p1348
ag32
ag33
aS'species'
p1349
atRp1350
sg37
(lp1351
sg120
g1264
sg121
S'RWLSTKDLYSRLELPGLNQNVHAMFVMPLGFGNPMGDMFARLNNSFWLPPLSLEGAGTGWTVYPPLSHSGPSVDLAFHLTSSLLGAINFTNMRGPLFWTALLLLSLPVLAGTLLDRNFNTFEGGDPLYHLFWFFGHPEVYIIPGFGSHSTYKKFGMYASIGLGFVWSHHMYVGLDDRAYFTSATMIAPTGIKFSWLATYGGRPMLAFLFLFTGGTGVVNASDAFHDTYYVVHFHYVLSMGAFSLGYYYWYGLYNLFWFNFPMHFLGGMPRRPYPDAGWNSGSSYSLGPDESNEPH'
p1352
sg123
F0.00012
sg124
g125
sg33
S'192'
p1353
sg127
g1
(g128
g12
(dp1354
g130
I4
sg131
g132
sg133
g134
sg135
g132
sg136
I01
sg34
g137
sg138
g134
sg139
I0
sg140
I0
sg141
I0
sg142
g134
sg35
g143
sg144
I0
stRp1355
sg146
g147
sg148
F1
sg149
Nsg30
S'CparaC'
p1356
sbasg120
g1154
sg123
F1.0000000000000001e-05
sg124
g125
sg33
S'180'
p1357
sg127
g1
(g128
g12
(dp1358
g130
I6
sg131
g132
sg133
g134
sg135
g132
sg136
I01
sg34
g174
sg138
g134
sg139
I0
sg140
I0
sg141
I0
sg142
g134
sg35
g175
sg144
I0
stRp1359
sg146
g147
sg148
F1
sg149
Nsg30
S'NoName'
p1360
sbasg120
g1120
sg123
F0.0032599999999999999
sg124
g125
sg33
S'173'
p1361
sg127
g1
(g128
g12
(dp1362
g130
I6
sg131
g132
sg133
g134
sg135
g132
sg136
I01
sg34
g174
sg138
g134
sg139
I0
sg140
I0
sg141
I0
sg142
g134
sg35
g175
sg144
I0
stRp1363
sg146
g147
sg148
F0.97999999999999998
sg149
Nsg30
S'NoName'
p1364
sbasg120
g1107
sg123
F1.0000000000000001e-05
sg124
g125
sg33
S'171'
p1365
sg127
g1
(g128
g12
(dp1366
g130
I6
sg131
g132
sg133
g134
sg135
g132
sg136
I01
sg34
g174
sg138
g134
sg139
I0
sg140
I0
sg141
I0
sg142
g134
sg35
g175
sg144
I0
stRp1367
sg146
g147
sg148
F1
sg149
Nsg30
S'NoName'
p1368
sbag1
(g2
g3
NtRp1369
(dp1370
g6
g1
(g7
g3
NtRp1371
(dp1372
g10
g1
(g11
g12
(dtRp1373
sg14
g1
(g11
g12
(dtRp1374
sg16
g1
(g11
g12
(dtRp1375
sg18
g1
(g11
g12
(dtRp1376
sg20
g1
(g11
g12
(dtRp1377
sg22
g1
(g11
g12
(dtRp1378
sbsg24
g25
sg26
g27
((lp1379
g33
ag32
ag29
ag30
atRp1380
sg37
(lp1381
g1
(g2
g3
NtRp1382
(dp1383
g6
g1
(g7
g3
NtRp1384
(dp1385
g10
g1
(g11
g12
(dtRp1386
sg14
g1
(g11
g12
(dtRp1387
sg16
g1
(g11
g12
(dtRp1388
sg18
g1
(g11
g12
(dtRp1389
sg20
g1
(g11
g12
(dtRp1390
sg22
g1
(g11
g12
(dtRp1391
sbsg24
g25
sg26
g27
((lp1392
g33
ag32
ag29
ag30
atRp1393
sg37
(lp1394
g1
(g2
g3
NtRp1395
(dp1396
g6
g1
(g7
g3
NtRp1397
(dp1398
g10
g1
(g11
g12
(dtRp1399
sg14
g1
(g11
g12
(dtRp1400
sg16
g1
(g11
g12
(dtRp1401
sg18
g1
(g11
g12
(dtRp1402
sg20
g1
(g11
g12
(dtRp1403
sg22
g1
(g11
g12
(dtRp1404
sbsg24
g25
sg26
g27
((lp1405
g33
ag32
ag29
ag30
atRp1406
sg37
(lp1407
g1
(g2
g3
NtRp1408
(dp1409
g6
g1
(g7
g3
NtRp1410
(dp1411
g10
g1
(g11
g12
(dtRp1412
sg14
g1
(g11
g12
(dtRp1413
sg16
g1
(g11
g12
(dtRp1414
sg18
g1
(g11
g12
(dtRp1415
sg20
g1
(g11
g12
(dtRp1416
sg22
g1
(g11
g12
(dtRp1417
sbsg24
g25
sg26
g27
((lp1418
g33
ag32
ag29
ag30
atRp1419
sg37
(lp1420
g1
(g2
g3
NtRp1421
(dp1422
g6
g1
(g7
g3
NtRp1423
(dp1424
g10
g1
(g11
g12
(dtRp1425
sg14
g1
(g11
g12
(dtRp1426
sg16
g1
(g11
g12
(dtRp1427
sg18
g1
(g11
g12
(dtRp1428
sg20
g1
(g11
g12
(dtRp1429
sg22
g1
(g11
g12
(dtRp1430
sbsg24
g25
sg26
g27
((lp1431
g33
ag32
ag29
ag30
atRp1432
sg37
(lp1433
g1
(g2
g3
NtRp1434
(dp1435
g6
g1
(g7
g3
NtRp1436
(dp1437
g10
g1
(g11
g12
(dtRp1438
sg14
g1
(g11
g12
(dtRp1439
sg16
g1
(g11
g12
(dtRp1440
sg18
g1
(g11
g12
(dtRp1441
sg20
g1
(g11
g12
(dtRp1442
sg22
g1
(g11
g12
(dtRp1443
sbsg24
S'Cme'
p1444
sg26
g27
((lp1445
g29
ag30
aS'sequence'
p1446
ag32
ag33
aS'species'
p1447
atRp1448
sg37
(lp1449
sg120
g1421
sg121
S'RWLSTKDLYSRLELPGLNQNVHAMFVMPLGFGNPMGDMFARLNNSFWLPPLSLEGAGTGWTVYPPLSHSGPSVDLAFHLTSSLLGAINFTNMRGPLYWTALLLLSLPVLAGTLLDRNFNTFEGGDPLYHLFWFFGHPEVYIIPGFGSHSTYKKFGMYASIGLGFVWSHHMYVGLDDRAYFTSATMIAPTGIKFSWLATYGGRPMLAFLFLFTGGTGVLNASDAFHDTYYVVHFHYVLSMGAFSLGYYYWYGLYNLFWFNFPMHFLGGMPRRPYPDAGWNSGSSYQLGPDESNEPH'
p1450
sg123
F0.00012999999999999999
sg124
g125
sg33
S'202'
p1451
sg127
g1
(g128
g12
(dp1452
g130
I4
sg131
g132
sg133
g134
sg135
g132
sg136
I01
sg34
g137
sg138
g134
sg139
I0
sg140
I0
sg141
I0
sg142
g134
sg35
g143
sg144
I0
stRp1453
sg146
g147
sg148
F1
sg149
Nsg30
S'CmetaF'
p1454
sbag1
(g2
g3
NtRp1455
(dp1456
g6
g1
(g7
g3
NtRp1457
(dp1458
g10
g1
(g11
g12
(dtRp1459
sg14
g1
(g11
g12
(dtRp1460
sg16
g1
(g11
g12
(dtRp1461
sg18
g1
(g11
g12
(dtRp1462
sg20
g1
(g11
g12
(dtRp1463
sg22
g1
(g11
g12
(dtRp1464
sbsg24
S'Cme'
p1465
sg26
g27
((lp1466
g29
ag30
aS'sequence'
p1467
ag32
ag33
aS'species'
p1468
atRp1469
sg37
(lp1470
sg120
g1421
sg121
S'RWLSTKDLYSRLELPGLNQNVHAMFVMPLGFGNPMGDMFARLNNSFWLPPLSLEGAGTGWTVYPPLSHSGPSVDLAFHLTSSLLGAINFTNMRGPLYWTALLLLSLPVLAGTLLDRNFNTFEGGDPLYHLFWFFGHPEVYIIPGFGSHSTYKKFGMYASIGLGFVWSHHMYVGLDDRAYFTSATMIAPTGIKFSWLATYGGRPMLAFLFLFTGGTGVLNASDAFHDTYYVVHFHYVLSMGAFSLGYYYWYGLYNLFWFNFPMHFLGGMPRRPYPDAGWNSGSSYQLGPDESNEPH'
p1471
sg123
F0.00012
sg124
g125
sg33
S'203'
p1472
sg127
g1
(g128
g12
(dp1473
g130
I4
sg131
g132
sg133
g134
sg135
g132
sg136
I01
sg34
g137
sg138
g134
sg139
I0
sg140
I0
sg141
I0
sg142
g134
sg35
g143
sg144
I0
stRp1474
sg146
g147
sg148
F1
sg149
Nsg30
S'CmetaE'
p1475
sbasg120
g1408
sg123
F1.0000000000000001e-05
sg124
g125
sg33
S'199'
p1476
sg127
g1
(g128
g12
(dp1477
g130
I6
sg131
g132
sg133
g134
sg135
g132
sg136
I01
sg34
g174
sg138
g134
sg139
I0
sg140
I0
sg141
I0
sg142
g134
sg35
g175
sg144
I0
stRp1478
sg146
g147
sg148
F1
sg149
Nsg30
S'NoName'
p1479
sbag1
(g2
g3
NtRp1480
(dp1481
g6
g1
(g7
g3
NtRp1482
(dp1483
g10
g1
(g11
g12
(dtRp1484
sg14
g1
(g11
g12
(dtRp1485
sg16
g1
(g11
g12
(dtRp1486
sg18
g1
(g11
g12
(dtRp1487
sg20
g1
(g11
g12
(dtRp1488
sg22
g1
(g11
g12
(dtRp1489
sbsg24
S'Cme'
p1490
sg26
g27
((lp1491
g29
ag30
aS'sequence'
p1492
ag32
ag33
aS'species'
p1493
atRp1494
sg37
(lp1495
sg120
g1408
sg121
S'RWLSTKDLYSRLELPGLNQNVHAMFVMPLGFGNPMGDMFARLNNSFWLPPLSLEGAGTGWTVYPPLSHSGPSVDLAFHLTSSLLGAINFTNMRGPLYWTALLLLSLPVLAGTLLDRNFNTFEGGDPLYHLFWFFGHPEVYIIPGFGSHSTYKKFGMYASIGLGFVWSHHMYVGLDDRAYFTSATMIAPTGIKFSWLATYGGRPMLAFLFLFTGGTGVLNASDAFHDTYYVVHFHYVLSMGAFSLGYYYWYGLYNLFWFNFPMHFLGGMPRRPYPDAGWNSGSSYQLGPDESNEPH'
p1496
sg123
F0.00020000000000000001
sg124
g125
sg33
S'205'
p1497
sg127
g1
(g128
g12
(dp1498
g130
I4
sg131
g132
sg133
g134
sg135
g132
sg136
I01
sg34
g137
sg138
g134
sg139
I0
sg140
I0
sg141
I0
sg142
g134
sg35
g143
sg144
I0
stRp1499
sg146
g147
sg148
F1
sg149
Nsg30
S'CmetaD'
p1500
sbasg120
g1395
sg123
F1.0000000000000001e-05
sg124
g125
sg33
S'69'
p1501
sg127
g1
(g128
g12
(dp1502
g130
I6
sg131
g132
sg133
g134
sg135
g132
sg136
I01
sg34
g174
sg138
g134
sg139
I0
sg140
I0
sg141
I0
sg142
g134
sg35
g175
sg144
I0
stRp1503
sg146
g147
sg148
F1
sg149
Nsg30
S'NoName'
p1504
sbag1
(g2
g3
NtRp1505
(dp1506
g6
g1
(g7
g3
NtRp1507
(dp1508
g10
g1
(g11
g12
(dtRp1509
sg14
g1
(g11
g12
(dtRp1510
sg16
g1
(g11
g12
(dtRp1511
sg18
g1
(g11
g12
(dtRp1512
sg20
g1
(g11
g12
(dtRp1513
sg22
g1
(g11
g12
(dtRp1514
sbsg24
S'Cme'
p1515
sg26
g27
((lp1516
g29
ag30
aS'sequence'
p1517
ag32
ag33
aS'species'
p1518
atRp1519
sg37
(lp1520
sg120
g1395
sg121
S'RWLSTKDLYSRLELPGLNQNVHAMFVMPLGFGNPMGDMFARLNNSFWLPPLSLEGAGTGWTVYPPLSHSGPSVDLAFHLTSSLLGAINFTNMRGPLYWTALLLLSLPVLAGTLLDRNFNTFEGGDPLYHLFWFFGHPEVYIIPGFGSHSTYKKFGMYASIGLGFVWSHHMYVGLDDRAYFTSATMIAPTGIKFSWLATYGGRPMLAFLFLFTGGTGVLNASDAFHDTYYVVHFHYVLSMGAFSLGYYYWYGLYNLFWFNFPMHFLGGMPRRPYPDAGWNSGSSYQLGPDESNEPH'
p1521
sg123
F0.00052999999999999998
sg124
g125
sg33
S'207'
p1522
sg127
g1
(g128
g12
(dp1523
g130
I4
sg131
g132
sg133
g134
sg135
g132
sg136
I01
sg34
g137
sg138
g134
sg139
I0
sg140
I0
sg141
I0
sg142
g134
sg35
g143
sg144
I0
stRp1524
sg146
g147
sg148
F1
sg149
Nsg30
S'CmetaC'
p1525
sbasg120
g1382
sg123
F1.0000000000000001e-05
sg124
g125
sg33
S'196'
p1526
sg127
g1
(g128
g12
(dp1527
g130
I6
sg131
g132
sg133
g134
sg135
g132
sg136
I01
sg34
g174
sg138
g134
sg139
I0
sg140
I0
sg141
I0
sg142
g134
sg35
g175
sg144
I0
stRp1528
sg146
g147
sg148
F1
sg149
Nsg30
S'NoName'
p1529
sbag1
(g2
g3
NtRp1530
(dp1531
g6
g1
(g7
g3
NtRp1532
(dp1533
g10
g1
(g11
g12
(dtRp1534
sg14
g1
(g11
g12
(dtRp1535
sg16
g1
(g11
g12
(dtRp1536
sg18
g1
(g11
g12
(dtRp1537
sg20
g1
(g11
g12
(dtRp1538
sg22
g1
(g11
g12
(dtRp1539
sbsg24
S'Cme'
p1540
sg26
g27
((lp1541
g29
ag30
aS'sequence'
p1542
ag32
ag33
aS'species'
p1543
atRp1544
sg37
(lp1545
sg120
g1382
sg121
S'RWLSTKDLYSRLELPGLNQNVHAMFVMPLGFGNPMGDMFARLNNSFWLPPLSLEGAGTGWTVYPPLSHSGPSVDLAFHLTSSLLGAINFTNMRGPLYWTALLLLSLPVLAGTLLDRNFNTFEGGDPLYHLFWFFGHPEVYIIPGFGSHSTYKKFGMYASIGLGFVWSHHMYVGLDDRAYFTSATMIAPTGIKFSWLATYGGRPMLAFLFLFTGGTGVLNASDAFHDTYYVVHFHYVLSMGAFSLGYYYWYGLYNLFWFNFPMHFLGGMPRRPYPDAGWNSGSSYQLGPDESNEPH'
p1546
sg123
F0.00012
sg124
g125
sg33
S'210'
p1547
sg127
g1
(g128
g12
(dp1548
g130
I4
sg131
g132
sg133
g134
sg135
g132
sg136
I01
sg34
g137
sg138
g134
sg139
I0
sg140
I0
sg141
I0
sg142
g134
sg35
g143
sg144
I0
stRp1549
sg146
g147
sg148
F1
sg149
Nsg30
S'CmetaB'
p1550
sbasg120
g1369
sg123
F1.0000000000000001e-05
sg124
g125
sg33
S'194'
p1551
sg127
g1
(g128
g12
(dp1552
g130
I6
sg131
g132
sg133
g134
sg135
g132
sg136
I01
sg34
g174
sg138
g134
sg139
I0
sg140
I0
sg141
I0
sg142
g134
sg35
g175
sg144
I0
stRp1553
sg146
g147
sg148
F1
sg149
Nsg30
S'NoName'
p1554
sbag1
(g2
g3
NtRp1555
(dp1556
g6
g1
(g7
g3
NtRp1557
(dp1558
g10
g1
(g11
g12
(dtRp1559
sg14
g1
(g11
g12
(dtRp1560
sg16
g1
(g11
g12
(dtRp1561
sg18
g1
(g11
g12
(dtRp1562
sg20
g1
(g11
g12
(dtRp1563
sg22
g1
(g11
g12
(dtRp1564
sbsg24
S'Cme'
p1565
sg26
g27
((lp1566
g29
ag30
aS'sequence'
p1567
ag32
ag33
aS'species'
p1568
atRp1569
sg37
(lp1570
sg120
g1369
sg121
S'RWLSTKDLYSRLELPGLNQNVHAMFVMPLGFGNPMGDMFARLNNSFWLPPLSLEGAGTGWTVYPPLSHSGPSVDLAFHLTSSLLGAINFTNMRGPLYWTALLLLSLPVLAGTLLDRNFNTFEGGDPLYHLFWFFGHPEVYIIPGFGSHSTYKKFGMYASIGLGFVWSHHMYVGLDDRAYFTSATMIAPTGIKFSWLATYGGRPMLAFLFLFTGGTGVLNASDAFHDTYYVVHFHYVLSMGAFSLGYYYWYGLYNLFWFNFPMHFLGGMPRRPYPDAGWNSGSSYQLGPDESNEPH'
p1571
sg123
F0.00012999999999999999
sg124
g125
sg33
S'211'
p1572
sg127
g1
(g128
g12
(dp1573
g130
I4
sg131
g132
sg133
g134
sg135
g132
sg136
I01
sg34
g137
sg138
g134
sg139
I0
sg140
I0
sg141
I0
sg142
g134
sg35
g143
sg144
I0
stRp1574
sg146
g147
sg148
F1
sg149
Nsg30
S'CmetaA'
p1575
sbasg120
g1107
sg123
F0.020930000000000001
sg124
g125
sg33
S'187'
p1576
sg127
g1
(g128
g12
(dp1577
g130
I6
sg131
g132
sg133
g134
sg135
g132
sg136
I01
sg34
g174
sg138
g134
sg139
I0
sg140
I0
sg141
I0
sg142
g134
sg35
g175
sg144
I0
stRp1578
sg146
g147
sg148
F0.98999999999999999
sg149
Nsg30
S'NoName'
p1579
sbasg120
g1094
sg123
F0.045289999999999997
sg124
g125
sg33
S'169'
p1580
sg127
g1
(g128
g12
(dp1581
g130
I6
sg131
g132
sg133
g134
sg135
g132
sg136
I01
sg34
g174
sg138
g134
sg139
I0
sg140
I0
sg141
I0
sg142
g134
sg35
g175
sg144
I0
stRp1582
sg146
g147
sg148
F0.98999999999999999
sg149
Nsg30
S'NoName'
p1583
sbag1
(g2
g3
NtRp1584
(dp1585
g6
g1
(g7
g3
NtRp1586
(dp1587
g10
g1
(g11
g12
(dtRp1588
sg14
g1
(g11
g12
(dtRp1589
sg16
g1
(g11
g12
(dtRp1590
sg18
g1
(g11
g12
(dtRp1591
sg20
g1
(g11
g12
(dtRp1592
sg22
g1
(g11
g12
(dtRp1593
sbsg24
S'Cji'
p1594
sg26
g27
((lp1595
g29
ag30
aS'sequence'
p1596
ag32
ag33
aS'species'
p1597
atRp1598
sg37
(lp1599
sg120
g1094
sg121
S'RWLSTKDLYSRLELPGLNQNVHAMFVMPLGFGNPMGDMFARLNNSFWLPPLSLEGAGTGWTVYPPLSHSGPSVDLAFHLTSSLLGAINFTNMRGPMFWTALLLLSLPVLAGTLLDRNFNTFDGGDPLYHLFWFFGHPEVYIIPGFGSHSTYKKFGMYASIGLGFVWSHHMYVGLDDRAYFTSATMIAPTGIKFSWLATYGGRPMLAFLFLFTGGTGVLNASDAFHDTYYTVHFHYVLSMGAFSLGYYYWYGLYNLFWFNFPMHFLGGMPRRPYPDAGWNSGSSYQLGPDESNEPH'
p1600
sg123
F0.013140000000000001
sg124
g125
sg33
S'214'
p1601
sg127
g1
(g128
g12
(dp1602
g130
I4
sg131
g132
sg133
g134
sg135
g132
sg136
I01
sg34
g137
sg138
g134
sg139
I0
sg140
I0
sg141
I0
sg142
g134
sg35
g143
sg144
I0
stRp1603
sg146
g147
sg148
F1
sg149
Nsg30
S'CjiufA'
p1604
sbasg120
g1022
sg123
F0.044909999999999999
sg124
g125
sg33
S'164'
p1605
sg127
g1
(g128
g12
(dp1606
g130
I6
sg131
g132
sg133
g134
sg135
g132
sg136
I01
sg34
g174
sg138
g134
sg139
I0
sg140
I0
sg141
I0
sg142
g134
sg35
g175
sg144
I0
stRp1607
sg146
g147
sg148
F0.98999999999999999
sg149
Nsg30
S'NoName'
p1608
sbasg120
g1009
sg123
F0.082199999999999995
sg124
g125
sg33
S'159'
p1609
sg127
g1
(g128
g12
(dp1610
g130
I6
sg131
g132
sg133
g134
sg135
g132
sg136
I01
sg34
g174
sg138
g134
sg139
I0
sg140
I0
sg141
I0
sg142
g134
sg35
g175
sg144
I0
stRp1611
sg146
g147
sg148
F0.98999999999999999
sg149
Nsg30
S'NoName'
p1612
sbag1
(g2
g3
NtRp1613
(dp1614
g6
g1
(g7
g3
NtRp1615
(dp1616
g10
g1
(g11
g12
(dtRp1617
sg14
g1
(g11
g12
(dtRp1618
sg16
g1
(g11
g12
(dtRp1619
sg18
g1
(g11
g12
(dtRp1620
sg20
g1
(g11
g12
(dtRp1621
sg22
g1
(g11
g12
(dtRp1622
sbsg24
g25
sg26
g27
((lp1623
g33
ag32
ag29
ag30
atRp1624
sg37
(lp1625
g1
(g2
g3
NtRp1626
(dp1627
g6
g1
(g7
g3
NtRp1628
(dp1629
g10
g1
(g11
g12
(dtRp1630
sg14
g1
(g11
g12
(dtRp1631
sg16
g1
(g11
g12
(dtRp1632
sg18
g1
(g11
g12
(dtRp1633
sg20
g1
(g11
g12
(dtRp1634
sg22
g1
(g11
g12
(dtRp1635
sbsg24
g25
sg26
g27
((lp1636
g33
ag32
ag29
ag30
atRp1637
sg37
(lp1638
g1
(g2
g3
NtRp1639
(dp1640
g6
g1
(g7
g3
NtRp1641
(dp1642
g10
g1
(g11
g12
(dtRp1643
sg14
g1
(g11
g12
(dtRp1644
sg16
g1
(g11
g12
(dtRp1645
sg18
g1
(g11
g12
(dtRp1646
sg20
g1
(g11
g12
(dtRp1647
sg22
g1
(g11
g12
(dtRp1648
sbsg24
S'Cco'
p1649
sg26
g27
((lp1650
g29
ag30
aS'sequence'
p1651
ag32
ag33
aS'species'
p1652
atRp1653
sg37
(lp1654
sg120
g1626
sg121
S'RWLSTKDLYSRMELPGLNQNVHAMFVMPLGFGNPMGDMFARLNNSFWLPPLSLEGAGTGWTLYAPLSHSGPSVDLAFHLTSSLLGAINFTNMRGPLFWTALLLLSLPVLAATLLDRNFNTFEGGDPLYHLFFVLMHPEVYIIPGFGSHSTYKKFGMYASMGLGFVWSHHMYVGLDDRAYFTSATMIAPTGIKFSWLATYGGRPMLAFLFLFTGGTGVLNASDAFHDTYYIKHFHYVLSMGAFSLGYYYWYGLYNMFWFNFPMHFLGGMPRRPYPDAGWNSGSSYQLGPDESNEPH'
p1655
sg123
F0.057970000000000001
sg124
g125
sg33
S'219'
p1656
sg127
g1
(g128
g12
(dp1657
g130
I4
sg131
g132
sg133
g134
sg135
g132
sg136
I01
sg34
g137
sg138
g134
sg139
I0
sg140
I0
sg141
I0
sg142
g134
sg35
g143
sg144
I0
stRp1658
sg146
g147
sg148
F1
sg149
Nsg30
S'CcoryA'
p1659
sbag1
(g2
g3
NtRp1660
(dp1661
g6
g1
(g7
g3
NtRp1662
(dp1663
g10
g1
(g11
g12
(dtRp1664
sg14
g1
(g11
g12
(dtRp1665
sg16
g1
(g11
g12
(dtRp1666
sg18
g1
(g11
g12
(dtRp1667
sg20
g1
(g11
g12
(dtRp1668
sg22
g1
(g11
g12
(dtRp1669
sbsg24
S'Cch'
p1670
sg26
g27
((lp1671
g29
ag30
aS'sequence'
p1672
ag32
ag33
aS'species'
p1673
atRp1674
sg37
(lp1675
sg120
g1626
sg121
S'RWLSTKDLYSRMELPSLNQNVHAMFVMPLGFGNPMGDMFARLNNSFWLPPLSLEGAGTGWTLYAPLSHSGPSVDLAFHLTSSLLGAINFTNMRGPLFWTALLLLSLPVLAATLLDRNFNTFEGGDPLYHLFWFYMYKDYYIIPGFGSHSTYKKFGMYASIGLGFVWSHHMFVGLDDRAYFTSATMIAPTGIKFSWLATYGGRPMLAFLFLFTGGTGVLNASDAFHDTYYVVHFHYVLSMGAFSLGYYYWYGLYNLFWFNFPMHFLGGMPRRPYPDAGWNSGSSYQLGPDESNEPH'
p1676
sg123
F0.052440000000000001
sg124
g125
sg33
S'221'
p1677
sg127
g1
(g128
g12
(dp1678
g130
I4
sg131
g132
sg133
g134
sg135
g132
sg136
I01
sg34
g137
sg138
g134
sg139
I0
sg140
I0
sg141
I0
sg142
g134
sg35
g143
sg144
I0
stRp1679
sg146
g147
sg148
F1
sg149
Nsg30
S'CchauA'
p1680
sbasg120
g1613
sg123
F0.16861999999999999
sg124
g125
sg33
S'216'
p1681
sg127
g1
(g128
g12
(dp1682
g130
I6
sg131
g132
sg133
g134
sg135
g132
sg136
I01
sg34
g174
sg138
g134
sg139
I0
sg140
I0
sg141
I0
sg142
g134
sg35
g175
sg144
I0
stRp1683
sg146
g147
sg148
F0.98999999999999999
sg149
Nsg30
S'NoName'
p1684
sbag1
(g2
g3
NtRp1685
(dp1686
g6
g1
(g7
g3
NtRp1687
(dp1688
g10
g1
(g11
g12
(dtRp1689
sg14
g1
(g11
g12
(dtRp1690
sg16
g1
(g11
g12
(dtRp1691
sg18
g1
(g11
g12
(dtRp1692
sg20
g1
(g11
g12
(dtRp1693
sg22
g1
(g11
g12
(dtRp1694
sbsg24
S'Cbo'
p1695
sg26
g27
((lp1696
g29
ag30
aS'sequence'
p1697
ag32
ag33
aS'species'
p1698
atRp1699
sg37
(lp1700
sg120
g1613
sg121
S'RWLSTKDLYSRMELPGLNQNVHAMFVMPLGFGNPMGDMFARLNNSFWLPPLSLEGAGTGWTVYPPLSHSGPSVDLAFHLTSSLLGAINFTNMRGPLFWTALLLLSLPVLAATLLDRNFNTFEGGDPLYHLFWFFGHPEVYIIPGFGSHSTYKKFGMYASIGLGFVWSHHMYVGLDDRAYFTSATMIAPTGIKFSWLATYGGRPMLAFLFLFTGGTGVLNASDAFHDTYYVVHFHYVLSMGAFSLAYYYWYGLYNLFWFNFPMHFLGGMPRRPYPDAGWNSGSSYQLGPDESNEPH'
p1701
sg123
F0.20199
sg124
g125
sg33
S'223'
p1702
sg127
g1
(g128
g12
(dp1703
g130
I4
sg131
g132
sg133
g134
sg135
g132
sg136
I01
sg34
g137
sg138
g134
sg139
I0
sg140
I0
sg141
I0
sg142
g134
sg35
g143
sg144
I0
stRp1704
sg146
g147
sg148
F1
sg149
Nsg30
S'CbohiA'
p1705
sbasg120
g1009
sg123
F0.14915999999999999
sg124
g125
sg33
S'200'
p1706
sg127
g1
(g128
g12
(dp1707
g130
I6
sg131
g132
sg133
g134
sg135
g132
sg136
I01
sg34
g174
sg138
g134
sg139
I0
sg140
I0
sg141
I0
sg142
g134
sg35
g175
sg144
I0
stRp1708
sg146
g147
sg148
F0.98999999999999999
sg149
Nsg30
S'NoName'
p1709
sbasg120
g996
sg123
F0.036799999999999999
sg124
g125
sg33
S'158'
p1710
sg127
g1
(g128
g12
(dp1711
g130
I6
sg131
g132
sg133
g134
sg135
g132
sg136
I01
sg34
g174
sg138
g134
sg139
I0
sg140
I0
sg141
I0
sg142
g134
sg35
g175
sg144
I0
stRp1712
sg146
g147
sg148
F0.98999999999999999
sg149
Nsg30
S'NoName'
p1713
sbag1
(g2
g3
NtRp1714
(dp1715
g6
g1
(g7
g3
NtRp1716
(dp1717
g10
g1
(g11
g12
(dtRp1718
sg14
g1
(g11
g12
(dtRp1719
sg16
g1
(g11
g12
(dtRp1720
sg18
g1
(g11
g12
(dtRp1721
sg20
g1
(g11
g12
(dtRp1722
sg22
g1
(g11
g12
(dtRp1723
sbsg24
g25
sg26
g27
((lp1724
g33
ag32
ag29
ag30
atRp1725
sg37
(lp1726
g1
(g2
g3
NtRp1727
(dp1728
g6
g1
(g7
g3
NtRp1729
(dp1730
g10
g1
(g11
g12
(dtRp1731
sg14
g1
(g11
g12
(dtRp1732
sg16
g1
(g11
g12
(dtRp1733
sg18
g1
(g11
g12
(dtRp1734
sg20
g1
(g11
g12
(dtRp1735
sg22
g1
(g11
g12
(dtRp1736
sbsg24
g25
sg26
g27
((lp1737
g33
ag32
ag29
ag30
atRp1738
sg37
(lp1739
g1
(g2
g3
NtRp1740
(dp1741
g6
g1
(g7
g3
NtRp1742
(dp1743
g10
g1
(g11
g12
(dtRp1744
sg14
g1
(g11
g12
(dtRp1745
sg16
g1
(g11
g12
(dtRp1746
sg18
g1
(g11
g12
(dtRp1747
sg20
g1
(g11
g12
(dtRp1748
sg22
g1
(g11
g12
(dtRp1749
sbsg24
S'Cma'
p1750
sg26
g27
((lp1751
g29
ag30
aS'sequence'
p1752
ag32
ag33
aS'species'
p1753
atRp1754
sg37
(lp1755
sg120
g1727
sg121
S'RWLSTKDLYSRLELPGLSQNVHAMFVMPLGFGNPLGDMFARLNNSFWLPPLSLEGAGTGWTVYPPLSHSGPSVDLAFHLTSSLLGAINFTNMRGPLYWTALLLLSLPVLAGTLLDRNFNTFEGGDPLYHLFWFFGHPEVYMIPGFGSHSTYKKFGMYASMGLGFVWSHHMYVGLDDRAYFTSATMIAPTGIKFSWLATYGGRPMLAFLFLFTGGTGVLNASDAFHDTYYVVHFHYVLSMGAFSLGYYYWSGLYNLYWFNFPMHFLGGMPRRPYPDAGWNSGSSYQLGPDESNEPH'
p1756
sg123
F0.24277000000000001
sg124
g125
sg33
S'118'
p1757
sg127
g1
(g128
g12
(dp1758
g130
I4
sg131
g132
sg133
g134
sg135
g132
sg136
I01
sg34
g137
sg138
g134
sg139
I0
sg140
I0
sg141
I0
sg142
g134
sg35
g143
sg144
I0
stRp1759
sg146
g147
sg148
F1
sg149
Nsg30
S'CmaltA'
p1760
sbag1
(g2
g3
NtRp1761
(dp1762
g6
g1
(g7
g3
NtRp1763
(dp1764
g10
g1
(g11
g12
(dtRp1765
sg14
g1
(g11
g12
(dtRp1766
sg16
g1
(g11
g12
(dtRp1767
sg18
g1
(g11
g12
(dtRp1768
sg20
g1
(g11
g12
(dtRp1769
sg22
g1
(g11
g12
(dtRp1770
sbsg24
g25
sg26
g27
((lp1771
g33
ag32
ag29
ag30
atRp1772
sg37
(lp1773
g1
(g2
g3
NtRp1774
(dp1775
g6
g1
(g7
g3
NtRp1776
(dp1777
g10
g1
(g11
g12
(dtRp1778
sg14
g1
(g11
g12
(dtRp1779
sg16
g1
(g11
g12
(dtRp1780
sg18
g1
(g11
g12
(dtRp1781
sg20
g1
(g11
g12
(dtRp1782
sg22
g1
(g11
g12
(dtRp1783
sbsg24
g25
sg26
g27
((lp1784
g33
ag32
ag29
ag30
atRp1785
sg37
(lp1786
g1
(g2
g3
NtRp1787
(dp1788
g6
g1
(g7
g3
NtRp1789
(dp1790
g10
g1
(g11
g12
(dtRp1791
sg14
g1
(g11
g12
(dtRp1792
sg16
g1
(g11
g12
(dtRp1793
sg18
g1
(g11
g12
(dtRp1794
sg20
g1
(g11
g12
(dtRp1795
sg22
g1
(g11
g12
(dtRp1796
sbsg24
g25
sg26
g27
((lp1797
g33
ag32
ag29
ag30
atRp1798
sg37
(lp1799
g1
(g2
g3
NtRp1800
(dp1801
g6
g1
(g7
g3
NtRp1802
(dp1803
g10
g1
(g11
g12
(dtRp1804
sg14
g1
(g11
g12
(dtRp1805
sg16
g1
(g11
g12
(dtRp1806
sg18
g1
(g11
g12
(dtRp1807
sg20
g1
(g11
g12
(dtRp1808
sg22
g1
(g11
g12
(dtRp1809
sbsg24
g25
sg26
g27
((lp1810
g33
ag32
ag29
ag30
atRp1811
sg37
(lp1812
g1
(g2
g3
NtRp1813
(dp1814
g6
g1
(g7
g3
NtRp1815
(dp1816
g10
g1
(g11
g12
(dtRp1817
sg14
g1
(g11
g12
(dtRp1818
sg16
g1
(g11
g12
(dtRp1819
sg18
g1
(g11
g12
(dtRp1820
sg20
g1
(g11
g12
(dtRp1821
sg22
g1
(g11
g12
(dtRp1822
sbsg24
S'Ctr'
p1823
sg26
g27
((lp1824
g29
ag30
aS'sequence'
p1825
ag32
ag33
aS'species'
p1826
atRp1827
sg37
(lp1828
sg120
g1800
sg121
S'RWLSTKDLYSRLELPGLNQNVHAMFVMPLGFGNPMGDMFARLNNSFWLPPLSLEGAGTGWTVYPPLSHSGPSVDLAFHLTSSLLGAINFTNMRGPLFWTALLLLSLPVLAGTLLDRNFNTFEGGDPLYHLFWFFGHPEVYIIPGFGSHSTYKKFGMYASIGLGFVWSHHMYVGLDDRAYFTSATMIAPTGIKFSWLATYGGRPMLAFLFLFTGGTGVLNASDAFHDSYYVVHFHYVLSMGAFSLGYYYWPGLYNLYWFNFPMHFLGGMPRRPYPDAGWNSGSSYQLGPDEANEPH'
p1829
sg123
F0.00064000000000000005
sg124
g125
sg33
S'127'
p1830
sg127
g1
(g128
g12
(dp1831
g130
I4
sg131
g132
sg133
g134
sg135
g132
sg136
I01
sg34
g137
sg138
g134
sg139
I0
sg140
I0
sg141
I0
sg142
g134
sg35
g143
sg144
I0
stRp1832
sg146
g147
sg148
F1
sg149
Nsg30
S'CtropB'
p1833
sbag1
(g2
g3
NtRp1834
(dp1835
g6
g1
(g7
g3
NtRp1836
(dp1837
g10
g1
(g11
g12
(dtRp1838
sg14
g1
(g11
g12
(dtRp1839
sg16
g1
(g11
g12
(dtRp1840
sg18
g1
(g11
g12
(dtRp1841
sg20
g1
(g11
g12
(dtRp1842
sg22
g1
(g11
g12
(dtRp1843
sbsg24
S'Ctr'
p1844
sg26
g27
((lp1845
g29
ag30
aS'sequence'
p1846
ag32
ag33
aS'species'
p1847
atRp1848
sg37
(lp1849
sg120
g1800
sg121
S'RWLSTKDLYSRLELPGLNQNVHAMFVMPLGFGNPMGDMFARLNNSFWLPPLSLEGAGTGWTVYPPLSHSGPSVDLAFHLTSSLLGAINFTNMRGPLFWTALLLLSLPVLAGTLLDRNFNTFEGGDPLYHLFWFFGHPEVYIIPGFGSHSTYKKFGMYASIGLGFVWSHHMYVGLDDRAYFTSATMIAPTGIKFSWLATYGGRPMLAFLFLFTGGTGVLNASDAFHDSYYVVHFHYVLSMGAFSLGYYYWPGLYNLYWFNFPMHFLGGMPRRPYPDAGWNSGSSYQLGPDEANEPH'
p1850
sg123
F0.00040000000000000002
sg124
g125
sg33
S'129'
p1851
sg127
g1
(g128
g12
(dp1852
g130
I4
sg131
g132
sg133
g134
sg135
g132
sg136
I01
sg34
g137
sg138
g134
sg139
I0
sg140
I0
sg141
I0
sg142
g134
sg35
g143
sg144
I0
stRp1853
sg146
g147
sg148
F1
sg149
Nsg30
S'CtropA'
p1854
sbasg120
g1787
sg123
F0.032030000000000003
sg124
g125
sg33
S'124'
p1855
sg127
g1
(g128
g12
(dp1856
g130
I6
sg131
g132
sg133
g134
sg135
g132
sg136
I01
sg34
g174
sg138
g134
sg139
I0
sg140
I0
sg141
I0
sg142
g134
sg35
g175
sg144
I0
stRp1857
sg146
g147
sg148
F0.98999999999999999
sg149
Nsg30
S'NoName'
p1858
sbag1
(g2
g3
NtRp1859
(dp1860
g6
g1
(g7
g3
NtRp1861
(dp1862
g10
g1
(g11
g12
(dtRp1863
sg14
g1
(g11
g12
(dtRp1864
sg16
g1
(g11
g12
(dtRp1865
sg18
g1
(g11
g12
(dtRp1866
sg20
g1
(g11
g12
(dtRp1867
sg22
g1
(g11
g12
(dtRp1868
sbsg24
S'Cso'
p1869
sg26
g27
((lp1870
g29
ag30
aS'sequence'
p1871
ag32
ag33
aS'species'
p1872
atRp1873
sg37
(lp1874
sg120
g1787
sg121
S'RWLSTKDLYSRLELPGLNQNVHAMFVMPLGFGNPMGDMFARLNNSFWLPPLSLEGAGTGWTVYPPLSHSGPSVDLAFHLTSSLLGAMNFTNMRGPLFWTALLLLSLPVLAGTLLDRNFNTFEGGDPLYHLFWFFGHPEVYIIPGFGSHSTYKKFGMYASIGLGFVWSHHMYVGLDDRAYFTSATMIAPTGIKFSWLATYGGRPMLAFLFLFTGGTGVLNASDAFHDTYYVVHFHYVLSMGAFSLGYYYWPGLYNLYWFNFPMHFLGGMPRRPYPDAGWNSGSSYQLGPDEANEPH'
p1875
sg123
F0.033649999999999999
sg124
g125
sg33
S'131'
p1876
sg127
g1
(g128
g12
(dp1877
g130
I4
sg131
g132
sg133
g134
sg135
g132
sg136
I01
sg34
g137
sg138
g134
sg139
I0
sg140
I0
sg141
I0
sg142
g134
sg35
g143
sg144
I0
stRp1878
sg146
g147
sg148
F1
sg149
Nsg30
S'CsojaA'
p1879
sbasg120
g1774
sg123
F0.019990000000000001
sg124
g125
sg33
S'121'
p1880
sg127
g1
(g128
g12
(dp1881
g130
I6
sg131
g132
sg133
g134
sg135
g132
sg136
I01
sg34
g174
sg138
g134
sg139
I0
sg140
I0
sg141
I0
sg142
g134
sg35
g175
sg144
I0
stRp1882
sg146
g147
sg148
F0.98999999999999999
sg149
Nsg30
S'NoName'
p1883
sbag1
(g2
g3
NtRp1884
(dp1885
g6
g1
(g7
g3
NtRp1886
(dp1887
g10
g1
(g11
g12
(dtRp1888
sg14
g1
(g11
g12
(dtRp1889
sg16
g1
(g11
g12
(dtRp1890
sg18
g1
(g11
g12
(dtRp1891
sg20
g1
(g11
g12
(dtRp1892
sg22
g1
(g11
g12
(dtRp1893
sbsg24
g25
sg26
g27
((lp1894
g33
ag32
ag29
ag30
atRp1895
sg37
(lp1896
g1
(g2
g3
NtRp1897
(dp1898
g6
g1
(g7
g3
NtRp1899
(dp1900
g10
g1
(g11
g12
(dtRp1901
sg14
g1
(g11
g12
(dtRp1902
sg16
g1
(g11
g12
(dtRp1903
sg18
g1
(g11
g12
(dtRp1904
sg20
g1
(g11
g12
(dtRp1905
sg22
g1
(g11
g12
(dtRp1906
sbsg24
S'Cte'
p1907
sg26
g27
((lp1908
g29
ag30
aS'sequence'
p1909
ag32
ag33
aS'species'
p1910
atRp1911
sg37
(lp1912
sg120
g1884
sg121
S'RWLSTKDLYSRLELPGLNQNVHAMFVMPLGFGNPMGDMFARLNNSFWLPPLSLEGAGTGWTVYPPLSHSGPSVDMAFHLTSSLLGAINFTNMRGPLFWTALLLLSLPVLAGTLLDRNFNTFEGGDPLYHLFWFFGHPEVYIIPGFGSHSTYKKFGMYASIGLGFVWSHHMFVGLDDRAYFTSATMMAPTGIKFSWLATYGGRPMLAFLFLFTGGTGVLNASDSMHDTYYVVHFHYVLSMGAFSLGYYYWPGLYNLYWFNFPMHFLGGMPRRPYPDAGWNSGSSLQLGPDESNEPH'
p1913
sg123
F0.084209999999999993
sg124
g125
sg33
S'134'
p1914
sg127
g1
(g128
g12
(dp1915
g130
I4
sg131
g132
sg133
g134
sg135
g132
sg136
I01
sg34
g137
sg138
g134
sg139
I0
sg140
I0
sg141
I0
sg142
g134
sg35
g143
sg144
I0
stRp1916
sg146
g147
sg148
F1
sg149
Nsg30
S'CtetrA'
p1917
sbag1
(g2
g3
NtRp1918
(dp1919
g6
g1
(g7
g3
NtRp1920
(dp1921
g10
g1
(g11
g12
(dtRp1922
sg14
g1
(g11
g12
(dtRp1923
sg16
g1
(g11
g12
(dtRp1924
sg18
g1
(g11
g12
(dtRp1925
sg20
g1
(g11
g12
(dtRp1926
sg22
g1
(g11
g12
(dtRp1927
sbsg24
g25
sg26
g27
((lp1928
g33
ag32
ag29
ag30
atRp1929
sg37
(lp1930
g1
(g2
g3
NtRp1931
(dp1932
g6
g1
(g7
g3
NtRp1933
(dp1934
g10
g1
(g11
g12
(dtRp1935
sg14
g1
(g11
g12
(dtRp1936
sg16
g1
(g11
g12
(dtRp1937
sg18
g1
(g11
g12
(dtRp1938
sg20
g1
(g11
g12
(dtRp1939
sg22
g1
(g11
g12
(dtRp1940
sbsg24
g25
sg26
g27
((lp1941
g33
ag32
ag29
ag30
atRp1942
sg37
(lp1943
g1
(g2
g3
NtRp1944
(dp1945
g6
g1
(g7
g3
NtRp1946
(dp1947
g10
g1
(g11
g12
(dtRp1948
sg14
g1
(g11
g12
(dtRp1949
sg16
g1
(g11
g12
(dtRp1950
sg18
g1
(g11
g12
(dtRp1951
sg20
g1
(g11
g12
(dtRp1952
sg22
g1
(g11
g12
(dtRp1953
sbsg24
S'Cvi'
p1954
sg26
g27
((lp1955
g29
ag30
aS'sequence'
p1956
ag32
ag33
aS'species'
p1957
atRp1958
sg37
(lp1959
sg120
g1931
sg121
S'RWFSTKDLYSRLELPGLNQNVHAMFVMPLGFGNPMGDMFARLNNSFWLPPLSLEGAGTGWTVYPPLSHSGPSVDLAFHLTSSLLGAINFTNMRGPLFWTALLLLSLPVLAGTLLDRNFNTFDGGDPLYHLFWFFGHPEVYMIPGFGSHSTYKKFGMYASIGLGFVWSHHMYVGLDDRAYFTSATMIAPTGIKFSWLSTYGGRPTLAFLFLFTGGTGVLNASDSMHDTYYVVHFHYVLSMGAFSLGYYYWPGLYNLYWFNFPMHFLGGMPRRPYPDSGWNSGSSFQLGPDESNEPH'
p1960
sg123
F0.03977
sg124
g125
sg33
S'161'
p1961
sg127
g1
(g128
g12
(dp1962
g130
I4
sg131
g132
sg133
g134
sg135
g132
sg136
I01
sg34
g137
sg138
g134
sg139
I0
sg140
I0
sg141
I0
sg142
g134
sg35
g143
sg144
I0
stRp1963
sg146
g147
sg148
F1
sg149
Nsg30
S'CviswA'
p1964
sbag1
(g2
g3
NtRp1965
(dp1966
g6
g1
(g7
g3
NtRp1967
(dp1968
g10
g1
(g11
g12
(dtRp1969
sg14
g1
(g11
g12
(dtRp1970
sg16
g1
(g11
g12
(dtRp1971
sg18
g1
(g11
g12
(dtRp1972
sg20
g1
(g11
g12
(dtRp1973
sg22
g1
(g11
g12
(dtRp1974
sbsg24
S'Csa'
p1975
sg26
g27
((lp1976
g29
ag30
aS'sequence'
p1977
ag32
ag33
aS'species'
p1978
atRp1979
sg37
(lp1980
sg120
g1931
sg121
S'RWFSTKDLYSRLELPGLNQNVHAMFVMPLGFGNPMGDMFARLNNSFWLPPLSLEGAGTGWTVYPPLSHSGPSVDLAFHLTSSLLGAINFTNMRGVLFWTALLLLSLPVLAGTLLDRNFNTFDGGDPLYHLFWFFGHPEVYIIPGFGSHSTFKKFGMYASIGLGFVWSHHMYVGLDDRAYFTSATMIAPTGIKFSWIATYGGRPTLAFLFLFTGGTGVLNASDSMHDTYYVVHFHYVLSMGAFSLGYYYWPGLYNLYWFNFPMHFLGGMPRRPYPDSGWNSGSSYQLGPDEGNEPH'
p1981
sg123
F0.065189999999999998
sg124
g125
sg33
S'172'
p1982
sg127
g1
(g128
g12
(dp1983
g130
I4
sg131
g132
sg133
g134
sg135
g132
sg136
I01
sg34
g137
sg138
g134
sg139
I0
sg140
I0
sg141
I0
sg142
g134
sg35
g143
sg144
I0
stRp1984
sg146
g147
sg148
F1
sg149
Nsg30
S'CsaraA'
p1985
sbasg120
g1918
sg123
F0.029960000000000001
sg124
g125
sg33
S'139'
p1986
sg127
g1
(g128
g12
(dp1987
g130
I6
sg131
g132
sg133
g134
sg135
g132
sg136
I01
sg34
g174
sg138
g134
sg139
I0
sg140
I0
sg141
I0
sg142
g134
sg35
g175
sg144
I0
stRp1988
sg146
g147
sg148
F0.98999999999999999
sg149
Nsg30
S'NoName'
p1989
sbag1
(g2
g3
NtRp1990
(dp1991
g6
g1
(g7
g3
NtRp1992
(dp1993
g10
g1
(g11
g12
(dtRp1994
sg14
g1
(g11
g12
(dtRp1995
sg16
g1
(g11
g12
(dtRp1996
sg18
g1
(g11
g12
(dtRp1997
sg20
g1
(g11
g12
(dtRp1998
sg22
g1
(g11
g12
(dtRp1999
sbsg24
S'Cpr'
p2000
sg26
g27
((lp2001
g29
ag30
aS'sequence'
p2002
ag32
ag33
aS'species'
p2003
atRp2004
sg37
(lp2005
sg120
g1918
sg121
S'RWFSTKDEYSRLELPGLNQNVHAMFVMPLGFGNPMGDMFARLNNSFWLPPLSLEGAGTGWTVYPPLSHSGPSVDLAFHLTSSLLGAINFTNMRGPLFWTALLLLSLPVLTGTLLDRNFNTFDGGDPLYHLFWFFGHPEVYMIPGFGSHSTYKKFGMYASMGLGFVWSHHMFVGLDDRAYFTSATMMAPTGIKFSWLATYGGRPMLAFLFLFTGGTGVLNASDSMHDTYYVVHFHYVLSMGAFSLGYYYWPGLYNLYWFNFPMHFLGGMPRRPYPDSGWNSGSSVQLGPDENNEPH'
p2006
sg123
F0.17724999999999999
sg124
g125
sg33
S'182'
p2007
sg127
g1
(g128
g12
(dp2008
g130
I4
sg131
g132
sg133
g134
sg135
g132
sg136
I01
sg34
g137
sg138
g134
sg139
I0
sg140
I0
sg141
I0
sg142
g134
sg35
g143
sg144
I0
stRp2009
sg146
g147
sg148
F1
sg149
Nsg30
S'CpracA'
p2010
sbasg120
g1884
sg123
F0.02281
sg124
g125
sg33
S'132'
p2011
sg127
g1
(g128
g12
(dp2012
g130
I6
sg131
g132
sg133
g134
sg135
g132
sg136
I01
sg34
g174
sg138
g134
sg139
I0
sg140
I0
sg141
I0
sg142
g134
sg35
g175
sg144
I0
stRp2013
sg146
g147
sg148
F0.98999999999999999
sg149
Nsg30
S'NoName'
p2014
sbasg120
g1774
sg123
F0.01154
sg124
g125
sg33
S'125'
p2015
sg127
g1
(g128
g12
(dp2016
g130
I6
sg131
g132
sg133
g134
sg135
g132
sg136
I01
sg34
g174
sg138
g134
sg139
I0
sg140
I0
sg141
I0
sg142
g134
sg35
g175
sg144
I0
stRp2017
sg146
g147
sg148
F0.98999999999999999
sg149
Nsg30
S'NoName'
p2018
sbasg120
g1761
sg123
F0.02138
sg124
g125
sg33
S'120'
p2019
sg127
g1
(g128
g12
(dp2020
g130
I6
sg131
g132
sg133
g134
sg135
g132
sg136
I01
sg34
g174
sg138
g134
sg139
I0
sg140
I0
sg141
I0
sg142
g134
sg35
g175
sg144
I0
stRp2021
sg146
g147
sg148
F0.98999999999999999
sg149
Nsg30
S'NoName'
p2022
sbag1
(g2
g3
NtRp2023
(dp2024
g6
g1
(g7
g3
NtRp2025
(dp2026
g10
g1
(g11
g12
(dtRp2027
sg14
g1
(g11
g12
(dtRp2028
sg16
g1
(g11
g12
(dtRp2029
sg18
g1
(g11
g12
(dtRp2030
sg20
g1
(g11
g12
(dtRp2031
sg22
g1
(g11
g12
(dtRp2032
sbsg24
g25
sg26
g27
((lp2033
g33
ag32
ag29
ag30
atRp2034
sg37
(lp2035
g1
(g2
g3
NtRp2036
(dp2037
g6
g1
(g7
g3
NtRp2038
(dp2039
g10
g1
(g11
g12
(dtRp2040
sg14
g1
(g11
g12
(dtRp2041
sg16
g1
(g11
g12
(dtRp2042
sg18
g1
(g11
g12
(dtRp2043
sg20
g1
(g11
g12
(dtRp2044
sg22
g1
(g11
g12
(dtRp2045
sbsg24
S'Cne'
p2046
sg26
g27
((lp2047
g29
ag30
aS'sequence'
p2048
ag32
ag33
aS'species'
p2049
atRp2050
sg37
(lp2051
sg120
g2023
sg121
S'RWLSTKDLYSRLELPGLNQNVHAMFVMPLGFGNPMGDMFARLNNSFWLPPLSLEGAGTGWTVYPPLSHSGPSVDLAFHLTSSLLGAINFTNMRGPLFWTALLLLSLPVLAGTLLDRNFNTFDGGDPLYHLFWFFGHPEVYIIPGFGSHSTYKKFGMYASIGLGFVWSHHMYVGLDDRAYFTSATMIAPTGIKFSWLATYGGRPMLAFLFLFTGGTGVLNASDAFHDTYYVVHFHYVLSMGAFSLGYYYWPGLYNLYWFNFPMHFLGGMPRRPYPDSGWNSGSSYQLGPDESNEPH'
p2052
sg123
F0.04879
sg124
g125
sg33
S'201'
p2053
sg127
g1
(g128
g12
(dp2054
g130
I4
sg131
g132
sg133
g134
sg135
g132
sg136
I01
sg34
g137
sg138
g134
sg139
I0
sg140
I0
sg141
I0
sg142
g134
sg35
g143
sg144
I0
stRp2055
sg146
g147
sg148
F1
sg149
Nsg30
S'CneerA'
p2056
sbag1
(g2
g3
NtRp2057
(dp2058
g6
g1
(g7
g3
NtRp2059
(dp2060
g10
g1
(g11
g12
(dtRp2061
sg14
g1
(g11
g12
(dtRp2062
sg16
g1
(g11
g12
(dtRp2063
sg18
g1
(g11
g12
(dtRp2064
sg20
g1
(g11
g12
(dtRp2065
sg22
g1
(g11
g12
(dtRp2066
sbsg24
S'Cfr'
p2067
sg26
g27
((lp2068
g29
ag30
aS'sequence'
p2069
ag32
ag33
aS'species'
p2070
atRp2071
sg37
(lp2072
sg120
g2023
sg121
S'RWLSTKDLYSRLELPGLNQNVHAMFVMPLGFGNPMGDMFARLNNSFWLPPLSLEGAGTGWTVYPPLSHSGPSVDLAFHLTSSLLGAMNFTNMRGPLFWTALLLLSLPVLAGTLLDRNFNTFDGGDPLYHLFWFFGHPEVYIIPGFGSHSTYKKFGMYASIGLGFVWSHHMYVGLDDRAYFTSATMIAPTGIKFSWLSTYGGRPMLAFLFLFTGGTGVLNASDAFHDTYYVVHFHYVLSMGAFSLGYYYWPGLYNLYWFNFPMHFLGGMPRRPYPDSGWNSGSSYQLGPDESNEPH'
p2073
sg123
F0.050279999999999998
sg124
g125
sg33
S'213'
p2074
sg127
g1
(g128
g12
(dp2075
g130
I4
sg131
g132
sg133
g134
sg135
g132
sg136
I01
sg34
g137
sg138
g134
sg139
I0
sg140
I0
sg141
I0
sg142
g134
sg35
g143
sg144
I0
stRp2076
sg146
g147
sg148
F1
sg149
Nsg30
S'CfrijA'
p2077
sbasg120
g1761
sg123
F0.11378000000000001
sg124
g125
sg33
S'150'
p2078
sg127
g1
(g128
g12
(dp2079
g130
I6
sg131
g132
sg133
g134
sg135
g132
sg136
I01
sg34
g174
sg138
g134
sg139
I0
sg140
I0
sg141
I0
sg142
g134
sg35
g175
sg144
I0
stRp2080
sg146
g147
sg148
F0.98999999999999999
sg149
Nsg30
S'NoName'
p2081
sbasg120
g1727
sg123
F0.076910000000000006
sg124
g125
sg33
S'115'
p2082
sg127
g1
(g128
g12
(dp2083
g130
I6
sg131
g132
sg133
g134
sg135
g132
sg136
I01
sg34
g174
sg138
g134
sg139
I0
sg140
I0
sg141
I0
sg142
g134
sg35
g175
sg144
I0
stRp2084
sg146
g147
sg148
F0.98999999999999999
sg149
Nsg30
S'NoName'
p2085
sbasg120
g1714
sg123
F0.022950000000000002
sg124
g125
sg33
S'113'
p2086
sg127
g1
(g128
g12
(dp2087
g130
I6
sg131
g132
sg133
g134
sg135
g132
sg136
I01
sg34
g174
sg138
g134
sg139
I0
sg140
I0
sg141
I0
sg142
g134
sg35
g175
sg144
I0
stRp2088
sg146
g147
sg148
F0.65000000000000002
sg149
Nsg30
S'NoName'
p2089
sbag1
(g2
g3
NtRp2090
(dp2091
g6
g1
(g7
g3
NtRp2092
(dp2093
g10
g1
(g11
g12
(dtRp2094
sg14
g1
(g11
g12
(dtRp2095
sg16
g1
(g11
g12
(dtRp2096
sg18
g1
(g11
g12
(dtRp2097
sg20
g1
(g11
g12
(dtRp2098
sg22
g1
(g11
g12
(dtRp2099
sbsg24
g25
sg26
g27
((lp2100
g33
ag32
ag29
ag30
atRp2101
sg37
(lp2102
g1
(g2
g3
NtRp2103
(dp2104
g6
g1
(g7
g3
NtRp2105
(dp2106
g10
g1
(g11
g12
(dtRp2107
sg14
g1
(g11
g12
(dtRp2108
sg16
g1
(g11
g12
(dtRp2109
sg18
g1
(g11
g12
(dtRp2110
sg20
g1
(g11
g12
(dtRp2111
sg22
g1
(g11
g12
(dtRp2112
sbsg24
g25
sg26
g27
((lp2113
g33
ag32
ag29
ag30
atRp2114
sg37
(lp2115
g1
(g2
g3
NtRp2116
(dp2117
g6
g1
(g7
g3
NtRp2118
(dp2119
g10
g1
(g11
g12
(dtRp2120
sg14
g1
(g11
g12
(dtRp2121
sg16
g1
(g11
g12
(dtRp2122
sg18
g1
(g11
g12
(dtRp2123
sg20
g1
(g11
g12
(dtRp2124
sg22
g1
(g11
g12
(dtRp2125
sbsg24
S'Cgi'
p2126
sg26
g27
((lp2127
g29
ag30
aS'sequence'
p2128
ag32
ag33
aS'species'
p2129
atRp2130
sg37
(lp2131
sg120
g2103
sg121
S'RWLSTKDLYSRLELAGLNQNVHAMFVMPLGFGNPMGDMFARLNNSFWLPPLSLEGAGTGWTVYPPLSHSGPSVDMAFHLTSSLLGAINFTNMRGPLFWTALLLLSLPVLAATLLDRNFNTFEGGDPLYHAFWFFGHPEVYIIPGFGSHSTYKKFGMYASIGLGFVWSHHMYVGLDDRAYFTSATMIAPTGIKFSWLATYGGRPMLAFLFLFTGGTGVLNASDAFHDTYYVVHFHYVLSMGAFSLGYYYWPGLYNLYWFNFPMHFLGGMPRRPYPDAGWNSGSSYQLGPDESNEPH'
p2132
sg123
F0.22796
sg124
g125
sg33
S'18'
p2133
sg127
g1
(g128
g12
(dp2134
g130
I4
sg131
g132
sg133
g134
sg135
g132
sg136
I01
sg34
g137
sg138
g134
sg139
I0
sg140
I0
sg141
I0
sg142
g134
sg35
g143
sg144
I0
stRp2135
sg146
g147
sg148
F1
sg149
Nsg30
S'CgigaA'
p2136
sbag1
(g2
g3
NtRp2137
(dp2138
g6
g1
(g7
g3
NtRp2139
(dp2140
g10
g1
(g11
g12
(dtRp2141
sg14
g1
(g11
g12
(dtRp2142
sg16
g1
(g11
g12
(dtRp2143
sg18
g1
(g11
g12
(dtRp2144
sg20
g1
(g11
g12
(dtRp2145
sg22
g1
(g11
g12
(dtRp2146
sbsg24
S'Cbu'
p2147
sg26
g27
((lp2148
g29
ag30
aS'sequence'
p2149
ag32
ag33
aS'species'
p2150
atRp2151
sg37
(lp2152
sg120
g2103
sg121
S'RWLSTKDLYSRLELAGLNQNVHAMFVMPLGFGNPMGDMFARLNNSFWLPPLSLEGAGTGWTVYPPLSHSGPSVDLAFHLTSSLLGAINFTNMRGPLFWTALLLLSLPVLAGTLLDRNFNTFEGGDPLYHLFWFFGHPEVYIIPGFGSHGTYKKFGMYASIGLGFVWSHHMFVGLDDRAYFTSATMIAPTGIKFSWLATYGGRPMLAFLFLFTGGTGVLNASDAFHDTYYVVHFHYVLSMGAFSLAYYYWPGLYNLFWFNFPMHFLGGMPRRPYPDAGWNSGSSYQLGPDESNEPH'
p2153
sg123
F0.26118000000000002
sg124
g125
sg33
S'29'
p2154
sg127
g1
(g128
g12
(dp2155
g130
I4
sg131
g132
sg133
g134
sg135
g132
sg136
I01
sg34
g137
sg138
g134
sg139
I0
sg140
I0
sg141
I0
sg142
g134
sg35
g143
sg144
I0
stRp2156
sg146
g147
sg148
F1
sg149
Nsg30
S'CbuenA'
p2157
sbasg120
g2090
sg123
F0.037260000000000001
sg124
g125
sg33
S'224'
p2158
sg127
g1
(g128
g12
(dp2159
g130
I6
sg131
g132
sg133
g134
sg135
g132
sg136
I01
sg34
g174
sg138
g134
sg139
I0
sg140
I0
sg141
I0
sg142
g134
sg35
g175
sg144
I0
stRp2160
sg146
g147
sg148
F0.98999999999999999
sg149
Nsg30
S'NoName'
p2161
sbag1
(g2
g3
NtRp2162
(dp2163
g6
g1
(g7
g3
NtRp2164
(dp2165
g10
g1
(g11
g12
(dtRp2166
sg14
g1
(g11
g12
(dtRp2167
sg16
g1
(g11
g12
(dtRp2168
sg18
g1
(g11
g12
(dtRp2169
sg20
g1
(g11
g12
(dtRp2170
sg22
g1
(g11
g12
(dtRp2171
sbsg24
g25
sg26
g27
((lp2172
g33
ag32
ag29
ag30
atRp2173
sg37
(lp2174
g1
(g2
g3
NtRp2175
(dp2176
g6
g1
(g7
g3
NtRp2177
(dp2178
g10
g1
(g11
g12
(dtRp2179
sg14
g1
(g11
g12
(dtRp2180
sg16
g1
(g11
g12
(dtRp2181
sg18
g1
(g11
g12
(dtRp2182
sg20
g1
(g11
g12
(dtRp2183
sg22
g1
(g11
g12
(dtRp2184
sbsg24
S'Cdu'
p2185
sg26
g27
((lp2186
g29
ag30
aS'sequence'
p2187
ag32
ag33
aS'species'
p2188
atRp2189
sg37
(lp2190
sg120
g2162
sg121
S'RWLSTKDLYSRLELPGLNQNVHAMFVMPLGFGNPMGDMFARLNNSFWLPPLSLEGAGTGWTVYPPLSHSGPSVDLAFHLTSSLLGAINFTNMRGPLYWTALLLLSLPVLAGTLLDRNFNTFEGGDPLYHLFWFFGHPEVYIIPGFGSHSTYKKFGMYASIGLGFVWSHHMYVGLDDRAYFTSATMIAPTGIKFSWLATYGGRPMLAFLFLFTGGTGVLNASDAFHDTYYVVHFHYVLSMGAFSLGYYYWPGLYNLYWFNFPMHFLGGMPRRPYPDAGWNSGSSYQLGPDESNEPH'
p2191
sg123
F0.025069999999999999
sg124
g125
sg33
S'50'
p2192
sg127
g1
(g128
g12
(dp2193
g130
I4
sg131
g132
sg133
g134
sg135
g132
sg136
I01
sg34
g137
sg138
g134
sg139
I0
sg140
I0
sg141
I0
sg142
g134
sg35
g143
sg144
I0
stRp2194
sg146
g147
sg148
F1
sg149
Nsg30
S'CdublA'
p2195
sbag1
(g2
g3
NtRp2196
(dp2197
g6
g1
(g7
g3
NtRp2198
(dp2199
g10
g1
(g11
g12
(dtRp2200
sg14
g1
(g11
g12
(dtRp2201
sg16
g1
(g11
g12
(dtRp2202
sg18
g1
(g11
g12
(dtRp2203
sg20
g1
(g11
g12
(dtRp2204
sg22
g1
(g11
g12
(dtRp2205
sbsg24
g25
sg26
g27
((lp2206
g33
ag32
ag29
ag30
atRp2207
sg37
(lp2208
g1
(g2
g3
NtRp2209
(dp2210
g6
g1
(g7
g3
NtRp2211
(dp2212
g10
g1
(g11
g12
(dtRp2213
sg14
g1
(g11
g12
(dtRp2214
sg16
g1
(g11
g12
(dtRp2215
sg18
g1
(g11
g12
(dtRp2216
sg20
g1
(g11
g12
(dtRp2217
sg22
g1
(g11
g12
(dtRp2218
sbsg24
g25
sg26
g27
((lp2219
g33
ag32
ag29
ag30
atRp2220
sg37
(lp2221
g1
(g2
g3
NtRp2222
(dp2223
g6
g1
(g7
g3
NtRp2224
(dp2225
g10
g1
(g11
g12
(dtRp2226
sg14
g1
(g11
g12
(dtRp2227
sg16
g1
(g11
g12
(dtRp2228
sg18
g1
(g11
g12
(dtRp2229
sg20
g1
(g11
g12
(dtRp2230
sg22
g1
(g11
g12
(dtRp2231
sbsg24
g25
sg26
g27
((lp2232
g33
ag32
ag29
ag30
atRp2233
sg37
(lp2234
g1
(g2
g3
NtRp2235
(dp2236
g6
g1
(g7
g3
NtRp2237
(dp2238
g10
g1
(g11
g12
(dtRp2239
sg14
g1
(g11
g12
(dtRp2240
sg16
g1
(g11
g12
(dtRp2241
sg18
g1
(g11
g12
(dtRp2242
sg20
g1
(g11
g12
(dtRp2243
sg22
g1
(g11
g12
(dtRp2244
sbsg24
g25
sg26
g27
((lp2245
g33
ag32
ag29
ag30
atRp2246
sg37
(lp2247
g1
(g2
g3
NtRp2248
(dp2249
g6
g1
(g7
g3
NtRp2250
(dp2251
g10
g1
(g11
g12
(dtRp2252
sg14
g1
(g11
g12
(dtRp2253
sg16
g1
(g11
g12
(dtRp2254
sg18
g1
(g11
g12
(dtRp2255
sg20
g1
(g11
g12
(dtRp2256
sg22
g1
(g11
g12
(dtRp2257
sbsg24
S'Cal'
p2258
sg26
g27
((lp2259
g29
ag30
aS'sequence'
p2260
ag32
ag33
aS'species'
p2261
atRp2262
sg37
(lp2263
sg120
g2235
sg121
S'RWLSTKDLYSRLELPGLNQNVHAMFVMPLGFGNPMGDMFARLNNSFWLPPLSLEGAGTGWTVYPPLSHSGPSVDLAFHLTSSLLGAINFTNMRGPLFWTALLLLSLPVLAGTLLDRNFNTFEGGDPLYHLFWFFGHPEVYIIPGFGSHSTYKKFGMYASIGLGFVWSHHMYVGLDDRAYFTSATMIAPTGIKFSWLATYGGRPMLAFLFLFTGGTGVLNASDAFHDTYYVVHFHYVLSMGAFSLGYYYWPGLYNLYWFNFPMHFLGGMPRRPYPDAGWNSGSSYQLGPDESNEPH'
p2264
sg123
F0.00025000000000000001
sg124
g125
sg33
S'104'
p2265
sg127
g1
(g128
g12
(dp2266
g130
I4
sg131
g132
sg133
g134
sg135
g132
sg136
I01
sg34
g137
sg138
g134
sg139
I0
sg140
I0
sg141
I0
sg142
g134
sg35
g143
sg144
I0
stRp2267
sg146
g147
sg148
F1
sg149
Nsg30
S'CalbiE'
p2268
sbag1
(g2
g3
NtRp2269
(dp2270
g6
g1
(g7
g3
NtRp2271
(dp2272
g10
g1
(g11
g12
(dtRp2273
sg14
g1
(g11
g12
(dtRp2274
sg16
g1
(g11
g12
(dtRp2275
sg18
g1
(g11
g12
(dtRp2276
sg20
g1
(g11
g12
(dtRp2277
sg22
g1
(g11
g12
(dtRp2278
sbsg24
S'Cal'
p2279
sg26
g27
((lp2280
g29
ag30
aS'sequence'
p2281
ag32
ag33
aS'species'
p2282
atRp2283
sg37
(lp2284
sg120
g2235
sg121
S'RWLSTKDLYSRLELPGLNQNVHAMFVMPLGFGNPMGDMFARLNNSFWLPPLSLEGAGTGWTVYPPLSHSGPSVDLAFHLTSSLLGAINFTNMRGPLFWTALLLLSLPVLAGTLLDRNFNTFEGGDPLYHLFWFFGHPEVYIIPGFGSHSTYKKFGMYASIGLGFVWSHHMYVGLDDRAYFTSATMIAPTGIKFSWLATYGGRPMLAFLFLFTGGTGVLNASDAFHDTYYVVHFHYVLSMGAFSLGYYYWPGLYNLYWFNFPMHFLGGMPRRPYPDAGWNSGSSYQLGPDESNEPH'
p2285
sg123
F0.00050000000000000001
sg124
g125
sg33
S'114'
p2286
sg127
g1
(g128
g12
(dp2287
g130
I4
sg131
g132
sg133
g134
sg135
g132
sg136
I01
sg34
g137
sg138
g134
sg139
I0
sg140
I0
sg141
I0
sg142
g134
sg35
g143
sg144
I0
stRp2288
sg146
g147
sg148
F1
sg149
Nsg30
S'CalbiD'
p2289
sbasg120
g2222
sg123
F0.00051999999999999995
sg124
g125
sg33
S'82'
p2290
sg127
g1
(g128
g12
(dp2291
g130
I6
sg131
g132
sg133
g134
sg135
g132
sg136
I01
sg34
g174
sg138
g134
sg139
I0
sg140
I0
sg141
I0
sg142
g134
sg35
g175
sg144
I0
stRp2292
sg146
g147
sg148
F0.73999999999999999
sg149
Nsg30
S'NoName'
p2293
sbag1
(g2
g3
NtRp2294
(dp2295
g6
g1
(g7
g3
NtRp2296
(dp2297
g10
g1
(g11
g12
(dtRp2298
sg14
g1
(g11
g12
(dtRp2299
sg16
g1
(g11
g12
(dtRp2300
sg18
g1
(g11
g12
(dtRp2301
sg20
g1
(g11
g12
(dtRp2302
sg22
g1
(g11
g12
(dtRp2303
sbsg24
S'Cal'
p2304
sg26
g27
((lp2305
g29
ag30
aS'sequence'
p2306
ag32
ag33
aS'species'
p2307
atRp2308
sg37
(lp2309
sg120
g2222
sg121
S'RWLSTKDLYSRLELPGLNQNVHAMFVMPLGFGNPMGDMFARLNNSFWLPPLSLEGAGTGWTVYPPLSHSGPSVDLAFHLTSSLLGAINFTNMRGPLFWTALLLLSLPVLAGTLLDRNFNTFEGGDPLYHLFWFFGHPEVYIIPGFGSHSTYKKFGMYASIGLGFVWSHHMYVGLDDRAYFTSATMIAPTGIKFSWLATYGGRPMLAFLFLFTGGTGVLNASDAFHDTYYVVHFHYVLSMGAFSLGYYYWPGLYNLYWFNFPMHFLGGMPRRPYPDAGWNSGSSYQLGPDESNEPH'
p2310
sg123
F0.00012
sg124
g125
sg33
S'126'
p2311
sg127
g1
(g128
g12
(dp2312
g130
I4
sg131
g132
sg133
g134
sg135
g132
sg136
I01
sg34
g137
sg138
g134
sg139
I0
sg140
I0
sg141
I0
sg142
g134
sg35
g143
sg144
I0
stRp2313
sg146
g147
sg148
F1
sg149
Nsg30
S'CalbiC'
p2314
sbasg120
g2209
sg123
F1.0000000000000001e-05
sg124
g125
sg33
S'72'
p2315
sg127
g1
(g128
g12
(dp2316
g130
I6
sg131
g132
sg133
g134
sg135
g132
sg136
I01
sg34
g174
sg138
g134
sg139
I0
sg140
I0
sg141
I0
sg142
g134
sg35
g175
sg144
I0
stRp2317
sg146
g147
sg148
F1
sg149
Nsg30
S'NoName'
p2318
sbag1
(g2
g3
NtRp2319
(dp2320
g6
g1
(g7
g3
NtRp2321
(dp2322
g10
g1
(g11
g12
(dtRp2323
sg14
g1
(g11
g12
(dtRp2324
sg16
g1
(g11
g12
(dtRp2325
sg18
g1
(g11
g12
(dtRp2326
sg20
g1
(g11
g12
(dtRp2327
sg22
g1
(g11
g12
(dtRp2328
sbsg24
S'Cal'
p2329
sg26
g27
((lp2330
g29
ag30
aS'sequence'
p2331
ag32
ag33
aS'species'
p2332
atRp2333
sg37
(lp2334
sg120
g2209
sg121
S'RWLSTKDLYSRLELPGLNQNVHAMFVMPLGFGNPMGDMFARLNNSFWLPPLSLEGAGTGWTVYPPLSHSGPSVDLAFHLTSSLLGAINFTNMRGPLFWTALLLLSLPVLAGTLLDRNFNTFEGGDPLYHLFWFFGHPEVYIIPGFGSHSTYKKFGMYASIGLGFVWSHHMYVGLDDRAYFTSATMIAPTGIKFSWLATYGGRPMLAFLFLFTGGTGVLNASDAFHDTYYVVHFHYVLSMGAFSLGYYYWPGLYNLYWFNFPMHFLGGMPRRPYPDAGWNSGSSYQLGPDESNEPH'
p2335
sg123
F0.00016000000000000001
sg124
g125
sg33
S'136'
p2336
sg127
g1
(g128
g12
(dp2337
g130
I4
sg131
g132
sg133
g134
sg135
g132
sg136
I01
sg34
g137
sg138
g134
sg139
I0
sg140
I0
sg141
I0
sg142
g134
sg35
g143
sg144
I0
stRp2338
sg146
g147
sg148
F1
sg149
Nsg30
S'CalbiB'
p2339
sbasg120
g2196
sg123
F1.0000000000000001e-05
sg124
g125
sg33
S'62'
p2340
sg127
g1
(g128
g12
(dp2341
g130
I6
sg131
g132
sg133
g134
sg135
g132
sg136
I01
sg34
g174
sg138
g134
sg139
I0
sg140
I0
sg141
I0
sg142
g134
sg35
g175
sg144
I0
stRp2342
sg146
g147
sg148
F1
sg149
Nsg30
S'NoName'
p2343
sbag1
(g2
g3
NtRp2344
(dp2345
g6
g1
(g7
g3
NtRp2346
(dp2347
g10
g1
(g11
g12
(dtRp2348
sg14
g1
(g11
g12
(dtRp2349
sg16
g1
(g11
g12
(dtRp2350
sg18
g1
(g11
g12
(dtRp2351
sg20
g1
(g11
g12
(dtRp2352
sg22
g1
(g11
g12
(dtRp2353
sbsg24
S'Cal'
p2354
sg26
g27
((lp2355
g29
ag30
aS'sequence'
p2356
ag32
ag33
aS'species'
p2357
atRp2358
sg37
(lp2359
sg120
g2196
sg121
S'RWLSTKDLYSRLELPGLNQNVHAMFVMPLGFGNPMGDMFARLNNSFWLPPLSLEGAGTGWTVYPPLSHSGPSVDLAFHLTSSLLGAINFTNMRGPLFWTALLLLSLPVLAGTLLDRNFNTFEGGDPLYHLFWFFGHPEVYIIPGFGSHSTYKKFGMYASIGLGFVWSHHMYVGLDDRAYFTSATMIAPTGIKFSWLATYGGRPMLAFLFLFTGGTGVLNASDAFHDTYYVVHFHYVLSMGAFSLGYYYWPGLYNLYWFNFPMHFLGGMPRRPYPDAGWNSGSSYQLGPDESNEPH'
p2360
sg123
F0.00013999999999999999
sg124
g125
sg33
S'146'
p2361
sg127
g1
(g128
g12
(dp2362
g130
I4
sg131
g132
sg133
g134
sg135
g132
sg136
I01
sg34
g137
sg138
g134
sg139
I0
sg140
I0
sg141
I0
sg142
g134
sg35
g143
sg144
I0
stRp2363
sg146
g147
sg148
F1
sg149
Nsg30
S'CalbiA'
p2364
sbasg120
g2162
sg123
F0.014959999999999999
sg124
g125
sg33
S'39'
p2365
sg127
g1
(g128
g12
(dp2366
g130
I6
sg131
g132
sg133
g134
sg135
g132
sg136
I01
sg34
g174
sg138
g134
sg139
I0
sg140
I0
sg141
I0
sg142
g134
sg35
g175
sg144
I0
stRp2367
sg146
g147
sg148
F0.98999999999999999
sg149
Nsg30
S'NoName'
p2368
sbasg120
g2090
sg123
F0.05287
sg124
g125
sg33
S'7'
sg127
g1
(g128
g12
(dp2369
g130
I6
sg131
g132
sg133
g134
sg135
g132
sg136
I01
sg34
g174
sg138
g134
sg139
I0
sg140
I0
sg141
I0
sg142
g134
sg35
g175
sg144
I0
stRp2370
sg146
g147
sg148
F0.98999999999999999
sg149
Nsg30
S'NoName'
p2371
sbasg120
g1714
sg123
F0.037499999999999999
sg124
g125
sg33
S'191'
p2372
sg127
g1
(g128
g12
(dp2373
g130
I6
sg131
g132
sg133
g134
sg135
g132
sg136
I01
sg34
g174
sg138
g134
sg139
I0
sg140
I0
sg141
I0
sg142
g134
sg35
g175
sg144
I0
stRp2374
sg146
g147
sg148
F0.98999999999999999
sg149
Nsg30
S'NoName'
p2375
sbasg120
g996
sg123
F0.10766000000000001
sg124
g125
sg33
S'218'
p2376
sg127
g1
(g128
g12
(dp2377
g130
I6
sg131
g132
sg133
g134
sg135
g132
sg136
I01
sg34
g174
sg138
g134
sg139
I0
sg140
I0
sg141
I0
sg142
g134
sg35
g175
sg144
I0
stRp2378
sg146
g147
sg148
F0.98999999999999999
sg149
Nsg30
S'NoName'
p2379
sbasg120
g962
sg123
F0.093560000000000004
sg124
g125
sg33
S'154'
p2380
sg127
g1
(g128
g12
(dp2381
g130
I6
sg131
g132
sg133
g134
sg135
g132
sg136
I01
sg34
g174
sg138
g134
sg139
I0
sg140
I0
sg141
I0
sg142
g134
sg35
g175
sg144
I0
stRp2382
sg146
g147
sg148
F0.97999999999999998
sg149
Nsg30
S'NoName'
p2383
sbasg120
g949
sg123
F0.036760000000000001
sg124
g125
sg33
S'152'
p2384
sg127
g1
(g128
g12
(dp2385
g130
I6
sg131
g132
sg133
g134
sg135
g132
sg136
I01
sg34
g174
sg138
g134
sg139
I0
sg140
I0
sg141
I0
sg142
g134
sg35
g175
sg144
I0
stRp2386
sg146
g147
sg148
F0.97999999999999998
sg149
Nsg30
S'NoName'
p2387
sbag1
(g2
g3
NtRp2388
(dp2389
g6
g1
(g7
g3
NtRp2390
(dp2391
g10
g1
(g11
g12
(dtRp2392
sg14
g1
(g11
g12
(dtRp2393
sg16
g1
(g11
g12
(dtRp2394
sg18
g1
(g11
g12
(dtRp2395
sg20
g1
(g11
g12
(dtRp2396
sg22
g1
(g11
g12
(dtRp2397
sbsg24
g25
sg26
g27
((lp2398
g33
ag32
ag29
ag30
atRp2399
sg37
(lp2400
g1
(g2
g3
NtRp2401
(dp2402
g6
g1
(g7
g3
NtRp2403
(dp2404
g10
g1
(g11
g12
(dtRp2405
sg14
g1
(g11
g12
(dtRp2406
sg16
g1
(g11
g12
(dtRp2407
sg18
g1
(g11
g12
(dtRp2408
sg20
g1
(g11
g12
(dtRp2409
sg22
g1
(g11
g12
(dtRp2410
sbsg24
g25
sg26
g27
((lp2411
g33
ag32
ag29
ag30
atRp2412
sg37
(lp2413
g1
(g2
g3
NtRp2414
(dp2415
g6
g1
(g7
g3
NtRp2416
(dp2417
g10
g1
(g11
g12
(dtRp2418
sg14
g1
(g11
g12
(dtRp2419
sg16
g1
(g11
g12
(dtRp2420
sg18
g1
(g11
g12
(dtRp2421
sg20
g1
(g11
g12
(dtRp2422
sg22
g1
(g11
g12
(dtRp2423
sbsg24
S'Csu'
p2424
sg26
g27
((lp2425
g29
ag30
aS'sequence'
p2426
ag32
ag33
aS'species'
p2427
atRp2428
sg37
(lp2429
sg120
g2401
sg121
S'RWLSTKDLYSRMELPGLNQNVHAMFIMPLGLGNPLGDMFARLNNSFWLPPLSLEGAGTGWTVYPPLSHSGPSVDLAFHLTSSLLGAINFTNMRGPLYWTALLLLSLPVLAATLLDRNFNTFEGGDPLYHLFWFFGHPEVYIIPGFGSHSTYKKFGMYASIGLGFVWSHHMFVGLDDRAYFTSATMIAPTGVKFSWLATYGGRPMLAFLFLFTGGTGVINASDAFHDTYYIVHFHYVLSMGAFSLGFYYWPGLYNLFWFNFPMHFLGGMPRRPYPDAGWNSGSAYQLGPDESNEPH'
p2430
sg123
F0.00012999999999999999
sg124
g125
sg33
S'179'
p2431
sg127
g1
(g128
g12
(dp2432
g130
I4
sg131
g132
sg133
g134
sg135
g132
sg136
I01
sg34
g137
sg138
g134
sg139
I0
sg140
I0
sg141
I0
sg142
g134
sg35
g143
sg144
I0
stRp2433
sg146
g147
sg148
F1
sg149
Nsg30
S'CsubhB'
p2434
sbag1
(g2
g3
NtRp2435
(dp2436
g6
g1
(g7
g3
NtRp2437
(dp2438
g10
g1
(g11
g12
(dtRp2439
sg14
g1
(g11
g12
(dtRp2440
sg16
g1
(g11
g12
(dtRp2441
sg18
g1
(g11
g12
(dtRp2442
sg20
g1
(g11
g12
(dtRp2443
sg22
g1
(g11
g12
(dtRp2444
sbsg24
S'Csu'
p2445
sg26
g27
((lp2446
g29
ag30
aS'sequence'
p2447
ag32
ag33
aS'species'
p2448
atRp2449
sg37
(lp2450
sg120
g2401
sg121
S'RWLSTKDLYSRMELPGLNQNVHAMFIMPLGLGNPLGDMFARLNNSFWLPPLSLEGAGTGWTVYPPLSHSGPSVDLAFHLTSSLLGAINFTNMRGPLYWTALLLLSLPVLAATLLDRNFNTFEGGDPLYHLFWFFGHPEVYIIPGFGSHSTYKKFGMYASIGLGFVWSHHMFVGLDDRAYFTSATMIAPTGVKFSWLATYGGRPMLAFLFLFTGGTGVINASDAFHDTYYIVHFHYVLSMGAFSLGFYYWPGLYNLFWFNFPMHFLGGMPRRPYPDAGWNSGSAYQLGPDESNEPH'
p2451
sg123
F0.00013999999999999999
sg124
g125
sg33
S'188'
p2452
sg127
g1
(g128
g12
(dp2453
g130
I4
sg131
g132
sg133
g134
sg135
g132
sg136
I01
sg34
g137
sg138
g134
sg139
I0
sg140
I0
sg141
I0
sg142
g134
sg35
g143
sg144
I0
stRp2454
sg146
g147
sg148
F1
sg149
Nsg30
S'CsubhA'
p2455
sbasg120
g2388
sg123
F0.59348999999999996
sg124
g125
sg33
S'157'
p2456
sg127
g1
(g128
g12
(dp2457
g130
I6
sg131
g132
sg133
g134
sg135
g132
sg136
I01
sg34
g174
sg138
g134
sg139
I0
sg140
I0
sg141
I0
sg142
g134
sg35
g175
sg144
I0
stRp2458
sg146
g147
sg148
F1
sg149
Nsg30
S'NoName'
p2459
sbag1
(g2
g3
NtRp2460
(dp2461
g6
g1
(g7
g3
NtRp2462
(dp2463
g10
g1
(g11
g12
(dtRp2464
sg14
g1
(g11
g12
(dtRp2465
sg16
g1
(g11
g12
(dtRp2466
sg18
g1
(g11
g12
(dtRp2467
sg20
g1
(g11
g12
(dtRp2468
sg22
g1
(g11
g12
(dtRp2469
sbsg24
S'Cal'
p2470
sg26
g27
((lp2471
g29
ag30
aS'sequence'
p2472
ag32
ag33
aS'species'
p2473
atRp2474
sg37
(lp2475
sg120
g2388
sg121
S'RWLSTKDLYSRMELPGLNQNVHAMFVMPLGFGNPLGDMFARLNNSFWLPPLSLDGPGTGWTVYPPLSHSGASVDFAFHLTSSLLGAINFTNMRGPLFWTALLLLSLPVLVATLLDRNFNTFEGGDPLYHLFWFFGHPEVYMIPGFGSHSTYKKFGMYASIGLGFVWSHHMFVGLDDRAYFTSATMMAPTGIKFSWMATYGGYPMLAFLFLFTGGTGVINASDAFHDTYYIVHFHYVLSMGAFSLGYYYWPGLYNLFWFNFPMHFLGGMPRRPYPDAGWNSGSAYQLGPDESNEPH'
p2476
sg123
F0.40044000000000002
sg124
g125
sg33
S'198'
p2477
sg127
g1
(g128
g12
(dp2478
g130
I4
sg131
g132
sg133
g134
sg135
g132
sg136
I01
sg34
g137
sg138
g134
sg139
I0
sg140
I0
sg141
I0
sg142
g134
sg35
g143
sg144
I0
stRp2479
sg146
g147
sg148
F1
sg149
Nsg30
S'CalaiA'
p2480
sbasg120
g949
sg123
F0.080810000000000007
sg124
g125
sg33
S'92'
p2481
sg127
g1
(g128
g12
(dp2482
g130
I6
sg131
g132
sg133
g134
sg135
g132
sg136
I01
sg34
g174
sg138
g134
sg139
I0
sg140
I0
sg141
I0
sg142
g134
sg35
g175
sg144
I0
stRp2483
sg146
g147
sg148
F0.98999999999999999
sg149
Nsg30
S'NoName'
p2484
sbasg120
g687
sg123
F0.075389999999999999
sg124
g125
sg33
S'147'
p2485
sg127
g1
(g128
g12
(dp2486
g130
I6
sg131
g132
sg133
g134
sg135
g132
sg136
I01
sg34
g174
sg138
g134
sg139
I0
sg140
I0
sg141
I0
sg142
g134
sg35
g175
sg144
I0
stRp2487
sg146
g147
sg148
F0.94999999999999996
sg149
Nsg30
S'NoName'
p2488
sbasg120
g674
sg123
F1.2542500000000001
sg124
g125
sg33
S'28'
p2489
sg127
g1
(g128
g12
(dp2490
g130
I6
sg131
g132
sg133
g134
sg135
g132
sg136
I01
sg34
g174
sg138
g134
sg139
I0
sg140
I0
sg141
I0
sg142
g134
sg35
g175
sg144
I0
stRp2491
sg146
g147
sg148
F0.97999999999999998
sg149
Nsg30
S'NoName'
p2492
sbag1
(g2
g3
NtRp2493
(dp2494
g6
g1
(g7
g3
NtRp2495
(dp2496
g10
g1
(g11
g12
(dtRp2497
sg14
g1
(g11
g12
(dtRp2498
sg16
g1
(g11
g12
(dtRp2499
sg18
g1
(g11
g12
(dtRp2500
sg20
g1
(g11
g12
(dtRp2501
sg22
g1
(g11
g12
(dtRp2502
sbsg24
g25
sg26
g27
((lp2503
g33
ag32
ag29
ag30
atRp2504
sg37
(lp2505
g1
(g2
g3
NtRp2506
(dp2507
g6
g1
(g7
g3
NtRp2508
(dp2509
g10
g1
(g11
g12
(dtRp2510
sg14
g1
(g11
g12
(dtRp2511
sg16
g1
(g11
g12
(dtRp2512
sg18
g1
(g11
g12
(dtRp2513
sg20
g1
(g11
g12
(dtRp2514
sg22
g1
(g11
g12
(dtRp2515
sbsg24
g25
sg26
g27
((lp2516
g33
ag32
ag29
ag30
atRp2517
sg37
(lp2518
g1
(g2
g3
NtRp2519
(dp2520
g6
g1
(g7
g3
NtRp2521
(dp2522
g10
g1
(g11
g12
(dtRp2523
sg14
g1
(g11
g12
(dtRp2524
sg16
g1
(g11
g12
(dtRp2525
sg18
g1
(g11
g12
(dtRp2526
sg20
g1
(g11
g12
(dtRp2527
sg22
g1
(g11
g12
(dtRp2528
sbsg24
S'Ppa'
p2529
sg26
g27
((lp2530
g29
ag30
aS'sequence'
p2531
ag32
ag33
aS'species'
p2532
atRp2533
sg37
(lp2534
sg120
g2506
sg121
S'RWLSTKDLYSRLELPGLNQNVHAMFVMPAGFGNPMGDMFARLNNSFWLPPLSLEGAGTGWTVYPPLAHSGPSVDLAFHLTSSLLGAMNFTNMRGPLFWTSLLLLSLPVLAGTLLDRNFNTFEGGDPLYHLFWFFGHPEVYIMPGFGSHSTYKKFGMYASIGLGLVWSHHMYVGLDDRAYFTSATMMAPTGMKFSWLATYGGRPMLAFLFLFTGGSGVLNASDAFHDTYYVIHFHYVLSLGAFSLGYYYWPGLYNLFWFNFPMHFLGGMPRRPYPDAGWNSGSSYQLGPDESNDPH'
p2535
sg123
F0.16184999999999999
sg124
g125
sg33
S'4'
sg127
g1
(g128
g12
(dp2536
g130
I4
sg131
g132
sg133
g134
sg135
g132
sg136
I01
sg34
g137
sg138
g134
sg139
I0
sg140
I0
sg141
I0
sg142
g134
sg35
g143
sg144
I0
stRp2537
sg146
g147
sg148
F1
sg149
Nsg30
S'PpastA'
p2538
sbag1
(g2
g3
NtRp2539
(dp2540
g6
g1
(g7
g3
NtRp2541
(dp2542
g10
g1
(g11
g12
(dtRp2543
sg14
g1
(g11
g12
(dtRp2544
sg16
g1
(g11
g12
(dtRp2545
sg18
g1
(g11
g12
(dtRp2546
sg20
g1
(g11
g12
(dtRp2547
sg22
g1
(g11
g12
(dtRp2548
sbsg24
g25
sg26
g27
((lp2549
g33
ag32
ag29
ag30
atRp2550
sg37
(lp2551
g1
(g2
g3
NtRp2552
(dp2553
g6
g1
(g7
g3
NtRp2554
(dp2555
g10
g1
(g11
g12
(dtRp2556
sg14
g1
(g11
g12
(dtRp2557
sg16
g1
(g11
g12
(dtRp2558
sg18
g1
(g11
g12
(dtRp2559
sg20
g1
(g11
g12
(dtRp2560
sg22
g1
(g11
g12
(dtRp2561
sbsg24
S'Pta'
p2562
sg26
g27
((lp2563
g29
ag30
aS'sequence'
p2564
ag32
ag33
aS'species'
p2565
atRp2566
sg37
(lp2567
sg120
g2539
sg121
S'RWLSTKDLYSRLELPGLNQNVHAMFVMPAGFGNPMGDMFARLNNSFWLPPLSLEGAGTGWTVYPPLSHSGPSVDLAFHLTSSLLGGMNFTNMRGPLFWTSLLVLTLPVLAGTLLDRNFNTFEGGDPLYHLFWFFGHPEVYIIPGFGSHSAYKKFGMYASIGLGLVWSHHMYVGLDDRAYFTSATMIAPTGIKFSWLATYGGRPMLAFLFLFTGGSGVLNASDAFHDTYYVMHFHYVLSLGAFSLGYYYWPGLYNLFWFNFPMHFLGGMPRRPYPDAGFNSGSSYQLGPDESNEPH'
p2568
sg123
F0.23080999999999999
sg124
g125
sg33
S'25'
p2569
sg127
g1
(g128
g12
(dp2570
g130
I4
sg131
g132
sg133
g134
sg135
g132
sg136
I01
sg34
g137
sg138
g134
sg139
I0
sg140
I0
sg141
I0
sg142
g134
sg35
g143
sg144
I0
stRp2571
sg146
g147
sg148
F1
sg149
Nsg30
S'PtannA'
p2572
sbag1
(g2
g3
NtRp2573
(dp2574
g6
g1
(g7
g3
NtRp2575
(dp2576
g10
g1
(g11
g12
(dtRp2577
sg14
g1
(g11
g12
(dtRp2578
sg16
g1
(g11
g12
(dtRp2579
sg18
g1
(g11
g12
(dtRp2580
sg20
g1
(g11
g12
(dtRp2581
sg22
g1
(g11
g12
(dtRp2582
sbsg24
g25
sg26
g27
((lp2583
g33
ag32
ag29
ag30
atRp2584
sg37
(lp2585
g1
(g2
g3
NtRp2586
(dp2587
g6
g1
(g7
g3
NtRp2588
(dp2589
g10
g1
(g11
g12
(dtRp2590
sg14
g1
(g11
g12
(dtRp2591
sg16
g1
(g11
g12
(dtRp2592
sg18
g1
(g11
g12
(dtRp2593
sg20
g1
(g11
g12
(dtRp2594
sg22
g1
(g11
g12
(dtRp2595
sbsg24
g25
sg26
g27
((lp2596
g33
ag32
ag29
ag30
atRp2597
sg37
(lp2598
g1
(g2
g3
NtRp2599
(dp2600
g6
g1
(g7
g3
NtRp2601
(dp2602
g10
g1
(g11
g12
(dtRp2603
sg14
g1
(g11
g12
(dtRp2604
sg16
g1
(g11
g12
(dtRp2605
sg18
g1
(g11
g12
(dtRp2606
sg20
g1
(g11
g12
(dtRp2607
sg22
g1
(g11
g12
(dtRp2608
sbsg24
S'Pkl'
p2609
sg26
g27
((lp2610
g29
ag30
aS'sequence'
p2611
ag32
ag33
aS'species'
p2612
atRp2613
sg37
(lp2614
sg120
g2586
sg121
S'RWLSTKDLYSRLELPGLNQNVHAMFMMPTGFGNPMGDMFARLNNSFWLPPLSLEGPGTGWTVYPPLSHSGPSVDLAFHLTSSLLGAMNFTNMRGPLFWTALLVMTLPVLAGTLLDRNFNTFEGGDPLYHLFWFFGHPEVYMMPGFGSHSTYKKFGMYASMGLGLVWSHHMYVGLDDRAYFTSATMMAPTGMKFSWLATYGGRPMLAFMFIFTGGSGVLNASDAFHDTYYVMHFHYVLSLGAFAMGYYYWPGLFNLFWFNFPMHFLGGMPRRPYPDAGFNSGASYQLGPDESNEPH'
p2615
sg123
F0.12625
sg124
g125
sg33
S'58'
p2616
sg127
g1
(g128
g12
(dp2617
g130
I4
sg131
g132
sg133
g134
sg135
g132
sg136
I01
sg34
g137
sg138
g134
sg139
I0
sg140
I0
sg141
I0
sg142
g134
sg35
g143
sg144
I0
stRp2618
sg146
g147
sg148
F1
sg149
Nsg30
S'PkluyA'
p2619
sbag1
(g2
g3
NtRp2620
(dp2621
g6
g1
(g7
g3
NtRp2622
(dp2623
g10
g1
(g11
g12
(dtRp2624
sg14
g1
(g11
g12
(dtRp2625
sg16
g1
(g11
g12
(dtRp2626
sg18
g1
(g11
g12
(dtRp2627
sg20
g1
(g11
g12
(dtRp2628
sg22
g1
(g11
g12
(dtRp2629
sbsg24
S'Bcu'
p2630
sg26
g27
((lp2631
g29
ag30
aS'sequence'
p2632
ag32
ag33
aS'species'
p2633
atRp2634
sg37
(lp2635
sg120
g2586
sg121
S'RWLSTKDLYSRLELPGLDQNVHSMFMMPTGFGNPMGDMFARLNNAFWYPPLSLEGPGTGWTVYPPLSHSGPSMDLAFHLTSSMLSSMNFTNMRGPLFWTALLMMTLPVLAGTLLDRNFNTFEGGDPLYHLYWFFGHPEVYIIPVFGSHSNYKKFGMYASMGLGLVWSHHMYVGLDDRAYFTSATMIAPTGIKFSWLATYGGRPMLAFLFMFTGGSGVLNASDAFHDTYFVVHFHYVLSLGVYGVGYYFWPGLYNMFWFNFPMHFLGGMPRRPYPDAGFNSGSAYQLGPDESNEPH'
p2636
sg123
F0.30854999999999999
sg124
g125
sg33
S'9'
sg127
g1
(g128
g12
(dp2637
g130
I4
sg131
g132
sg133
g134
sg135
g132
sg136
I01
sg34
g137
sg138
g134
sg139
I0
sg140
I0
sg141
I0
sg142
g134
sg35
g143
sg144
I0
stRp2638
sg146
g147
sg148
F1
sg149
Nsg30
S'BcustA'
p2639
sbasg120
g2573
sg123
F0.19120999999999999
sg124
g125
sg33
S'36'
p2640
sg127
g1
(g128
g12
(dp2641
g130
I6
sg131
g132
sg133
g134
sg135
g132
sg136
I01
sg34
g174
sg138
g134
sg139
I0
sg140
I0
sg141
I0
sg142
g134
sg35
g175
sg144
I0
stRp2642
sg146
g147
sg148
F0.98999999999999999
sg149
Nsg30
S'NoName'
p2643
sbag1
(g2
g3
NtRp2644
(dp2645
g6
g1
(g7
g3
NtRp2646
(dp2647
g10
g1
(g11
g12
(dtRp2648
sg14
g1
(g11
g12
(dtRp2649
sg16
g1
(g11
g12
(dtRp2650
sg18
g1
(g11
g12
(dtRp2651
sg20
g1
(g11
g12
(dtRp2652
sg22
g1
(g11
g12
(dtRp2653
sbsg24
S'Oan'
p2654
sg26
g27
((lp2655
g29
ag30
aS'sequence'
p2656
ag32
ag33
aS'species'
p2657
atRp2658
sg37
(lp2659
sg120
g2573
sg121
S'RWLSTKDLYSRLELPGLNQNAHAMFVMPAGFGNPMGDMFARLNNSFWLPPLSLEGAGTGWTVYPPLSHSGPSVDLAFHLTSSLLGAINFTNMRGPLFWTALLLLSLPVLAGTLLDRNFNTFEGGDPLYHLFWFFGHPEVYIIPGFGSHSTYKKFGMYASIGLGLVWSHHMYVGLDDRAYFTSATMIAPTGIKFSWIATYGGRPMLAFLFLFTGGSGVLNASDAFHDTYYVIHFHYVLSLGAFSLGYYYWPGLYNLFWFNFPMHFLGGMPRRPYPDAGYNSGSSYQLGPDESNEPH'
p2660
sg123
F0.025399999999999999
sg124
g125
sg33
S'79'
p2661
sg127
g1
(g128
g12
(dp2662
g130
I4
sg131
g132
sg133
g134
sg135
g132
sg136
I01
sg34
g137
sg138
g134
sg139
I0
sg140
I0
sg141
I0
sg142
g134
sg35
g143
sg144
I0
stRp2663
sg146
g147
sg148
F1
sg149
Nsg30
S'OanguA'
p2664
sbasg120
g2539
sg123
F0.33273999999999998
sg124
g125
sg33
S'14'
p2665
sg127
g1
(g128
g12
(dp2666
g130
I6
sg131
g132
sg133
g134
sg135
g132
sg136
I01
sg34
g174
sg138
g134
sg139
I0
sg140
I0
sg141
I0
sg142
g134
sg35
g175
sg144
I0
stRp2667
sg146
g147
sg148
F0.98999999999999999
sg149
Nsg30
S'NoName'
p2668
sbasg120
g2506
sg123
F0.054379999999999998
sg124
g125
sg33
S'220'
p2669
sg127
g1
(g128
g12
(dp2670
g130
I6
sg131
g132
sg133
g134
sg135
g132
sg136
I01
sg34
g174
sg138
g134
sg139
I0
sg140
I0
sg141
I0
sg142
g134
sg35
g175
sg144
I0
stRp2671
sg146
g147
sg148
F0.96999999999999997
sg149
Nsg30
S'NoName'
p2672
sbasg120
g2493
sg123
F0.76378000000000001
sg124
g125
sg33
S'208'
p2673
sg127
g1
(g128
g12
(dp2674
g130
I6
sg131
g132
sg133
g134
sg135
g132
sg136
I01
sg34
g174
sg138
g134
sg139
I0
sg140
I0
sg141
I0
sg142
g134
sg35
g175
sg144
I0
stRp2675
sg146
g147
sg148
F0.98999999999999999
sg149
Nsg30
S'NoName'
p2676
sbag1
(g2
g3
NtRp2677
(dp2678
g6
g1
(g7
g3
NtRp2679
(dp2680
g10
g1
(g11
g12
(dtRp2681
sg14
g1
(g11
g12
(dtRp2682
sg16
g1
(g11
g12
(dtRp2683
sg18
g1
(g11
g12
(dtRp2684
sg20
g1
(g11
g12
(dtRp2685
sg22
g1
(g11
g12
(dtRp2686
sbsg24
g25
sg26
g27
((lp2687
g33
ag32
ag29
ag30
atRp2688
sg37
(lp2689
g1
(g2
g3
NtRp2690
(dp2691
g6
g1
(g7
g3
NtRp2692
(dp2693
g10
g1
(g11
g12
(dtRp2694
sg14
g1
(g11
g12
(dtRp2695
sg16
g1
(g11
g12
(dtRp2696
sg18
g1
(g11
g12
(dtRp2697
sg20
g1
(g11
g12
(dtRp2698
sg22
g1
(g11
g12
(dtRp2699
sbsg24
g25
sg26
g27
((lp2700
g33
ag32
ag29
ag30
atRp2701
sg37
(lp2702
g1
(g2
g3
NtRp2703
(dp2704
g6
g1
(g7
g3
NtRp2705
(dp2706
g10
g1
(g11
g12
(dtRp2707
sg14
g1
(g11
g12
(dtRp2708
sg16
g1
(g11
g12
(dtRp2709
sg18
g1
(g11
g12
(dtRp2710
sg20
g1
(g11
g12
(dtRp2711
sg22
g1
(g11
g12
(dtRp2712
sbsg24
g25
sg26
g27
((lp2713
g33
ag32
ag29
ag30
atRp2714
sg37
(lp2715
g1
(g2
g3
NtRp2716
(dp2717
g6
g1
(g7
g3
NtRp2718
(dp2719
g10
g1
(g11
g12
(dtRp2720
sg14
g1
(g11
g12
(dtRp2721
sg16
g1
(g11
g12
(dtRp2722
sg18
g1
(g11
g12
(dtRp2723
sg20
g1
(g11
g12
(dtRp2724
sg22
g1
(g11
g12
(dtRp2725
sbsg24
g25
sg26
g27
((lp2726
g33
ag32
ag29
ag30
atRp2727
sg37
(lp2728
g1
(g2
g3
NtRp2729
(dp2730
g6
g1
(g7
g3
NtRp2731
(dp2732
g10
g1
(g11
g12
(dtRp2733
sg14
g1
(g11
g12
(dtRp2734
sg16
g1
(g11
g12
(dtRp2735
sg18
g1
(g11
g12
(dtRp2736
sg20
g1
(g11
g12
(dtRp2737
sg22
g1
(g11
g12
(dtRp2738
sbsg24
S'Cva'
p2739
sg26
g27
((lp2740
g29
ag30
aS'sequence'
p2741
ag32
ag33
aS'species'
p2742
atRp2743
sg37
(lp2744
sg120
g2716
sg121
S'RWLSTKDLYSRLELPGLNQNVHAMFVMPLGFGNPLGDMFARLNNSFWLPPLSLEGAGTGWTIYPPLSHSSPSVDLGFHLTSSLLGAINFTNMRGPLFWTAMLLLSLPVLAGTLLDRNFNTFEGGDPLYHLFWFFGHPEVYIIPGFGSHSTYKKFGMYASIALGFVWSHHMYVGLDDRAYFTSSTMIAPTGIKFSWLATYGGRPMLAFLFLFTGGTGVLNASDAFHDTYYVVHFHYVLSMGAFSLGYYYWPGLYNLFWFNFPMHFLGGMPRRPYPDAGWNSGSSYQLGPDESNEPH'
p2745
sg123
F0.043270000000000003
sg124
g125
sg33
S'133'
p2746
sg127
g1
(g128
g12
(dp2747
g130
I4
sg131
g132
sg133
g134
sg135
g132
sg136
I01
sg34
g137
sg138
g134
sg139
I0
sg140
I0
sg141
I0
sg142
g134
sg35
g143
sg144
I0
stRp2748
sg146
g147
sg148
F1
sg149
Nsg30
S'CvartA'
p2749
sbag1
(g2
g3
NtRp2750
(dp2751
g6
g1
(g7
g3
NtRp2752
(dp2753
g10
g1
(g11
g12
(dtRp2754
sg14
g1
(g11
g12
(dtRp2755
sg16
g1
(g11
g12
(dtRp2756
sg18
g1
(g11
g12
(dtRp2757
sg20
g1
(g11
g12
(dtRp2758
sg22
g1
(g11
g12
(dtRp2759
sbsg24
g25
sg26
g27
((lp2760
g33
ag32
ag29
ag30
atRp2761
sg37
(lp2762
g1
(g2
g3
NtRp2763
(dp2764
g6
g1
(g7
g3
NtRp2765
(dp2766
g10
g1
(g11
g12
(dtRp2767
sg14
g1
(g11
g12
(dtRp2768
sg16
g1
(g11
g12
(dtRp2769
sg18
g1
(g11
g12
(dtRp2770
sg20
g1
(g11
g12
(dtRp2771
sg22
g1
(g11
g12
(dtRp2772
sbsg24
S'Csu'
p2773
sg26
g27
((lp2774
g29
ag30
aS'sequence'
p2775
ag32
ag33
aS'species'
p2776
atRp2777
sg37
(lp2778
sg120
g2750
sg121
S'RWLSTKDLYSRLELPGLNQNVHAMFVMPLGFGNPLGDMFARLNNSFWLPPLSLEGAGTGWTIYPPLSHSSPSVDLGFHLTSSMLGAINFTNMRGPLFWTAMLLLSLPVLAGTLLDRNFNTFEGGDPLYHLFWFFGHPEVYIIPGFGSHSTYKKFGMYASIALGFVWSHHMYVGLDDRAYFTSSTMIAPTGIKFSWLATYGGRPMLAFLFLFTGGTGVLNASDAFHDSYYY-HFHYVLSMGAFSLGYYYWPGLYNLFWFNFPMHFLGGMPRRPYPDAGWNSGSSYQLGPDESNEPH'
p2779
sg123
F0.0043699999999999998
sg124
g125
sg33
S'153'
p2780
sg127
g1
(g128
g12
(dp2781
g130
I4
sg131
g132
sg133
g134
sg135
g132
sg136
I01
sg34
g137
sg138
g134
sg139
I0
sg140
I0
sg141
I0
sg142
g134
sg35
g143
sg144
I0
stRp2782
sg146
g147
sg148
F1
sg149
Nsg30
S'CsuavB'
p2783
sbag1
(g2
g3
NtRp2784
(dp2785
g6
g1
(g7
g3
NtRp2786
(dp2787
g10
g1
(g11
g12
(dtRp2788
sg14
g1
(g11
g12
(dtRp2789
sg16
g1
(g11
g12
(dtRp2790
sg18
g1
(g11
g12
(dtRp2791
sg20
g1
(g11
g12
(dtRp2792
sg22
g1
(g11
g12
(dtRp2793
sbsg24
S'Csu'
p2794
sg26
g27
((lp2795
g29
ag30
aS'sequence'
p2796
ag32
ag33
aS'species'
p2797
atRp2798
sg37
(lp2799
sg120
g2750
sg121
S'RWLSTKDLYSRLELPGLNQNVHAMFVMPLGFGNPLGDMFARLNNSFWLPPLSLEGAGTGWTIYPPLSHSSPSVDLGFHLTSSLLGAINFTNMRGPLFWTAMLLLSLPVLAGTLLDRNFNTFEGGDPLYHLFWFFGHPEVYIIPGFGSHSTYKKFGMYASIALGFVWSHHMYVGLDDRAYFTSSTMIAPTGIKFSWLATYGGRPMLAFLFLFTGGTGVLNASDAFHDTYYVVHFHYVLSMGAFSLGYYYWPGLYNLFWFNFPMHFLGGMPRRPYPDAGWNSGSSYQLGPDESNEPH'
p2800
sg123
F0.0025999999999999999
sg124
g125
sg33
S'165'
p2801
sg127
g1
(g128
g12
(dp2802
g130
I4
sg131
g132
sg133
g134
sg135
g132
sg136
I01
sg34
g137
sg138
g134
sg139
I0
sg140
I0
sg141
I0
sg142
g134
sg35
g143
sg144
I0
stRp2803
sg146
g147
sg148
F1
sg149
Nsg30
S'CsuavA'
p2804
sbasg120
g2716
sg123
F0.016740000000000001
sg124
g125
sg33
S'123'
p2805
sg127
g1
(g128
g12
(dp2806
g130
I6
sg131
g132
sg133
g134
sg135
g132
sg136
I01
sg34
g174
sg138
g134
sg139
I0
sg140
I0
sg141
I0
sg142
g134
sg35
g175
sg144
I0
stRp2807
sg146
g147
sg148
F0.98999999999999999
sg149
Nsg30
S'NoName'
p2808
sbasg120
g2703
sg123
F0.01158
sg124
g125
sg33
S'112'
p2809
sg127
g1
(g128
g12
(dp2810
g130
I6
sg131
g132
sg133
g134
sg135
g132
sg136
I01
sg34
g174
sg138
g134
sg139
I0
sg140
I0
sg141
I0
sg142
g134
sg35
g175
sg144
I0
stRp2811
sg146
g147
sg148
F0.97999999999999998
sg149
Nsg30
S'NoName'
p2812
sbag1
(g2
g3
NtRp2813
(dp2814
g6
g1
(g7
g3
NtRp2815
(dp2816
g10
g1
(g11
g12
(dtRp2817
sg14
g1
(g11
g12
(dtRp2818
sg16
g1
(g11
g12
(dtRp2819
sg18
g1
(g11
g12
(dtRp2820
sg20
g1
(g11
g12
(dtRp2821
sg22
g1
(g11
g12
(dtRp2822
sbsg24
S'Cja'
p2823
sg26
g27
((lp2824
g29
ag30
aS'sequence'
p2825
ag32
ag33
aS'species'
p2826
atRp2827
sg37
(lp2828
sg120
g2703
sg121
S'RWLSTKDLYSRLELPGLNQNVHAMFVMPLGFGNPLGDMFARLNNSFWLPPLSLEGAGTGWTIYPPLAHSSPSVDLGFHLTSSLLGAINFTNMRGPLFWTAMLLLSLPVLAGTLLDRNFNTFEGGDPLYHLFWFFGHPEVYIIPGFGSHSTYKKFGMYASIALGFVWSHHMYVGLDDRAYFTSSTMIAPTGIKFSWLATYGGRPMLAFLFLFTGGTGVLNASDAFHDTYYVVHFHYVLSMGAFSLGYYYWPGLYNLFWFNFPMHFLGGMPRRPYPDAGWNSGSSYQLGPDESNEPH'
p2829
sg123
F0.033799999999999997
sg124
g125
sg33
S'176'
p2830
sg127
g1
(g128
g12
(dp2831
g130
I4
sg131
g132
sg133
g134
sg135
g132
sg136
I01
sg34
g137
sg138
g134
sg139
I0
sg140
I0
sg141
I0
sg142
g134
sg35
g143
sg144
I0
stRp2832
sg146
g147
sg148
F1
sg149
Nsg30
S'CjadiA'
p2833
sbasg120
g2690
sg123
F0.10375
sg124
g125
sg33
S'100'
p2834
sg127
g1
(g128
g12
(dp2835
g130
I6
sg131
g132
sg133
g134
sg135
g132
sg136
I01
sg34
g174
sg138
g134
sg139
I0
sg140
I0
sg141
I0
sg142
g134
sg35
g175
sg144
I0
stRp2836
sg146
g147
sg148
F0.98999999999999999
sg149
Nsg30
S'NoName'
p2837
sbag1
(g2
g3
NtRp2838
(dp2839
g6
g1
(g7
g3
NtRp2840
(dp2841
g10
g1
(g11
g12
(dtRp2842
sg14
g1
(g11
g12
(dtRp2843
sg16
g1
(g11
g12
(dtRp2844
sg18
g1
(g11
g12
(dtRp2845
sg20
g1
(g11
g12
(dtRp2846
sg22
g1
(g11
g12
(dtRp2847
sbsg24
g25
sg26
g27
((lp2848
g33
ag32
ag29
ag30
atRp2849
sg37
(lp2850
g1
(g2
g3
NtRp2851
(dp2852
g6
g1
(g7
g3
NtRp2853
(dp2854
g10
g1
(g11
g12
(dtRp2855
sg14
g1
(g11
g12
(dtRp2856
sg16
g1
(g11
g12
(dtRp2857
sg18
g1
(g11
g12
(dtRp2858
sg20
g1
(g11
g12
(dtRp2859
sg22
g1
(g11
g12
(dtRp2860
sbsg24
g25
sg26
g27
((lp2861
g33
ag32
ag29
ag30
atRp2862
sg37
(lp2863
g1
(g2
g3
NtRp2864
(dp2865
g6
g1
(g7
g3
NtRp2866
(dp2867
g10
g1
(g11
g12
(dtRp2868
sg14
g1
(g11
g12
(dtRp2869
sg16
g1
(g11
g12
(dtRp2870
sg18
g1
(g11
g12
(dtRp2871
sg20
g1
(g11
g12
(dtRp2872
sg22
g1
(g11
g12
(dtRp2873
sbsg24
S'Wpi'
p2874
sg26
g27
((lp2875
g29
ag30
aS'sequence'
p2876
ag32
ag33
aS'species'
p2877
atRp2878
sg37
(lp2879
sg120
g2851
sg121
S'RWLSTKDLYSRLELPGLNQNVHAMFVMPLGFGNPLGDMFARLNNSFWLPPLSLEGAGTGWTIYPPLSHSSPSVDLGFHLTSSLLGAINFTNMRGPLFWTAMLLLSLPVLAGTLLDRNFNTFEGGDPLYHLFWFFGHPEVYIIPGFGSHSTYKKFGMYASIALGFVWSHHMYVGLDDRAYFTSSTMIAPTGIKFSWLATYGGRPMLAFLFLFTGGTGVLNASDAFHDTYYVVHFHYVLSMGAFSLGYYYWPGLYNLFWFNFPMHFLGGMPRRPYPDAGWNSGSSFQLGPDESNEPH'
p2880
sg123
F0.051209999999999999
sg124
g125
sg33
S'204'
p2881
sg127
g1
(g128
g12
(dp2882
g130
I4
sg131
g132
sg133
g134
sg135
g132
sg136
I01
sg34
g137
sg138
g134
sg139
I0
sg140
I0
sg141
I0
sg142
g134
sg35
g143
sg144
I0
stRp2883
sg146
g147
sg148
F1
sg149
Nsg30
S'WpijpA'
p2884
sbag1
(g2
g3
NtRp2885
(dp2886
g6
g1
(g7
g3
NtRp2887
(dp2888
g10
g1
(g11
g12
(dtRp2889
sg14
g1
(g11
g12
(dtRp2890
sg16
g1
(g11
g12
(dtRp2891
sg18
g1
(g11
g12
(dtRp2892
sg20
g1
(g11
g12
(dtRp2893
sg22
g1
(g11
g12
(dtRp2894
sbsg24
S'Wmu'
p2895
sg26
g27
((lp2896
g29
ag30
aS'sequence'
p2897
ag32
ag33
aS'species'
p2898
atRp2899
sg37
(lp2900
sg120
g2851
sg121
S'RWLSTKDLYSRLELPGLNQNVHAMFVMPLGFGNPLGDMFARLNNSFWLPPLSLEGAGTGWTIYPPLAHSSPSVDLGFHLTSSLLGAINFTNMRGPLFWTAMLLLSLPVLAGTLLDRNFNTFEGGDPLYHLFWFFGHPEVYIIPGFGSHSTYKKFGMYASIALGFVWSHHMYVGLDDRAYFTSSTMIAPTGIKFSWLATYGGRPMLAFLFLFTGGTGVLNASDAFHDTYYVVHFHYVLSMGAFSLGYYYWPGLYNLFWFNFPMHFLGGMPRRPYPDAGWNSGSSYQLGPDESNEPH'
p2901
sg123
F0.079170000000000004
sg124
g125
sg33
S'217'
p2902
sg127
g1
(g128
g12
(dp2903
g130
I4
sg131
g132
sg133
g134
sg135
g132
sg136
I01
sg34
g137
sg138
g134
sg139
I0
sg140
I0
sg141
I0
sg142
g134
sg35
g143
sg144
I0
stRp2904
sg146
g147
sg148
F1
sg149
Nsg30
S'WmucoA'
p2905
sbasg120
g2838
sg123
F0.14757000000000001
sg124
g125
sg33
S'185'
p2906
sg127
g1
(g128
g12
(dp2907
g130
I6
sg131
g132
sg133
g134
sg135
g132
sg136
I01
sg34
g174
sg138
g134
sg139
I0
sg140
I0
sg141
I0
sg142
g134
sg35
g175
sg144
I0
stRp2908
sg146
g147
sg148
F0.98999999999999999
sg149
Nsg30
S'NoName'
p2909
sbag1
(g2
g3
NtRp2910
(dp2911
g6
g1
(g7
g3
NtRp2912
(dp2913
g10
g1
(g11
g12
(dtRp2914
sg14
g1
(g11
g12
(dtRp2915
sg16
g1
(g11
g12
(dtRp2916
sg18
g1
(g11
g12
(dtRp2917
sg20
g1
(g11
g12
(dtRp2918
sg22
g1
(g11
g12
(dtRp2919
sbsg24
g25
sg26
g27
((lp2920
g33
ag32
ag29
ag30
atRp2921
sg37
(lp2922
g1
(g2
g3
NtRp2923
(dp2924
g6
g1
(g7
g3
NtRp2925
(dp2926
g10
g1
(g11
g12
(dtRp2927
sg14
g1
(g11
g12
(dtRp2928
sg16
g1
(g11
g12
(dtRp2929
sg18
g1
(g11
g12
(dtRp2930
sg20
g1
(g11
g12
(dtRp2931
sg22
g1
(g11
g12
(dtRp2932
sbsg24
S'Pca'
p2933
sg26
g27
((lp2934
g29
ag30
aS'sequence'
p2935
ag32
ag33
aS'species'
p2936
atRp2937
sg37
(lp2938
sg120
g2910
sg121
S'RWLSTKDLYSRLELPGLNQNVHAMFVMPLGFGNPLGDMFARLNNSFWLPPLSLEWAGTGWTIYPPLSHSSPSVDLGFHLTSSLLGAINFTNMRGPLFWTAMLLLSLPVLAGTLLDRNFNTFEGGDPLYHLFWFFGHPEVYIIPGFGSHSTYKKFGMYASIALGFVWSHHMYVGLDDRAYFTSSTMIAPTGIKFSWLATYGGRPMLAFLFLFTGGTGVLNASDAFHDTYYVVHFHYVLSMGAFSLGYYYWPGLFNLFWFNFPMHFLGGMPRRPYPDAGWNSGSSYQLGPDESNEPH'
p2939
sg123
F0.10655000000000001
sg124
g125
sg33
S'22'
p2940
sg127
g1
(g128
g12
(dp2941
g130
I4
sg131
g132
sg133
g134
sg135
g132
sg136
I01
sg34
g137
sg138
g134
sg139
I0
sg140
I0
sg141
I0
sg142
g134
sg35
g143
sg144
I0
stRp2942
sg146
g147
sg148
F1
sg149
Nsg30
S'PcanaA'
p2943
sbag1
(g2
g3
NtRp2944
(dp2945
g6
g1
(g7
g3
NtRp2946
(dp2947
g10
g1
(g11
g12
(dtRp2948
sg14
g1
(g11
g12
(dtRp2949
sg16
g1
(g11
g12
(dtRp2950
sg18
g1
(g11
g12
(dtRp2951
sg20
g1
(g11
g12
(dtRp2952
sg22
g1
(g11
g12
(dtRp2953
sbsg24
g25
sg26
g27
((lp2954
g33
ag32
ag29
ag30
atRp2955
sg37
(lp2956
g1
(g2
g3
NtRp2957
(dp2958
g6
g1
(g7
g3
NtRp2959
(dp2960
g10
g1
(g11
g12
(dtRp2961
sg14
g1
(g11
g12
(dtRp2962
sg16
g1
(g11
g12
(dtRp2963
sg18
g1
(g11
g12
(dtRp2964
sg20
g1
(g11
g12
(dtRp2965
sg22
g1
(g11
g12
(dtRp2966
sbsg24
S'Cno'
p2967
sg26
g27
((lp2968
g29
ag30
aS'sequence'
p2969
ag32
ag33
aS'species'
p2970
atRp2971
sg37
(lp2972
sg120
g2944
sg121
S'RWLSTKDLYSRLELPGLNQNVHAMFVMPLGFGNPLGDMFARLNNSFWLPPLSLEGAGTGWTIYPPLSHSSPSVDLGFHLTSSLLGAMNFTNMRGPLFWTAMLLLSLPVLAGTLLDRNFNTFEGGDPLYHLFWFFGHPEVYMIPGFGSHSTYKKFGMYASMALGFVWSHHMYVGLDDRAYFTSSTMMAPTGMKFSWLATYGGRPMLAFLFLFTGGTGVLNASDAFHDTYYVVHFHYVLSMGAFSLGYYYWPGLYNLFWFNFPMHFLGGMPRRPYPDAGWNSGSSYQLGPDESNEPH'
p2973
sg123
F0.059069999999999998
sg124
g125
sg33
S'43'
p2974
sg127
g1
(g128
g12
(dp2975
g130
I4
sg131
g132
sg133
g134
sg135
g132
sg136
I01
sg34
g137
sg138
g134
sg139
I0
sg140
I0
sg141
I0
sg142
g134
sg35
g143
sg144
I0
stRp2976
sg146
g147
sg148
F1
sg149
Nsg30
S'CnorvA'
p2977
sbag1
(g2
g3
NtRp2978
(dp2979
g6
g1
(g7
g3
NtRp2980
(dp2981
g10
g1
(g11
g12
(dtRp2982
sg14
g1
(g11
g12
(dtRp2983
sg16
g1
(g11
g12
(dtRp2984
sg18
g1
(g11
g12
(dtRp2985
sg20
g1
(g11
g12
(dtRp2986
sg22
g1
(g11
g12
(dtRp2987
sbsg24
S'Bca'
p2988
sg26
g27
((lp2989
g29
ag30
aS'sequence'
p2990
ag32
ag33
aS'species'
p2991
atRp2992
sg37
(lp2993
sg120
g2944
sg121
S'RWLSTKDLYSRLELPGLNQNVHAMFVMPLGFGNPLGDMFARLNNSFWLPPLSLEGAGTGWTIYPPLSHSSPSVDLGFHLTSSLLGAINFTNMRGPLFWTAMLLLSLPVLAGTLLDRNFNTFEGGDPLYHLFWFFGHPEVYIMPGFGSHSTYKKFGMYASIALGFVWSHHMYVGLDDRAYFTSSTMIAPTGIKFSWLATYGGRPMLAFLFLFTGGTGVLNASDAFHDTYYVVHFHYVLSMGAFSLGYYYWPGLYNLFWFNFPMHFLGGMPRRPYPDAGWNSGSSYQLGPDESNEPH'
p2994
sg123
F0.031899999999999998
sg124
g125
sg33
S'54'
p2995
sg127
g1
(g128
g12
(dp2996
g130
I4
sg131
g132
sg133
g134
sg135
g132
sg136
I01
sg34
g137
sg138
g134
sg139
I0
sg140
I0
sg141
I0
sg142
g134
sg35
g143
sg144
I0
stRp2997
sg146
g147
sg148
F1
sg149
Nsg30
S'BcaliA'
p2998
sbasg120
g2910
sg123
F0.09486
sg124
g125
sg33
S'11'
p2999
sg127
g1
(g128
g12
(dp3000
g130
I6
sg131
g132
sg133
g134
sg135
g132
sg136
I01
sg34
g174
sg138
g134
sg139
I0
sg140
I0
sg141
I0
sg142
g134
sg35
g175
sg144
I0
stRp3001
sg146
g147
sg148
F0.97999999999999998
sg149
Nsg30
S'NoName'
p3002
sbasg120
g2838
sg123
F0.054690000000000003
sg124
g125
sg33
S'195'
p3003
sg127
g1
(g128
g12
(dp3004
g130
I6
sg131
g132
sg133
g134
sg135
g132
sg136
I01
sg34
g174
sg138
g134
sg139
I0
sg140
I0
sg141
I0
sg142
g134
sg35
g175
sg144
I0
stRp3005
sg146
g147
sg148
F0.96999999999999997
sg149
Nsg30
S'NoName'
p3006
sbasg120
g2690
sg123
F0.051860000000000003
sg124
g125
sg33
S'143'
p3007
sg127
g1
(g128
g12
(dp3008
g130
I6
sg131
g132
sg133
g134
sg135
g132
sg136
I01
sg34
g174
sg138
g134
sg139
I0
sg140
I0
sg141
I0
sg142
g134
sg35
g175
sg144
I0
stRp3009
sg146
g147
sg148
F0.96999999999999997
sg149
Nsg30
S'NoName'
p3010
sbasg120
g2677
sg123
F0.52095999999999998
sg124
g125
sg33
S'89'
p3011
sg127
g1
(g128
g12
(dp3012
g130
I6
sg131
g132
sg133
g134
sg135
g132
sg136
I01
sg34
g174
sg138
g134
sg139
I0
sg140
I0
sg141
I0
sg142
g134
sg35
g175
sg144
I0
stRp3013
sg146
g147
sg148
F0.98999999999999999
sg149
Nsg30
S'NoName'
p3014
sbag1
(g2
g3
NtRp3015
(dp3016
g6
g1
(g7
g3
NtRp3017
(dp3018
g10
g1
(g11
g12
(dtRp3019
sg14
g1
(g11
g12
(dtRp3020
sg16
g1
(g11
g12
(dtRp3021
sg18
g1
(g11
g12
(dtRp3022
sg20
g1
(g11
g12
(dtRp3023
sg22
g1
(g11
g12
(dtRp3024
sbsg24
g25
sg26
g27
((lp3025
g33
ag32
ag29
ag30
atRp3026
sg37
(lp3027
g1
(g2
g3
NtRp3028
(dp3029
g6
g1
(g7
g3
NtRp3030
(dp3031
g10
g1
(g11
g12
(dtRp3032
sg14
g1
(g11
g12
(dtRp3033
sg16
g1
(g11
g12
(dtRp3034
sg18
g1
(g11
g12
(dtRp3035
sg20
g1
(g11
g12
(dtRp3036
sg22
g1
(g11
g12
(dtRp3037
sbsg24
g25
sg26
g27
((lp3038
g33
ag32
ag29
ag30
atRp3039
sg37
(lp3040
g1
(g2
g3
NtRp3041
(dp3042
g6
g1
(g7
g3
NtRp3043
(dp3044
g10
g1
(g11
g12
(dtRp3045
sg14
g1
(g11
g12
(dtRp3046
sg16
g1
(g11
g12
(dtRp3047
sg18
g1
(g11
g12
(dtRp3048
sg20
g1
(g11
g12
(dtRp3049
sg22
g1
(g11
g12
(dtRp3050
sbsg24
g25
sg26
g27
((lp3051
g33
ag32
ag29
ag30
atRp3052
sg37
(lp3053
g1
(g2
g3
NtRp3054
(dp3055
g6
g1
(g7
g3
NtRp3056
(dp3057
g10
g1
(g11
g12
(dtRp3058
sg14
g1
(g11
g12
(dtRp3059
sg16
g1
(g11
g12
(dtRp3060
sg18
g1
(g11
g12
(dtRp3061
sg20
g1
(g11
g12
(dtRp3062
sg22
g1
(g11
g12
(dtRp3063
sbsg24
g25
sg26
g27
((lp3064
g33
ag32
ag29
ag30
atRp3065
sg37
(lp3066
g1
(g2
g3
NtRp3067
(dp3068
g6
g1
(g7
g3
NtRp3069
(dp3070
g10
g1
(g11
g12
(dtRp3071
sg14
g1
(g11
g12
(dtRp3072
sg16
g1
(g11
g12
(dtRp3073
sg18
g1
(g11
g12
(dtRp3074
sg20
g1
(g11
g12
(dtRp3075
sg22
g1
(g11
g12
(dtRp3076
sbsg24
g25
sg26
g27
((lp3077
g33
ag32
ag29
ag30
atRp3078
sg37
(lp3079
g1
(g2
g3
NtRp3080
(dp3081
g6
g1
(g7
g3
NtRp3082
(dp3083
g10
g1
(g11
g12
(dtRp3084
sg14
g1
(g11
g12
(dtRp3085
sg16
g1
(g11
g12
(dtRp3086
sg18
g1
(g11
g12
(dtRp3087
sg20
g1
(g11
g12
(dtRp3088
sg22
g1
(g11
g12
(dtRp3089
sbsg24
g25
sg26
g27
((lp3090
g33
ag32
ag29
ag30
atRp3091
sg37
(lp3092
g1
(g2
g3
NtRp3093
(dp3094
g6
g1
(g7
g3
NtRp3095
(dp3096
g10
g1
(g11
g12
(dtRp3097
sg14
g1
(g11
g12
(dtRp3098
sg16
g1
(g11
g12
(dtRp3099
sg18
g1
(g11
g12
(dtRp3100
sg20
g1
(g11
g12
(dtRp3101
sg22
g1
(g11
g12
(dtRp3102
sbsg24
S'Lkl'
p3103
sg26
g27
((lp3104
g29
ag30
aS'sequence'
p3105
ag32
ag33
aS'species'
p3106
atRp3107
sg37
(lp3108
sg120
g3080
sg121
S'RWLSTKDLYSRLELPGLNQNVHAMFVMPLGFGNPMGDMFARLNNSFWLPPLSLEGAGTGWTVYPPLSHSGPSVDLAFHLTSSLLGAINFTNMRGPLFWTALLLLSLPVLAGTLLDRNFNTFEGGDPLYHLFWFFGHPEVYIIPGFGSHSTYKKFGMYASIGLGFVWSHHMYVGLDDRAYFLSATMIAPTGIKFSWLATYGGRPMLAFLFLFTGGTGVLNASDAFHDLYYVVHFHYVLSMGAFSLGYYYWPGLYNLFWFNFPMHFLGGMPRRPYPDAGWNSGSSYQLGPDESNEPH'
p3109
sg123
F0.00044999999999999999
sg124
g125
sg33
S'130'
p3110
sg127
g1
(g128
g12
(dp3111
g130
I4
sg131
g132
sg133
g134
sg135
g132
sg136
I01
sg34
g137
sg138
g134
sg139
I0
sg140
I0
sg141
I0
sg142
g134
sg35
g143
sg144
I0
stRp3112
sg146
g147
sg148
F1
sg149
Nsg30
S'LkluyE'
p3113
sbag1
(g2
g3
NtRp3114
(dp3115
g6
g1
(g7
g3
NtRp3116
(dp3117
g10
g1
(g11
g12
(dtRp3118
sg14
g1
(g11
g12
(dtRp3119
sg16
g1
(g11
g12
(dtRp3120
sg18
g1
(g11
g12
(dtRp3121
sg20
g1
(g11
g12
(dtRp3122
sg22
g1
(g11
g12
(dtRp3123
sbsg24
S'Lkl'
p3124
sg26
g27
((lp3125
g29
ag30
aS'sequence'
p3126
ag32
ag33
aS'species'
p3127
atRp3128
sg37
(lp3129
sg120
g3080
sg121
S'RWLSTKDLYSRLELPGLNQNVHAMFVMPLGFGNPMGDMFARLNNSFWLPPLSLEGAGTGWTVYPPLSHSGPSVDLAFHLTSSLLGAINFTNMRGPLFWTALLLLSLPVLAGTLLDRNFNTFEGGDPLYHLFWFFGHPEVYIIPGFGSHSTYKKFGMYASIGLGFVWSHHMYVGLDDRAYFLSATMIAPTGIKFSWLATYGGRPMLAFLFLFTGGTGVLNASDAFHDLYYVVHFHYVLSMGAFSLGYYYWPGLYNLFWFNFPMHFLGGMPRRPYPDAGWNSGSSYQLGPDESNEPH'
p3130
sg123
F0.0077400000000000004
sg124
g125
sg33
S'148'
p3131
sg127
g1
(g128
g12
(dp3132
g130
I4
sg131
g132
sg133
g134
sg135
g132
sg136
I01
sg34
g137
sg138
g134
sg139
I0
sg140
I0
sg141
I0
sg142
g134
sg35
g143
sg144
I0
stRp3133
sg146
g147
sg148
F1
sg149
Nsg30
S'LkluyD'
p3134
sbasg120
g3067
sg123
F0.0017099999999999999
sg124
g125
sg33
S'108'
p3135
sg127
g1
(g128
g12
(dp3136
g130
I6
sg131
g132
sg133
g134
sg135
g132
sg136
I01
sg34
g174
sg138
g134
sg139
I0
sg140
I0
sg141
I0
sg142
g134
sg35
g175
sg144
I0
stRp3137
sg146
g147
sg148
F0.56000000000000005
sg149
Nsg30
S'NoName'
p3138
sbag1
(g2
g3
NtRp3139
(dp3140
g6
g1
(g7
g3
NtRp3141
(dp3142
g10
g1
(g11
g12
(dtRp3143
sg14
g1
(g11
g12
(dtRp3144
sg16
g1
(g11
g12
(dtRp3145
sg18
g1
(g11
g12
(dtRp3146
sg20
g1
(g11
g12
(dtRp3147
sg22
g1
(g11
g12
(dtRp3148
sbsg24
g25
sg26
g27
((lp3149
g33
ag32
ag29
ag30
atRp3150
sg37
(lp3151
g1
(g2
g3
NtRp3152
(dp3153
g6
g1
(g7
g3
NtRp3154
(dp3155
g10
g1
(g11
g12
(dtRp3156
sg14
g1
(g11
g12
(dtRp3157
sg16
g1
(g11
g12
(dtRp3158
sg18
g1
(g11
g12
(dtRp3159
sg20
g1
(g11
g12
(dtRp3160
sg22
g1
(g11
g12
(dtRp3161
sbsg24
g25
sg26
g27
((lp3162
g33
ag32
ag29
ag30
atRp3163
sg37
(lp3164
g1
(g2
g3
NtRp3165
(dp3166
g6
g1
(g7
g3
NtRp3167
(dp3168
g10
g1
(g11
g12
(dtRp3169
sg14
g1
(g11
g12
(dtRp3170
sg16
g1
(g11
g12
(dtRp3171
sg18
g1
(g11
g12
(dtRp3172
sg20
g1
(g11
g12
(dtRp3173
sg22
g1
(g11
g12
(dtRp3174
sbsg24
g25
sg26
g27
((lp3175
g33
ag32
ag29
ag30
atRp3176
sg37
(lp3177
g1
(g2
g3
NtRp3178
(dp3179
g6
g1
(g7
g3
NtRp3180
(dp3181
g10
g1
(g11
g12
(dtRp3182
sg14
g1
(g11
g12
(dtRp3183
sg16
g1
(g11
g12
(dtRp3184
sg18
g1
(g11
g12
(dtRp3185
sg20
g1
(g11
g12
(dtRp3186
sg22
g1
(g11
g12
(dtRp3187
sbsg24
S'Lkl'
p3188
sg26
g27
((lp3189
g29
ag30
aS'sequence'
p3190
ag32
ag33
aS'species'
p3191
atRp3192
sg37
(lp3193
sg120
g3165
sg121
S'RWLSTKDLYSRLELPGLNQNVHAMFVMPLGFGNPMGDMFARLNNSFWLPPLSLEGAGTGWTVYPPLSHSGPSVDLAFHLTSSLLGAINFTNMRGPLFWTALLLLSLPVLAGTLLDRNFNTFEGGDPLYHLFWFFGHPEVYIIPGFGSHSTYKKFGMYASIGLGFVWSHHMYVGLDDRAYFLSATMIAPTGIKFSWLATYGGRPMLAFLFLFTGGTGVLNASDAFHDLYYVVHFHYVLSMGAFSLGYYYWPGLYNLFWFNFPMHFLGGMPRRPYPDAGWNSGSSYQLGPDESNEPH'
p3194
sg123
F0.00038999999999999999
sg124
g125
sg33
S'175'
p3195
sg127
g1
(g128
g12
(dp3196
g130
I4
sg131
g132
sg133
g134
sg135
g132
sg136
I01
sg34
g137
sg138
g134
sg139
I0
sg140
I0
sg141
I0
sg142
g134
sg35
g143
sg144
I0
stRp3197
sg146
g147
sg148
F1
sg149
Nsg30
S'LkluyF'
p3198
sbag1
(g2
g3
NtRp3199
(dp3200
g6
g1
(g7
g3
NtRp3201
(dp3202
g10
g1
(g11
g12
(dtRp3203
sg14
g1
(g11
g12
(dtRp3204
sg16
g1
(g11
g12
(dtRp3205
sg18
g1
(g11
g12
(dtRp3206
sg20
g1
(g11
g12
(dtRp3207
sg22
g1
(g11
g12
(dtRp3208
sbsg24
S'Lkl'
p3209
sg26
g27
((lp3210
g29
ag30
aS'sequence'
p3211
ag32
ag33
aS'species'
p3212
atRp3213
sg37
(lp3214
sg120
g3165
sg121
S'RWLSTKDLYSRLELPGLNQNVHAMFVMPLGFGNPMGDMFARLNNSFWLPPLSLEGAGTGWTVYPPLSHSGPSVDLAFHLTSSLLGAINFTNMRGPLFWTALLLLSLPVLAGTLLDRNFNTFEGGDPLYHLFWFFGHPEVYIIPGFGSHSTYKKFGMYASIGLGFVWSHHMYVGLDDRAYFLSATMIAPTGIKFSWLATYGGRPMLAFLFLFTGGTGVLNASDAFHDLYYVVHFHYVLSMGAFSLGYYYWPGLYNLFWFNFPMHFLGGMPRRPYPDAGWNSGSSYQLGPDESNEPH'
p3215
sg123
F0.00038000000000000002
sg124
g125
sg33
S'1'
sg127
g1
(g128
g12
(dp3216
g130
I4
sg131
g132
sg133
g134
sg135
g132
sg136
I01
sg34
g137
sg138
g134
sg139
I0
sg140
I0
sg141
I0
sg142
g134
sg35
g143
sg144
I0
stRp3217
sg146
g147
sg148
F1
sg149
Nsg30
S'LkluyC'
p3218
sbasg120
g3152
sg123
F1.0000000000000001e-05
sg124
g125
sg33
S'68'
p3219
sg127
g1
(g128
g12
(dp3220
g130
I6
sg131
g132
sg133
g134
sg135
g132
sg136
I01
sg34
g174
sg138
g134
sg139
I0
sg140
I0
sg141
I0
sg142
g134
sg35
g175
sg144
I0
stRp3221
sg146
g147
sg148
F1
sg149
Nsg30
S'NoName'
p3222
sbag1
(g2
g3
NtRp3223
(dp3224
g6
g1
(g7
g3
NtRp3225
(dp3226
g10
g1
(g11
g12
(dtRp3227
sg14
g1
(g11
g12
(dtRp3228
sg16
g1
(g11
g12
(dtRp3229
sg18
g1
(g11
g12
(dtRp3230
sg20
g1
(g11
g12
(dtRp3231
sg22
g1
(g11
g12
(dtRp3232
sbsg24
S'Lkl'
p3233
sg26
g27
((lp3234
g29
ag30
aS'sequence'
p3235
ag32
ag33
aS'species'
p3236
atRp3237
sg37
(lp3238
sg120
g3152
sg121
S'RWLSTKDLYSRLELPGLNQNVHAMFVMPLGFGNPMGDMFARLNNSFWLPPLSLEGAGTGWTVYPPLSHSGPSVDLAFHLTSSLLGAINFTNMRGPLFWTALLLLSLPVLAGTLLDRNFNTFEGGDPLYHLFWFFGHPEVYIIPGFGSHSTYKKFGMYASIGLGFVWSHHMYVGLDDRAYFLSATMIAPTGIKFSWLATYGGRPMLAFLFLFTGGTGVLNASDAFHDLYYVVHFHYVLSMGAFSLGYYYWPGLYNLFWFNFPMHFLGGMPRRPYPDAGWNSGSSYQLGPDESNEPH'
p3239
sg123
F0.00040999999999999999
sg124
g125
sg33
S'53'
p3240
sg127
g1
(g128
g12
(dp3241
g130
I4
sg131
g132
sg133
g134
sg135
g132
sg136
I01
sg34
g137
sg138
g134
sg139
I0
sg140
I0
sg141
I0
sg142
g134
sg35
g143
sg144
I0
stRp3242
sg146
g147
sg148
F1
sg149
Nsg30
S'LkluyB'
p3243
sbasg120
g3139
sg123
F1.0000000000000001e-05
sg124
g125
sg33
S'117'
p3244
sg127
g1
(g128
g12
(dp3245
g130
I6
sg131
g132
sg133
g134
sg135
g132
sg136
I01
sg34
g174
sg138
g134
sg139
I0
sg140
I0
sg141
I0
sg142
g134
sg35
g175
sg144
I0
stRp3246
sg146
g147
sg148
F1
sg149
Nsg30
S'NoName'
p3247
sbag1
(g2
g3
NtRp3248
(dp3249
g6
g1
(g7
g3
NtRp3250
(dp3251
g10
g1
(g11
g12
(dtRp3252
sg14
g1
(g11
g12
(dtRp3253
sg16
g1
(g11
g12
(dtRp3254
sg18
g1
(g11
g12
(dtRp3255
sg20
g1
(g11
g12
(dtRp3256
sg22
g1
(g11
g12
(dtRp3257
sbsg24
S'Lkl'
p3258
sg26
g27
((lp3259
g29
ag30
aS'sequence'
p3260
ag32
ag33
aS'species'
p3261
atRp3262
sg37
(lp3263
sg120
g3139
sg121
S'RWLSTKDLYSRLELPGLNQNVHAMFVMPLGFGNPMGDMFARLNNSFWLPPLSLEGAGTGWTVYPPLSHSGPSVDLAFHLTSSLLGAINFTNMRGPLFWTALLLLSLPVLAGTLLDRNFNTFEGGDPLYHLFWFFGHPEVYIIPGFGSHSTYKKFGMYASIGLGFVWSHHMYVGLDDRAYFLSATMIAPTGIKFSWLATYGGRPMLAFLFLFTGGTGVLNASDAFHDLYYVVHFHYVLSMGAFSLGYYYWPGLYNLFWFNFPMHFLGGMPRRPYPDAGWNSGSSYQLGPDESNEPH'
p3264
sg123
F0.00040999999999999999
sg124
g125
sg33
S'107'
p3265
sg127
g1
(g128
g12
(dp3266
g130
I4
sg131
g132
sg133
g134
sg135
g132
sg136
I01
sg34
g137
sg138
g134
sg139
I0
sg140
I0
sg141
I0
sg142
g134
sg35
g143
sg144
I0
stRp3267
sg146
g147
sg148
F1
sg149
Nsg30
S'LkluyA'
p3268
sbasg120
g3067
sg123
F0.0035300000000000002
sg124
g125
sg33
S'119'
p3269
sg127
g1
(g128
g12
(dp3270
g130
I6
sg131
g132
sg133
g134
sg135
g132
sg136
I01
sg34
g174
sg138
g134
sg139
I0
sg140
I0
sg141
I0
sg142
g134
sg35
g175
sg144
I0
stRp3271
sg146
g147
sg148
F0.91000000000000003
sg149
Nsg30
S'NoName'
p3272
sbasg120
g3054
sg123
F0.054280000000000002
sg124
g125
sg33
S'97'
p3273
sg127
g1
(g128
g12
(dp3274
g130
I6
sg131
g132
sg133
g134
sg135
g132
sg136
I01
sg34
g174
sg138
g134
sg139
I0
sg140
I0
sg141
I0
sg142
g134
sg35
g175
sg144
I0
stRp3275
sg146
g147
sg148
F0.98999999999999999
sg149
Nsg30
S'NoName'
p3276
sbag1
(g2
g3
NtRp3277
(dp3278
g6
g1
(g7
g3
NtRp3279
(dp3280
g10
g1
(g11
g12
(dtRp3281
sg14
g1
(g11
g12
(dtRp3282
sg16
g1
(g11
g12
(dtRp3283
sg18
g1
(g11
g12
(dtRp3284
sg20
g1
(g11
g12
(dtRp3285
sg22
g1
(g11
g12
(dtRp3286
sbsg24
g25
sg26
g27
((lp3287
g33
ag32
ag29
ag30
atRp3288
sg37
(lp3289
g1
(g2
g3
NtRp3290
(dp3291
g6
g1
(g7
g3
NtRp3292
(dp3293
g10
g1
(g11
g12
(dtRp3294
sg14
g1
(g11
g12
(dtRp3295
sg16
g1
(g11
g12
(dtRp3296
sg18
g1
(g11
g12
(dtRp3297
sg20
g1
(g11
g12
(dtRp3298
sg22
g1
(g11
g12
(dtRp3299
sbsg24
S'Lan'
p3300
sg26
g27
((lp3301
g29
ag30
aS'sequence'
p3302
ag32
ag33
aS'species'
p3303
atRp3304
sg37
(lp3305
sg120
g3277
sg121
S'RWLSTKDLYSRLELPGLNQNVHAMFVMPLGFGNPMGDMFARLNNSFWLPPLSLEGAGTGWTLYPPLSHSGPSVDLAFHLTSSLLGAINFTNMRGPLFWTALLLLSLPVLAGTVLDRNFNTFEGGDPLYHLFWFFGHPEVYIIPGFGSHSTYKKFGMYASIGLGFVWSHHMYVGLDDRAYFTSATMIAPTGIKFSWLALYGGRPMLAFLFLFTGGTGVLNASDAFHDTYYVVHFHYVLSMGAFSLGYYYWPGLYNLFWFNFPMHFLGGMPRRPYPDAGWNSGSSYQLGPDESNEPH'
p3306
sg123
F0.10922999999999999
sg124
g125
sg33
S'212'
p3307
sg127
g1
(g128
g12
(dp3308
g130
I4
sg131
g132
sg133
g134
sg135
g132
sg136
I01
sg34
g137
sg138
g134
sg139
I0
sg140
I0
sg141
I0
sg142
g134
sg35
g143
sg144
I0
stRp3309
sg146
g147
sg148
F1
sg149
Nsg30
S'LanspA'
p3310
sbag1
(g2
g3
NtRp3311
(dp3312
g6
g1
(g7
g3
NtRp3313
(dp3314
g10
g1
(g11
g12
(dtRp3315
sg14
g1
(g11
g12
(dtRp3316
sg16
g1
(g11
g12
(dtRp3317
sg18
g1
(g11
g12
(dtRp3318
sg20
g1
(g11
g12
(dtRp3319
sg22
g1
(g11
g12
(dtRp3320
sbsg24
g25
sg26
g27
((lp3321
g33
ag32
ag29
ag30
atRp3322
sg37
(lp3323
g1
(g2
g3
NtRp3324
(dp3325
g6
g1
(g7
g3
NtRp3326
(dp3327
g10
g1
(g11
g12
(dtRp3328
sg14
g1
(g11
g12
(dtRp3329
sg16
g1
(g11
g12
(dtRp3330
sg18
g1
(g11
g12
(dtRp3331
sg20
g1
(g11
g12
(dtRp3332
sg22
g1
(g11
g12
(dtRp3333
sbsg24
g25
sg26
g27
((lp3334
g33
ag32
ag29
ag30
atRp3335
sg37
(lp3336
g1
(g2
g3
NtRp3337
(dp3338
g6
g1
(g7
g3
NtRp3339
(dp3340
g10
g1
(g11
g12
(dtRp3341
sg14
g1
(g11
g12
(dtRp3342
sg16
g1
(g11
g12
(dtRp3343
sg18
g1
(g11
g12
(dtRp3344
sg20
g1
(g11
g12
(dtRp3345
sg22
g1
(g11
g12
(dtRp3346
sbsg24
S'Lno'
p3347
sg26
g27
((lp3348
g29
ag30
aS'sequence'
p3349
ag32
ag33
aS'species'
p3350
atRp3351
sg37
(lp3352
sg120
g3324
sg121
S'RWLSTKDLYSRLELPGLNQNVHAMFVMPLGFGNPMGDMFARLNNSFWLPPLSLEGAGTGWTIYPPLSHSGPSVDLAFHLTSSLLGAINFTNMRGPLFWTALLLLSLPVLAGTILDRNFNTFEGGDPLYHLFWFFGHPEVYIIPGFGSHSTYKKFGMYASIGLGFVWSHHMYVGLDDRAYFTSALMIAPTGIKFSWLALYGGRPMLAFLFLFTGGTGVLNASDAFHDTYYVVHFHYVLSMGAFSLGYYYWPGLYNLFWFNFPMHFLGGMPRRPYPDAGWNSGSSYQLGPDESNEPH'
p3353
sg123
F0.0075199999999999998
sg124
g125
sg33
S'42'
p3354
sg127
g1
(g128
g12
(dp3355
g130
I4
sg131
g132
sg133
g134
sg135
g132
sg136
I01
sg34
g137
sg138
g134
sg139
I0
sg140
I0
sg141
I0
sg142
g134
sg35
g143
sg144
I0
stRp3356
sg146
g147
sg148
F1
sg149
Nsg30
S'LnothA'
p3357
sbag1
(g2
g3
NtRp3358
(dp3359
g6
g1
(g7
g3
NtRp3360
(dp3361
g10
g1
(g11
g12
(dtRp3362
sg14
g1
(g11
g12
(dtRp3363
sg16
g1
(g11
g12
(dtRp3364
sg18
g1
(g11
g12
(dtRp3365
sg20
g1
(g11
g12
(dtRp3366
sg22
g1
(g11
g12
(dtRp3367
sbsg24
g25
sg26
g27
((lp3368
g33
ag32
ag29
ag30
atRp3369
sg37
(lp3370
g1
(g2
g3
NtRp3371
(dp3372
g6
g1
(g7
g3
NtRp3373
(dp3374
g10
g1
(g11
g12
(dtRp3375
sg14
g1
(g11
g12
(dtRp3376
sg16
g1
(g11
g12
(dtRp3377
sg18
g1
(g11
g12
(dtRp3378
sg20
g1
(g11
g12
(dtRp3379
sg22
g1
(g11
g12
(dtRp3380
sbsg24
S'Lda'
p3381
sg26
g27
((lp3382
g29
ag30
aS'sequence'
p3383
ag32
ag33
aS'species'
p3384
atRp3385
sg37
(lp3386
sg120
g3358
sg121
S'RWLSTKDLYSRLELPGLNQNVHAMFVMPLGFGNPMGDMFARLNNSFWLPPLSLEGAGTGWTVYPPLSHSGPSVDLAFHLTSSLLGAINFTNMRGPLFWTALLLLSLPVLAGTILDRNFNTFEGGDPLYHLFWFFGHPEVYIIPGFGSHSTYKKFGMYASIGLGFVWSHHMYVGLDDRAYFTSATMIAPTGIKFSWLALYGGRPMLAFLFLFTGGTGVLNASDAFHDTYYVVHFHYVLSMGAFSLGYYYWPGLYNLFWFNFPMHFLGGMPRRPYPDAGWNSGSSYQLGPDESNEPH'
p3387
sg123
F0.023539999999999998
sg124
g125
sg33
S'45'
p3388
sg127
g1
(g128
g12
(dp3389
g130
I4
sg131
g132
sg133
g134
sg135
g132
sg136
I01
sg34
g137
sg138
g134
sg139
I0
sg140
I0
sg141
I0
sg142
g134
sg35
g143
sg144
I0
stRp3390
sg146
g147
sg148
F1
sg149
Nsg30
S'LdasiA'
p3391
sbag1
(g2
g3
NtRp3392
(dp3393
g6
g1
(g7
g3
NtRp3394
(dp3395
g10
g1
(g11
g12
(dtRp3396
sg14
g1
(g11
g12
(dtRp3397
sg16
g1
(g11
g12
(dtRp3398
sg18
g1
(g11
g12
(dtRp3399
sg20
g1
(g11
g12
(dtRp3400
sg22
g1
(g11
g12
(dtRp3401
sbsg24
g25
sg26
g27
((lp3402
g33
ag32
ag29
ag30
atRp3403
sg37
(lp3404
g1
(g2
g3
NtRp3405
(dp3406
g6
g1
(g7
g3
NtRp3407
(dp3408
g10
g1
(g11
g12
(dtRp3409
sg14
g1
(g11
g12
(dtRp3410
sg16
g1
(g11
g12
(dtRp3411
sg18
g1
(g11
g12
(dtRp3412
sg20
g1
(g11
g12
(dtRp3413
sg22
g1
(g11
g12
(dtRp3414
sbsg24
S'Lme'
p3415
sg26
g27
((lp3416
g29
ag30
aS'sequence'
p3417
ag32
ag33
aS'species'
p3418
atRp3419
sg37
(lp3420
sg120
g3392
sg121
S'RWLSTKDLYSRLELPGLNQNVHAMFVMPLGFGNPMGDMFARLNNSFWLPPLSLEGAGTGWTVYPPLSHSGPSVDLAFHLTSSLLGAINFTNMRGPLFWTALLLLSLPVLAGTILDRNFNTFEGGDPLYHLFWFFGHPEVYIIPGFGSHSTYKKFGMYASIGLGFVWSHHMYVGLDDRAYFTSATMIAPTGIKFSWLALYGGRPMLAFLFLFTGGTGVLNASDAFHDTYYVVHFHYVLSMGAFSLGYYYWPGLYNLFWFNFPMHFLGGMPRRPYPDAGWNSGSSYQLGPDESNEPH'
p3421
sg123
F0.0050299999999999997
sg124
g125
sg33
S'49'
p3422
sg127
g1
(g128
g12
(dp3423
g130
I4
sg131
g132
sg133
g134
sg135
g132
sg136
I01
sg34
g137
sg138
g134
sg139
I0
sg140
I0
sg141
I0
sg142
g134
sg35
g143
sg144
I0
stRp3424
sg146
g147
sg148
F1
sg149
Nsg30
S'LmeyeA'
p3425
sbag1
(g2
g3
NtRp3426
(dp3427
g6
g1
(g7
g3
NtRp3428
(dp3429
g10
g1
(g11
g12
(dtRp3430
sg14
g1
(g11
g12
(dtRp3431
sg16
g1
(g11
g12
(dtRp3432
sg18
g1
(g11
g12
(dtRp3433
sg20
g1
(g11
g12
(dtRp3434
sg22
g1
(g11
g12
(dtRp3435
sbsg24
S'Lan'
p3436
sg26
g27
((lp3437
g29
ag30
aS'sequence'
p3438
ag32
ag33
aS'species'
p3439
atRp3440
sg37
(lp3441
sg120
g3392
sg121
S'RWLSTKDLYSRLELPGLNQNVHAMFVMPLGFGNPMGDMFARLNNSFWLPPLSLEGAGTGWTVYPPLSHSGPSVDLAFHLTSSLLGAINFTNMRGPLFWTALLLLSLPVLAGTILDRNFNTFEGGDPLYHLFWFFGHPEVYIIPGFGSHSTYKKFGMYASIGLGFVWSHHMYVGLDDRAYFTSALMIAPTGIKFSWLALYGGRPMLAFLFLFTGGTGVLNASDAFHDTYYVVHFHYVLSMGAFSLGYYYWPGLYNLFWFNFPMHFLGGMPRRPYPDAGWNSGSSYQLGPDESNEPH'
p3442
sg123
F0.012290000000000001
sg124
g125
sg33
S'51'
p3443
sg127
g1
(g128
g12
(dp3444
g130
I4
sg131
g132
sg133
g134
sg135
g132
sg136
I01
sg34
g137
sg138
g134
sg139
I0
sg140
I0
sg141
I0
sg142
g134
sg35
g143
sg144
I0
stRp3445
sg146
g147
sg148
F1
sg149
Nsg30
S'LanspB'
p3446
sbasg120
g3358
sg123
F0.012070000000000001
sg124
g125
sg33
S'44'
p3447
sg127
g1
(g128
g12
(dp3448
g130
I6
sg131
g132
sg133
g134
sg135
g132
sg136
I01
sg34
g174
sg138
g134
sg139
I0
sg140
I0
sg141
I0
sg142
g134
sg35
g175
sg144
I0
stRp3449
sg146
g147
sg148
F0.98999999999999999
sg149
Nsg30
S'NoName'
p3450
sbasg120
g3324
sg123
F0.0088199999999999997
sg124
g125
sg33
S'40'
p3451
sg127
g1
(g128
g12
(dp3452
g130
I6
sg131
g132
sg133
g134
sg135
g132
sg136
I01
sg34
g174
sg138
g134
sg139
I0
sg140
I0
sg141
I0
sg142
g134
sg35
g175
sg144
I0
stRp3453
sg146
g147
sg148
F0.95999999999999996
sg149
Nsg30
S'NoName'
p3454
sbasg120
g3311
sg123
F0.016570000000000001
sg124
g125
sg33
S'38'
p3455
sg127
g1
(g128
g12
(dp3456
g130
I6
sg131
g132
sg133
g134
sg135
g132
sg136
I01
sg34
g174
sg138
g134
sg139
I0
sg140
I0
sg141
I0
sg142
g134
sg35
g175
sg144
I0
stRp3457
sg146
g147
sg148
F0.94999999999999996
sg149
Nsg30
S'NoName'
p3458
sbag1
(g2
g3
NtRp3459
(dp3460
g6
g1
(g7
g3
NtRp3461
(dp3462
g10
g1
(g11
g12
(dtRp3463
sg14
g1
(g11
g12
(dtRp3464
sg16
g1
(g11
g12
(dtRp3465
sg18
g1
(g11
g12
(dtRp3466
sg20
g1
(g11
g12
(dtRp3467
sg22
g1
(g11
g12
(dtRp3468
sbsg24
S'Kth'
p3469
sg26
g27
((lp3470
g29
ag30
aS'sequence'
p3471
ag32
ag33
aS'species'
p3472
atRp3473
sg37
(lp3474
sg120
g3311
sg121
S'RWLSTKDLYSRLELPGLNQNVHAMFVMPLGFGNPMGDMFARLNNSFWLPPLSLEGAGTGWTVYPPLSHSGPSVDLAFHLTSSLLGAINFTNMRGPLFWTALLLLSLPVLAGTILDRNFNTFEGGDPLYHLFWFFGHPEVYIIPGFGSHSTYKKFGMYASIGLGFVWSHHMYVGLDDRAYFTSATMIAPTGIKFSWLALYGGRPMLAFLFLFTGGTGVLNASDAFHDTYYVVHFHYVLSMGAFSLGYYYWPGLYNLFWFNFPMHFLGGMPRRPYPDAGWNSGSSYQLGPDESNEPH'
p3475
sg123
F0.021499999999999998
sg124
g125
sg33
S'52'
p3476
sg127
g1
(g128
g12
(dp3477
g130
I4
sg131
g132
sg133
g134
sg135
g132
sg136
I01
sg34
g137
sg138
g134
sg139
I0
sg140
I0
sg141
I0
sg142
g134
sg35
g143
sg144
I0
stRp3478
sg146
g147
sg148
F1
sg149
Nsg30
S'KtherA'
p3479
sbasg120
g3277
sg123
F0.033250000000000002
sg124
g125
sg33
S'160'
p3480
sg127
g1
(g128
g12
(dp3481
g130
I6
sg131
g132
sg133
g134
sg135
g132
sg136
I01
sg34
g174
sg138
g134
sg139
I0
sg140
I0
sg141
I0
sg142
g134
sg35
g175
sg144
I0
stRp3482
sg146
g147
sg148
F0.93999999999999995
sg149
Nsg30
S'NoName'
p3483
sbasg120
g3054
sg123
F0.038859999999999999
sg124
g125
sg33
S'122'
p3484
sg127
g1
(g128
g12
(dp3485
g130
I6
sg131
g132
sg133
g134
sg135
g132
sg136
I01
sg34
g174
sg138
g134
sg139
I0
sg140
I0
sg141
I0
sg142
g134
sg35
g175
sg144
I0
stRp3486
sg146
g147
sg148
F0.92000000000000004
sg149
Nsg30
S'NoName'
p3487
sbasg120
g3041
sg123
F0.050380000000000001
sg124
g125
sg33
S'85'
p3488
sg127
g1
(g128
g12
(dp3489
g130
I6
sg131
g132
sg133
g134
sg135
g132
sg136
I01
sg34
g174
sg138
g134
sg139
I0
sg140
I0
sg141
I0
sg142
g134
sg35
g175
sg144
I0
stRp3490
sg146
g147
sg148
F0.89000000000000001
sg149
Nsg30
S'NoName'
p3491
sbag1
(g2
g3
NtRp3492
(dp3493
g6
g1
(g7
g3
NtRp3494
(dp3495
g10
g1
(g11
g12
(dtRp3496
sg14
g1
(g11
g12
(dtRp3497
sg16
g1
(g11
g12
(dtRp3498
sg18
g1
(g11
g12
(dtRp3499
sg20
g1
(g11
g12
(dtRp3500
sg22
g1
(g11
g12
(dtRp3501
sbsg24
g25
sg26
g27
((lp3502
g33
ag32
ag29
ag30
atRp3503
sg37
(lp3504
g1
(g2
g3
NtRp3505
(dp3506
g6
g1
(g7
g3
NtRp3507
(dp3508
g10
g1
(g11
g12
(dtRp3509
sg14
g1
(g11
g12
(dtRp3510
sg16
g1
(g11
g12
(dtRp3511
sg18
g1
(g11
g12
(dtRp3512
sg20
g1
(g11
g12
(dtRp3513
sg22
g1
(g11
g12
(dtRp3514
sbsg24
S'Kma'
p3515
sg26
g27
((lp3516
g29
ag30
aS'sequence'
p3517
ag32
ag33
aS'species'
p3518
atRp3519
sg37
(lp3520
sg120
g3492
sg121
S'RWLSTKDLYSRLELPGLNQNVHAMFVMPLGFGNPMGDMFARLNNSFWLPPLSLEGAGTGWTVYPPLSHSGPSVDLAFHLTSSLLGAINFTNMRGPLFWTALLLLSLPVLAGTLLDRNFNTFEGGDPLYHLFWFFGHPEVYIIPGFGSHSTYKKFGMYASIGLGFVWSHHMYVGLDDRAYFTSATMIAPTGIKFSWLATYGGRPMLAFLFLFTGGTGVLNASDAFHDTYYVVHFHYVLSMGAFSLGYYYWPGLYNLFWFNFPMHFLGGMPRRPYPDAGWNSGSSYQLGPDESNEPH'
p3521
sg123
F0.04018
sg124
g125
sg33
S'57'
p3522
sg127
g1
(g128
g12
(dp3523
g130
I4
sg131
g132
sg133
g134
sg135
g132
sg136
I01
sg34
g137
sg138
g134
sg139
I0
sg140
I0
sg141
I0
sg142
g134
sg35
g143
sg144
I0
stRp3524
sg146
g147
sg148
F1
sg149
Nsg30
S'KmarxA'
p3525
sbag1
(g2
g3
NtRp3526
(dp3527
g6
g1
(g7
g3
NtRp3528
(dp3529
g10
g1
(g11
g12
(dtRp3530
sg14
g1
(g11
g12
(dtRp3531
sg16
g1
(g11
g12
(dtRp3532
sg18
g1
(g11
g12
(dtRp3533
sg20
g1
(g11
g12
(dtRp3534
sg22
g1
(g11
g12
(dtRp3535
sbsg24
S'Kla'
p3536
sg26
g27
((lp3537
g29
ag30
aS'sequence'
p3538
ag32
ag33
aS'species'
p3539
atRp3540
sg37
(lp3541
sg120
g3492
sg121
S'RWLSTKDLYSRLELPGLNQNVHAMFVMPLGFGNPLGDMFARLNNSFWLPPLSLEGAGTGWTVYPPLSHSGPSVDLAFHLTSSLLGAINFTNMRGPLFWTALLLLSLPVLAGTLLDRNFNTFEGGDPLYHLFWFFGHPEVYIIPGFGSHSTYKKFGMYASIGLGFVWSHHMYVGLDDRAYFTSATMIAPTGIKFSWLATYGGRPMLAFLFLFTGGTGVLNASDAFHDTYYVVHFHYVLSMGAFSLGYYYWPGLYNLFWFNFPMHFLGGMPRRPYPDAGWNSGSSYQLGPDESNEPH'
p3542
sg123
F0.043529999999999999
sg124
g125
sg33
S'60'
p3543
sg127
g1
(g128
g12
(dp3544
g130
I4
sg131
g132
sg133
g134
sg135
g132
sg136
I01
sg34
g137
sg138
g134
sg139
I0
sg140
I0
sg141
I0
sg142
g134
sg35
g143
sg144
I0
stRp3545
sg146
g147
sg148
F1
sg149
Nsg30
S'KlactA'
p3546
sbasg120
g3041
sg123
F0.13938999999999999
sg124
g125
sg33
S'47'
p3547
sg127
g1
(g128
g12
(dp3548
g130
I6
sg131
g132
sg133
g134
sg135
g132
sg136
I01
sg34
g174
sg138
g134
sg139
I0
sg140
I0
sg141
I0
sg142
g134
sg35
g175
sg144
I0
stRp3549
sg146
g147
sg148
F0.98999999999999999
sg149
Nsg30
S'NoName'
p3550
sbasg120
g3028
sg123
F1.0000000000000001e-05
sg124
g125
sg33
S'76'
p3551
sg127
g1
(g128
g12
(dp3552
g130
I6
sg131
g132
sg133
g134
sg135
g132
sg136
I01
sg34
g174
sg138
g134
sg139
I0
sg140
I0
sg141
I0
sg142
g134
sg35
g175
sg144
I0
stRp3553
sg146
g147
sg148
F1
sg149
Nsg30
S'NoName'
p3554
sbag1
(g2
g3
NtRp3555
(dp3556
g6
g1
(g7
g3
NtRp3557
(dp3558
g10
g1
(g11
g12
(dtRp3559
sg14
g1
(g11
g12
(dtRp3560
sg16
g1
(g11
g12
(dtRp3561
sg18
g1
(g11
g12
(dtRp3562
sg20
g1
(g11
g12
(dtRp3563
sg22
g1
(g11
g12
(dtRp3564
sbsg24
g25
sg26
g27
((lp3565
g33
ag32
ag29
ag30
atRp3566
sg37
(lp3567
g1
(g2
g3
NtRp3568
(dp3569
g6
g1
(g7
g3
NtRp3570
(dp3571
g10
g1
(g11
g12
(dtRp3572
sg14
g1
(g11
g12
(dtRp3573
sg16
g1
(g11
g12
(dtRp3574
sg18
g1
(g11
g12
(dtRp3575
sg20
g1
(g11
g12
(dtRp3576
sg22
g1
(g11
g12
(dtRp3577
sbsg24
S'Huv'
p3578
sg26
g27
((lp3579
g29
ag30
aS'sequence'
p3580
ag32
ag33
aS'species'
p3581
atRp3582
sg37
(lp3583
sg120
g3555
sg121
S'-MITTKDLYSRLELSGINHNSHAMFIMPIGFGNPAGDMFPRLNNSFWLVPVSLEGAGTGWTVYYPLSHSSVSVDLVFHCLSSLLGAINFTNFL-SLFWLALLLLSLPVLVGTLLDRNFNLYEGGDPLYHLFWFFGHPEVYIIPAFGSMSAYSKFGMYASIGLGFVWVHHMFVGLDDRAYFTSATMIAPLGIKFSWLALIGGRPVLAFLVLFLGGTGVLNASDAFHDTYYVVHFHYVLSLGAFGIGYYYWPGLYNLFVVNFPMHYLGGMPRRSYPDSAWNTGASVQLGTDLLPEPH'
p3584
sg123
F3.9441199999999998
sg124
g125
sg33
S'63'
p3585
sg127
g1
(g128
g12
(dp3586
g130
I4
sg131
g132
sg133
g134
sg135
g132
sg136
I01
sg34
g137
sg138
g134
sg139
I0
sg140
I0
sg141
I0
sg142
g134
sg35
g143
sg144
I0
stRp3587
sg146
g147
sg148
F1
sg149
Nsg30
S'HuvarA'
p3588
sbag1
(g2
g3
NtRp3589
(dp3590
g6
g1
(g7
g3
NtRp3591
(dp3592
g10
g1
(g11
g12
(dtRp3593
sg14
g1
(g11
g12
(dtRp3594
sg16
g1
(g11
g12
(dtRp3595
sg18
g1
(g11
g12
(dtRp3596
sg20
g1
(g11
g12
(dtRp3597
sg22
g1
(g11
g12
(dtRp3598
sbsg24
g25
sg26
g27
((lp3599
g33
ag32
ag29
ag30
atRp3600
sg37
(lp3601
g1
(g2
g3
NtRp3602
(dp3603
g6
g1
(g7
g3
NtRp3604
(dp3605
g10
g1
(g11
g12
(dtRp3606
sg14
g1
(g11
g12
(dtRp3607
sg16
g1
(g11
g12
(dtRp3608
sg18
g1
(g11
g12
(dtRp3609
sg20
g1
(g11
g12
(dtRp3610
sg22
g1
(g11
g12
(dtRp3611
sbsg24
g25
sg26
g27
((lp3612
g33
ag32
ag29
ag30
atRp3613
sg37
(lp3614
g1
(g2
g3
NtRp3615
(dp3616
g6
g1
(g7
g3
NtRp3617
(dp3618
g10
g1
(g11
g12
(dtRp3619
sg14
g1
(g11
g12
(dtRp3620
sg16
g1
(g11
g12
(dtRp3621
sg18
g1
(g11
g12
(dtRp3622
sg20
g1
(g11
g12
(dtRp3623
sg22
g1
(g11
g12
(dtRp3624
sbsg24
g25
sg26
g27
((lp3625
g33
ag32
ag29
ag30
atRp3626
sg37
(lp3627
g1
(g2
g3
NtRp3628
(dp3629
g6
g1
(g7
g3
NtRp3630
(dp3631
g10
g1
(g11
g12
(dtRp3632
sg14
g1
(g11
g12
(dtRp3633
sg16
g1
(g11
g12
(dtRp3634
sg18
g1
(g11
g12
(dtRp3635
sg20
g1
(g11
g12
(dtRp3636
sg22
g1
(g11
g12
(dtRp3637
sbsg24
S'Sse'
p3638
sg26
g27
((lp3639
g29
ag30
aS'sequence'
p3640
ag32
ag33
aS'species'
p3641
atRp3642
sg37
(lp3643
sg120
g3615
sg121
S'RWLSTKDMYSRMELPGLNQNVHAMFAMPLGFGNPMGDMFPRINSGFWLPMLSLEGAGTGWTVYPPLSHSGPSVDLAFHLTSSLLGAINFTNMRGPLFWTALLLLSLPVLAGTLLDRNFNTFEGGDPFYHAFWFFGHPEVYIIPGFGSHSTYKKFGMYASIGLGFVWSHHMYVGLDDRAYFTSATMIAPTGIKFSWLALYGGRPMMAFLFLFTGGTGVLNASDAFHDTYYVVHFHYVLSMGAFSLGYYYWPGLYNLFWFNFPMHFLGGMPRRPYPDAGWNSGSSYQIGPDESNEPH'
p3644
sg123
F0.29805999999999999
sg124
g125
sg33
S'70'
p3645
sg127
g1
(g128
g12
(dp3646
g130
I4
sg131
g132
sg133
g134
sg135
g132
sg136
I01
sg34
g137
sg138
g134
sg139
I0
sg140
I0
sg141
I0
sg142
g134
sg35
g143
sg144
I0
stRp3647
sg146
g147
sg148
F1
sg149
Nsg30
S'SservA'
p3648
sbag1
(g2
g3
NtRp3649
(dp3650
g6
g1
(g7
g3
NtRp3651
(dp3652
g10
g1
(g11
g12
(dtRp3653
sg14
g1
(g11
g12
(dtRp3654
sg16
g1
(g11
g12
(dtRp3655
sg18
g1
(g11
g12
(dtRp3656
sg20
g1
(g11
g12
(dtRp3657
sg22
g1
(g11
g12
(dtRp3658
sbsg24
S'Sca'
p3659
sg26
g27
((lp3660
g29
ag30
aS'sequence'
p3661
ag32
ag33
aS'species'
p3662
atRp3663
sg37
(lp3664
sg120
g3615
sg121
S'RWLSTKDLYSRLELPGLNQNVHAMFVMPLGFGNPMGDTFPRINNGFWLPMLSLEGAGTGWTVYPPLAHSGPSVDLAFHMTSSLLGAINFTNMRGPLFWTALLLLTLPVLAGTLLDRNFNTFEGGDPLYHLFWFFGHPEVYIIPGFGSHSTYKKFGMYASIGLGLVWSHHMYVGLDDRAYFTSATMIAPTGIKFSWLATYGGRPMLAFLFLFTGGTGVLNASDAFHDLYYVVHFHYVLSMGAFSLGYYYWPGLYNLFWFNFPMHFLGGMPRRPYPDAGWNSGASYQLGPDESNEPH'
p3665
sg123
F0.30890000000000001
sg124
g125
sg33
S'71'
p3666
sg127
g1
(g128
g12
(dp3667
g130
I4
sg131
g132
sg133
g134
sg135
g132
sg136
I01
sg34
g137
sg138
g134
sg139
I0
sg140
I0
sg141
I0
sg142
g134
sg35
g143
sg144
I0
stRp3668
sg146
g147
sg148
F1
sg149
Nsg30
S'ScastA'
p3669
sbasg120
g3602
sg123
F0.072319999999999995
sg124
g125
sg33
S'67'
p3670
sg127
g1
(g128
g12
(dp3671
g130
I6
sg131
g132
sg133
g134
sg135
g132
sg136
I01
sg34
g174
sg138
g134
sg139
I0
sg140
I0
sg141
I0
sg142
g134
sg35
g175
sg144
I0
stRp3672
sg146
g147
sg148
F0.98999999999999999
sg149
Nsg30
S'NoName'
p3673
sbag1
(g2
g3
NtRp3674
(dp3675
g6
g1
(g7
g3
NtRp3676
(dp3677
g10
g1
(g11
g12
(dtRp3678
sg14
g1
(g11
g12
(dtRp3679
sg16
g1
(g11
g12
(dtRp3680
sg18
g1
(g11
g12
(dtRp3681
sg20
g1
(g11
g12
(dtRp3682
sg22
g1
(g11
g12
(dtRp3683
sbsg24
g25
sg26
g27
((lp3684
g33
ag32
ag29
ag30
atRp3685
sg37
(lp3686
g1
(g2
g3
NtRp3687
(dp3688
g6
g1
(g7
g3
NtRp3689
(dp3690
g10
g1
(g11
g12
(dtRp3691
sg14
g1
(g11
g12
(dtRp3692
sg16
g1
(g11
g12
(dtRp3693
sg18
g1
(g11
g12
(dtRp3694
sg20
g1
(g11
g12
(dtRp3695
sg22
g1
(g11
g12
(dtRp3696
sbsg24
S'Spa'
p3697
sg26
g27
((lp3698
g29
ag30
aS'sequence'
p3699
ag32
ag33
aS'species'
p3700
atRp3701
sg37
(lp3702
sg120
g3674
sg121
S'RWLSTKDLYSRLELPGLNQNVHAMFVMPLGFGNPMGDTFPRINNAFWLPMLSLEGAGTGWTVYPPLSHSGPSVDLAFHLTSSLLGAINFTNMRGPLFWTALLLLSLPVLAGTLLDRNFNTFEGGDPLYHLFWFFGHPEVYIIPGFGSHSTYKKFGMYASIGLGFVWSHHMYVGLDDRAYFLSATMIAPTGIKFSWLATYGGRPMLAFLFLFTGGTGVLNASDAFHDTYYVVHFHYVLSMGAFSLGYYYWPGLYNLFWFNFPMHFLGGMPRRPYPDAGWNSGSSYQLGPDESNEPH'
p3703
sg123
F0.029780000000000001
sg124
g125
sg33
S'75'
p3704
sg127
g1
(g128
g12
(dp3705
g130
I4
sg131
g132
sg133
g134
sg135
g132
sg136
I01
sg34
g137
sg138
g134
sg139
I0
sg140
I0
sg141
I0
sg142
g134
sg35
g143
sg144
I0
stRp3706
sg146
g147
sg148
F1
sg149
Nsg30
S'SpastA'
p3707
sbag1
(g2
g3
NtRp3708
(dp3709
g6
g1
(g7
g3
NtRp3710
(dp3711
g10
g1
(g11
g12
(dtRp3712
sg14
g1
(g11
g12
(dtRp3713
sg16
g1
(g11
g12
(dtRp3714
sg18
g1
(g11
g12
(dtRp3715
sg20
g1
(g11
g12
(dtRp3716
sg22
g1
(g11
g12
(dtRp3717
sbsg24
g25
sg26
g27
((lp3718
g33
ag32
ag29
ag30
atRp3719
sg37
(lp3720
g1
(g2
g3
NtRp3721
(dp3722
g6
g1
(g7
g3
NtRp3723
(dp3724
g10
g1
(g11
g12
(dtRp3725
sg14
g1
(g11
g12
(dtRp3726
sg16
g1
(g11
g12
(dtRp3727
sg18
g1
(g11
g12
(dtRp3728
sg20
g1
(g11
g12
(dtRp3729
sg22
g1
(g11
g12
(dtRp3730
sbsg24
g25
sg26
g27
((lp3731
g33
ag32
ag29
ag30
atRp3732
sg37
(lp3733
g1
(g2
g3
NtRp3734
(dp3735
g6
g1
(g7
g3
NtRp3736
(dp3737
g10
g1
(g11
g12
(dtRp3738
sg14
g1
(g11
g12
(dtRp3739
sg16
g1
(g11
g12
(dtRp3740
sg18
g1
(g11
g12
(dtRp3741
sg20
g1
(g11
g12
(dtRp3742
sg22
g1
(g11
g12
(dtRp3743
sbsg24
S'Sce'
p3744
sg26
g27
((lp3745
g29
ag30
aS'sequence'
p3746
ag32
ag33
aS'species'
p3747
atRp3748
sg37
(lp3749
sg120
g3721
sg121
S'RWLSTKDLYSRLELPGLNQNVHAMFVMPLGFGNPMGDTFPRINNAFWLPMLSLEGAGTGWTVYPPLSHSGPSVDLAFHLTSSLLGAINFTNMRGPLFWTALLLLSLPVLAGTLLDRNFNTFEGGDPLYHLFWFFGHPEVYIIPGFGSHSTYKKFGMYASIGLGFVWSHHMYVGLDDRAYFLSALMIAPTGIKFSWLALYGGRPMLAFLFLFTGGTGVLNASDAFHDTYYVVHFHYVLSMGAFSLGYYYWPGLYNLFWFNFPMHFLGGMPRRPYPDAGWNSGSSYQLGPDESNEPH'
p3750
sg123
F0.0038700000000000002
sg124
g125
sg33
S'80'
p3751
sg127
g1
(g128
g12
(dp3752
g130
I4
sg131
g132
sg133
g134
sg135
g132
sg136
I01
sg34
g137
sg138
g134
sg139
I0
sg140
I0
sg141
I0
sg142
g134
sg35
g143
sg144
I0
stRp3753
sg146
g147
sg148
F1
sg149
Nsg30
S'ScereD'
p3754
sbag1
(g2
g3
NtRp3755
(dp3756
g6
g1
(g7
g3
NtRp3757
(dp3758
g10
g1
(g11
g12
(dtRp3759
sg14
g1
(g11
g12
(dtRp3760
sg16
g1
(g11
g12
(dtRp3761
sg18
g1
(g11
g12
(dtRp3762
sg20
g1
(g11
g12
(dtRp3763
sg22
g1
(g11
g12
(dtRp3764
sbsg24
g25
sg26
g27
((lp3765
g33
ag32
ag29
ag30
atRp3766
sg37
(lp3767
g1
(g2
g3
NtRp3768
(dp3769
g6
g1
(g7
g3
NtRp3770
(dp3771
g10
g1
(g11
g12
(dtRp3772
sg14
g1
(g11
g12
(dtRp3773
sg16
g1
(g11
g12
(dtRp3774
sg18
g1
(g11
g12
(dtRp3775
sg20
g1
(g11
g12
(dtRp3776
sg22
g1
(g11
g12
(dtRp3777
sbsg24
S'Sce'
p3778
sg26
g27
((lp3779
g29
ag30
aS'sequence'
p3780
ag32
ag33
aS'species'
p3781
atRp3782
sg37
(lp3783
sg120
g3755
sg121
S'RWLSTKDLYSRLELPGLNQNVHAMFVMPLGFGNPMGDTFPRINNAFWLPMLSLEGAGTGWTVYPPLSHSGPSVDLAFHLTSSLLGAINFTNMRGPLFWTALLLLSLPVLAGTLLDRNFNTFEGGDPLYHLFWFFGHPEVYIIPGFGSHSTYKKFGMYASIGLGFVWSHHMYVGLDDRAYFLSALMIAPTGIKFSWLALYGGRPMLAFLFLFTGGTGVLNASDAFHDTYYVVHFHYVLSMGAFSLGYYYWPGLYNLFWFNFPMHFLGGMPRRPYPDAGWNSGSSYQLGPDESNEPH'
p3784
sg123
F0.0075900000000000004
sg124
g125
sg33
S'96'
p3785
sg127
g1
(g128
g12
(dp3786
g130
I4
sg131
g132
sg133
g134
sg135
g132
sg136
I01
sg34
g137
sg138
g134
sg139
I0
sg140
I0
sg141
I0
sg142
g134
sg35
g143
sg144
I0
stRp3787
sg146
g147
sg148
F1
sg149
Nsg30
S'ScereE'
p3788
sbag1
(g2
g3
NtRp3789
(dp3790
g6
g1
(g7
g3
NtRp3791
(dp3792
g10
g1
(g11
g12
(dtRp3793
sg14
g1
(g11
g12
(dtRp3794
sg16
g1
(g11
g12
(dtRp3795
sg18
g1
(g11
g12
(dtRp3796
sg20
g1
(g11
g12
(dtRp3797
sg22
g1
(g11
g12
(dtRp3798
sbsg24
g25
sg26
g27
((lp3799
g33
ag32
ag29
ag30
atRp3800
sg37
(lp3801
g1
(g2
g3
NtRp3802
(dp3803
g6
g1
(g7
g3
NtRp3804
(dp3805
g10
g1
(g11
g12
(dtRp3806
sg14
g1
(g11
g12
(dtRp3807
sg16
g1
(g11
g12
(dtRp3808
sg18
g1
(g11
g12
(dtRp3809
sg20
g1
(g11
g12
(dtRp3810
sg22
g1
(g11
g12
(dtRp3811
sbsg24
S'Sce'
p3812
sg26
g27
((lp3813
g29
ag30
aS'sequence'
p3814
ag32
ag33
aS'species'
p3815
atRp3816
sg37
(lp3817
sg120
g3789
sg121
S'RWLSTKDLYSRLELPGLNQNVHAMFVMPLGFGNPMGDTFPRINNAFWLPMLSLEGAGTGWTVYPPLSHSGPSVDLAFHLTSSLLGAINFTNMRGPLFWTALLLLSLPVLAGTLLDRNFNTFEGGDPLYHLFWFFGHPEVYIIPGFGSHSTYKKFGMYASIGLGFVWSHHMYVGLDDRAYFLSALMIAPTGIKFSWLALHGGRPMLAFLFLFTGGTGVLNASDAFHDTYYVVHFHYVLSMGAFSLGYYYWPGLYNLFWFNFPMHFLGGMPRRPYPDAGWNSGSSYQLGPDESNEPH'
p3818
sg123
F0.0053899999999999998
sg124
g125
sg33
S'116'
p3819
sg127
g1
(g128
g12
(dp3820
g130
I4
sg131
g132
sg133
g134
sg135
g132
sg136
I01
sg34
g137
sg138
g134
sg139
I0
sg140
I0
sg141
I0
sg142
g134
sg35
g143
sg144
I0
stRp3821
sg146
g147
sg148
F1
sg149
Nsg30
S'ScereC'
p3822
sbag1
(g2
g3
NtRp3823
(dp3824
g6
g1
(g7
g3
NtRp3825
(dp3826
g10
g1
(g11
g12
(dtRp3827
sg14
g1
(g11
g12
(dtRp3828
sg16
g1
(g11
g12
(dtRp3829
sg18
g1
(g11
g12
(dtRp3830
sg20
g1
(g11
g12
(dtRp3831
sg22
g1
(g11
g12
(dtRp3832
sbsg24
S'Sce'
p3833
sg26
g27
((lp3834
g29
ag30
aS'sequence'
p3835
ag32
ag33
aS'species'
p3836
atRp3837
sg37
(lp3838
sg120
g3789
sg121
S'RWLSTKDLYSRLELPGLNQNVHAMFVMPLGFGNPMGDTFPRINNAFWLPMLSLEGAGTGWTVYPPLSHSGPSVDLAFHLTSSLLGAINFTNMRGPLFWTALLLLSLPVLAGTLLDRNFNTFEGGDPLYHLFWFFGHPEVYIIPGFGSHSTYKKFGMYASIGLGFVWSHHMYVGLDDRAYFLSALMIAPTGIKFSWLALYGGRPMLAFLFLFTGGTGVLNASDAFHDTYYVVHFHYVLSMGAFSLGYYYWPGLYNLFWFNFPMHFLGGMPRRPYPDAGWNSGSSYQLGPDESNEPH'
p3839
sg123
F0.0066400000000000001
sg124
g125
sg33
S'170'
p3840
sg127
g1
(g128
g12
(dp3841
g130
I4
sg131
g132
sg133
g134
sg135
g132
sg136
I01
sg34
g137
sg138
g134
sg139
I0
sg140
I0
sg141
I0
sg142
g134
sg35
g143
sg144
I0
stRp3842
sg146
g147
sg148
F1
sg149
Nsg30
S'ScereA'
p3843
sbasg120
g3755
sg123
F0.00596
sg124
g125
sg33
S'15'
p3844
sg127
g1
(g128
g12
(dp3845
g130
I6
sg131
g132
sg133
g134
sg135
g132
sg136
I01
sg34
g174
sg138
g134
sg139
I0
sg140
I0
sg141
I0
sg142
g134
sg35
g175
sg144
I0
stRp3846
sg146
g147
sg148
F0.98999999999999999
sg149
Nsg30
S'NoName'
p3847
sbasg120
g3721
sg123
F0.0050600000000000003
sg124
g125
sg33
S'78'
p3848
sg127
g1
(g128
g12
(dp3849
g130
I6
sg131
g132
sg133
g134
sg135
g132
sg136
I01
sg34
g174
sg138
g134
sg139
I0
sg140
I0
sg141
I0
sg142
g134
sg35
g175
sg144
I0
stRp3850
sg146
g147
sg148
F0.66000000000000003
sg149
Nsg30
S'NoName'
p3851
sbasg120
g3708
sg123
F0.017850000000000001
sg124
g125
sg33
S'77'
p3852
sg127
g1
(g128
g12
(dp3853
g130
I6
sg131
g132
sg133
g134
sg135
g132
sg136
I01
sg34
g174
sg138
g134
sg139
I0
sg140
I0
sg141
I0
sg142
g134
sg35
g175
sg144
I0
stRp3854
sg146
g147
sg148
F0.89000000000000001
sg149
Nsg30
S'NoName'
p3855
sbag1
(g2
g3
NtRp3856
(dp3857
g6
g1
(g7
g3
NtRp3858
(dp3859
g10
g1
(g11
g12
(dtRp3860
sg14
g1
(g11
g12
(dtRp3861
sg16
g1
(g11
g12
(dtRp3862
sg18
g1
(g11
g12
(dtRp3863
sg20
g1
(g11
g12
(dtRp3864
sg22
g1
(g11
g12
(dtRp3865
sbsg24
S'Sar'
p3866
sg26
g27
((lp3867
g29
ag30
aS'sequence'
p3868
ag32
ag33
aS'species'
p3869
atRp3870
sg37
(lp3871
sg120
g3708
sg121
S'RWLSTKDLYSRLELPGLNQNVHAMFVMPLGFGNPMGDTFPRINNAFWLPMLSLEGAGTGWTVYPPLSHSGPSVDLAFHLTSSLLGAINFTNMRGPLFWTALLLLSLPVLAGTLLDRNFNTFEGGDPLYHLFWFFGHPEVYIIPGFGSHSTYKKFGMYASIGLGFVWSHHMYVGLDDRAYFLSALMIAPTGIKFSWLALYGGRPMLAFLFLFTGGTGVLNASDAFHDTYYVVHFHYVLSMGAFSLGYYYWPGLYNLFWFNFPMHFLGGMPRRPYPDAGWNSGSSYQLGPDESNEPH'
p3872
sg123
F0.047230000000000001
sg124
g125
sg33
S'222'
p3873
sg127
g1
(g128
g12
(dp3874
g130
I4
sg131
g132
sg133
g134
sg135
g132
sg136
I01
sg34
g137
sg138
g134
sg139
I0
sg140
I0
sg141
I0
sg142
g134
sg35
g143
sg144
I0
stRp3875
sg146
g147
sg148
F1
sg149
Nsg30
S'SarboA'
p3876
sbasg120
g3674
sg123
F0.023619999999999999
sg124
g125
sg33
S'73'
p3877
sg127
g1
(g128
g12
(dp3878
g130
I6
sg131
g132
sg133
g134
sg135
g132
sg136
I01
sg34
g174
sg138
g134
sg139
I0
sg140
I0
sg141
I0
sg142
g134
sg35
g175
sg144
I0
stRp3879
sg146
g147
sg148
F0.92000000000000004
sg149
Nsg30
S'NoName'
p3880
sbasg120
g3602
sg123
F0.18547
sg124
g125
sg33
S'209'
p3881
sg127
g1
(g128
g12
(dp3882
g130
I6
sg131
g132
sg133
g134
sg135
g132
sg136
I01
sg34
g174
sg138
g134
sg139
I0
sg140
I0
sg141
I0
sg142
g134
sg35
g175
sg144
I0
stRp3883
sg146
g147
sg148
F0.98999999999999999
sg149
Nsg30
S'NoName'
p3884
sbasg120
g3589
sg123
F0.03594
sg124
g125
sg33
S'65'
p3885
sg127
g1
(g128
g12
(dp3886
g130
I6
sg131
g132
sg133
g134
sg135
g132
sg136
I01
sg34
g174
sg138
g134
sg139
I0
sg140
I0
sg141
I0
sg142
g134
sg35
g175
sg144
I0
stRp3887
sg146
g147
sg148
F0.98999999999999999
sg149
Nsg30
S'NoName'
p3888
sbag1
(g2
g3
NtRp3889
(dp3890
g6
g1
(g7
g3
NtRp3891
(dp3892
g10
g1
(g11
g12
(dtRp3893
sg14
g1
(g11
g12
(dtRp3894
sg16
g1
(g11
g12
(dtRp3895
sg18
g1
(g11
g12
(dtRp3896
sg20
g1
(g11
g12
(dtRp3897
sg22
g1
(g11
g12
(dtRp3898
sbsg24
g25
sg26
g27
((lp3899
g33
ag32
ag29
ag30
atRp3900
sg37
(lp3901
g1
(g2
g3
NtRp3902
(dp3903
g6
g1
(g7
g3
NtRp3904
(dp3905
g10
g1
(g11
g12
(dtRp3906
sg14
g1
(g11
g12
(dtRp3907
sg16
g1
(g11
g12
(dtRp3908
sg18
g1
(g11
g12
(dtRp3909
sg20
g1
(g11
g12
(dtRp3910
sg22
g1
(g11
g12
(dtRp3911
sbsg24
g25
sg26
g27
((lp3912
g33
ag32
ag29
ag30
atRp3913
sg37
(lp3914
g1
(g2
g3
NtRp3915
(dp3916
g6
g1
(g7
g3
NtRp3917
(dp3918
g10
g1
(g11
g12
(dtRp3919
sg14
g1
(g11
g12
(dtRp3920
sg16
g1
(g11
g12
(dtRp3921
sg18
g1
(g11
g12
(dtRp3922
sg20
g1
(g11
g12
(dtRp3923
sg22
g1
(g11
g12
(dtRp3924
sbsg24
S'Nde'
p3925
sg26
g27
((lp3926
g29
ag30
aS'sequence'
p3927
ag32
ag33
aS'species'
p3928
atRp3929
sg37
(lp3930
sg120
g3902
sg121
S'RWLSTKDLYSRLELPGLNQNVHAMFVMPLGFGNPMGDMFPRLNNGFWIVPLSLEGAGTGWTVYPPLSHSGPSVDLAFHMTSSLLGAINFTNMRGPLFWTALLLLSLPVFAGTLLDRNFNTFEGGDPLYHLFWFFGHPEVYIIPGFGSHSTYKKFGMYASIGLGFVWSHHMYVGLDDRAYFTSATMIAPTGIKFSWLATYGGRPMLAFLFLFTGGTGVLNASDAFHDTYYVVHFHYVLSMGAFSTGYYYWPGLYNLFWFNFPMHFLGGMPRRPYPDAGWNSGSSYQFGPDESNEPH'
p3931
sg123
F0.063509999999999997
sg124
g125
sg33
S'155'
p3932
sg127
g1
(g128
g12
(dp3933
g130
I4
sg131
g132
sg133
g134
sg135
g132
sg136
I01
sg34
g137
sg138
g134
sg139
I0
sg140
I0
sg141
I0
sg142
g134
sg35
g143
sg144
I0
stRp3934
sg146
g147
sg148
F1
sg149
Nsg30
S'NdelpA'
p3935
sbag1
(g2
g3
NtRp3936
(dp3937
g6
g1
(g7
g3
NtRp3938
(dp3939
g10
g1
(g11
g12
(dtRp3940
sg14
g1
(g11
g12
(dtRp3941
sg16
g1
(g11
g12
(dtRp3942
sg18
g1
(g11
g12
(dtRp3943
sg20
g1
(g11
g12
(dtRp3944
sg22
g1
(g11
g12
(dtRp3945
sbsg24
S'Cgl'
p3946
sg26
g27
((lp3947
g29
ag30
aS'sequence'
p3948
ag32
ag33
aS'species'
p3949
atRp3950
sg37
(lp3951
sg120
g3902
sg121
S'RWLSTKDLYSRLELPGLNQNVHAMFVMPLGFGNPMGDMFPRLNNGFWIVPLSLEGAGTGWTVYPPLSHSGPSVDLAFHLTSSLLGSINFTNMRGPLFWTALLLLSLPVLAGTLLDRNFNTFEGGDPLYHLFWFFGHPEVYIIPGFGSHSTYKKFGMYASIGLGFVWSHHMYVGLDDRAYFTSATMIAPTGIKFSWLATYGGRPMLAFLFLFTGGTGVLNASDAFHDTYYVVHFHYVLSMGAFSTGYYYWPGLYNLFWFNFPMHFLGGMPRRPYPDAGWNSGSSYQFGPDESNEPH'
p3952
sg123
F0.03882
sg124
g125
sg33
S'206'
p3953
sg127
g1
(g128
g12
(dp3954
g130
I4
sg131
g132
sg133
g134
sg135
g132
sg136
I01
sg34
g137
sg138
g134
sg139
I0
sg140
I0
sg141
I0
sg142
g134
sg35
g143
sg144
I0
stRp3955
sg146
g147
sg148
F1
sg149
Nsg30
S'CglabA'
p3956
sbasg120
g3889
sg123
F0.16661999999999999
sg124
g125
sg33
S'48'
p3957
sg127
g1
(g128
g12
(dp3958
g130
I6
sg131
g132
sg133
g134
sg135
g132
sg136
I01
sg34
g174
sg138
g134
sg139
I0
sg140
I0
sg141
I0
sg142
g134
sg35
g175
sg144
I0
stRp3959
sg146
g147
sg148
F0.98999999999999999
sg149
Nsg30
S'NoName'
p3960
sbag1
(g2
g3
NtRp3961
(dp3962
g6
g1
(g7
g3
NtRp3963
(dp3964
g10
g1
(g11
g12
(dtRp3965
sg14
g1
(g11
g12
(dtRp3966
sg16
g1
(g11
g12
(dtRp3967
sg18
g1
(g11
g12
(dtRp3968
sg20
g1
(g11
g12
(dtRp3969
sg22
g1
(g11
g12
(dtRp3970
sbsg24
g25
sg26
g27
((lp3971
g33
ag32
ag29
ag30
atRp3972
sg37
(lp3973
g1
(g2
g3
NtRp3974
(dp3975
g6
g1
(g7
g3
NtRp3976
(dp3977
g10
g1
(g11
g12
(dtRp3978
sg14
g1
(g11
g12
(dtRp3979
sg16
g1
(g11
g12
(dtRp3980
sg18
g1
(g11
g12
(dtRp3981
sg20
g1
(g11
g12
(dtRp3982
sg22
g1
(g11
g12
(dtRp3983
sbsg24
S'Nba'
p3984
sg26
g27
((lp3985
g29
ag30
aS'sequence'
p3986
ag32
ag33
aS'species'
p3987
atRp3988
sg37
(lp3989
sg120
g3961
sg121
S'RWLSTKDLYSRMELPGLNQNVHAMFVMPLGFGNPMGDMFPRLNNGFWMPALSLEGAGTGWTVYPPLSHSGPSVDLAFHLSSSLLGAINFTNMRGPLFWTALLLFSLPVFAGTLLDRNFNTFEGGDPLYHLFWFFGHPEVYIIPGFGSHSTYKKFGMYASIGLGFVWSHHMYVGLDDRAYFTSATMIAPTGIKFSWLALYGGRPMLAFLFLFTGGTGVLNASDAFHDTYYVVHFHYVLSMGAFSVAYYYWPGLYNLFWFNFPMHFLGGMPRRPYPDAGWNSGSSYQLGPDESNEPH'
p3990
sg123
F0.29926999999999998
sg124
g125
sg33
S'87'
p3991
sg127
g1
(g128
g12
(dp3992
g130
I4
sg131
g132
sg133
g134
sg135
g132
sg136
I01
sg34
g137
sg138
g134
sg139
I0
sg140
I0
sg141
I0
sg142
g134
sg35
g143
sg144
I0
stRp3993
sg146
g147
sg148
F1
sg149
Nsg30
S'NbaciA'
p3994
sbag1
(g2
g3
NtRp3995
(dp3996
g6
g1
(g7
g3
NtRp3997
(dp3998
g10
g1
(g11
g12
(dtRp3999
sg14
g1
(g11
g12
(dtRp4000
sg16
g1
(g11
g12
(dtRp4001
sg18
g1
(g11
g12
(dtRp4002
sg20
g1
(g11
g12
(dtRp4003
sg22
g1
(g11
g12
(dtRp4004
sbsg24
S'Cca'
p4005
sg26
g27
((lp4006
g29
ag30
aS'sequence'
p4007
ag32
ag33
aS'species'
p4008
atRp4009
sg37
(lp4010
sg120
g3961
sg121
S'RWLSTKDLYSRLELPGLNQNVHAMFVMPLGIGNPMGDTFPRLNNGFWLPPLSLEGAGTGWTVYPPLSHSGPSVDLAFHLTSSLLGAINFTNMRGPLFWTALLLFSLPVFAGTLLDRNFNTFEGGDPLYHVFWFFGHPEVYIIPGFGSHSTYKKFGMYASIGLGFVWSHHMYVGLDDRAYFTSALMIAPTGIKFSWLATFGGRPMLAFLFLFTGGTGVLNASDAFHDTYYVVHFHYVLSMGAFSLGYYYWPGLYNLFWFNFPMHFLGGMPRRPYPDAGWNSGSSYQLGPDESNEPH'
p4011
sg123
F0.26266
sg124
g125
sg33
S'141'
p4012
sg127
g1
(g128
g12
(dp4013
g130
I4
sg131
g132
sg133
g134
sg135
g132
sg136
I01
sg34
g137
sg138
g134
sg139
I0
sg140
I0
sg141
I0
sg142
g134
sg35
g143
sg144
I0
stRp4014
sg146
g147
sg148
F1
sg149
Nsg30
S'CcastA'
p4015
sbasg120
g3889
sg123
F0.15296999999999999
sg124
g125
sg33
S'102'
p4016
sg127
g1
(g128
g12
(dp4017
g130
I6
sg131
g132
sg133
g134
sg135
g132
sg136
I01
sg34
g174
sg138
g134
sg139
I0
sg140
I0
sg141
I0
sg142
g134
sg35
g175
sg144
I0
stRp4018
sg146
g147
sg148
F0.98999999999999999
sg149
Nsg30
S'NoName'
p4019
sbasg120
g3589
sg123
F0.042560000000000001
sg124
g125
sg33
S'64'
p4020
sg127
g1
(g128
g12
(dp4021
g130
I6
sg131
g132
sg133
g134
sg135
g132
sg136
I01
sg34
g174
sg138
g134
sg139
I0
sg140
I0
sg141
I0
sg142
g134
sg35
g175
sg144
I0
stRp4022
sg146
g147
sg148
F0.84999999999999998
sg149
Nsg30
S'NoName'
p4023
sbasg120
g3555
sg123
F0.094020000000000006
sg124
g125
sg33
S'61'
p4024
sg127
g1
(g128
g12
(dp4025
g130
I6
sg131
g132
sg133
g134
sg135
g132
sg136
I01
sg34
g174
sg138
g134
sg139
I0
sg140
I0
sg141
I0
sg142
g134
sg35
g175
sg144
I0
stRp4026
sg146
g147
sg148
F0.55000000000000004
sg149
Nsg30
S'NoName'
p4027
sbasg120
g3028
sg123
F0.11952
sg124
g125
sg33
S'55'
p4028
sg127
g1
(g128
g12
(dp4029
g130
I6
sg131
g132
sg133
g134
sg135
g132
sg136
I01
sg34
g174
sg138
g134
sg139
I0
sg140
I0
sg141
I0
sg142
g134
sg35
g175
sg144
I0
stRp4030
sg146
g147
sg148
F0.69999999999999996
sg149
Nsg30
S'NoName'
p4031
sbasg120
g3015
sg123
F0.029839999999999998
sg124
g125
sg33
S'66'
p4032
sg127
g1
(g128
g12
(dp4033
g130
I6
sg131
g132
sg133
g134
sg135
g132
sg136
I01
sg34
g174
sg138
g134
sg139
I0
sg140
I0
sg141
I0
sg142
g134
sg35
g175
sg144
I0
stRp4034
sg146
g147
sg148
F0.82999999999999996
sg149
Nsg30
S'NoName'
p4035
sbag1
(g2
g3
NtRp4036
(dp4037
g6
g1
(g7
g3
NtRp4038
(dp4039
g10
g1
(g11
g12
(dtRp4040
sg14
g1
(g11
g12
(dtRp4041
sg16
g1
(g11
g12
(dtRp4042
sg18
g1
(g11
g12
(dtRp4043
sg20
g1
(g11
g12
(dtRp4044
sg22
g1
(g11
g12
(dtRp4045
sbsg24
g25
sg26
g27
((lp4046
g33
ag32
ag29
ag30
atRp4047
sg37
(lp4048
g1
(g2
g3
NtRp4049
(dp4050
g6
g1
(g7
g3
NtRp4051
(dp4052
g10
g1
(g11
g12
(dtRp4053
sg14
g1
(g11
g12
(dtRp4054
sg16
g1
(g11
g12
(dtRp4055
sg18
g1
(g11
g12
(dtRp4056
sg20
g1
(g11
g12
(dtRp4057
sg22
g1
(g11
g12
(dtRp4058
sbsg24
S'Aac'
p4059
sg26
g27
((lp4060
g29
ag30
aS'sequence'
p4061
ag32
ag33
aS'species'
p4062
atRp4063
sg37
(lp4064
sg120
g4036
sg121
S'RWLSTKDLYSRMELPGLQQNVHLMFVMPLGFGNPMGDMFARLNNSFWLPPLSMEGLGTGWTVYPPLAHSGASVDLAFHLTSSLLGLINFTNMRGPLFWTAMLLMSLPVLAGTLLDRNFNTFEGGDPLYHLFWFFGHPEVYIIPLFGSHSTYKKFGMYASIGLGFVWSHHMYVGLDDRAYFTSLTMILPTSIKFSWLLTYGGRPMLAFLFLFTGGTGVLNLSDLFHDTYYVVHFHYVLSLGAFSMGYYYWPGLYNLFWFNFPMHFLGGMPRRPYPDLGWNSGSSYQLGPDESNEPH'
p4065
sg123
F0.028920000000000001
sg124
g125
sg33
S'20'
p4066
sg127
g1
(g128
g12
(dp4067
g130
I4
sg131
g132
sg133
g134
sg135
g132
sg136
I01
sg34
g137
sg138
g134
sg139
I0
sg140
I0
sg141
I0
sg142
g134
sg35
g143
sg144
I0
stRp4068
sg146
g147
sg148
F1
sg149
Nsg30
S'AacerA'
p4069
sbag1
(g2
g3
NtRp4070
(dp4071
g6
g1
(g7
g3
NtRp4072
(dp4073
g10
g1
(g11
g12
(dtRp4074
sg14
g1
(g11
g12
(dtRp4075
sg16
g1
(g11
g12
(dtRp4076
sg18
g1
(g11
g12
(dtRp4077
sg20
g1
(g11
g12
(dtRp4078
sg22
g1
(g11
g12
(dtRp4079
sbsg24
g25
sg26
g27
((lp4080
g33
ag32
ag29
ag30
atRp4081
sg37
(lp4082
g1
(g2
g3
NtRp4083
(dp4084
g6
g1
(g7
g3
NtRp4085
(dp4086
g10
g1
(g11
g12
(dtRp4087
sg14
g1
(g11
g12
(dtRp4088
sg16
g1
(g11
g12
(dtRp4089
sg18
g1
(g11
g12
(dtRp4090
sg20
g1
(g11
g12
(dtRp4091
sg22
g1
(g11
g12
(dtRp4092
sbsg24
S'Ago'
p4093
sg26
g27
((lp4094
g29
ag30
aS'sequence'
p4095
ag32
ag33
aS'species'
p4096
atRp4097
sg37
(lp4098
sg120
g4070
sg121
S'RWLSTKDLYSRMELPGLQQNVHLMFVMPLGFGNPMGDMFARLNNSFWLPPLSMEGLGTGWTVYPPLSHSGASVDLAFHLTSSLLGLINFTNMRGPLFWTAMLLMSLPVLAGTLLDRNFNTFEGGDPLYHLFWFFGHPEVYIIPLFGSHSTYKKFGMYLSISLGFVWSHHMYVGLDDRAYFTSATMILPTSIKFSWLLTYGGRPMLLFLFLFTGGTGVLNLSDAFHDTYYVVHFHYVLSLGAFSMGYYYWPGLYNLFWFNFPMHFLGGMPRRPYPDLGWNSGSSYQLGPDESNEPH'
p4099
sg123
F0.00088000000000000003
sg124
g125
sg33
S'128'
p4100
sg127
g1
(g128
g12
(dp4101
g130
I4
sg131
g132
sg133
g134
sg135
g132
sg136
I01
sg34
g137
sg138
g134
sg139
I0
sg140
I0
sg141
I0
sg142
g134
sg35
g143
sg144
I0
stRp4102
sg146
g147
sg148
F1
sg149
Nsg30
S'AgossB'
p4103
sbag1
(g2
g3
NtRp4104
(dp4105
g6
g1
(g7
g3
NtRp4106
(dp4107
g10
g1
(g11
g12
(dtRp4108
sg14
g1
(g11
g12
(dtRp4109
sg16
g1
(g11
g12
(dtRp4110
sg18
g1
(g11
g12
(dtRp4111
sg20
g1
(g11
g12
(dtRp4112
sg22
g1
(g11
g12
(dtRp4113
sbsg24
S'Ago'
p4114
sg26
g27
((lp4115
g29
ag30
aS'sequence'
p4116
ag32
ag33
aS'species'
p4117
atRp4118
sg37
(lp4119
sg120
g4070
sg121
S'RWLSTKDLYSRMELPGLQQNVHLMFVMPLGFGNPMGDMFARLNNSFWLPPLSMEGLGTGWTVYPPLSHSGASVDLAFHLTSSLLGLINFTNMRGPLFWTAMLLMSLPVLAGTLLDRNFNTFEGGDPLYHLFWFFGHPEVYIIPLFGSHSTYKKFGMYLSISLGFVWSHHMYVGLDDRAYFTSATMILPTSIKFSWLLTYGGRPMLLFLFLFTGGTGVLNLSDAFHDTYYVVHFHYVLSLGAFSMGYYYWPGLYNLFWFNFPMHFLGGMPRRPYPDLGWNSGSSYQLGPDESNEPH'
p4120
sg123
F0.0023999999999999998
sg124
g125
sg33
S'56'
p4121
sg127
g1
(g128
g12
(dp4122
g130
I4
sg131
g132
sg133
g134
sg135
g132
sg136
I01
sg34
g137
sg138
g134
sg139
I0
sg140
I0
sg141
I0
sg142
g134
sg35
g143
sg144
I0
stRp4123
sg146
g147
sg148
F1
sg149
Nsg30
S'AgossA'
p4124
sbasg120
g4036
sg123
F0.075329999999999994
sg124
g125
sg33
S'193'
p4125
sg127
g1
(g128
g12
(dp4126
g130
I6
sg131
g132
sg133
g134
sg135
g132
sg136
I01
sg34
g174
sg138
g134
sg139
I0
sg140
I0
sg141
I0
sg142
g134
sg35
g175
sg144
I0
stRp4127
sg146
g147
sg148
F0.98999999999999999
sg149
Nsg30
S'NoName'
p4128
sbasg120
g3015
sg123
F0.56830999999999998
sg124
g125
sg33
S'34'
p4129
sg127
g1
(g128
g12
(dp4130
g130
I6
sg131
g132
sg133
g134
sg135
g132
sg136
I01
sg34
g174
sg138
g134
sg139
I0
sg140
I0
sg141
I0
sg142
g134
sg35
g175
sg144
I0
stRp4131
sg146
g147
sg148
F0.98999999999999999
sg149
Nsg30
S'NoName'
p4132
sbasg120
g2677
sg123
F0.14305999999999999
sg124
g125
sg33
S'32'
p4133
sg127
g1
(g128
g12
(dp4134
g130
I6
sg131
g132
sg133
g134
sg135
g132
sg136
I01
sg34
g174
sg138
g134
sg139
I0
sg140
I0
sg141
I0
sg142
g134
sg35
g175
sg144
I0
stRp4135
sg146
g147
sg148
F0.96999999999999997
sg149
Nsg30
S'NoName'
p4136
sbasg120
g2493
sg123
F0.26834000000000002
sg124
g125
sg33
S'46'
p4137
sg127
g1
(g128
g12
(dp4138
g130
I6
sg131
g132
sg133
g134
sg135
g132
sg136
I01
sg34
g174
sg138
g134
sg139
I0
sg140
I0
sg141
I0
sg142
g134
sg35
g175
sg144
I0
stRp4139
sg146
g147
sg148
F0.97999999999999998
sg149
Nsg30
S'NoName'
p4140
sbasg120
g674
sg123
F0.062890000000000001
sg124
g125
sg33
S'168'
p4141
sg127
g1
(g128
g12
(dp4142
g130
I6
sg131
g132
sg133
g134
sg135
g132
sg136
I01
sg34
g174
sg138
g134
sg139
I0
sg140
I0
sg141
I0
sg142
g134
sg35
g175
sg144
I0
stRp4143
sg146
g147
sg148
F0.67000000000000004
sg149
Nsg30
S'NoName'
p4144
sbasg120
g266
sg123
F0.52025999999999994
sg124
g125
sg33
S'21'
p4145
sg127
g1
(g128
g12
(dp4146
g130
I6
sg131
g132
sg133
g134
sg135
g132
sg136
I01
sg34
g174
sg138
g134
sg139
I0
sg140
I0
sg141
I0
sg142
g134
sg35
g175
sg144
I0
stRp4147
sg146
g147
sg148
F0.97999999999999998
sg149
Nsg30
S'NoName'
p4148
sbasg120
g52
sg123
F0.11274000000000001
sg124
g125
sg33
S'98'
p4149
sg127
g1
(g128
g12
(dp4150
g130
I6
sg131
g132
sg133
g134
sg135
g132
sg136
I01
sg34
g174
sg138
g134
sg139
I0
sg140
I0
sg141
I0
sg142
g134
sg35
g175
sg144
I0
stRp4151
sg146
g147
sg148
F0.88
sg149
Nsg30
S'NoName'
p4152
sbasg120
g39
sg123
F0.33485999999999999
sg124
g125
sg33
S'83'
p4153
sg127
g1
(g128
g12
(dp4154
g130
I6
sg131
g132
sg133
g134
sg135
g132
sg136
I01
sg34
g174
sg138
g134
sg139
I0
sg140
I0
sg141
I0
sg142
g134
sg35
g175
sg144
I0
stRp4155
sg146
g147
sg148
F0.95999999999999996
sg149
Nsg30
S'NoName'
p4156
sbag1
(g2
g3
NtRp4157
(dp4158
g6
g1
(g7
g3
NtRp4159
(dp4160
g10
g1
(g11
g12
(dtRp4161
sg14
g1
(g11
g12
(dtRp4162
sg16
g1
(g11
g12
(dtRp4163
sg18
g1
(g11
g12
(dtRp4164
sg20
g1
(g11
g12
(dtRp4165
sg22
g1
(g11
g12
(dtRp4166
sbsg24
S'Lst'
p4167
sg26
g27
((lp4168
g29
ag30
aS'sequence'
p4169
ag32
ag33
aS'species'
p4170
atRp4171
sg37
(lp4172
sg120
g39
sg121
S'RWLSTKDLYSRMELPGLNHNVHAMFVMPLGFGNPLGDMFPRLNNSFWLPPLSFEGAGTGWTVYPPLSHSGASVDLAFHLSSSMLGAMNFTNMRGPLFWTALLLLSLPVLGATLLDRNFNTFEGGDPLYHLFWFFGHPEVYIIPGFGSHCTYEKFGMYASMGLGFVWSHHMFVGLDERAYFTAATMIAPTGMKFSWLATYGGTPMVAFLFLFTGGTGVLNASDAFHDTYYVVHFHYVLSMGAFALGYYYWPGLYKYFWFNFPMHFLGGMPRRPYPDAGWNSGSAIQLGPQATKEPH'
p4173
sg123
F1.13117
sg124
g125
sg33
S'110'
p4174
sg127
g1
(g128
g12
(dp4175
g130
I4
sg131
g132
sg133
g134
sg135
g132
sg136
I01
sg34
g137
sg138
g134
sg139
I0
sg140
I0
sg141
I0
sg142
g134
sg35
g143
sg144
I0
stRp4176
sg146
g147
sg148
F1
sg149
Nsg30
S'LstarA'
p4177
sbasg120
g4
sg123
F0.46844999999999998
sg124
g125
sg33
S'81'
p4178
sg127
g1
(g128
g12
(dp4179
g130
I6
sg131
g132
sg133
g134
sg135
g132
sg136
I01
sg34
g174
sg138
g134
sg139
I0
sg140
I0
sg141
I0
sg142
g134
sg35
g175
sg144
I0
stRp4180
sg146
g147
sg148
F1
sg149
Nsg30
S'NoName'
p4181
sbag1
(g2
g3
NtRp4182
(dp4183
g6
g1
(g7
g3
NtRp4184
(dp4185
g10
g1
(g11
g12
(dtRp4186
sg14
g1
(g11
g12
(dtRp4187
sg16
g1
(g11
g12
(dtRp4188
sg18
g1
(g11
g12
(dtRp4189
sg20
g1
(g11
g12
(dtRp4190
sg22
g1
(g11
g12
(dtRp4191
sbsg24
g25
sg26
g27
((lp4192
g33
ag32
ag29
ag30
atRp4193
sg37
(lp4194
g1
(g2
g3
NtRp4195
(dp4196
g6
g1
(g7
g3
NtRp4197
(dp4198
g10
g1
(g11
g12
(dtRp4199
sg14
g1
(g11
g12
(dtRp4200
sg16
g1
(g11
g12
(dtRp4201
sg18
g1
(g11
g12
(dtRp4202
sg20
g1
(g11
g12
(dtRp4203
sg22
g1
(g11
g12
(dtRp4204
sbsg24
S'Sja'
p4205
sg26
g27
((lp4206
g29
ag30
aS'sequence'
p4207
ag32
ag33
aS'species'
p4208
atRp4209
sg37
(lp4210
sg120
g4182
sg121
S'RWLSTKDLYSRLELPGLNQNVHGMFILPLGFGNPLGDVYPRMNNSFWLPPLSLEGPGVGWTMYYPLSHSGLSVDLLMQLTSSTLGSINLTNMRGPLFWTSLLVLTLPVLGGILLDRNWNTFAGGDPLYHLFWFFGHPEVYIIPAFGSHSTFHKFGMYASIALGCVWSHHLYVGLDDRAYFTAATMIAPTGIKFSWLATSGGEPMLVFLILFTGGTGVLNSVDAFHDTYFVVHFHYVLSMGAMGLAYYFWPGLYNMFWFNFPQHFLGNYPRRPYPDAGWNSGSSYQFNPNDSNEPH'
p4211
sg123
F1.0686599999999999
sg124
g125
sg33
S'215'
p4212
sg127
g1
(g128
g12
(dp4213
g130
I4
sg131
g132
sg133
g134
sg135
g132
sg136
I01
sg34
g137
sg138
g134
sg139
I0
sg140
I0
sg141
I0
sg142
g134
sg35
g143
sg144
I0
stRp4214
sg146
g147
sg148
F1
sg149
Nsg30
S'SjapoA'
p4215
sbag1
(g2
g3
NtRp4216
(dp4217
g6
g1
(g7
g3
NtRp4218
(dp4219
g10
g1
(g11
g12
(dtRp4220
sg14
g1
(g11
g12
(dtRp4221
sg16
g1
(g11
g12
(dtRp4222
sg18
g1
(g11
g12
(dtRp4223
sg20
g1
(g11
g12
(dtRp4224
sg22
g1
(g11
g12
(dtRp4225
sbsg24
g25
sg26
g27
((lp4226
g33
ag32
ag29
ag30
atRp4227
sg37
(lp4228
g1
(g2
g3
NtRp4229
(dp4230
g6
g1
(g7
g3
NtRp4231
(dp4232
g10
g1
(g11
g12
(dtRp4233
sg14
g1
(g11
g12
(dtRp4234
sg16
g1
(g11
g12
(dtRp4235
sg18
g1
(g11
g12
(dtRp4236
sg20
g1
(g11
g12
(dtRp4237
sg22
g1
(g11
g12
(dtRp4238
sbsg24
S'Spo'
p4239
sg26
g27
((lp4240
g29
ag30
aS'sequence'
p4241
ag32
ag33
aS'species'
p4242
atRp4243
sg37
(lp4244
sg120
g4216
sg121
S'RWMSTKDLYSRMELPGLNQNVHGMFIIPLGFGNPMGDVYPRVNNTFWLPPLSLEGPGGGWTVYPPLSHSGPAIDLALQLTSSTLGSVNLTNMRGPLFWTSLLLLTLPVLGGFLFDRNLNTFAGGDPLYHLFWFFGHPEVYIIPAFGSHPSLHKFGMWASIALGLVWSHHLFVGLDDRAYFSAATMIAPTGIKFSWLATTGGQPMLAFLILFTGGTGVLNSVDAFHDTYFVVHFHYVLSMGAFGLAYY-WPGLYNLFWFNFPQHFLGGMPRRPYPEAGWNSGSSYQFNPSDDNEPH'
p4245
sg123
F0.12372
sg124
g125
sg33
S'94'
p4246
sg127
g1
(g128
g12
(dp4247
g130
I4
sg131
g132
sg133
g134
sg135
g132
sg136
I01
sg34
g137
sg138
g134
sg139
I0
sg140
I0
sg141
I0
sg142
g134
sg35
g143
sg144
I0
stRp4248
sg146
g147
sg148
F1
sg149
Nsg30
S'SpombA'
p4249
sbag1
(g2
g3
NtRp4250
(dp4251
g6
g1
(g7
g3
NtRp4252
(dp4253
g10
g1
(g11
g12
(dtRp4254
sg14
g1
(g11
g12
(dtRp4255
sg16
g1
(g11
g12
(dtRp4256
sg18
g1
(g11
g12
(dtRp4257
sg20
g1
(g11
g12
(dtRp4258
sg22
g1
(g11
g12
(dtRp4259
sbsg24
g25
sg26
g27
((lp4260
g33
ag32
ag29
ag30
atRp4261
sg37
(lp4262
g1
(g2
g3
NtRp4263
(dp4264
g6
g1
(g7
g3
NtRp4265
(dp4266
g10
g1
(g11
g12
(dtRp4267
sg14
g1
(g11
g12
(dtRp4268
sg16
g1
(g11
g12
(dtRp4269
sg18
g1
(g11
g12
(dtRp4270
sg20
g1
(g11
g12
(dtRp4271
sg22
g1
(g11
g12
(dtRp4272
sbsg24
S'Soc'
p4273
sg26
g27
((lp4274
g29
ag30
aS'sequence'
p4275
ag32
ag33
aS'species'
p4276
atRp4277
sg37
(lp4278
sg120
g4250
sg121
S'RWLSTKDLYSRMELPGLNQNVHGMFIIPLGFGNPMGDVYPRVNNTFWLPPLSLEGPGTGWTVYPPLSHSGPAVDLALQLTSSTLGSLNLTNMRGPLFWTSLLLLTLPVLGGFLFDRNLNTFAGGDPLYHLFWFFGHPEVYIIPAFGSHSTLNKFGMCASIALGLVWSHHLFVGLDDRAYFSAATMIAPTGIKFSWLATTGGQPMLAFLILFTGGTGVLNSVDAFHDTYFVVHFHYVLSMGAFGLAYYFWPGLYNLFWFNFPQHFLGGMPRRPYPDAGWNSGSSYQYNPSDDNEPH'
p4279
sg123
F0.03637
sg124
g125
sg33
S'59'
p4280
sg127
g1
(g128
g12
(dp4281
g130
I4
sg131
g132
sg133
g134
sg135
g132
sg136
I01
sg34
g137
sg138
g134
sg139
I0
sg140
I0
sg141
I0
sg142
g134
sg35
g143
sg144
I0
stRp4282
sg146
g147
sg148
F1
sg149
Nsg30
S'SoctoA'
p4283
sbag1
(g2
g3
NtRp4284
(dp4285
g6
g1
(g7
g3
NtRp4286
(dp4287
g10
g1
(g11
g12
(dtRp4288
sg14
g1
(g11
g12
(dtRp4289
sg16
g1
(g11
g12
(dtRp4290
sg18
g1
(g11
g12
(dtRp4291
sg20
g1
(g11
g12
(dtRp4292
sg22
g1
(g11
g12
(dtRp4293
sbsg24
S'Scr'
p4294
sg26
g27
((lp4295
g29
ag30
aS'sequence'
p4296
ag32
ag33
aS'species'
p4297
atRp4298
sg37
(lp4299
sg120
g4250
sg121
S'RWLSTKDLYSRMELPGLNQNVHGMFIIPLGFGNPMGDVYPRVNNTYWLPPLSLEGPGTGWTVYPPLSHSGPSVDLALQLTSSTLGSLNLTNMRGPLFWTSLLLLTLPVLGGFLFDRNLNTFAGGDPLYHLFWFFGHPEVYIIPAFGSHPTLNKFGMCASIALGLVWSHHLFVGLDDRAYFSAATMIAPTGIKFSWLATTGGQPMLAFLILFTGGTGVLNSVDAFHDTYFVVHFHYVLSMGAFGLAYYFWPGLYNLFWFNFPQHFLGGMPRRPYPDAGWNSGSSYQYNPSDDNEPH'
p4300
sg123
F0.036740000000000002
sg124
g125
sg33
S'26'
p4301
sg127
g1
(g128
g12
(dp4302
g130
I4
sg131
g132
sg133
g134
sg135
g132
sg136
I01
sg34
g137
sg138
g134
sg139
I0
sg140
I0
sg141
I0
sg142
g134
sg35
g143
sg144
I0
stRp4303
sg146
g147
sg148
F1
sg149
Nsg30
S'ScryoA'
p4304
sbasg120
g4216
sg123
F0.18453
sg124
g125
sg33
S'41'
p4305
sg127
g1
(g128
g12
(dp4306
g130
I6
sg131
g132
sg133
g134
sg135
g132
sg136
I01
sg34
g174
sg138
g134
sg139
I0
sg140
I0
sg141
I0
sg142
g134
sg35
g175
sg144
I0
stRp4307
sg146
g147
sg148
F0.98999999999999999
sg149
Nsg30
S'NoName'
p4308
sbasg120
g4182
sg123
F0.73307
sg124
g125
sg33
S'163'
p4309
sg127
g1
(g128
g12
(dp4310
g130
I6
sg131
g132
sg133
g134
sg135
g132
sg136
I01
sg34
g174
sg138
g134
sg139
I0
sg140
I0
sg141
I0
sg142
g134
sg35
g175
sg144
I0
stRp4311
sg146
g147
sg148
F0.98999999999999999
sg149
Nsg30
S'NoName'
p4312
sbasg120
g4
sg123
F1.7741899999999999
sg124
g125
sg33
S'74'
p4313
sg127
g1
(g128
g12
(dp4314
g130
I6
sg131
g132
sg133
g134
sg135
g132
sg136
I01
sg34
g174
sg138
g134
sg139
I0
sg140
I0
sg141
I0
sg142
g134
sg35
g175
sg144
I0
stRp4315
sg146
g147
sg148
F1
sg149
Nsg30
S'NoName'
p4316
sbasg31
S'8'
sg120
Nsg123
F0
sg124
g125
sg33
S'197'
p4317
sg34
S'sphere'
p4318
sg127
g1
(g128
g12
(dp4319
g130
I6
sg131
g132
sg133
g134
sg135
g132
sg136
I01
sg34
g174
sg138
g134
sg139
I0
sg140
I0
sg141
I0
sg142
g134
sg35
g175
sg144
I0
stRp4320
sg146
g147
sg148
F1
sg149
Nsg35
S'#833DB4'
p4321
sg30
g125
sb.