ccopy_reg
_reconstructor
p1
(cete2.phylo.phylotree
PhyloNode
p2
c__builtin__
object
p3
NtRp4
(dp5
S'_faces'
p6
g1
(cete2.treeview.main
_FaceAreas
p7
g3
NtRp8
(dp9
S'branch-top'
p10
g1
(cete2.treeview.main
FaceContainer
p11
c__builtin__
dict
p12
(dtRp13
sS'float'
p14
g1
(g11
g12
(dtRp15
sS'branch-bottom'
p16
g1
(g11
g12
(dtRp17
sS'aligned'
p18
g1
(g11
g12
(dtRp19
sS'branch-right'
p20
g1
(g11
g12
(dtRp21
sS'float-behind'
p22
g1
(g11
g12
(dtRp23
sbsS'_species'
p24
S'Unknown'
p25
sS'features'
p26
c__builtin__
set
p27
((lp28
S'dist'
p29
aS'name'
p30
aS'bsize'
p31
aS'support'
p32
aS'_nid'
p33
aS'shape'
p34
aS'fgcolor'
p35
atRp36
sS'_children'
p37
(lp38
g1
(g2
g3
NtRp39
(dp40
g6
g1
(g7
g3
NtRp41
(dp42
g10
g1
(g11
g12
(dtRp43
sg14
g1
(g11
g12
(dtRp44
sg16
g1
(g11
g12
(dtRp45
sg18
g1
(g11
g12
(dtRp46
sg20
g1
(g11
g12
(dtRp47
sg22
g1
(g11
g12
(dtRp48
sbsg24
g25
sg26
g27
((lp49
g33
ag32
ag29
ag30
atRp50
sg37
(lp51
g1
(g2
g3
NtRp52
(dp53
g6
g1
(g7
g3
NtRp54
(dp55
g10
g1
(g11
g12
(dtRp56
sg14
g1
(g11
g12
(dtRp57
sg16
g1
(g11
g12
(dtRp58
sg18
g1
(g11
g12
(dtRp59
sg20
g1
(g11
g12
(dtRp60
sg22
g1
(g11
g12
(dtRp61
sbsg24
g25
sg26
g27
((lp62
g33
ag32
ag29
ag30
atRp63
sg37
(lp64
g1
(g2
g3
NtRp65
(dp66
g6
g1
(g7
g3
NtRp67
(dp68
g10
g1
(g11
g12
(dtRp69
sg14
g1
(g11
g12
(dtRp70
sg16
g1
(g11
g12
(dtRp71
sg18
g1
(g11
g12
(dtRp72
sg20
g1
(g11
g12
(dtRp73
sg22
g1
(g11
g12
(dtRp74
sbsg24
g25
sg26
g27
((lp75
g33
ag32
ag29
ag30
atRp76
sg37
(lp77
g1
(g2
g3
NtRp78
(dp79
g6
g1
(g7
g3
NtRp80
(dp81
g10
g1
(g11
g12
(dtRp82
sg14
g1
(g11
g12
(dtRp83
sg16
g1
(g11
g12
(dtRp84
sg18
g1
(g11
g12
(dtRp85
sg20
g1
(g11
g12
(dtRp86
sg22
g1
(g11
g12
(dtRp87
sbsg24
g25
sg26
g27
((lp88
g33
ag32
ag29
ag30
atRp89
sg37
(lp90
g1
(g2
g3
NtRp91
(dp92
g6
g1
(g7
g3
NtRp93
(dp94
g10
g1
(g11
g12
(dtRp95
sg14
g1
(g11
g12
(dtRp96
sg16
g1
(g11
g12
(dtRp97
sg18
g1
(g11
g12
(dtRp98
sg20
g1
(g11
g12
(dtRp99
sg22
g1
(g11
g12
(dtRp100
sbsg24
g25
sg26
g27
((lp101
g33
ag32
ag29
ag30
atRp102
sg37
(lp103
g1
(g2
g3
NtRp104
(dp105
g6
g1
(g7
g3
NtRp106
(dp107
g10
g1
(g11
g12
(dtRp108
sg14
g1
(g11
g12
(dtRp109
sg16
g1
(g11
g12
(dtRp110
sg18
g1
(g11
g12
(dtRp111
sg20
g1
(g11
g12
(dtRp112
sg22
g1
(g11
g12
(dtRp113
sbsg24
S'Yli'
p114
sg26
g27
((lp115
g29
ag30
aS'sequence'
p116
ag32
ag33
aS'species'
p117
atRp118
sg37
(lp119
sS'_up'
p120
g91
sS'sequence'
p121
S'RWLSTKDLYSRLELTGLNQNVHAMFVMPLGFGNPMGDMFARLNNSFWLVPLSLEGAGTGWTVYFPLAHSGPAVDLAFHLSSSLLGAINFTNMRGPLFWTALLLLSLPVLAGTGIDRNFNTFEGGDALYHLFWFFGHPEVYIIPGFGSHSAISKFGMYASIGLGFVWSHHMFVGLDDRAYFTSATMIAPTSIKFSWLATYGGRTALAFIFLFTGGTGVLNSADPFHDSYYVVHFHYVLSMGAFSIGWYLWPGLYNLFWFNFPMHFLGGMPRRNYPDAGWNSGSAYQLGPSGTNEPH'
p122
sS'_dist'
p123
F0.00011
sS'_name'
p124
S'NoName'
p125
sg33
S'206'
p126
sS'_img_style'
p127
g1
(cete2.treeview.main
NodeStyle
p128
g12
(dp129
S'size'
p130
I4
sS'hz_line_color'
p131
S'#000000'
p132
sS'faces_bgcolor'
p133
S'#FFFFFF'
p134
sS'vt_line_color'
p135
g132
sS'draw_descendants'
p136
I01
sg34
S'square'
p137
sS'bgcolor'
p138
g134
sS'hz_line_type'
p139
I0
sS'vt_line_width'
p140
I0
sS'vt_line_type'
p141
I0
sS'node_bgcolor'
p142
g134
sg35
S'#000000'
p143
sS'hz_line_width'
p144
I0
stRp145
sS'_speciesFunction'
p146
cete2.phylo.phylotree
_parse_species
p147
sS'_support'
p148
F1
sS'_temp_faces'
p149
Nsg30
S'YlipoB'
p150
sbag1
(g2
g3
NtRp151
(dp152
g6
g1
(g7
g3
NtRp153
(dp154
g10
g1
(g11
g12
(dtRp155
sg14
g1
(g11
g12
(dtRp156
sg16
g1
(g11
g12
(dtRp157
sg18
g1
(g11
g12
(dtRp158
sg20
g1
(g11
g12
(dtRp159
sg22
g1
(g11
g12
(dtRp160
sbsg24
S'Yli'
p161
sg26
g27
((lp162
g29
ag30
aS'sequence'
p163
ag32
ag33
aS'species'
p164
atRp165
sg37
(lp166
sg120
g91
sg121
S'RWLSTKDLYSRLELTGLNQNVHAMFVMPLGFGNPMGDMFARLNNSFWLVPLSLEGAGTGWTVYFPLAHSGPAVDLAFHLSSSLLGAINFTNMRGPLFWTALLLLSLPVLAGTGIDRNFNTFEGGDALYHLFWFFGHPEVYIIPGFGSHSAISKFGMYASIGLGFVWSHHMFVGLDDRAYFTSATMIAPTSIKFSWLATYGGRTALAFIFLFTGGTGVLNSADPFHDSYYVVHFHYVLSMGAFSIGWYLWPGLYNLFWFNFPMHFLGGMPRRNYPDAGWNSGSAYQLGPSGTNEPH'
p167
sg123
F0.00048000000000000001
sg124
g125
sg33
S'209'
p168
sg127
g1
(g128
g12
(dp169
g130
I4
sg131
g132
sg133
g134
sg135
g132
sg136
I01
sg34
g137
sg138
g134
sg139
I0
sg140
I0
sg141
I0
sg142
g134
sg35
g143
sg144
I0
stRp170
sg146
g147
sg148
F1
sg149
Nsg30
S'YlipoA'
p171
sbasg120
g78
sg123
F0.02656
sg124
g125
sg33
S'208'
p172
sg127
g1
(g128
g12
(dp173
g130
I6
sg131
g132
sg133
g134
sg135
g132
sg136
I01
sg34
S'circle'
p174
sg138
g134
sg139
I0
sg140
I0
sg141
I0
sg142
g134
sg35
S'#0030c1'
p175
sg144
I0
stRp176
sg146
g147
sg148
F1
sg149
Nsg30
S'NoName'
p177
sbag1
(g2
g3
NtRp178
(dp179
g6
g1
(g7
g3
NtRp180
(dp181
g10
g1
(g11
g12
(dtRp182
sg14
g1
(g11
g12
(dtRp183
sg16
g1
(g11
g12
(dtRp184
sg18
g1
(g11
g12
(dtRp185
sg20
g1
(g11
g12
(dtRp186
sg22
g1
(g11
g12
(dtRp187
sbsg24
g25
sg26
g27
((lp188
g33
ag32
ag29
ag30
atRp189
sg37
(lp190
g1
(g2
g3
NtRp191
(dp192
g6
g1
(g7
g3
NtRp193
(dp194
g10
g1
(g11
g12
(dtRp195
sg14
g1
(g11
g12
(dtRp196
sg16
g1
(g11
g12
(dtRp197
sg18
g1
(g11
g12
(dtRp198
sg20
g1
(g11
g12
(dtRp199
sg22
g1
(g11
g12
(dtRp200
sbsg24
S'Cga'
p201
sg26
g27
((lp202
g29
ag30
aS'sequence'
p203
ag32
ag33
aS'species'
p204
atRp205
sg37
(lp206
sg120
g178
sg121
S'RWLSTKDLYSRLELTGLNQNVHAMFVMPLGFGNPMGDMFARLNNSFWLVPLSLEGAGTGWTVYFPLAHSGPAVDLAFHLSSSLLGAINFTNMRGPLFWTALLLLSLPVLAGTGIDRNFNTFEGGDALYHLFWFFGHPEVYIIPGFGSHSAISKFGMYASIGLGFVWSHHMFVGLDDRAYFTSATMIAPTSIKFSWLSTYGGRTALAFIFLFTGGTGVLNSADPFHDSYYVVHFHYVLSMGAFSIGWYLWPGLYNLFWFNFPMHFLGGMPRRNYPDAGWNSGSAYQLGPSGTNEPH'
p207
sg123
F0.016299999999999999
sg124
g125
sg33
S'212'
p208
sg127
g1
(g128
g12
(dp209
g130
I4
sg131
g132
sg133
g134
sg135
g132
sg136
I01
sg34
g137
sg138
g134
sg139
I0
sg140
I0
sg141
I0
sg142
g134
sg35
g143
sg144
I0
stRp210
sg146
g147
sg148
F1
sg149
Nsg30
S'CgallA'
p211
sbag1
(g2
g3
NtRp212
(dp213
g6
g1
(g7
g3
NtRp214
(dp215
g10
g1
(g11
g12
(dtRp216
sg14
g1
(g11
g12
(dtRp217
sg16
g1
(g11
g12
(dtRp218
sg18
g1
(g11
g12
(dtRp219
sg20
g1
(g11
g12
(dtRp220
sg22
g1
(g11
g12
(dtRp221
sbsg24
S'Cde'
p222
sg26
g27
((lp223
g29
ag30
aS'sequence'
p224
ag32
ag33
aS'species'
p225
atRp226
sg37
(lp227
sg120
g178
sg121
S'RWLSTKDLYSRLELTGLNQNVHAMFVMPLGFGNPMGDMFARLNNSFWLVPLSLEGAGTGWTVYFPLAHSGPAVDLAFHLSSSLLGAINFTNMRGPLFWTALLLLSLPVLAGTGIDRNFNTFEGGDALYHLFFFNGHPEVYIIPGFGSHSAISKFGMYASIGLGFVWSHHMFVGLDDRAYFTSATMIAPTSIKFSWLATYGGRTALAFIFLFTGGTGVLNSADPFHDSYYVVHFHYVLSMGAFSIGWYLWPGLYNLFWFNFPMHFLGGMPRRNYPDAGWNSGSAYQLGPSGTNEPH'
p228
sg123
F0.018610000000000002
sg124
g125
sg33
S'214'
p229
sg127
g1
(g128
g12
(dp230
g130
I4
sg131
g132
sg133
g134
sg135
g132
sg136
I01
sg34
g137
sg138
g134
sg139
I0
sg140
I0
sg141
I0
sg142
g134
sg35
g143
sg144
I0
stRp231
sg146
g147
sg148
F1
sg149
Nsg30
S'CdefoA'
p232
sbasg120
g78
sg123
F0.00282
sg124
g125
sg33
S'205'
p233
sg127
g1
(g128
g12
(dp234
g130
I6
sg131
g132
sg133
g134
sg135
g132
sg136
I01
sg34
g174
sg138
g134
sg139
I0
sg140
I0
sg141
I0
sg142
g134
sg35
g175
sg144
I0
stRp235
sg146
g147
sg148
F0.96999999999999997
sg149
Nsg30
S'NoName'
p236
sbasg120
g65
sg123
F0.00479
sg124
g125
sg33
S'211'
p237
sg127
g1
(g128
g12
(dp238
g130
I6
sg131
g132
sg133
g134
sg135
g132
sg136
I01
sg34
g174
sg138
g134
sg139
I0
sg140
I0
sg141
I0
sg142
g134
sg35
g175
sg144
I0
stRp239
sg146
g147
sg148
F0.80000000000000004
sg149
Nsg30
S'NoName'
p240
sbag1
(g2
g3
NtRp241
(dp242
g6
g1
(g7
g3
NtRp243
(dp244
g10
g1
(g11
g12
(dtRp245
sg14
g1
(g11
g12
(dtRp246
sg16
g1
(g11
g12
(dtRp247
sg18
g1
(g11
g12
(dtRp248
sg20
g1
(g11
g12
(dtRp249
sg22
g1
(g11
g12
(dtRp250
sbsg24
S'Cal'
p251
sg26
g27
((lp252
g29
ag30
aS'sequence'
p253
ag32
ag33
aS'species'
p254
atRp255
sg37
(lp256
sg120
g65
sg121
S'RWLSTKDLYSRLELTGLNQNVHAMFVMPLGFGNPMGDMFARLNNSFWLVPMSLEGAGTGWTVYFPLAHSGPAVDLAFHLASSLLGAINFTNMRGPLFWTALLLLSLPVLAGTGIDRNFNTFEGGDALYHLFWFFGHPEVYIIPGFGSHSAISKFGMYASIGLGFVWSHHMFVGLDDRAYFTSATMIAPTSIKFSWLATYGGRTALAFIFLFTGGTGVLNSADPFHDSYYVVHFHYVLSMGAFSIGWYLWPGLYNLFWFNFPMHFLGGMPRRNYPDAGWNSGSAYQLGPSGTNEPH'
p257
sg123
F0.035970000000000002
sg124
g125
sg33
S'215'
p258
sg127
g1
(g128
g12
(dp259
g130
I4
sg131
g132
sg133
g134
sg135
g132
sg136
I01
sg34
g137
sg138
g134
sg139
I0
sg140
I0
sg141
I0
sg142
g134
sg35
g143
sg144
I0
stRp260
sg146
g147
sg148
F1
sg149
Nsg30
S'CalimA'
p261
sbasg120
g52
sg123
F1.1444799999999999
sg124
g125
sg33
S'203'
p262
sg127
g1
(g128
g12
(dp263
g130
I6
sg131
g132
sg133
g134
sg135
g132
sg136
I01
sg34
g174
sg138
g134
sg139
I0
sg140
I0
sg141
I0
sg142
g134
sg35
g175
sg144
I0
stRp264
sg146
g147
sg148
F0.97999999999999998
sg149
Nsg30
S'NoName'
p265
sbag1
(g2
g3
NtRp266
(dp267
g6
g1
(g7
g3
NtRp268
(dp269
g10
g1
(g11
g12
(dtRp270
sg14
g1
(g11
g12
(dtRp271
sg16
g1
(g11
g12
(dtRp272
sg18
g1
(g11
g12
(dtRp273
sg20
g1
(g11
g12
(dtRp274
sg22
g1
(g11
g12
(dtRp275
sbsg24
g25
sg26
g27
((lp276
g33
ag32
ag29
ag30
atRp277
sg37
(lp278
g1
(g2
g3
NtRp279
(dp280
g6
g1
(g7
g3
NtRp281
(dp282
g10
g1
(g11
g12
(dtRp283
sg14
g1
(g11
g12
(dtRp284
sg16
g1
(g11
g12
(dtRp285
sg18
g1
(g11
g12
(dtRp286
sg20
g1
(g11
g12
(dtRp287
sg22
g1
(g11
g12
(dtRp288
sbsg24
g25
sg26
g27
((lp289
g33
ag32
ag29
ag30
atRp290
sg37
(lp291
g1
(g2
g3
NtRp292
(dp293
g6
g1
(g7
g3
NtRp294
(dp295
g10
g1
(g11
g12
(dtRp296
sg14
g1
(g11
g12
(dtRp297
sg16
g1
(g11
g12
(dtRp298
sg18
g1
(g11
g12
(dtRp299
sg20
g1
(g11
g12
(dtRp300
sg22
g1
(g11
g12
(dtRp301
sbsg24
g25
sg26
g27
((lp302
g33
ag32
ag29
ag30
atRp303
sg37
(lp304
g1
(g2
g3
NtRp305
(dp306
g6
g1
(g7
g3
NtRp307
(dp308
g10
g1
(g11
g12
(dtRp309
sg14
g1
(g11
g12
(dtRp310
sg16
g1
(g11
g12
(dtRp311
sg18
g1
(g11
g12
(dtRp312
sg20
g1
(g11
g12
(dtRp313
sg22
g1
(g11
g12
(dtRp314
sbsg24
g25
sg26
g27
((lp315
g33
ag32
ag29
ag30
atRp316
sg37
(lp317
g1
(g2
g3
NtRp318
(dp319
g6
g1
(g7
g3
NtRp320
(dp321
g10
g1
(g11
g12
(dtRp322
sg14
g1
(g11
g12
(dtRp323
sg16
g1
(g11
g12
(dtRp324
sg18
g1
(g11
g12
(dtRp325
sg20
g1
(g11
g12
(dtRp326
sg22
g1
(g11
g12
(dtRp327
sbsg24
S'Mst'
p328
sg26
g27
((lp329
g29
ag30
aS'sequence'
p330
ag32
ag33
aS'species'
p331
atRp332
sg37
(lp333
sg120
g305
sg121
S'RWLSTKDLYSRLELPTLNQNVHAMFVMPSGFGNPMGDMLARLNNSFWLVPVSLEGAGTGWTVYPPLSHSGASVDLVFHMSSSLLGAINFTNMRGTLFWTALLLLSLPVLSGTLLDRNFNTFEGGDPLYHLFWFFGHPEVYIIPGFGSHSTYKKFGMYASMGLGFVWSHHMYVGLDDRAYFTSATMMAPTGVKFSWLATYGGRPFLAFMFLFTGGTGVLNASDAFHDTYYVVHFHYVLSLGAFSLGYYFWPGLYNLFMFNFPLHFLGGMPRRPYPDAGWNSGSSYQLGPDESNEPH'
p334
sg123
F0.087190000000000004
sg124
g125
sg33
S'186'
p335
sg127
g1
(g128
g12
(dp336
g130
I4
sg131
g132
sg133
g134
sg135
g132
sg136
I01
sg34
g137
sg138
g134
sg139
I0
sg140
I0
sg141
I0
sg142
g134
sg35
g143
sg144
I0
stRp337
sg146
g147
sg148
F1
sg149
Nsg30
S'MstarA'
p338
sbag1
(g2
g3
NtRp339
(dp340
g6
g1
(g7
g3
NtRp341
(dp342
g10
g1
(g11
g12
(dtRp343
sg14
g1
(g11
g12
(dtRp344
sg16
g1
(g11
g12
(dtRp345
sg18
g1
(g11
g12
(dtRp346
sg20
g1
(g11
g12
(dtRp347
sg22
g1
(g11
g12
(dtRp348
sbsg24
S'Min'
p349
sg26
g27
((lp350
g29
ag30
aS'sequence'
p351
ag32
ag33
aS'species'
p352
atRp353
sg37
(lp354
sg120
g305
sg121
S'RWLSTKDLYSRLELPTLNQNVHAMFVMPAGFGNPMGDMLARLNNSFWLVPVSLEGAGTGWTVYPPLSHSGPSVDLVFHISSSLLGSMNFTNMRGTLFWTSLLLLSLPVLSGTLLDRNFNTFEGGDPLYHLFYKMMLFSMYMMPGFGSHSAYKKFGMYASIGLGFVWSHHMYVGLDDRAYFTSATMIAPTGVKFSWLATYGGRPFLAFMFLFTGGTGVLNASDAFHDTYYVVHFHYVLSLGAFSLGYYFWPGLYNLFTFNFPLHFLGGMPRRPYPDAGWNSGSSYQLGPDESNEPH'
p355
sg123
F0.040719999999999999
sg124
g125
sg33
S'190'
p356
sg127
g1
(g128
g12
(dp357
g130
I4
sg131
g132
sg133
g134
sg135
g132
sg136
I01
sg34
g137
sg138
g134
sg139
I0
sg140
I0
sg141
I0
sg142
g134
sg35
g143
sg144
I0
stRp358
sg146
g147
sg148
F1
sg149
Nsg30
S'MingeA'
p359
sbasg120
g292
sg123
F0.037420000000000002
sg124
g125
sg33
S'188'
p360
sg127
g1
(g128
g12
(dp361
g130
I6
sg131
g132
sg133
g134
sg135
g132
sg136
I01
sg34
g174
sg138
g134
sg139
I0
sg140
I0
sg141
I0
sg142
g134
sg35
g175
sg144
I0
stRp362
sg146
g147
sg148
F0.98999999999999999
sg149
Nsg30
S'NoName'
p363
sbag1
(g2
g3
NtRp364
(dp365
g6
g1
(g7
g3
NtRp366
(dp367
g10
g1
(g11
g12
(dtRp368
sg14
g1
(g11
g12
(dtRp369
sg16
g1
(g11
g12
(dtRp370
sg18
g1
(g11
g12
(dtRp371
sg20
g1
(g11
g12
(dtRp372
sg22
g1
(g11
g12
(dtRp373
sbsg24
g25
sg26
g27
((lp374
g33
ag32
ag29
ag30
atRp375
sg37
(lp376
g1
(g2
g3
NtRp377
(dp378
g6
g1
(g7
g3
NtRp379
(dp380
g10
g1
(g11
g12
(dtRp381
sg14
g1
(g11
g12
(dtRp382
sg16
g1
(g11
g12
(dtRp383
sg18
g1
(g11
g12
(dtRp384
sg20
g1
(g11
g12
(dtRp385
sg22
g1
(g11
g12
(dtRp386
sbsg24
g25
sg26
g27
((lp387
g33
ag32
ag29
ag30
atRp388
sg37
(lp389
g1
(g2
g3
NtRp390
(dp391
g6
g1
(g7
g3
NtRp392
(dp393
g10
g1
(g11
g12
(dtRp394
sg14
g1
(g11
g12
(dtRp395
sg16
g1
(g11
g12
(dtRp396
sg18
g1
(g11
g12
(dtRp397
sg20
g1
(g11
g12
(dtRp398
sg22
g1
(g11
g12
(dtRp399
sbsg24
S'Mte'
p400
sg26
g27
((lp401
g29
ag30
aS'sequence'
p402
ag32
ag33
aS'species'
p403
atRp404
sg37
(lp405
sg120
g377
sg121
S'RWLSTKDLYSRLELPTLNQNVHAMFVMPAGFGNPMGDMLARLNNSFWLVPLSLEGAGTGWTVYPPLSHSGPSVDMVFHISSSLLGAINFTNMRGTLFWTALLLLSLPVLSGTLLDRNFNTFEGGDPLYHLFWFFGHPEVYIIPGFGSHSAYKKFGMYASIGLGFVWSHHMYVGLDDRAYFTSATMIAPTGVKFSWLATYGGRPFLAFIFLFTGGTGVLNASDAFHDTYYVVHFHYVLSLGAFSLGYYFWPGLYNLFYFNFPMHALGGMPRRPYPDAGWNSGSSYQLGPDESNEPH'
p406
sg123
F0.042599999999999999
sg124
g125
sg33
S'194'
p407
sg127
g1
(g128
g12
(dp408
g130
I4
sg131
g132
sg133
g134
sg135
g132
sg136
I01
sg34
g137
sg138
g134
sg139
I0
sg140
I0
sg141
I0
sg142
g134
sg35
g143
sg144
I0
stRp409
sg146
g147
sg148
F1
sg149
Nsg30
S'MtetrA'
p410
sbag1
(g2
g3
NtRp411
(dp412
g6
g1
(g7
g3
NtRp413
(dp414
g10
g1
(g11
g12
(dtRp415
sg14
g1
(g11
g12
(dtRp416
sg16
g1
(g11
g12
(dtRp417
sg18
g1
(g11
g12
(dtRp418
sg20
g1
(g11
g12
(dtRp419
sg22
g1
(g11
g12
(dtRp420
sbsg24
g25
sg26
g27
((lp421
g33
ag32
ag29
ag30
atRp422
sg37
(lp423
g1
(g2
g3
NtRp424
(dp425
g6
g1
(g7
g3
NtRp426
(dp427
g10
g1
(g11
g12
(dtRp428
sg14
g1
(g11
g12
(dtRp429
sg16
g1
(g11
g12
(dtRp430
sg18
g1
(g11
g12
(dtRp431
sg20
g1
(g11
g12
(dtRp432
sg22
g1
(g11
g12
(dtRp433
sbsg24
S'Mma'
p434
sg26
g27
((lp435
g29
ag30
aS'sequence'
p436
ag32
ag33
aS'species'
p437
atRp438
sg37
(lp439
sg120
g411
sg121
S'RWLSTKDLYSRLELPTLNQNVHAMFVMPAGFGNPMGDMLARLNNSFWLVPLSLEGPGTGWTVYPPLSHSGPSVDMVFHISSSLLGAINFTNMRGTLFWTALLLLSLPVLSGTLLDRNFNTFEGGDPLYHLFWFFGHPEVYIIPGFGSHSAYKKFGMYASIGLGFVWSHHMYVGLDDRAYFTSATMIAPTGVKFSWLATYGGRPFLAFIFLFTGGTGVLNASDAFHDSYYVVHFHYVLSLGAFSLGYYFWPGLYNLFFFNFPMHALGGMPRRPYPDAGWNSGSSYQLGPDESNEPH'
p440
sg123
F0.00055000000000000003
sg124
g125
sg33
S'29'
p441
sg127
g1
(g128
g12
(dp442
g130
I4
sg131
g132
sg133
g134
sg135
g132
sg136
I01
sg34
g137
sg138
g134
sg139
I0
sg140
I0
sg141
I0
sg142
g134
sg35
g143
sg144
I0
stRp443
sg146
g147
sg148
F1
sg149
Nsg30
S'MmagnB'
p444
sbag1
(g2
g3
NtRp445
(dp446
g6
g1
(g7
g3
NtRp447
(dp448
g10
g1
(g11
g12
(dtRp449
sg14
g1
(g11
g12
(dtRp450
sg16
g1
(g11
g12
(dtRp451
sg18
g1
(g11
g12
(dtRp452
sg20
g1
(g11
g12
(dtRp453
sg22
g1
(g11
g12
(dtRp454
sbsg24
S'Mma'
p455
sg26
g27
((lp456
g29
ag30
aS'sequence'
p457
ag32
ag33
aS'species'
p458
atRp459
sg37
(lp460
sg120
g411
sg121
S'RWLSTKDLYSRLELPTLNQNVHAMFVMPAGFGNPMGDMLARLNNSFWLVPLSLEGPGTGWTVYPPLSHSGPSVDMVFHISSSLLGAINFTNMRGTLFWTALLLLSLPVLSGTLLDRNFNTFEGGDPLYHLFWFFGHPEVYIIPGFGSHSAYKKFGMYASIGLGFVWSHHMYVGLDDRAYFTSATMIAPTGVKFSWLATYGGRPFLAFIFLFTGGTGVLNASDAFHDSYYVVHFHYVLSLGAFSLGYYFWPGLYNLFFFNFPMHALGGMPRRPYPDAGWNSGSSYQLGPDESNEPH'
p461
sg123
F0.00088000000000000003
sg124
g125
sg33
S'38'
p462
sg127
g1
(g128
g12
(dp463
g130
I4
sg131
g132
sg133
g134
sg135
g132
sg136
I01
sg34
g137
sg138
g134
sg139
I0
sg140
I0
sg141
I0
sg142
g134
sg35
g143
sg144
I0
stRp464
sg146
g147
sg148
F1
sg149
Nsg30
S'MmagnA'
p465
sbasg120
g377
sg123
F0.011140000000000001
sg124
g125
sg33
S'193'
p466
sg127
g1
(g128
g12
(dp467
g130
I6
sg131
g132
sg133
g134
sg135
g132
sg136
I01
sg34
g174
sg138
g134
sg139
I0
sg140
I0
sg141
I0
sg142
g134
sg35
g175
sg144
I0
stRp468
sg146
g147
sg148
F0.98999999999999999
sg149
Nsg30
S'NoName'
p469
sbasg120
g364
sg123
F0.11189
sg124
g125
sg33
S'198'
p470
sg127
g1
(g128
g12
(dp471
g130
I6
sg131
g132
sg133
g134
sg135
g132
sg136
I01
sg34
g174
sg138
g134
sg139
I0
sg140
I0
sg141
I0
sg142
g134
sg35
g175
sg144
I0
stRp472
sg146
g147
sg148
F0.98999999999999999
sg149
Nsg30
S'NoName'
p473
sbag1
(g2
g3
NtRp474
(dp475
g6
g1
(g7
g3
NtRp476
(dp477
g10
g1
(g11
g12
(dtRp478
sg14
g1
(g11
g12
(dtRp479
sg16
g1
(g11
g12
(dtRp480
sg18
g1
(g11
g12
(dtRp481
sg20
g1
(g11
g12
(dtRp482
sg22
g1
(g11
g12
(dtRp483
sbsg24
g25
sg26
g27
((lp484
g33
ag32
ag29
ag30
atRp485
sg37
(lp486
g1
(g2
g3
NtRp487
(dp488
g6
g1
(g7
g3
NtRp489
(dp490
g10
g1
(g11
g12
(dtRp491
sg14
g1
(g11
g12
(dtRp492
sg16
g1
(g11
g12
(dtRp493
sg18
g1
(g11
g12
(dtRp494
sg20
g1
(g11
g12
(dtRp495
sg22
g1
(g11
g12
(dtRp496
sbsg24
S'Scl'
p497
sg26
g27
((lp498
g29
ag30
aS'sequence'
p499
ag32
ag33
aS'species'
p500
atRp501
sg37
(lp502
sg120
g474
sg121
S'RWLSTKDLYSRLELPTLNQNVHAMFVMPAGFGNPMGDMLARLNNSFWLVPLSLEGPGTGWTVYPPLSHSGPSVDMVFHMSSSLLGAINFTNMRGTLFWTALLLLSLPVLAGTLLDRNFNTFEGGDPLYHLFWFFGHPEVYMIPGFGSHSTYKKFGMYASMGLGFVWSHHMYVGLDDRAYFTAATMIAPTGVKFSWLATYGGRPFLTFMFLFTGGTGVLNASDAFHDTYYVVHFHYVLSLGAFSLGYYFWPGLYNLFMFNFPLHFLGGMPRRPYPDAGWNSGSSYQLGPDESNEPH'
p503
sg123
F0.020899999999999998
sg124
g125
sg33
S'32'
p504
sg127
g1
(g128
g12
(dp505
g130
I4
sg131
g132
sg133
g134
sg135
g132
sg136
I01
sg34
g137
sg138
g134
sg139
I0
sg140
I0
sg141
I0
sg142
g134
sg35
g143
sg144
I0
stRp506
sg146
g147
sg148
F1
sg149
Nsg30
S'SclavA'
p507
sbag1
(g2
g3
NtRp508
(dp509
g6
g1
(g7
g3
NtRp510
(dp511
g10
g1
(g11
g12
(dtRp512
sg14
g1
(g11
g12
(dtRp513
sg16
g1
(g11
g12
(dtRp514
sg18
g1
(g11
g12
(dtRp515
sg20
g1
(g11
g12
(dtRp516
sg22
g1
(g11
g12
(dtRp517
sbsg24
S'Msp'
p518
sg26
g27
((lp519
g29
ag30
aS'sequence'
p520
ag32
ag33
aS'species'
p521
atRp522
sg37
(lp523
sg120
g474
sg121
S'RWLSTKDLYSRLELPTLNQNVHAMFVMPAGFGNPMGDMLARLNNSFWLVPLSLEGPGTGWTVYPPLSHSGPSVDMVFHMSSSLLGAMNFTNMRGTLFWTALLLLSLPVLAGTLLDRNFNTFEGGDPLYHLFWFFGHPEVYMIPGFGSHSTYKKFGMYASMGLGFVWSHHMYVGLDDRAYFTAATMIAPTGVKFSWLATYGGRPFLTFMFLFTGGTGVLNASDAFHDTYYVVHFHYVLSLGAFSLGYYFWPGLYNLFMFNFPLHFLGGMPRRPYPDAGWNSGSSYQLGPDESNEPH'
p524
sg123
F0.13538
sg124
g125
sg33
S'33'
p525
sg127
g1
(g128
g12
(dp526
g130
I4
sg131
g132
sg133
g134
sg135
g132
sg136
I01
sg34
g137
sg138
g134
sg139
I0
sg140
I0
sg141
I0
sg142
g134
sg35
g143
sg144
I0
stRp527
sg146
g147
sg148
F1
sg149
Nsg30
S'MspicA'
p528
sbasg120
g364
sg123
F0.10536
sg124
g125
sg33
S'196'
p529
sg127
g1
(g128
g12
(dp530
g130
I6
sg131
g132
sg133
g134
sg135
g132
sg136
I01
sg34
g174
sg138
g134
sg139
I0
sg140
I0
sg141
I0
sg142
g134
sg35
g175
sg144
I0
stRp531
sg146
g147
sg148
F0.98999999999999999
sg149
Nsg30
S'NoName'
p532
sbasg120
g292
sg123
F0.03209
sg124
g125
sg33
S'183'
p533
sg127
g1
(g128
g12
(dp534
g130
I6
sg131
g132
sg133
g134
sg135
g132
sg136
I01
sg34
g174
sg138
g134
sg139
I0
sg140
I0
sg141
I0
sg142
g134
sg35
g175
sg144
I0
stRp535
sg146
g147
sg148
F0.98999999999999999
sg149
Nsg30
S'NoName'
p536
sbasg120
g279
sg123
F0.32869999999999999
sg124
g125
sg33
S'191'
p537
sg127
g1
(g128
g12
(dp538
g130
I6
sg131
g132
sg133
g134
sg135
g132
sg136
I01
sg34
g174
sg138
g134
sg139
I0
sg140
I0
sg141
I0
sg142
g134
sg35
g175
sg144
I0
stRp539
sg146
g147
sg148
F0.98999999999999999
sg149
Nsg30
S'NoName'
p540
sbag1
(g2
g3
NtRp541
(dp542
g6
g1
(g7
g3
NtRp543
(dp544
g10
g1
(g11
g12
(dtRp545
sg14
g1
(g11
g12
(dtRp546
sg16
g1
(g11
g12
(dtRp547
sg18
g1
(g11
g12
(dtRp548
sg20
g1
(g11
g12
(dtRp549
sg22
g1
(g11
g12
(dtRp550
sbsg24
g25
sg26
g27
((lp551
g33
ag32
ag29
ag30
atRp552
sg37
(lp553
g1
(g2
g3
NtRp554
(dp555
g6
g1
(g7
g3
NtRp556
(dp557
g10
g1
(g11
g12
(dtRp558
sg14
g1
(g11
g12
(dtRp559
sg16
g1
(g11
g12
(dtRp560
sg18
g1
(g11
g12
(dtRp561
sg20
g1
(g11
g12
(dtRp562
sg22
g1
(g11
g12
(dtRp563
sbsg24
g25
sg26
g27
((lp564
g33
ag32
ag29
ag30
atRp565
sg37
(lp566
g1
(g2
g3
NtRp567
(dp568
g6
g1
(g7
g3
NtRp569
(dp570
g10
g1
(g11
g12
(dtRp571
sg14
g1
(g11
g12
(dtRp572
sg16
g1
(g11
g12
(dtRp573
sg18
g1
(g11
g12
(dtRp574
sg20
g1
(g11
g12
(dtRp575
sg22
g1
(g11
g12
(dtRp576
sbsg24
S'Cze'
p577
sg26
g27
((lp578
g29
ag30
aS'sequence'
p579
ag32
ag33
aS'species'
p580
atRp581
sg37
(lp582
sg120
g554
sg121
S'SWLSTQNLYSRIELPNLNQNVHAMFVMPTGLANPQGDTFPRMNNAFVLLPMSLDGPGSGWTLYPPLTHSGSSMDMAFHLSSSIFGAINLTNMRGPLFWTALMMLALPVLAGTLLDRNFNTFVGGDPLYHIFWFFGHPEVYIIPVFGSQQVYKKFGMYASIGLGFVWSHHMFVGLDDRAYFSGASLIAPTGSKFSWLATYGGRPLLAFMVLFTGGTGVMNSSDMFHDTYYVVHFHYVLSLGVFGVAYYFWPGLYNLFWFNFPLHFLGGLPRRPYPDAGWNSGSSYQFGPDESNEPH'
p583
sg123
F1.5682799999999999
sg124
g125
sg33
S'41'
p584
sg127
g1
(g128
g12
(dp585
g130
I4
sg131
g132
sg133
g134
sg135
g132
sg136
I01
sg34
g137
sg138
g134
sg139
I0
sg140
I0
sg141
I0
sg142
g134
sg35
g143
sg144
I0
stRp586
sg146
g147
sg148
F1
sg149
Nsg30
S'CzempA'
p587
sbag1
(g2
g3
NtRp588
(dp589
g6
g1
(g7
g3
NtRp590
(dp591
g10
g1
(g11
g12
(dtRp592
sg14
g1
(g11
g12
(dtRp593
sg16
g1
(g11
g12
(dtRp594
sg18
g1
(g11
g12
(dtRp595
sg20
g1
(g11
g12
(dtRp596
sg22
g1
(g11
g12
(dtRp597
sbsg24
g25
sg26
g27
((lp598
g33
ag32
ag29
ag30
atRp599
sg37
(lp600
g1
(g2
g3
NtRp601
(dp602
g6
g1
(g7
g3
NtRp603
(dp604
g10
g1
(g11
g12
(dtRp605
sg14
g1
(g11
g12
(dtRp606
sg16
g1
(g11
g12
(dtRp607
sg18
g1
(g11
g12
(dtRp608
sg20
g1
(g11
g12
(dtRp609
sg22
g1
(g11
g12
(dtRp610
sbsg24
S'Csa'
p611
sg26
g27
((lp612
g29
ag30
aS'sequence'
p613
ag32
ag33
aS'species'
p614
atRp615
sg37
(lp616
sg120
g588
sg121
S'----------RLELPNLNQNVHAMFVMPSGFGNPMGDMLARLNNSFWLVPLSLDGPGTGWTMYPPLSHSGASVDLVFHISSSLLGAMNFTNMRGTLFWTALLLLSLPVLSGTLLDRNFNTFEGGDMLYHMFWFFGHPEVYMMPGFGSQSVYKKFGMYASMGLGFVWSHHMFVGLDDRAYFTAATLMAPTGVKFSWLASYGGRPLLAFMFLFTGGTGVLNASDAFHDTYYVVHFHYVLSLGAFSLGYYFWPGLYNLFWFNFPQHFLGAMPRRPYPDAGWNSGSSYQMGPDFSNEPH'
p617
sg123
F0.65920000000000001
sg124
g125
sg33
S'45'
p618
sg127
g1
(g128
g12
(dp619
g130
I4
sg131
g132
sg133
g134
sg135
g132
sg136
I01
sg34
g137
sg138
g134
sg139
I0
sg140
I0
sg141
I0
sg142
g134
sg35
g143
sg144
I0
stRp620
sg146
g147
sg148
F1
sg149
Nsg30
S'CsantA'
p621
sbag1
(g2
g3
NtRp622
(dp623
g6
g1
(g7
g3
NtRp624
(dp625
g10
g1
(g11
g12
(dtRp626
sg14
g1
(g11
g12
(dtRp627
sg16
g1
(g11
g12
(dtRp628
sg18
g1
(g11
g12
(dtRp629
sg20
g1
(g11
g12
(dtRp630
sg22
g1
(g11
g12
(dtRp631
sbsg24
S'Csa'
p632
sg26
g27
((lp633
g29
ag30
aS'sequence'
p634
ag32
ag33
aS'species'
p635
atRp636
sg37
(lp637
sg120
g588
sg121
S'RWLSTKDLYSRLELPAMSQNVHAMFVMPSGFANPMGDTLPRVNNAAILMPMSLEGPGTGWTVYPPLSHSGVSVDLVFHISSSLAGAMNLTNMRGPLFWTALLLLSLPVLAGTLIDRNFNTFDGGDVLYHLFWFFGHPEVYIIPGFGSESRYNKFGMYASIGLGFVWSHHMYVGLDDRSYFTAATLIAPTGVKFSWMATFGGRPFLTFLALFTGGTGVLNASDAFHDTYYVVHFHYVLSLGAFSMGYYYWPGLYNLFWFNFPQHFLGGQPRRSYPDAGWNSGSSYQLGPDESNEPH'
p638
sg123
F1.3581099999999999
sg124
g125
sg33
S'119'
p639
sg127
g1
(g128
g12
(dp640
g130
I4
sg131
g132
sg133
g134
sg135
g132
sg136
I01
sg34
g137
sg138
g134
sg139
I0
sg140
I0
sg141
I0
sg142
g134
sg35
g143
sg144
I0
stRp641
sg146
g147
sg148
F1
sg149
Nsg30
S'CsalmA'
p642
sbasg120
g554
sg123
F0.19968
sg124
g125
sg33
S'48'
p643
sg127
g1
(g128
g12
(dp644
g130
I6
sg131
g132
sg133
g134
sg135
g132
sg136
I01
sg34
g174
sg138
g134
sg139
I0
sg140
I0
sg141
I0
sg142
g134
sg35
g175
sg144
I0
stRp645
sg146
g147
sg148
F0.97999999999999998
sg149
Nsg30
S'NoName'
p646
sbasg120
g541
sg123
F0.14363999999999999
sg124
g125
sg33
S'36'
p647
sg127
g1
(g128
g12
(dp648
g130
I6
sg131
g132
sg133
g134
sg135
g132
sg136
I01
sg34
g174
sg138
g134
sg139
I0
sg140
I0
sg141
I0
sg142
g134
sg35
g175
sg144
I0
stRp649
sg146
g147
sg148
F0.93000000000000005
sg149
Nsg30
S'NoName'
p650
sbag1
(g2
g3
NtRp651
(dp652
g6
g1
(g7
g3
NtRp653
(dp654
g10
g1
(g11
g12
(dtRp655
sg14
g1
(g11
g12
(dtRp656
sg16
g1
(g11
g12
(dtRp657
sg18
g1
(g11
g12
(dtRp658
sg20
g1
(g11
g12
(dtRp659
sg22
g1
(g11
g12
(dtRp660
sbsg24
S'Bar'
p661
sg26
g27
((lp662
g29
ag30
aS'sequence'
p663
ag32
ag33
aS'species'
p664
atRp665
sg37
(lp666
sg120
g541
sg121
S'RWLSTKDLYSRLELPNLNQNSHAMFVMPTGFGNPMGDMLSRLNNSFWLVPLSLEGPGTGWTVYPPLSHSGPSVDLVFHVSSSLLGAMNFTNMRGTLFWTVLLLLALPVLAGTLLDRNFNTFEGGDPLYHMFWFFGHPEVYIIPGFGSQAVYNKFGMYASIGLGFVWSHHMYVGMDDRAYFTAATLIAPTGVKFSWLASYGGRPLLTFIGLFTGGTGVLNAADAFHDSYYVVHFHYVLSLGAFSLGYYFWPGLYNLFWFNFPQHFLGSMPRRPYPDAGWNSGSSVQLGPDVNNEPH'
p667
sg123
F0.74575000000000002
sg124
g125
sg33
S'97'
p668
sg127
g1
(g128
g12
(dp669
g130
I4
sg131
g132
sg133
g134
sg135
g132
sg136
I01
sg34
g137
sg138
g134
sg139
I0
sg140
I0
sg141
I0
sg142
g134
sg35
g143
sg144
I0
stRp670
sg146
g147
sg148
F1
sg149
Nsg30
S'BarxA'
p671
sbasg120
g279
sg123
F0.25233
sg124
g125
sg33
S'35'
p672
sg127
g1
(g128
g12
(dp673
g130
I6
sg131
g132
sg133
g134
sg135
g132
sg136
I01
sg34
g174
sg138
g134
sg139
I0
sg140
I0
sg141
I0
sg142
g134
sg35
g175
sg144
I0
stRp674
sg146
g147
sg148
F0.97999999999999998
sg149
Nsg30
S'NoName'
p675
sbasg120
g266
sg123
F0.42224
sg124
g125
sg33
S'181'
p676
sg127
g1
(g128
g12
(dp677
g130
I6
sg131
g132
sg133
g134
sg135
g132
sg136
I01
sg34
g174
sg138
g134
sg139
I0
sg140
I0
sg141
I0
sg142
g134
sg35
g175
sg144
I0
stRp678
sg146
g147
sg148
F0.97999999999999998
sg149
Nsg30
S'NoName'
p679
sbag1
(g2
g3
NtRp680
(dp681
g6
g1
(g7
g3
NtRp682
(dp683
g10
g1
(g11
g12
(dtRp684
sg14
g1
(g11
g12
(dtRp685
sg16
g1
(g11
g12
(dtRp686
sg18
g1
(g11
g12
(dtRp687
sg20
g1
(g11
g12
(dtRp688
sg22
g1
(g11
g12
(dtRp689
sbsg24
g25
sg26
g27
((lp690
g33
ag32
ag29
ag30
atRp691
sg37
(lp692
g1
(g2
g3
NtRp693
(dp694
g6
g1
(g7
g3
NtRp695
(dp696
g10
g1
(g11
g12
(dtRp697
sg14
g1
(g11
g12
(dtRp698
sg16
g1
(g11
g12
(dtRp699
sg18
g1
(g11
g12
(dtRp700
sg20
g1
(g11
g12
(dtRp701
sg22
g1
(g11
g12
(dtRp702
sbsg24
g25
sg26
g27
((lp703
g33
ag32
ag29
ag30
atRp704
sg37
(lp705
g1
(g2
g3
NtRp706
(dp707
g6
g1
(g7
g3
NtRp708
(dp709
g10
g1
(g11
g12
(dtRp710
sg14
g1
(g11
g12
(dtRp711
sg16
g1
(g11
g12
(dtRp712
sg18
g1
(g11
g12
(dtRp713
sg20
g1
(g11
g12
(dtRp714
sg22
g1
(g11
g12
(dtRp715
sbsg24
g25
sg26
g27
((lp716
g33
ag32
ag29
ag30
atRp717
sg37
(lp718
g1
(g2
g3
NtRp719
(dp720
g6
g1
(g7
g3
NtRp721
(dp722
g10
g1
(g11
g12
(dtRp723
sg14
g1
(g11
g12
(dtRp724
sg16
g1
(g11
g12
(dtRp725
sg18
g1
(g11
g12
(dtRp726
sg20
g1
(g11
g12
(dtRp727
sg22
g1
(g11
g12
(dtRp728
sbsg24
g25
sg26
g27
((lp729
g33
ag32
ag29
ag30
atRp730
sg37
(lp731
g1
(g2
g3
NtRp732
(dp733
g6
g1
(g7
g3
NtRp734
(dp735
g10
g1
(g11
g12
(dtRp736
sg14
g1
(g11
g12
(dtRp737
sg16
g1
(g11
g12
(dtRp738
sg18
g1
(g11
g12
(dtRp739
sg20
g1
(g11
g12
(dtRp740
sg22
g1
(g11
g12
(dtRp741
sbsg24
S'Mfa'
p742
sg26
g27
((lp743
g29
ag30
aS'sequence'
p744
ag32
ag33
aS'species'
p745
atRp746
sg37
(lp747
sg120
g719
sg121
S'RWLSTKDLYSRLELGNLNQNVHAMFVMPLGFGNPLGDMFARLNNSFWLPPLSLEGAGTGWTVYPPLSHSGPSVDLAFHLTSSLLGAINFTNMRGPLFWTALLLLSLPVLAGTLLDRNFNTFEGGDPLYHLFWFFGHPEVYIIPGFGSHSTYKKFGMYASIGLGFVWSHHMYVGLDDRAYFTSATMIAPTGIKFSWLATYGGRPMLAFLFLFTGGTGVLNASDAFHDTYFVVHFHYVLSMGAFSLAYYYWPGLYNLFWFNFPMHFLGGMPRRPYPDAGWNSGSSYQMGPDESNEPH'
p748
sg123
F0.14163999999999999
sg124
g125
sg33
S'106'
p749
sg127
g1
(g128
g12
(dp750
g130
I4
sg131
g132
sg133
g134
sg135
g132
sg136
I01
sg34
g137
sg138
g134
sg139
I0
sg140
I0
sg141
I0
sg142
g134
sg35
g143
sg144
I0
stRp751
sg146
g147
sg148
F1
sg149
Nsg30
S'MfariB'
p752
sbag1
(g2
g3
NtRp753
(dp754
g6
g1
(g7
g3
NtRp755
(dp756
g10
g1
(g11
g12
(dtRp757
sg14
g1
(g11
g12
(dtRp758
sg16
g1
(g11
g12
(dtRp759
sg18
g1
(g11
g12
(dtRp760
sg20
g1
(g11
g12
(dtRp761
sg22
g1
(g11
g12
(dtRp762
sbsg24
S'Csa'
p763
sg26
g27
((lp764
g29
ag30
aS'sequence'
p765
ag32
ag33
aS'species'
p766
atRp767
sg37
(lp768
sg120
g719
sg121
S'RWLSTKDLYSRLELGNFNQNVHAMFVMPLGFGNPLGDMFARLNNSFWLPPLSLEGAGTGWTVYPPLSHSGPSVDLAFHLTSSLLGAINFTNMRGPLFWTALLLLSLPVLAATLLDRNFNTFEGGDPLYHLFWFFGHPEVYIIPGFGSHSTYKKFGMYASMGLGFVWSHHMYVGLDDRAYFTSATMIAPTGMKFSWLATYGGRPMLAFLFLFTGGTGVLNASDAFHDTYYVVHFHYVLSMGAFSLAYYYWPGLYNWFWFNFPMHFLGGMPRRPYPDAGWNSGSSYQMGPDESNEPH'
p769
sg123
F0.069970000000000004
sg124
g125
sg33
S'116'
p770
sg127
g1
(g128
g12
(dp771
g130
I4
sg131
g132
sg133
g134
sg135
g132
sg136
I01
sg34
g137
sg138
g134
sg139
I0
sg140
I0
sg141
I0
sg142
g134
sg35
g143
sg144
I0
stRp772
sg146
g147
sg148
F1
sg149
Nsg30
S'CsakeA'
p773
sbasg120
g706
sg123
F0.048980000000000003
sg124
g125
sg33
S'99'
p774
sg127
g1
(g128
g12
(dp775
g130
I6
sg131
g132
sg133
g134
sg135
g132
sg136
I01
sg34
g174
sg138
g134
sg139
I0
sg140
I0
sg141
I0
sg142
g134
sg35
g175
sg144
I0
stRp776
sg146
g147
sg148
F0.98999999999999999
sg149
Nsg30
S'NoName'
p777
sbag1
(g2
g3
NtRp778
(dp779
g6
g1
(g7
g3
NtRp780
(dp781
g10
g1
(g11
g12
(dtRp782
sg14
g1
(g11
g12
(dtRp783
sg16
g1
(g11
g12
(dtRp784
sg18
g1
(g11
g12
(dtRp785
sg20
g1
(g11
g12
(dtRp786
sg22
g1
(g11
g12
(dtRp787
sbsg24
g25
sg26
g27
((lp788
g33
ag32
ag29
ag30
atRp789
sg37
(lp790
g1
(g2
g3
NtRp791
(dp792
g6
g1
(g7
g3
NtRp793
(dp794
g10
g1
(g11
g12
(dtRp795
sg14
g1
(g11
g12
(dtRp796
sg16
g1
(g11
g12
(dtRp797
sg18
g1
(g11
g12
(dtRp798
sg20
g1
(g11
g12
(dtRp799
sg22
g1
(g11
g12
(dtRp800
sbsg24
g25
sg26
g27
((lp801
g33
ag32
ag29
ag30
atRp802
sg37
(lp803
g1
(g2
g3
NtRp804
(dp805
g6
g1
(g7
g3
NtRp806
(dp807
g10
g1
(g11
g12
(dtRp808
sg14
g1
(g11
g12
(dtRp809
sg16
g1
(g11
g12
(dtRp810
sg18
g1
(g11
g12
(dtRp811
sg20
g1
(g11
g12
(dtRp812
sg22
g1
(g11
g12
(dtRp813
sbsg24
S'Mfa'
p814
sg26
g27
((lp815
g29
ag30
aS'sequence'
p816
ag32
ag33
aS'species'
p817
atRp818
sg37
(lp819
sg120
g791
sg121
S'RWLSTKDLYSRAELGNFNHNVHAMFVMPLGFGNPMGDMFARLNNSFWLPPLSLEGAGTGWTVYPPLSHSGPSVDLAFHLTSSLLGAMNFTNMRGPLFWTALLLLSLPVLAGTLLDRNFNTFEGGDPLYHLFWFFGHPEVYIIPGFGSHSTYKKFGMYASMGLGFVWSHHMYVGLDDRAYFTSATMMAPTGIKFSWLATYGGRPMLAFLFLFTGGTGVLNASDAFHDTYYMYHFHYVLSMGAFSLGYYYWPGLYNWFWFNFPMHFLGGMPRRPYPDAGWNSGSSKQLGPDESNEPH'
p820
sg123
F0.29086000000000001
sg124
g125
sg33
S'114'
p821
sg127
g1
(g128
g12
(dp822
g130
I4
sg131
g132
sg133
g134
sg135
g132
sg136
I01
sg34
g137
sg138
g134
sg139
I0
sg140
I0
sg141
I0
sg142
g134
sg35
g143
sg144
I0
stRp823
sg146
g147
sg148
F1
sg149
Nsg30
S'MfariA'
p824
sbag1
(g2
g3
NtRp825
(dp826
g6
g1
(g7
g3
NtRp827
(dp828
g10
g1
(g11
g12
(dtRp829
sg14
g1
(g11
g12
(dtRp830
sg16
g1
(g11
g12
(dtRp831
sg18
g1
(g11
g12
(dtRp832
sg20
g1
(g11
g12
(dtRp833
sg22
g1
(g11
g12
(dtRp834
sbsg24
S'Dha'
p835
sg26
g27
((lp836
g29
ag30
aS'sequence'
p837
ag32
ag33
aS'species'
p838
atRp839
sg37
(lp840
sg120
g791
sg121
S'RWLSTKDLYSRMELGNFNQNVHAMFIMPWGFGNPLGDMFARLNNSFWLPPLSLEGAGTGWTLYPPLSHSGPSVDLAFHLTSSLLGAMNFTNMRGPLFWTALLLLSLPVLAATLLDRNFNTFEGGDPLYHLFWFFGHPEVYIMPGFGSHSTYKKFGMYASIGLGFVWSHHMFVGLDDRAYFTSATMIAPTGIKFSWLATYGGRPMLAFLFLFTGGTGVLNASDAFHDTYYVVHFHYVLSMGAFSLAYYYWPGLYNLFWFNFPMHFLGGMPRRPYPDAGWNSGSSKQLGPDESNDPH'
p841
sg123
F0.11043
sg124
g125
sg33
S'75'
p842
sg127
g1
(g128
g12
(dp843
g130
I4
sg131
g132
sg133
g134
sg135
g132
sg136
I01
sg34
g137
sg138
g134
sg139
I0
sg140
I0
sg141
I0
sg142
g134
sg35
g143
sg144
I0
stRp844
sg146
g147
sg148
F1
sg149
Nsg30
S'DhansA'
p845
sbasg120
g778
sg123
F0.046699999999999998
sg124
g125
sg33
S'110'
p846
sg127
g1
(g128
g12
(dp847
g130
I6
sg131
g132
sg133
g134
sg135
g132
sg136
I01
sg34
g174
sg138
g134
sg139
I0
sg140
I0
sg141
I0
sg142
g134
sg35
g175
sg144
I0
stRp848
sg146
g147
sg148
F0.65000000000000002
sg149
Nsg30
S'NoName'
p849
sbag1
(g2
g3
NtRp850
(dp851
g6
g1
(g7
g3
NtRp852
(dp853
g10
g1
(g11
g12
(dtRp854
sg14
g1
(g11
g12
(dtRp855
sg16
g1
(g11
g12
(dtRp856
sg18
g1
(g11
g12
(dtRp857
sg20
g1
(g11
g12
(dtRp858
sg22
g1
(g11
g12
(dtRp859
sbsg24
g25
sg26
g27
((lp860
g33
ag32
ag29
ag30
atRp861
sg37
(lp862
g1
(g2
g3
NtRp863
(dp864
g6
g1
(g7
g3
NtRp865
(dp866
g10
g1
(g11
g12
(dtRp867
sg14
g1
(g11
g12
(dtRp868
sg16
g1
(g11
g12
(dtRp869
sg18
g1
(g11
g12
(dtRp870
sg20
g1
(g11
g12
(dtRp871
sg22
g1
(g11
g12
(dtRp872
sbsg24
S'Clu'
p873
sg26
g27
((lp874
g29
ag30
aS'sequence'
p875
ag32
ag33
aS'species'
p876
atRp877
sg37
(lp878
sg120
g850
sg121
S'RWLSTKDLYSRLELPDLNQNVHAMFVMPLGFGNPMGDMFARLNNSFWLPPLSLEGAGTGWTVYPPLSHSGPSVDLAFHLTSSLLGAINFTNMRGPLFWTALLLLSLPVLAGTLLDRNFNTFEGGDPLYHLFWFFGHPEVYMMPGFGSHSTYKKFGMYASMGLGFVWSHHMYVGLDDRAYFTSATMMAPTGMKFSWLATYGGRPMLAFLFLFTGGTGVLNASDAFHDTYYVVHFHYVLSMGAFSLGYYYWPGLYNWFWFNFPMHFLGGMPRRPYPDAGWNSGSSRQLGPDESNEPH'
p879
sg123
F0.037310000000000003
sg124
g125
sg33
S'147'
p880
sg127
g1
(g128
g12
(dp881
g130
I4
sg131
g132
sg133
g134
sg135
g132
sg136
I01
sg34
g137
sg138
g134
sg139
I0
sg140
I0
sg141
I0
sg142
g134
sg35
g143
sg144
I0
stRp882
sg146
g147
sg148
F1
sg149
Nsg30
S'ClusiA'
p883
sbag1
(g2
g3
NtRp884
(dp885
g6
g1
(g7
g3
NtRp886
(dp887
g10
g1
(g11
g12
(dtRp888
sg14
g1
(g11
g12
(dtRp889
sg16
g1
(g11
g12
(dtRp890
sg18
g1
(g11
g12
(dtRp891
sg20
g1
(g11
g12
(dtRp892
sg22
g1
(g11
g12
(dtRp893
sbsg24
g25
sg26
g27
((lp894
g33
ag32
ag29
ag30
atRp895
sg37
(lp896
g1
(g2
g3
NtRp897
(dp898
g6
g1
(g7
g3
NtRp899
(dp900
g10
g1
(g11
g12
(dtRp901
sg14
g1
(g11
g12
(dtRp902
sg16
g1
(g11
g12
(dtRp903
sg18
g1
(g11
g12
(dtRp904
sg20
g1
(g11
g12
(dtRp905
sg22
g1
(g11
g12
(dtRp906
sbsg24
S'Mgu'
p907
sg26
g27
((lp908
g29
ag30
aS'sequence'
p909
ag32
ag33
aS'species'
p910
atRp911
sg37
(lp912
sg120
g884
sg121
S'---------------------------------------------------------------------------------------------------------------------------------------------------------------------------------------------------------------------------------------HFHYVLSMGAFSLGYYYWPGLYNWFWFNFPMHFLGGMPRRPYPDAGWNSGSSKQLGPDESNEPH'
p913
sg123
F0.0044999999999999997
sg124
g125
sg33
S'78'
p914
sg127
g1
(g128
g12
(dp915
g130
I4
sg131
g132
sg133
g134
sg135
g132
sg136
I01
sg34
g137
sg138
g134
sg139
I0
sg140
I0
sg141
I0
sg142
g134
sg35
g143
sg144
I0
stRp916
sg146
g147
sg148
F1
sg149
Nsg30
S'MguilB'
p917
sbag1
(g2
g3
NtRp918
(dp919
g6
g1
(g7
g3
NtRp920
(dp921
g10
g1
(g11
g12
(dtRp922
sg14
g1
(g11
g12
(dtRp923
sg16
g1
(g11
g12
(dtRp924
sg18
g1
(g11
g12
(dtRp925
sg20
g1
(g11
g12
(dtRp926
sg22
g1
(g11
g12
(dtRp927
sbsg24
S'Mgu'
p928
sg26
g27
((lp929
g29
ag30
aS'sequence'
p930
ag32
ag33
aS'species'
p931
atRp932
sg37
(lp933
sg120
g884
sg121
S'RWLSTKDLYSRMELGNFNQNVHAMFVMPIGFGNPMGDMFARLNNSFWLPPLSLEGAGTGWTVYPPLSHSGPSVDMAFHLTSSLLGAMNFTNMRGPLFWTALLLLSLPVLAGTLLDRNFNTFEGGDPLYHLFWFFGHPEVYMMPGFGSHSTYKKFGMYASIGLGFVWSHHMYVGLDDRAYFTSATMMAPTGMKFSWLSTYGGRPMLAFLFLFTGGTGVLNASDAFHDTYYVVHFHYVLSMGAFSLGYYYWPGLYNWFWFNFPMHFLGGMPRRPYPDAGWNSGSSKQLGPDESNEPH'
p934
sg123
F0.0020100000000000001
sg124
g125
sg33
S'82'
p935
sg127
g1
(g128
g12
(dp936
g130
I4
sg131
g132
sg133
g134
sg135
g132
sg136
I01
sg34
g137
sg138
g134
sg139
I0
sg140
I0
sg141
I0
sg142
g134
sg35
g143
sg144
I0
stRp937
sg146
g147
sg148
F1
sg149
Nsg30
S'MguilA'
p938
sbasg120
g850
sg123
F0.25231999999999999
sg124
g125
sg33
S'84'
p939
sg127
g1
(g128
g12
(dp940
g130
I6
sg131
g132
sg133
g134
sg135
g132
sg136
I01
sg34
g174
sg138
g134
sg139
I0
sg140
I0
sg141
I0
sg142
g134
sg35
g175
sg144
I0
stRp941
sg146
g147
sg148
F0.98999999999999999
sg149
Nsg30
S'NoName'
p942
sbasg120
g778
sg123
F0.090679999999999997
sg124
g125
sg33
S'112'
p943
sg127
g1
(g128
g12
(dp944
g130
I6
sg131
g132
sg133
g134
sg135
g132
sg136
I01
sg34
g174
sg138
g134
sg139
I0
sg140
I0
sg141
I0
sg142
g134
sg35
g175
sg144
I0
stRp945
sg146
g147
sg148
F0.98999999999999999
sg149
Nsg30
S'NoName'
p946
sbasg120
g706
sg123
F0.032190000000000003
sg124
g125
sg33
S'102'
p947
sg127
g1
(g128
g12
(dp948
g130
I6
sg131
g132
sg133
g134
sg135
g132
sg136
I01
sg34
g174
sg138
g134
sg139
I0
sg140
I0
sg141
I0
sg142
g134
sg35
g175
sg144
I0
stRp949
sg146
g147
sg148
F0.64000000000000001
sg149
Nsg30
S'NoName'
p950
sbasg120
g693
sg123
F0.12181
sg124
g125
sg33
S'103'
p951
sg127
g1
(g128
g12
(dp952
g130
I6
sg131
g132
sg133
g134
sg135
g132
sg136
I01
sg34
g174
sg138
g134
sg139
I0
sg140
I0
sg141
I0
sg142
g134
sg35
g175
sg144
I0
stRp953
sg146
g147
sg148
F0.98999999999999999
sg149
Nsg30
S'NoName'
p954
sbag1
(g2
g3
NtRp955
(dp956
g6
g1
(g7
g3
NtRp957
(dp958
g10
g1
(g11
g12
(dtRp959
sg14
g1
(g11
g12
(dtRp960
sg16
g1
(g11
g12
(dtRp961
sg18
g1
(g11
g12
(dtRp962
sg20
g1
(g11
g12
(dtRp963
sg22
g1
(g11
g12
(dtRp964
sbsg24
g25
sg26
g27
((lp965
g33
ag32
ag29
ag30
atRp966
sg37
(lp967
g1
(g2
g3
NtRp968
(dp969
g6
g1
(g7
g3
NtRp970
(dp971
g10
g1
(g11
g12
(dtRp972
sg14
g1
(g11
g12
(dtRp973
sg16
g1
(g11
g12
(dtRp974
sg18
g1
(g11
g12
(dtRp975
sg20
g1
(g11
g12
(dtRp976
sg22
g1
(g11
g12
(dtRp977
sbsg24
g25
sg26
g27
((lp978
g33
ag32
ag29
ag30
atRp979
sg37
(lp980
g1
(g2
g3
NtRp981
(dp982
g6
g1
(g7
g3
NtRp983
(dp984
g10
g1
(g11
g12
(dtRp985
sg14
g1
(g11
g12
(dtRp986
sg16
g1
(g11
g12
(dtRp987
sg18
g1
(g11
g12
(dtRp988
sg20
g1
(g11
g12
(dtRp989
sg22
g1
(g11
g12
(dtRp990
sbsg24
S'Cbl'
p991
sg26
g27
((lp992
g29
ag30
aS'sequence'
p993
ag32
ag33
aS'species'
p994
atRp995
sg37
(lp996
sg120
g968
sg121
S'RWLSTKDLYSRLELANLNQNVHAMFVMPLGMGNPMGDMFARLNNSFWLPPLSLEGPGTGWTLYAPLSHSGPSVDMAFHLTSSLLGAINFTNMRGPLYWTALLLLSLPVLAATLLDRNFNTFEGGDPLYHLFWFFGHPEVYMIPGFGSHSTYKKFGMYASIGLGFVWSHHMYVGLDDRAYFTSATMIAPTGIKFSWMATYGGRPMLAFLFLFTGGTGVLNASDAFHDTYYVVHFHYVLSMGAFSLGYYYWPGLYNLFWFNFPMHFLGGMPRRPYPDAGWNSGSSYQLGPDESNEPH'
p997
sg123
F0.36785000000000001
sg124
g125
sg33
S'88'
p998
sg127
g1
(g128
g12
(dp999
g130
I4
sg131
g132
sg133
g134
sg135
g132
sg136
I01
sg34
g137
sg138
g134
sg139
I0
sg140
I0
sg141
I0
sg142
g134
sg35
g143
sg144
I0
stRp1000
sg146
g147
sg148
F1
sg149
Nsg30
S'CblacA'
p1001
sbag1
(g2
g3
NtRp1002
(dp1003
g6
g1
(g7
g3
NtRp1004
(dp1005
g10
g1
(g11
g12
(dtRp1006
sg14
g1
(g11
g12
(dtRp1007
sg16
g1
(g11
g12
(dtRp1008
sg18
g1
(g11
g12
(dtRp1009
sg20
g1
(g11
g12
(dtRp1010
sg22
g1
(g11
g12
(dtRp1011
sbsg24
g25
sg26
g27
((lp1012
g33
ag32
ag29
ag30
atRp1013
sg37
(lp1014
g1
(g2
g3
NtRp1015
(dp1016
g6
g1
(g7
g3
NtRp1017
(dp1018
g10
g1
(g11
g12
(dtRp1019
sg14
g1
(g11
g12
(dtRp1020
sg16
g1
(g11
g12
(dtRp1021
sg18
g1
(g11
g12
(dtRp1022
sg20
g1
(g11
g12
(dtRp1023
sg22
g1
(g11
g12
(dtRp1024
sbsg24
g25
sg26
g27
((lp1025
g33
ag32
ag29
ag30
atRp1026
sg37
(lp1027
g1
(g2
g3
NtRp1028
(dp1029
g6
g1
(g7
g3
NtRp1030
(dp1031
g10
g1
(g11
g12
(dtRp1032
sg14
g1
(g11
g12
(dtRp1033
sg16
g1
(g11
g12
(dtRp1034
sg18
g1
(g11
g12
(dtRp1035
sg20
g1
(g11
g12
(dtRp1036
sg22
g1
(g11
g12
(dtRp1037
sbsg24
g25
sg26
g27
((lp1038
g33
ag32
ag29
ag30
atRp1039
sg37
(lp1040
g1
(g2
g3
NtRp1041
(dp1042
g6
g1
(g7
g3
NtRp1043
(dp1044
g10
g1
(g11
g12
(dtRp1045
sg14
g1
(g11
g12
(dtRp1046
sg16
g1
(g11
g12
(dtRp1047
sg18
g1
(g11
g12
(dtRp1048
sg20
g1
(g11
g12
(dtRp1049
sg22
g1
(g11
g12
(dtRp1050
sbsg24
g25
sg26
g27
((lp1051
g33
ag32
ag29
ag30
atRp1052
sg37
(lp1053
g1
(g2
g3
NtRp1054
(dp1055
g6
g1
(g7
g3
NtRp1056
(dp1057
g10
g1
(g11
g12
(dtRp1058
sg14
g1
(g11
g12
(dtRp1059
sg16
g1
(g11
g12
(dtRp1060
sg18
g1
(g11
g12
(dtRp1061
sg20
g1
(g11
g12
(dtRp1062
sg22
g1
(g11
g12
(dtRp1063
sbsg24
S'Lel'
p1064
sg26
g27
((lp1065
g29
ag30
aS'sequence'
p1066
ag32
ag33
aS'species'
p1067
atRp1068
sg37
(lp1069
sg120
g1041
sg121
S'RWLSTKDLYSRLELPGLDQNVHAMFVMPLGFGNPMGDMFARLNNSFWLPPLSLEGAGTGWTVYPPLSHSGPSVDLAFHLTSSLLGAINFTNMRGPLYWTALLLFSLPVLAGTLLDRNFNTFDGGDPLYHLFWFFGHPEVYIIPGFGSHSTYKKFGMYASIGLGFVWSHHMYVGLDDRAYFTSATMIAPTGIKFSWLATYGGRPMLAFLFLFTGGTGVLNASDAFHDTYYTVHFHYVLSMGAFSLGYYYWYGLYNLFWFNFPMHFLGGMPRRPYPDAGWNSGSSYQLGPDESNEPH'
p1070
sg123
F0.18278
sg124
g125
sg33
S'11'
p1071
sg127
g1
(g128
g12
(dp1072
g130
I4
sg131
g132
sg133
g134
sg135
g132
sg136
I01
sg34
g137
sg138
g134
sg139
I0
sg140
I0
sg141
I0
sg142
g134
sg35
g143
sg144
I0
stRp1073
sg146
g147
sg148
F1
sg149
Nsg30
S'LelonA'
p1074
sbag1
(g2
g3
NtRp1075
(dp1076
g6
g1
(g7
g3
NtRp1077
(dp1078
g10
g1
(g11
g12
(dtRp1079
sg14
g1
(g11
g12
(dtRp1080
sg16
g1
(g11
g12
(dtRp1081
sg18
g1
(g11
g12
(dtRp1082
sg20
g1
(g11
g12
(dtRp1083
sg22
g1
(g11
g12
(dtRp1084
sbsg24
S'Cox'
p1085
sg26
g27
((lp1086
g29
ag30
aS'sequence'
p1087
ag32
ag33
aS'species'
p1088
atRp1089
sg37
(lp1090
sg120
g1041
sg121
S'RWLSTKDLYSRLELSGLDQNVHAMFVMPIGFGNPMGDMFARLNNSFWLPPLSLEGPGVGWTVYPPLSHSGPSVDLAFHLTSSLLGAINFTNMRGPLYWTALLLLSLPVLAGTLLDRNFNTFDGGDPLYHLFWFFGHPEVYMIPGFGSHATYKKFGMYASIGLGFVWSHHMYVGLDDRAYFTSATMIAPTGIKFSWLATYGGRPMLAFLFLFTGGTGILNASDAFHDTYYTVHFHYVLSMGAFSLGYYLWYGLYNIFWFNFPMHFLGGMPRRPYPDAGWNSGSSYQLGPDESNEPH'
p1091
sg123
F0.17860000000000001
sg124
g125
sg33
S'13'
p1092
sg127
g1
(g128
g12
(dp1093
g130
I4
sg131
g132
sg133
g134
sg135
g132
sg136
I01
sg34
g137
sg138
g134
sg139
I0
sg140
I0
sg141
I0
sg142
g134
sg35
g143
sg144
I0
stRp1094
sg146
g147
sg148
F1
sg149
Nsg30
S'CoxycA'
p1095
sbasg120
g1028
sg123
F0.041480000000000003
sg124
g125
sg33
S'17'
p1096
sg127
g1
(g128
g12
(dp1097
g130
I6
sg131
g132
sg133
g134
sg135
g132
sg136
I01
sg34
g174
sg138
g134
sg139
I0
sg140
I0
sg141
I0
sg142
g134
sg35
g175
sg144
I0
stRp1098
sg146
g147
sg148
F0.98999999999999999
sg149
Nsg30
S'NoName'
p1099
sbag1
(g2
g3
NtRp1100
(dp1101
g6
g1
(g7
g3
NtRp1102
(dp1103
g10
g1
(g11
g12
(dtRp1104
sg14
g1
(g11
g12
(dtRp1105
sg16
g1
(g11
g12
(dtRp1106
sg18
g1
(g11
g12
(dtRp1107
sg20
g1
(g11
g12
(dtRp1108
sg22
g1
(g11
g12
(dtRp1109
sbsg24
g25
sg26
g27
((lp1110
g33
ag32
ag29
ag30
atRp1111
sg37
(lp1112
g1
(g2
g3
NtRp1113
(dp1114
g6
g1
(g7
g3
NtRp1115
(dp1116
g10
g1
(g11
g12
(dtRp1117
sg14
g1
(g11
g12
(dtRp1118
sg16
g1
(g11
g12
(dtRp1119
sg18
g1
(g11
g12
(dtRp1120
sg20
g1
(g11
g12
(dtRp1121
sg22
g1
(g11
g12
(dtRp1122
sbsg24
g25
sg26
g27
((lp1123
g33
ag32
ag29
ag30
atRp1124
sg37
(lp1125
g1
(g2
g3
NtRp1126
(dp1127
g6
g1
(g7
g3
NtRp1128
(dp1129
g10
g1
(g11
g12
(dtRp1130
sg14
g1
(g11
g12
(dtRp1131
sg16
g1
(g11
g12
(dtRp1132
sg18
g1
(g11
g12
(dtRp1133
sg20
g1
(g11
g12
(dtRp1134
sg22
g1
(g11
g12
(dtRp1135
sbsg24
g25
sg26
g27
((lp1136
g33
ag32
ag29
ag30
atRp1137
sg37
(lp1138
g1
(g2
g3
NtRp1139
(dp1140
g6
g1
(g7
g3
NtRp1141
(dp1142
g10
g1
(g11
g12
(dtRp1143
sg14
g1
(g11
g12
(dtRp1144
sg16
g1
(g11
g12
(dtRp1145
sg18
g1
(g11
g12
(dtRp1146
sg20
g1
(g11
g12
(dtRp1147
sg22
g1
(g11
g12
(dtRp1148
sbsg24
S'Cth'
p1149
sg26
g27
((lp1150
g29
ag30
aS'sequence'
p1151
ag32
ag33
aS'species'
p1152
atRp1153
sg37
(lp1154
sg120
g1126
sg121
S'RWLSTKDLYSRLELPGLNQNVHAMFVMPLGFGNPMGDMFARLNNSFWLPPLSLEGAGTGWTVYPPLSHSGPSVDLAFHLTSSLLGAINFTNMRGPLYWTALLLLSLPVLAGTLLDRNFNTFEGGDPLYHLFWFFGHPEVYIIPGFGSHSTYKKFGMYASIGLGFVWSHHMYVGLDDRAYFTSATMIAPTGIKFSWLATYGGRPMLAFLFLFTGGTGVLNASDAFHDTYYTVHFHYVLSMGAFSLGYYYWYGLYNLFWFNFPMHFLGGMPRRPYPDAGWNSGSSYQLGPDESNEPH'
p1155
sg123
F0.010059999999999999
sg124
g125
sg33
S'21'
p1156
sg127
g1
(g128
g12
(dp1157
g130
I4
sg131
g132
sg133
g134
sg135
g132
sg136
I01
sg34
g137
sg138
g134
sg139
I0
sg140
I0
sg141
I0
sg142
g134
sg35
g143
sg144
I0
stRp1158
sg146
g147
sg148
F1
sg149
Nsg30
S'CtheaA'
p1159
sbag1
(g2
g3
NtRp1160
(dp1161
g6
g1
(g7
g3
NtRp1162
(dp1163
g10
g1
(g11
g12
(dtRp1164
sg14
g1
(g11
g12
(dtRp1165
sg16
g1
(g11
g12
(dtRp1166
sg18
g1
(g11
g12
(dtRp1167
sg20
g1
(g11
g12
(dtRp1168
sg22
g1
(g11
g12
(dtRp1169
sbsg24
g25
sg26
g27
((lp1170
g33
ag32
ag29
ag30
atRp1171
sg37
(lp1172
g1
(g2
g3
NtRp1173
(dp1174
g6
g1
(g7
g3
NtRp1175
(dp1176
g10
g1
(g11
g12
(dtRp1177
sg14
g1
(g11
g12
(dtRp1178
sg16
g1
(g11
g12
(dtRp1179
sg18
g1
(g11
g12
(dtRp1180
sg20
g1
(g11
g12
(dtRp1181
sg22
g1
(g11
g12
(dtRp1182
sbsg24
g25
sg26
g27
((lp1183
g33
ag32
ag29
ag30
atRp1184
sg37
(lp1185
g1
(g2
g3
NtRp1186
(dp1187
g6
g1
(g7
g3
NtRp1188
(dp1189
g10
g1
(g11
g12
(dtRp1190
sg14
g1
(g11
g12
(dtRp1191
sg16
g1
(g11
g12
(dtRp1192
sg18
g1
(g11
g12
(dtRp1193
sg20
g1
(g11
g12
(dtRp1194
sg22
g1
(g11
g12
(dtRp1195
sbsg24
g25
sg26
g27
((lp1196
g33
ag32
ag29
ag30
atRp1197
sg37
(lp1198
g1
(g2
g3
NtRp1199
(dp1200
g6
g1
(g7
g3
NtRp1201
(dp1202
g10
g1
(g11
g12
(dtRp1203
sg14
g1
(g11
g12
(dtRp1204
sg16
g1
(g11
g12
(dtRp1205
sg18
g1
(g11
g12
(dtRp1206
sg20
g1
(g11
g12
(dtRp1207
sg22
g1
(g11
g12
(dtRp1208
sbsg24
S'Cor'
p1209
sg26
g27
((lp1210
g29
ag30
aS'sequence'
p1211
ag32
ag33
aS'species'
p1212
atRp1213
sg37
(lp1214
sg120
g1186
sg121
S'RWLSTKDLYSRLELPGLNQNVHAMFVMPLGFGNPMGDMFARLNNSFWLPPLSLEGAGTGWTVYPPLSHSGPSVDLAFHLTSSLLGAINFTNMRGPLFWTALLLLSLPVLAGTLLDRNFNTFEGGDPLYHLFWFFGHPEVYIIPGFGSHSTYKKFGMYASIGLGFVWSHHMYVGLDDRAYFTSATMIAPTGIKFSWLATYGGRPMLAFLFLFTGGTGVLNASDAFHDTYYTVHFHYVLSMGAFSLGYYYWYGLYNLFWFNFPMHFLGGMPRRPYPDAGWNSGSSYQLGPDESNEPH'
p1215
sg123
F0.00132
sg124
g125
sg33
S'2'
sg127
g1
(g128
g12
(dp1216
g130
I4
sg131
g132
sg133
g134
sg135
g132
sg136
I01
sg34
g137
sg138
g134
sg139
I0
sg140
I0
sg141
I0
sg142
g134
sg35
g143
sg144
I0
stRp1217
sg146
g147
sg148
F1
sg149
Nsg30
S'CorthC'
p1218
sbag1
(g2
g3
NtRp1219
(dp1220
g6
g1
(g7
g3
NtRp1221
(dp1222
g10
g1
(g11
g12
(dtRp1223
sg14
g1
(g11
g12
(dtRp1224
sg16
g1
(g11
g12
(dtRp1225
sg18
g1
(g11
g12
(dtRp1226
sg20
g1
(g11
g12
(dtRp1227
sg22
g1
(g11
g12
(dtRp1228
sbsg24
S'Cor'
p1229
sg26
g27
((lp1230
g29
ag30
aS'sequence'
p1231
ag32
ag33
aS'species'
p1232
atRp1233
sg37
(lp1234
sg120
g1186
sg121
S'RWLSTKDLYSRLELPGLNQNVHAMFVMPLGFGNPMGDMFARLNNSFWLPPLSLEGAGTGWTVYPPLSHSGPSVDLAFHLTSSLLGAINFTNMRGPLFWTALLLLSLPVLAGTLLDRNFNTFEGGDPLYHLFWFFGHPEVYIIPGFGSHSTYKKFGMYASIGLGFVWSHHMYVGLDDRAYFTSATMIAPTGIKFSWLATYGGRPMLAFLFLFTGGTGVLNASDAFHDTYYTVHFHYVLSMGAFSLGYYYWYGLYNLFWFNFPMHFLGGMPRRPYPDAGWNSGSSYQLGPDESNEPH'
p1235
sg123
F0.00093000000000000005
sg124
g125
sg33
S'53'
p1236
sg127
g1
(g128
g12
(dp1237
g130
I4
sg131
g132
sg133
g134
sg135
g132
sg136
I01
sg34
g137
sg138
g134
sg139
I0
sg140
I0
sg141
I0
sg142
g134
sg35
g143
sg144
I0
stRp1238
sg146
g147
sg148
F1
sg149
Nsg30
S'CorthB'
p1239
sbasg120
g1173
sg123
F0.00052999999999999998
sg124
g125
sg33
S'3'
sg127
g1
(g128
g12
(dp1240
g130
I6
sg131
g132
sg133
g134
sg135
g132
sg136
I01
sg34
g174
sg138
g134
sg139
I0
sg140
I0
sg141
I0
sg142
g134
sg35
g175
sg144
I0
stRp1241
sg146
g147
sg148
F0.85999999999999999
sg149
Nsg30
S'NoName'
p1242
sbag1
(g2
g3
NtRp1243
(dp1244
g6
g1
(g7
g3
NtRp1245
(dp1246
g10
g1
(g11
g12
(dtRp1247
sg14
g1
(g11
g12
(dtRp1248
sg16
g1
(g11
g12
(dtRp1249
sg18
g1
(g11
g12
(dtRp1250
sg20
g1
(g11
g12
(dtRp1251
sg22
g1
(g11
g12
(dtRp1252
sbsg24
S'Cor'
p1253
sg26
g27
((lp1254
g29
ag30
aS'sequence'
p1255
ag32
ag33
aS'species'
p1256
atRp1257
sg37
(lp1258
sg120
g1173
sg121
S'RWLSTKDLYSRLELPGLNQNVHAMFVMPLGFGNPMGDMFARLNNSFWLPPLSLEGAGTGWTVYPPLSHSGPSVDLAFHLTSSLLGAINFTNMRGPLFWTALLLLSLPVLAGTLLDRNFNTFEGGDPLYHLFWFFGHPEVYIIPGFGSHSTYKKFGMYASIGLGFVWSHHMYVGLDDRAYFTSATMIAPTGIKFSWLATYGGRPMLAFLFLFTGGTGVLNASDAFHDTYYTVHFHYVLSMGAFSLGYYYWYGLYNLFWFNFPMHFLGGMPRRPYPDAGWNSGSSYQLGPDESNEPH'
p1259
sg123
F0.0021099999999999999
sg124
g125
sg33
S'61'
p1260
sg127
g1
(g128
g12
(dp1261
g130
I4
sg131
g132
sg133
g134
sg135
g132
sg136
I01
sg34
g137
sg138
g134
sg139
I0
sg140
I0
sg141
I0
sg142
g134
sg35
g143
sg144
I0
stRp1262
sg146
g147
sg148
F1
sg149
Nsg30
S'CorthA'
p1263
sbasg120
g1160
sg123
F0.0031199999999999999
sg124
g125
sg33
S'23'
p1264
sg127
g1
(g128
g12
(dp1265
g130
I6
sg131
g132
sg133
g134
sg135
g132
sg136
I01
sg34
g174
sg138
g134
sg139
I0
sg140
I0
sg141
I0
sg142
g134
sg35
g175
sg144
I0
stRp1266
sg146
g147
sg148
F0.98999999999999999
sg149
Nsg30
S'NoName'
p1267
sbag1
(g2
g3
NtRp1268
(dp1269
g6
g1
(g7
g3
NtRp1270
(dp1271
g10
g1
(g11
g12
(dtRp1272
sg14
g1
(g11
g12
(dtRp1273
sg16
g1
(g11
g12
(dtRp1274
sg18
g1
(g11
g12
(dtRp1275
sg20
g1
(g11
g12
(dtRp1276
sg22
g1
(g11
g12
(dtRp1277
sbsg24
g25
sg26
g27
((lp1278
g33
ag32
ag29
ag30
atRp1279
sg37
(lp1280
g1
(g2
g3
NtRp1281
(dp1282
g6
g1
(g7
g3
NtRp1283
(dp1284
g10
g1
(g11
g12
(dtRp1285
sg14
g1
(g11
g12
(dtRp1286
sg16
g1
(g11
g12
(dtRp1287
sg18
g1
(g11
g12
(dtRp1288
sg20
g1
(g11
g12
(dtRp1289
sg22
g1
(g11
g12
(dtRp1290
sbsg24
g25
sg26
g27
((lp1291
g33
ag32
ag29
ag30
atRp1292
sg37
(lp1293
g1
(g2
g3
NtRp1294
(dp1295
g6
g1
(g7
g3
NtRp1296
(dp1297
g10
g1
(g11
g12
(dtRp1298
sg14
g1
(g11
g12
(dtRp1299
sg16
g1
(g11
g12
(dtRp1300
sg18
g1
(g11
g12
(dtRp1301
sg20
g1
(g11
g12
(dtRp1302
sg22
g1
(g11
g12
(dtRp1303
sbsg24
S'Cpa'
p1304
sg26
g27
((lp1305
g29
ag30
aS'sequence'
p1306
ag32
ag33
aS'species'
p1307
atRp1308
sg37
(lp1309
sg120
g1281
sg121
S'RWLSTKDLYSRLELPGLNQNVHAMFVMPLGFGNPMGDMFARLNNSFWLPPLSLEGAGTGWTVYPPLSHSGPSVDLAFHLTSSLLGAINFTNMRGPLFWTALLLLSLPVLAGTLLDRNFNTFEGGDPLYHLFWFFGHPEVYIIPGFGSHSTYKKFGMYASIGLGFVWSHHMYVGLDDRAYFTSATMIAPTSIKFSWLATYGGRTALAFIFLFTGGTGVLNSADPFHDSYYVVHFHYVLSMGAFSIGWYLWPGLYNLFWFNFPMHFLGGMPRRNYPDAGWNSGSAYQLGPSGTNEPH'
p1310
sg123
F0.00012999999999999999
sg124
g125
sg33
S'56'
p1311
sg127
g1
(g128
g12
(dp1312
g130
I4
sg131
g132
sg133
g134
sg135
g132
sg136
I01
sg34
g137
sg138
g134
sg139
I0
sg140
I0
sg141
I0
sg142
g134
sg35
g143
sg144
I0
stRp1313
sg146
g147
sg148
F1
sg149
Nsg30
S'CparaD'
p1314
sbag1
(g2
g3
NtRp1315
(dp1316
g6
g1
(g7
g3
NtRp1317
(dp1318
g10
g1
(g11
g12
(dtRp1319
sg14
g1
(g11
g12
(dtRp1320
sg16
g1
(g11
g12
(dtRp1321
sg18
g1
(g11
g12
(dtRp1322
sg20
g1
(g11
g12
(dtRp1323
sg22
g1
(g11
g12
(dtRp1324
sbsg24
S'Cpa'
p1325
sg26
g27
((lp1326
g29
ag30
aS'sequence'
p1327
ag32
ag33
aS'species'
p1328
atRp1329
sg37
(lp1330
sg120
g1281
sg121
S'RWLSTKDLYSRLELPGLNQNVHAMFVMPLGFGNPMGDMFARLNNSFWLPPLSLEGAGTGWTVYPPLSHSGPSVDLAFHLTSSLLGAINFTNMRGPLFWTALLLLSLPVLAGTLLDRNFNTFEGGDPLYHLFWFFGHPEVYIIPGFGSHSTYKKFGMYASIGLGFVWSHHMYVGLDDRAYFTSATMIAPTGIKFSWLATYGGRPMLAFLFLFTGGTGVVNASDAFHDTYYVVHFHYVLSMGAFSLGYYYWYGLYNLFWFNFPMHFLGGMPRRPYPDAGWNSGSSYSLGPDESNEPH'
p1331
sg123
F0.00012999999999999999
sg124
g125
sg33
S'60'
p1332
sg127
g1
(g128
g12
(dp1333
g130
I4
sg131
g132
sg133
g134
sg135
g132
sg136
I01
sg34
g137
sg138
g134
sg139
I0
sg140
I0
sg141
I0
sg142
g134
sg35
g143
sg144
I0
stRp1334
sg146
g147
sg148
F1
sg149
Nsg30
S'CparaB'
p1335
sbasg120
g1268
sg123
F0.00051000000000000004
sg124
g125
sg33
S'59'
p1336
sg127
g1
(g128
g12
(dp1337
g130
I6
sg131
g132
sg133
g134
sg135
g132
sg136
I01
sg34
g174
sg138
g134
sg139
I0
sg140
I0
sg141
I0
sg142
g134
sg35
g175
sg144
I0
stRp1338
sg146
g147
sg148
F0.98999999999999999
sg149
Nsg30
S'NoName'
p1339
sbag1
(g2
g3
NtRp1340
(dp1341
g6
g1
(g7
g3
NtRp1342
(dp1343
g10
g1
(g11
g12
(dtRp1344
sg14
g1
(g11
g12
(dtRp1345
sg16
g1
(g11
g12
(dtRp1346
sg18
g1
(g11
g12
(dtRp1347
sg20
g1
(g11
g12
(dtRp1348
sg22
g1
(g11
g12
(dtRp1349
sbsg24
S'Cpa'
p1350
sg26
g27
((lp1351
g29
ag30
aS'sequence'
p1352
ag32
ag33
aS'species'
p1353
atRp1354
sg37
(lp1355
sg120
g1268
sg121
S'RWLSTKDLYSRLELPGLNQNVHAMFVMPLGFGNPMGDMFARLNNSFWLPPLSLEGAGTGWTVYPPLSHSGPSVDLAFHLTSSLLGAINFTNMRGPLFWTALLLLSLPVLAGTLLDRNFNTFEGGDPLYHLFWFFGHPEVYIIPGFGSHSTYKKFGMYASIGLGFVWSHHMYVGLDDRAYFTSATMIAPTGIKFSWLATYGGRPMLAFLFLFTGGTGVVNASDAFHDTYYVVHFHYVLSMGAFSLGYYYWYGLYNLFWFNFPMHFLGGMPRRPYPDAGWNSGSSYSLGPDESNEPH'
p1356
sg123
F0.00012
sg124
g125
sg33
S'68'
p1357
sg127
g1
(g128
g12
(dp1358
g130
I4
sg131
g132
sg133
g134
sg135
g132
sg136
I01
sg34
g137
sg138
g134
sg139
I0
sg140
I0
sg141
I0
sg142
g134
sg35
g143
sg144
I0
stRp1359
sg146
g147
sg148
F1
sg149
Nsg30
S'CparaC'
p1360
sbasg120
g1160
sg123
F1.0000000000000001e-05
sg124
g125
sg33
S'1'
sg127
g1
(g128
g12
(dp1361
g130
I6
sg131
g132
sg133
g134
sg135
g132
sg136
I01
sg34
g174
sg138
g134
sg139
I0
sg140
I0
sg141
I0
sg142
g134
sg35
g175
sg144
I0
stRp1362
sg146
g147
sg148
F1
sg149
Nsg30
S'NoName'
p1363
sbasg120
g1126
sg123
F0.0032599999999999999
sg124
g125
sg33
S'19'
p1364
sg127
g1
(g128
g12
(dp1365
g130
I6
sg131
g132
sg133
g134
sg135
g132
sg136
I01
sg34
g174
sg138
g134
sg139
I0
sg140
I0
sg141
I0
sg142
g134
sg35
g175
sg144
I0
stRp1366
sg146
g147
sg148
F0.97999999999999998
sg149
Nsg30
S'NoName'
p1367
sbasg120
g1113
sg123
F1.0000000000000001e-05
sg124
g125
sg33
S'25'
p1368
sg127
g1
(g128
g12
(dp1369
g130
I6
sg131
g132
sg133
g134
sg135
g132
sg136
I01
sg34
g174
sg138
g134
sg139
I0
sg140
I0
sg141
I0
sg142
g134
sg35
g175
sg144
I0
stRp1370
sg146
g147
sg148
F1
sg149
Nsg30
S'NoName'
p1371
sbag1
(g2
g3
NtRp1372
(dp1373
g6
g1
(g7
g3
NtRp1374
(dp1375
g10
g1
(g11
g12
(dtRp1376
sg14
g1
(g11
g12
(dtRp1377
sg16
g1
(g11
g12
(dtRp1378
sg18
g1
(g11
g12
(dtRp1379
sg20
g1
(g11
g12
(dtRp1380
sg22
g1
(g11
g12
(dtRp1381
sbsg24
g25
sg26
g27
((lp1382
g33
ag32
ag29
ag30
atRp1383
sg37
(lp1384
g1
(g2
g3
NtRp1385
(dp1386
g6
g1
(g7
g3
NtRp1387
(dp1388
g10
g1
(g11
g12
(dtRp1389
sg14
g1
(g11
g12
(dtRp1390
sg16
g1
(g11
g12
(dtRp1391
sg18
g1
(g11
g12
(dtRp1392
sg20
g1
(g11
g12
(dtRp1393
sg22
g1
(g11
g12
(dtRp1394
sbsg24
g25
sg26
g27
((lp1395
g33
ag32
ag29
ag30
atRp1396
sg37
(lp1397
g1
(g2
g3
NtRp1398
(dp1399
g6
g1
(g7
g3
NtRp1400
(dp1401
g10
g1
(g11
g12
(dtRp1402
sg14
g1
(g11
g12
(dtRp1403
sg16
g1
(g11
g12
(dtRp1404
sg18
g1
(g11
g12
(dtRp1405
sg20
g1
(g11
g12
(dtRp1406
sg22
g1
(g11
g12
(dtRp1407
sbsg24
g25
sg26
g27
((lp1408
g33
ag32
ag29
ag30
atRp1409
sg37
(lp1410
g1
(g2
g3
NtRp1411
(dp1412
g6
g1
(g7
g3
NtRp1413
(dp1414
g10
g1
(g11
g12
(dtRp1415
sg14
g1
(g11
g12
(dtRp1416
sg16
g1
(g11
g12
(dtRp1417
sg18
g1
(g11
g12
(dtRp1418
sg20
g1
(g11
g12
(dtRp1419
sg22
g1
(g11
g12
(dtRp1420
sbsg24
g25
sg26
g27
((lp1421
g33
ag32
ag29
ag30
atRp1422
sg37
(lp1423
g1
(g2
g3
NtRp1424
(dp1425
g6
g1
(g7
g3
NtRp1426
(dp1427
g10
g1
(g11
g12
(dtRp1428
sg14
g1
(g11
g12
(dtRp1429
sg16
g1
(g11
g12
(dtRp1430
sg18
g1
(g11
g12
(dtRp1431
sg20
g1
(g11
g12
(dtRp1432
sg22
g1
(g11
g12
(dtRp1433
sbsg24
g25
sg26
g27
((lp1434
g33
ag32
ag29
ag30
atRp1435
sg37
(lp1436
g1
(g2
g3
NtRp1437
(dp1438
g6
g1
(g7
g3
NtRp1439
(dp1440
g10
g1
(g11
g12
(dtRp1441
sg14
g1
(g11
g12
(dtRp1442
sg16
g1
(g11
g12
(dtRp1443
sg18
g1
(g11
g12
(dtRp1444
sg20
g1
(g11
g12
(dtRp1445
sg22
g1
(g11
g12
(dtRp1446
sbsg24
S'Cme'
p1447
sg26
g27
((lp1448
g29
ag30
aS'sequence'
p1449
ag32
ag33
aS'species'
p1450
atRp1451
sg37
(lp1452
sg120
g1424
sg121
S'RWLSTKDLYSRLELPGLNQNVHAMFVMPLGFGNPMGDMFARLNNSFWLPPLSLEGAGTGWTVYPPLSHSGPSVDLAFHLTSSLLGAINFTNMRGPLYWTALLLLSLPVLAGTLLDRNFNTFEGGDPLYHLFWFFGHPEVYIIPGFGSHSTYKKFGMYASIGLGFVWSHHMYVGLDDRAYFTSATMIAPTGIKFSWLATYGGRPMLAFLFLFTGGTGVLNASDAFHDTYYVVHFHYVLSMGAFSLGYYYWYGLYNLFWFNFPMHFLGGMPRRPYPDAGWNSGSSYQLGPDESNEPH'
p1453
sg123
F0.00012999999999999999
sg124
g125
sg33
S'22'
p1454
sg127
g1
(g128
g12
(dp1455
g130
I4
sg131
g132
sg133
g134
sg135
g132
sg136
I01
sg34
g137
sg138
g134
sg139
I0
sg140
I0
sg141
I0
sg142
g134
sg35
g143
sg144
I0
stRp1456
sg146
g147
sg148
F1
sg149
Nsg30
S'CmetaF'
p1457
sbag1
(g2
g3
NtRp1458
(dp1459
g6
g1
(g7
g3
NtRp1460
(dp1461
g10
g1
(g11
g12
(dtRp1462
sg14
g1
(g11
g12
(dtRp1463
sg16
g1
(g11
g12
(dtRp1464
sg18
g1
(g11
g12
(dtRp1465
sg20
g1
(g11
g12
(dtRp1466
sg22
g1
(g11
g12
(dtRp1467
sbsg24
S'Cme'
p1468
sg26
g27
((lp1469
g29
ag30
aS'sequence'
p1470
ag32
ag33
aS'species'
p1471
atRp1472
sg37
(lp1473
sg120
g1424
sg121
S'RWLSTKDLYSRLELPGLNQNVHAMFVMPLGFGNPMGDMFARLNNSFWLPPLSLEGAGTGWTVYPPLSHSGPSVDLAFHLTSSLLGAINFTNMRGPLYWTALLLLSLPVLAGTLLDRNFNTFEGGDPLYHLFWFFGHPEVYIIPGFGSHSTYKKFGMYASIGLGFVWSHHMYVGLDDRAYFTSATMIAPTGIKFSWLATYGGRPMLAFLFLFTGGTGVLNASDAFHDTYYVVHFHYVLSMGAFSLGYYYWYGLYNLFWFNFPMHFLGGMPRRPYPDAGWNSGSSYQLGPDESNEPH'
p1474
sg123
F0.00012
sg124
g125
sg33
S'79'
p1475
sg127
g1
(g128
g12
(dp1476
g130
I4
sg131
g132
sg133
g134
sg135
g132
sg136
I01
sg34
g137
sg138
g134
sg139
I0
sg140
I0
sg141
I0
sg142
g134
sg35
g143
sg144
I0
stRp1477
sg146
g147
sg148
F1
sg149
Nsg30
S'CmetaE'
p1478
sbasg120
g1411
sg123
F1.0000000000000001e-05
sg124
g125
sg33
S'34'
p1479
sg127
g1
(g128
g12
(dp1480
g130
I6
sg131
g132
sg133
g134
sg135
g132
sg136
I01
sg34
g174
sg138
g134
sg139
I0
sg140
I0
sg141
I0
sg142
g134
sg35
g175
sg144
I0
stRp1481
sg146
g147
sg148
F1
sg149
Nsg30
S'NoName'
p1482
sbag1
(g2
g3
NtRp1483
(dp1484
g6
g1
(g7
g3
NtRp1485
(dp1486
g10
g1
(g11
g12
(dtRp1487
sg14
g1
(g11
g12
(dtRp1488
sg16
g1
(g11
g12
(dtRp1489
sg18
g1
(g11
g12
(dtRp1490
sg20
g1
(g11
g12
(dtRp1491
sg22
g1
(g11
g12
(dtRp1492
sbsg24
S'Cme'
p1493
sg26
g27
((lp1494
g29
ag30
aS'sequence'
p1495
ag32
ag33
aS'species'
p1496
atRp1497
sg37
(lp1498
sg120
g1411
sg121
S'RWLSTKDLYSRLELPGLNQNVHAMFVMPLGFGNPMGDMFARLNNSFWLPPLSLEGAGTGWTVYPPLSHSGPSVDLAFHLTSSLLGAINFTNMRGPLYWTALLLLSLPVLAGTLLDRNFNTFEGGDPLYHLFWFFGHPEVYIIPGFGSHSTYKKFGMYASIGLGFVWSHHMYVGLDDRAYFTSATMIAPTGIKFSWLATYGGRPMLAFLFLFTGGTGVLNASDAFHDTYYVVHFHYVLSMGAFSLGYYYWYGLYNLFWFNFPMHFLGGMPRRPYPDAGWNSGSSYQLGPDESNEPH'
p1499
sg123
F0.00020000000000000001
sg124
g125
sg33
S'5'
sg127
g1
(g128
g12
(dp1500
g130
I4
sg131
g132
sg133
g134
sg135
g132
sg136
I01
sg34
g137
sg138
g134
sg139
I0
sg140
I0
sg141
I0
sg142
g134
sg35
g143
sg144
I0
stRp1501
sg146
g147
sg148
F1
sg149
Nsg30
S'CmetaD'
p1502
sbasg120
g1398
sg123
F1.0000000000000001e-05
sg124
g125
sg33
S'66'
p1503
sg127
g1
(g128
g12
(dp1504
g130
I6
sg131
g132
sg133
g134
sg135
g132
sg136
I01
sg34
g174
sg138
g134
sg139
I0
sg140
I0
sg141
I0
sg142
g134
sg35
g175
sg144
I0
stRp1505
sg146
g147
sg148
F1
sg149
Nsg30
S'NoName'
p1506
sbag1
(g2
g3
NtRp1507
(dp1508
g6
g1
(g7
g3
NtRp1509
(dp1510
g10
g1
(g11
g12
(dtRp1511
sg14
g1
(g11
g12
(dtRp1512
sg16
g1
(g11
g12
(dtRp1513
sg18
g1
(g11
g12
(dtRp1514
sg20
g1
(g11
g12
(dtRp1515
sg22
g1
(g11
g12
(dtRp1516
sbsg24
S'Cme'
p1517
sg26
g27
((lp1518
g29
ag30
aS'sequence'
p1519
ag32
ag33
aS'species'
p1520
atRp1521
sg37
(lp1522
sg120
g1398
sg121
S'RWLSTKDLYSRLELPGLNQNVHAMFVMPLGFGNPMGDMFARLNNSFWLPPLSLEGAGTGWTVYPPLSHSGPSVDLAFHLTSSLLGAINFTNMRGPLYWTALLLLSLPVLAGTLLDRNFNTFEGGDPLYHLFWFFGHPEVYIIPGFGSHSTYKKFGMYASIGLGFVWSHHMYVGLDDRAYFTSATMIAPTGIKFSWLATYGGRPMLAFLFLFTGGTGVLNASDAFHDTYYVVHFHYVLSMGAFSLGYYYWYGLYNLFWFNFPMHFLGGMPRRPYPDAGWNSGSSYQLGPDESNEPH'
p1523
sg123
F0.00052999999999999998
sg124
g125
sg33
S'6'
sg127
g1
(g128
g12
(dp1524
g130
I4
sg131
g132
sg133
g134
sg135
g132
sg136
I01
sg34
g137
sg138
g134
sg139
I0
sg140
I0
sg141
I0
sg142
g134
sg35
g143
sg144
I0
stRp1525
sg146
g147
sg148
F1
sg149
Nsg30
S'CmetaC'
p1526
sbasg120
g1385
sg123
F1.0000000000000001e-05
sg124
g125
sg33
S'64'
p1527
sg127
g1
(g128
g12
(dp1528
g130
I6
sg131
g132
sg133
g134
sg135
g132
sg136
I01
sg34
g174
sg138
g134
sg139
I0
sg140
I0
sg141
I0
sg142
g134
sg35
g175
sg144
I0
stRp1529
sg146
g147
sg148
F1
sg149
Nsg30
S'NoName'
p1530
sbag1
(g2
g3
NtRp1531
(dp1532
g6
g1
(g7
g3
NtRp1533
(dp1534
g10
g1
(g11
g12
(dtRp1535
sg14
g1
(g11
g12
(dtRp1536
sg16
g1
(g11
g12
(dtRp1537
sg18
g1
(g11
g12
(dtRp1538
sg20
g1
(g11
g12
(dtRp1539
sg22
g1
(g11
g12
(dtRp1540
sbsg24
S'Cme'
p1541
sg26
g27
((lp1542
g29
ag30
aS'sequence'
p1543
ag32
ag33
aS'species'
p1544
atRp1545
sg37
(lp1546
sg120
g1385
sg121
S'RWLSTKDLYSRLELPGLNQNVHAMFVMPLGFGNPMGDMFARLNNSFWLPPLSLEGAGTGWTVYPPLSHSGPSVDLAFHLTSSLLGAINFTNMRGPLYWTALLLLSLPVLAGTLLDRNFNTFEGGDPLYHLFWFFGHPEVYIIPGFGSHSTYKKFGMYASIGLGFVWSHHMYVGLDDRAYFTSATMIAPTGIKFSWLATYGGRPMLAFLFLFTGGTGVLNASDAFHDTYYVVHFHYVLSMGAFSLGYYYWYGLYNLFWFNFPMHFLGGMPRRPYPDAGWNSGSSYQLGPDESNEPH'
p1547
sg123
F0.00012
sg124
g125
sg33
S'9'
sg127
g1
(g128
g12
(dp1548
g130
I4
sg131
g132
sg133
g134
sg135
g132
sg136
I01
sg34
g137
sg138
g134
sg139
I0
sg140
I0
sg141
I0
sg142
g134
sg35
g143
sg144
I0
stRp1549
sg146
g147
sg148
F1
sg149
Nsg30
S'CmetaB'
p1550
sbasg120
g1372
sg123
F1.0000000000000001e-05
sg124
g125
sg33
S'63'
p1551
sg127
g1
(g128
g12
(dp1552
g130
I6
sg131
g132
sg133
g134
sg135
g132
sg136
I01
sg34
g174
sg138
g134
sg139
I0
sg140
I0
sg141
I0
sg142
g134
sg35
g175
sg144
I0
stRp1553
sg146
g147
sg148
F1
sg149
Nsg30
S'NoName'
p1554
sbag1
(g2
g3
NtRp1555
(dp1556
g6
g1
(g7
g3
NtRp1557
(dp1558
g10
g1
(g11
g12
(dtRp1559
sg14
g1
(g11
g12
(dtRp1560
sg16
g1
(g11
g12
(dtRp1561
sg18
g1
(g11
g12
(dtRp1562
sg20
g1
(g11
g12
(dtRp1563
sg22
g1
(g11
g12
(dtRp1564
sbsg24
S'Cme'
p1565
sg26
g27
((lp1566
g29
ag30
aS'sequence'
p1567
ag32
ag33
aS'species'
p1568
atRp1569
sg37
(lp1570
sg120
g1372
sg121
S'RWLSTKDLYSRLELPGLNQNVHAMFVMPLGFGNPMGDMFARLNNSFWLPPLSLEGAGTGWTVYPPLSHSGPSVDLAFHLTSSLLGAINFTNMRGPLYWTALLLLSLPVLAGTLLDRNFNTFEGGDPLYHLFWFFGHPEVYIIPGFGSHSTYKKFGMYASIGLGFVWSHHMYVGLDDRAYFTSATMIAPTGIKFSWLATYGGRPMLAFLFLFTGGTGVLNASDAFHDTYYVVHFHYVLSMGAFSLGYYYWYGLYNLFWFNFPMHFLGGMPRRPYPDAGWNSGSSYQLGPDESNEPH'
p1571
sg123
F0.00012999999999999999
sg124
g125
sg33
S'80'
p1572
sg127
g1
(g128
g12
(dp1573
g130
I4
sg131
g132
sg133
g134
sg135
g132
sg136
I01
sg34
g137
sg138
g134
sg139
I0
sg140
I0
sg141
I0
sg142
g134
sg35
g143
sg144
I0
stRp1574
sg146
g147
sg148
F1
sg149
Nsg30
S'CmetaA'
p1575
sbasg120
g1113
sg123
F0.020930000000000001
sg124
g125
sg33
S'54'
p1576
sg127
g1
(g128
g12
(dp1577
g130
I6
sg131
g132
sg133
g134
sg135
g132
sg136
I01
sg34
g174
sg138
g134
sg139
I0
sg140
I0
sg141
I0
sg142
g134
sg35
g175
sg144
I0
stRp1578
sg146
g147
sg148
F0.98999999999999999
sg149
Nsg30
S'NoName'
p1579
sbasg120
g1100
sg123
F0.045289999999999997
sg124
g125
sg33
S'16'
p1580
sg127
g1
(g128
g12
(dp1581
g130
I6
sg131
g132
sg133
g134
sg135
g132
sg136
I01
sg34
g174
sg138
g134
sg139
I0
sg140
I0
sg141
I0
sg142
g134
sg35
g175
sg144
I0
stRp1582
sg146
g147
sg148
F0.98999999999999999
sg149
Nsg30
S'NoName'
p1583
sbag1
(g2
g3
NtRp1584
(dp1585
g6
g1
(g7
g3
NtRp1586
(dp1587
g10
g1
(g11
g12
(dtRp1588
sg14
g1
(g11
g12
(dtRp1589
sg16
g1
(g11
g12
(dtRp1590
sg18
g1
(g11
g12
(dtRp1591
sg20
g1
(g11
g12
(dtRp1592
sg22
g1
(g11
g12
(dtRp1593
sbsg24
S'Cji'
p1594
sg26
g27
((lp1595
g29
ag30
aS'sequence'
p1596
ag32
ag33
aS'species'
p1597
atRp1598
sg37
(lp1599
sg120
g1100
sg121
S'RWLSTKDLYSRLELPGLNQNVHAMFVMPLGFGNPMGDMFARLNNSFWLPPLSLEGAGTGWTVYPPLSHSGPSVDLAFHLTSSLLGAINFTNMRGPMFWTALLLLSLPVLAGTLLDRNFNTFDGGDPLYHLFWFFGHPEVYIIPGFGSHSTYKKFGMYASIGLGFVWSHHMYVGLDDRAYFTSATMIAPTGIKFSWLATYGGRPMLAFLFLFTGGTGVLNASDAFHDTYYTVHFHYVLSMGAFSLGYYYWYGLYNLFWFNFPMHFLGGMPRRPYPDAGWNSGSSYQLGPDESNEPH'
p1600
sg123
F0.013140000000000001
sg124
g125
sg33
S'73'
p1601
sg127
g1
(g128
g12
(dp1602
g130
I4
sg131
g132
sg133
g134
sg135
g132
sg136
I01
sg34
g137
sg138
g134
sg139
I0
sg140
I0
sg141
I0
sg142
g134
sg35
g143
sg144
I0
stRp1603
sg146
g147
sg148
F1
sg149
Nsg30
S'CjiufA'
p1604
sbasg120
g1028
sg123
F0.044909999999999999
sg124
g125
sg33
S'14'
p1605
sg127
g1
(g128
g12
(dp1606
g130
I6
sg131
g132
sg133
g134
sg135
g132
sg136
I01
sg34
g174
sg138
g134
sg139
I0
sg140
I0
sg141
I0
sg142
g134
sg35
g175
sg144
I0
stRp1607
sg146
g147
sg148
F0.98999999999999999
sg149
Nsg30
S'NoName'
p1608
sbasg120
g1015
sg123
F0.082199999999999995
sg124
g125
sg33
S'69'
p1609
sg127
g1
(g128
g12
(dp1610
g130
I6
sg131
g132
sg133
g134
sg135
g132
sg136
I01
sg34
g174
sg138
g134
sg139
I0
sg140
I0
sg141
I0
sg142
g134
sg35
g175
sg144
I0
stRp1611
sg146
g147
sg148
F0.98999999999999999
sg149
Nsg30
S'NoName'
p1612
sbag1
(g2
g3
NtRp1613
(dp1614
g6
g1
(g7
g3
NtRp1615
(dp1616
g10
g1
(g11
g12
(dtRp1617
sg14
g1
(g11
g12
(dtRp1618
sg16
g1
(g11
g12
(dtRp1619
sg18
g1
(g11
g12
(dtRp1620
sg20
g1
(g11
g12
(dtRp1621
sg22
g1
(g11
g12
(dtRp1622
sbsg24
g25
sg26
g27
((lp1623
g33
ag32
ag29
ag30
atRp1624
sg37
(lp1625
g1
(g2
g3
NtRp1626
(dp1627
g6
g1
(g7
g3
NtRp1628
(dp1629
g10
g1
(g11
g12
(dtRp1630
sg14
g1
(g11
g12
(dtRp1631
sg16
g1
(g11
g12
(dtRp1632
sg18
g1
(g11
g12
(dtRp1633
sg20
g1
(g11
g12
(dtRp1634
sg22
g1
(g11
g12
(dtRp1635
sbsg24
g25
sg26
g27
((lp1636
g33
ag32
ag29
ag30
atRp1637
sg37
(lp1638
g1
(g2
g3
NtRp1639
(dp1640
g6
g1
(g7
g3
NtRp1641
(dp1642
g10
g1
(g11
g12
(dtRp1643
sg14
g1
(g11
g12
(dtRp1644
sg16
g1
(g11
g12
(dtRp1645
sg18
g1
(g11
g12
(dtRp1646
sg20
g1
(g11
g12
(dtRp1647
sg22
g1
(g11
g12
(dtRp1648
sbsg24
S'Cco'
p1649
sg26
g27
((lp1650
g29
ag30
aS'sequence'
p1651
ag32
ag33
aS'species'
p1652
atRp1653
sg37
(lp1654
sg120
g1626
sg121
S'RWLSTKDLYSRMELPGLNQNVHAMFVMPLGFGNPMGDMFARLNNSFWLPPLSLEGAGTGWTLYAPLSHSGPSVDLAFHLTSSLLGAINFTNMRGPLFWTALLLLSLPVLAATLLDRNFNTFEGGDPLYHLFFVLMHPEVYIIPGFGSHSTYKKFGMYASMGLGFVWSHHMYVGLDDRAYFTSATMIAPTGIKFSWLATYGGRPMLAFLFLFTGGTGVLNASDAFHDTYYIKHFHYVLSMGAFSLGYYYWYGLYNMFWFNFPMHFLGGMPRRPYPDAGWNSGSSYQLGPDESNEPH'
p1655
sg123
F0.057970000000000001
sg124
g125
sg33
S'37'
p1656
sg127
g1
(g128
g12
(dp1657
g130
I4
sg131
g132
sg133
g134
sg135
g132
sg136
I01
sg34
g137
sg138
g134
sg139
I0
sg140
I0
sg141
I0
sg142
g134
sg35
g143
sg144
I0
stRp1658
sg146
g147
sg148
F1
sg149
Nsg30
S'CcoryA'
p1659
sbag1
(g2
g3
NtRp1660
(dp1661
g6
g1
(g7
g3
NtRp1662
(dp1663
g10
g1
(g11
g12
(dtRp1664
sg14
g1
(g11
g12
(dtRp1665
sg16
g1
(g11
g12
(dtRp1666
sg18
g1
(g11
g12
(dtRp1667
sg20
g1
(g11
g12
(dtRp1668
sg22
g1
(g11
g12
(dtRp1669
sbsg24
S'Cch'
p1670
sg26
g27
((lp1671
g29
ag30
aS'sequence'
p1672
ag32
ag33
aS'species'
p1673
atRp1674
sg37
(lp1675
sg120
g1626
sg121
S'RWLSTKDLYSRMELPSLNQNVHAMFVMPLGFGNPMGDMFARLNNSFWLPPLSLEGAGTGWTLYAPLSHSGPSVDLAFHLTSSLLGAINFTNMRGPLFWTALLLLSLPVLAATLLDRNFNTFEGGDPLYHLFWFYMYKDYYIIPGFGSHSTYKKFGMYASIGLGFVWSHHMFVGLDDRAYFTSATMIAPTGIKFSWLATYGGRPMLAFLFLFTGGTGVLNASDAFHDTYYVVHFHYVLSMGAFSLGYYYWYGLYNLFWFNFPMHFLGGMPRRPYPDAGWNSGSSYQLGPDESNEPH'
p1676
sg123
F0.052440000000000001
sg124
g125
sg33
S'62'
p1677
sg127
g1
(g128
g12
(dp1678
g130
I4
sg131
g132
sg133
g134
sg135
g132
sg136
I01
sg34
g137
sg138
g134
sg139
I0
sg140
I0
sg141
I0
sg142
g134
sg35
g143
sg144
I0
stRp1679
sg146
g147
sg148
F1
sg149
Nsg30
S'CchauA'
p1680
sbasg120
g1613
sg123
F0.16861999999999999
sg124
g125
sg33
S'51'
p1681
sg127
g1
(g128
g12
(dp1682
g130
I6
sg131
g132
sg133
g134
sg135
g132
sg136
I01
sg34
g174
sg138
g134
sg139
I0
sg140
I0
sg141
I0
sg142
g134
sg35
g175
sg144
I0
stRp1683
sg146
g147
sg148
F0.98999999999999999
sg149
Nsg30
S'NoName'
p1684
sbag1
(g2
g3
NtRp1685
(dp1686
g6
g1
(g7
g3
NtRp1687
(dp1688
g10
g1
(g11
g12
(dtRp1689
sg14
g1
(g11
g12
(dtRp1690
sg16
g1
(g11
g12
(dtRp1691
sg18
g1
(g11
g12
(dtRp1692
sg20
g1
(g11
g12
(dtRp1693
sg22
g1
(g11
g12
(dtRp1694
sbsg24
S'Cbo'
p1695
sg26
g27
((lp1696
g29
ag30
aS'sequence'
p1697
ag32
ag33
aS'species'
p1698
atRp1699
sg37
(lp1700
sg120
g1613
sg121
S'RWLSTKDLYSRMELPGLNQNVHAMFVMPLGFGNPMGDMFARLNNSFWLPPLSLEGAGTGWTVYPPLSHSGPSVDLAFHLTSSLLGAINFTNMRGPLFWTALLLLSLPVLAATLLDRNFNTFEGGDPLYHLFWFFGHPEVYIIPGFGSHSTYKKFGMYASIGLGFVWSHHMYVGLDDRAYFTSATMIAPTGIKFSWLATYGGRPMLAFLFLFTGGTGVLNASDAFHDTYYVVHFHYVLSMGAFSLAYYYWYGLYNLFWFNFPMHFLGGMPRRPYPDAGWNSGSSYQLGPDESNEPH'
p1701
sg123
F0.20199
sg124
g125
sg33
S'120'
p1702
sg127
g1
(g128
g12
(dp1703
g130
I4
sg131
g132
sg133
g134
sg135
g132
sg136
I01
sg34
g137
sg138
g134
sg139
I0
sg140
I0
sg141
I0
sg142
g134
sg35
g143
sg144
I0
stRp1704
sg146
g147
sg148
F1
sg149
Nsg30
S'CbohiA'
p1705
sbasg120
g1015
sg123
F0.14915999999999999
sg124
g125
sg33
S'12'
p1706
sg127
g1
(g128
g12
(dp1707
g130
I6
sg131
g132
sg133
g134
sg135
g132
sg136
I01
sg34
g174
sg138
g134
sg139
I0
sg140
I0
sg141
I0
sg142
g134
sg35
g175
sg144
I0
stRp1708
sg146
g147
sg148
F0.98999999999999999
sg149
Nsg30
S'NoName'
p1709
sbasg120
g1002
sg123
F0.036799999999999999
sg124
g125
sg33
S'89'
p1710
sg127
g1
(g128
g12
(dp1711
g130
I6
sg131
g132
sg133
g134
sg135
g132
sg136
I01
sg34
g174
sg138
g134
sg139
I0
sg140
I0
sg141
I0
sg142
g134
sg35
g175
sg144
I0
stRp1712
sg146
g147
sg148
F0.98999999999999999
sg149
Nsg30
S'NoName'
p1713
sbag1
(g2
g3
NtRp1714
(dp1715
g6
g1
(g7
g3
NtRp1716
(dp1717
g10
g1
(g11
g12
(dtRp1718
sg14
g1
(g11
g12
(dtRp1719
sg16
g1
(g11
g12
(dtRp1720
sg18
g1
(g11
g12
(dtRp1721
sg20
g1
(g11
g12
(dtRp1722
sg22
g1
(g11
g12
(dtRp1723
sbsg24
g25
sg26
g27
((lp1724
g33
ag32
ag29
ag30
atRp1725
sg37
(lp1726
g1
(g2
g3
NtRp1727
(dp1728
g6
g1
(g7
g3
NtRp1729
(dp1730
g10
g1
(g11
g12
(dtRp1731
sg14
g1
(g11
g12
(dtRp1732
sg16
g1
(g11
g12
(dtRp1733
sg18
g1
(g11
g12
(dtRp1734
sg20
g1
(g11
g12
(dtRp1735
sg22
g1
(g11
g12
(dtRp1736
sbsg24
g25
sg26
g27
((lp1737
g33
ag32
ag29
ag30
atRp1738
sg37
(lp1739
g1
(g2
g3
NtRp1740
(dp1741
g6
g1
(g7
g3
NtRp1742
(dp1743
g10
g1
(g11
g12
(dtRp1744
sg14
g1
(g11
g12
(dtRp1745
sg16
g1
(g11
g12
(dtRp1746
sg18
g1
(g11
g12
(dtRp1747
sg20
g1
(g11
g12
(dtRp1748
sg22
g1
(g11
g12
(dtRp1749
sbsg24
S'Cma'
p1750
sg26
g27
((lp1751
g29
ag30
aS'sequence'
p1752
ag32
ag33
aS'species'
p1753
atRp1754
sg37
(lp1755
sg120
g1727
sg121
S'RWLSTKDLYSRLELPGLSQNVHAMFVMPLGFGNPLGDMFARLNNSFWLPPLSLEGAGTGWTVYPPLSHSGPSVDLAFHLTSSLLGAINFTNMRGPLYWTALLLLSLPVLAGTLLDRNFNTFEGGDPLYHLFWFFGHPEVYMIPGFGSHSTYKKFGMYASMGLGFVWSHHMYVGLDDRAYFTSATMIAPTGIKFSWLATYGGRPMLAFLFLFTGGTGVLNASDAFHDTYYVVHFHYVLSMGAFSLGYYYWSGLYNLYWFNFPMHFLGGMPRRPYPDAGWNSGSSYQLGPDESNEPH'
p1756
sg123
F0.24277000000000001
sg124
g125
sg33
S'109'
p1757
sg127
g1
(g128
g12
(dp1758
g130
I4
sg131
g132
sg133
g134
sg135
g132
sg136
I01
sg34
g137
sg138
g134
sg139
I0
sg140
I0
sg141
I0
sg142
g134
sg35
g143
sg144
I0
stRp1759
sg146
g147
sg148
F1
sg149
Nsg30
S'CmaltA'
p1760
sbag1
(g2
g3
NtRp1761
(dp1762
g6
g1
(g7
g3
NtRp1763
(dp1764
g10
g1
(g11
g12
(dtRp1765
sg14
g1
(g11
g12
(dtRp1766
sg16
g1
(g11
g12
(dtRp1767
sg18
g1
(g11
g12
(dtRp1768
sg20
g1
(g11
g12
(dtRp1769
sg22
g1
(g11
g12
(dtRp1770
sbsg24
g25
sg26
g27
((lp1771
g33
ag32
ag29
ag30
atRp1772
sg37
(lp1773
g1
(g2
g3
NtRp1774
(dp1775
g6
g1
(g7
g3
NtRp1776
(dp1777
g10
g1
(g11
g12
(dtRp1778
sg14
g1
(g11
g12
(dtRp1779
sg16
g1
(g11
g12
(dtRp1780
sg18
g1
(g11
g12
(dtRp1781
sg20
g1
(g11
g12
(dtRp1782
sg22
g1
(g11
g12
(dtRp1783
sbsg24
g25
sg26
g27
((lp1784
g33
ag32
ag29
ag30
atRp1785
sg37
(lp1786
g1
(g2
g3
NtRp1787
(dp1788
g6
g1
(g7
g3
NtRp1789
(dp1790
g10
g1
(g11
g12
(dtRp1791
sg14
g1
(g11
g12
(dtRp1792
sg16
g1
(g11
g12
(dtRp1793
sg18
g1
(g11
g12
(dtRp1794
sg20
g1
(g11
g12
(dtRp1795
sg22
g1
(g11
g12
(dtRp1796
sbsg24
g25
sg26
g27
((lp1797
g33
ag32
ag29
ag30
atRp1798
sg37
(lp1799
g1
(g2
g3
NtRp1800
(dp1801
g6
g1
(g7
g3
NtRp1802
(dp1803
g10
g1
(g11
g12
(dtRp1804
sg14
g1
(g11
g12
(dtRp1805
sg16
g1
(g11
g12
(dtRp1806
sg18
g1
(g11
g12
(dtRp1807
sg20
g1
(g11
g12
(dtRp1808
sg22
g1
(g11
g12
(dtRp1809
sbsg24
g25
sg26
g27
((lp1810
g33
ag32
ag29
ag30
atRp1811
sg37
(lp1812
g1
(g2
g3
NtRp1813
(dp1814
g6
g1
(g7
g3
NtRp1815
(dp1816
g10
g1
(g11
g12
(dtRp1817
sg14
g1
(g11
g12
(dtRp1818
sg16
g1
(g11
g12
(dtRp1819
sg18
g1
(g11
g12
(dtRp1820
sg20
g1
(g11
g12
(dtRp1821
sg22
g1
(g11
g12
(dtRp1822
sbsg24
S'Ctr'
p1823
sg26
g27
((lp1824
g29
ag30
aS'sequence'
p1825
ag32
ag33
aS'species'
p1826
atRp1827
sg37
(lp1828
sg120
g1800
sg121
S'RWLSTKDLYSRLELPGLNQNVHAMFVMPLGFGNPMGDMFARLNNSFWLPPLSLEGAGTGWTVYPPLSHSGPSVDLAFHLTSSLLGAINFTNMRGPLFWTALLLLSLPVLAGTLLDRNFNTFEGGDPLYHLFWFFGHPEVYIIPGFGSHSTYKKFGMYASIGLGFVWSHHMYVGLDDRAYFTSATMIAPTGIKFSWLATYGGRPMLAFLFLFTGGTGVLNASDAFHDSYYVVHFHYVLSMGAFSLGYYYWPGLYNLYWFNFPMHFLGGMPRRPYPDAGWNSGSSYQLGPDEANEPH'
p1829
sg123
F0.00064000000000000005
sg124
g125
sg33
S'31'
p1830
sg127
g1
(g128
g12
(dp1831
g130
I4
sg131
g132
sg133
g134
sg135
g132
sg136
I01
sg34
g137
sg138
g134
sg139
I0
sg140
I0
sg141
I0
sg142
g134
sg35
g143
sg144
I0
stRp1832
sg146
g147
sg148
F1
sg149
Nsg30
S'CtropB'
p1833
sbag1
(g2
g3
NtRp1834
(dp1835
g6
g1
(g7
g3
NtRp1836
(dp1837
g10
g1
(g11
g12
(dtRp1838
sg14
g1
(g11
g12
(dtRp1839
sg16
g1
(g11
g12
(dtRp1840
sg18
g1
(g11
g12
(dtRp1841
sg20
g1
(g11
g12
(dtRp1842
sg22
g1
(g11
g12
(dtRp1843
sbsg24
S'Ctr'
p1844
sg26
g27
((lp1845
g29
ag30
aS'sequence'
p1846
ag32
ag33
aS'species'
p1847
atRp1848
sg37
(lp1849
sg120
g1800
sg121
S'RWLSTKDLYSRLELPGLNQNVHAMFVMPLGFGNPMGDMFARLNNSFWLPPLSLEGAGTGWTVYPPLSHSGPSVDLAFHLTSSLLGAINFTNMRGPLFWTALLLLSLPVLAGTLLDRNFNTFEGGDPLYHLFWFFGHPEVYIIPGFGSHSTYKKFGMYASIGLGFVWSHHMYVGLDDRAYFTSATMIAPTGIKFSWLATYGGRPMLAFLFLFTGGTGVLNASDAFHDSYYVVHFHYVLSMGAFSLGYYYWPGLYNLYWFNFPMHFLGGMPRRPYPDAGWNSGSSYQLGPDEANEPH'
p1850
sg123
F0.00040000000000000002
sg124
g125
sg33
S'55'
p1851
sg127
g1
(g128
g12
(dp1852
g130
I4
sg131
g132
sg133
g134
sg135
g132
sg136
I01
sg34
g137
sg138
g134
sg139
I0
sg140
I0
sg141
I0
sg142
g134
sg35
g143
sg144
I0
stRp1853
sg146
g147
sg148
F1
sg149
Nsg30
S'CtropA'
p1854
sbasg120
g1787
sg123
F0.032030000000000003
sg124
g125
sg33
S'42'
p1855
sg127
g1
(g128
g12
(dp1856
g130
I6
sg131
g132
sg133
g134
sg135
g132
sg136
I01
sg34
g174
sg138
g134
sg139
I0
sg140
I0
sg141
I0
sg142
g134
sg35
g175
sg144
I0
stRp1857
sg146
g147
sg148
F0.98999999999999999
sg149
Nsg30
S'NoName'
p1858
sbag1
(g2
g3
NtRp1859
(dp1860
g6
g1
(g7
g3
NtRp1861
(dp1862
g10
g1
(g11
g12
(dtRp1863
sg14
g1
(g11
g12
(dtRp1864
sg16
g1
(g11
g12
(dtRp1865
sg18
g1
(g11
g12
(dtRp1866
sg20
g1
(g11
g12
(dtRp1867
sg22
g1
(g11
g12
(dtRp1868
sbsg24
S'Cso'
p1869
sg26
g27
((lp1870
g29
ag30
aS'sequence'
p1871
ag32
ag33
aS'species'
p1872
atRp1873
sg37
(lp1874
sg120
g1787
sg121
S'RWLSTKDLYSRLELPGLNQNVHAMFVMPLGFGNPMGDMFARLNNSFWLPPLSLEGAGTGWTVYPPLSHSGPSVDLAFHLTSSLLGAMNFTNMRGPLFWTALLLLSLPVLAGTLLDRNFNTFEGGDPLYHLFWFFGHPEVYIIPGFGSHSTYKKFGMYASIGLGFVWSHHMYVGLDDRAYFTSATMIAPTGIKFSWLATYGGRPMLAFLFLFTGGTGVLNASDAFHDTYYVVHFHYVLSMGAFSLGYYYWPGLYNLYWFNFPMHFLGGMPRRPYPDAGWNSGSSYQLGPDEANEPH'
p1875
sg123
F0.033649999999999999
sg124
g125
sg33
S'113'
p1876
sg127
g1
(g128
g12
(dp1877
g130
I4
sg131
g132
sg133
g134
sg135
g132
sg136
I01
sg34
g137
sg138
g134
sg139
I0
sg140
I0
sg141
I0
sg142
g134
sg35
g143
sg144
I0
stRp1878
sg146
g147
sg148
F1
sg149
Nsg30
S'CsojaA'
p1879
sbasg120
g1774
sg123
F0.019990000000000001
sg124
g125
sg33
S'50'
p1880
sg127
g1
(g128
g12
(dp1881
g130
I6
sg131
g132
sg133
g134
sg135
g132
sg136
I01
sg34
g174
sg138
g134
sg139
I0
sg140
I0
sg141
I0
sg142
g134
sg35
g175
sg144
I0
stRp1882
sg146
g147
sg148
F0.98999999999999999
sg149
Nsg30
S'NoName'
p1883
sbag1
(g2
g3
NtRp1884
(dp1885
g6
g1
(g7
g3
NtRp1886
(dp1887
g10
g1
(g11
g12
(dtRp1888
sg14
g1
(g11
g12
(dtRp1889
sg16
g1
(g11
g12
(dtRp1890
sg18
g1
(g11
g12
(dtRp1891
sg20
g1
(g11
g12
(dtRp1892
sg22
g1
(g11
g12
(dtRp1893
sbsg24
g25
sg26
g27
((lp1894
g33
ag32
ag29
ag30
atRp1895
sg37
(lp1896
g1
(g2
g3
NtRp1897
(dp1898
g6
g1
(g7
g3
NtRp1899
(dp1900
g10
g1
(g11
g12
(dtRp1901
sg14
g1
(g11
g12
(dtRp1902
sg16
g1
(g11
g12
(dtRp1903
sg18
g1
(g11
g12
(dtRp1904
sg20
g1
(g11
g12
(dtRp1905
sg22
g1
(g11
g12
(dtRp1906
sbsg24
S'Cte'
p1907
sg26
g27
((lp1908
g29
ag30
aS'sequence'
p1909
ag32
ag33
aS'species'
p1910
atRp1911
sg37
(lp1912
sg120
g1884
sg121
S'RWLSTKDLYSRLELPGLNQNVHAMFVMPLGFGNPMGDMFARLNNSFWLPPLSLEGAGTGWTVYPPLSHSGPSVDMAFHLTSSLLGAINFTNMRGPLFWTALLLLSLPVLAGTLLDRNFNTFEGGDPLYHLFWFFGHPEVYIIPGFGSHSTYKKFGMYASIGLGFVWSHHMFVGLDDRAYFTSATMMAPTGIKFSWLATYGGRPMLAFLFLFTGGTGVLNASDSMHDTYYVVHFHYVLSMGAFSLGYYYWPGLYNLYWFNFPMHFLGGMPRRPYPDAGWNSGSSLQLGPDESNEPH'
p1913
sg123
F0.084209999999999993
sg124
g125
sg33
S'87'
p1914
sg127
g1
(g128
g12
(dp1915
g130
I4
sg131
g132
sg133
g134
sg135
g132
sg136
I01
sg34
g137
sg138
g134
sg139
I0
sg140
I0
sg141
I0
sg142
g134
sg35
g143
sg144
I0
stRp1916
sg146
g147
sg148
F1
sg149
Nsg30
S'CtetrA'
p1917
sbag1
(g2
g3
NtRp1918
(dp1919
g6
g1
(g7
g3
NtRp1920
(dp1921
g10
g1
(g11
g12
(dtRp1922
sg14
g1
(g11
g12
(dtRp1923
sg16
g1
(g11
g12
(dtRp1924
sg18
g1
(g11
g12
(dtRp1925
sg20
g1
(g11
g12
(dtRp1926
sg22
g1
(g11
g12
(dtRp1927
sbsg24
g25
sg26
g27
((lp1928
g33
ag32
ag29
ag30
atRp1929
sg37
(lp1930
g1
(g2
g3
NtRp1931
(dp1932
g6
g1
(g7
g3
NtRp1933
(dp1934
g10
g1
(g11
g12
(dtRp1935
sg14
g1
(g11
g12
(dtRp1936
sg16
g1
(g11
g12
(dtRp1937
sg18
g1
(g11
g12
(dtRp1938
sg20
g1
(g11
g12
(dtRp1939
sg22
g1
(g11
g12
(dtRp1940
sbsg24
g25
sg26
g27
((lp1941
g33
ag32
ag29
ag30
atRp1942
sg37
(lp1943
g1
(g2
g3
NtRp1944
(dp1945
g6
g1
(g7
g3
NtRp1946
(dp1947
g10
g1
(g11
g12
(dtRp1948
sg14
g1
(g11
g12
(dtRp1949
sg16
g1
(g11
g12
(dtRp1950
sg18
g1
(g11
g12
(dtRp1951
sg20
g1
(g11
g12
(dtRp1952
sg22
g1
(g11
g12
(dtRp1953
sbsg24
S'Cvi'
p1954
sg26
g27
((lp1955
g29
ag30
aS'sequence'
p1956
ag32
ag33
aS'species'
p1957
atRp1958
sg37
(lp1959
sg120
g1931
sg121
S'RWFSTKDLYSRLELPGLNQNVHAMFVMPLGFGNPMGDMFARLNNSFWLPPLSLEGAGTGWTVYPPLSHSGPSVDLAFHLTSSLLGAINFTNMRGPLFWTALLLLSLPVLAGTLLDRNFNTFDGGDPLYHLFWFFGHPEVYMIPGFGSHSTYKKFGMYASIGLGFVWSHHMYVGLDDRAYFTSATMIAPTGIKFSWLSTYGGRPTLAFLFLFTGGTGVLNASDSMHDTYYVVHFHYVLSMGAFSLGYYYWPGLYNLYWFNFPMHFLGGMPRRPYPDSGWNSGSSFQLGPDESNEPH'
p1960
sg123
F0.03977
sg124
g125
sg33
S'70'
p1961
sg127
g1
(g128
g12
(dp1962
g130
I4
sg131
g132
sg133
g134
sg135
g132
sg136
I01
sg34
g137
sg138
g134
sg139
I0
sg140
I0
sg141
I0
sg142
g134
sg35
g143
sg144
I0
stRp1963
sg146
g147
sg148
F1
sg149
Nsg30
S'CviswA'
p1964
sbag1
(g2
g3
NtRp1965
(dp1966
g6
g1
(g7
g3
NtRp1967
(dp1968
g10
g1
(g11
g12
(dtRp1969
sg14
g1
(g11
g12
(dtRp1970
sg16
g1
(g11
g12
(dtRp1971
sg18
g1
(g11
g12
(dtRp1972
sg20
g1
(g11
g12
(dtRp1973
sg22
g1
(g11
g12
(dtRp1974
sbsg24
S'Csa'
p1975
sg26
g27
((lp1976
g29
ag30
aS'sequence'
p1977
ag32
ag33
aS'species'
p1978
atRp1979
sg37
(lp1980
sg120
g1931
sg121
S'RWFSTKDLYSRLELPGLNQNVHAMFVMPLGFGNPMGDMFARLNNSFWLPPLSLEGAGTGWTVYPPLSHSGPSVDLAFHLTSSLLGAINFTNMRGVLFWTALLLLSLPVLAGTLLDRNFNTFDGGDPLYHLFWFFGHPEVYIIPGFGSHSTFKKFGMYASIGLGFVWSHHMYVGLDDRAYFTSATMIAPTGIKFSWIATYGGRPTLAFLFLFTGGTGVLNASDSMHDTYYVVHFHYVLSMGAFSLGYYYWPGLYNLYWFNFPMHFLGGMPRRPYPDSGWNSGSSYQLGPDEGNEPH'
p1981
sg123
F0.065189999999999998
sg124
g125
sg33
S'160'
p1982
sg127
g1
(g128
g12
(dp1983
g130
I4
sg131
g132
sg133
g134
sg135
g132
sg136
I01
sg34
g137
sg138
g134
sg139
I0
sg140
I0
sg141
I0
sg142
g134
sg35
g143
sg144
I0
stRp1984
sg146
g147
sg148
F1
sg149
Nsg30
S'CsaraA'
p1985
sbasg120
g1918
sg123
F0.029960000000000001
sg124
g125
sg33
S'100'
p1986
sg127
g1
(g128
g12
(dp1987
g130
I6
sg131
g132
sg133
g134
sg135
g132
sg136
I01
sg34
g174
sg138
g134
sg139
I0
sg140
I0
sg141
I0
sg142
g134
sg35
g175
sg144
I0
stRp1988
sg146
g147
sg148
F0.98999999999999999
sg149
Nsg30
S'NoName'
p1989
sbag1
(g2
g3
NtRp1990
(dp1991
g6
g1
(g7
g3
NtRp1992
(dp1993
g10
g1
(g11
g12
(dtRp1994
sg14
g1
(g11
g12
(dtRp1995
sg16
g1
(g11
g12
(dtRp1996
sg18
g1
(g11
g12
(dtRp1997
sg20
g1
(g11
g12
(dtRp1998
sg22
g1
(g11
g12
(dtRp1999
sbsg24
S'Cpr'
p2000
sg26
g27
((lp2001
g29
ag30
aS'sequence'
p2002
ag32
ag33
aS'species'
p2003
atRp2004
sg37
(lp2005
sg120
g1918
sg121
S'RWFSTKDEYSRLELPGLNQNVHAMFVMPLGFGNPMGDMFARLNNSFWLPPLSLEGAGTGWTVYPPLSHSGPSVDLAFHLTSSLLGAINFTNMRGPLFWTALLLLSLPVLTGTLLDRNFNTFDGGDPLYHLFWFFGHPEVYMIPGFGSHSTYKKFGMYASMGLGFVWSHHMFVGLDDRAYFTSATMMAPTGIKFSWLATYGGRPMLAFLFLFTGGTGVLNASDSMHDTYYVVHFHYVLSMGAFSLGYYYWPGLYNLYWFNFPMHFLGGMPRRPYPDSGWNSGSSVQLGPDENNEPH'
p2006
sg123
F0.17724999999999999
sg124
g125
sg33
S'138'
p2007
sg127
g1
(g128
g12
(dp2008
g130
I4
sg131
g132
sg133
g134
sg135
g132
sg136
I01
sg34
g137
sg138
g134
sg139
I0
sg140
I0
sg141
I0
sg142
g134
sg35
g143
sg144
I0
stRp2009
sg146
g147
sg148
F1
sg149
Nsg30
S'CpracA'
p2010
sbasg120
g1884
sg123
F0.02281
sg124
g125
sg33
S'76'
p2011
sg127
g1
(g128
g12
(dp2012
g130
I6
sg131
g132
sg133
g134
sg135
g132
sg136
I01
sg34
g174
sg138
g134
sg139
I0
sg140
I0
sg141
I0
sg142
g134
sg35
g175
sg144
I0
stRp2013
sg146
g147
sg148
F0.98999999999999999
sg149
Nsg30
S'NoName'
p2014
sbasg120
g1774
sg123
F0.01154
sg124
g125
sg33
S'18'
p2015
sg127
g1
(g128
g12
(dp2016
g130
I6
sg131
g132
sg133
g134
sg135
g132
sg136
I01
sg34
g174
sg138
g134
sg139
I0
sg140
I0
sg141
I0
sg142
g134
sg35
g175
sg144
I0
stRp2017
sg146
g147
sg148
F0.98999999999999999
sg149
Nsg30
S'NoName'
p2018
sbasg120
g1761
sg123
F0.02138
sg124
g125
sg33
S'7'
sg127
g1
(g128
g12
(dp2019
g130
I6
sg131
g132
sg133
g134
sg135
g132
sg136
I01
sg34
g174
sg138
g134
sg139
I0
sg140
I0
sg141
I0
sg142
g134
sg35
g175
sg144
I0
stRp2020
sg146
g147
sg148
F0.98999999999999999
sg149
Nsg30
S'NoName'
p2021
sbag1
(g2
g3
NtRp2022
(dp2023
g6
g1
(g7
g3
NtRp2024
(dp2025
g10
g1
(g11
g12
(dtRp2026
sg14
g1
(g11
g12
(dtRp2027
sg16
g1
(g11
g12
(dtRp2028
sg18
g1
(g11
g12
(dtRp2029
sg20
g1
(g11
g12
(dtRp2030
sg22
g1
(g11
g12
(dtRp2031
sbsg24
g25
sg26
g27
((lp2032
g33
ag32
ag29
ag30
atRp2033
sg37
(lp2034
g1
(g2
g3
NtRp2035
(dp2036
g6
g1
(g7
g3
NtRp2037
(dp2038
g10
g1
(g11
g12
(dtRp2039
sg14
g1
(g11
g12
(dtRp2040
sg16
g1
(g11
g12
(dtRp2041
sg18
g1
(g11
g12
(dtRp2042
sg20
g1
(g11
g12
(dtRp2043
sg22
g1
(g11
g12
(dtRp2044
sbsg24
S'Cne'
p2045
sg26
g27
((lp2046
g29
ag30
aS'sequence'
p2047
ag32
ag33
aS'species'
p2048
atRp2049
sg37
(lp2050
sg120
g2022
sg121
S'RWLSTKDLYSRLELPGLNQNVHAMFVMPLGFGNPMGDMFARLNNSFWLPPLSLEGAGTGWTVYPPLSHSGPSVDLAFHLTSSLLGAINFTNMRGPLFWTALLLLSLPVLAGTLLDRNFNTFDGGDPLYHLFWFFGHPEVYIIPGFGSHSTYKKFGMYASIGLGFVWSHHMYVGLDDRAYFTSATMIAPTGIKFSWLATYGGRPMLAFLFLFTGGTGVLNASDAFHDTYYVVHFHYVLSMGAFSLGYYYWPGLYNLYWFNFPMHFLGGMPRRPYPDSGWNSGSSYQLGPDESNEPH'
p2051
sg123
F0.04879
sg124
g125
sg33
S'170'
p2052
sg127
g1
(g128
g12
(dp2053
g130
I4
sg131
g132
sg133
g134
sg135
g132
sg136
I01
sg34
g137
sg138
g134
sg139
I0
sg140
I0
sg141
I0
sg142
g134
sg35
g143
sg144
I0
stRp2054
sg146
g147
sg148
F1
sg149
Nsg30
S'CneerA'
p2055
sbag1
(g2
g3
NtRp2056
(dp2057
g6
g1
(g7
g3
NtRp2058
(dp2059
g10
g1
(g11
g12
(dtRp2060
sg14
g1
(g11
g12
(dtRp2061
sg16
g1
(g11
g12
(dtRp2062
sg18
g1
(g11
g12
(dtRp2063
sg20
g1
(g11
g12
(dtRp2064
sg22
g1
(g11
g12
(dtRp2065
sbsg24
S'Cfr'
p2066
sg26
g27
((lp2067
g29
ag30
aS'sequence'
p2068
ag32
ag33
aS'species'
p2069
atRp2070
sg37
(lp2071
sg120
g2022
sg121
S'RWLSTKDLYSRLELPGLNQNVHAMFVMPLGFGNPMGDMFARLNNSFWLPPLSLEGAGTGWTVYPPLSHSGPSVDLAFHLTSSLLGAMNFTNMRGPLFWTALLLLSLPVLAGTLLDRNFNTFDGGDPLYHLFWFFGHPEVYIIPGFGSHSTYKKFGMYASIGLGFVWSHHMYVGLDDRAYFTSATMIAPTGIKFSWLSTYGGRPMLAFLFLFTGGTGVLNASDAFHDTYYVVHFHYVLSMGAFSLGYYYWPGLYNLYWFNFPMHFLGGMPRRPYPDSGWNSGSSYQLGPDESNEPH'
p2072
sg123
F0.050279999999999998
sg124
g125
sg33
S'221'
p2073
sg127
g1
(g128
g12
(dp2074
g130
I4
sg131
g132
sg133
g134
sg135
g132
sg136
I01
sg34
g137
sg138
g134
sg139
I0
sg140
I0
sg141
I0
sg142
g134
sg35
g143
sg144
I0
stRp2075
sg146
g147
sg148
F1
sg149
Nsg30
S'CfrijA'
p2076
sbasg120
g1761
sg123
F0.11378000000000001
sg124
g125
sg33
S'124'
p2077
sg127
g1
(g128
g12
(dp2078
g130
I6
sg131
g132
sg133
g134
sg135
g132
sg136
I01
sg34
g174
sg138
g134
sg139
I0
sg140
I0
sg141
I0
sg142
g134
sg35
g175
sg144
I0
stRp2079
sg146
g147
sg148
F0.98999999999999999
sg149
Nsg30
S'NoName'
p2080
sbasg120
g1727
sg123
F0.076910000000000006
sg124
g125
sg33
S'94'
p2081
sg127
g1
(g128
g12
(dp2082
g130
I6
sg131
g132
sg133
g134
sg135
g132
sg136
I01
sg34
g174
sg138
g134
sg139
I0
sg140
I0
sg141
I0
sg142
g134
sg35
g175
sg144
I0
stRp2083
sg146
g147
sg148
F0.98999999999999999
sg149
Nsg30
S'NoName'
p2084
sbasg120
g1714
sg123
F0.022950000000000002
sg124
g125
sg33
S'83'
p2085
sg127
g1
(g128
g12
(dp2086
g130
I6
sg131
g132
sg133
g134
sg135
g132
sg136
I01
sg34
g174
sg138
g134
sg139
I0
sg140
I0
sg141
I0
sg142
g134
sg35
g175
sg144
I0
stRp2087
sg146
g147
sg148
F0.65000000000000002
sg149
Nsg30
S'NoName'
p2088
sbag1
(g2
g3
NtRp2089
(dp2090
g6
g1
(g7
g3
NtRp2091
(dp2092
g10
g1
(g11
g12
(dtRp2093
sg14
g1
(g11
g12
(dtRp2094
sg16
g1
(g11
g12
(dtRp2095
sg18
g1
(g11
g12
(dtRp2096
sg20
g1
(g11
g12
(dtRp2097
sg22
g1
(g11
g12
(dtRp2098
sbsg24
g25
sg26
g27
((lp2099
g33
ag32
ag29
ag30
atRp2100
sg37
(lp2101
g1
(g2
g3
NtRp2102
(dp2103
g6
g1
(g7
g3
NtRp2104
(dp2105
g10
g1
(g11
g12
(dtRp2106
sg14
g1
(g11
g12
(dtRp2107
sg16
g1
(g11
g12
(dtRp2108
sg18
g1
(g11
g12
(dtRp2109
sg20
g1
(g11
g12
(dtRp2110
sg22
g1
(g11
g12
(dtRp2111
sbsg24
g25
sg26
g27
((lp2112
g33
ag32
ag29
ag30
atRp2113
sg37
(lp2114
g1
(g2
g3
NtRp2115
(dp2116
g6
g1
(g7
g3
NtRp2117
(dp2118
g10
g1
(g11
g12
(dtRp2119
sg14
g1
(g11
g12
(dtRp2120
sg16
g1
(g11
g12
(dtRp2121
sg18
g1
(g11
g12
(dtRp2122
sg20
g1
(g11
g12
(dtRp2123
sg22
g1
(g11
g12
(dtRp2124
sbsg24
S'Cgi'
p2125
sg26
g27
((lp2126
g29
ag30
aS'sequence'
p2127
ag32
ag33
aS'species'
p2128
atRp2129
sg37
(lp2130
sg120
g2102
sg121
S'RWLSTKDLYSRLELAGLNQNVHAMFVMPLGFGNPMGDMFARLNNSFWLPPLSLEGAGTGWTVYPPLSHSGPSVDMAFHLTSSLLGAINFTNMRGPLFWTALLLLSLPVLAATLLDRNFNTFEGGDPLYHAFWFFGHPEVYIIPGFGSHSTYKKFGMYASIGLGFVWSHHMYVGLDDRAYFTSATMIAPTGIKFSWLATYGGRPMLAFLFLFTGGTGVLNASDAFHDTYYVVHFHYVLSMGAFSLGYYYWPGLYNLYWFNFPMHFLGGMPRRPYPDAGWNSGSSYQLGPDESNEPH'
p2131
sg123
F0.22796
sg124
g125
sg33
S'213'
p2132
sg127
g1
(g128
g12
(dp2133
g130
I4
sg131
g132
sg133
g134
sg135
g132
sg136
I01
sg34
g137
sg138
g134
sg139
I0
sg140
I0
sg141
I0
sg142
g134
sg35
g143
sg144
I0
stRp2134
sg146
g147
sg148
F1
sg149
Nsg30
S'CgigaA'
p2135
sbag1
(g2
g3
NtRp2136
(dp2137
g6
g1
(g7
g3
NtRp2138
(dp2139
g10
g1
(g11
g12
(dtRp2140
sg14
g1
(g11
g12
(dtRp2141
sg16
g1
(g11
g12
(dtRp2142
sg18
g1
(g11
g12
(dtRp2143
sg20
g1
(g11
g12
(dtRp2144
sg22
g1
(g11
g12
(dtRp2145
sbsg24
S'Cbu'
p2146
sg26
g27
((lp2147
g29
ag30
aS'sequence'
p2148
ag32
ag33
aS'species'
p2149
atRp2150
sg37
(lp2151
sg120
g2102
sg121
S'RWLSTKDLYSRLELAGLNQNVHAMFVMPLGFGNPMGDMFARLNNSFWLPPLSLEGAGTGWTVYPPLSHSGPSVDLAFHLTSSLLGAINFTNMRGPLFWTALLLLSLPVLAGTLLDRNFNTFEGGDPLYHLFWFFGHPEVYIIPGFGSHGTYKKFGMYASIGLGFVWSHHMFVGLDDRAYFTSATMIAPTGIKFSWLATYGGRPMLAFLFLFTGGTGVLNASDAFHDTYYVVHFHYVLSMGAFSLAYYYWPGLYNLFWFNFPMHFLGGMPRRPYPDAGWNSGSSYQLGPDESNEPH'
p2152
sg123
F0.26118000000000002
sg124
g125
sg33
S'117'
p2153
sg127
g1
(g128
g12
(dp2154
g130
I4
sg131
g132
sg133
g134
sg135
g132
sg136
I01
sg34
g137
sg138
g134
sg139
I0
sg140
I0
sg141
I0
sg142
g134
sg35
g143
sg144
I0
stRp2155
sg146
g147
sg148
F1
sg149
Nsg30
S'CbuenA'
p2156
sbasg120
g2089
sg123
F0.037260000000000001
sg124
g125
sg33
S'72'
p2157
sg127
g1
(g128
g12
(dp2158
g130
I6
sg131
g132
sg133
g134
sg135
g132
sg136
I01
sg34
g174
sg138
g134
sg139
I0
sg140
I0
sg141
I0
sg142
g134
sg35
g175
sg144
I0
stRp2159
sg146
g147
sg148
F0.98999999999999999
sg149
Nsg30
S'NoName'
p2160
sbag1
(g2
g3
NtRp2161
(dp2162
g6
g1
(g7
g3
NtRp2163
(dp2164
g10
g1
(g11
g12
(dtRp2165
sg14
g1
(g11
g12
(dtRp2166
sg16
g1
(g11
g12
(dtRp2167
sg18
g1
(g11
g12
(dtRp2168
sg20
g1
(g11
g12
(dtRp2169
sg22
g1
(g11
g12
(dtRp2170
sbsg24
g25
sg26
g27
((lp2171
g33
ag32
ag29
ag30
atRp2172
sg37
(lp2173
g1
(g2
g3
NtRp2174
(dp2175
g6
g1
(g7
g3
NtRp2176
(dp2177
g10
g1
(g11
g12
(dtRp2178
sg14
g1
(g11
g12
(dtRp2179
sg16
g1
(g11
g12
(dtRp2180
sg18
g1
(g11
g12
(dtRp2181
sg20
g1
(g11
g12
(dtRp2182
sg22
g1
(g11
g12
(dtRp2183
sbsg24
S'Cdu'
p2184
sg26
g27
((lp2185
g29
ag30
aS'sequence'
p2186
ag32
ag33
aS'species'
p2187
atRp2188
sg37
(lp2189
sg120
g2161
sg121
S'RWLSTKDLYSRLELPGLNQNVHAMFVMPLGFGNPMGDMFARLNNSFWLPPLSLEGAGTGWTVYPPLSHSGPSVDLAFHLTSSLLGAINFTNMRGPLYWTALLLLSLPVLAGTLLDRNFNTFEGGDPLYHLFWFFGHPEVYIIPGFGSHSTYKKFGMYASIGLGFVWSHHMYVGLDDRAYFTSATMIAPTGIKFSWLATYGGRPMLAFLFLFTGGTGVLNASDAFHDTYYVVHFHYVLSMGAFSLGYYYWPGLYNLYWFNFPMHFLGGMPRRPYPDAGWNSGSSYQLGPDESNEPH'
p2190
sg123
F0.025069999999999999
sg124
g125
sg33
S'141'
p2191
sg127
g1
(g128
g12
(dp2192
g130
I4
sg131
g132
sg133
g134
sg135
g132
sg136
I01
sg34
g137
sg138
g134
sg139
I0
sg140
I0
sg141
I0
sg142
g134
sg35
g143
sg144
I0
stRp2193
sg146
g147
sg148
F1
sg149
Nsg30
S'CdublA'
p2194
sbag1
(g2
g3
NtRp2195
(dp2196
g6
g1
(g7
g3
NtRp2197
(dp2198
g10
g1
(g11
g12
(dtRp2199
sg14
g1
(g11
g12
(dtRp2200
sg16
g1
(g11
g12
(dtRp2201
sg18
g1
(g11
g12
(dtRp2202
sg20
g1
(g11
g12
(dtRp2203
sg22
g1
(g11
g12
(dtRp2204
sbsg24
g25
sg26
g27
((lp2205
g33
ag32
ag29
ag30
atRp2206
sg37
(lp2207
g1
(g2
g3
NtRp2208
(dp2209
g6
g1
(g7
g3
NtRp2210
(dp2211
g10
g1
(g11
g12
(dtRp2212
sg14
g1
(g11
g12
(dtRp2213
sg16
g1
(g11
g12
(dtRp2214
sg18
g1
(g11
g12
(dtRp2215
sg20
g1
(g11
g12
(dtRp2216
sg22
g1
(g11
g12
(dtRp2217
sbsg24
g25
sg26
g27
((lp2218
g33
ag32
ag29
ag30
atRp2219
sg37
(lp2220
g1
(g2
g3
NtRp2221
(dp2222
g6
g1
(g7
g3
NtRp2223
(dp2224
g10
g1
(g11
g12
(dtRp2225
sg14
g1
(g11
g12
(dtRp2226
sg16
g1
(g11
g12
(dtRp2227
sg18
g1
(g11
g12
(dtRp2228
sg20
g1
(g11
g12
(dtRp2229
sg22
g1
(g11
g12
(dtRp2230
sbsg24
g25
sg26
g27
((lp2231
g33
ag32
ag29
ag30
atRp2232
sg37
(lp2233
g1
(g2
g3
NtRp2234
(dp2235
g6
g1
(g7
g3
NtRp2236
(dp2237
g10
g1
(g11
g12
(dtRp2238
sg14
g1
(g11
g12
(dtRp2239
sg16
g1
(g11
g12
(dtRp2240
sg18
g1
(g11
g12
(dtRp2241
sg20
g1
(g11
g12
(dtRp2242
sg22
g1
(g11
g12
(dtRp2243
sbsg24
g25
sg26
g27
((lp2244
g33
ag32
ag29
ag30
atRp2245
sg37
(lp2246
g1
(g2
g3
NtRp2247
(dp2248
g6
g1
(g7
g3
NtRp2249
(dp2250
g10
g1
(g11
g12
(dtRp2251
sg14
g1
(g11
g12
(dtRp2252
sg16
g1
(g11
g12
(dtRp2253
sg18
g1
(g11
g12
(dtRp2254
sg20
g1
(g11
g12
(dtRp2255
sg22
g1
(g11
g12
(dtRp2256
sbsg24
S'Cal'
p2257
sg26
g27
((lp2258
g29
ag30
aS'sequence'
p2259
ag32
ag33
aS'species'
p2260
atRp2261
sg37
(lp2262
sg120
g2234
sg121
S'RWLSTKDLYSRLELPGLNQNVHAMFVMPLGFGNPMGDMFARLNNSFWLPPLSLEGAGTGWTVYPPLSHSGPSVDLAFHLTSSLLGAINFTNMRGPLFWTALLLLSLPVLAGTLLDRNFNTFEGGDPLYHLFWFFGHPEVYIIPGFGSHSTYKKFGMYASIGLGFVWSHHMYVGLDDRAYFTSATMIAPTGIKFSWLATYGGRPMLAFLFLFTGGTGVLNASDAFHDTYYVVHFHYVLSMGAFSLGYYYWPGLYNLYWFNFPMHFLGGMPRRPYPDAGWNSGSSYQLGPDESNEPH'
p2263
sg123
F0.00025000000000000001
sg124
g125
sg33
S'27'
p2264
sg127
g1
(g128
g12
(dp2265
g130
I4
sg131
g132
sg133
g134
sg135
g132
sg136
I01
sg34
g137
sg138
g134
sg139
I0
sg140
I0
sg141
I0
sg142
g134
sg35
g143
sg144
I0
stRp2266
sg146
g147
sg148
F1
sg149
Nsg30
S'CalbiE'
p2267
sbag1
(g2
g3
NtRp2268
(dp2269
g6
g1
(g7
g3
NtRp2270
(dp2271
g10
g1
(g11
g12
(dtRp2272
sg14
g1
(g11
g12
(dtRp2273
sg16
g1
(g11
g12
(dtRp2274
sg18
g1
(g11
g12
(dtRp2275
sg20
g1
(g11
g12
(dtRp2276
sg22
g1
(g11
g12
(dtRp2277
sbsg24
S'Cal'
p2278
sg26
g27
((lp2279
g29
ag30
aS'sequence'
p2280
ag32
ag33
aS'species'
p2281
atRp2282
sg37
(lp2283
sg120
g2234
sg121
S'RWLSTKDLYSRLELPGLNQNVHAMFVMPLGFGNPMGDMFARLNNSFWLPPLSLEGAGTGWTVYPPLSHSGPSVDLAFHLTSSLLGAINFTNMRGPLFWTALLLLSLPVLAGTLLDRNFNTFEGGDPLYHLFWFFGHPEVYIIPGFGSHSTYKKFGMYASIGLGFVWSHHMYVGLDDRAYFTSATMIAPTGIKFSWLATYGGRPMLAFLFLFTGGTGVLNASDAFHDTYYVVHFHYVLSMGAFSLGYYYWPGLYNLYWFNFPMHFLGGMPRRPYPDAGWNSGSSYQLGPDESNEPH'
p2284
sg123
F0.00050000000000000001
sg124
g125
sg33
S'184'
p2285
sg127
g1
(g128
g12
(dp2286
g130
I4
sg131
g132
sg133
g134
sg135
g132
sg136
I01
sg34
g137
sg138
g134
sg139
I0
sg140
I0
sg141
I0
sg142
g134
sg35
g143
sg144
I0
stRp2287
sg146
g147
sg148
F1
sg149
Nsg30
S'CalbiD'
p2288
sbasg120
g2221
sg123
F0.00051999999999999995
sg124
g125
sg33
S'152'
p2289
sg127
g1
(g128
g12
(dp2290
g130
I6
sg131
g132
sg133
g134
sg135
g132
sg136
I01
sg34
g174
sg138
g134
sg139
I0
sg140
I0
sg141
I0
sg142
g134
sg35
g175
sg144
I0
stRp2291
sg146
g147
sg148
F0.73999999999999999
sg149
Nsg30
S'NoName'
p2292
sbag1
(g2
g3
NtRp2293
(dp2294
g6
g1
(g7
g3
NtRp2295
(dp2296
g10
g1
(g11
g12
(dtRp2297
sg14
g1
(g11
g12
(dtRp2298
sg16
g1
(g11
g12
(dtRp2299
sg18
g1
(g11
g12
(dtRp2300
sg20
g1
(g11
g12
(dtRp2301
sg22
g1
(g11
g12
(dtRp2302
sbsg24
S'Cal'
p2303
sg26
g27
((lp2304
g29
ag30
aS'sequence'
p2305
ag32
ag33
aS'species'
p2306
atRp2307
sg37
(lp2308
sg120
g2221
sg121
S'RWLSTKDLYSRLELPGLNQNVHAMFVMPLGFGNPMGDMFARLNNSFWLPPLSLEGAGTGWTVYPPLSHSGPSVDLAFHLTSSLLGAINFTNMRGPLFWTALLLLSLPVLAGTLLDRNFNTFEGGDPLYHLFWFFGHPEVYIIPGFGSHSTYKKFGMYASIGLGFVWSHHMYVGLDDRAYFTSATMIAPTGIKFSWLATYGGRPMLAFLFLFTGGTGVLNASDAFHDTYYVVHFHYVLSMGAFSLGYYYWPGLYNLYWFNFPMHFLGGMPRRPYPDAGWNSGSSYQLGPDESNEPH'
p2309
sg123
F0.00012
sg124
g125
sg33
S'195'
p2310
sg127
g1
(g128
g12
(dp2311
g130
I4
sg131
g132
sg133
g134
sg135
g132
sg136
I01
sg34
g137
sg138
g134
sg139
I0
sg140
I0
sg141
I0
sg142
g134
sg35
g143
sg144
I0
stRp2312
sg146
g147
sg148
F1
sg149
Nsg30
S'CalbiC'
p2313
sbasg120
g2208
sg123
F1.0000000000000001e-05
sg124
g125
sg33
S'128'
p2314
sg127
g1
(g128
g12
(dp2315
g130
I6
sg131
g132
sg133
g134
sg135
g132
sg136
I01
sg34
g174
sg138
g134
sg139
I0
sg140
I0
sg141
I0
sg142
g134
sg35
g175
sg144
I0
stRp2316
sg146
g147
sg148
F1
sg149
Nsg30
S'NoName'
p2317
sbag1
(g2
g3
NtRp2318
(dp2319
g6
g1
(g7
g3
NtRp2320
(dp2321
g10
g1
(g11
g12
(dtRp2322
sg14
g1
(g11
g12
(dtRp2323
sg16
g1
(g11
g12
(dtRp2324
sg18
g1
(g11
g12
(dtRp2325
sg20
g1
(g11
g12
(dtRp2326
sg22
g1
(g11
g12
(dtRp2327
sbsg24
S'Cal'
p2328
sg26
g27
((lp2329
g29
ag30
aS'sequence'
p2330
ag32
ag33
aS'species'
p2331
atRp2332
sg37
(lp2333
sg120
g2208
sg121
S'RWLSTKDLYSRLELPGLNQNVHAMFVMPLGFGNPMGDMFARLNNSFWLPPLSLEGAGTGWTVYPPLSHSGPSVDLAFHLTSSLLGAINFTNMRGPLFWTALLLLSLPVLAGTLLDRNFNTFEGGDPLYHLFWFFGHPEVYIIPGFGSHSTYKKFGMYASIGLGFVWSHHMYVGLDDRAYFTSATMIAPTGIKFSWLATYGGRPMLAFLFLFTGGTGVLNASDAFHDTYYVVHFHYVLSMGAFSLGYYYWPGLYNLYWFNFPMHFLGGMPRRPYPDAGWNSGSSYQLGPDESNEPH'
p2334
sg123
F0.00016000000000000001
sg124
g125
sg33
S'134'
p2335
sg127
g1
(g128
g12
(dp2336
g130
I4
sg131
g132
sg133
g134
sg135
g132
sg136
I01
sg34
g137
sg138
g134
sg139
I0
sg140
I0
sg141
I0
sg142
g134
sg35
g143
sg144
I0
stRp2337
sg146
g147
sg148
F1
sg149
Nsg30
S'CalbiB'
p2338
sbasg120
g2195
sg123
F1.0000000000000001e-05
sg124
g125
sg33
S'121'
p2339
sg127
g1
(g128
g12
(dp2340
g130
I6
sg131
g132
sg133
g134
sg135
g132
sg136
I01
sg34
g174
sg138
g134
sg139
I0
sg140
I0
sg141
I0
sg142
g134
sg35
g175
sg144
I0
stRp2341
sg146
g147
sg148
F1
sg149
Nsg30
S'NoName'
p2342
sbag1
(g2
g3
NtRp2343
(dp2344
g6
g1
(g7
g3
NtRp2345
(dp2346
g10
g1
(g11
g12
(dtRp2347
sg14
g1
(g11
g12
(dtRp2348
sg16
g1
(g11
g12
(dtRp2349
sg18
g1
(g11
g12
(dtRp2350
sg20
g1
(g11
g12
(dtRp2351
sg22
g1
(g11
g12
(dtRp2352
sbsg24
S'Cal'
p2353
sg26
g27
((lp2354
g29
ag30
aS'sequence'
p2355
ag32
ag33
aS'species'
p2356
atRp2357
sg37
(lp2358
sg120
g2195
sg121
S'RWLSTKDLYSRLELPGLNQNVHAMFVMPLGFGNPMGDMFARLNNSFWLPPLSLEGAGTGWTVYPPLSHSGPSVDLAFHLTSSLLGAINFTNMRGPLFWTALLLLSLPVLAGTLLDRNFNTFEGGDPLYHLFWFFGHPEVYIIPGFGSHSTYKKFGMYASIGLGFVWSHHMYVGLDDRAYFTSATMIAPTGIKFSWLATYGGRPMLAFLFLFTGGTGVLNASDAFHDTYYVVHFHYVLSMGAFSLGYYYWPGLYNLYWFNFPMHFLGGMPRRPYPDAGWNSGSSYQLGPDESNEPH'
p2359
sg123
F0.00013999999999999999
sg124
g125
sg33
S'189'
p2360
sg127
g1
(g128
g12
(dp2361
g130
I4
sg131
g132
sg133
g134
sg135
g132
sg136
I01
sg34
g137
sg138
g134
sg139
I0
sg140
I0
sg141
I0
sg142
g134
sg35
g143
sg144
I0
stRp2362
sg146
g147
sg148
F1
sg149
Nsg30
S'CalbiA'
p2363
sbasg120
g2161
sg123
F0.014959999999999999
sg124
g125
sg33
S'165'
p2364
sg127
g1
(g128
g12
(dp2365
g130
I6
sg131
g132
sg133
g134
sg135
g132
sg136
I01
sg34
g174
sg138
g134
sg139
I0
sg140
I0
sg141
I0
sg142
g134
sg35
g175
sg144
I0
stRp2366
sg146
g147
sg148
F0.98999999999999999
sg149
Nsg30
S'NoName'
p2367
sbasg120
g2089
sg123
F0.05287
sg124
g125
sg33
S'74'
p2368
sg127
g1
(g128
g12
(dp2369
g130
I6
sg131
g132
sg133
g134
sg135
g132
sg136
I01
sg34
g174
sg138
g134
sg139
I0
sg140
I0
sg141
I0
sg142
g134
sg35
g175
sg144
I0
stRp2370
sg146
g147
sg148
F0.98999999999999999
sg149
Nsg30
S'NoName'
p2371
sbasg120
g1714
sg123
F0.037499999999999999
sg124
g125
sg33
S'148'
p2372
sg127
g1
(g128
g12
(dp2373
g130
I6
sg131
g132
sg133
g134
sg135
g132
sg136
I01
sg34
g174
sg138
g134
sg139
I0
sg140
I0
sg141
I0
sg142
g134
sg35
g175
sg144
I0
stRp2374
sg146
g147
sg148
F0.98999999999999999
sg149
Nsg30
S'NoName'
p2375
sbasg120
g1002
sg123
F0.10766000000000001
sg124
g125
sg33
S'26'
p2376
sg127
g1
(g128
g12
(dp2377
g130
I6
sg131
g132
sg133
g134
sg135
g132
sg136
I01
sg34
g174
sg138
g134
sg139
I0
sg140
I0
sg141
I0
sg142
g134
sg35
g175
sg144
I0
stRp2378
sg146
g147
sg148
F0.98999999999999999
sg149
Nsg30
S'NoName'
p2379
sbasg120
g968
sg123
F0.093560000000000004
sg124
g125
sg33
S'85'
p2380
sg127
g1
(g128
g12
(dp2381
g130
I6
sg131
g132
sg133
g134
sg135
g132
sg136
I01
sg34
g174
sg138
g134
sg139
I0
sg140
I0
sg141
I0
sg142
g134
sg35
g175
sg144
I0
stRp2382
sg146
g147
sg148
F0.97999999999999998
sg149
Nsg30
S'NoName'
p2383
sbasg120
g955
sg123
F0.036760000000000001
sg124
g125
sg33
S'92'
p2384
sg127
g1
(g128
g12
(dp2385
g130
I6
sg131
g132
sg133
g134
sg135
g132
sg136
I01
sg34
g174
sg138
g134
sg139
I0
sg140
I0
sg141
I0
sg142
g134
sg35
g175
sg144
I0
stRp2386
sg146
g147
sg148
F0.97999999999999998
sg149
Nsg30
S'NoName'
p2387
sbag1
(g2
g3
NtRp2388
(dp2389
g6
g1
(g7
g3
NtRp2390
(dp2391
g10
g1
(g11
g12
(dtRp2392
sg14
g1
(g11
g12
(dtRp2393
sg16
g1
(g11
g12
(dtRp2394
sg18
g1
(g11
g12
(dtRp2395
sg20
g1
(g11
g12
(dtRp2396
sg22
g1
(g11
g12
(dtRp2397
sbsg24
g25
sg26
g27
((lp2398
g33
ag32
ag29
ag30
atRp2399
sg37
(lp2400
g1
(g2
g3
NtRp2401
(dp2402
g6
g1
(g7
g3
NtRp2403
(dp2404
g10
g1
(g11
g12
(dtRp2405
sg14
g1
(g11
g12
(dtRp2406
sg16
g1
(g11
g12
(dtRp2407
sg18
g1
(g11
g12
(dtRp2408
sg20
g1
(g11
g12
(dtRp2409
sg22
g1
(g11
g12
(dtRp2410
sbsg24
g25
sg26
g27
((lp2411
g33
ag32
ag29
ag30
atRp2412
sg37
(lp2413
g1
(g2
g3
NtRp2414
(dp2415
g6
g1
(g7
g3
NtRp2416
(dp2417
g10
g1
(g11
g12
(dtRp2418
sg14
g1
(g11
g12
(dtRp2419
sg16
g1
(g11
g12
(dtRp2420
sg18
g1
(g11
g12
(dtRp2421
sg20
g1
(g11
g12
(dtRp2422
sg22
g1
(g11
g12
(dtRp2423
sbsg24
S'Csu'
p2424
sg26
g27
((lp2425
g29
ag30
aS'sequence'
p2426
ag32
ag33
aS'species'
p2427
atRp2428
sg37
(lp2429
sg120
g2401
sg121
S'RWLSTKDLYSRMELPGLNQNVHAMFIMPLGLGNPLGDMFARLNNSFWLPPLSLEGAGTGWTVYPPLSHSGPSVDLAFHLTSSLLGAINFTNMRGPLYWTALLLLSLPVLAATLLDRNFNTFEGGDPLYHLFWFFGHPEVYIIPGFGSHSTYKKFGMYASIGLGFVWSHHMFVGLDDRAYFTSATMIAPTGVKFSWLATYGGRPMLAFLFLFTGGTGVINASDAFHDTYYIVHFHYVLSMGAFSLGFYYWPGLYNLFWFNFPMHFLGGMPRRPYPDAGWNSGSAYQLGPDESNEPH'
p2430
sg123
F0.00012999999999999999
sg124
g125
sg33
S'156'
p2431
sg127
g1
(g128
g12
(dp2432
g130
I4
sg131
g132
sg133
g134
sg135
g132
sg136
I01
sg34
g137
sg138
g134
sg139
I0
sg140
I0
sg141
I0
sg142
g134
sg35
g143
sg144
I0
stRp2433
sg146
g147
sg148
F1
sg149
Nsg30
S'CsubhB'
p2434
sbag1
(g2
g3
NtRp2435
(dp2436
g6
g1
(g7
g3
NtRp2437
(dp2438
g10
g1
(g11
g12
(dtRp2439
sg14
g1
(g11
g12
(dtRp2440
sg16
g1
(g11
g12
(dtRp2441
sg18
g1
(g11
g12
(dtRp2442
sg20
g1
(g11
g12
(dtRp2443
sg22
g1
(g11
g12
(dtRp2444
sbsg24
S'Csu'
p2445
sg26
g27
((lp2446
g29
ag30
aS'sequence'
p2447
ag32
ag33
aS'species'
p2448
atRp2449
sg37
(lp2450
sg120
g2401
sg121
S'RWLSTKDLYSRMELPGLNQNVHAMFIMPLGLGNPLGDMFARLNNSFWLPPLSLEGAGTGWTVYPPLSHSGPSVDLAFHLTSSLLGAINFTNMRGPLYWTALLLLSLPVLAATLLDRNFNTFEGGDPLYHLFWFFGHPEVYIIPGFGSHSTYKKFGMYASIGLGFVWSHHMFVGLDDRAYFTSATMIAPTGVKFSWLATYGGRPMLAFLFLFTGGTGVINASDAFHDTYYIVHFHYVLSMGAFSLGFYYWPGLYNLFWFNFPMHFLGGMPRRPYPDAGWNSGSAYQLGPDESNEPH'
p2451
sg123
F0.00013999999999999999
sg124
g125
sg33
S'177'
p2452
sg127
g1
(g128
g12
(dp2453
g130
I4
sg131
g132
sg133
g134
sg135
g132
sg136
I01
sg34
g137
sg138
g134
sg139
I0
sg140
I0
sg141
I0
sg142
g134
sg35
g143
sg144
I0
stRp2454
sg146
g147
sg148
F1
sg149
Nsg30
S'CsubhA'
p2455
sbasg120
g2388
sg123
F0.59348999999999996
sg124
g125
sg33
S'168'
p2456
sg127
g1
(g128
g12
(dp2457
g130
I6
sg131
g132
sg133
g134
sg135
g132
sg136
I01
sg34
g174
sg138
g134
sg139
I0
sg140
I0
sg141
I0
sg142
g134
sg35
g175
sg144
I0
stRp2458
sg146
g147
sg148
F1
sg149
Nsg30
S'NoName'
p2459
sbag1
(g2
g3
NtRp2460
(dp2461
g6
g1
(g7
g3
NtRp2462
(dp2463
g10
g1
(g11
g12
(dtRp2464
sg14
g1
(g11
g12
(dtRp2465
sg16
g1
(g11
g12
(dtRp2466
sg18
g1
(g11
g12
(dtRp2467
sg20
g1
(g11
g12
(dtRp2468
sg22
g1
(g11
g12
(dtRp2469
sbsg24
S'Cal'
p2470
sg26
g27
((lp2471
g29
ag30
aS'sequence'
p2472
ag32
ag33
aS'species'
p2473
atRp2474
sg37
(lp2475
sg120
g2388
sg121
S'RWLSTKDLYSRMELPGLNQNVHAMFVMPLGFGNPLGDMFARLNNSFWLPPLSLDGPGTGWTVYPPLSHSGASVDFAFHLTSSLLGAINFTNMRGPLFWTALLLLSLPVLVATLLDRNFNTFEGGDPLYHLFWFFGHPEVYMIPGFGSHSTYKKFGMYASIGLGFVWSHHMFVGLDDRAYFTSATMMAPTGIKFSWMATYGGYPMLAFLFLFTGGTGVINASDAFHDTYYIVHFHYVLSMGAFSLGYYYWPGLYNLFWFNFPMHFLGGMPRRPYPDAGWNSGSAYQLGPDESNEPH'
p2476
sg123
F0.40044000000000002
sg124
g125
sg33
S'199'
p2477
sg127
g1
(g128
g12
(dp2478
g130
I4
sg131
g132
sg133
g134
sg135
g132
sg136
I01
sg34
g137
sg138
g134
sg139
I0
sg140
I0
sg141
I0
sg142
g134
sg35
g143
sg144
I0
stRp2479
sg146
g147
sg148
F1
sg149
Nsg30
S'CalaiA'
p2480
sbasg120
g955
sg123
F0.080810000000000007
sg124
g125
sg33
S'207'
p2481
sg127
g1
(g128
g12
(dp2482
g130
I6
sg131
g132
sg133
g134
sg135
g132
sg136
I01
sg34
g174
sg138
g134
sg139
I0
sg140
I0
sg141
I0
sg142
g134
sg35
g175
sg144
I0
stRp2483
sg146
g147
sg148
F0.98999999999999999
sg149
Nsg30
S'NoName'
p2484
sbasg120
g693
sg123
F0.075389999999999999
sg124
g125
sg33
S'77'
p2485
sg127
g1
(g128
g12
(dp2486
g130
I6
sg131
g132
sg133
g134
sg135
g132
sg136
I01
sg34
g174
sg138
g134
sg139
I0
sg140
I0
sg141
I0
sg142
g134
sg35
g175
sg144
I0
stRp2487
sg146
g147
sg148
F0.94999999999999996
sg149
Nsg30
S'NoName'
p2488
sbasg120
g680
sg123
F1.2542500000000001
sg124
g125
sg33
S'108'
p2489
sg127
g1
(g128
g12
(dp2490
g130
I6
sg131
g132
sg133
g134
sg135
g132
sg136
I01
sg34
g174
sg138
g134
sg139
I0
sg140
I0
sg141
I0
sg142
g134
sg35
g175
sg144
I0
stRp2491
sg146
g147
sg148
F0.97999999999999998
sg149
Nsg30
S'NoName'
p2492
sbag1
(g2
g3
NtRp2493
(dp2494
g6
g1
(g7
g3
NtRp2495
(dp2496
g10
g1
(g11
g12
(dtRp2497
sg14
g1
(g11
g12
(dtRp2498
sg16
g1
(g11
g12
(dtRp2499
sg18
g1
(g11
g12
(dtRp2500
sg20
g1
(g11
g12
(dtRp2501
sg22
g1
(g11
g12
(dtRp2502
sbsg24
g25
sg26
g27
((lp2503
g33
ag32
ag29
ag30
atRp2504
sg37
(lp2505
g1
(g2
g3
NtRp2506
(dp2507
g6
g1
(g7
g3
NtRp2508
(dp2509
g10
g1
(g11
g12
(dtRp2510
sg14
g1
(g11
g12
(dtRp2511
sg16
g1
(g11
g12
(dtRp2512
sg18
g1
(g11
g12
(dtRp2513
sg20
g1
(g11
g12
(dtRp2514
sg22
g1
(g11
g12
(dtRp2515
sbsg24
g25
sg26
g27
((lp2516
g33
ag32
ag29
ag30
atRp2517
sg37
(lp2518
g1
(g2
g3
NtRp2519
(dp2520
g6
g1
(g7
g3
NtRp2521
(dp2522
g10
g1
(g11
g12
(dtRp2523
sg14
g1
(g11
g12
(dtRp2524
sg16
g1
(g11
g12
(dtRp2525
sg18
g1
(g11
g12
(dtRp2526
sg20
g1
(g11
g12
(dtRp2527
sg22
g1
(g11
g12
(dtRp2528
sbsg24
S'Ppa'
p2529
sg26
g27
((lp2530
g29
ag30
aS'sequence'
p2531
ag32
ag33
aS'species'
p2532
atRp2533
sg37
(lp2534
sg120
g2506
sg121
S'RWLSTKDLYSRLELPGLNQNVHAMFVMPAGFGNPMGDMFARLNNSFWLPPLSLEGAGTGWTVYPPLAHSGPSVDLAFHLTSSLLGAMNFTNMRGPLFWTSLLLLSLPVLAGTLLDRNFNTFEGGDPLYHLFWFFGHPEVYIMPGFGSHSTYKKFGMYASIGLGLVWSHHMYVGLDDRAYFTSATMMAPTGMKFSWLATYGGRPMLAFLFLFTGGSGVLNASDAFHDTYYVIHFHYVLSLGAFSLGYYYWPGLYNLFWFNFPMHFLGGMPRRPYPDAGWNSGSSYQLGPDESNDPH'
p2535
sg123
F0.16184999999999999
sg124
g125
sg33
S'202'
p2536
sg127
g1
(g128
g12
(dp2537
g130
I4
sg131
g132
sg133
g134
sg135
g132
sg136
I01
sg34
g137
sg138
g134
sg139
I0
sg140
I0
sg141
I0
sg142
g134
sg35
g143
sg144
I0
stRp2538
sg146
g147
sg148
F1
sg149
Nsg30
S'PpastA'
p2539
sbag1
(g2
g3
NtRp2540
(dp2541
g6
g1
(g7
g3
NtRp2542
(dp2543
g10
g1
(g11
g12
(dtRp2544
sg14
g1
(g11
g12
(dtRp2545
sg16
g1
(g11
g12
(dtRp2546
sg18
g1
(g11
g12
(dtRp2547
sg20
g1
(g11
g12
(dtRp2548
sg22
g1
(g11
g12
(dtRp2549
sbsg24
g25
sg26
g27
((lp2550
g33
ag32
ag29
ag30
atRp2551
sg37
(lp2552
g1
(g2
g3
NtRp2553
(dp2554
g6
g1
(g7
g3
NtRp2555
(dp2556
g10
g1
(g11
g12
(dtRp2557
sg14
g1
(g11
g12
(dtRp2558
sg16
g1
(g11
g12
(dtRp2559
sg18
g1
(g11
g12
(dtRp2560
sg20
g1
(g11
g12
(dtRp2561
sg22
g1
(g11
g12
(dtRp2562
sbsg24
S'Pta'
p2563
sg26
g27
((lp2564
g29
ag30
aS'sequence'
p2565
ag32
ag33
aS'species'
p2566
atRp2567
sg37
(lp2568
sg120
g2540
sg121
S'RWLSTKDLYSRLELPGLNQNVHAMFVMPAGFGNPMGDMFARLNNSFWLPPLSLEGAGTGWTVYPPLSHSGPSVDLAFHLTSSLLGGMNFTNMRGPLFWTSLLVLTLPVLAGTLLDRNFNTFEGGDPLYHLFWFFGHPEVYIIPGFGSHSAYKKFGMYASIGLGLVWSHHMYVGLDDRAYFTSATMIAPTGIKFSWLATYGGRPMLAFLFLFTGGSGVLNASDAFHDTYYVMHFHYVLSLGAFSLGYYYWPGLYNLFWFNFPMHFLGGMPRRPYPDAGFNSGSSYQLGPDESNEPH'
p2569
sg123
F0.23080999999999999
sg124
g125
sg33
S'131'
p2570
sg127
g1
(g128
g12
(dp2571
g130
I4
sg131
g132
sg133
g134
sg135
g132
sg136
I01
sg34
g137
sg138
g134
sg139
I0
sg140
I0
sg141
I0
sg142
g134
sg35
g143
sg144
I0
stRp2572
sg146
g147
sg148
F1
sg149
Nsg30
S'PtannA'
p2573
sbag1
(g2
g3
NtRp2574
(dp2575
g6
g1
(g7
g3
NtRp2576
(dp2577
g10
g1
(g11
g12
(dtRp2578
sg14
g1
(g11
g12
(dtRp2579
sg16
g1
(g11
g12
(dtRp2580
sg18
g1
(g11
g12
(dtRp2581
sg20
g1
(g11
g12
(dtRp2582
sg22
g1
(g11
g12
(dtRp2583
sbsg24
g25
sg26
g27
((lp2584
g33
ag32
ag29
ag30
atRp2585
sg37
(lp2586
g1
(g2
g3
NtRp2587
(dp2588
g6
g1
(g7
g3
NtRp2589
(dp2590
g10
g1
(g11
g12
(dtRp2591
sg14
g1
(g11
g12
(dtRp2592
sg16
g1
(g11
g12
(dtRp2593
sg18
g1
(g11
g12
(dtRp2594
sg20
g1
(g11
g12
(dtRp2595
sg22
g1
(g11
g12
(dtRp2596
sbsg24
g25
sg26
g27
((lp2597
g33
ag32
ag29
ag30
atRp2598
sg37
(lp2599
g1
(g2
g3
NtRp2600
(dp2601
g6
g1
(g7
g3
NtRp2602
(dp2603
g10
g1
(g11
g12
(dtRp2604
sg14
g1
(g11
g12
(dtRp2605
sg16
g1
(g11
g12
(dtRp2606
sg18
g1
(g11
g12
(dtRp2607
sg20
g1
(g11
g12
(dtRp2608
sg22
g1
(g11
g12
(dtRp2609
sbsg24
S'Pkl'
p2610
sg26
g27
((lp2611
g29
ag30
aS'sequence'
p2612
ag32
ag33
aS'species'
p2613
atRp2614
sg37
(lp2615
sg120
g2587
sg121
S'RWLSTKDLYSRLELPGLNQNVHAMFMMPTGFGNPMGDMFARLNNSFWLPPLSLEGPGTGWTVYPPLSHSGPSVDLAFHLTSSLLGAMNFTNMRGPLFWTALLVMTLPVLAGTLLDRNFNTFEGGDPLYHLFWFFGHPEVYMMPGFGSHSTYKKFGMYASMGLGLVWSHHMYVGLDDRAYFTSATMMAPTGMKFSWLATYGGRPMLAFMFIFTGGSGVLNASDAFHDTYYVMHFHYVLSLGAFAMGYYYWPGLFNLFWFNFPMHFLGGMPRRPYPDAGFNSGASYQLGPDESNEPH'
p2616
sg123
F0.12625
sg124
g125
sg33
S'187'
p2617
sg127
g1
(g128
g12
(dp2618
g130
I4
sg131
g132
sg133
g134
sg135
g132
sg136
I01
sg34
g137
sg138
g134
sg139
I0
sg140
I0
sg141
I0
sg142
g134
sg35
g143
sg144
I0
stRp2619
sg146
g147
sg148
F1
sg149
Nsg30
S'PkluyA'
p2620
sbag1
(g2
g3
NtRp2621
(dp2622
g6
g1
(g7
g3
NtRp2623
(dp2624
g10
g1
(g11
g12
(dtRp2625
sg14
g1
(g11
g12
(dtRp2626
sg16
g1
(g11
g12
(dtRp2627
sg18
g1
(g11
g12
(dtRp2628
sg20
g1
(g11
g12
(dtRp2629
sg22
g1
(g11
g12
(dtRp2630
sbsg24
S'Bcu'
p2631
sg26
g27
((lp2632
g29
ag30
aS'sequence'
p2633
ag32
ag33
aS'species'
p2634
atRp2635
sg37
(lp2636
sg120
g2587
sg121
S'RWLSTKDLYSRLELPGLDQNVHSMFMMPTGFGNPMGDMFARLNNAFWYPPLSLEGPGTGWTVYPPLSHSGPSMDLAFHLTSSMLSSMNFTNMRGPLFWTALLMMTLPVLAGTLLDRNFNTFEGGDPLYHLYWFFGHPEVYIIPVFGSHSNYKKFGMYASMGLGLVWSHHMYVGLDDRAYFTSATMIAPTGIKFSWLATYGGRPMLAFLFMFTGGSGVLNASDAFHDTYFVVHFHYVLSLGVYGVGYYFWPGLYNMFWFNFPMHFLGGMPRRPYPDAGFNSGSAYQLGPDESNEPH'
p2637
sg123
F0.30854999999999999
sg124
g125
sg33
S'67'
p2638
sg127
g1
(g128
g12
(dp2639
g130
I4
sg131
g132
sg133
g134
sg135
g132
sg136
I01
sg34
g137
sg138
g134
sg139
I0
sg140
I0
sg141
I0
sg142
g134
sg35
g143
sg144
I0
stRp2640
sg146
g147
sg148
F1
sg149
Nsg30
S'BcustA'
p2641
sbasg120
g2574
sg123
F0.19120999999999999
sg124
g125
sg33
S'24'
p2642
sg127
g1
(g128
g12
(dp2643
g130
I6
sg131
g132
sg133
g134
sg135
g132
sg136
I01
sg34
g174
sg138
g134
sg139
I0
sg140
I0
sg141
I0
sg142
g134
sg35
g175
sg144
I0
stRp2644
sg146
g147
sg148
F0.98999999999999999
sg149
Nsg30
S'NoName'
p2645
sbag1
(g2
g3
NtRp2646
(dp2647
g6
g1
(g7
g3
NtRp2648
(dp2649
g10
g1
(g11
g12
(dtRp2650
sg14
g1
(g11
g12
(dtRp2651
sg16
g1
(g11
g12
(dtRp2652
sg18
g1
(g11
g12
(dtRp2653
sg20
g1
(g11
g12
(dtRp2654
sg22
g1
(g11
g12
(dtRp2655
sbsg24
S'Oan'
p2656
sg26
g27
((lp2657
g29
ag30
aS'sequence'
p2658
ag32
ag33
aS'species'
p2659
atRp2660
sg37
(lp2661
sg120
g2574
sg121
S'RWLSTKDLYSRLELPGLNQNAHAMFVMPAGFGNPMGDMFARLNNSFWLPPLSLEGAGTGWTVYPPLSHSGPSVDLAFHLTSSLLGAINFTNMRGPLFWTALLLLSLPVLAGTLLDRNFNTFEGGDPLYHLFWFFGHPEVYIIPGFGSHSTYKKFGMYASIGLGLVWSHHMYVGLDDRAYFTSATMIAPTGIKFSWIATYGGRPMLAFLFLFTGGSGVLNASDAFHDTYYVIHFHYVLSLGAFSLGYYYWPGLYNLFWFNFPMHFLGGMPRRPYPDAGYNSGSSYQLGPDESNEPH'
p2662
sg123
F0.025399999999999999
sg124
g125
sg33
S'210'
p2663
sg127
g1
(g128
g12
(dp2664
g130
I4
sg131
g132
sg133
g134
sg135
g132
sg136
I01
sg34
g137
sg138
g134
sg139
I0
sg140
I0
sg141
I0
sg142
g134
sg35
g143
sg144
I0
stRp2665
sg146
g147
sg148
F1
sg149
Nsg30
S'OanguA'
p2666
sbasg120
g2540
sg123
F0.33273999999999998
sg124
g125
sg33
S'10'
p2667
sg127
g1
(g128
g12
(dp2668
g130
I6
sg131
g132
sg133
g134
sg135
g132
sg136
I01
sg34
g174
sg138
g134
sg139
I0
sg140
I0
sg141
I0
sg142
g134
sg35
g175
sg144
I0
stRp2669
sg146
g147
sg148
F0.98999999999999999
sg149
Nsg30
S'NoName'
p2670
sbasg120
g2506
sg123
F0.054379999999999998
sg124
g125
sg33
S'219'
p2671
sg127
g1
(g128
g12
(dp2672
g130
I6
sg131
g132
sg133
g134
sg135
g132
sg136
I01
sg34
g174
sg138
g134
sg139
I0
sg140
I0
sg141
I0
sg142
g134
sg35
g175
sg144
I0
stRp2673
sg146
g147
sg148
F0.96999999999999997
sg149
Nsg30
S'NoName'
p2674
sbasg120
g2493
sg123
F0.76378000000000001
sg124
g125
sg33
S'118'
p2675
sg127
g1
(g128
g12
(dp2676
g130
I6
sg131
g132
sg133
g134
sg135
g132
sg136
I01
sg34
g174
sg138
g134
sg139
I0
sg140
I0
sg141
I0
sg142
g134
sg35
g175
sg144
I0
stRp2677
sg146
g147
sg148
F0.98999999999999999
sg149
Nsg30
S'NoName'
p2678
sbag1
(g2
g3
NtRp2679
(dp2680
g6
g1
(g7
g3
NtRp2681
(dp2682
g10
g1
(g11
g12
(dtRp2683
sg14
g1
(g11
g12
(dtRp2684
sg16
g1
(g11
g12
(dtRp2685
sg18
g1
(g11
g12
(dtRp2686
sg20
g1
(g11
g12
(dtRp2687
sg22
g1
(g11
g12
(dtRp2688
sbsg24
g25
sg26
g27
((lp2689
g33
ag32
ag29
ag30
atRp2690
sg37
(lp2691
g1
(g2
g3
NtRp2692
(dp2693
g6
g1
(g7
g3
NtRp2694
(dp2695
g10
g1
(g11
g12
(dtRp2696
sg14
g1
(g11
g12
(dtRp2697
sg16
g1
(g11
g12
(dtRp2698
sg18
g1
(g11
g12
(dtRp2699
sg20
g1
(g11
g12
(dtRp2700
sg22
g1
(g11
g12
(dtRp2701
sbsg24
g25
sg26
g27
((lp2702
g33
ag32
ag29
ag30
atRp2703
sg37
(lp2704
g1
(g2
g3
NtRp2705
(dp2706
g6
g1
(g7
g3
NtRp2707
(dp2708
g10
g1
(g11
g12
(dtRp2709
sg14
g1
(g11
g12
(dtRp2710
sg16
g1
(g11
g12
(dtRp2711
sg18
g1
(g11
g12
(dtRp2712
sg20
g1
(g11
g12
(dtRp2713
sg22
g1
(g11
g12
(dtRp2714
sbsg24
g25
sg26
g27
((lp2715
g33
ag32
ag29
ag30
atRp2716
sg37
(lp2717
g1
(g2
g3
NtRp2718
(dp2719
g6
g1
(g7
g3
NtRp2720
(dp2721
g10
g1
(g11
g12
(dtRp2722
sg14
g1
(g11
g12
(dtRp2723
sg16
g1
(g11
g12
(dtRp2724
sg18
g1
(g11
g12
(dtRp2725
sg20
g1
(g11
g12
(dtRp2726
sg22
g1
(g11
g12
(dtRp2727
sbsg24
g25
sg26
g27
((lp2728
g33
ag32
ag29
ag30
atRp2729
sg37
(lp2730
g1
(g2
g3
NtRp2731
(dp2732
g6
g1
(g7
g3
NtRp2733
(dp2734
g10
g1
(g11
g12
(dtRp2735
sg14
g1
(g11
g12
(dtRp2736
sg16
g1
(g11
g12
(dtRp2737
sg18
g1
(g11
g12
(dtRp2738
sg20
g1
(g11
g12
(dtRp2739
sg22
g1
(g11
g12
(dtRp2740
sbsg24
S'Cva'
p2741
sg26
g27
((lp2742
g29
ag30
aS'sequence'
p2743
ag32
ag33
aS'species'
p2744
atRp2745
sg37
(lp2746
sg120
g2718
sg121
S'RWLSTKDLYSRLELPGLNQNVHAMFVMPLGFGNPLGDMFARLNNSFWLPPLSLEGAGTGWTIYPPLSHSSPSVDLGFHLTSSLLGAINFTNMRGPLFWTAMLLLSLPVLAGTLLDRNFNTFEGGDPLYHLFWFFGHPEVYIIPGFGSHSTYKKFGMYASIALGFVWSHHMYVGLDDRAYFTSSTMIAPTGIKFSWLATYGGRPMLAFLFLFTGGTGVLNASDAFHDTYYVVHFHYVLSMGAFSLGYYYWPGLYNLFWFNFPMHFLGGMPRRPYPDAGWNSGSSYQLGPDESNEPH'
p2747
sg123
F0.043270000000000003
sg124
g125
sg33
S'122'
p2748
sg127
g1
(g128
g12
(dp2749
g130
I4
sg131
g132
sg133
g134
sg135
g132
sg136
I01
sg34
g137
sg138
g134
sg139
I0
sg140
I0
sg141
I0
sg142
g134
sg35
g143
sg144
I0
stRp2750
sg146
g147
sg148
F1
sg149
Nsg30
S'CvartA'
p2751
sbag1
(g2
g3
NtRp2752
(dp2753
g6
g1
(g7
g3
NtRp2754
(dp2755
g10
g1
(g11
g12
(dtRp2756
sg14
g1
(g11
g12
(dtRp2757
sg16
g1
(g11
g12
(dtRp2758
sg18
g1
(g11
g12
(dtRp2759
sg20
g1
(g11
g12
(dtRp2760
sg22
g1
(g11
g12
(dtRp2761
sbsg24
g25
sg26
g27
((lp2762
g33
ag32
ag29
ag30
atRp2763
sg37
(lp2764
g1
(g2
g3
NtRp2765
(dp2766
g6
g1
(g7
g3
NtRp2767
(dp2768
g10
g1
(g11
g12
(dtRp2769
sg14
g1
(g11
g12
(dtRp2770
sg16
g1
(g11
g12
(dtRp2771
sg18
g1
(g11
g12
(dtRp2772
sg20
g1
(g11
g12
(dtRp2773
sg22
g1
(g11
g12
(dtRp2774
sbsg24
S'Csu'
p2775
sg26
g27
((lp2776
g29
ag30
aS'sequence'
p2777
ag32
ag33
aS'species'
p2778
atRp2779
sg37
(lp2780
sg120
g2752
sg121
S'RWLSTKDLYSRLELPGLNQNVHAMFVMPLGFGNPLGDMFARLNNSFWLPPLSLEGAGTGWTIYPPLSHSSPSVDLGFHLTSSMLGAINFTNMRGPLFWTAMLLLSLPVLAGTLLDRNFNTFEGGDPLYHLFWFFGHPEVYIIPGFGSHSTYKKFGMYASIALGFVWSHHMYVGLDDRAYFTSSTMIAPTGIKFSWLATYGGRPMLAFLFLFTGGTGVLNASDAFHDSYYY-HFHYVLSMGAFSLGYYYWPGLYNLFWFNFPMHFLGGMPRRPYPDAGWNSGSSYQLGPDESNEPH'
p2781
sg123
F0.0043699999999999998
sg124
g125
sg33
S'57'
p2782
sg127
g1
(g128
g12
(dp2783
g130
I4
sg131
g132
sg133
g134
sg135
g132
sg136
I01
sg34
g137
sg138
g134
sg139
I0
sg140
I0
sg141
I0
sg142
g134
sg35
g143
sg144
I0
stRp2784
sg146
g147
sg148
F1
sg149
Nsg30
S'CsuavB'
p2785
sbag1
(g2
g3
NtRp2786
(dp2787
g6
g1
(g7
g3
NtRp2788
(dp2789
g10
g1
(g11
g12
(dtRp2790
sg14
g1
(g11
g12
(dtRp2791
sg16
g1
(g11
g12
(dtRp2792
sg18
g1
(g11
g12
(dtRp2793
sg20
g1
(g11
g12
(dtRp2794
sg22
g1
(g11
g12
(dtRp2795
sbsg24
S'Csu'
p2796
sg26
g27
((lp2797
g29
ag30
aS'sequence'
p2798
ag32
ag33
aS'species'
p2799
atRp2800
sg37
(lp2801
sg120
g2752
sg121
S'RWLSTKDLYSRLELPGLNQNVHAMFVMPLGFGNPLGDMFARLNNSFWLPPLSLEGAGTGWTIYPPLSHSSPSVDLGFHLTSSLLGAINFTNMRGPLFWTAMLLLSLPVLAGTLLDRNFNTFEGGDPLYHLFWFFGHPEVYIIPGFGSHSTYKKFGMYASIALGFVWSHHMYVGLDDRAYFTSSTMIAPTGIKFSWLATYGGRPMLAFLFLFTGGTGVLNASDAFHDTYYVVHFHYVLSMGAFSLGYYYWPGLYNLFWFNFPMHFLGGMPRRPYPDAGWNSGSSYQLGPDESNEPH'
p2802
sg123
F0.0025999999999999999
sg124
g125
sg33
S'98'
p2803
sg127
g1
(g128
g12
(dp2804
g130
I4
sg131
g132
sg133
g134
sg135
g132
sg136
I01
sg34
g137
sg138
g134
sg139
I0
sg140
I0
sg141
I0
sg142
g134
sg35
g143
sg144
I0
stRp2805
sg146
g147
sg148
F1
sg149
Nsg30
S'CsuavA'
p2806
sbasg120
g2718
sg123
F0.016740000000000001
sg124
g125
sg33
S'0'
sg127
g1
(g128
g12
(dp2807
g130
I6
sg131
g132
sg133
g134
sg135
g132
sg136
I01
sg34
g174
sg138
g134
sg139
I0
sg140
I0
sg141
I0
sg142
g134
sg35
g175
sg144
I0
stRp2808
sg146
g147
sg148
F0.98999999999999999
sg149
Nsg30
S'NoName'
p2809
sbasg120
g2705
sg123
F0.01158
sg124
g125
sg33
S'115'
p2810
sg127
g1
(g128
g12
(dp2811
g130
I6
sg131
g132
sg133
g134
sg135
g132
sg136
I01
sg34
g174
sg138
g134
sg139
I0
sg140
I0
sg141
I0
sg142
g134
sg35
g175
sg144
I0
stRp2812
sg146
g147
sg148
F0.97999999999999998
sg149
Nsg30
S'NoName'
p2813
sbag1
(g2
g3
NtRp2814
(dp2815
g6
g1
(g7
g3
NtRp2816
(dp2817
g10
g1
(g11
g12
(dtRp2818
sg14
g1
(g11
g12
(dtRp2819
sg16
g1
(g11
g12
(dtRp2820
sg18
g1
(g11
g12
(dtRp2821
sg20
g1
(g11
g12
(dtRp2822
sg22
g1
(g11
g12
(dtRp2823
sbsg24
S'Cja'
p2824
sg26
g27
((lp2825
g29
ag30
aS'sequence'
p2826
ag32
ag33
aS'species'
p2827
atRp2828
sg37
(lp2829
sg120
g2705
sg121
S'RWLSTKDLYSRLELPGLNQNVHAMFVMPLGFGNPLGDMFARLNNSFWLPPLSLEGAGTGWTIYPPLAHSSPSVDLGFHLTSSLLGAINFTNMRGPLFWTAMLLLSLPVLAGTLLDRNFNTFEGGDPLYHLFWFFGHPEVYIIPGFGSHSTYKKFGMYASIALGFVWSHHMYVGLDDRAYFTSSTMIAPTGIKFSWLATYGGRPMLAFLFLFTGGTGVLNASDAFHDTYYVVHFHYVLSMGAFSLGYYYWPGLYNLFWFNFPMHFLGGMPRRPYPDAGWNSGSSYQLGPDESNEPH'
p2830
sg123
F0.033799999999999997
sg124
g125
sg33
S'163'
p2831
sg127
g1
(g128
g12
(dp2832
g130
I4
sg131
g132
sg133
g134
sg135
g132
sg136
I01
sg34
g137
sg138
g134
sg139
I0
sg140
I0
sg141
I0
sg142
g134
sg35
g143
sg144
I0
stRp2833
sg146
g147
sg148
F1
sg149
Nsg30
S'CjadiA'
p2834
sbasg120
g2692
sg123
F0.10375
sg124
g125
sg33
S'132'
p2835
sg127
g1
(g128
g12
(dp2836
g130
I6
sg131
g132
sg133
g134
sg135
g132
sg136
I01
sg34
g174
sg138
g134
sg139
I0
sg140
I0
sg141
I0
sg142
g134
sg35
g175
sg144
I0
stRp2837
sg146
g147
sg148
F0.98999999999999999
sg149
Nsg30
S'NoName'
p2838
sbag1
(g2
g3
NtRp2839
(dp2840
g6
g1
(g7
g3
NtRp2841
(dp2842
g10
g1
(g11
g12
(dtRp2843
sg14
g1
(g11
g12
(dtRp2844
sg16
g1
(g11
g12
(dtRp2845
sg18
g1
(g11
g12
(dtRp2846
sg20
g1
(g11
g12
(dtRp2847
sg22
g1
(g11
g12
(dtRp2848
sbsg24
g25
sg26
g27
((lp2849
g33
ag32
ag29
ag30
atRp2850
sg37
(lp2851
g1
(g2
g3
NtRp2852
(dp2853
g6
g1
(g7
g3
NtRp2854
(dp2855
g10
g1
(g11
g12
(dtRp2856
sg14
g1
(g11
g12
(dtRp2857
sg16
g1
(g11
g12
(dtRp2858
sg18
g1
(g11
g12
(dtRp2859
sg20
g1
(g11
g12
(dtRp2860
sg22
g1
(g11
g12
(dtRp2861
sbsg24
g25
sg26
g27
((lp2862
g33
ag32
ag29
ag30
atRp2863
sg37
(lp2864
g1
(g2
g3
NtRp2865
(dp2866
g6
g1
(g7
g3
NtRp2867
(dp2868
g10
g1
(g11
g12
(dtRp2869
sg14
g1
(g11
g12
(dtRp2870
sg16
g1
(g11
g12
(dtRp2871
sg18
g1
(g11
g12
(dtRp2872
sg20
g1
(g11
g12
(dtRp2873
sg22
g1
(g11
g12
(dtRp2874
sbsg24
S'Wpi'
p2875
sg26
g27
((lp2876
g29
ag30
aS'sequence'
p2877
ag32
ag33
aS'species'
p2878
atRp2879
sg37
(lp2880
sg120
g2852
sg121
S'RWLSTKDLYSRLELPGLNQNVHAMFVMPLGFGNPLGDMFARLNNSFWLPPLSLEGAGTGWTIYPPLSHSSPSVDLGFHLTSSLLGAINFTNMRGPLFWTAMLLLSLPVLAGTLLDRNFNTFEGGDPLYHLFWFFGHPEVYIIPGFGSHSTYKKFGMYASIALGFVWSHHMYVGLDDRAYFTSSTMIAPTGIKFSWLATYGGRPMLAFLFLFTGGTGVLNASDAFHDTYYVVHFHYVLSMGAFSLGYYYWPGLYNLFWFNFPMHFLGGMPRRPYPDAGWNSGSSFQLGPDESNEPH'
p2881
sg123
F0.051209999999999999
sg124
g125
sg33
S'166'
p2882
sg127
g1
(g128
g12
(dp2883
g130
I4
sg131
g132
sg133
g134
sg135
g132
sg136
I01
sg34
g137
sg138
g134
sg139
I0
sg140
I0
sg141
I0
sg142
g134
sg35
g143
sg144
I0
stRp2884
sg146
g147
sg148
F1
sg149
Nsg30
S'WpijpA'
p2885
sbag1
(g2
g3
NtRp2886
(dp2887
g6
g1
(g7
g3
NtRp2888
(dp2889
g10
g1
(g11
g12
(dtRp2890
sg14
g1
(g11
g12
(dtRp2891
sg16
g1
(g11
g12
(dtRp2892
sg18
g1
(g11
g12
(dtRp2893
sg20
g1
(g11
g12
(dtRp2894
sg22
g1
(g11
g12
(dtRp2895
sbsg24
S'Wmu'
p2896
sg26
g27
((lp2897
g29
ag30
aS'sequence'
p2898
ag32
ag33
aS'species'
p2899
atRp2900
sg37
(lp2901
sg120
g2852
sg121
S'RWLSTKDLYSRLELPGLNQNVHAMFVMPLGFGNPLGDMFARLNNSFWLPPLSLEGAGTGWTIYPPLAHSSPSVDLGFHLTSSLLGAINFTNMRGPLFWTAMLLLSLPVLAGTLLDRNFNTFEGGDPLYHLFWFFGHPEVYIIPGFGSHSTYKKFGMYASIALGFVWSHHMYVGLDDRAYFTSSTMIAPTGIKFSWLATYGGRPMLAFLFLFTGGTGVLNASDAFHDTYYVVHFHYVLSMGAFSLGYYYWPGLYNLFWFNFPMHFLGGMPRRPYPDAGWNSGSSYQLGPDESNEPH'
p2902
sg123
F0.079170000000000004
sg124
g125
sg33
S'180'
p2903
sg127
g1
(g128
g12
(dp2904
g130
I4
sg131
g132
sg133
g134
sg135
g132
sg136
I01
sg34
g137
sg138
g134
sg139
I0
sg140
I0
sg141
I0
sg142
g134
sg35
g143
sg144
I0
stRp2905
sg146
g147
sg148
F1
sg149
Nsg30
S'WmucoA'
p2906
sbasg120
g2839
sg123
F0.14757000000000001
sg124
g125
sg33
S'95'
p2907
sg127
g1
(g128
g12
(dp2908
g130
I6
sg131
g132
sg133
g134
sg135
g132
sg136
I01
sg34
g174
sg138
g134
sg139
I0
sg140
I0
sg141
I0
sg142
g134
sg35
g175
sg144
I0
stRp2909
sg146
g147
sg148
F0.98999999999999999
sg149
Nsg30
S'NoName'
p2910
sbag1
(g2
g3
NtRp2911
(dp2912
g6
g1
(g7
g3
NtRp2913
(dp2914
g10
g1
(g11
g12
(dtRp2915
sg14
g1
(g11
g12
(dtRp2916
sg16
g1
(g11
g12
(dtRp2917
sg18
g1
(g11
g12
(dtRp2918
sg20
g1
(g11
g12
(dtRp2919
sg22
g1
(g11
g12
(dtRp2920
sbsg24
g25
sg26
g27
((lp2921
g33
ag32
ag29
ag30
atRp2922
sg37
(lp2923
g1
(g2
g3
NtRp2924
(dp2925
g6
g1
(g7
g3
NtRp2926
(dp2927
g10
g1
(g11
g12
(dtRp2928
sg14
g1
(g11
g12
(dtRp2929
sg16
g1
(g11
g12
(dtRp2930
sg18
g1
(g11
g12
(dtRp2931
sg20
g1
(g11
g12
(dtRp2932
sg22
g1
(g11
g12
(dtRp2933
sbsg24
S'Pca'
p2934
sg26
g27
((lp2935
g29
ag30
aS'sequence'
p2936
ag32
ag33
aS'species'
p2937
atRp2938
sg37
(lp2939
sg120
g2911
sg121
S'RWLSTKDLYSRLELPGLNQNVHAMFVMPLGFGNPLGDMFARLNNSFWLPPLSLEWAGTGWTIYPPLSHSSPSVDLGFHLTSSLLGAINFTNMRGPLFWTAMLLLSLPVLAGTLLDRNFNTFEGGDPLYHLFWFFGHPEVYIIPGFGSHSTYKKFGMYASIALGFVWSHHMYVGLDDRAYFTSSTMIAPTGIKFSWLATYGGRPMLAFLFLFTGGTGVLNASDAFHDTYYVVHFHYVLSMGAFSLGYYYWPGLFNLFWFNFPMHFLGGMPRRPYPDAGWNSGSSYQLGPDESNEPH'
p2940
sg123
F0.10655000000000001
sg124
g125
sg33
S'217'
p2941
sg127
g1
(g128
g12
(dp2942
g130
I4
sg131
g132
sg133
g134
sg135
g132
sg136
I01
sg34
g137
sg138
g134
sg139
I0
sg140
I0
sg141
I0
sg142
g134
sg35
g143
sg144
I0
stRp2943
sg146
g147
sg148
F1
sg149
Nsg30
S'PcanaA'
p2944
sbag1
(g2
g3
NtRp2945
(dp2946
g6
g1
(g7
g3
NtRp2947
(dp2948
g10
g1
(g11
g12
(dtRp2949
sg14
g1
(g11
g12
(dtRp2950
sg16
g1
(g11
g12
(dtRp2951
sg18
g1
(g11
g12
(dtRp2952
sg20
g1
(g11
g12
(dtRp2953
sg22
g1
(g11
g12
(dtRp2954
sbsg24
g25
sg26
g27
((lp2955
g33
ag32
ag29
ag30
atRp2956
sg37
(lp2957
g1
(g2
g3
NtRp2958
(dp2959
g6
g1
(g7
g3
NtRp2960
(dp2961
g10
g1
(g11
g12
(dtRp2962
sg14
g1
(g11
g12
(dtRp2963
sg16
g1
(g11
g12
(dtRp2964
sg18
g1
(g11
g12
(dtRp2965
sg20
g1
(g11
g12
(dtRp2966
sg22
g1
(g11
g12
(dtRp2967
sbsg24
S'Cno'
p2968
sg26
g27
((lp2969
g29
ag30
aS'sequence'
p2970
ag32
ag33
aS'species'
p2971
atRp2972
sg37
(lp2973
sg120
g2945
sg121
S'RWLSTKDLYSRLELPGLNQNVHAMFVMPLGFGNPLGDMFARLNNSFWLPPLSLEGAGTGWTIYPPLSHSSPSVDLGFHLTSSLLGAMNFTNMRGPLFWTAMLLLSLPVLAGTLLDRNFNTFEGGDPLYHLFWFFGHPEVYMIPGFGSHSTYKKFGMYASMALGFVWSHHMYVGLDDRAYFTSSTMMAPTGMKFSWLATYGGRPMLAFLFLFTGGTGVLNASDAFHDTYYVVHFHYVLSMGAFSLGYYYWPGLYNLFWFNFPMHFLGGMPRRPYPDAGWNSGSSYQLGPDESNEPH'
p2974
sg123
F0.059069999999999998
sg124
g125
sg33
S'149'
p2975
sg127
g1
(g128
g12
(dp2976
g130
I4
sg131
g132
sg133
g134
sg135
g132
sg136
I01
sg34
g137
sg138
g134
sg139
I0
sg140
I0
sg141
I0
sg142
g134
sg35
g143
sg144
I0
stRp2977
sg146
g147
sg148
F1
sg149
Nsg30
S'CnorvA'
p2978
sbag1
(g2
g3
NtRp2979
(dp2980
g6
g1
(g7
g3
NtRp2981
(dp2982
g10
g1
(g11
g12
(dtRp2983
sg14
g1
(g11
g12
(dtRp2984
sg16
g1
(g11
g12
(dtRp2985
sg18
g1
(g11
g12
(dtRp2986
sg20
g1
(g11
g12
(dtRp2987
sg22
g1
(g11
g12
(dtRp2988
sbsg24
S'Bca'
p2989
sg26
g27
((lp2990
g29
ag30
aS'sequence'
p2991
ag32
ag33
aS'species'
p2992
atRp2993
sg37
(lp2994
sg120
g2945
sg121
S'RWLSTKDLYSRLELPGLNQNVHAMFVMPLGFGNPLGDMFARLNNSFWLPPLSLEGAGTGWTIYPPLSHSSPSVDLGFHLTSSLLGAINFTNMRGPLFWTAMLLLSLPVLAGTLLDRNFNTFEGGDPLYHLFWFFGHPEVYIMPGFGSHSTYKKFGMYASIALGFVWSHHMYVGLDDRAYFTSSTMIAPTGIKFSWLATYGGRPMLAFLFLFTGGTGVLNASDAFHDTYYVVHFHYVLSMGAFSLGYYYWPGLYNLFWFNFPMHFLGGMPRRPYPDAGWNSGSSYQLGPDESNEPH'
p2995
sg123
F0.031899999999999998
sg124
g125
sg33
S'58'
p2996
sg127
g1
(g128
g12
(dp2997
g130
I4
sg131
g132
sg133
g134
sg135
g132
sg136
I01
sg34
g137
sg138
g134
sg139
I0
sg140
I0
sg141
I0
sg142
g134
sg35
g143
sg144
I0
stRp2998
sg146
g147
sg148
F1
sg149
Nsg30
S'BcaliA'
p2999
sbasg120
g2911
sg123
F0.09486
sg124
g125
sg33
S'101'
p3000
sg127
g1
(g128
g12
(dp3001
g130
I6
sg131
g132
sg133
g134
sg135
g132
sg136
I01
sg34
g174
sg138
g134
sg139
I0
sg140
I0
sg141
I0
sg142
g134
sg35
g175
sg144
I0
stRp3002
sg146
g147
sg148
F0.97999999999999998
sg149
Nsg30
S'NoName'
p3003
sbasg120
g2839
sg123
F0.054690000000000003
sg124
g125
sg33
S'39'
p3004
sg127
g1
(g128
g12
(dp3005
g130
I6
sg131
g132
sg133
g134
sg135
g132
sg136
I01
sg34
g174
sg138
g134
sg139
I0
sg140
I0
sg141
I0
sg142
g134
sg35
g175
sg144
I0
stRp3006
sg146
g147
sg148
F0.96999999999999997
sg149
Nsg30
S'NoName'
p3007
sbasg120
g2692
sg123
F0.051860000000000003
sg124
g125
sg33
S'175'
p3008
sg127
g1
(g128
g12
(dp3009
g130
I6
sg131
g132
sg133
g134
sg135
g132
sg136
I01
sg34
g174
sg138
g134
sg139
I0
sg140
I0
sg141
I0
sg142
g134
sg35
g175
sg144
I0
stRp3010
sg146
g147
sg148
F0.96999999999999997
sg149
Nsg30
S'NoName'
p3011
sbasg120
g2679
sg123
F0.52095999999999998
sg124
g125
sg33
S'172'
p3012
sg127
g1
(g128
g12
(dp3013
g130
I6
sg131
g132
sg133
g134
sg135
g132
sg136
I01
sg34
g174
sg138
g134
sg139
I0
sg140
I0
sg141
I0
sg142
g134
sg35
g175
sg144
I0
stRp3014
sg146
g147
sg148
F0.98999999999999999
sg149
Nsg30
S'NoName'
p3015
sbag1
(g2
g3
NtRp3016
(dp3017
g6
g1
(g7
g3
NtRp3018
(dp3019
g10
g1
(g11
g12
(dtRp3020
sg14
g1
(g11
g12
(dtRp3021
sg16
g1
(g11
g12
(dtRp3022
sg18
g1
(g11
g12
(dtRp3023
sg20
g1
(g11
g12
(dtRp3024
sg22
g1
(g11
g12
(dtRp3025
sbsg24
g25
sg26
g27
((lp3026
g33
ag32
ag29
ag30
atRp3027
sg37
(lp3028
g1
(g2
g3
NtRp3029
(dp3030
g6
g1
(g7
g3
NtRp3031
(dp3032
g10
g1
(g11
g12
(dtRp3033
sg14
g1
(g11
g12
(dtRp3034
sg16
g1
(g11
g12
(dtRp3035
sg18
g1
(g11
g12
(dtRp3036
sg20
g1
(g11
g12
(dtRp3037
sg22
g1
(g11
g12
(dtRp3038
sbsg24
g25
sg26
g27
((lp3039
g33
ag32
ag29
ag30
atRp3040
sg37
(lp3041
g1
(g2
g3
NtRp3042
(dp3043
g6
g1
(g7
g3
NtRp3044
(dp3045
g10
g1
(g11
g12
(dtRp3046
sg14
g1
(g11
g12
(dtRp3047
sg16
g1
(g11
g12
(dtRp3048
sg18
g1
(g11
g12
(dtRp3049
sg20
g1
(g11
g12
(dtRp3050
sg22
g1
(g11
g12
(dtRp3051
sbsg24
g25
sg26
g27
((lp3052
g33
ag32
ag29
ag30
atRp3053
sg37
(lp3054
g1
(g2
g3
NtRp3055
(dp3056
g6
g1
(g7
g3
NtRp3057
(dp3058
g10
g1
(g11
g12
(dtRp3059
sg14
g1
(g11
g12
(dtRp3060
sg16
g1
(g11
g12
(dtRp3061
sg18
g1
(g11
g12
(dtRp3062
sg20
g1
(g11
g12
(dtRp3063
sg22
g1
(g11
g12
(dtRp3064
sbsg24
g25
sg26
g27
((lp3065
g33
ag32
ag29
ag30
atRp3066
sg37
(lp3067
g1
(g2
g3
NtRp3068
(dp3069
g6
g1
(g7
g3
NtRp3070
(dp3071
g10
g1
(g11
g12
(dtRp3072
sg14
g1
(g11
g12
(dtRp3073
sg16
g1
(g11
g12
(dtRp3074
sg18
g1
(g11
g12
(dtRp3075
sg20
g1
(g11
g12
(dtRp3076
sg22
g1
(g11
g12
(dtRp3077
sbsg24
g25
sg26
g27
((lp3078
g33
ag32
ag29
ag30
atRp3079
sg37
(lp3080
g1
(g2
g3
NtRp3081
(dp3082
g6
g1
(g7
g3
NtRp3083
(dp3084
g10
g1
(g11
g12
(dtRp3085
sg14
g1
(g11
g12
(dtRp3086
sg16
g1
(g11
g12
(dtRp3087
sg18
g1
(g11
g12
(dtRp3088
sg20
g1
(g11
g12
(dtRp3089
sg22
g1
(g11
g12
(dtRp3090
sbsg24
g25
sg26
g27
((lp3091
g33
ag32
ag29
ag30
atRp3092
sg37
(lp3093
g1
(g2
g3
NtRp3094
(dp3095
g6
g1
(g7
g3
NtRp3096
(dp3097
g10
g1
(g11
g12
(dtRp3098
sg14
g1
(g11
g12
(dtRp3099
sg16
g1
(g11
g12
(dtRp3100
sg18
g1
(g11
g12
(dtRp3101
sg20
g1
(g11
g12
(dtRp3102
sg22
g1
(g11
g12
(dtRp3103
sbsg24
S'Lkl'
p3104
sg26
g27
((lp3105
g29
ag30
aS'sequence'
p3106
ag32
ag33
aS'species'
p3107
atRp3108
sg37
(lp3109
sg120
g3081
sg121
S'RWLSTKDLYSRLELPGLNQNVHAMFVMPLGFGNPMGDMFARLNNSFWLPPLSLEGAGTGWTVYPPLSHSGPSVDLAFHLTSSLLGAINFTNMRGPLFWTALLLLSLPVLAGTLLDRNFNTFEGGDPLYHLFWFFGHPEVYIIPGFGSHSTYKKFGMYASIGLGFVWSHHMYVGLDDRAYFLSATMIAPTGIKFSWLATYGGRPMLAFLFLFTGGTGVLNASDAFHDLYYVVHFHYVLSMGAFSLGYYYWPGLYNLFWFNFPMHFLGGMPRRPYPDAGWNSGSSYQLGPDESNEPH'
p3110
sg123
F0.00044999999999999999
sg124
g125
sg33
S'154'
p3111
sg127
g1
(g128
g12
(dp3112
g130
I4
sg131
g132
sg133
g134
sg135
g132
sg136
I01
sg34
g137
sg138
g134
sg139
I0
sg140
I0
sg141
I0
sg142
g134
sg35
g143
sg144
I0
stRp3113
sg146
g147
sg148
F1
sg149
Nsg30
S'LkluyE'
p3114
sbag1
(g2
g3
NtRp3115
(dp3116
g6
g1
(g7
g3
NtRp3117
(dp3118
g10
g1
(g11
g12
(dtRp3119
sg14
g1
(g11
g12
(dtRp3120
sg16
g1
(g11
g12
(dtRp3121
sg18
g1
(g11
g12
(dtRp3122
sg20
g1
(g11
g12
(dtRp3123
sg22
g1
(g11
g12
(dtRp3124
sbsg24
S'Lkl'
p3125
sg26
g27
((lp3126
g29
ag30
aS'sequence'
p3127
ag32
ag33
aS'species'
p3128
atRp3129
sg37
(lp3130
sg120
g3081
sg121
S'RWLSTKDLYSRLELPGLNQNVHAMFVMPLGFGNPMGDMFARLNNSFWLPPLSLEGAGTGWTVYPPLSHSGPSVDLAFHLTSSLLGAINFTNMRGPLFWTALLLLSLPVLAGTLLDRNFNTFEGGDPLYHLFWFFGHPEVYIIPGFGSHSTYKKFGMYASIGLGFVWSHHMYVGLDDRAYFLSATMIAPTGIKFSWLATYGGRPMLAFLFLFTGGTGVLNASDAFHDLYYVVHFHYVLSMGAFSLGYYYWPGLYNLFWFNFPMHFLGGMPRRPYPDAGWNSGSSYQLGPDESNEPH'
p3131
sg123
F0.0077400000000000004
sg124
g125
sg33
S'46'
p3132
sg127
g1
(g128
g12
(dp3133
g130
I4
sg131
g132
sg133
g134
sg135
g132
sg136
I01
sg34
g137
sg138
g134
sg139
I0
sg140
I0
sg141
I0
sg142
g134
sg35
g143
sg144
I0
stRp3134
sg146
g147
sg148
F1
sg149
Nsg30
S'LkluyD'
p3135
sbasg120
g3068
sg123
F0.0017099999999999999
sg124
g125
sg33
S'49'
p3136
sg127
g1
(g128
g12
(dp3137
g130
I6
sg131
g132
sg133
g134
sg135
g132
sg136
I01
sg34
g174
sg138
g134
sg139
I0
sg140
I0
sg141
I0
sg142
g134
sg35
g175
sg144
I0
stRp3138
sg146
g147
sg148
F0.56000000000000005
sg149
Nsg30
S'NoName'
p3139
sbag1
(g2
g3
NtRp3140
(dp3141
g6
g1
(g7
g3
NtRp3142
(dp3143
g10
g1
(g11
g12
(dtRp3144
sg14
g1
(g11
g12
(dtRp3145
sg16
g1
(g11
g12
(dtRp3146
sg18
g1
(g11
g12
(dtRp3147
sg20
g1
(g11
g12
(dtRp3148
sg22
g1
(g11
g12
(dtRp3149
sbsg24
g25
sg26
g27
((lp3150
g33
ag32
ag29
ag30
atRp3151
sg37
(lp3152
g1
(g2
g3
NtRp3153
(dp3154
g6
g1
(g7
g3
NtRp3155
(dp3156
g10
g1
(g11
g12
(dtRp3157
sg14
g1
(g11
g12
(dtRp3158
sg16
g1
(g11
g12
(dtRp3159
sg18
g1
(g11
g12
(dtRp3160
sg20
g1
(g11
g12
(dtRp3161
sg22
g1
(g11
g12
(dtRp3162
sbsg24
g25
sg26
g27
((lp3163
g33
ag32
ag29
ag30
atRp3164
sg37
(lp3165
g1
(g2
g3
NtRp3166
(dp3167
g6
g1
(g7
g3
NtRp3168
(dp3169
g10
g1
(g11
g12
(dtRp3170
sg14
g1
(g11
g12
(dtRp3171
sg16
g1
(g11
g12
(dtRp3172
sg18
g1
(g11
g12
(dtRp3173
sg20
g1
(g11
g12
(dtRp3174
sg22
g1
(g11
g12
(dtRp3175
sbsg24
g25
sg26
g27
((lp3176
g33
ag32
ag29
ag30
atRp3177
sg37
(lp3178
g1
(g2
g3
NtRp3179
(dp3180
g6
g1
(g7
g3
NtRp3181
(dp3182
g10
g1
(g11
g12
(dtRp3183
sg14
g1
(g11
g12
(dtRp3184
sg16
g1
(g11
g12
(dtRp3185
sg18
g1
(g11
g12
(dtRp3186
sg20
g1
(g11
g12
(dtRp3187
sg22
g1
(g11
g12
(dtRp3188
sbsg24
S'Lkl'
p3189
sg26
g27
((lp3190
g29
ag30
aS'sequence'
p3191
ag32
ag33
aS'species'
p3192
atRp3193
sg37
(lp3194
sg120
g3166
sg121
S'RWLSTKDLYSRLELPGLNQNVHAMFVMPLGFGNPMGDMFARLNNSFWLPPLSLEGAGTGWTVYPPLSHSGPSVDLAFHLTSSLLGAINFTNMRGPLFWTALLLLSLPVLAGTLLDRNFNTFEGGDPLYHLFWFFGHPEVYIIPGFGSHSTYKKFGMYASIGLGFVWSHHMYVGLDDRAYFLSATMIAPTGIKFSWLATYGGRPMLAFLFLFTGGTGVLNASDAFHDLYYVVHFHYVLSMGAFSLGYYYWPGLYNLFWFNFPMHFLGGMPRRPYPDAGWNSGSSYQLGPDESNEPH'
p3195
sg123
F0.00038999999999999999
sg124
g125
sg33
S'216'
p3196
sg127
g1
(g128
g12
(dp3197
g130
I4
sg131
g132
sg133
g134
sg135
g132
sg136
I01
sg34
g137
sg138
g134
sg139
I0
sg140
I0
sg141
I0
sg142
g134
sg35
g143
sg144
I0
stRp3198
sg146
g147
sg148
F1
sg149
Nsg30
S'LkluyF'
p3199
sbag1
(g2
g3
NtRp3200
(dp3201
g6
g1
(g7
g3
NtRp3202
(dp3203
g10
g1
(g11
g12
(dtRp3204
sg14
g1
(g11
g12
(dtRp3205
sg16
g1
(g11
g12
(dtRp3206
sg18
g1
(g11
g12
(dtRp3207
sg20
g1
(g11
g12
(dtRp3208
sg22
g1
(g11
g12
(dtRp3209
sbsg24
S'Lkl'
p3210
sg26
g27
((lp3211
g29
ag30
aS'sequence'
p3212
ag32
ag33
aS'species'
p3213
atRp3214
sg37
(lp3215
sg120
g3166
sg121
S'RWLSTKDLYSRLELPGLNQNVHAMFVMPLGFGNPMGDMFARLNNSFWLPPLSLEGAGTGWTVYPPLSHSGPSVDLAFHLTSSLLGAINFTNMRGPLFWTALLLLSLPVLAGTLLDRNFNTFEGGDPLYHLFWFFGHPEVYIIPGFGSHSTYKKFGMYASIGLGFVWSHHMYVGLDDRAYFLSATMIAPTGIKFSWLATYGGRPMLAFLFLFTGGTGVLNASDAFHDLYYVVHFHYVLSMGAFSLGYYYWPGLYNLFWFNFPMHFLGGMPRRPYPDAGWNSGSSYQLGPDESNEPH'
p3216
sg123
F0.00038000000000000002
sg124
g125
sg33
S'30'
p3217
sg127
g1
(g128
g12
(dp3218
g130
I4
sg131
g132
sg133
g134
sg135
g132
sg136
I01
sg34
g137
sg138
g134
sg139
I0
sg140
I0
sg141
I0
sg142
g134
sg35
g143
sg144
I0
stRp3219
sg146
g147
sg148
F1
sg149
Nsg30
S'LkluyC'
p3220
sbasg120
g3153
sg123
F1.0000000000000001e-05
sg124
g125
sg33
S'224'
p3221
sg127
g1
(g128
g12
(dp3222
g130
I6
sg131
g132
sg133
g134
sg135
g132
sg136
I01
sg34
g174
sg138
g134
sg139
I0
sg140
I0
sg141
I0
sg142
g134
sg35
g175
sg144
I0
stRp3223
sg146
g147
sg148
F1
sg149
Nsg30
S'NoName'
p3224
sbag1
(g2
g3
NtRp3225
(dp3226
g6
g1
(g7
g3
NtRp3227
(dp3228
g10
g1
(g11
g12
(dtRp3229
sg14
g1
(g11
g12
(dtRp3230
sg16
g1
(g11
g12
(dtRp3231
sg18
g1
(g11
g12
(dtRp3232
sg20
g1
(g11
g12
(dtRp3233
sg22
g1
(g11
g12
(dtRp3234
sbsg24
S'Lkl'
p3235
sg26
g27
((lp3236
g29
ag30
aS'sequence'
p3237
ag32
ag33
aS'species'
p3238
atRp3239
sg37
(lp3240
sg120
g3153
sg121
S'RWLSTKDLYSRLELPGLNQNVHAMFVMPLGFGNPMGDMFARLNNSFWLPPLSLEGAGTGWTVYPPLSHSGPSVDLAFHLTSSLLGAINFTNMRGPLFWTALLLLSLPVLAGTLLDRNFNTFEGGDPLYHLFWFFGHPEVYIIPGFGSHSTYKKFGMYASIGLGFVWSHHMYVGLDDRAYFLSATMIAPTGIKFSWLATYGGRPMLAFLFLFTGGTGVLNASDAFHDLYYVVHFHYVLSMGAFSLGYYYWPGLYNLFWFNFPMHFLGGMPRRPYPDAGWNSGSSYQLGPDESNEPH'
p3241
sg123
F0.00040999999999999999
sg124
g125
sg33
S'65'
p3242
sg127
g1
(g128
g12
(dp3243
g130
I4
sg131
g132
sg133
g134
sg135
g132
sg136
I01
sg34
g137
sg138
g134
sg139
I0
sg140
I0
sg141
I0
sg142
g134
sg35
g143
sg144
I0
stRp3244
sg146
g147
sg148
F1
sg149
Nsg30
S'LkluyB'
p3245
sbasg120
g3140
sg123
F1.0000000000000001e-05
sg124
g125
sg33
S'86'
p3246
sg127
g1
(g128
g12
(dp3247
g130
I6
sg131
g132
sg133
g134
sg135
g132
sg136
I01
sg34
g174
sg138
g134
sg139
I0
sg140
I0
sg141
I0
sg142
g134
sg35
g175
sg144
I0
stRp3248
sg146
g147
sg148
F1
sg149
Nsg30
S'NoName'
p3249
sbag1
(g2
g3
NtRp3250
(dp3251
g6
g1
(g7
g3
NtRp3252
(dp3253
g10
g1
(g11
g12
(dtRp3254
sg14
g1
(g11
g12
(dtRp3255
sg16
g1
(g11
g12
(dtRp3256
sg18
g1
(g11
g12
(dtRp3257
sg20
g1
(g11
g12
(dtRp3258
sg22
g1
(g11
g12
(dtRp3259
sbsg24
S'Lkl'
p3260
sg26
g27
((lp3261
g29
ag30
aS'sequence'
p3262
ag32
ag33
aS'species'
p3263
atRp3264
sg37
(lp3265
sg120
g3140
sg121
S'RWLSTKDLYSRLELPGLNQNVHAMFVMPLGFGNPMGDMFARLNNSFWLPPLSLEGAGTGWTVYPPLSHSGPSVDLAFHLTSSLLGAINFTNMRGPLFWTALLLLSLPVLAGTLLDRNFNTFEGGDPLYHLFWFFGHPEVYIIPGFGSHSTYKKFGMYASIGLGFVWSHHMYVGLDDRAYFLSATMIAPTGIKFSWLATYGGRPMLAFLFLFTGGTGVLNASDAFHDLYYVVHFHYVLSMGAFSLGYYYWPGLYNLFWFNFPMHFLGGMPRRPYPDAGWNSGSSYQLGPDESNEPH'
p3266
sg123
F0.00040999999999999999
sg124
g125
sg33
S'28'
p3267
sg127
g1
(g128
g12
(dp3268
g130
I4
sg131
g132
sg133
g134
sg135
g132
sg136
I01
sg34
g137
sg138
g134
sg139
I0
sg140
I0
sg141
I0
sg142
g134
sg35
g143
sg144
I0
stRp3269
sg146
g147
sg148
F1
sg149
Nsg30
S'LkluyA'
p3270
sbasg120
g3068
sg123
F0.0035300000000000002
sg124
g125
sg33
S'107'
p3271
sg127
g1
(g128
g12
(dp3272
g130
I6
sg131
g132
sg133
g134
sg135
g132
sg136
I01
sg34
g174
sg138
g134
sg139
I0
sg140
I0
sg141
I0
sg142
g134
sg35
g175
sg144
I0
stRp3273
sg146
g147
sg148
F0.91000000000000003
sg149
Nsg30
S'NoName'
p3274
sbasg120
g3055
sg123
F0.054280000000000002
sg124
g125
sg33
S'47'
p3275
sg127
g1
(g128
g12
(dp3276
g130
I6
sg131
g132
sg133
g134
sg135
g132
sg136
I01
sg34
g174
sg138
g134
sg139
I0
sg140
I0
sg141
I0
sg142
g134
sg35
g175
sg144
I0
stRp3277
sg146
g147
sg148
F0.98999999999999999
sg149
Nsg30
S'NoName'
p3278
sbag1
(g2
g3
NtRp3279
(dp3280
g6
g1
(g7
g3
NtRp3281
(dp3282
g10
g1
(g11
g12
(dtRp3283
sg14
g1
(g11
g12
(dtRp3284
sg16
g1
(g11
g12
(dtRp3285
sg18
g1
(g11
g12
(dtRp3286
sg20
g1
(g11
g12
(dtRp3287
sg22
g1
(g11
g12
(dtRp3288
sbsg24
g25
sg26
g27
((lp3289
g33
ag32
ag29
ag30
atRp3290
sg37
(lp3291
g1
(g2
g3
NtRp3292
(dp3293
g6
g1
(g7
g3
NtRp3294
(dp3295
g10
g1
(g11
g12
(dtRp3296
sg14
g1
(g11
g12
(dtRp3297
sg16
g1
(g11
g12
(dtRp3298
sg18
g1
(g11
g12
(dtRp3299
sg20
g1
(g11
g12
(dtRp3300
sg22
g1
(g11
g12
(dtRp3301
sbsg24
S'Lan'
p3302
sg26
g27
((lp3303
g29
ag30
aS'sequence'
p3304
ag32
ag33
aS'species'
p3305
atRp3306
sg37
(lp3307
sg120
g3279
sg121
S'RWLSTKDLYSRLELPGLNQNVHAMFVMPLGFGNPMGDMFARLNNSFWLPPLSLEGAGTGWTLYPPLSHSGPSVDLAFHLTSSLLGAINFTNMRGPLFWTALLLLSLPVLAGTVLDRNFNTFEGGDPLYHLFWFFGHPEVYIIPGFGSHSTYKKFGMYASIGLGFVWSHHMYVGLDDRAYFTSATMIAPTGIKFSWLALYGGRPMLAFLFLFTGGTGVLNASDAFHDTYYVVHFHYVLSMGAFSLGYYYWPGLYNLFWFNFPMHFLGGMPRRPYPDAGWNSGSSYQLGPDESNEPH'
p3308
sg123
F0.10922999999999999
sg124
g125
sg33
S'139'
p3309
sg127
g1
(g128
g12
(dp3310
g130
I4
sg131
g132
sg133
g134
sg135
g132
sg136
I01
sg34
g137
sg138
g134
sg139
I0
sg140
I0
sg141
I0
sg142
g134
sg35
g143
sg144
I0
stRp3311
sg146
g147
sg148
F1
sg149
Nsg30
S'LanspA'
p3312
sbag1
(g2
g3
NtRp3313
(dp3314
g6
g1
(g7
g3
NtRp3315
(dp3316
g10
g1
(g11
g12
(dtRp3317
sg14
g1
(g11
g12
(dtRp3318
sg16
g1
(g11
g12
(dtRp3319
sg18
g1
(g11
g12
(dtRp3320
sg20
g1
(g11
g12
(dtRp3321
sg22
g1
(g11
g12
(dtRp3322
sbsg24
g25
sg26
g27
((lp3323
g33
ag32
ag29
ag30
atRp3324
sg37
(lp3325
g1
(g2
g3
NtRp3326
(dp3327
g6
g1
(g7
g3
NtRp3328
(dp3329
g10
g1
(g11
g12
(dtRp3330
sg14
g1
(g11
g12
(dtRp3331
sg16
g1
(g11
g12
(dtRp3332
sg18
g1
(g11
g12
(dtRp3333
sg20
g1
(g11
g12
(dtRp3334
sg22
g1
(g11
g12
(dtRp3335
sbsg24
g25
sg26
g27
((lp3336
g33
ag32
ag29
ag30
atRp3337
sg37
(lp3338
g1
(g2
g3
NtRp3339
(dp3340
g6
g1
(g7
g3
NtRp3341
(dp3342
g10
g1
(g11
g12
(dtRp3343
sg14
g1
(g11
g12
(dtRp3344
sg16
g1
(g11
g12
(dtRp3345
sg18
g1
(g11
g12
(dtRp3346
sg20
g1
(g11
g12
(dtRp3347
sg22
g1
(g11
g12
(dtRp3348
sbsg24
S'Lno'
p3349
sg26
g27
((lp3350
g29
ag30
aS'sequence'
p3351
ag32
ag33
aS'species'
p3352
atRp3353
sg37
(lp3354
sg120
g3326
sg121
S'RWLSTKDLYSRLELPGLNQNVHAMFVMPLGFGNPMGDMFARLNNSFWLPPLSLEGAGTGWTIYPPLSHSGPSVDLAFHLTSSLLGAINFTNMRGPLFWTALLLLSLPVLAGTILDRNFNTFEGGDPLYHLFWFFGHPEVYIIPGFGSHSTYKKFGMYASIGLGFVWSHHMYVGLDDRAYFTSALMIAPTGIKFSWLALYGGRPMLAFLFLFTGGTGVLNASDAFHDTYYVVHFHYVLSMGAFSLGYYYWPGLYNLFWFNFPMHFLGGMPRRPYPDAGWNSGSSYQLGPDESNEPH'
p3355
sg123
F0.0075199999999999998
sg124
g125
sg33
S'161'
p3356
sg127
g1
(g128
g12
(dp3357
g130
I4
sg131
g132
sg133
g134
sg135
g132
sg136
I01
sg34
g137
sg138
g134
sg139
I0
sg140
I0
sg141
I0
sg142
g134
sg35
g143
sg144
I0
stRp3358
sg146
g147
sg148
F1
sg149
Nsg30
S'LnothA'
p3359
sbag1
(g2
g3
NtRp3360
(dp3361
g6
g1
(g7
g3
NtRp3362
(dp3363
g10
g1
(g11
g12
(dtRp3364
sg14
g1
(g11
g12
(dtRp3365
sg16
g1
(g11
g12
(dtRp3366
sg18
g1
(g11
g12
(dtRp3367
sg20
g1
(g11
g12
(dtRp3368
sg22
g1
(g11
g12
(dtRp3369
sbsg24
g25
sg26
g27
((lp3370
g33
ag32
ag29
ag30
atRp3371
sg37
(lp3372
g1
(g2
g3
NtRp3373
(dp3374
g6
g1
(g7
g3
NtRp3375
(dp3376
g10
g1
(g11
g12
(dtRp3377
sg14
g1
(g11
g12
(dtRp3378
sg16
g1
(g11
g12
(dtRp3379
sg18
g1
(g11
g12
(dtRp3380
sg20
g1
(g11
g12
(dtRp3381
sg22
g1
(g11
g12
(dtRp3382
sbsg24
S'Lda'
p3383
sg26
g27
((lp3384
g29
ag30
aS'sequence'
p3385
ag32
ag33
aS'species'
p3386
atRp3387
sg37
(lp3388
sg120
g3360
sg121
S'RWLSTKDLYSRLELPGLNQNVHAMFVMPLGFGNPMGDMFARLNNSFWLPPLSLEGAGTGWTVYPPLSHSGPSVDLAFHLTSSLLGAINFTNMRGPLFWTALLLLSLPVLAGTILDRNFNTFEGGDPLYHLFWFFGHPEVYIIPGFGSHSTYKKFGMYASIGLGFVWSHHMYVGLDDRAYFTSATMIAPTGIKFSWLALYGGRPMLAFLFLFTGGTGVLNASDAFHDTYYVVHFHYVLSMGAFSLGYYYWPGLYNLFWFNFPMHFLGGMPRRPYPDAGWNSGSSYQLGPDESNEPH'
p3389
sg123
F0.023539999999999998
sg124
g125
sg33
S'105'
p3390
sg127
g1
(g128
g12
(dp3391
g130
I4
sg131
g132
sg133
g134
sg135
g132
sg136
I01
sg34
g137
sg138
g134
sg139
I0
sg140
I0
sg141
I0
sg142
g134
sg35
g143
sg144
I0
stRp3392
sg146
g147
sg148
F1
sg149
Nsg30
S'LdasiA'
p3393
sbag1
(g2
g3
NtRp3394
(dp3395
g6
g1
(g7
g3
NtRp3396
(dp3397
g10
g1
(g11
g12
(dtRp3398
sg14
g1
(g11
g12
(dtRp3399
sg16
g1
(g11
g12
(dtRp3400
sg18
g1
(g11
g12
(dtRp3401
sg20
g1
(g11
g12
(dtRp3402
sg22
g1
(g11
g12
(dtRp3403
sbsg24
g25
sg26
g27
((lp3404
g33
ag32
ag29
ag30
atRp3405
sg37
(lp3406
g1
(g2
g3
NtRp3407
(dp3408
g6
g1
(g7
g3
NtRp3409
(dp3410
g10
g1
(g11
g12
(dtRp3411
sg14
g1
(g11
g12
(dtRp3412
sg16
g1
(g11
g12
(dtRp3413
sg18
g1
(g11
g12
(dtRp3414
sg20
g1
(g11
g12
(dtRp3415
sg22
g1
(g11
g12
(dtRp3416
sbsg24
S'Lme'
p3417
sg26
g27
((lp3418
g29
ag30
aS'sequence'
p3419
ag32
ag33
aS'species'
p3420
atRp3421
sg37
(lp3422
sg120
g3394
sg121
S'RWLSTKDLYSRLELPGLNQNVHAMFVMPLGFGNPMGDMFARLNNSFWLPPLSLEGAGTGWTVYPPLSHSGPSVDLAFHLTSSLLGAINFTNMRGPLFWTALLLLSLPVLAGTILDRNFNTFEGGDPLYHLFWFFGHPEVYIIPGFGSHSTYKKFGMYASIGLGFVWSHHMYVGLDDRAYFTSATMIAPTGIKFSWLALYGGRPMLAFLFLFTGGTGVLNASDAFHDTYYVVHFHYVLSMGAFSLGYYYWPGLYNLFWFNFPMHFLGGMPRRPYPDAGWNSGSSYQLGPDESNEPH'
p3423
sg123
F0.0050299999999999997
sg124
g125
sg33
S'174'
p3424
sg127
g1
(g128
g12
(dp3425
g130
I4
sg131
g132
sg133
g134
sg135
g132
sg136
I01
sg34
g137
sg138
g134
sg139
I0
sg140
I0
sg141
I0
sg142
g134
sg35
g143
sg144
I0
stRp3426
sg146
g147
sg148
F1
sg149
Nsg30
S'LmeyeA'
p3427
sbag1
(g2
g3
NtRp3428
(dp3429
g6
g1
(g7
g3
NtRp3430
(dp3431
g10
g1
(g11
g12
(dtRp3432
sg14
g1
(g11
g12
(dtRp3433
sg16
g1
(g11
g12
(dtRp3434
sg18
g1
(g11
g12
(dtRp3435
sg20
g1
(g11
g12
(dtRp3436
sg22
g1
(g11
g12
(dtRp3437
sbsg24
S'Lan'
p3438
sg26
g27
((lp3439
g29
ag30
aS'sequence'
p3440
ag32
ag33
aS'species'
p3441
atRp3442
sg37
(lp3443
sg120
g3394
sg121
S'RWLSTKDLYSRLELPGLNQNVHAMFVMPLGFGNPMGDMFARLNNSFWLPPLSLEGAGTGWTVYPPLSHSGPSVDLAFHLTSSLLGAINFTNMRGPLFWTALLLLSLPVLAGTILDRNFNTFEGGDPLYHLFWFFGHPEVYIIPGFGSHSTYKKFGMYASIGLGFVWSHHMYVGLDDRAYFTSALMIAPTGIKFSWLALYGGRPMLAFLFLFTGGTGVLNASDAFHDTYYVVHFHYVLSMGAFSLGYYYWPGLYNLFWFNFPMHFLGGMPRRPYPDAGWNSGSSYQLGPDESNEPH'
p3444
sg123
F0.012290000000000001
sg124
g125
sg33
S'52'
p3445
sg127
g1
(g128
g12
(dp3446
g130
I4
sg131
g132
sg133
g134
sg135
g132
sg136
I01
sg34
g137
sg138
g134
sg139
I0
sg140
I0
sg141
I0
sg142
g134
sg35
g143
sg144
I0
stRp3447
sg146
g147
sg148
F1
sg149
Nsg30
S'LanspB'
p3448
sbasg120
g3360
sg123
F0.012070000000000001
sg124
g125
sg33
S'90'
p3449
sg127
g1
(g128
g12
(dp3450
g130
I6
sg131
g132
sg133
g134
sg135
g132
sg136
I01
sg34
g174
sg138
g134
sg139
I0
sg140
I0
sg141
I0
sg142
g134
sg35
g175
sg144
I0
stRp3451
sg146
g147
sg148
F0.98999999999999999
sg149
Nsg30
S'NoName'
p3452
sbasg120
g3326
sg123
F0.0088199999999999997
sg124
g125
sg33
S'179'
p3453
sg127
g1
(g128
g12
(dp3454
g130
I6
sg131
g132
sg133
g134
sg135
g132
sg136
I01
sg34
g174
sg138
g134
sg139
I0
sg140
I0
sg141
I0
sg142
g134
sg35
g175
sg144
I0
stRp3455
sg146
g147
sg148
F0.95999999999999996
sg149
Nsg30
S'NoName'
p3456
sbasg120
g3313
sg123
F0.016570000000000001
sg124
g125
sg33
S'40'
p3457
sg127
g1
(g128
g12
(dp3458
g130
I6
sg131
g132
sg133
g134
sg135
g132
sg136
I01
sg34
g174
sg138
g134
sg139
I0
sg140
I0
sg141
I0
sg142
g134
sg35
g175
sg144
I0
stRp3459
sg146
g147
sg148
F0.94999999999999996
sg149
Nsg30
S'NoName'
p3460
sbag1
(g2
g3
NtRp3461
(dp3462
g6
g1
(g7
g3
NtRp3463
(dp3464
g10
g1
(g11
g12
(dtRp3465
sg14
g1
(g11
g12
(dtRp3466
sg16
g1
(g11
g12
(dtRp3467
sg18
g1
(g11
g12
(dtRp3468
sg20
g1
(g11
g12
(dtRp3469
sg22
g1
(g11
g12
(dtRp3470
sbsg24
S'Kth'
p3471
sg26
g27
((lp3472
g29
ag30
aS'sequence'
p3473
ag32
ag33
aS'species'
p3474
atRp3475
sg37
(lp3476
sg120
g3313
sg121
S'RWLSTKDLYSRLELPGLNQNVHAMFVMPLGFGNPMGDMFARLNNSFWLPPLSLEGAGTGWTVYPPLSHSGPSVDLAFHLTSSLLGAINFTNMRGPLFWTALLLLSLPVLAGTILDRNFNTFEGGDPLYHLFWFFGHPEVYIIPGFGSHSTYKKFGMYASIGLGFVWSHHMYVGLDDRAYFTSATMIAPTGIKFSWLALYGGRPMLAFLFLFTGGTGVLNASDAFHDTYYVVHFHYVLSMGAFSLGYYYWPGLYNLFWFNFPMHFLGGMPRRPYPDAGWNSGSSYQLGPDESNEPH'
p3477
sg123
F0.021499999999999998
sg124
g125
sg33
S'91'
p3478
sg127
g1
(g128
g12
(dp3479
g130
I4
sg131
g132
sg133
g134
sg135
g132
sg136
I01
sg34
g137
sg138
g134
sg139
I0
sg140
I0
sg141
I0
sg142
g134
sg35
g143
sg144
I0
stRp3480
sg146
g147
sg148
F1
sg149
Nsg30
S'KtherA'
p3481
sbasg120
g3279
sg123
F0.033250000000000002
sg124
g125
sg33
S'71'
p3482
sg127
g1
(g128
g12
(dp3483
g130
I6
sg131
g132
sg133
g134
sg135
g132
sg136
I01
sg34
g174
sg138
g134
sg139
I0
sg140
I0
sg141
I0
sg142
g134
sg35
g175
sg144
I0
stRp3484
sg146
g147
sg148
F0.93999999999999995
sg149
Nsg30
S'NoName'
p3485
sbasg120
g3055
sg123
F0.038859999999999999
sg124
g125
sg33
S'104'
p3486
sg127
g1
(g128
g12
(dp3487
g130
I6
sg131
g132
sg133
g134
sg135
g132
sg136
I01
sg34
g174
sg138
g134
sg139
I0
sg140
I0
sg141
I0
sg142
g134
sg35
g175
sg144
I0
stRp3488
sg146
g147
sg148
F0.92000000000000004
sg149
Nsg30
S'NoName'
p3489
sbasg120
g3042
sg123
F0.050380000000000001
sg124
g125
sg33
S'135'
p3490
sg127
g1
(g128
g12
(dp3491
g130
I6
sg131
g132
sg133
g134
sg135
g132
sg136
I01
sg34
g174
sg138
g134
sg139
I0
sg140
I0
sg141
I0
sg142
g134
sg35
g175
sg144
I0
stRp3492
sg146
g147
sg148
F0.89000000000000001
sg149
Nsg30
S'NoName'
p3493
sbag1
(g2
g3
NtRp3494
(dp3495
g6
g1
(g7
g3
NtRp3496
(dp3497
g10
g1
(g11
g12
(dtRp3498
sg14
g1
(g11
g12
(dtRp3499
sg16
g1
(g11
g12
(dtRp3500
sg18
g1
(g11
g12
(dtRp3501
sg20
g1
(g11
g12
(dtRp3502
sg22
g1
(g11
g12
(dtRp3503
sbsg24
g25
sg26
g27
((lp3504
g33
ag32
ag29
ag30
atRp3505
sg37
(lp3506
g1
(g2
g3
NtRp3507
(dp3508
g6
g1
(g7
g3
NtRp3509
(dp3510
g10
g1
(g11
g12
(dtRp3511
sg14
g1
(g11
g12
(dtRp3512
sg16
g1
(g11
g12
(dtRp3513
sg18
g1
(g11
g12
(dtRp3514
sg20
g1
(g11
g12
(dtRp3515
sg22
g1
(g11
g12
(dtRp3516
sbsg24
S'Kma'
p3517
sg26
g27
((lp3518
g29
ag30
aS'sequence'
p3519
ag32
ag33
aS'species'
p3520
atRp3521
sg37
(lp3522
sg120
g3494
sg121
S'RWLSTKDLYSRLELPGLNQNVHAMFVMPLGFGNPMGDMFARLNNSFWLPPLSLEGAGTGWTVYPPLSHSGPSVDLAFHLTSSLLGAINFTNMRGPLFWTALLLLSLPVLAGTLLDRNFNTFEGGDPLYHLFWFFGHPEVYIIPGFGSHSTYKKFGMYASIGLGFVWSHHMYVGLDDRAYFTSATMIAPTGIKFSWLATYGGRPMLAFLFLFTGGTGVLNASDAFHDTYYVVHFHYVLSMGAFSLGYYYWPGLYNLFWFNFPMHFLGGMPRRPYPDAGWNSGSSYQLGPDESNEPH'
p3523
sg123
F0.04018
sg124
g125
sg33
S'4'
sg127
g1
(g128
g12
(dp3524
g130
I4
sg131
g132
sg133
g134
sg135
g132
sg136
I01
sg34
g137
sg138
g134
sg139
I0
sg140
I0
sg141
I0
sg142
g134
sg35
g143
sg144
I0
stRp3525
sg146
g147
sg148
F1
sg149
Nsg30
S'KmarxA'
p3526
sbag1
(g2
g3
NtRp3527
(dp3528
g6
g1
(g7
g3
NtRp3529
(dp3530
g10
g1
(g11
g12
(dtRp3531
sg14
g1
(g11
g12
(dtRp3532
sg16
g1
(g11
g12
(dtRp3533
sg18
g1
(g11
g12
(dtRp3534
sg20
g1
(g11
g12
(dtRp3535
sg22
g1
(g11
g12
(dtRp3536
sbsg24
S'Kla'
p3537
sg26
g27
((lp3538
g29
ag30
aS'sequence'
p3539
ag32
ag33
aS'species'
p3540
atRp3541
sg37
(lp3542
sg120
g3494
sg121
S'RWLSTKDLYSRLELPGLNQNVHAMFVMPLGFGNPLGDMFARLNNSFWLPPLSLEGAGTGWTVYPPLSHSGPSVDLAFHLTSSLLGAINFTNMRGPLFWTALLLLSLPVLAGTLLDRNFNTFEGGDPLYHLFWFFGHPEVYIIPGFGSHSTYKKFGMYASIGLGFVWSHHMYVGLDDRAYFTSATMIAPTGIKFSWLATYGGRPMLAFLFLFTGGTGVLNASDAFHDTYYVVHFHYVLSMGAFSLGYYYWPGLYNLFWFNFPMHFLGGMPRRPYPDAGWNSGSSYQLGPDESNEPH'
p3543
sg123
F0.043529999999999999
sg124
g125
sg33
S'201'
p3544
sg127
g1
(g128
g12
(dp3545
g130
I4
sg131
g132
sg133
g134
sg135
g132
sg136
I01
sg34
g137
sg138
g134
sg139
I0
sg140
I0
sg141
I0
sg142
g134
sg35
g143
sg144
I0
stRp3546
sg146
g147
sg148
F1
sg149
Nsg30
S'KlactA'
p3547
sbasg120
g3042
sg123
F0.13938999999999999
sg124
g125
sg33
S'123'
p3548
sg127
g1
(g128
g12
(dp3549
g130
I6
sg131
g132
sg133
g134
sg135
g132
sg136
I01
sg34
g174
sg138
g134
sg139
I0
sg140
I0
sg141
I0
sg142
g134
sg35
g175
sg144
I0
stRp3550
sg146
g147
sg148
F0.98999999999999999
sg149
Nsg30
S'NoName'
p3551
sbasg120
g3029
sg123
F1.0000000000000001e-05
sg124
g125
sg33
S'204'
p3552
sg127
g1
(g128
g12
(dp3553
g130
I6
sg131
g132
sg133
g134
sg135
g132
sg136
I01
sg34
g174
sg138
g134
sg139
I0
sg140
I0
sg141
I0
sg142
g134
sg35
g175
sg144
I0
stRp3554
sg146
g147
sg148
F1
sg149
Nsg30
S'NoName'
p3555
sbag1
(g2
g3
NtRp3556
(dp3557
g6
g1
(g7
g3
NtRp3558
(dp3559
g10
g1
(g11
g12
(dtRp3560
sg14
g1
(g11
g12
(dtRp3561
sg16
g1
(g11
g12
(dtRp3562
sg18
g1
(g11
g12
(dtRp3563
sg20
g1
(g11
g12
(dtRp3564
sg22
g1
(g11
g12
(dtRp3565
sbsg24
g25
sg26
g27
((lp3566
g33
ag32
ag29
ag30
atRp3567
sg37
(lp3568
g1
(g2
g3
NtRp3569
(dp3570
g6
g1
(g7
g3
NtRp3571
(dp3572
g10
g1
(g11
g12
(dtRp3573
sg14
g1
(g11
g12
(dtRp3574
sg16
g1
(g11
g12
(dtRp3575
sg18
g1
(g11
g12
(dtRp3576
sg20
g1
(g11
g12
(dtRp3577
sg22
g1
(g11
g12
(dtRp3578
sbsg24
S'Huv'
p3579
sg26
g27
((lp3580
g29
ag30
aS'sequence'
p3581
ag32
ag33
aS'species'
p3582
atRp3583
sg37
(lp3584
sg120
g3556
sg121
S'-MITTKDLYSRLELSGINHNSHAMFIMPIGFGNPAGDMFPRLNNSFWLVPVSLEGAGTGWTVYYPLSHSSVSVDLVFHCLSSLLGAINFTNFL-SLFWLALLLLSLPVLVGTLLDRNFNLYEGGDPLYHLFWFFGHPEVYIIPAFGSMSAYSKFGMYASIGLGFVWVHHMFVGLDDRAYFTSATMIAPLGIKFSWLALIGGRPVLAFLVLFLGGTGVLNASDAFHDTYYVVHFHYVLSLGAFGIGYYYWPGLYNLFVVNFPMHYLGGMPRRSYPDSAWNTGASVQLGTDLLPEPH'
p3585
sg123
F3.9441199999999998
sg124
g125
sg33
S'158'
p3586
sg127
g1
(g128
g12
(dp3587
g130
I4
sg131
g132
sg133
g134
sg135
g132
sg136
I01
sg34
g137
sg138
g134
sg139
I0
sg140
I0
sg141
I0
sg142
g134
sg35
g143
sg144
I0
stRp3588
sg146
g147
sg148
F1
sg149
Nsg30
S'HuvarA'
p3589
sbag1
(g2
g3
NtRp3590
(dp3591
g6
g1
(g7
g3
NtRp3592
(dp3593
g10
g1
(g11
g12
(dtRp3594
sg14
g1
(g11
g12
(dtRp3595
sg16
g1
(g11
g12
(dtRp3596
sg18
g1
(g11
g12
(dtRp3597
sg20
g1
(g11
g12
(dtRp3598
sg22
g1
(g11
g12
(dtRp3599
sbsg24
g25
sg26
g27
((lp3600
g33
ag32
ag29
ag30
atRp3601
sg37
(lp3602
g1
(g2
g3
NtRp3603
(dp3604
g6
g1
(g7
g3
NtRp3605
(dp3606
g10
g1
(g11
g12
(dtRp3607
sg14
g1
(g11
g12
(dtRp3608
sg16
g1
(g11
g12
(dtRp3609
sg18
g1
(g11
g12
(dtRp3610
sg20
g1
(g11
g12
(dtRp3611
sg22
g1
(g11
g12
(dtRp3612
sbsg24
g25
sg26
g27
((lp3613
g33
ag32
ag29
ag30
atRp3614
sg37
(lp3615
g1
(g2
g3
NtRp3616
(dp3617
g6
g1
(g7
g3
NtRp3618
(dp3619
g10
g1
(g11
g12
(dtRp3620
sg14
g1
(g11
g12
(dtRp3621
sg16
g1
(g11
g12
(dtRp3622
sg18
g1
(g11
g12
(dtRp3623
sg20
g1
(g11
g12
(dtRp3624
sg22
g1
(g11
g12
(dtRp3625
sbsg24
g25
sg26
g27
((lp3626
g33
ag32
ag29
ag30
atRp3627
sg37
(lp3628
g1
(g2
g3
NtRp3629
(dp3630
g6
g1
(g7
g3
NtRp3631
(dp3632
g10
g1
(g11
g12
(dtRp3633
sg14
g1
(g11
g12
(dtRp3634
sg16
g1
(g11
g12
(dtRp3635
sg18
g1
(g11
g12
(dtRp3636
sg20
g1
(g11
g12
(dtRp3637
sg22
g1
(g11
g12
(dtRp3638
sbsg24
S'Sse'
p3639
sg26
g27
((lp3640
g29
ag30
aS'sequence'
p3641
ag32
ag33
aS'species'
p3642
atRp3643
sg37
(lp3644
sg120
g3616
sg121
S'RWLSTKDMYSRMELPGLNQNVHAMFAMPLGFGNPMGDMFPRINSGFWLPMLSLEGAGTGWTVYPPLSHSGPSVDLAFHLTSSLLGAINFTNMRGPLFWTALLLLSLPVLAGTLLDRNFNTFEGGDPFYHAFWFFGHPEVYIIPGFGSHSTYKKFGMYASIGLGFVWSHHMYVGLDDRAYFTSATMIAPTGIKFSWLALYGGRPMMAFLFLFTGGTGVLNASDAFHDTYYVVHFHYVLSMGAFSLGYYYWPGLYNLFWFNFPMHFLGGMPRRPYPDAGWNSGSSYQIGPDESNEPH'
p3645
sg123
F0.29805999999999999
sg124
g125
sg33
S'93'
p3646
sg127
g1
(g128
g12
(dp3647
g130
I4
sg131
g132
sg133
g134
sg135
g132
sg136
I01
sg34
g137
sg138
g134
sg139
I0
sg140
I0
sg141
I0
sg142
g134
sg35
g143
sg144
I0
stRp3648
sg146
g147
sg148
F1
sg149
Nsg30
S'SservA'
p3649
sbag1
(g2
g3
NtRp3650
(dp3651
g6
g1
(g7
g3
NtRp3652
(dp3653
g10
g1
(g11
g12
(dtRp3654
sg14
g1
(g11
g12
(dtRp3655
sg16
g1
(g11
g12
(dtRp3656
sg18
g1
(g11
g12
(dtRp3657
sg20
g1
(g11
g12
(dtRp3658
sg22
g1
(g11
g12
(dtRp3659
sbsg24
S'Sca'
p3660
sg26
g27
((lp3661
g29
ag30
aS'sequence'
p3662
ag32
ag33
aS'species'
p3663
atRp3664
sg37
(lp3665
sg120
g3616
sg121
S'RWLSTKDLYSRLELPGLNQNVHAMFVMPLGFGNPMGDTFPRINNGFWLPMLSLEGAGTGWTVYPPLAHSGPSVDLAFHMTSSLLGAINFTNMRGPLFWTALLLLTLPVLAGTLLDRNFNTFEGGDPLYHLFWFFGHPEVYIIPGFGSHSTYKKFGMYASIGLGLVWSHHMYVGLDDRAYFTSATMIAPTGIKFSWLATYGGRPMLAFLFLFTGGTGVLNASDAFHDLYYVVHFHYVLSMGAFSLGYYYWPGLYNLFWFNFPMHFLGGMPRRPYPDAGWNSGASYQLGPDESNEPH'
p3666
sg123
F0.30890000000000001
sg124
g125
sg33
S'143'
p3667
sg127
g1
(g128
g12
(dp3668
g130
I4
sg131
g132
sg133
g134
sg135
g132
sg136
I01
sg34
g137
sg138
g134
sg139
I0
sg140
I0
sg141
I0
sg142
g134
sg35
g143
sg144
I0
stRp3669
sg146
g147
sg148
F1
sg149
Nsg30
S'ScastA'
p3670
sbasg120
g3603
sg123
F0.072319999999999995
sg124
g125
sg33
S'182'
p3671
sg127
g1
(g128
g12
(dp3672
g130
I6
sg131
g132
sg133
g134
sg135
g132
sg136
I01
sg34
g174
sg138
g134
sg139
I0
sg140
I0
sg141
I0
sg142
g134
sg35
g175
sg144
I0
stRp3673
sg146
g147
sg148
F0.98999999999999999
sg149
Nsg30
S'NoName'
p3674
sbag1
(g2
g3
NtRp3675
(dp3676
g6
g1
(g7
g3
NtRp3677
(dp3678
g10
g1
(g11
g12
(dtRp3679
sg14
g1
(g11
g12
(dtRp3680
sg16
g1
(g11
g12
(dtRp3681
sg18
g1
(g11
g12
(dtRp3682
sg20
g1
(g11
g12
(dtRp3683
sg22
g1
(g11
g12
(dtRp3684
sbsg24
g25
sg26
g27
((lp3685
g33
ag32
ag29
ag30
atRp3686
sg37
(lp3687
g1
(g2
g3
NtRp3688
(dp3689
g6
g1
(g7
g3
NtRp3690
(dp3691
g10
g1
(g11
g12
(dtRp3692
sg14
g1
(g11
g12
(dtRp3693
sg16
g1
(g11
g12
(dtRp3694
sg18
g1
(g11
g12
(dtRp3695
sg20
g1
(g11
g12
(dtRp3696
sg22
g1
(g11
g12
(dtRp3697
sbsg24
S'Spa'
p3698
sg26
g27
((lp3699
g29
ag30
aS'sequence'
p3700
ag32
ag33
aS'species'
p3701
atRp3702
sg37
(lp3703
sg120
g3675
sg121
S'RWLSTKDLYSRLELPGLNQNVHAMFVMPLGFGNPMGDTFPRINNAFWLPMLSLEGAGTGWTVYPPLSHSGPSVDLAFHLTSSLLGAINFTNMRGPLFWTALLLLSLPVLAGTLLDRNFNTFEGGDPLYHLFWFFGHPEVYIIPGFGSHSTYKKFGMYASIGLGFVWSHHMYVGLDDRAYFLSATMIAPTGIKFSWLATYGGRPMLAFLFLFTGGTGVLNASDAFHDTYYVVHFHYVLSMGAFSLGYYYWPGLYNLFWFNFPMHFLGGMPRRPYPDAGWNSGSSYQLGPDESNEPH'
p3704
sg123
F0.029780000000000001
sg124
g125
sg33
S'169'
p3705
sg127
g1
(g128
g12
(dp3706
g130
I4
sg131
g132
sg133
g134
sg135
g132
sg136
I01
sg34
g137
sg138
g134
sg139
I0
sg140
I0
sg141
I0
sg142
g134
sg35
g143
sg144
I0
stRp3707
sg146
g147
sg148
F1
sg149
Nsg30
S'SpastA'
p3708
sbag1
(g2
g3
NtRp3709
(dp3710
g6
g1
(g7
g3
NtRp3711
(dp3712
g10
g1
(g11
g12
(dtRp3713
sg14
g1
(g11
g12
(dtRp3714
sg16
g1
(g11
g12
(dtRp3715
sg18
g1
(g11
g12
(dtRp3716
sg20
g1
(g11
g12
(dtRp3717
sg22
g1
(g11
g12
(dtRp3718
sbsg24
g25
sg26
g27
((lp3719
g33
ag32
ag29
ag30
atRp3720
sg37
(lp3721
g1
(g2
g3
NtRp3722
(dp3723
g6
g1
(g7
g3
NtRp3724
(dp3725
g10
g1
(g11
g12
(dtRp3726
sg14
g1
(g11
g12
(dtRp3727
sg16
g1
(g11
g12
(dtRp3728
sg18
g1
(g11
g12
(dtRp3729
sg20
g1
(g11
g12
(dtRp3730
sg22
g1
(g11
g12
(dtRp3731
sbsg24
g25
sg26
g27
((lp3732
g33
ag32
ag29
ag30
atRp3733
sg37
(lp3734
g1
(g2
g3
NtRp3735
(dp3736
g6
g1
(g7
g3
NtRp3737
(dp3738
g10
g1
(g11
g12
(dtRp3739
sg14
g1
(g11
g12
(dtRp3740
sg16
g1
(g11
g12
(dtRp3741
sg18
g1
(g11
g12
(dtRp3742
sg20
g1
(g11
g12
(dtRp3743
sg22
g1
(g11
g12
(dtRp3744
sbsg24
S'Sce'
p3745
sg26
g27
((lp3746
g29
ag30
aS'sequence'
p3747
ag32
ag33
aS'species'
p3748
atRp3749
sg37
(lp3750
sg120
g3722
sg121
S'RWLSTKDLYSRLELPGLNQNVHAMFVMPLGFGNPMGDTFPRINNAFWLPMLSLEGAGTGWTVYPPLSHSGPSVDLAFHLTSSLLGAINFTNMRGPLFWTALLLLSLPVLAGTLLDRNFNTFEGGDPLYHLFWFFGHPEVYIIPGFGSHSTYKKFGMYASIGLGFVWSHHMYVGLDDRAYFLSALMIAPTGIKFSWLALYGGRPMLAFLFLFTGGTGVLNASDAFHDTYYVVHFHYVLSMGAFSLGYYYWPGLYNLFWFNFPMHFLGGMPRRPYPDAGWNSGSSYQLGPDESNEPH'
p3751
sg123
F0.0038700000000000002
sg124
g125
sg33
S'171'
p3752
sg127
g1
(g128
g12
(dp3753
g130
I4
sg131
g132
sg133
g134
sg135
g132
sg136
I01
sg34
g137
sg138
g134
sg139
I0
sg140
I0
sg141
I0
sg142
g134
sg35
g143
sg144
I0
stRp3754
sg146
g147
sg148
F1
sg149
Nsg30
S'ScereD'
p3755
sbag1
(g2
g3
NtRp3756
(dp3757
g6
g1
(g7
g3
NtRp3758
(dp3759
g10
g1
(g11
g12
(dtRp3760
sg14
g1
(g11
g12
(dtRp3761
sg16
g1
(g11
g12
(dtRp3762
sg18
g1
(g11
g12
(dtRp3763
sg20
g1
(g11
g12
(dtRp3764
sg22
g1
(g11
g12
(dtRp3765
sbsg24
g25
sg26
g27
((lp3766
g33
ag32
ag29
ag30
atRp3767
sg37
(lp3768
g1
(g2
g3
NtRp3769
(dp3770
g6
g1
(g7
g3
NtRp3771
(dp3772
g10
g1
(g11
g12
(dtRp3773
sg14
g1
(g11
g12
(dtRp3774
sg16
g1
(g11
g12
(dtRp3775
sg18
g1
(g11
g12
(dtRp3776
sg20
g1
(g11
g12
(dtRp3777
sg22
g1
(g11
g12
(dtRp3778
sbsg24
S'Sce'
p3779
sg26
g27
((lp3780
g29
ag30
aS'sequence'
p3781
ag32
ag33
aS'species'
p3782
atRp3783
sg37
(lp3784
sg120
g3756
sg121
S'RWLSTKDLYSRLELPGLNQNVHAMFVMPLGFGNPMGDTFPRINNAFWLPMLSLEGAGTGWTVYPPLSHSGPSVDLAFHLTSSLLGAINFTNMRGPLFWTALLLLSLPVLAGTLLDRNFNTFEGGDPLYHLFWFFGHPEVYIIPGFGSHSTYKKFGMYASIGLGFVWSHHMYVGLDDRAYFLSALMIAPTGIKFSWLALYGGRPMLAFLFLFTGGTGVLNASDAFHDTYYVVHFHYVLSMGAFSLGYYYWPGLYNLFWFNFPMHFLGGMPRRPYPDAGWNSGSSYQLGPDESNEPH'
p3785
sg123
F0.0075900000000000004
sg124
g125
sg33
S'176'
p3786
sg127
g1
(g128
g12
(dp3787
g130
I4
sg131
g132
sg133
g134
sg135
g132
sg136
I01
sg34
g137
sg138
g134
sg139
I0
sg140
I0
sg141
I0
sg142
g134
sg35
g143
sg144
I0
stRp3788
sg146
g147
sg148
F1
sg149
Nsg30
S'ScereE'
p3789
sbag1
(g2
g3
NtRp3790
(dp3791
g6
g1
(g7
g3
NtRp3792
(dp3793
g10
g1
(g11
g12
(dtRp3794
sg14
g1
(g11
g12
(dtRp3795
sg16
g1
(g11
g12
(dtRp3796
sg18
g1
(g11
g12
(dtRp3797
sg20
g1
(g11
g12
(dtRp3798
sg22
g1
(g11
g12
(dtRp3799
sbsg24
g25
sg26
g27
((lp3800
g33
ag32
ag29
ag30
atRp3801
sg37
(lp3802
g1
(g2
g3
NtRp3803
(dp3804
g6
g1
(g7
g3
NtRp3805
(dp3806
g10
g1
(g11
g12
(dtRp3807
sg14
g1
(g11
g12
(dtRp3808
sg16
g1
(g11
g12
(dtRp3809
sg18
g1
(g11
g12
(dtRp3810
sg20
g1
(g11
g12
(dtRp3811
sg22
g1
(g11
g12
(dtRp3812
sbsg24
S'Sce'
p3813
sg26
g27
((lp3814
g29
ag30
aS'sequence'
p3815
ag32
ag33
aS'species'
p3816
atRp3817
sg37
(lp3818
sg120
g3790
sg121
S'RWLSTKDLYSRLELPGLNQNVHAMFVMPLGFGNPMGDTFPRINNAFWLPMLSLEGAGTGWTVYPPLSHSGPSVDLAFHLTSSLLGAINFTNMRGPLFWTALLLLSLPVLAGTLLDRNFNTFEGGDPLYHLFWFFGHPEVYIIPGFGSHSTYKKFGMYASIGLGFVWSHHMYVGLDDRAYFLSALMIAPTGIKFSWLALHGGRPMLAFLFLFTGGTGVLNASDAFHDTYYVVHFHYVLSMGAFSLGYYYWPGLYNLFWFNFPMHFLGGMPRRPYPDAGWNSGSSYQLGPDESNEPH'
p3819
sg123
F0.0053899999999999998
sg124
g125
sg33
S'129'
p3820
sg127
g1
(g128
g12
(dp3821
g130
I4
sg131
g132
sg133
g134
sg135
g132
sg136
I01
sg34
g137
sg138
g134
sg139
I0
sg140
I0
sg141
I0
sg142
g134
sg35
g143
sg144
I0
stRp3822
sg146
g147
sg148
F1
sg149
Nsg30
S'ScereC'
p3823
sbag1
(g2
g3
NtRp3824
(dp3825
g6
g1
(g7
g3
NtRp3826
(dp3827
g10
g1
(g11
g12
(dtRp3828
sg14
g1
(g11
g12
(dtRp3829
sg16
g1
(g11
g12
(dtRp3830
sg18
g1
(g11
g12
(dtRp3831
sg20
g1
(g11
g12
(dtRp3832
sg22
g1
(g11
g12
(dtRp3833
sbsg24
S'Sce'
p3834
sg26
g27
((lp3835
g29
ag30
aS'sequence'
p3836
ag32
ag33
aS'species'
p3837
atRp3838
sg37
(lp3839
sg120
g3790
sg121
S'RWLSTKDLYSRLELPGLNQNVHAMFVMPLGFGNPMGDTFPRINNAFWLPMLSLEGAGTGWTVYPPLSHSGPSVDLAFHLTSSLLGAINFTNMRGPLFWTALLLLSLPVLAGTLLDRNFNTFEGGDPLYHLFWFFGHPEVYIIPGFGSHSTYKKFGMYASIGLGFVWSHHMYVGLDDRAYFLSALMIAPTGIKFSWLALYGGRPMLAFLFLFTGGTGVLNASDAFHDTYYVVHFHYVLSMGAFSLGYYYWPGLYNLFWFNFPMHFLGGMPRRPYPDAGWNSGSSYQLGPDESNEPH'
p3840
sg123
F0.0066400000000000001
sg124
g125
sg33
S'185'
p3841
sg127
g1
(g128
g12
(dp3842
g130
I4
sg131
g132
sg133
g134
sg135
g132
sg136
I01
sg34
g137
sg138
g134
sg139
I0
sg140
I0
sg141
I0
sg142
g134
sg35
g143
sg144
I0
stRp3843
sg146
g147
sg148
F1
sg149
Nsg30
S'ScereA'
p3844
sbasg120
g3756
sg123
F0.00596
sg124
g125
sg33
S'173'
p3845
sg127
g1
(g128
g12
(dp3846
g130
I6
sg131
g132
sg133
g134
sg135
g132
sg136
I01
sg34
g174
sg138
g134
sg139
I0
sg140
I0
sg141
I0
sg142
g134
sg35
g175
sg144
I0
stRp3847
sg146
g147
sg148
F0.98999999999999999
sg149
Nsg30
S'NoName'
p3848
sbasg120
g3722
sg123
F0.0050600000000000003
sg124
g125
sg33
S'200'
p3849
sg127
g1
(g128
g12
(dp3850
g130
I6
sg131
g132
sg133
g134
sg135
g132
sg136
I01
sg34
g174
sg138
g134
sg139
I0
sg140
I0
sg141
I0
sg142
g134
sg35
g175
sg144
I0
stRp3851
sg146
g147
sg148
F0.66000000000000003
sg149
Nsg30
S'NoName'
p3852
sbasg120
g3709
sg123
F0.017850000000000001
sg124
g125
sg33
S'178'
p3853
sg127
g1
(g128
g12
(dp3854
g130
I6
sg131
g132
sg133
g134
sg135
g132
sg136
I01
sg34
g174
sg138
g134
sg139
I0
sg140
I0
sg141
I0
sg142
g134
sg35
g175
sg144
I0
stRp3855
sg146
g147
sg148
F0.89000000000000001
sg149
Nsg30
S'NoName'
p3856
sbag1
(g2
g3
NtRp3857
(dp3858
g6
g1
(g7
g3
NtRp3859
(dp3860
g10
g1
(g11
g12
(dtRp3861
sg14
g1
(g11
g12
(dtRp3862
sg16
g1
(g11
g12
(dtRp3863
sg18
g1
(g11
g12
(dtRp3864
sg20
g1
(g11
g12
(dtRp3865
sg22
g1
(g11
g12
(dtRp3866
sbsg24
S'Sar'
p3867
sg26
g27
((lp3868
g29
ag30
aS'sequence'
p3869
ag32
ag33
aS'species'
p3870
atRp3871
sg37
(lp3872
sg120
g3709
sg121
S'RWLSTKDLYSRLELPGLNQNVHAMFVMPLGFGNPMGDTFPRINNAFWLPMLSLEGAGTGWTVYPPLSHSGPSVDLAFHLTSSLLGAINFTNMRGPLFWTALLLLSLPVLAGTLLDRNFNTFEGGDPLYHLFWFFGHPEVYIIPGFGSHSTYKKFGMYASIGLGFVWSHHMYVGLDDRAYFLSALMIAPTGIKFSWLALYGGRPMLAFLFLFTGGTGVLNASDAFHDTYYVVHFHYVLSMGAFSLGYYYWPGLYNLFWFNFPMHFLGGMPRRPYPDAGWNSGSSYQLGPDESNEPH'
p3873
sg123
F0.047230000000000001
sg124
g125
sg33
S'8'
sg127
g1
(g128
g12
(dp3874
g130
I4
sg131
g132
sg133
g134
sg135
g132
sg136
I01
sg34
g137
sg138
g134
sg139
I0
sg140
I0
sg141
I0
sg142
g134
sg35
g143
sg144
I0
stRp3875
sg146
g147
sg148
F1
sg149
Nsg30
S'SarboA'
p3876
sbasg120
g3675
sg123
F0.023619999999999999
sg124
g125
sg33
S'197'
p3877
sg127
g1
(g128
g12
(dp3878
g130
I6
sg131
g132
sg133
g134
sg135
g132
sg136
I01
sg34
g174
sg138
g134
sg139
I0
sg140
I0
sg141
I0
sg142
g134
sg35
g175
sg144
I0
stRp3879
sg146
g147
sg148
F0.92000000000000004
sg149
Nsg30
S'NoName'
p3880
sbasg120
g3603
sg123
F0.18547
sg124
g125
sg33
S'20'
p3881
sg127
g1
(g128
g12
(dp3882
g130
I6
sg131
g132
sg133
g134
sg135
g132
sg136
I01
sg34
g174
sg138
g134
sg139
I0
sg140
I0
sg141
I0
sg142
g134
sg35
g175
sg144
I0
stRp3883
sg146
g147
sg148
F0.98999999999999999
sg149
Nsg30
S'NoName'
p3884
sbasg120
g3590
sg123
F0.03594
sg124
g125
sg33
S'111'
p3885
sg127
g1
(g128
g12
(dp3886
g130
I6
sg131
g132
sg133
g134
sg135
g132
sg136
I01
sg34
g174
sg138
g134
sg139
I0
sg140
I0
sg141
I0
sg142
g134
sg35
g175
sg144
I0
stRp3887
sg146
g147
sg148
F0.98999999999999999
sg149
Nsg30
S'NoName'
p3888
sbag1
(g2
g3
NtRp3889
(dp3890
g6
g1
(g7
g3
NtRp3891
(dp3892
g10
g1
(g11
g12
(dtRp3893
sg14
g1
(g11
g12
(dtRp3894
sg16
g1
(g11
g12
(dtRp3895
sg18
g1
(g11
g12
(dtRp3896
sg20
g1
(g11
g12
(dtRp3897
sg22
g1
(g11
g12
(dtRp3898
sbsg24
g25
sg26
g27
((lp3899
g33
ag32
ag29
ag30
atRp3900
sg37
(lp3901
g1
(g2
g3
NtRp3902
(dp3903
g6
g1
(g7
g3
NtRp3904
(dp3905
g10
g1
(g11
g12
(dtRp3906
sg14
g1
(g11
g12
(dtRp3907
sg16
g1
(g11
g12
(dtRp3908
sg18
g1
(g11
g12
(dtRp3909
sg20
g1
(g11
g12
(dtRp3910
sg22
g1
(g11
g12
(dtRp3911
sbsg24
g25
sg26
g27
((lp3912
g33
ag32
ag29
ag30
atRp3913
sg37
(lp3914
g1
(g2
g3
NtRp3915
(dp3916
g6
g1
(g7
g3
NtRp3917
(dp3918
g10
g1
(g11
g12
(dtRp3919
sg14
g1
(g11
g12
(dtRp3920
sg16
g1
(g11
g12
(dtRp3921
sg18
g1
(g11
g12
(dtRp3922
sg20
g1
(g11
g12
(dtRp3923
sg22
g1
(g11
g12
(dtRp3924
sbsg24
S'Nde'
p3925
sg26
g27
((lp3926
g29
ag30
aS'sequence'
p3927
ag32
ag33
aS'species'
p3928
atRp3929
sg37
(lp3930
sg120
g3902
sg121
S'RWLSTKDLYSRLELPGLNQNVHAMFVMPLGFGNPMGDMFPRLNNGFWIVPLSLEGAGTGWTVYPPLSHSGPSVDLAFHMTSSLLGAINFTNMRGPLFWTALLLLSLPVFAGTLLDRNFNTFEGGDPLYHLFWFFGHPEVYIIPGFGSHSTYKKFGMYASIGLGFVWSHHMYVGLDDRAYFTSATMIAPTGIKFSWLATYGGRPMLAFLFLFTGGTGVLNASDAFHDTYYVVHFHYVLSMGAFSTGYYYWPGLYNLFWFNFPMHFLGGMPRRPYPDAGWNSGSSYQFGPDESNEPH'
p3931
sg123
F0.063509999999999997
sg124
g125
sg33
S'153'
p3932
sg127
g1
(g128
g12
(dp3933
g130
I4
sg131
g132
sg133
g134
sg135
g132
sg136
I01
sg34
g137
sg138
g134
sg139
I0
sg140
I0
sg141
I0
sg142
g134
sg35
g143
sg144
I0
stRp3934
sg146
g147
sg148
F1
sg149
Nsg30
S'NdelpA'
p3935
sbag1
(g2
g3
NtRp3936
(dp3937
g6
g1
(g7
g3
NtRp3938
(dp3939
g10
g1
(g11
g12
(dtRp3940
sg14
g1
(g11
g12
(dtRp3941
sg16
g1
(g11
g12
(dtRp3942
sg18
g1
(g11
g12
(dtRp3943
sg20
g1
(g11
g12
(dtRp3944
sg22
g1
(g11
g12
(dtRp3945
sbsg24
S'Cgl'
p3946
sg26
g27
((lp3947
g29
ag30
aS'sequence'
p3948
ag32
ag33
aS'species'
p3949
atRp3950
sg37
(lp3951
sg120
g3902
sg121
S'RWLSTKDLYSRLELPGLNQNVHAMFVMPLGFGNPMGDMFPRLNNGFWIVPLSLEGAGTGWTVYPPLSHSGPSVDLAFHLTSSLLGSINFTNMRGPLFWTALLLLSLPVLAGTLLDRNFNTFEGGDPLYHLFWFFGHPEVYIIPGFGSHSTYKKFGMYASIGLGFVWSHHMYVGLDDRAYFTSATMIAPTGIKFSWLATYGGRPMLAFLFLFTGGTGVLNASDAFHDTYYVVHFHYVLSMGAFSTGYYYWPGLYNLFWFNFPMHFLGGMPRRPYPDAGWNSGSSYQFGPDESNEPH'
p3952
sg123
F0.03882
sg124
g125
sg33
S'150'
p3953
sg127
g1
(g128
g12
(dp3954
g130
I4
sg131
g132
sg133
g134
sg135
g132
sg136
I01
sg34
g137
sg138
g134
sg139
I0
sg140
I0
sg141
I0
sg142
g134
sg35
g143
sg144
I0
stRp3955
sg146
g147
sg148
F1
sg149
Nsg30
S'CglabA'
p3956
sbasg120
g3889
sg123
F0.16661999999999999
sg124
g125
sg33
S'146'
p3957
sg127
g1
(g128
g12
(dp3958
g130
I6
sg131
g132
sg133
g134
sg135
g132
sg136
I01
sg34
g174
sg138
g134
sg139
I0
sg140
I0
sg141
I0
sg142
g134
sg35
g175
sg144
I0
stRp3959
sg146
g147
sg148
F0.98999999999999999
sg149
Nsg30
S'NoName'
p3960
sbag1
(g2
g3
NtRp3961
(dp3962
g6
g1
(g7
g3
NtRp3963
(dp3964
g10
g1
(g11
g12
(dtRp3965
sg14
g1
(g11
g12
(dtRp3966
sg16
g1
(g11
g12
(dtRp3967
sg18
g1
(g11
g12
(dtRp3968
sg20
g1
(g11
g12
(dtRp3969
sg22
g1
(g11
g12
(dtRp3970
sbsg24
g25
sg26
g27
((lp3971
g33
ag32
ag29
ag30
atRp3972
sg37
(lp3973
g1
(g2
g3
NtRp3974
(dp3975
g6
g1
(g7
g3
NtRp3976
(dp3977
g10
g1
(g11
g12
(dtRp3978
sg14
g1
(g11
g12
(dtRp3979
sg16
g1
(g11
g12
(dtRp3980
sg18
g1
(g11
g12
(dtRp3981
sg20
g1
(g11
g12
(dtRp3982
sg22
g1
(g11
g12
(dtRp3983
sbsg24
S'Nba'
p3984
sg26
g27
((lp3985
g29
ag30
aS'sequence'
p3986
ag32
ag33
aS'species'
p3987
atRp3988
sg37
(lp3989
sg120
g3961
sg121
S'RWLSTKDLYSRMELPGLNQNVHAMFVMPLGFGNPMGDMFPRLNNGFWMPALSLEGAGTGWTVYPPLSHSGPSVDLAFHLSSSLLGAINFTNMRGPLFWTALLLFSLPVFAGTLLDRNFNTFEGGDPLYHLFWFFGHPEVYIIPGFGSHSTYKKFGMYASIGLGFVWSHHMYVGLDDRAYFTSATMIAPTGIKFSWLALYGGRPMLAFLFLFTGGTGVLNASDAFHDTYYVVHFHYVLSMGAFSVAYYYWPGLYNLFWFNFPMHFLGGMPRRPYPDAGWNSGSSYQLGPDESNEPH'
p3990
sg123
F0.29926999999999998
sg124
g125
sg33
S'155'
p3991
sg127
g1
(g128
g12
(dp3992
g130
I4
sg131
g132
sg133
g134
sg135
g132
sg136
I01
sg34
g137
sg138
g134
sg139
I0
sg140
I0
sg141
I0
sg142
g134
sg35
g143
sg144
I0
stRp3993
sg146
g147
sg148
F1
sg149
Nsg30
S'NbaciA'
p3994
sbag1
(g2
g3
NtRp3995
(dp3996
g6
g1
(g7
g3
NtRp3997
(dp3998
g10
g1
(g11
g12
(dtRp3999
sg14
g1
(g11
g12
(dtRp4000
sg16
g1
(g11
g12
(dtRp4001
sg18
g1
(g11
g12
(dtRp4002
sg20
g1
(g11
g12
(dtRp4003
sg22
g1
(g11
g12
(dtRp4004
sbsg24
S'Cca'
p4005
sg26
g27
((lp4006
g29
ag30
aS'sequence'
p4007
ag32
ag33
aS'species'
p4008
atRp4009
sg37
(lp4010
sg120
g3961
sg121
S'RWLSTKDLYSRLELPGLNQNVHAMFVMPLGIGNPMGDTFPRLNNGFWLPPLSLEGAGTGWTVYPPLSHSGPSVDLAFHLTSSLLGAINFTNMRGPLFWTALLLFSLPVFAGTLLDRNFNTFEGGDPLYHVFWFFGHPEVYIIPGFGSHSTYKKFGMYASIGLGFVWSHHMYVGLDDRAYFTSALMIAPTGIKFSWLATFGGRPMLAFLFLFTGGTGVLNASDAFHDTYYVVHFHYVLSMGAFSLGYYYWPGLYNLFWFNFPMHFLGGMPRRPYPDAGWNSGSSYQLGPDESNEPH'
p4011
sg123
F0.26266
sg124
g125
sg33
S'167'
p4012
sg127
g1
(g128
g12
(dp4013
g130
I4
sg131
g132
sg133
g134
sg135
g132
sg136
I01
sg34
g137
sg138
g134
sg139
I0
sg140
I0
sg141
I0
sg142
g134
sg35
g143
sg144
I0
stRp4014
sg146
g147
sg148
F1
sg149
Nsg30
S'CcastA'
p4015
sbasg120
g3889
sg123
F0.15296999999999999
sg124
g125
sg33
S'96'
p4016
sg127
g1
(g128
g12
(dp4017
g130
I6
sg131
g132
sg133
g134
sg135
g132
sg136
I01
sg34
g174
sg138
g134
sg139
I0
sg140
I0
sg141
I0
sg142
g134
sg35
g175
sg144
I0
stRp4018
sg146
g147
sg148
F0.98999999999999999
sg149
Nsg30
S'NoName'
p4019
sbasg120
g3590
sg123
F0.042560000000000001
sg124
g125
sg33
S'136'
p4020
sg127
g1
(g128
g12
(dp4021
g130
I6
sg131
g132
sg133
g134
sg135
g132
sg136
I01
sg34
g174
sg138
g134
sg139
I0
sg140
I0
sg141
I0
sg142
g134
sg35
g175
sg144
I0
stRp4022
sg146
g147
sg148
F0.84999999999999998
sg149
Nsg30
S'NoName'
p4023
sbasg120
g3556
sg123
F0.094020000000000006
sg124
g125
sg33
S'157'
p4024
sg127
g1
(g128
g12
(dp4025
g130
I6
sg131
g132
sg133
g134
sg135
g132
sg136
I01
sg34
g174
sg138
g134
sg139
I0
sg140
I0
sg141
I0
sg142
g134
sg35
g175
sg144
I0
stRp4026
sg146
g147
sg148
F0.55000000000000004
sg149
Nsg30
S'NoName'
p4027
sbasg120
g3029
sg123
F0.11952
sg124
g125
sg33
S'125'
p4028
sg127
g1
(g128
g12
(dp4029
g130
I6
sg131
g132
sg133
g134
sg135
g132
sg136
I01
sg34
g174
sg138
g134
sg139
I0
sg140
I0
sg141
I0
sg142
g134
sg35
g175
sg144
I0
stRp4030
sg146
g147
sg148
F0.69999999999999996
sg149
Nsg30
S'NoName'
p4031
sbasg120
g3016
sg123
F0.029839999999999998
sg124
g125
sg33
S'192'
p4032
sg127
g1
(g128
g12
(dp4033
g130
I6
sg131
g132
sg133
g134
sg135
g132
sg136
I01
sg34
g174
sg138
g134
sg139
I0
sg140
I0
sg141
I0
sg142
g134
sg35
g175
sg144
I0
stRp4034
sg146
g147
sg148
F0.82999999999999996
sg149
Nsg30
S'NoName'
p4035
sbag1
(g2
g3
NtRp4036
(dp4037
g6
g1
(g7
g3
NtRp4038
(dp4039
g10
g1
(g11
g12
(dtRp4040
sg14
g1
(g11
g12
(dtRp4041
sg16
g1
(g11
g12
(dtRp4042
sg18
g1
(g11
g12
(dtRp4043
sg20
g1
(g11
g12
(dtRp4044
sg22
g1
(g11
g12
(dtRp4045
sbsg24
g25
sg26
g27
((lp4046
g33
ag32
ag29
ag30
atRp4047
sg37
(lp4048
g1
(g2
g3
NtRp4049
(dp4050
g6
g1
(g7
g3
NtRp4051
(dp4052
g10
g1
(g11
g12
(dtRp4053
sg14
g1
(g11
g12
(dtRp4054
sg16
g1
(g11
g12
(dtRp4055
sg18
g1
(g11
g12
(dtRp4056
sg20
g1
(g11
g12
(dtRp4057
sg22
g1
(g11
g12
(dtRp4058
sbsg24
S'Aac'
p4059
sg26
g27
((lp4060
g29
ag30
aS'sequence'
p4061
ag32
ag33
aS'species'
p4062
atRp4063
sg37
(lp4064
sg120
g4036
sg121
S'RWLSTKDLYSRMELPGLQQNVHLMFVMPLGFGNPMGDMFARLNNSFWLPPLSMEGLGTGWTVYPPLAHSGASVDLAFHLTSSLLGLINFTNMRGPLFWTAMLLMSLPVLAGTLLDRNFNTFEGGDPLYHLFWFFGHPEVYIIPLFGSHSTYKKFGMYASIGLGFVWSHHMYVGLDDRAYFTSLTMILPTSIKFSWLLTYGGRPMLAFLFLFTGGTGVLNLSDLFHDTYYVVHFHYVLSLGAFSMGYYYWPGLYNLFWFNFPMHFLGGMPRRPYPDLGWNSGSSYQLGPDESNEPH'
p4065
sg123
F0.028920000000000001
sg124
g125
sg33
S'162'
p4066
sg127
g1
(g128
g12
(dp4067
g130
I4
sg131
g132
sg133
g134
sg135
g132
sg136
I01
sg34
g137
sg138
g134
sg139
I0
sg140
I0
sg141
I0
sg142
g134
sg35
g143
sg144
I0
stRp4068
sg146
g147
sg148
F1
sg149
Nsg30
S'AacerA'
p4069
sbag1
(g2
g3
NtRp4070
(dp4071
g6
g1
(g7
g3
NtRp4072
(dp4073
g10
g1
(g11
g12
(dtRp4074
sg14
g1
(g11
g12
(dtRp4075
sg16
g1
(g11
g12
(dtRp4076
sg18
g1
(g11
g12
(dtRp4077
sg20
g1
(g11
g12
(dtRp4078
sg22
g1
(g11
g12
(dtRp4079
sbsg24
g25
sg26
g27
((lp4080
g33
ag32
ag29
ag30
atRp4081
sg37
(lp4082
g1
(g2
g3
NtRp4083
(dp4084
g6
g1
(g7
g3
NtRp4085
(dp4086
g10
g1
(g11
g12
(dtRp4087
sg14
g1
(g11
g12
(dtRp4088
sg16
g1
(g11
g12
(dtRp4089
sg18
g1
(g11
g12
(dtRp4090
sg20
g1
(g11
g12
(dtRp4091
sg22
g1
(g11
g12
(dtRp4092
sbsg24
S'Ago'
p4093
sg26
g27
((lp4094
g29
ag30
aS'sequence'
p4095
ag32
ag33
aS'species'
p4096
atRp4097
sg37
(lp4098
sg120
g4070
sg121
S'RWLSTKDLYSRMELPGLQQNVHLMFVMPLGFGNPMGDMFARLNNSFWLPPLSMEGLGTGWTVYPPLSHSGASVDLAFHLTSSLLGLINFTNMRGPLFWTAMLLMSLPVLAGTLLDRNFNTFEGGDPLYHLFWFFGHPEVYIIPLFGSHSTYKKFGMYLSISLGFVWSHHMYVGLDDRAYFTSATMILPTSIKFSWLLTYGGRPMLLFLFLFTGGTGVLNLSDAFHDTYYVVHFHYVLSLGAFSMGYYYWPGLYNLFWFNFPMHFLGGMPRRPYPDLGWNSGSSYQLGPDESNEPH'
p4099
sg123
F0.00088000000000000003
sg124
g125
sg33
S'126'
p4100
sg127
g1
(g128
g12
(dp4101
g130
I4
sg131
g132
sg133
g134
sg135
g132
sg136
I01
sg34
g137
sg138
g134
sg139
I0
sg140
I0
sg141
I0
sg142
g134
sg35
g143
sg144
I0
stRp4102
sg146
g147
sg148
F1
sg149
Nsg30
S'AgossB'
p4103
sbag1
(g2
g3
NtRp4104
(dp4105
g6
g1
(g7
g3
NtRp4106
(dp4107
g10
g1
(g11
g12
(dtRp4108
sg14
g1
(g11
g12
(dtRp4109
sg16
g1
(g11
g12
(dtRp4110
sg18
g1
(g11
g12
(dtRp4111
sg20
g1
(g11
g12
(dtRp4112
sg22
g1
(g11
g12
(dtRp4113
sbsg24
S'Ago'
p4114
sg26
g27
((lp4115
g29
ag30
aS'sequence'
p4116
ag32
ag33
aS'species'
p4117
atRp4118
sg37
(lp4119
sg120
g4070
sg121
S'RWLSTKDLYSRMELPGLQQNVHLMFVMPLGFGNPMGDMFARLNNSFWLPPLSMEGLGTGWTVYPPLSHSGASVDLAFHLTSSLLGLINFTNMRGPLFWTAMLLMSLPVLAGTLLDRNFNTFEGGDPLYHLFWFFGHPEVYIIPLFGSHSTYKKFGMYLSISLGFVWSHHMYVGLDDRAYFTSATMILPTSIKFSWLLTYGGRPMLLFLFLFTGGTGVLNLSDAFHDTYYVVHFHYVLSLGAFSMGYYYWPGLYNLFWFNFPMHFLGGMPRRPYPDLGWNSGSSYQLGPDESNEPH'
p4120
sg123
F0.0023999999999999998
sg124
g125
sg33
S'137'
p4121
sg127
g1
(g128
g12
(dp4122
g130
I4
sg131
g132
sg133
g134
sg135
g132
sg136
I01
sg34
g137
sg138
g134
sg139
I0
sg140
I0
sg141
I0
sg142
g134
sg35
g143
sg144
I0
stRp4123
sg146
g147
sg148
F1
sg149
Nsg30
S'AgossA'
p4124
sbasg120
g4036
sg123
F0.075329999999999994
sg124
g125
sg33
S'159'
p4125
sg127
g1
(g128
g12
(dp4126
g130
I6
sg131
g132
sg133
g134
sg135
g132
sg136
I01
sg34
g174
sg138
g134
sg139
I0
sg140
I0
sg141
I0
sg142
g134
sg35
g175
sg144
I0
stRp4127
sg146
g147
sg148
F0.98999999999999999
sg149
Nsg30
S'NoName'
p4128
sbasg120
g3016
sg123
F0.56830999999999998
sg124
g125
sg33
S'151'
p4129
sg127
g1
(g128
g12
(dp4130
g130
I6
sg131
g132
sg133
g134
sg135
g132
sg136
I01
sg34
g174
sg138
g134
sg139
I0
sg140
I0
sg141
I0
sg142
g134
sg35
g175
sg144
I0
stRp4131
sg146
g147
sg148
F0.98999999999999999
sg149
Nsg30
S'NoName'
p4132
sbasg120
g2679
sg123
F0.14305999999999999
sg124
g125
sg33
S'43'
p4133
sg127
g1
(g128
g12
(dp4134
g130
I6
sg131
g132
sg133
g134
sg135
g132
sg136
I01
sg34
g174
sg138
g134
sg139
I0
sg140
I0
sg141
I0
sg142
g134
sg35
g175
sg144
I0
stRp4135
sg146
g147
sg148
F0.96999999999999997
sg149
Nsg30
S'NoName'
p4136
sbasg120
g2493
sg123
F0.26834000000000002
sg124
g125
sg33
S'81'
p4137
sg127
g1
(g128
g12
(dp4138
g130
I6
sg131
g132
sg133
g134
sg135
g132
sg136
I01
sg34
g174
sg138
g134
sg139
I0
sg140
I0
sg141
I0
sg142
g134
sg35
g175
sg144
I0
stRp4139
sg146
g147
sg148
F0.97999999999999998
sg149
Nsg30
S'NoName'
p4140
sbasg120
g680
sg123
F0.062890000000000001
sg124
g125
sg33
S'145'
p4141
sg127
g1
(g128
g12
(dp4142
g130
I6
sg131
g132
sg133
g134
sg135
g132
sg136
I01
sg34
g174
sg138
g134
sg139
I0
sg140
I0
sg141
I0
sg142
g134
sg35
g175
sg144
I0
stRp4143
sg146
g147
sg148
F0.67000000000000004
sg149
Nsg30
S'NoName'
p4144
sbasg120
g266
sg123
F0.52025999999999994
sg124
g125
sg33
S'44'
p4145
sg127
g1
(g128
g12
(dp4146
g130
I6
sg131
g132
sg133
g134
sg135
g132
sg136
I01
sg34
g174
sg138
g134
sg139
I0
sg140
I0
sg141
I0
sg142
g134
sg35
g175
sg144
I0
stRp4147
sg146
g147
sg148
F0.97999999999999998
sg149
Nsg30
S'NoName'
p4148
sbasg120
g52
sg123
F0.11274000000000001
sg124
g125
sg33
S'218'
p4149
sg127
g1
(g128
g12
(dp4150
g130
I6
sg131
g132
sg133
g134
sg135
g132
sg136
I01
sg34
g174
sg138
g134
sg139
I0
sg140
I0
sg141
I0
sg142
g134
sg35
g175
sg144
I0
stRp4151
sg146
g147
sg148
F0.88
sg149
Nsg30
S'NoName'
p4152
sbasg120
g39
sg123
F0.33485999999999999
sg124
g125
sg33
S'222'
p4153
sg127
g1
(g128
g12
(dp4154
g130
I6
sg131
g132
sg133
g134
sg135
g132
sg136
I01
sg34
g174
sg138
g134
sg139
I0
sg140
I0
sg141
I0
sg142
g134
sg35
g175
sg144
I0
stRp4155
sg146
g147
sg148
F0.95999999999999996
sg149
Nsg30
S'NoName'
p4156
sbag1
(g2
g3
NtRp4157
(dp4158
g6
g1
(g7
g3
NtRp4159
(dp4160
g10
g1
(g11
g12
(dtRp4161
sg14
g1
(g11
g12
(dtRp4162
sg16
g1
(g11
g12
(dtRp4163
sg18
g1
(g11
g12
(dtRp4164
sg20
g1
(g11
g12
(dtRp4165
sg22
g1
(g11
g12
(dtRp4166
sbsg24
S'Lst'
p4167
sg26
g27
((lp4168
g29
ag30
aS'sequence'
p4169
ag32
ag33
aS'species'
p4170
atRp4171
sg37
(lp4172
sg120
g39
sg121
S'RWLSTKDLYSRMELPGLNHNVHAMFVMPLGFGNPLGDMFPRLNNSFWLPPLSFEGAGTGWTVYPPLSHSGASVDLAFHLSSSMLGAMNFTNMRGPLFWTALLLLSLPVLGATLLDRNFNTFEGGDPLYHLFWFFGHPEVYIIPGFGSHCTYEKFGMYASMGLGFVWSHHMFVGLDERAYFTAATMIAPTGMKFSWLATYGGTPMVAFLFLFTGGTGVLNASDAFHDTYYVVHFHYVLSMGAFALGYYYWPGLYKYFWFNFPMHFLGGMPRRPYPDAGWNSGSAIQLGPQATKEPH'
p4173
sg123
F1.13117
sg124
g125
sg33
S'133'
p4174
sg127
g1
(g128
g12
(dp4175
g130
I4
sg131
g132
sg133
g134
sg135
g132
sg136
I01
sg34
g137
sg138
g134
sg139
I0
sg140
I0
sg141
I0
sg142
g134
sg35
g143
sg144
I0
stRp4176
sg146
g147
sg148
F1
sg149
Nsg30
S'LstarA'
p4177
sbasg120
g4
sg123
F0.46844999999999998
sg124
g125
sg33
S'220'
p4178
sg127
g1
(g128
g12
(dp4179
g130
I6
sg131
g132
sg133
g134
sg135
g132
sg136
I01
sg34
g174
sg138
g134
sg139
I0
sg140
I0
sg141
I0
sg142
g134
sg35
g175
sg144
I0
stRp4180
sg146
g147
sg148
F1
sg149
Nsg30
S'NoName'
p4181
sbag1
(g2
g3
NtRp4182
(dp4183
g6
g1
(g7
g3
NtRp4184
(dp4185
g10
g1
(g11
g12
(dtRp4186
sg14
g1
(g11
g12
(dtRp4187
sg16
g1
(g11
g12
(dtRp4188
sg18
g1
(g11
g12
(dtRp4189
sg20
g1
(g11
g12
(dtRp4190
sg22
g1
(g11
g12
(dtRp4191
sbsg24
g25
sg26
g27
((lp4192
g33
ag32
ag29
ag30
atRp4193
sg37
(lp4194
g1
(g2
g3
NtRp4195
(dp4196
g6
g1
(g7
g3
NtRp4197
(dp4198
g10
g1
(g11
g12
(dtRp4199
sg14
g1
(g11
g12
(dtRp4200
sg16
g1
(g11
g12
(dtRp4201
sg18
g1
(g11
g12
(dtRp4202
sg20
g1
(g11
g12
(dtRp4203
sg22
g1
(g11
g12
(dtRp4204
sbsg24
S'Sja'
p4205
sg26
g27
((lp4206
g29
ag30
aS'sequence'
p4207
ag32
ag33
aS'species'
p4208
atRp4209
sg37
(lp4210
sg120
g4182
sg121
S'RWLSTKDLYSRLELPGLNQNVHGMFILPLGFGNPLGDVYPRMNNSFWLPPLSLEGPGVGWTMYYPLSHSGLSVDLLMQLTSSTLGSINLTNMRGPLFWTSLLVLTLPVLGGILLDRNWNTFAGGDPLYHLFWFFGHPEVYIIPAFGSHSTFHKFGMYASIALGCVWSHHLYVGLDDRAYFTAATMIAPTGIKFSWLATSGGEPMLVFLILFTGGTGVLNSVDAFHDTYFVVHFHYVLSMGAMGLAYYFWPGLYNMFWFNFPQHFLGNYPRRPYPDAGWNSGSSYQFNPNDSNEPH'
p4211
sg123
F1.0686599999999999
sg124
g125
sg33
S'130'
p4212
sg127
g1
(g128
g12
(dp4213
g130
I4
sg131
g132
sg133
g134
sg135
g132
sg136
I01
sg34
g137
sg138
g134
sg139
I0
sg140
I0
sg141
I0
sg142
g134
sg35
g143
sg144
I0
stRp4214
sg146
g147
sg148
F1
sg149
Nsg30
S'SjapoA'
p4215
sbag1
(g2
g3
NtRp4216
(dp4217
g6
g1
(g7
g3
NtRp4218
(dp4219
g10
g1
(g11
g12
(dtRp4220
sg14
g1
(g11
g12
(dtRp4221
sg16
g1
(g11
g12
(dtRp4222
sg18
g1
(g11
g12
(dtRp4223
sg20
g1
(g11
g12
(dtRp4224
sg22
g1
(g11
g12
(dtRp4225
sbsg24
g25
sg26
g27
((lp4226
g33
ag32
ag29
ag30
atRp4227
sg37
(lp4228
g1
(g2
g3
NtRp4229
(dp4230
g6
g1
(g7
g3
NtRp4231
(dp4232
g10
g1
(g11
g12
(dtRp4233
sg14
g1
(g11
g12
(dtRp4234
sg16
g1
(g11
g12
(dtRp4235
sg18
g1
(g11
g12
(dtRp4236
sg20
g1
(g11
g12
(dtRp4237
sg22
g1
(g11
g12
(dtRp4238
sbsg24
S'Spo'
p4239
sg26
g27
((lp4240
g29
ag30
aS'sequence'
p4241
ag32
ag33
aS'species'
p4242
atRp4243
sg37
(lp4244
sg120
g4216
sg121
S'RWMSTKDLYSRMELPGLNQNVHGMFIIPLGFGNPMGDVYPRVNNTFWLPPLSLEGPGGGWTVYPPLSHSGPAIDLALQLTSSTLGSVNLTNMRGPLFWTSLLLLTLPVLGGFLFDRNLNTFAGGDPLYHLFWFFGHPEVYIIPAFGSHPSLHKFGMWASIALGLVWSHHLFVGLDDRAYFSAATMIAPTGIKFSWLATTGGQPMLAFLILFTGGTGVLNSVDAFHDTYFVVHFHYVLSMGAFGLAYY-WPGLYNLFWFNFPQHFLGGMPRRPYPEAGWNSGSSYQFNPSDDNEPH'
p4245
sg123
F0.12372
sg124
g125
sg33
S'144'
p4246
sg127
g1
(g128
g12
(dp4247
g130
I4
sg131
g132
sg133
g134
sg135
g132
sg136
I01
sg34
g137
sg138
g134
sg139
I0
sg140
I0
sg141
I0
sg142
g134
sg35
g143
sg144
I0
stRp4248
sg146
g147
sg148
F1
sg149
Nsg30
S'SpombA'
p4249
sbag1
(g2
g3
NtRp4250
(dp4251
g6
g1
(g7
g3
NtRp4252
(dp4253
g10
g1
(g11
g12
(dtRp4254
sg14
g1
(g11
g12
(dtRp4255
sg16
g1
(g11
g12
(dtRp4256
sg18
g1
(g11
g12
(dtRp4257
sg20
g1
(g11
g12
(dtRp4258
sg22
g1
(g11
g12
(dtRp4259
sbsg24
g25
sg26
g27
((lp4260
g33
ag32
ag29
ag30
atRp4261
sg37
(lp4262
g1
(g2
g3
NtRp4263
(dp4264
g6
g1
(g7
g3
NtRp4265
(dp4266
g10
g1
(g11
g12
(dtRp4267
sg14
g1
(g11
g12
(dtRp4268
sg16
g1
(g11
g12
(dtRp4269
sg18
g1
(g11
g12
(dtRp4270
sg20
g1
(g11
g12
(dtRp4271
sg22
g1
(g11
g12
(dtRp4272
sbsg24
S'Soc'
p4273
sg26
g27
((lp4274
g29
ag30
aS'sequence'
p4275
ag32
ag33
aS'species'
p4276
atRp4277
sg37
(lp4278
sg120
g4250
sg121
S'RWLSTKDLYSRMELPGLNQNVHGMFIIPLGFGNPMGDVYPRVNNTFWLPPLSLEGPGTGWTVYPPLSHSGPAVDLALQLTSSTLGSLNLTNMRGPLFWTSLLLLTLPVLGGFLFDRNLNTFAGGDPLYHLFWFFGHPEVYIIPAFGSHSTLNKFGMCASIALGLVWSHHLFVGLDDRAYFSAATMIAPTGIKFSWLATTGGQPMLAFLILFTGGTGVLNSVDAFHDTYFVVHFHYVLSMGAFGLAYYFWPGLYNLFWFNFPQHFLGGMPRRPYPDAGWNSGSSYQYNPSDDNEPH'
p4279
sg123
F0.03637
sg124
g125
sg33
S'140'
p4280
sg127
g1
(g128
g12
(dp4281
g130
I4
sg131
g132
sg133
g134
sg135
g132
sg136
I01
sg34
g137
sg138
g134
sg139
I0
sg140
I0
sg141
I0
sg142
g134
sg35
g143
sg144
I0
stRp4282
sg146
g147
sg148
F1
sg149
Nsg30
S'SoctoA'
p4283
sbag1
(g2
g3
NtRp4284
(dp4285
g6
g1
(g7
g3
NtRp4286
(dp4287
g10
g1
(g11
g12
(dtRp4288
sg14
g1
(g11
g12
(dtRp4289
sg16
g1
(g11
g12
(dtRp4290
sg18
g1
(g11
g12
(dtRp4291
sg20
g1
(g11
g12
(dtRp4292
sg22
g1
(g11
g12
(dtRp4293
sbsg24
S'Scr'
p4294
sg26
g27
((lp4295
g29
ag30
aS'sequence'
p4296
ag32
ag33
aS'species'
p4297
atRp4298
sg37
(lp4299
sg120
g4250
sg121
S'RWLSTKDLYSRMELPGLNQNVHGMFIIPLGFGNPMGDVYPRVNNTYWLPPLSLEGPGTGWTVYPPLSHSGPSVDLALQLTSSTLGSLNLTNMRGPLFWTSLLLLTLPVLGGFLFDRNLNTFAGGDPLYHLFWFFGHPEVYIIPAFGSHPTLNKFGMCASIALGLVWSHHLFVGLDDRAYFSAATMIAPTGIKFSWLATTGGQPMLAFLILFTGGTGVLNSVDAFHDTYFVVHFHYVLSMGAFGLAYYFWPGLYNLFWFNFPQHFLGGMPRRPYPDAGWNSGSSYQYNPSDDNEPH'
p4300
sg123
F0.036740000000000002
sg124
g125
sg33
S'142'
p4301
sg127
g1
(g128
g12
(dp4302
g130
I4
sg131
g132
sg133
g134
sg135
g132
sg136
I01
sg34
g137
sg138
g134
sg139
I0
sg140
I0
sg141
I0
sg142
g134
sg35
g143
sg144
I0
stRp4303
sg146
g147
sg148
F1
sg149
Nsg30
S'ScryoA'
p4304
sbasg120
g4216
sg123
F0.18453
sg124
g125
sg33
S'223'
p4305
sg127
g1
(g128
g12
(dp4306
g130
I6
sg131
g132
sg133
g134
sg135
g132
sg136
I01
sg34
g174
sg138
g134
sg139
I0
sg140
I0
sg141
I0
sg142
g134
sg35
g175
sg144
I0
stRp4307
sg146
g147
sg148
F0.98999999999999999
sg149
Nsg30
S'NoName'
p4308
sbasg120
g4182
sg123
F0.73307
sg124
g125
sg33
S'127'
p4309
sg127
g1
(g128
g12
(dp4310
g130
I6
sg131
g132
sg133
g134
sg135
g132
sg136
I01
sg34
g174
sg138
g134
sg139
I0
sg140
I0
sg141
I0
sg142
g134
sg35
g175
sg144
I0
stRp4311
sg146
g147
sg148
F0.98999999999999999
sg149
Nsg30
S'NoName'
p4312
sbasg120
g4
sg123
F1.7741899999999999
sg124
g125
sg33
S'164'
p4313
sg127
g1
(g128
g12
(dp4314
g130
I6
sg131
g132
sg133
g134
sg135
g132
sg136
I01
sg34
g174
sg138
g134
sg139
I0
sg140
I0
sg141
I0
sg142
g134
sg35
g175
sg144
I0
stRp4315
sg146
g147
sg148
F1
sg149
Nsg30
S'NoName'
p4316
sbasg31
S'8'
sg120
Nsg123
F0
sg124
g125
sg33
S'15'
p4317
sg34
S'sphere'
p4318
sg127
g1
(g128
g12
(dp4319
g130
I6
sg131
g132
sg133
g134
sg135
g132
sg136
I01
sg34
g174
sg138
g134
sg139
I0
sg140
I0
sg141
I0
sg142
g134
sg35
g175
sg144
I0
stRp4320
sg146
g147
sg148
F1
sg149
Nsg35
S'#833DB4'
p4321
sg30
g125
sb.