ccopy_reg
_reconstructor
p1
(cete2.phylo.phylotree
PhyloNode
p2
c__builtin__
object
p3
NtRp4
(dp5
S'_faces'
p6
g1
(cete2.treeview.main
_FaceAreas
p7
g3
NtRp8
(dp9
S'branch-top'
p10
g1
(cete2.treeview.main
FaceContainer
p11
c__builtin__
dict
p12
(dtRp13
sS'float'
p14
g1
(g11
g12
(dtRp15
sS'branch-bottom'
p16
g1
(g11
g12
(dtRp17
sS'aligned'
p18
g1
(g11
g12
(dtRp19
sS'branch-right'
p20
g1
(g11
g12
(dtRp21
sS'float-behind'
p22
g1
(g11
g12
(dtRp23
sbsS'_species'
p24
S'Unknown'
p25
sS'features'
p26
c__builtin__
set
p27
((lp28
S'dist'
p29
aS'name'
p30
aS'bsize'
p31
aS'support'
p32
aS'_nid'
p33
aS'shape'
p34
aS'fgcolor'
p35
atRp36
sS'_children'
p37
(lp38
g1
(g2
g3
NtRp39
(dp40
g6
g1
(g7
g3
NtRp41
(dp42
g10
g1
(g11
g12
(dtRp43
sg14
g1
(g11
g12
(dtRp44
sg16
g1
(g11
g12
(dtRp45
sg18
g1
(g11
g12
(dtRp46
sg20
g1
(g11
g12
(dtRp47
sg22
g1
(g11
g12
(dtRp48
sbsg24
g25
sg26
g27
((lp49
g33
ag32
ag29
ag30
atRp50
sg37
(lp51
g1
(g2
g3
NtRp52
(dp53
g6
g1
(g7
g3
NtRp54
(dp55
g10
g1
(g11
g12
(dtRp56
sg14
g1
(g11
g12
(dtRp57
sg16
g1
(g11
g12
(dtRp58
sg18
g1
(g11
g12
(dtRp59
sg20
g1
(g11
g12
(dtRp60
sg22
g1
(g11
g12
(dtRp61
sbsg24
g25
sg26
g27
((lp62
g33
ag32
ag29
ag30
atRp63
sg37
(lp64
g1
(g2
g3
NtRp65
(dp66
g6
g1
(g7
g3
NtRp67
(dp68
g10
g1
(g11
g12
(dtRp69
sg14
g1
(g11
g12
(dtRp70
sg16
g1
(g11
g12
(dtRp71
sg18
g1
(g11
g12
(dtRp72
sg20
g1
(g11
g12
(dtRp73
sg22
g1
(g11
g12
(dtRp74
sbsg24
g25
sg26
g27
((lp75
g33
ag32
ag29
ag30
atRp76
sg37
(lp77
g1
(g2
g3
NtRp78
(dp79
g6
g1
(g7
g3
NtRp80
(dp81
g10
g1
(g11
g12
(dtRp82
sg14
g1
(g11
g12
(dtRp83
sg16
g1
(g11
g12
(dtRp84
sg18
g1
(g11
g12
(dtRp85
sg20
g1
(g11
g12
(dtRp86
sg22
g1
(g11
g12
(dtRp87
sbsg24
g25
sg26
g27
((lp88
g33
ag32
ag29
ag30
atRp89
sg37
(lp90
g1
(g2
g3
NtRp91
(dp92
g6
g1
(g7
g3
NtRp93
(dp94
g10
g1
(g11
g12
(dtRp95
sg14
g1
(g11
g12
(dtRp96
sg16
g1
(g11
g12
(dtRp97
sg18
g1
(g11
g12
(dtRp98
sg20
g1
(g11
g12
(dtRp99
sg22
g1
(g11
g12
(dtRp100
sbsg24
g25
sg26
g27
((lp101
g33
ag32
ag29
ag30
atRp102
sg37
(lp103
g1
(g2
g3
NtRp104
(dp105
g6
g1
(g7
g3
NtRp106
(dp107
g10
g1
(g11
g12
(dtRp108
sg14
g1
(g11
g12
(dtRp109
sg16
g1
(g11
g12
(dtRp110
sg18
g1
(g11
g12
(dtRp111
sg20
g1
(g11
g12
(dtRp112
sg22
g1
(g11
g12
(dtRp113
sbsg24
S'Yli'
p114
sg26
g27
((lp115
g29
ag30
aS'sequence'
p116
ag32
ag33
aS'species'
p117
atRp118
sg37
(lp119
sS'_up'
p120
g91
sS'sequence'
p121
S'RWLSTKDLYSRLELTGLNQNVHAMFVMPLGFGNPMGDMFARLNNSFWLVPLSLEGAGTGWTVYFPLAHSGPAVDLAFHLSSSLLGAINFTNMRGPLFWTALLLLSLPVLAGTGIDRNFNTFEGGDALYHLFWFFGHPEVYIIPGFGSHSAISKFGMYASIGLGFVWSHHMFVGLDDRAYFTSATMIAPTSIKFSWLATYGGRTALAFIFLFTGGTGVLNSADPFHDSYYVVHFHYVLSMGAFSIGWYLWPGLYNLFWFNFPMHFLGGMPRRNYPDAGWNSGSAYQLGPSGTNEPH'
p122
sS'_dist'
p123
F0.00011
sS'_name'
p124
S'NoName'
p125
sg33
S'174'
p126
sS'_img_style'
p127
g1
(cete2.treeview.main
NodeStyle
p128
g12
(dp129
S'size'
p130
I4
sS'hz_line_color'
p131
S'#000000'
p132
sS'faces_bgcolor'
p133
S'#FFFFFF'
p134
sS'vt_line_color'
p135
g132
sS'draw_descendants'
p136
I01
sg34
S'square'
p137
sS'bgcolor'
p138
g134
sS'hz_line_type'
p139
I0
sS'vt_line_width'
p140
I0
sS'vt_line_type'
p141
I0
sS'node_bgcolor'
p142
g134
sg35
S'#000000'
p143
sS'hz_line_width'
p144
I0
stRp145
sS'_speciesFunction'
p146
cete2.phylo.phylotree
_parse_species
p147
sS'_support'
p148
F1
sS'_temp_faces'
p149
Nsg30
S'YlipoB'
p150
sbag1
(g2
g3
NtRp151
(dp152
g6
g1
(g7
g3
NtRp153
(dp154
g10
g1
(g11
g12
(dtRp155
sg14
g1
(g11
g12
(dtRp156
sg16
g1
(g11
g12
(dtRp157
sg18
g1
(g11
g12
(dtRp158
sg20
g1
(g11
g12
(dtRp159
sg22
g1
(g11
g12
(dtRp160
sbsg24
S'Yli'
p161
sg26
g27
((lp162
g29
ag30
aS'sequence'
p163
ag32
ag33
aS'species'
p164
atRp165
sg37
(lp166
sg120
g91
sg121
S'RWLSTKDLYSRLELTGLNQNVHAMFVMPLGFGNPMGDMFARLNNSFWLVPLSLEGAGTGWTVYFPLAHSGPAVDLAFHLSSSLLGAINFTNMRGPLFWTALLLLSLPVLAGTGIDRNFNTFEGGDALYHLFWFFGHPEVYIIPGFGSHSAISKFGMYASIGLGFVWSHHMFVGLDDRAYFTSATMIAPTSIKFSWLATYGGRTALAFIFLFTGGTGVLNSADPFHDSYYVVHFHYVLSMGAFSIGWYLWPGLYNLFWFNFPMHFLGGMPRRNYPDAGWNSGSAYQLGPSGTNEPH'
p167
sg123
F0.00048000000000000001
sg124
g125
sg33
S'3'
sg127
g1
(g128
g12
(dp168
g130
I4
sg131
g132
sg133
g134
sg135
g132
sg136
I01
sg34
g137
sg138
g134
sg139
I0
sg140
I0
sg141
I0
sg142
g134
sg35
g143
sg144
I0
stRp169
sg146
g147
sg148
F1
sg149
Nsg30
S'YlipoA'
p170
sbasg120
g78
sg123
F0.02656
sg124
g125
sg33
S'19'
p171
sg127
g1
(g128
g12
(dp172
g130
I6
sg131
g132
sg133
g134
sg135
g132
sg136
I01
sg34
S'circle'
p173
sg138
g134
sg139
I0
sg140
I0
sg141
I0
sg142
g134
sg35
S'#0030c1'
p174
sg144
I0
stRp175
sg146
g147
sg148
F1
sg149
Nsg30
S'NoName'
p176
sbag1
(g2
g3
NtRp177
(dp178
g6
g1
(g7
g3
NtRp179
(dp180
g10
g1
(g11
g12
(dtRp181
sg14
g1
(g11
g12
(dtRp182
sg16
g1
(g11
g12
(dtRp183
sg18
g1
(g11
g12
(dtRp184
sg20
g1
(g11
g12
(dtRp185
sg22
g1
(g11
g12
(dtRp186
sbsg24
g25
sg26
g27
((lp187
g33
ag32
ag29
ag30
atRp188
sg37
(lp189
g1
(g2
g3
NtRp190
(dp191
g6
g1
(g7
g3
NtRp192
(dp193
g10
g1
(g11
g12
(dtRp194
sg14
g1
(g11
g12
(dtRp195
sg16
g1
(g11
g12
(dtRp196
sg18
g1
(g11
g12
(dtRp197
sg20
g1
(g11
g12
(dtRp198
sg22
g1
(g11
g12
(dtRp199
sbsg24
S'Cga'
p200
sg26
g27
((lp201
g29
ag30
aS'sequence'
p202
ag32
ag33
aS'species'
p203
atRp204
sg37
(lp205
sg120
g177
sg121
S'RWLSTKDLYSRLELTGLNQNVHAMFVMPLGFGNPMGDMFARLNNSFWLVPLSLEGAGTGWTVYFPLAHSGPAVDLAFHLSSSLLGAINFTNMRGPLFWTALLLLSLPVLAGTGIDRNFNTFEGGDALYHLFWFFGHPEVYIIPGFGSHSAISKFGMYASIGLGFVWSHHMFVGLDDRAYFTSATMIAPTSIKFSWLSTYGGRTALAFIFLFTGGTGVLNSADPFHDSYYVVHFHYVLSMGAFSIGWYLWPGLYNLFWFNFPMHFLGGMPRRNYPDAGWNSGSAYQLGPSGTNEPH'
p206
sg123
F0.016299999999999999
sg124
g125
sg33
S'6'
sg127
g1
(g128
g12
(dp207
g130
I4
sg131
g132
sg133
g134
sg135
g132
sg136
I01
sg34
g137
sg138
g134
sg139
I0
sg140
I0
sg141
I0
sg142
g134
sg35
g143
sg144
I0
stRp208
sg146
g147
sg148
F1
sg149
Nsg30
S'CgallA'
p209
sbag1
(g2
g3
NtRp210
(dp211
g6
g1
(g7
g3
NtRp212
(dp213
g10
g1
(g11
g12
(dtRp214
sg14
g1
(g11
g12
(dtRp215
sg16
g1
(g11
g12
(dtRp216
sg18
g1
(g11
g12
(dtRp217
sg20
g1
(g11
g12
(dtRp218
sg22
g1
(g11
g12
(dtRp219
sbsg24
S'Cde'
p220
sg26
g27
((lp221
g29
ag30
aS'sequence'
p222
ag32
ag33
aS'species'
p223
atRp224
sg37
(lp225
sg120
g177
sg121
S'RWLSTKDLYSRLELTGLNQNVHAMFVMPLGFGNPMGDMFARLNNSFWLVPLSLEGAGTGWTVYFPLAHSGPAVDLAFHLSSSLLGAINFTNMRGPLFWTALLLLSLPVLAGTGIDRNFNTFEGGDALYHLFFFNGHPEVYIIPGFGSHSAISKFGMYASIGLGFVWSHHMFVGLDDRAYFTSATMIAPTSIKFSWLATYGGRTALAFIFLFTGGTGVLNSADPFHDSYYVVHFHYVLSMGAFSIGWYLWPGLYNLFWFNFPMHFLGGMPRRNYPDAGWNSGSAYQLGPSGTNEPH'
p226
sg123
F0.018610000000000002
sg124
g125
sg33
S'113'
p227
sg127
g1
(g128
g12
(dp228
g130
I4
sg131
g132
sg133
g134
sg135
g132
sg136
I01
sg34
g137
sg138
g134
sg139
I0
sg140
I0
sg141
I0
sg142
g134
sg35
g143
sg144
I0
stRp229
sg146
g147
sg148
F1
sg149
Nsg30
S'CdefoA'
p230
sbasg120
g78
sg123
F0.00282
sg124
g125
sg33
S'23'
p231
sg127
g1
(g128
g12
(dp232
g130
I6
sg131
g132
sg133
g134
sg135
g132
sg136
I01
sg34
g173
sg138
g134
sg139
I0
sg140
I0
sg141
I0
sg142
g134
sg35
g174
sg144
I0
stRp233
sg146
g147
sg148
F0.96999999999999997
sg149
Nsg30
S'NoName'
p234
sbasg120
g65
sg123
F0.00479
sg124
g125
sg33
S'11'
p235
sg127
g1
(g128
g12
(dp236
g130
I6
sg131
g132
sg133
g134
sg135
g132
sg136
I01
sg34
g173
sg138
g134
sg139
I0
sg140
I0
sg141
I0
sg142
g134
sg35
g174
sg144
I0
stRp237
sg146
g147
sg148
F0.80000000000000004
sg149
Nsg30
S'NoName'
p238
sbag1
(g2
g3
NtRp239
(dp240
g6
g1
(g7
g3
NtRp241
(dp242
g10
g1
(g11
g12
(dtRp243
sg14
g1
(g11
g12
(dtRp244
sg16
g1
(g11
g12
(dtRp245
sg18
g1
(g11
g12
(dtRp246
sg20
g1
(g11
g12
(dtRp247
sg22
g1
(g11
g12
(dtRp248
sbsg24
S'Cal'
p249
sg26
g27
((lp250
g29
ag30
aS'sequence'
p251
ag32
ag33
aS'species'
p252
atRp253
sg37
(lp254
sg120
g65
sg121
S'RWLSTKDLYSRLELTGLNQNVHAMFVMPLGFGNPMGDMFARLNNSFWLVPMSLEGAGTGWTVYFPLAHSGPAVDLAFHLASSLLGAINFTNMRGPLFWTALLLLSLPVLAGTGIDRNFNTFEGGDALYHLFWFFGHPEVYIIPGFGSHSAISKFGMYASIGLGFVWSHHMFVGLDDRAYFTSATMIAPTSIKFSWLATYGGRTALAFIFLFTGGTGVLNSADPFHDSYYVVHFHYVLSMGAFSIGWYLWPGLYNLFWFNFPMHFLGGMPRRNYPDAGWNSGSAYQLGPSGTNEPH'
p255
sg123
F0.035970000000000002
sg124
g125
sg33
S'40'
p256
sg127
g1
(g128
g12
(dp257
g130
I4
sg131
g132
sg133
g134
sg135
g132
sg136
I01
sg34
g137
sg138
g134
sg139
I0
sg140
I0
sg141
I0
sg142
g134
sg35
g143
sg144
I0
stRp258
sg146
g147
sg148
F1
sg149
Nsg30
S'CalimA'
p259
sbasg120
g52
sg123
F1.1444799999999999
sg124
g125
sg33
S'2'
sg127
g1
(g128
g12
(dp260
g130
I6
sg131
g132
sg133
g134
sg135
g132
sg136
I01
sg34
g173
sg138
g134
sg139
I0
sg140
I0
sg141
I0
sg142
g134
sg35
g174
sg144
I0
stRp261
sg146
g147
sg148
F0.97999999999999998
sg149
Nsg30
S'NoName'
p262
sbag1
(g2
g3
NtRp263
(dp264
g6
g1
(g7
g3
NtRp265
(dp266
g10
g1
(g11
g12
(dtRp267
sg14
g1
(g11
g12
(dtRp268
sg16
g1
(g11
g12
(dtRp269
sg18
g1
(g11
g12
(dtRp270
sg20
g1
(g11
g12
(dtRp271
sg22
g1
(g11
g12
(dtRp272
sbsg24
g25
sg26
g27
((lp273
g33
ag32
ag29
ag30
atRp274
sg37
(lp275
g1
(g2
g3
NtRp276
(dp277
g6
g1
(g7
g3
NtRp278
(dp279
g10
g1
(g11
g12
(dtRp280
sg14
g1
(g11
g12
(dtRp281
sg16
g1
(g11
g12
(dtRp282
sg18
g1
(g11
g12
(dtRp283
sg20
g1
(g11
g12
(dtRp284
sg22
g1
(g11
g12
(dtRp285
sbsg24
g25
sg26
g27
((lp286
g33
ag32
ag29
ag30
atRp287
sg37
(lp288
g1
(g2
g3
NtRp289
(dp290
g6
g1
(g7
g3
NtRp291
(dp292
g10
g1
(g11
g12
(dtRp293
sg14
g1
(g11
g12
(dtRp294
sg16
g1
(g11
g12
(dtRp295
sg18
g1
(g11
g12
(dtRp296
sg20
g1
(g11
g12
(dtRp297
sg22
g1
(g11
g12
(dtRp298
sbsg24
g25
sg26
g27
((lp299
g33
ag32
ag29
ag30
atRp300
sg37
(lp301
g1
(g2
g3
NtRp302
(dp303
g6
g1
(g7
g3
NtRp304
(dp305
g10
g1
(g11
g12
(dtRp306
sg14
g1
(g11
g12
(dtRp307
sg16
g1
(g11
g12
(dtRp308
sg18
g1
(g11
g12
(dtRp309
sg20
g1
(g11
g12
(dtRp310
sg22
g1
(g11
g12
(dtRp311
sbsg24
g25
sg26
g27
((lp312
g33
ag32
ag29
ag30
atRp313
sg37
(lp314
g1
(g2
g3
NtRp315
(dp316
g6
g1
(g7
g3
NtRp317
(dp318
g10
g1
(g11
g12
(dtRp319
sg14
g1
(g11
g12
(dtRp320
sg16
g1
(g11
g12
(dtRp321
sg18
g1
(g11
g12
(dtRp322
sg20
g1
(g11
g12
(dtRp323
sg22
g1
(g11
g12
(dtRp324
sbsg24
S'Mst'
p325
sg26
g27
((lp326
g29
ag30
aS'sequence'
p327
ag32
ag33
aS'species'
p328
atRp329
sg37
(lp330
sg120
g302
sg121
S'RWLSTKDLYSRLELPTLNQNVHAMFVMPSGFGNPMGDMLARLNNSFWLVPVSLEGAGTGWTVYPPLSHSGASVDLVFHMSSSLLGAINFTNMRGTLFWTALLLLSLPVLSGTLLDRNFNTFEGGDPLYHLFWFFGHPEVYIIPGFGSHSTYKKFGMYASMGLGFVWSHHMYVGLDDRAYFTSATMMAPTGVKFSWLATYGGRPFLAFMFLFTGGTGVLNASDAFHDTYYVVHFHYVLSLGAFSLGYYFWPGLYNLFMFNFPLHFLGGMPRRPYPDAGWNSGSSYQLGPDESNEPH'
p331
sg123
F0.087190000000000004
sg124
g125
sg33
S'116'
p332
sg127
g1
(g128
g12
(dp333
g130
I4
sg131
g132
sg133
g134
sg135
g132
sg136
I01
sg34
g137
sg138
g134
sg139
I0
sg140
I0
sg141
I0
sg142
g134
sg35
g143
sg144
I0
stRp334
sg146
g147
sg148
F1
sg149
Nsg30
S'MstarA'
p335
sbag1
(g2
g3
NtRp336
(dp337
g6
g1
(g7
g3
NtRp338
(dp339
g10
g1
(g11
g12
(dtRp340
sg14
g1
(g11
g12
(dtRp341
sg16
g1
(g11
g12
(dtRp342
sg18
g1
(g11
g12
(dtRp343
sg20
g1
(g11
g12
(dtRp344
sg22
g1
(g11
g12
(dtRp345
sbsg24
S'Min'
p346
sg26
g27
((lp347
g29
ag30
aS'sequence'
p348
ag32
ag33
aS'species'
p349
atRp350
sg37
(lp351
sg120
g302
sg121
S'RWLSTKDLYSRLELPTLNQNVHAMFVMPAGFGNPMGDMLARLNNSFWLVPVSLEGAGTGWTVYPPLSHSGPSVDLVFHISSSLLGSMNFTNMRGTLFWTSLLLLSLPVLSGTLLDRNFNTFEGGDPLYHLFYKMMLFSMYMMPGFGSHSAYKKFGMYASIGLGFVWSHHMYVGLDDRAYFTSATMIAPTGVKFSWLATYGGRPFLAFMFLFTGGTGVLNASDAFHDTYYVVHFHYVLSLGAFSLGYYFWPGLYNLFTFNFPLHFLGGMPRRPYPDAGWNSGSSYQLGPDESNEPH'
p352
sg123
F0.040719999999999999
sg124
g125
sg33
S'61'
p353
sg127
g1
(g128
g12
(dp354
g130
I4
sg131
g132
sg133
g134
sg135
g132
sg136
I01
sg34
g137
sg138
g134
sg139
I0
sg140
I0
sg141
I0
sg142
g134
sg35
g143
sg144
I0
stRp355
sg146
g147
sg148
F1
sg149
Nsg30
S'MingeA'
p356
sbasg120
g289
sg123
F0.037420000000000002
sg124
g125
sg33
S'70'
p357
sg127
g1
(g128
g12
(dp358
g130
I6
sg131
g132
sg133
g134
sg135
g132
sg136
I01
sg34
g173
sg138
g134
sg139
I0
sg140
I0
sg141
I0
sg142
g134
sg35
g174
sg144
I0
stRp359
sg146
g147
sg148
F0.98999999999999999
sg149
Nsg30
S'NoName'
p360
sbag1
(g2
g3
NtRp361
(dp362
g6
g1
(g7
g3
NtRp363
(dp364
g10
g1
(g11
g12
(dtRp365
sg14
g1
(g11
g12
(dtRp366
sg16
g1
(g11
g12
(dtRp367
sg18
g1
(g11
g12
(dtRp368
sg20
g1
(g11
g12
(dtRp369
sg22
g1
(g11
g12
(dtRp370
sbsg24
g25
sg26
g27
((lp371
g33
ag32
ag29
ag30
atRp372
sg37
(lp373
g1
(g2
g3
NtRp374
(dp375
g6
g1
(g7
g3
NtRp376
(dp377
g10
g1
(g11
g12
(dtRp378
sg14
g1
(g11
g12
(dtRp379
sg16
g1
(g11
g12
(dtRp380
sg18
g1
(g11
g12
(dtRp381
sg20
g1
(g11
g12
(dtRp382
sg22
g1
(g11
g12
(dtRp383
sbsg24
g25
sg26
g27
((lp384
g33
ag32
ag29
ag30
atRp385
sg37
(lp386
g1
(g2
g3
NtRp387
(dp388
g6
g1
(g7
g3
NtRp389
(dp390
g10
g1
(g11
g12
(dtRp391
sg14
g1
(g11
g12
(dtRp392
sg16
g1
(g11
g12
(dtRp393
sg18
g1
(g11
g12
(dtRp394
sg20
g1
(g11
g12
(dtRp395
sg22
g1
(g11
g12
(dtRp396
sbsg24
S'Mte'
p397
sg26
g27
((lp398
g29
ag30
aS'sequence'
p399
ag32
ag33
aS'species'
p400
atRp401
sg37
(lp402
sg120
g374
sg121
S'RWLSTKDLYSRLELPTLNQNVHAMFVMPAGFGNPMGDMLARLNNSFWLVPLSLEGAGTGWTVYPPLSHSGPSVDMVFHISSSLLGAINFTNMRGTLFWTALLLLSLPVLSGTLLDRNFNTFEGGDPLYHLFWFFGHPEVYIIPGFGSHSAYKKFGMYASIGLGFVWSHHMYVGLDDRAYFTSATMIAPTGVKFSWLATYGGRPFLAFIFLFTGGTGVLNASDAFHDTYYVVHFHYVLSLGAFSLGYYFWPGLYNLFYFNFPMHALGGMPRRPYPDAGWNSGSSYQLGPDESNEPH'
p403
sg123
F0.042599999999999999
sg124
g125
sg33
S'92'
p404
sg127
g1
(g128
g12
(dp405
g130
I4
sg131
g132
sg133
g134
sg135
g132
sg136
I01
sg34
g137
sg138
g134
sg139
I0
sg140
I0
sg141
I0
sg142
g134
sg35
g143
sg144
I0
stRp406
sg146
g147
sg148
F1
sg149
Nsg30
S'MtetrA'
p407
sbag1
(g2
g3
NtRp408
(dp409
g6
g1
(g7
g3
NtRp410
(dp411
g10
g1
(g11
g12
(dtRp412
sg14
g1
(g11
g12
(dtRp413
sg16
g1
(g11
g12
(dtRp414
sg18
g1
(g11
g12
(dtRp415
sg20
g1
(g11
g12
(dtRp416
sg22
g1
(g11
g12
(dtRp417
sbsg24
g25
sg26
g27
((lp418
g33
ag32
ag29
ag30
atRp419
sg37
(lp420
g1
(g2
g3
NtRp421
(dp422
g6
g1
(g7
g3
NtRp423
(dp424
g10
g1
(g11
g12
(dtRp425
sg14
g1
(g11
g12
(dtRp426
sg16
g1
(g11
g12
(dtRp427
sg18
g1
(g11
g12
(dtRp428
sg20
g1
(g11
g12
(dtRp429
sg22
g1
(g11
g12
(dtRp430
sbsg24
S'Mma'
p431
sg26
g27
((lp432
g29
ag30
aS'sequence'
p433
ag32
ag33
aS'species'
p434
atRp435
sg37
(lp436
sg120
g408
sg121
S'RWLSTKDLYSRLELPTLNQNVHAMFVMPAGFGNPMGDMLARLNNSFWLVPLSLEGPGTGWTVYPPLSHSGPSVDMVFHISSSLLGAINFTNMRGTLFWTALLLLSLPVLSGTLLDRNFNTFEGGDPLYHLFWFFGHPEVYIIPGFGSHSAYKKFGMYASIGLGFVWSHHMYVGLDDRAYFTSATMIAPTGVKFSWLATYGGRPFLAFIFLFTGGTGVLNASDAFHDSYYVVHFHYVLSLGAFSLGYYFWPGLYNLFFFNFPMHALGGMPRRPYPDAGWNSGSSYQLGPDESNEPH'
p437
sg123
F0.00055000000000000003
sg124
g125
sg33
S'26'
p438
sg127
g1
(g128
g12
(dp439
g130
I4
sg131
g132
sg133
g134
sg135
g132
sg136
I01
sg34
g137
sg138
g134
sg139
I0
sg140
I0
sg141
I0
sg142
g134
sg35
g143
sg144
I0
stRp440
sg146
g147
sg148
F1
sg149
Nsg30
S'MmagnB'
p441
sbag1
(g2
g3
NtRp442
(dp443
g6
g1
(g7
g3
NtRp444
(dp445
g10
g1
(g11
g12
(dtRp446
sg14
g1
(g11
g12
(dtRp447
sg16
g1
(g11
g12
(dtRp448
sg18
g1
(g11
g12
(dtRp449
sg20
g1
(g11
g12
(dtRp450
sg22
g1
(g11
g12
(dtRp451
sbsg24
S'Mma'
p452
sg26
g27
((lp453
g29
ag30
aS'sequence'
p454
ag32
ag33
aS'species'
p455
atRp456
sg37
(lp457
sg120
g408
sg121
S'RWLSTKDLYSRLELPTLNQNVHAMFVMPAGFGNPMGDMLARLNNSFWLVPLSLEGPGTGWTVYPPLSHSGPSVDMVFHISSSLLGAINFTNMRGTLFWTALLLLSLPVLSGTLLDRNFNTFEGGDPLYHLFWFFGHPEVYIIPGFGSHSAYKKFGMYASIGLGFVWSHHMYVGLDDRAYFTSATMIAPTGVKFSWLATYGGRPFLAFIFLFTGGTGVLNASDAFHDSYYVVHFHYVLSLGAFSLGYYFWPGLYNLFFFNFPMHALGGMPRRPYPDAGWNSGSSYQLGPDESNEPH'
p458
sg123
F0.00088000000000000003
sg124
g125
sg33
S'25'
p459
sg127
g1
(g128
g12
(dp460
g130
I4
sg131
g132
sg133
g134
sg135
g132
sg136
I01
sg34
g137
sg138
g134
sg139
I0
sg140
I0
sg141
I0
sg142
g134
sg35
g143
sg144
I0
stRp461
sg146
g147
sg148
F1
sg149
Nsg30
S'MmagnA'
p462
sbasg120
g374
sg123
F0.011140000000000001
sg124
g125
sg33
S'62'
p463
sg127
g1
(g128
g12
(dp464
g130
I6
sg131
g132
sg133
g134
sg135
g132
sg136
I01
sg34
g173
sg138
g134
sg139
I0
sg140
I0
sg141
I0
sg142
g134
sg35
g174
sg144
I0
stRp465
sg146
g147
sg148
F0.98999999999999999
sg149
Nsg30
S'NoName'
p466
sbasg120
g361
sg123
F0.11189
sg124
g125
sg33
S'85'
p467
sg127
g1
(g128
g12
(dp468
g130
I6
sg131
g132
sg133
g134
sg135
g132
sg136
I01
sg34
g173
sg138
g134
sg139
I0
sg140
I0
sg141
I0
sg142
g134
sg35
g174
sg144
I0
stRp469
sg146
g147
sg148
F0.98999999999999999
sg149
Nsg30
S'NoName'
p470
sbag1
(g2
g3
NtRp471
(dp472
g6
g1
(g7
g3
NtRp473
(dp474
g10
g1
(g11
g12
(dtRp475
sg14
g1
(g11
g12
(dtRp476
sg16
g1
(g11
g12
(dtRp477
sg18
g1
(g11
g12
(dtRp478
sg20
g1
(g11
g12
(dtRp479
sg22
g1
(g11
g12
(dtRp480
sbsg24
g25
sg26
g27
((lp481
g33
ag32
ag29
ag30
atRp482
sg37
(lp483
g1
(g2
g3
NtRp484
(dp485
g6
g1
(g7
g3
NtRp486
(dp487
g10
g1
(g11
g12
(dtRp488
sg14
g1
(g11
g12
(dtRp489
sg16
g1
(g11
g12
(dtRp490
sg18
g1
(g11
g12
(dtRp491
sg20
g1
(g11
g12
(dtRp492
sg22
g1
(g11
g12
(dtRp493
sbsg24
S'Scl'
p494
sg26
g27
((lp495
g29
ag30
aS'sequence'
p496
ag32
ag33
aS'species'
p497
atRp498
sg37
(lp499
sg120
g471
sg121
S'RWLSTKDLYSRLELPTLNQNVHAMFVMPAGFGNPMGDMLARLNNSFWLVPLSLEGPGTGWTVYPPLSHSGPSVDMVFHMSSSLLGAINFTNMRGTLFWTALLLLSLPVLAGTLLDRNFNTFEGGDPLYHLFWFFGHPEVYMIPGFGSHSTYKKFGMYASMGLGFVWSHHMYVGLDDRAYFTAATMIAPTGVKFSWLATYGGRPFLTFMFLFTGGTGVLNASDAFHDTYYVVHFHYVLSLGAFSLGYYFWPGLYNLFMFNFPLHFLGGMPRRPYPDAGWNSGSSYQLGPDESNEPH'
p500
sg123
F0.020899999999999998
sg124
g125
sg33
S'48'
p501
sg127
g1
(g128
g12
(dp502
g130
I4
sg131
g132
sg133
g134
sg135
g132
sg136
I01
sg34
g137
sg138
g134
sg139
I0
sg140
I0
sg141
I0
sg142
g134
sg35
g143
sg144
I0
stRp503
sg146
g147
sg148
F1
sg149
Nsg30
S'SclavA'
p504
sbag1
(g2
g3
NtRp505
(dp506
g6
g1
(g7
g3
NtRp507
(dp508
g10
g1
(g11
g12
(dtRp509
sg14
g1
(g11
g12
(dtRp510
sg16
g1
(g11
g12
(dtRp511
sg18
g1
(g11
g12
(dtRp512
sg20
g1
(g11
g12
(dtRp513
sg22
g1
(g11
g12
(dtRp514
sbsg24
S'Msp'
p515
sg26
g27
((lp516
g29
ag30
aS'sequence'
p517
ag32
ag33
aS'species'
p518
atRp519
sg37
(lp520
sg120
g471
sg121
S'RWLSTKDLYSRLELPTLNQNVHAMFVMPAGFGNPMGDMLARLNNSFWLVPLSLEGPGTGWTVYPPLSHSGPSVDMVFHMSSSLLGAMNFTNMRGTLFWTALLLLSLPVLAGTLLDRNFNTFEGGDPLYHLFWFFGHPEVYMIPGFGSHSTYKKFGMYASMGLGFVWSHHMYVGLDDRAYFTAATMIAPTGVKFSWLATYGGRPFLTFMFLFTGGTGVLNASDAFHDTYYVVHFHYVLSLGAFSLGYYFWPGLYNLFMFNFPLHFLGGMPRRPYPDAGWNSGSSYQLGPDESNEPH'
p521
sg123
F0.13538
sg124
g125
sg33
S'106'
p522
sg127
g1
(g128
g12
(dp523
g130
I4
sg131
g132
sg133
g134
sg135
g132
sg136
I01
sg34
g137
sg138
g134
sg139
I0
sg140
I0
sg141
I0
sg142
g134
sg35
g143
sg144
I0
stRp524
sg146
g147
sg148
F1
sg149
Nsg30
S'MspicA'
p525
sbasg120
g361
sg123
F0.10536
sg124
g125
sg33
S'83'
p526
sg127
g1
(g128
g12
(dp527
g130
I6
sg131
g132
sg133
g134
sg135
g132
sg136
I01
sg34
g173
sg138
g134
sg139
I0
sg140
I0
sg141
I0
sg142
g134
sg35
g174
sg144
I0
stRp528
sg146
g147
sg148
F0.98999999999999999
sg149
Nsg30
S'NoName'
p529
sbasg120
g289
sg123
F0.03209
sg124
g125
sg33
S'22'
p530
sg127
g1
(g128
g12
(dp531
g130
I6
sg131
g132
sg133
g134
sg135
g132
sg136
I01
sg34
g173
sg138
g134
sg139
I0
sg140
I0
sg141
I0
sg142
g134
sg35
g174
sg144
I0
stRp532
sg146
g147
sg148
F0.98999999999999999
sg149
Nsg30
S'NoName'
p533
sbasg120
g276
sg123
F0.32869999999999999
sg124
g125
sg33
S'66'
p534
sg127
g1
(g128
g12
(dp535
g130
I6
sg131
g132
sg133
g134
sg135
g132
sg136
I01
sg34
g173
sg138
g134
sg139
I0
sg140
I0
sg141
I0
sg142
g134
sg35
g174
sg144
I0
stRp536
sg146
g147
sg148
F0.98999999999999999
sg149
Nsg30
S'NoName'
p537
sbag1
(g2
g3
NtRp538
(dp539
g6
g1
(g7
g3
NtRp540
(dp541
g10
g1
(g11
g12
(dtRp542
sg14
g1
(g11
g12
(dtRp543
sg16
g1
(g11
g12
(dtRp544
sg18
g1
(g11
g12
(dtRp545
sg20
g1
(g11
g12
(dtRp546
sg22
g1
(g11
g12
(dtRp547
sbsg24
g25
sg26
g27
((lp548
g33
ag32
ag29
ag30
atRp549
sg37
(lp550
g1
(g2
g3
NtRp551
(dp552
g6
g1
(g7
g3
NtRp553
(dp554
g10
g1
(g11
g12
(dtRp555
sg14
g1
(g11
g12
(dtRp556
sg16
g1
(g11
g12
(dtRp557
sg18
g1
(g11
g12
(dtRp558
sg20
g1
(g11
g12
(dtRp559
sg22
g1
(g11
g12
(dtRp560
sbsg24
g25
sg26
g27
((lp561
g33
ag32
ag29
ag30
atRp562
sg37
(lp563
g1
(g2
g3
NtRp564
(dp565
g6
g1
(g7
g3
NtRp566
(dp567
g10
g1
(g11
g12
(dtRp568
sg14
g1
(g11
g12
(dtRp569
sg16
g1
(g11
g12
(dtRp570
sg18
g1
(g11
g12
(dtRp571
sg20
g1
(g11
g12
(dtRp572
sg22
g1
(g11
g12
(dtRp573
sbsg24
S'Cze'
p574
sg26
g27
((lp575
g29
ag30
aS'sequence'
p576
ag32
ag33
aS'species'
p577
atRp578
sg37
(lp579
sg120
g551
sg121
S'SWLSTQNLYSRIELPNLNQNVHAMFVMPTGLANPQGDTFPRMNNAFVLLPMSLDGPGSGWTLYPPLTHSGSSMDMAFHLSSSIFGAINLTNMRGPLFWTALMMLALPVLAGTLLDRNFNTFVGGDPLYHIFWFFGHPEVYIIPVFGSQQVYKKFGMYASIGLGFVWSHHMFVGLDDRAYFSGASLIAPTGSKFSWLATYGGRPLLAFMVLFTGGTGVMNSSDMFHDTYYVVHFHYVLSLGVFGVAYYFWPGLYNLFWFNFPLHFLGGLPRRPYPDAGWNSGSSYQFGPDESNEPH'
p580
sg123
F1.5682799999999999
sg124
g125
sg33
S'108'
p581
sg127
g1
(g128
g12
(dp582
g130
I4
sg131
g132
sg133
g134
sg135
g132
sg136
I01
sg34
g137
sg138
g134
sg139
I0
sg140
I0
sg141
I0
sg142
g134
sg35
g143
sg144
I0
stRp583
sg146
g147
sg148
F1
sg149
Nsg30
S'CzempA'
p584
sbag1
(g2
g3
NtRp585
(dp586
g6
g1
(g7
g3
NtRp587
(dp588
g10
g1
(g11
g12
(dtRp589
sg14
g1
(g11
g12
(dtRp590
sg16
g1
(g11
g12
(dtRp591
sg18
g1
(g11
g12
(dtRp592
sg20
g1
(g11
g12
(dtRp593
sg22
g1
(g11
g12
(dtRp594
sbsg24
g25
sg26
g27
((lp595
g33
ag32
ag29
ag30
atRp596
sg37
(lp597
g1
(g2
g3
NtRp598
(dp599
g6
g1
(g7
g3
NtRp600
(dp601
g10
g1
(g11
g12
(dtRp602
sg14
g1
(g11
g12
(dtRp603
sg16
g1
(g11
g12
(dtRp604
sg18
g1
(g11
g12
(dtRp605
sg20
g1
(g11
g12
(dtRp606
sg22
g1
(g11
g12
(dtRp607
sbsg24
S'Csa'
p608
sg26
g27
((lp609
g29
ag30
aS'sequence'
p610
ag32
ag33
aS'species'
p611
atRp612
sg37
(lp613
sg120
g585
sg121
S'----------RLELPNLNQNVHAMFVMPSGFGNPMGDMLARLNNSFWLVPLSLDGPGTGWTMYPPLSHSGASVDLVFHISSSLLGAMNFTNMRGTLFWTALLLLSLPVLSGTLLDRNFNTFEGGDMLYHMFWFFGHPEVYMMPGFGSQSVYKKFGMYASMGLGFVWSHHMFVGLDDRAYFTAATLMAPTGVKFSWLASYGGRPLLAFMFLFTGGTGVLNASDAFHDTYYVVHFHYVLSLGAFSLGYYFWPGLYNLFWFNFPQHFLGAMPRRPYPDAGWNSGSSYQMGPDFSNEPH'
p614
sg123
F0.65920000000000001
sg124
g125
sg33
S'88'
p615
sg127
g1
(g128
g12
(dp616
g130
I4
sg131
g132
sg133
g134
sg135
g132
sg136
I01
sg34
g137
sg138
g134
sg139
I0
sg140
I0
sg141
I0
sg142
g134
sg35
g143
sg144
I0
stRp617
sg146
g147
sg148
F1
sg149
Nsg30
S'CsantA'
p618
sbag1
(g2
g3
NtRp619
(dp620
g6
g1
(g7
g3
NtRp621
(dp622
g10
g1
(g11
g12
(dtRp623
sg14
g1
(g11
g12
(dtRp624
sg16
g1
(g11
g12
(dtRp625
sg18
g1
(g11
g12
(dtRp626
sg20
g1
(g11
g12
(dtRp627
sg22
g1
(g11
g12
(dtRp628
sbsg24
S'Csa'
p629
sg26
g27
((lp630
g29
ag30
aS'sequence'
p631
ag32
ag33
aS'species'
p632
atRp633
sg37
(lp634
sg120
g585
sg121
S'RWLSTKDLYSRLELPAMSQNVHAMFVMPSGFANPMGDTLPRVNNAAILMPMSLEGPGTGWTVYPPLSHSGVSVDLVFHISSSLAGAMNLTNMRGPLFWTALLLLSLPVLAGTLIDRNFNTFDGGDVLYHLFWFFGHPEVYIIPGFGSESRYNKFGMYASIGLGFVWSHHMYVGLDDRSYFTAATLIAPTGVKFSWMATFGGRPFLTFLALFTGGTGVLNASDAFHDTYYVVHFHYVLSLGAFSMGYYYWPGLYNLFWFNFPQHFLGGQPRRSYPDAGWNSGSSYQLGPDESNEPH'
p635
sg123
F1.3581099999999999
sg124
g125
sg33
S'7'
sg127
g1
(g128
g12
(dp636
g130
I4
sg131
g132
sg133
g134
sg135
g132
sg136
I01
sg34
g137
sg138
g134
sg139
I0
sg140
I0
sg141
I0
sg142
g134
sg35
g143
sg144
I0
stRp637
sg146
g147
sg148
F1
sg149
Nsg30
S'CsalmA'
p638
sbasg120
g551
sg123
F0.19968
sg124
g125
sg33
S'102'
p639
sg127
g1
(g128
g12
(dp640
g130
I6
sg131
g132
sg133
g134
sg135
g132
sg136
I01
sg34
g173
sg138
g134
sg139
I0
sg140
I0
sg141
I0
sg142
g134
sg35
g174
sg144
I0
stRp641
sg146
g147
sg148
F0.97999999999999998
sg149
Nsg30
S'NoName'
p642
sbasg120
g538
sg123
F0.14363999999999999
sg124
g125
sg33
S'89'
p643
sg127
g1
(g128
g12
(dp644
g130
I6
sg131
g132
sg133
g134
sg135
g132
sg136
I01
sg34
g173
sg138
g134
sg139
I0
sg140
I0
sg141
I0
sg142
g134
sg35
g174
sg144
I0
stRp645
sg146
g147
sg148
F0.93000000000000005
sg149
Nsg30
S'NoName'
p646
sbag1
(g2
g3
NtRp647
(dp648
g6
g1
(g7
g3
NtRp649
(dp650
g10
g1
(g11
g12
(dtRp651
sg14
g1
(g11
g12
(dtRp652
sg16
g1
(g11
g12
(dtRp653
sg18
g1
(g11
g12
(dtRp654
sg20
g1
(g11
g12
(dtRp655
sg22
g1
(g11
g12
(dtRp656
sbsg24
S'Bar'
p657
sg26
g27
((lp658
g29
ag30
aS'sequence'
p659
ag32
ag33
aS'species'
p660
atRp661
sg37
(lp662
sg120
g538
sg121
S'RWLSTKDLYSRLELPNLNQNSHAMFVMPTGFGNPMGDMLSRLNNSFWLVPLSLEGPGTGWTVYPPLSHSGPSVDLVFHVSSSLLGAMNFTNMRGTLFWTVLLLLALPVLAGTLLDRNFNTFEGGDPLYHMFWFFGHPEVYIIPGFGSQAVYNKFGMYASIGLGFVWSHHMYVGMDDRAYFTAATLIAPTGVKFSWLASYGGRPLLTFIGLFTGGTGVLNAADAFHDSYYVVHFHYVLSLGAFSLGYYFWPGLYNLFWFNFPQHFLGSMPRRPYPDAGWNSGSSVQLGPDVNNEPH'
p663
sg123
F0.74575000000000002
sg124
g125
sg33
S'60'
p664
sg127
g1
(g128
g12
(dp665
g130
I4
sg131
g132
sg133
g134
sg135
g132
sg136
I01
sg34
g137
sg138
g134
sg139
I0
sg140
I0
sg141
I0
sg142
g134
sg35
g143
sg144
I0
stRp666
sg146
g147
sg148
F1
sg149
Nsg30
S'BarxA'
p667
sbasg120
g276
sg123
F0.25233
sg124
g125
sg33
S'103'
p668
sg127
g1
(g128
g12
(dp669
g130
I6
sg131
g132
sg133
g134
sg135
g132
sg136
I01
sg34
g173
sg138
g134
sg139
I0
sg140
I0
sg141
I0
sg142
g134
sg35
g174
sg144
I0
stRp670
sg146
g147
sg148
F0.97999999999999998
sg149
Nsg30
S'NoName'
p671
sbasg120
g263
sg123
F0.42224
sg124
g125
sg33
S'73'
p672
sg127
g1
(g128
g12
(dp673
g130
I6
sg131
g132
sg133
g134
sg135
g132
sg136
I01
sg34
g173
sg138
g134
sg139
I0
sg140
I0
sg141
I0
sg142
g134
sg35
g174
sg144
I0
stRp674
sg146
g147
sg148
F0.97999999999999998
sg149
Nsg30
S'NoName'
p675
sbag1
(g2
g3
NtRp676
(dp677
g6
g1
(g7
g3
NtRp678
(dp679
g10
g1
(g11
g12
(dtRp680
sg14
g1
(g11
g12
(dtRp681
sg16
g1
(g11
g12
(dtRp682
sg18
g1
(g11
g12
(dtRp683
sg20
g1
(g11
g12
(dtRp684
sg22
g1
(g11
g12
(dtRp685
sbsg24
g25
sg26
g27
((lp686
g33
ag32
ag29
ag30
atRp687
sg37
(lp688
g1
(g2
g3
NtRp689
(dp690
g6
g1
(g7
g3
NtRp691
(dp692
g10
g1
(g11
g12
(dtRp693
sg14
g1
(g11
g12
(dtRp694
sg16
g1
(g11
g12
(dtRp695
sg18
g1
(g11
g12
(dtRp696
sg20
g1
(g11
g12
(dtRp697
sg22
g1
(g11
g12
(dtRp698
sbsg24
g25
sg26
g27
((lp699
g33
ag32
ag29
ag30
atRp700
sg37
(lp701
g1
(g2
g3
NtRp702
(dp703
g6
g1
(g7
g3
NtRp704
(dp705
g10
g1
(g11
g12
(dtRp706
sg14
g1
(g11
g12
(dtRp707
sg16
g1
(g11
g12
(dtRp708
sg18
g1
(g11
g12
(dtRp709
sg20
g1
(g11
g12
(dtRp710
sg22
g1
(g11
g12
(dtRp711
sbsg24
g25
sg26
g27
((lp712
g33
ag32
ag29
ag30
atRp713
sg37
(lp714
g1
(g2
g3
NtRp715
(dp716
g6
g1
(g7
g3
NtRp717
(dp718
g10
g1
(g11
g12
(dtRp719
sg14
g1
(g11
g12
(dtRp720
sg16
g1
(g11
g12
(dtRp721
sg18
g1
(g11
g12
(dtRp722
sg20
g1
(g11
g12
(dtRp723
sg22
g1
(g11
g12
(dtRp724
sbsg24
g25
sg26
g27
((lp725
g33
ag32
ag29
ag30
atRp726
sg37
(lp727
g1
(g2
g3
NtRp728
(dp729
g6
g1
(g7
g3
NtRp730
(dp731
g10
g1
(g11
g12
(dtRp732
sg14
g1
(g11
g12
(dtRp733
sg16
g1
(g11
g12
(dtRp734
sg18
g1
(g11
g12
(dtRp735
sg20
g1
(g11
g12
(dtRp736
sg22
g1
(g11
g12
(dtRp737
sbsg24
S'Mfa'
p738
sg26
g27
((lp739
g29
ag30
aS'sequence'
p740
ag32
ag33
aS'species'
p741
atRp742
sg37
(lp743
sg120
g715
sg121
S'RWLSTKDLYSRLELGNLNQNVHAMFVMPLGFGNPLGDMFARLNNSFWLPPLSLEGAGTGWTVYPPLSHSGPSVDLAFHLTSSLLGAINFTNMRGPLFWTALLLLSLPVLAGTLLDRNFNTFEGGDPLYHLFWFFGHPEVYIIPGFGSHSTYKKFGMYASIGLGFVWSHHMYVGLDDRAYFTSATMIAPTGIKFSWLATYGGRPMLAFLFLFTGGTGVLNASDAFHDTYFVVHFHYVLSMGAFSLAYYYWPGLYNLFWFNFPMHFLGGMPRRPYPDAGWNSGSSYQMGPDESNEPH'
p744
sg123
F0.14163999999999999
sg124
g125
sg33
S'54'
p745
sg127
g1
(g128
g12
(dp746
g130
I4
sg131
g132
sg133
g134
sg135
g132
sg136
I01
sg34
g137
sg138
g134
sg139
I0
sg140
I0
sg141
I0
sg142
g134
sg35
g143
sg144
I0
stRp747
sg146
g147
sg148
F1
sg149
Nsg30
S'MfariB'
p748
sbag1
(g2
g3
NtRp749
(dp750
g6
g1
(g7
g3
NtRp751
(dp752
g10
g1
(g11
g12
(dtRp753
sg14
g1
(g11
g12
(dtRp754
sg16
g1
(g11
g12
(dtRp755
sg18
g1
(g11
g12
(dtRp756
sg20
g1
(g11
g12
(dtRp757
sg22
g1
(g11
g12
(dtRp758
sbsg24
S'Csa'
p759
sg26
g27
((lp760
g29
ag30
aS'sequence'
p761
ag32
ag33
aS'species'
p762
atRp763
sg37
(lp764
sg120
g715
sg121
S'RWLSTKDLYSRLELGNFNQNVHAMFVMPLGFGNPLGDMFARLNNSFWLPPLSLEGAGTGWTVYPPLSHSGPSVDLAFHLTSSLLGAINFTNMRGPLFWTALLLLSLPVLAATLLDRNFNTFEGGDPLYHLFWFFGHPEVYIIPGFGSHSTYKKFGMYASMGLGFVWSHHMYVGLDDRAYFTSATMIAPTGMKFSWLATYGGRPMLAFLFLFTGGTGVLNASDAFHDTYYVVHFHYVLSMGAFSLAYYYWPGLYNWFWFNFPMHFLGGMPRRPYPDAGWNSGSSYQMGPDESNEPH'
p765
sg123
F0.069970000000000004
sg124
g125
sg33
S'56'
p766
sg127
g1
(g128
g12
(dp767
g130
I4
sg131
g132
sg133
g134
sg135
g132
sg136
I01
sg34
g137
sg138
g134
sg139
I0
sg140
I0
sg141
I0
sg142
g134
sg35
g143
sg144
I0
stRp768
sg146
g147
sg148
F1
sg149
Nsg30
S'CsakeA'
p769
sbasg120
g702
sg123
F0.048980000000000003
sg124
g125
sg33
S'99'
p770
sg127
g1
(g128
g12
(dp771
g130
I6
sg131
g132
sg133
g134
sg135
g132
sg136
I01
sg34
g173
sg138
g134
sg139
I0
sg140
I0
sg141
I0
sg142
g134
sg35
g174
sg144
I0
stRp772
sg146
g147
sg148
F0.98999999999999999
sg149
Nsg30
S'NoName'
p773
sbag1
(g2
g3
NtRp774
(dp775
g6
g1
(g7
g3
NtRp776
(dp777
g10
g1
(g11
g12
(dtRp778
sg14
g1
(g11
g12
(dtRp779
sg16
g1
(g11
g12
(dtRp780
sg18
g1
(g11
g12
(dtRp781
sg20
g1
(g11
g12
(dtRp782
sg22
g1
(g11
g12
(dtRp783
sbsg24
g25
sg26
g27
((lp784
g33
ag32
ag29
ag30
atRp785
sg37
(lp786
g1
(g2
g3
NtRp787
(dp788
g6
g1
(g7
g3
NtRp789
(dp790
g10
g1
(g11
g12
(dtRp791
sg14
g1
(g11
g12
(dtRp792
sg16
g1
(g11
g12
(dtRp793
sg18
g1
(g11
g12
(dtRp794
sg20
g1
(g11
g12
(dtRp795
sg22
g1
(g11
g12
(dtRp796
sbsg24
g25
sg26
g27
((lp797
g33
ag32
ag29
ag30
atRp798
sg37
(lp799
g1
(g2
g3
NtRp800
(dp801
g6
g1
(g7
g3
NtRp802
(dp803
g10
g1
(g11
g12
(dtRp804
sg14
g1
(g11
g12
(dtRp805
sg16
g1
(g11
g12
(dtRp806
sg18
g1
(g11
g12
(dtRp807
sg20
g1
(g11
g12
(dtRp808
sg22
g1
(g11
g12
(dtRp809
sbsg24
S'Mfa'
p810
sg26
g27
((lp811
g29
ag30
aS'sequence'
p812
ag32
ag33
aS'species'
p813
atRp814
sg37
(lp815
sg120
g787
sg121
S'RWLSTKDLYSRAELGNFNHNVHAMFVMPLGFGNPMGDMFARLNNSFWLPPLSLEGAGTGWTVYPPLSHSGPSVDLAFHLTSSLLGAMNFTNMRGPLFWTALLLLSLPVLAGTLLDRNFNTFEGGDPLYHLFWFFGHPEVYIIPGFGSHSTYKKFGMYASMGLGFVWSHHMYVGLDDRAYFTSATMMAPTGIKFSWLATYGGRPMLAFLFLFTGGTGVLNASDAFHDTYYMYHFHYVLSMGAFSLGYYYWPGLYNWFWFNFPMHFLGGMPRRPYPDAGWNSGSSKQLGPDESNEPH'
p816
sg123
F0.29086000000000001
sg124
g125
sg33
S'87'
p817
sg127
g1
(g128
g12
(dp818
g130
I4
sg131
g132
sg133
g134
sg135
g132
sg136
I01
sg34
g137
sg138
g134
sg139
I0
sg140
I0
sg141
I0
sg142
g134
sg35
g143
sg144
I0
stRp819
sg146
g147
sg148
F1
sg149
Nsg30
S'MfariA'
p820
sbag1
(g2
g3
NtRp821
(dp822
g6
g1
(g7
g3
NtRp823
(dp824
g10
g1
(g11
g12
(dtRp825
sg14
g1
(g11
g12
(dtRp826
sg16
g1
(g11
g12
(dtRp827
sg18
g1
(g11
g12
(dtRp828
sg20
g1
(g11
g12
(dtRp829
sg22
g1
(g11
g12
(dtRp830
sbsg24
S'Dha'
p831
sg26
g27
((lp832
g29
ag30
aS'sequence'
p833
ag32
ag33
aS'species'
p834
atRp835
sg37
(lp836
sg120
g787
sg121
S'RWLSTKDLYSRMELGNFNQNVHAMFIMPWGFGNPLGDMFARLNNSFWLPPLSLEGAGTGWTLYPPLSHSGPSVDLAFHLTSSLLGAMNFTNMRGPLFWTALLLLSLPVLAATLLDRNFNTFEGGDPLYHLFWFFGHPEVYIMPGFGSHSTYKKFGMYASIGLGFVWSHHMFVGLDDRAYFTSATMIAPTGIKFSWLATYGGRPMLAFLFLFTGGTGVLNASDAFHDTYYVVHFHYVLSMGAFSLAYYYWPGLYNLFWFNFPMHFLGGMPRRPYPDAGWNSGSSKQLGPDESNDPH'
p837
sg123
F0.11043
sg124
g125
sg33
S'130'
p838
sg127
g1
(g128
g12
(dp839
g130
I4
sg131
g132
sg133
g134
sg135
g132
sg136
I01
sg34
g137
sg138
g134
sg139
I0
sg140
I0
sg141
I0
sg142
g134
sg35
g143
sg144
I0
stRp840
sg146
g147
sg148
F1
sg149
Nsg30
S'DhansA'
p841
sbasg120
g774
sg123
F0.046699999999999998
sg124
g125
sg33
S'41'
p842
sg127
g1
(g128
g12
(dp843
g130
I6
sg131
g132
sg133
g134
sg135
g132
sg136
I01
sg34
g173
sg138
g134
sg139
I0
sg140
I0
sg141
I0
sg142
g134
sg35
g174
sg144
I0
stRp844
sg146
g147
sg148
F0.65000000000000002
sg149
Nsg30
S'NoName'
p845
sbag1
(g2
g3
NtRp846
(dp847
g6
g1
(g7
g3
NtRp848
(dp849
g10
g1
(g11
g12
(dtRp850
sg14
g1
(g11
g12
(dtRp851
sg16
g1
(g11
g12
(dtRp852
sg18
g1
(g11
g12
(dtRp853
sg20
g1
(g11
g12
(dtRp854
sg22
g1
(g11
g12
(dtRp855
sbsg24
g25
sg26
g27
((lp856
g33
ag32
ag29
ag30
atRp857
sg37
(lp858
g1
(g2
g3
NtRp859
(dp860
g6
g1
(g7
g3
NtRp861
(dp862
g10
g1
(g11
g12
(dtRp863
sg14
g1
(g11
g12
(dtRp864
sg16
g1
(g11
g12
(dtRp865
sg18
g1
(g11
g12
(dtRp866
sg20
g1
(g11
g12
(dtRp867
sg22
g1
(g11
g12
(dtRp868
sbsg24
S'Clu'
p869
sg26
g27
((lp870
g29
ag30
aS'sequence'
p871
ag32
ag33
aS'species'
p872
atRp873
sg37
(lp874
sg120
g846
sg121
S'RWLSTKDLYSRLELPDLNQNVHAMFVMPLGFGNPMGDMFARLNNSFWLPPLSLEGAGTGWTVYPPLSHSGPSVDLAFHLTSSLLGAINFTNMRGPLFWTALLLLSLPVLAGTLLDRNFNTFEGGDPLYHLFWFFGHPEVYMMPGFGSHSTYKKFGMYASMGLGFVWSHHMYVGLDDRAYFTSATMMAPTGMKFSWLATYGGRPMLAFLFLFTGGTGVLNASDAFHDTYYVVHFHYVLSMGAFSLGYYYWPGLYNWFWFNFPMHFLGGMPRRPYPDAGWNSGSSRQLGPDESNEPH'
p875
sg123
F0.037310000000000003
sg124
g125
sg33
S'112'
p876
sg127
g1
(g128
g12
(dp877
g130
I4
sg131
g132
sg133
g134
sg135
g132
sg136
I01
sg34
g137
sg138
g134
sg139
I0
sg140
I0
sg141
I0
sg142
g134
sg35
g143
sg144
I0
stRp878
sg146
g147
sg148
F1
sg149
Nsg30
S'ClusiA'
p879
sbag1
(g2
g3
NtRp880
(dp881
g6
g1
(g7
g3
NtRp882
(dp883
g10
g1
(g11
g12
(dtRp884
sg14
g1
(g11
g12
(dtRp885
sg16
g1
(g11
g12
(dtRp886
sg18
g1
(g11
g12
(dtRp887
sg20
g1
(g11
g12
(dtRp888
sg22
g1
(g11
g12
(dtRp889
sbsg24
g25
sg26
g27
((lp890
g33
ag32
ag29
ag30
atRp891
sg37
(lp892
g1
(g2
g3
NtRp893
(dp894
g6
g1
(g7
g3
NtRp895
(dp896
g10
g1
(g11
g12
(dtRp897
sg14
g1
(g11
g12
(dtRp898
sg16
g1
(g11
g12
(dtRp899
sg18
g1
(g11
g12
(dtRp900
sg20
g1
(g11
g12
(dtRp901
sg22
g1
(g11
g12
(dtRp902
sbsg24
S'Mgu'
p903
sg26
g27
((lp904
g29
ag30
aS'sequence'
p905
ag32
ag33
aS'species'
p906
atRp907
sg37
(lp908
sg120
g880
sg121
S'---------------------------------------------------------------------------------------------------------------------------------------------------------------------------------------------------------------------------------------HFHYVLSMGAFSLGYYYWPGLYNWFWFNFPMHFLGGMPRRPYPDAGWNSGSSKQLGPDESNEPH'
p909
sg123
F0.0044999999999999997
sg124
g125
sg33
S'164'
p910
sg127
g1
(g128
g12
(dp911
g130
I4
sg131
g132
sg133
g134
sg135
g132
sg136
I01
sg34
g137
sg138
g134
sg139
I0
sg140
I0
sg141
I0
sg142
g134
sg35
g143
sg144
I0
stRp912
sg146
g147
sg148
F1
sg149
Nsg30
S'MguilB'
p913
sbag1
(g2
g3
NtRp914
(dp915
g6
g1
(g7
g3
NtRp916
(dp917
g10
g1
(g11
g12
(dtRp918
sg14
g1
(g11
g12
(dtRp919
sg16
g1
(g11
g12
(dtRp920
sg18
g1
(g11
g12
(dtRp921
sg20
g1
(g11
g12
(dtRp922
sg22
g1
(g11
g12
(dtRp923
sbsg24
S'Mgu'
p924
sg26
g27
((lp925
g29
ag30
aS'sequence'
p926
ag32
ag33
aS'species'
p927
atRp928
sg37
(lp929
sg120
g880
sg121
S'RWLSTKDLYSRMELGNFNQNVHAMFVMPIGFGNPMGDMFARLNNSFWLPPLSLEGAGTGWTVYPPLSHSGPSVDMAFHLTSSLLGAMNFTNMRGPLFWTALLLLSLPVLAGTLLDRNFNTFEGGDPLYHLFWFFGHPEVYMMPGFGSHSTYKKFGMYASIGLGFVWSHHMYVGLDDRAYFTSATMMAPTGMKFSWLSTYGGRPMLAFLFLFTGGTGVLNASDAFHDTYYVVHFHYVLSMGAFSLGYYYWPGLYNWFWFNFPMHFLGGMPRRPYPDAGWNSGSSKQLGPDESNEPH'
p930
sg123
F0.0020100000000000001
sg124
g125
sg33
S'12'
p931
sg127
g1
(g128
g12
(dp932
g130
I4
sg131
g132
sg133
g134
sg135
g132
sg136
I01
sg34
g137
sg138
g134
sg139
I0
sg140
I0
sg141
I0
sg142
g134
sg35
g143
sg144
I0
stRp933
sg146
g147
sg148
F1
sg149
Nsg30
S'MguilA'
p934
sbasg120
g846
sg123
F0.25231999999999999
sg124
g125
sg33
S'137'
p935
sg127
g1
(g128
g12
(dp936
g130
I6
sg131
g132
sg133
g134
sg135
g132
sg136
I01
sg34
g173
sg138
g134
sg139
I0
sg140
I0
sg141
I0
sg142
g134
sg35
g174
sg144
I0
stRp937
sg146
g147
sg148
F0.98999999999999999
sg149
Nsg30
S'NoName'
p938
sbasg120
g774
sg123
F0.090679999999999997
sg124
g125
sg33
S'45'
p939
sg127
g1
(g128
g12
(dp940
g130
I6
sg131
g132
sg133
g134
sg135
g132
sg136
I01
sg34
g173
sg138
g134
sg139
I0
sg140
I0
sg141
I0
sg142
g134
sg35
g174
sg144
I0
stRp941
sg146
g147
sg148
F0.98999999999999999
sg149
Nsg30
S'NoName'
p942
sbasg120
g702
sg123
F0.032190000000000003
sg124
g125
sg33
S'111'
p943
sg127
g1
(g128
g12
(dp944
g130
I6
sg131
g132
sg133
g134
sg135
g132
sg136
I01
sg34
g173
sg138
g134
sg139
I0
sg140
I0
sg141
I0
sg142
g134
sg35
g174
sg144
I0
stRp945
sg146
g147
sg148
F0.64000000000000001
sg149
Nsg30
S'NoName'
p946
sbasg120
g689
sg123
F0.12181
sg124
g125
sg33
S'68'
p947
sg127
g1
(g128
g12
(dp948
g130
I6
sg131
g132
sg133
g134
sg135
g132
sg136
I01
sg34
g173
sg138
g134
sg139
I0
sg140
I0
sg141
I0
sg142
g134
sg35
g174
sg144
I0
stRp949
sg146
g147
sg148
F0.98999999999999999
sg149
Nsg30
S'NoName'
p950
sbag1
(g2
g3
NtRp951
(dp952
g6
g1
(g7
g3
NtRp953
(dp954
g10
g1
(g11
g12
(dtRp955
sg14
g1
(g11
g12
(dtRp956
sg16
g1
(g11
g12
(dtRp957
sg18
g1
(g11
g12
(dtRp958
sg20
g1
(g11
g12
(dtRp959
sg22
g1
(g11
g12
(dtRp960
sbsg24
g25
sg26
g27
((lp961
g33
ag32
ag29
ag30
atRp962
sg37
(lp963
g1
(g2
g3
NtRp964
(dp965
g6
g1
(g7
g3
NtRp966
(dp967
g10
g1
(g11
g12
(dtRp968
sg14
g1
(g11
g12
(dtRp969
sg16
g1
(g11
g12
(dtRp970
sg18
g1
(g11
g12
(dtRp971
sg20
g1
(g11
g12
(dtRp972
sg22
g1
(g11
g12
(dtRp973
sbsg24
g25
sg26
g27
((lp974
g33
ag32
ag29
ag30
atRp975
sg37
(lp976
g1
(g2
g3
NtRp977
(dp978
g6
g1
(g7
g3
NtRp979
(dp980
g10
g1
(g11
g12
(dtRp981
sg14
g1
(g11
g12
(dtRp982
sg16
g1
(g11
g12
(dtRp983
sg18
g1
(g11
g12
(dtRp984
sg20
g1
(g11
g12
(dtRp985
sg22
g1
(g11
g12
(dtRp986
sbsg24
S'Cbl'
p987
sg26
g27
((lp988
g29
ag30
aS'sequence'
p989
ag32
ag33
aS'species'
p990
atRp991
sg37
(lp992
sg120
g964
sg121
S'RWLSTKDLYSRLELANLNQNVHAMFVMPLGMGNPMGDMFARLNNSFWLPPLSLEGPGTGWTLYAPLSHSGPSVDMAFHLTSSLLGAINFTNMRGPLYWTALLLLSLPVLAATLLDRNFNTFEGGDPLYHLFWFFGHPEVYMIPGFGSHSTYKKFGMYASIGLGFVWSHHMYVGLDDRAYFTSATMIAPTGIKFSWMATYGGRPMLAFLFLFTGGTGVLNASDAFHDTYYVVHFHYVLSMGAFSLGYYYWPGLYNLFWFNFPMHFLGGMPRRPYPDAGWNSGSSYQLGPDESNEPH'
p993
sg123
F0.36785000000000001
sg124
g125
sg33
S'20'
p994
sg127
g1
(g128
g12
(dp995
g130
I4
sg131
g132
sg133
g134
sg135
g132
sg136
I01
sg34
g137
sg138
g134
sg139
I0
sg140
I0
sg141
I0
sg142
g134
sg35
g143
sg144
I0
stRp996
sg146
g147
sg148
F1
sg149
Nsg30
S'CblacA'
p997
sbag1
(g2
g3
NtRp998
(dp999
g6
g1
(g7
g3
NtRp1000
(dp1001
g10
g1
(g11
g12
(dtRp1002
sg14
g1
(g11
g12
(dtRp1003
sg16
g1
(g11
g12
(dtRp1004
sg18
g1
(g11
g12
(dtRp1005
sg20
g1
(g11
g12
(dtRp1006
sg22
g1
(g11
g12
(dtRp1007
sbsg24
g25
sg26
g27
((lp1008
g33
ag32
ag29
ag30
atRp1009
sg37
(lp1010
g1
(g2
g3
NtRp1011
(dp1012
g6
g1
(g7
g3
NtRp1013
(dp1014
g10
g1
(g11
g12
(dtRp1015
sg14
g1
(g11
g12
(dtRp1016
sg16
g1
(g11
g12
(dtRp1017
sg18
g1
(g11
g12
(dtRp1018
sg20
g1
(g11
g12
(dtRp1019
sg22
g1
(g11
g12
(dtRp1020
sbsg24
g25
sg26
g27
((lp1021
g33
ag32
ag29
ag30
atRp1022
sg37
(lp1023
g1
(g2
g3
NtRp1024
(dp1025
g6
g1
(g7
g3
NtRp1026
(dp1027
g10
g1
(g11
g12
(dtRp1028
sg14
g1
(g11
g12
(dtRp1029
sg16
g1
(g11
g12
(dtRp1030
sg18
g1
(g11
g12
(dtRp1031
sg20
g1
(g11
g12
(dtRp1032
sg22
g1
(g11
g12
(dtRp1033
sbsg24
g25
sg26
g27
((lp1034
g33
ag32
ag29
ag30
atRp1035
sg37
(lp1036
g1
(g2
g3
NtRp1037
(dp1038
g6
g1
(g7
g3
NtRp1039
(dp1040
g10
g1
(g11
g12
(dtRp1041
sg14
g1
(g11
g12
(dtRp1042
sg16
g1
(g11
g12
(dtRp1043
sg18
g1
(g11
g12
(dtRp1044
sg20
g1
(g11
g12
(dtRp1045
sg22
g1
(g11
g12
(dtRp1046
sbsg24
g25
sg26
g27
((lp1047
g33
ag32
ag29
ag30
atRp1048
sg37
(lp1049
g1
(g2
g3
NtRp1050
(dp1051
g6
g1
(g7
g3
NtRp1052
(dp1053
g10
g1
(g11
g12
(dtRp1054
sg14
g1
(g11
g12
(dtRp1055
sg16
g1
(g11
g12
(dtRp1056
sg18
g1
(g11
g12
(dtRp1057
sg20
g1
(g11
g12
(dtRp1058
sg22
g1
(g11
g12
(dtRp1059
sbsg24
S'Lel'
p1060
sg26
g27
((lp1061
g29
ag30
aS'sequence'
p1062
ag32
ag33
aS'species'
p1063
atRp1064
sg37
(lp1065
sg120
g1037
sg121
S'RWLSTKDLYSRLELPGLDQNVHAMFVMPLGFGNPMGDMFARLNNSFWLPPLSLEGAGTGWTVYPPLSHSGPSVDLAFHLTSSLLGAINFTNMRGPLYWTALLLFSLPVLAGTLLDRNFNTFDGGDPLYHLFWFFGHPEVYIIPGFGSHSTYKKFGMYASIGLGFVWSHHMYVGLDDRAYFTSATMIAPTGIKFSWLATYGGRPMLAFLFLFTGGTGVLNASDAFHDTYYTVHFHYVLSMGAFSLGYYYWYGLYNLFWFNFPMHFLGGMPRRPYPDAGWNSGSSYQLGPDESNEPH'
p1066
sg123
F0.18278
sg124
g125
sg33
S'67'
p1067
sg127
g1
(g128
g12
(dp1068
g130
I4
sg131
g132
sg133
g134
sg135
g132
sg136
I01
sg34
g137
sg138
g134
sg139
I0
sg140
I0
sg141
I0
sg142
g134
sg35
g143
sg144
I0
stRp1069
sg146
g147
sg148
F1
sg149
Nsg30
S'LelonA'
p1070
sbag1
(g2
g3
NtRp1071
(dp1072
g6
g1
(g7
g3
NtRp1073
(dp1074
g10
g1
(g11
g12
(dtRp1075
sg14
g1
(g11
g12
(dtRp1076
sg16
g1
(g11
g12
(dtRp1077
sg18
g1
(g11
g12
(dtRp1078
sg20
g1
(g11
g12
(dtRp1079
sg22
g1
(g11
g12
(dtRp1080
sbsg24
S'Cox'
p1081
sg26
g27
((lp1082
g29
ag30
aS'sequence'
p1083
ag32
ag33
aS'species'
p1084
atRp1085
sg37
(lp1086
sg120
g1037
sg121
S'RWLSTKDLYSRLELSGLDQNVHAMFVMPIGFGNPMGDMFARLNNSFWLPPLSLEGPGVGWTVYPPLSHSGPSVDLAFHLTSSLLGAINFTNMRGPLYWTALLLLSLPVLAGTLLDRNFNTFDGGDPLYHLFWFFGHPEVYMIPGFGSHATYKKFGMYASIGLGFVWSHHMYVGLDDRAYFTSATMIAPTGIKFSWLATYGGRPMLAFLFLFTGGTGILNASDAFHDTYYTVHFHYVLSMGAFSLGYYLWYGLYNIFWFNFPMHFLGGMPRRPYPDAGWNSGSSYQLGPDESNEPH'
p1087
sg123
F0.17860000000000001
sg124
g125
sg33
S'189'
p1088
sg127
g1
(g128
g12
(dp1089
g130
I4
sg131
g132
sg133
g134
sg135
g132
sg136
I01
sg34
g137
sg138
g134
sg139
I0
sg140
I0
sg141
I0
sg142
g134
sg35
g143
sg144
I0
stRp1090
sg146
g147
sg148
F1
sg149
Nsg30
S'CoxycA'
p1091
sbasg120
g1024
sg123
F0.041480000000000003
sg124
g125
sg33
S'24'
p1092
sg127
g1
(g128
g12
(dp1093
g130
I6
sg131
g132
sg133
g134
sg135
g132
sg136
I01
sg34
g173
sg138
g134
sg139
I0
sg140
I0
sg141
I0
sg142
g134
sg35
g174
sg144
I0
stRp1094
sg146
g147
sg148
F0.98999999999999999
sg149
Nsg30
S'NoName'
p1095
sbag1
(g2
g3
NtRp1096
(dp1097
g6
g1
(g7
g3
NtRp1098
(dp1099
g10
g1
(g11
g12
(dtRp1100
sg14
g1
(g11
g12
(dtRp1101
sg16
g1
(g11
g12
(dtRp1102
sg18
g1
(g11
g12
(dtRp1103
sg20
g1
(g11
g12
(dtRp1104
sg22
g1
(g11
g12
(dtRp1105
sbsg24
g25
sg26
g27
((lp1106
g33
ag32
ag29
ag30
atRp1107
sg37
(lp1108
g1
(g2
g3
NtRp1109
(dp1110
g6
g1
(g7
g3
NtRp1111
(dp1112
g10
g1
(g11
g12
(dtRp1113
sg14
g1
(g11
g12
(dtRp1114
sg16
g1
(g11
g12
(dtRp1115
sg18
g1
(g11
g12
(dtRp1116
sg20
g1
(g11
g12
(dtRp1117
sg22
g1
(g11
g12
(dtRp1118
sbsg24
g25
sg26
g27
((lp1119
g33
ag32
ag29
ag30
atRp1120
sg37
(lp1121
g1
(g2
g3
NtRp1122
(dp1123
g6
g1
(g7
g3
NtRp1124
(dp1125
g10
g1
(g11
g12
(dtRp1126
sg14
g1
(g11
g12
(dtRp1127
sg16
g1
(g11
g12
(dtRp1128
sg18
g1
(g11
g12
(dtRp1129
sg20
g1
(g11
g12
(dtRp1130
sg22
g1
(g11
g12
(dtRp1131
sbsg24
g25
sg26
g27
((lp1132
g33
ag32
ag29
ag30
atRp1133
sg37
(lp1134
g1
(g2
g3
NtRp1135
(dp1136
g6
g1
(g7
g3
NtRp1137
(dp1138
g10
g1
(g11
g12
(dtRp1139
sg14
g1
(g11
g12
(dtRp1140
sg16
g1
(g11
g12
(dtRp1141
sg18
g1
(g11
g12
(dtRp1142
sg20
g1
(g11
g12
(dtRp1143
sg22
g1
(g11
g12
(dtRp1144
sbsg24
S'Cth'
p1145
sg26
g27
((lp1146
g29
ag30
aS'sequence'
p1147
ag32
ag33
aS'species'
p1148
atRp1149
sg37
(lp1150
sg120
g1122
sg121
S'RWLSTKDLYSRLELPGLNQNVHAMFVMPLGFGNPMGDMFARLNNSFWLPPLSLEGAGTGWTVYPPLSHSGPSVDLAFHLTSSLLGAINFTNMRGPLYWTALLLLSLPVLAGTLLDRNFNTFEGGDPLYHLFWFFGHPEVYIIPGFGSHSTYKKFGMYASIGLGFVWSHHMYVGLDDRAYFTSATMIAPTGIKFSWLATYGGRPMLAFLFLFTGGTGVLNASDAFHDTYYTVHFHYVLSMGAFSLGYYYWYGLYNLFWFNFPMHFLGGMPRRPYPDAGWNSGSSYQLGPDESNEPH'
p1151
sg123
F0.010059999999999999
sg124
g125
sg33
S'150'
p1152
sg127
g1
(g128
g12
(dp1153
g130
I4
sg131
g132
sg133
g134
sg135
g132
sg136
I01
sg34
g137
sg138
g134
sg139
I0
sg140
I0
sg141
I0
sg142
g134
sg35
g143
sg144
I0
stRp1154
sg146
g147
sg148
F1
sg149
Nsg30
S'CtheaA'
p1155
sbag1
(g2
g3
NtRp1156
(dp1157
g6
g1
(g7
g3
NtRp1158
(dp1159
g10
g1
(g11
g12
(dtRp1160
sg14
g1
(g11
g12
(dtRp1161
sg16
g1
(g11
g12
(dtRp1162
sg18
g1
(g11
g12
(dtRp1163
sg20
g1
(g11
g12
(dtRp1164
sg22
g1
(g11
g12
(dtRp1165
sbsg24
g25
sg26
g27
((lp1166
g33
ag32
ag29
ag30
atRp1167
sg37
(lp1168
g1
(g2
g3
NtRp1169
(dp1170
g6
g1
(g7
g3
NtRp1171
(dp1172
g10
g1
(g11
g12
(dtRp1173
sg14
g1
(g11
g12
(dtRp1174
sg16
g1
(g11
g12
(dtRp1175
sg18
g1
(g11
g12
(dtRp1176
sg20
g1
(g11
g12
(dtRp1177
sg22
g1
(g11
g12
(dtRp1178
sbsg24
g25
sg26
g27
((lp1179
g33
ag32
ag29
ag30
atRp1180
sg37
(lp1181
g1
(g2
g3
NtRp1182
(dp1183
g6
g1
(g7
g3
NtRp1184
(dp1185
g10
g1
(g11
g12
(dtRp1186
sg14
g1
(g11
g12
(dtRp1187
sg16
g1
(g11
g12
(dtRp1188
sg18
g1
(g11
g12
(dtRp1189
sg20
g1
(g11
g12
(dtRp1190
sg22
g1
(g11
g12
(dtRp1191
sbsg24
g25
sg26
g27
((lp1192
g33
ag32
ag29
ag30
atRp1193
sg37
(lp1194
g1
(g2
g3
NtRp1195
(dp1196
g6
g1
(g7
g3
NtRp1197
(dp1198
g10
g1
(g11
g12
(dtRp1199
sg14
g1
(g11
g12
(dtRp1200
sg16
g1
(g11
g12
(dtRp1201
sg18
g1
(g11
g12
(dtRp1202
sg20
g1
(g11
g12
(dtRp1203
sg22
g1
(g11
g12
(dtRp1204
sbsg24
S'Cor'
p1205
sg26
g27
((lp1206
g29
ag30
aS'sequence'
p1207
ag32
ag33
aS'species'
p1208
atRp1209
sg37
(lp1210
sg120
g1182
sg121
S'RWLSTKDLYSRLELPGLNQNVHAMFVMPLGFGNPMGDMFARLNNSFWLPPLSLEGAGTGWTVYPPLSHSGPSVDLAFHLTSSLLGAINFTNMRGPLFWTALLLLSLPVLAGTLLDRNFNTFEGGDPLYHLFWFFGHPEVYIIPGFGSHSTYKKFGMYASIGLGFVWSHHMYVGLDDRAYFTSATMIAPTGIKFSWLATYGGRPMLAFLFLFTGGTGVLNASDAFHDTYYTVHFHYVLSMGAFSLGYYYWYGLYNLFWFNFPMHFLGGMPRRPYPDAGWNSGSSYQLGPDESNEPH'
p1211
sg123
F0.00132
sg124
g125
sg33
S'161'
p1212
sg127
g1
(g128
g12
(dp1213
g130
I4
sg131
g132
sg133
g134
sg135
g132
sg136
I01
sg34
g137
sg138
g134
sg139
I0
sg140
I0
sg141
I0
sg142
g134
sg35
g143
sg144
I0
stRp1214
sg146
g147
sg148
F1
sg149
Nsg30
S'CorthC'
p1215
sbag1
(g2
g3
NtRp1216
(dp1217
g6
g1
(g7
g3
NtRp1218
(dp1219
g10
g1
(g11
g12
(dtRp1220
sg14
g1
(g11
g12
(dtRp1221
sg16
g1
(g11
g12
(dtRp1222
sg18
g1
(g11
g12
(dtRp1223
sg20
g1
(g11
g12
(dtRp1224
sg22
g1
(g11
g12
(dtRp1225
sbsg24
S'Cor'
p1226
sg26
g27
((lp1227
g29
ag30
aS'sequence'
p1228
ag32
ag33
aS'species'
p1229
atRp1230
sg37
(lp1231
sg120
g1182
sg121
S'RWLSTKDLYSRLELPGLNQNVHAMFVMPLGFGNPMGDMFARLNNSFWLPPLSLEGAGTGWTVYPPLSHSGPSVDLAFHLTSSLLGAINFTNMRGPLFWTALLLLSLPVLAGTLLDRNFNTFEGGDPLYHLFWFFGHPEVYIIPGFGSHSTYKKFGMYASIGLGFVWSHHMYVGLDDRAYFTSATMIAPTGIKFSWLATYGGRPMLAFLFLFTGGTGVLNASDAFHDTYYTVHFHYVLSMGAFSLGYYYWYGLYNLFWFNFPMHFLGGMPRRPYPDAGWNSGSSYQLGPDESNEPH'
p1232
sg123
F0.00093000000000000005
sg124
g125
sg33
S'169'
p1233
sg127
g1
(g128
g12
(dp1234
g130
I4
sg131
g132
sg133
g134
sg135
g132
sg136
I01
sg34
g137
sg138
g134
sg139
I0
sg140
I0
sg141
I0
sg142
g134
sg35
g143
sg144
I0
stRp1235
sg146
g147
sg148
F1
sg149
Nsg30
S'CorthB'
p1236
sbasg120
g1169
sg123
F0.00052999999999999998
sg124
g125
sg33
S'160'
p1237
sg127
g1
(g128
g12
(dp1238
g130
I6
sg131
g132
sg133
g134
sg135
g132
sg136
I01
sg34
g173
sg138
g134
sg139
I0
sg140
I0
sg141
I0
sg142
g134
sg35
g174
sg144
I0
stRp1239
sg146
g147
sg148
F0.85999999999999999
sg149
Nsg30
S'NoName'
p1240
sbag1
(g2
g3
NtRp1241
(dp1242
g6
g1
(g7
g3
NtRp1243
(dp1244
g10
g1
(g11
g12
(dtRp1245
sg14
g1
(g11
g12
(dtRp1246
sg16
g1
(g11
g12
(dtRp1247
sg18
g1
(g11
g12
(dtRp1248
sg20
g1
(g11
g12
(dtRp1249
sg22
g1
(g11
g12
(dtRp1250
sbsg24
S'Cor'
p1251
sg26
g27
((lp1252
g29
ag30
aS'sequence'
p1253
ag32
ag33
aS'species'
p1254
atRp1255
sg37
(lp1256
sg120
g1169
sg121
S'RWLSTKDLYSRLELPGLNQNVHAMFVMPLGFGNPMGDMFARLNNSFWLPPLSLEGAGTGWTVYPPLSHSGPSVDLAFHLTSSLLGAINFTNMRGPLFWTALLLLSLPVLAGTLLDRNFNTFEGGDPLYHLFWFFGHPEVYIIPGFGSHSTYKKFGMYASIGLGFVWSHHMYVGLDDRAYFTSATMIAPTGIKFSWLATYGGRPMLAFLFLFTGGTGVLNASDAFHDTYYTVHFHYVLSMGAFSLGYYYWYGLYNLFWFNFPMHFLGGMPRRPYPDAGWNSGSSYQLGPDESNEPH'
p1257
sg123
F0.0021099999999999999
sg124
g125
sg33
S'165'
p1258
sg127
g1
(g128
g12
(dp1259
g130
I4
sg131
g132
sg133
g134
sg135
g132
sg136
I01
sg34
g137
sg138
g134
sg139
I0
sg140
I0
sg141
I0
sg142
g134
sg35
g143
sg144
I0
stRp1260
sg146
g147
sg148
F1
sg149
Nsg30
S'CorthA'
p1261
sbasg120
g1156
sg123
F0.0031199999999999999
sg124
g125
sg33
S'151'
p1262
sg127
g1
(g128
g12
(dp1263
g130
I6
sg131
g132
sg133
g134
sg135
g132
sg136
I01
sg34
g173
sg138
g134
sg139
I0
sg140
I0
sg141
I0
sg142
g134
sg35
g174
sg144
I0
stRp1264
sg146
g147
sg148
F0.98999999999999999
sg149
Nsg30
S'NoName'
p1265
sbag1
(g2
g3
NtRp1266
(dp1267
g6
g1
(g7
g3
NtRp1268
(dp1269
g10
g1
(g11
g12
(dtRp1270
sg14
g1
(g11
g12
(dtRp1271
sg16
g1
(g11
g12
(dtRp1272
sg18
g1
(g11
g12
(dtRp1273
sg20
g1
(g11
g12
(dtRp1274
sg22
g1
(g11
g12
(dtRp1275
sbsg24
g25
sg26
g27
((lp1276
g33
ag32
ag29
ag30
atRp1277
sg37
(lp1278
g1
(g2
g3
NtRp1279
(dp1280
g6
g1
(g7
g3
NtRp1281
(dp1282
g10
g1
(g11
g12
(dtRp1283
sg14
g1
(g11
g12
(dtRp1284
sg16
g1
(g11
g12
(dtRp1285
sg18
g1
(g11
g12
(dtRp1286
sg20
g1
(g11
g12
(dtRp1287
sg22
g1
(g11
g12
(dtRp1288
sbsg24
g25
sg26
g27
((lp1289
g33
ag32
ag29
ag30
atRp1290
sg37
(lp1291
g1
(g2
g3
NtRp1292
(dp1293
g6
g1
(g7
g3
NtRp1294
(dp1295
g10
g1
(g11
g12
(dtRp1296
sg14
g1
(g11
g12
(dtRp1297
sg16
g1
(g11
g12
(dtRp1298
sg18
g1
(g11
g12
(dtRp1299
sg20
g1
(g11
g12
(dtRp1300
sg22
g1
(g11
g12
(dtRp1301
sbsg24
S'Cpa'
p1302
sg26
g27
((lp1303
g29
ag30
aS'sequence'
p1304
ag32
ag33
aS'species'
p1305
atRp1306
sg37
(lp1307
sg120
g1279
sg121
S'RWLSTKDLYSRLELPGLNQNVHAMFVMPLGFGNPMGDMFARLNNSFWLPPLSLEGAGTGWTVYPPLSHSGPSVDLAFHLTSSLLGAINFTNMRGPLFWTALLLLSLPVLAGTLLDRNFNTFEGGDPLYHLFWFFGHPEVYIIPGFGSHSTYKKFGMYASIGLGFVWSHHMYVGLDDRAYFTSATMIAPTSIKFSWLATYGGRTALAFIFLFTGGTGVLNSADPFHDSYYVVHFHYVLSMGAFSIGWYLWPGLYNLFWFNFPMHFLGGMPRRNYPDAGWNSGSAYQLGPSGTNEPH'
p1308
sg123
F0.00012999999999999999
sg124
g125
sg33
S'156'
p1309
sg127
g1
(g128
g12
(dp1310
g130
I4
sg131
g132
sg133
g134
sg135
g132
sg136
I01
sg34
g137
sg138
g134
sg139
I0
sg140
I0
sg141
I0
sg142
g134
sg35
g143
sg144
I0
stRp1311
sg146
g147
sg148
F1
sg149
Nsg30
S'CparaD'
p1312
sbag1
(g2
g3
NtRp1313
(dp1314
g6
g1
(g7
g3
NtRp1315
(dp1316
g10
g1
(g11
g12
(dtRp1317
sg14
g1
(g11
g12
(dtRp1318
sg16
g1
(g11
g12
(dtRp1319
sg18
g1
(g11
g12
(dtRp1320
sg20
g1
(g11
g12
(dtRp1321
sg22
g1
(g11
g12
(dtRp1322
sbsg24
S'Cpa'
p1323
sg26
g27
((lp1324
g29
ag30
aS'sequence'
p1325
ag32
ag33
aS'species'
p1326
atRp1327
sg37
(lp1328
sg120
g1279
sg121
S'RWLSTKDLYSRLELPGLNQNVHAMFVMPLGFGNPMGDMFARLNNSFWLPPLSLEGAGTGWTVYPPLSHSGPSVDLAFHLTSSLLGAINFTNMRGPLFWTALLLLSLPVLAGTLLDRNFNTFEGGDPLYHLFWFFGHPEVYIIPGFGSHSTYKKFGMYASIGLGFVWSHHMYVGLDDRAYFTSATMIAPTGIKFSWLATYGGRPMLAFLFLFTGGTGVVNASDAFHDTYYVVHFHYVLSMGAFSLGYYYWYGLYNLFWFNFPMHFLGGMPRRPYPDAGWNSGSSYSLGPDESNEPH'
p1329
sg123
F0.00012999999999999999
sg124
g125
sg33
S'125'
p1330
sg127
g1
(g128
g12
(dp1331
g130
I4
sg131
g132
sg133
g134
sg135
g132
sg136
I01
sg34
g137
sg138
g134
sg139
I0
sg140
I0
sg141
I0
sg142
g134
sg35
g143
sg144
I0
stRp1332
sg146
g147
sg148
F1
sg149
Nsg30
S'CparaB'
p1333
sbasg120
g1266
sg123
F0.00051000000000000004
sg124
g125
sg33
S'143'
p1334
sg127
g1
(g128
g12
(dp1335
g130
I6
sg131
g132
sg133
g134
sg135
g132
sg136
I01
sg34
g173
sg138
g134
sg139
I0
sg140
I0
sg141
I0
sg142
g134
sg35
g174
sg144
I0
stRp1336
sg146
g147
sg148
F0.98999999999999999
sg149
Nsg30
S'NoName'
p1337
sbag1
(g2
g3
NtRp1338
(dp1339
g6
g1
(g7
g3
NtRp1340
(dp1341
g10
g1
(g11
g12
(dtRp1342
sg14
g1
(g11
g12
(dtRp1343
sg16
g1
(g11
g12
(dtRp1344
sg18
g1
(g11
g12
(dtRp1345
sg20
g1
(g11
g12
(dtRp1346
sg22
g1
(g11
g12
(dtRp1347
sbsg24
S'Cpa'
p1348
sg26
g27
((lp1349
g29
ag30
aS'sequence'
p1350
ag32
ag33
aS'species'
p1351
atRp1352
sg37
(lp1353
sg120
g1266
sg121
S'RWLSTKDLYSRLELPGLNQNVHAMFVMPLGFGNPMGDMFARLNNSFWLPPLSLEGAGTGWTVYPPLSHSGPSVDLAFHLTSSLLGAINFTNMRGPLFWTALLLLSLPVLAGTLLDRNFNTFEGGDPLYHLFWFFGHPEVYIIPGFGSHSTYKKFGMYASIGLGFVWSHHMYVGLDDRAYFTSATMIAPTGIKFSWLATYGGRPMLAFLFLFTGGTGVVNASDAFHDTYYVVHFHYVLSMGAFSLGYYYWYGLYNLFWFNFPMHFLGGMPRRPYPDAGWNSGSSYSLGPDESNEPH'
p1354
sg123
F0.00012
sg124
g125
sg33
S'128'
p1355
sg127
g1
(g128
g12
(dp1356
g130
I4
sg131
g132
sg133
g134
sg135
g132
sg136
I01
sg34
g137
sg138
g134
sg139
I0
sg140
I0
sg141
I0
sg142
g134
sg35
g143
sg144
I0
stRp1357
sg146
g147
sg148
F1
sg149
Nsg30
S'CparaC'
p1358
sbasg120
g1156
sg123
F1.0000000000000001e-05
sg124
g125
sg33
S'75'
p1359
sg127
g1
(g128
g12
(dp1360
g130
I6
sg131
g132
sg133
g134
sg135
g132
sg136
I01
sg34
g173
sg138
g134
sg139
I0
sg140
I0
sg141
I0
sg142
g134
sg35
g174
sg144
I0
stRp1361
sg146
g147
sg148
F1
sg149
Nsg30
S'NoName'
p1362
sbasg120
g1122
sg123
F0.0032599999999999999
sg124
g125
sg33
S'152'
p1363
sg127
g1
(g128
g12
(dp1364
g130
I6
sg131
g132
sg133
g134
sg135
g132
sg136
I01
sg34
g173
sg138
g134
sg139
I0
sg140
I0
sg141
I0
sg142
g134
sg35
g174
sg144
I0
stRp1365
sg146
g147
sg148
F0.97999999999999998
sg149
Nsg30
S'NoName'
p1366
sbasg120
g1109
sg123
F1.0000000000000001e-05
sg124
g125
sg33
S'168'
p1367
sg127
g1
(g128
g12
(dp1368
g130
I6
sg131
g132
sg133
g134
sg135
g132
sg136
I01
sg34
g173
sg138
g134
sg139
I0
sg140
I0
sg141
I0
sg142
g134
sg35
g174
sg144
I0
stRp1369
sg146
g147
sg148
F1
sg149
Nsg30
S'NoName'
p1370
sbag1
(g2
g3
NtRp1371
(dp1372
g6
g1
(g7
g3
NtRp1373
(dp1374
g10
g1
(g11
g12
(dtRp1375
sg14
g1
(g11
g12
(dtRp1376
sg16
g1
(g11
g12
(dtRp1377
sg18
g1
(g11
g12
(dtRp1378
sg20
g1
(g11
g12
(dtRp1379
sg22
g1
(g11
g12
(dtRp1380
sbsg24
g25
sg26
g27
((lp1381
g33
ag32
ag29
ag30
atRp1382
sg37
(lp1383
g1
(g2
g3
NtRp1384
(dp1385
g6
g1
(g7
g3
NtRp1386
(dp1387
g10
g1
(g11
g12
(dtRp1388
sg14
g1
(g11
g12
(dtRp1389
sg16
g1
(g11
g12
(dtRp1390
sg18
g1
(g11
g12
(dtRp1391
sg20
g1
(g11
g12
(dtRp1392
sg22
g1
(g11
g12
(dtRp1393
sbsg24
g25
sg26
g27
((lp1394
g33
ag32
ag29
ag30
atRp1395
sg37
(lp1396
g1
(g2
g3
NtRp1397
(dp1398
g6
g1
(g7
g3
NtRp1399
(dp1400
g10
g1
(g11
g12
(dtRp1401
sg14
g1
(g11
g12
(dtRp1402
sg16
g1
(g11
g12
(dtRp1403
sg18
g1
(g11
g12
(dtRp1404
sg20
g1
(g11
g12
(dtRp1405
sg22
g1
(g11
g12
(dtRp1406
sbsg24
g25
sg26
g27
((lp1407
g33
ag32
ag29
ag30
atRp1408
sg37
(lp1409
g1
(g2
g3
NtRp1410
(dp1411
g6
g1
(g7
g3
NtRp1412
(dp1413
g10
g1
(g11
g12
(dtRp1414
sg14
g1
(g11
g12
(dtRp1415
sg16
g1
(g11
g12
(dtRp1416
sg18
g1
(g11
g12
(dtRp1417
sg20
g1
(g11
g12
(dtRp1418
sg22
g1
(g11
g12
(dtRp1419
sbsg24
g25
sg26
g27
((lp1420
g33
ag32
ag29
ag30
atRp1421
sg37
(lp1422
g1
(g2
g3
NtRp1423
(dp1424
g6
g1
(g7
g3
NtRp1425
(dp1426
g10
g1
(g11
g12
(dtRp1427
sg14
g1
(g11
g12
(dtRp1428
sg16
g1
(g11
g12
(dtRp1429
sg18
g1
(g11
g12
(dtRp1430
sg20
g1
(g11
g12
(dtRp1431
sg22
g1
(g11
g12
(dtRp1432
sbsg24
g25
sg26
g27
((lp1433
g33
ag32
ag29
ag30
atRp1434
sg37
(lp1435
g1
(g2
g3
NtRp1436
(dp1437
g6
g1
(g7
g3
NtRp1438
(dp1439
g10
g1
(g11
g12
(dtRp1440
sg14
g1
(g11
g12
(dtRp1441
sg16
g1
(g11
g12
(dtRp1442
sg18
g1
(g11
g12
(dtRp1443
sg20
g1
(g11
g12
(dtRp1444
sg22
g1
(g11
g12
(dtRp1445
sbsg24
S'Cme'
p1446
sg26
g27
((lp1447
g29
ag30
aS'sequence'
p1448
ag32
ag33
aS'species'
p1449
atRp1450
sg37
(lp1451
sg120
g1423
sg121
S'RWLSTKDLYSRLELPGLNQNVHAMFVMPLGFGNPMGDMFARLNNSFWLPPLSLEGAGTGWTVYPPLSHSGPSVDLAFHLTSSLLGAINFTNMRGPLYWTALLLLSLPVLAGTLLDRNFNTFEGGDPLYHLFWFFGHPEVYIIPGFGSHSTYKKFGMYASIGLGFVWSHHMYVGLDDRAYFTSATMIAPTGIKFSWLATYGGRPMLAFLFLFTGGTGVLNASDAFHDTYYVVHFHYVLSMGAFSLGYYYWYGLYNLFWFNFPMHFLGGMPRRPYPDAGWNSGSSYQLGPDESNEPH'
p1452
sg123
F0.00012999999999999999
sg124
g125
sg33
S'133'
p1453
sg127
g1
(g128
g12
(dp1454
g130
I4
sg131
g132
sg133
g134
sg135
g132
sg136
I01
sg34
g137
sg138
g134
sg139
I0
sg140
I0
sg141
I0
sg142
g134
sg35
g143
sg144
I0
stRp1455
sg146
g147
sg148
F1
sg149
Nsg30
S'CmetaF'
p1456
sbag1
(g2
g3
NtRp1457
(dp1458
g6
g1
(g7
g3
NtRp1459
(dp1460
g10
g1
(g11
g12
(dtRp1461
sg14
g1
(g11
g12
(dtRp1462
sg16
g1
(g11
g12
(dtRp1463
sg18
g1
(g11
g12
(dtRp1464
sg20
g1
(g11
g12
(dtRp1465
sg22
g1
(g11
g12
(dtRp1466
sbsg24
S'Cme'
p1467
sg26
g27
((lp1468
g29
ag30
aS'sequence'
p1469
ag32
ag33
aS'species'
p1470
atRp1471
sg37
(lp1472
sg120
g1423
sg121
S'RWLSTKDLYSRLELPGLNQNVHAMFVMPLGFGNPMGDMFARLNNSFWLPPLSLEGAGTGWTVYPPLSHSGPSVDLAFHLTSSLLGAINFTNMRGPLYWTALLLLSLPVLAGTLLDRNFNTFEGGDPLYHLFWFFGHPEVYIIPGFGSHSTYKKFGMYASIGLGFVWSHHMYVGLDDRAYFTSATMIAPTGIKFSWLATYGGRPMLAFLFLFTGGTGVLNASDAFHDTYYVVHFHYVLSMGAFSLGYYYWYGLYNLFWFNFPMHFLGGMPRRPYPDAGWNSGSSYQLGPDESNEPH'
p1473
sg123
F0.00012
sg124
g125
sg33
S'175'
p1474
sg127
g1
(g128
g12
(dp1475
g130
I4
sg131
g132
sg133
g134
sg135
g132
sg136
I01
sg34
g137
sg138
g134
sg139
I0
sg140
I0
sg141
I0
sg142
g134
sg35
g143
sg144
I0
stRp1476
sg146
g147
sg148
F1
sg149
Nsg30
S'CmetaE'
p1477
sbasg120
g1410
sg123
F1.0000000000000001e-05
sg124
g125
sg33
S'135'
p1478
sg127
g1
(g128
g12
(dp1479
g130
I6
sg131
g132
sg133
g134
sg135
g132
sg136
I01
sg34
g173
sg138
g134
sg139
I0
sg140
I0
sg141
I0
sg142
g134
sg35
g174
sg144
I0
stRp1480
sg146
g147
sg148
F1
sg149
Nsg30
S'NoName'
p1481
sbag1
(g2
g3
NtRp1482
(dp1483
g6
g1
(g7
g3
NtRp1484
(dp1485
g10
g1
(g11
g12
(dtRp1486
sg14
g1
(g11
g12
(dtRp1487
sg16
g1
(g11
g12
(dtRp1488
sg18
g1
(g11
g12
(dtRp1489
sg20
g1
(g11
g12
(dtRp1490
sg22
g1
(g11
g12
(dtRp1491
sbsg24
S'Cme'
p1492
sg26
g27
((lp1493
g29
ag30
aS'sequence'
p1494
ag32
ag33
aS'species'
p1495
atRp1496
sg37
(lp1497
sg120
g1410
sg121
S'RWLSTKDLYSRLELPGLNQNVHAMFVMPLGFGNPMGDMFARLNNSFWLPPLSLEGAGTGWTVYPPLSHSGPSVDLAFHLTSSLLGAINFTNMRGPLYWTALLLLSLPVLAGTLLDRNFNTFEGGDPLYHLFWFFGHPEVYIIPGFGSHSTYKKFGMYASIGLGFVWSHHMYVGLDDRAYFTSATMIAPTGIKFSWLATYGGRPMLAFLFLFTGGTGVLNASDAFHDTYYVVHFHYVLSMGAFSLGYYYWYGLYNLFWFNFPMHFLGGMPRRPYPDAGWNSGSSYQLGPDESNEPH'
p1498
sg123
F0.00020000000000000001
sg124
g125
sg33
S'185'
p1499
sg127
g1
(g128
g12
(dp1500
g130
I4
sg131
g132
sg133
g134
sg135
g132
sg136
I01
sg34
g137
sg138
g134
sg139
I0
sg140
I0
sg141
I0
sg142
g134
sg35
g143
sg144
I0
stRp1501
sg146
g147
sg148
F1
sg149
Nsg30
S'CmetaD'
p1502
sbasg120
g1397
sg123
F1.0000000000000001e-05
sg124
g125
sg33
S'100'
p1503
sg127
g1
(g128
g12
(dp1504
g130
I6
sg131
g132
sg133
g134
sg135
g132
sg136
I01
sg34
g173
sg138
g134
sg139
I0
sg140
I0
sg141
I0
sg142
g134
sg35
g174
sg144
I0
stRp1505
sg146
g147
sg148
F1
sg149
Nsg30
S'NoName'
p1506
sbag1
(g2
g3
NtRp1507
(dp1508
g6
g1
(g7
g3
NtRp1509
(dp1510
g10
g1
(g11
g12
(dtRp1511
sg14
g1
(g11
g12
(dtRp1512
sg16
g1
(g11
g12
(dtRp1513
sg18
g1
(g11
g12
(dtRp1514
sg20
g1
(g11
g12
(dtRp1515
sg22
g1
(g11
g12
(dtRp1516
sbsg24
S'Cme'
p1517
sg26
g27
((lp1518
g29
ag30
aS'sequence'
p1519
ag32
ag33
aS'species'
p1520
atRp1521
sg37
(lp1522
sg120
g1397
sg121
S'RWLSTKDLYSRLELPGLNQNVHAMFVMPLGFGNPMGDMFARLNNSFWLPPLSLEGAGTGWTVYPPLSHSGPSVDLAFHLTSSLLGAINFTNMRGPLYWTALLLLSLPVLAGTLLDRNFNTFEGGDPLYHLFWFFGHPEVYIIPGFGSHSTYKKFGMYASIGLGFVWSHHMYVGLDDRAYFTSATMIAPTGIKFSWLATYGGRPMLAFLFLFTGGTGVLNASDAFHDTYYVVHFHYVLSMGAFSLGYYYWYGLYNLFWFNFPMHFLGGMPRRPYPDAGWNSGSSYQLGPDESNEPH'
p1523
sg123
F0.00052999999999999998
sg124
g125
sg33
S'180'
p1524
sg127
g1
(g128
g12
(dp1525
g130
I4
sg131
g132
sg133
g134
sg135
g132
sg136
I01
sg34
g137
sg138
g134
sg139
I0
sg140
I0
sg141
I0
sg142
g134
sg35
g143
sg144
I0
stRp1526
sg146
g147
sg148
F1
sg149
Nsg30
S'CmetaC'
p1527
sbasg120
g1384
sg123
F1.0000000000000001e-05
sg124
g125
sg33
S'122'
p1528
sg127
g1
(g128
g12
(dp1529
g130
I6
sg131
g132
sg133
g134
sg135
g132
sg136
I01
sg34
g173
sg138
g134
sg139
I0
sg140
I0
sg141
I0
sg142
g134
sg35
g174
sg144
I0
stRp1530
sg146
g147
sg148
F1
sg149
Nsg30
S'NoName'
p1531
sbag1
(g2
g3
NtRp1532
(dp1533
g6
g1
(g7
g3
NtRp1534
(dp1535
g10
g1
(g11
g12
(dtRp1536
sg14
g1
(g11
g12
(dtRp1537
sg16
g1
(g11
g12
(dtRp1538
sg18
g1
(g11
g12
(dtRp1539
sg20
g1
(g11
g12
(dtRp1540
sg22
g1
(g11
g12
(dtRp1541
sbsg24
S'Cme'
p1542
sg26
g27
((lp1543
g29
ag30
aS'sequence'
p1544
ag32
ag33
aS'species'
p1545
atRp1546
sg37
(lp1547
sg120
g1384
sg121
S'RWLSTKDLYSRLELPGLNQNVHAMFVMPLGFGNPMGDMFARLNNSFWLPPLSLEGAGTGWTVYPPLSHSGPSVDLAFHLTSSLLGAINFTNMRGPLYWTALLLLSLPVLAGTLLDRNFNTFEGGDPLYHLFWFFGHPEVYIIPGFGSHSTYKKFGMYASIGLGFVWSHHMYVGLDDRAYFTSATMIAPTGIKFSWLATYGGRPMLAFLFLFTGGTGVLNASDAFHDTYYVVHFHYVLSMGAFSLGYYYWYGLYNLFWFNFPMHFLGGMPRRPYPDAGWNSGSSYQLGPDESNEPH'
p1548
sg123
F0.00012
sg124
g125
sg33
S'119'
p1549
sg127
g1
(g128
g12
(dp1550
g130
I4
sg131
g132
sg133
g134
sg135
g132
sg136
I01
sg34
g137
sg138
g134
sg139
I0
sg140
I0
sg141
I0
sg142
g134
sg35
g143
sg144
I0
stRp1551
sg146
g147
sg148
F1
sg149
Nsg30
S'CmetaB'
p1552
sbasg120
g1371
sg123
F1.0000000000000001e-05
sg124
g125
sg33
S'123'
p1553
sg127
g1
(g128
g12
(dp1554
g130
I6
sg131
g132
sg133
g134
sg135
g132
sg136
I01
sg34
g173
sg138
g134
sg139
I0
sg140
I0
sg141
I0
sg142
g134
sg35
g174
sg144
I0
stRp1555
sg146
g147
sg148
F1
sg149
Nsg30
S'NoName'
p1556
sbag1
(g2
g3
NtRp1557
(dp1558
g6
g1
(g7
g3
NtRp1559
(dp1560
g10
g1
(g11
g12
(dtRp1561
sg14
g1
(g11
g12
(dtRp1562
sg16
g1
(g11
g12
(dtRp1563
sg18
g1
(g11
g12
(dtRp1564
sg20
g1
(g11
g12
(dtRp1565
sg22
g1
(g11
g12
(dtRp1566
sbsg24
S'Cme'
p1567
sg26
g27
((lp1568
g29
ag30
aS'sequence'
p1569
ag32
ag33
aS'species'
p1570
atRp1571
sg37
(lp1572
sg120
g1371
sg121
S'RWLSTKDLYSRLELPGLNQNVHAMFVMPLGFGNPMGDMFARLNNSFWLPPLSLEGAGTGWTVYPPLSHSGPSVDLAFHLTSSLLGAINFTNMRGPLYWTALLLLSLPVLAGTLLDRNFNTFEGGDPLYHLFWFFGHPEVYIIPGFGSHSTYKKFGMYASIGLGFVWSHHMYVGLDDRAYFTSATMIAPTGIKFSWLATYGGRPMLAFLFLFTGGTGVLNASDAFHDTYYVVHFHYVLSMGAFSLGYYYWYGLYNLFWFNFPMHFLGGMPRRPYPDAGWNSGSSYQLGPDESNEPH'
p1573
sg123
F0.00012999999999999999
sg124
g125
sg33
S'173'
p1574
sg127
g1
(g128
g12
(dp1575
g130
I4
sg131
g132
sg133
g134
sg135
g132
sg136
I01
sg34
g137
sg138
g134
sg139
I0
sg140
I0
sg141
I0
sg142
g134
sg35
g143
sg144
I0
stRp1576
sg146
g147
sg148
F1
sg149
Nsg30
S'CmetaA'
p1577
sbasg120
g1109
sg123
F0.020930000000000001
sg124
g125
sg33
S'147'
p1578
sg127
g1
(g128
g12
(dp1579
g130
I6
sg131
g132
sg133
g134
sg135
g132
sg136
I01
sg34
g173
sg138
g134
sg139
I0
sg140
I0
sg141
I0
sg142
g134
sg35
g174
sg144
I0
stRp1580
sg146
g147
sg148
F0.98999999999999999
sg149
Nsg30
S'NoName'
p1581
sbasg120
g1096
sg123
F0.045289999999999997
sg124
g125
sg33
S'145'
p1582
sg127
g1
(g128
g12
(dp1583
g130
I6
sg131
g132
sg133
g134
sg135
g132
sg136
I01
sg34
g173
sg138
g134
sg139
I0
sg140
I0
sg141
I0
sg142
g134
sg35
g174
sg144
I0
stRp1584
sg146
g147
sg148
F0.98999999999999999
sg149
Nsg30
S'NoName'
p1585
sbag1
(g2
g3
NtRp1586
(dp1587
g6
g1
(g7
g3
NtRp1588
(dp1589
g10
g1
(g11
g12
(dtRp1590
sg14
g1
(g11
g12
(dtRp1591
sg16
g1
(g11
g12
(dtRp1592
sg18
g1
(g11
g12
(dtRp1593
sg20
g1
(g11
g12
(dtRp1594
sg22
g1
(g11
g12
(dtRp1595
sbsg24
S'Cji'
p1596
sg26
g27
((lp1597
g29
ag30
aS'sequence'
p1598
ag32
ag33
aS'species'
p1599
atRp1600
sg37
(lp1601
sg120
g1096
sg121
S'RWLSTKDLYSRLELPGLNQNVHAMFVMPLGFGNPMGDMFARLNNSFWLPPLSLEGAGTGWTVYPPLSHSGPSVDLAFHLTSSLLGAINFTNMRGPMFWTALLLLSLPVLAGTLLDRNFNTFDGGDPLYHLFWFFGHPEVYIIPGFGSHSTYKKFGMYASIGLGFVWSHHMYVGLDDRAYFTSATMIAPTGIKFSWLATYGGRPMLAFLFLFTGGTGVLNASDAFHDTYYTVHFHYVLSMGAFSLGYYYWYGLYNLFWFNFPMHFLGGMPRRPYPDAGWNSGSSYQLGPDESNEPH'
p1602
sg123
F0.013140000000000001
sg124
g125
sg33
S'188'
p1603
sg127
g1
(g128
g12
(dp1604
g130
I4
sg131
g132
sg133
g134
sg135
g132
sg136
I01
sg34
g137
sg138
g134
sg139
I0
sg140
I0
sg141
I0
sg142
g134
sg35
g143
sg144
I0
stRp1605
sg146
g147
sg148
F1
sg149
Nsg30
S'CjiufA'
p1606
sbasg120
g1024
sg123
F0.044909999999999999
sg124
g125
sg33
S'28'
p1607
sg127
g1
(g128
g12
(dp1608
g130
I6
sg131
g132
sg133
g134
sg135
g132
sg136
I01
sg34
g173
sg138
g134
sg139
I0
sg140
I0
sg141
I0
sg142
g134
sg35
g174
sg144
I0
stRp1609
sg146
g147
sg148
F0.98999999999999999
sg149
Nsg30
S'NoName'
p1610
sbasg120
g1011
sg123
F0.082199999999999995
sg124
g125
sg33
S'37'
p1611
sg127
g1
(g128
g12
(dp1612
g130
I6
sg131
g132
sg133
g134
sg135
g132
sg136
I01
sg34
g173
sg138
g134
sg139
I0
sg140
I0
sg141
I0
sg142
g134
sg35
g174
sg144
I0
stRp1613
sg146
g147
sg148
F0.98999999999999999
sg149
Nsg30
S'NoName'
p1614
sbag1
(g2
g3
NtRp1615
(dp1616
g6
g1
(g7
g3
NtRp1617
(dp1618
g10
g1
(g11
g12
(dtRp1619
sg14
g1
(g11
g12
(dtRp1620
sg16
g1
(g11
g12
(dtRp1621
sg18
g1
(g11
g12
(dtRp1622
sg20
g1
(g11
g12
(dtRp1623
sg22
g1
(g11
g12
(dtRp1624
sbsg24
g25
sg26
g27
((lp1625
g33
ag32
ag29
ag30
atRp1626
sg37
(lp1627
g1
(g2
g3
NtRp1628
(dp1629
g6
g1
(g7
g3
NtRp1630
(dp1631
g10
g1
(g11
g12
(dtRp1632
sg14
g1
(g11
g12
(dtRp1633
sg16
g1
(g11
g12
(dtRp1634
sg18
g1
(g11
g12
(dtRp1635
sg20
g1
(g11
g12
(dtRp1636
sg22
g1
(g11
g12
(dtRp1637
sbsg24
g25
sg26
g27
((lp1638
g33
ag32
ag29
ag30
atRp1639
sg37
(lp1640
g1
(g2
g3
NtRp1641
(dp1642
g6
g1
(g7
g3
NtRp1643
(dp1644
g10
g1
(g11
g12
(dtRp1645
sg14
g1
(g11
g12
(dtRp1646
sg16
g1
(g11
g12
(dtRp1647
sg18
g1
(g11
g12
(dtRp1648
sg20
g1
(g11
g12
(dtRp1649
sg22
g1
(g11
g12
(dtRp1650
sbsg24
S'Cco'
p1651
sg26
g27
((lp1652
g29
ag30
aS'sequence'
p1653
ag32
ag33
aS'species'
p1654
atRp1655
sg37
(lp1656
sg120
g1628
sg121
S'RWLSTKDLYSRMELPGLNQNVHAMFVMPLGFGNPMGDMFARLNNSFWLPPLSLEGAGTGWTLYAPLSHSGPSVDLAFHLTSSLLGAINFTNMRGPLFWTALLLLSLPVLAATLLDRNFNTFEGGDPLYHLFFVLMHPEVYIIPGFGSHSTYKKFGMYASMGLGFVWSHHMYVGLDDRAYFTSATMIAPTGIKFSWLATYGGRPMLAFLFLFTGGTGVLNASDAFHDTYYIKHFHYVLSMGAFSLGYYYWYGLYNMFWFNFPMHFLGGMPRRPYPDAGWNSGSSYQLGPDESNEPH'
p1657
sg123
F0.057970000000000001
sg124
g125
sg33
S'190'
p1658
sg127
g1
(g128
g12
(dp1659
g130
I4
sg131
g132
sg133
g134
sg135
g132
sg136
I01
sg34
g137
sg138
g134
sg139
I0
sg140
I0
sg141
I0
sg142
g134
sg35
g143
sg144
I0
stRp1660
sg146
g147
sg148
F1
sg149
Nsg30
S'CcoryA'
p1661
sbag1
(g2
g3
NtRp1662
(dp1663
g6
g1
(g7
g3
NtRp1664
(dp1665
g10
g1
(g11
g12
(dtRp1666
sg14
g1
(g11
g12
(dtRp1667
sg16
g1
(g11
g12
(dtRp1668
sg18
g1
(g11
g12
(dtRp1669
sg20
g1
(g11
g12
(dtRp1670
sg22
g1
(g11
g12
(dtRp1671
sbsg24
S'Cch'
p1672
sg26
g27
((lp1673
g29
ag30
aS'sequence'
p1674
ag32
ag33
aS'species'
p1675
atRp1676
sg37
(lp1677
sg120
g1628
sg121
S'RWLSTKDLYSRMELPSLNQNVHAMFVMPLGFGNPMGDMFARLNNSFWLPPLSLEGAGTGWTLYAPLSHSGPSVDLAFHLTSSLLGAINFTNMRGPLFWTALLLLSLPVLAATLLDRNFNTFEGGDPLYHLFWFYMYKDYYIIPGFGSHSTYKKFGMYASIGLGFVWSHHMFVGLDDRAYFTSATMIAPTGIKFSWLATYGGRPMLAFLFLFTGGTGVLNASDAFHDTYYVVHFHYVLSMGAFSLGYYYWYGLYNLFWFNFPMHFLGGMPRRPYPDAGWNSGSSYQLGPDESNEPH'
p1678
sg123
F0.052440000000000001
sg124
g125
sg33
S'187'
p1679
sg127
g1
(g128
g12
(dp1680
g130
I4
sg131
g132
sg133
g134
sg135
g132
sg136
I01
sg34
g137
sg138
g134
sg139
I0
sg140
I0
sg141
I0
sg142
g134
sg35
g143
sg144
I0
stRp1681
sg146
g147
sg148
F1
sg149
Nsg30
S'CchauA'
p1682
sbasg120
g1615
sg123
F0.16861999999999999
sg124
g125
sg33
S'220'
p1683
sg127
g1
(g128
g12
(dp1684
g130
I6
sg131
g132
sg133
g134
sg135
g132
sg136
I01
sg34
g173
sg138
g134
sg139
I0
sg140
I0
sg141
I0
sg142
g134
sg35
g174
sg144
I0
stRp1685
sg146
g147
sg148
F0.98999999999999999
sg149
Nsg30
S'NoName'
p1686
sbag1
(g2
g3
NtRp1687
(dp1688
g6
g1
(g7
g3
NtRp1689
(dp1690
g10
g1
(g11
g12
(dtRp1691
sg14
g1
(g11
g12
(dtRp1692
sg16
g1
(g11
g12
(dtRp1693
sg18
g1
(g11
g12
(dtRp1694
sg20
g1
(g11
g12
(dtRp1695
sg22
g1
(g11
g12
(dtRp1696
sbsg24
S'Cbo'
p1697
sg26
g27
((lp1698
g29
ag30
aS'sequence'
p1699
ag32
ag33
aS'species'
p1700
atRp1701
sg37
(lp1702
sg120
g1615
sg121
S'RWLSTKDLYSRMELPGLNQNVHAMFVMPLGFGNPMGDMFARLNNSFWLPPLSLEGAGTGWTVYPPLSHSGPSVDLAFHLTSSLLGAINFTNMRGPLFWTALLLLSLPVLAATLLDRNFNTFEGGDPLYHLFWFFGHPEVYIIPGFGSHSTYKKFGMYASIGLGFVWSHHMYVGLDDRAYFTSATMIAPTGIKFSWLATYGGRPMLAFLFLFTGGTGVLNASDAFHDTYYVVHFHYVLSMGAFSLAYYYWYGLYNLFWFNFPMHFLGGMPRRPYPDAGWNSGSSYQLGPDESNEPH'
p1703
sg123
F0.20199
sg124
g125
sg33
S'223'
p1704
sg127
g1
(g128
g12
(dp1705
g130
I4
sg131
g132
sg133
g134
sg135
g132
sg136
I01
sg34
g137
sg138
g134
sg139
I0
sg140
I0
sg141
I0
sg142
g134
sg35
g143
sg144
I0
stRp1706
sg146
g147
sg148
F1
sg149
Nsg30
S'CbohiA'
p1707
sbasg120
g1011
sg123
F0.14915999999999999
sg124
g125
sg33
S'139'
p1708
sg127
g1
(g128
g12
(dp1709
g130
I6
sg131
g132
sg133
g134
sg135
g132
sg136
I01
sg34
g173
sg138
g134
sg139
I0
sg140
I0
sg141
I0
sg142
g134
sg35
g174
sg144
I0
stRp1710
sg146
g147
sg148
F0.98999999999999999
sg149
Nsg30
S'NoName'
p1711
sbasg120
g998
sg123
F0.036799999999999999
sg124
g125
sg33
S'162'
p1712
sg127
g1
(g128
g12
(dp1713
g130
I6
sg131
g132
sg133
g134
sg135
g132
sg136
I01
sg34
g173
sg138
g134
sg139
I0
sg140
I0
sg141
I0
sg142
g134
sg35
g174
sg144
I0
stRp1714
sg146
g147
sg148
F0.98999999999999999
sg149
Nsg30
S'NoName'
p1715
sbag1
(g2
g3
NtRp1716
(dp1717
g6
g1
(g7
g3
NtRp1718
(dp1719
g10
g1
(g11
g12
(dtRp1720
sg14
g1
(g11
g12
(dtRp1721
sg16
g1
(g11
g12
(dtRp1722
sg18
g1
(g11
g12
(dtRp1723
sg20
g1
(g11
g12
(dtRp1724
sg22
g1
(g11
g12
(dtRp1725
sbsg24
g25
sg26
g27
((lp1726
g33
ag32
ag29
ag30
atRp1727
sg37
(lp1728
g1
(g2
g3
NtRp1729
(dp1730
g6
g1
(g7
g3
NtRp1731
(dp1732
g10
g1
(g11
g12
(dtRp1733
sg14
g1
(g11
g12
(dtRp1734
sg16
g1
(g11
g12
(dtRp1735
sg18
g1
(g11
g12
(dtRp1736
sg20
g1
(g11
g12
(dtRp1737
sg22
g1
(g11
g12
(dtRp1738
sbsg24
g25
sg26
g27
((lp1739
g33
ag32
ag29
ag30
atRp1740
sg37
(lp1741
g1
(g2
g3
NtRp1742
(dp1743
g6
g1
(g7
g3
NtRp1744
(dp1745
g10
g1
(g11
g12
(dtRp1746
sg14
g1
(g11
g12
(dtRp1747
sg16
g1
(g11
g12
(dtRp1748
sg18
g1
(g11
g12
(dtRp1749
sg20
g1
(g11
g12
(dtRp1750
sg22
g1
(g11
g12
(dtRp1751
sbsg24
S'Cma'
p1752
sg26
g27
((lp1753
g29
ag30
aS'sequence'
p1754
ag32
ag33
aS'species'
p1755
atRp1756
sg37
(lp1757
sg120
g1729
sg121
S'RWLSTKDLYSRLELPGLSQNVHAMFVMPLGFGNPLGDMFARLNNSFWLPPLSLEGAGTGWTVYPPLSHSGPSVDLAFHLTSSLLGAINFTNMRGPLYWTALLLLSLPVLAGTLLDRNFNTFEGGDPLYHLFWFFGHPEVYMIPGFGSHSTYKKFGMYASMGLGFVWSHHMYVGLDDRAYFTSATMIAPTGIKFSWLATYGGRPMLAFLFLFTGGTGVLNASDAFHDTYYVVHFHYVLSMGAFSLGYYYWSGLYNLYWFNFPMHFLGGMPRRPYPDAGWNSGSSYQLGPDESNEPH'
p1758
sg123
F0.24277000000000001
sg124
g125
sg33
S'217'
p1759
sg127
g1
(g128
g12
(dp1760
g130
I4
sg131
g132
sg133
g134
sg135
g132
sg136
I01
sg34
g137
sg138
g134
sg139
I0
sg140
I0
sg141
I0
sg142
g134
sg35
g143
sg144
I0
stRp1761
sg146
g147
sg148
F1
sg149
Nsg30
S'CmaltA'
p1762
sbag1
(g2
g3
NtRp1763
(dp1764
g6
g1
(g7
g3
NtRp1765
(dp1766
g10
g1
(g11
g12
(dtRp1767
sg14
g1
(g11
g12
(dtRp1768
sg16
g1
(g11
g12
(dtRp1769
sg18
g1
(g11
g12
(dtRp1770
sg20
g1
(g11
g12
(dtRp1771
sg22
g1
(g11
g12
(dtRp1772
sbsg24
g25
sg26
g27
((lp1773
g33
ag32
ag29
ag30
atRp1774
sg37
(lp1775
g1
(g2
g3
NtRp1776
(dp1777
g6
g1
(g7
g3
NtRp1778
(dp1779
g10
g1
(g11
g12
(dtRp1780
sg14
g1
(g11
g12
(dtRp1781
sg16
g1
(g11
g12
(dtRp1782
sg18
g1
(g11
g12
(dtRp1783
sg20
g1
(g11
g12
(dtRp1784
sg22
g1
(g11
g12
(dtRp1785
sbsg24
g25
sg26
g27
((lp1786
g33
ag32
ag29
ag30
atRp1787
sg37
(lp1788
g1
(g2
g3
NtRp1789
(dp1790
g6
g1
(g7
g3
NtRp1791
(dp1792
g10
g1
(g11
g12
(dtRp1793
sg14
g1
(g11
g12
(dtRp1794
sg16
g1
(g11
g12
(dtRp1795
sg18
g1
(g11
g12
(dtRp1796
sg20
g1
(g11
g12
(dtRp1797
sg22
g1
(g11
g12
(dtRp1798
sbsg24
g25
sg26
g27
((lp1799
g33
ag32
ag29
ag30
atRp1800
sg37
(lp1801
g1
(g2
g3
NtRp1802
(dp1803
g6
g1
(g7
g3
NtRp1804
(dp1805
g10
g1
(g11
g12
(dtRp1806
sg14
g1
(g11
g12
(dtRp1807
sg16
g1
(g11
g12
(dtRp1808
sg18
g1
(g11
g12
(dtRp1809
sg20
g1
(g11
g12
(dtRp1810
sg22
g1
(g11
g12
(dtRp1811
sbsg24
g25
sg26
g27
((lp1812
g33
ag32
ag29
ag30
atRp1813
sg37
(lp1814
g1
(g2
g3
NtRp1815
(dp1816
g6
g1
(g7
g3
NtRp1817
(dp1818
g10
g1
(g11
g12
(dtRp1819
sg14
g1
(g11
g12
(dtRp1820
sg16
g1
(g11
g12
(dtRp1821
sg18
g1
(g11
g12
(dtRp1822
sg20
g1
(g11
g12
(dtRp1823
sg22
g1
(g11
g12
(dtRp1824
sbsg24
S'Ctr'
p1825
sg26
g27
((lp1826
g29
ag30
aS'sequence'
p1827
ag32
ag33
aS'species'
p1828
atRp1829
sg37
(lp1830
sg120
g1802
sg121
S'RWLSTKDLYSRLELPGLNQNVHAMFVMPLGFGNPMGDMFARLNNSFWLPPLSLEGAGTGWTVYPPLSHSGPSVDLAFHLTSSLLGAINFTNMRGPLFWTALLLLSLPVLAGTLLDRNFNTFEGGDPLYHLFWFFGHPEVYIIPGFGSHSTYKKFGMYASIGLGFVWSHHMYVGLDDRAYFTSATMIAPTGIKFSWLATYGGRPMLAFLFLFTGGTGVLNASDAFHDSYYVVHFHYVLSMGAFSLGYYYWPGLYNLYWFNFPMHFLGGMPRRPYPDAGWNSGSSYQLGPDEANEPH'
p1831
sg123
F0.00064000000000000005
sg124
g125
sg33
S'208'
p1832
sg127
g1
(g128
g12
(dp1833
g130
I4
sg131
g132
sg133
g134
sg135
g132
sg136
I01
sg34
g137
sg138
g134
sg139
I0
sg140
I0
sg141
I0
sg142
g134
sg35
g143
sg144
I0
stRp1834
sg146
g147
sg148
F1
sg149
Nsg30
S'CtropB'
p1835
sbag1
(g2
g3
NtRp1836
(dp1837
g6
g1
(g7
g3
NtRp1838
(dp1839
g10
g1
(g11
g12
(dtRp1840
sg14
g1
(g11
g12
(dtRp1841
sg16
g1
(g11
g12
(dtRp1842
sg18
g1
(g11
g12
(dtRp1843
sg20
g1
(g11
g12
(dtRp1844
sg22
g1
(g11
g12
(dtRp1845
sbsg24
S'Ctr'
p1846
sg26
g27
((lp1847
g29
ag30
aS'sequence'
p1848
ag32
ag33
aS'species'
p1849
atRp1850
sg37
(lp1851
sg120
g1802
sg121
S'RWLSTKDLYSRLELPGLNQNVHAMFVMPLGFGNPMGDMFARLNNSFWLPPLSLEGAGTGWTVYPPLSHSGPSVDLAFHLTSSLLGAINFTNMRGPLFWTALLLLSLPVLAGTLLDRNFNTFEGGDPLYHLFWFFGHPEVYIIPGFGSHSTYKKFGMYASIGLGFVWSHHMYVGLDDRAYFTSATMIAPTGIKFSWLATYGGRPMLAFLFLFTGGTGVLNASDAFHDSYYVVHFHYVLSMGAFSLGYYYWPGLYNLYWFNFPMHFLGGMPRRPYPDAGWNSGSSYQLGPDEANEPH'
p1852
sg123
F0.00040000000000000002
sg124
g125
sg33
S'182'
p1853
sg127
g1
(g128
g12
(dp1854
g130
I4
sg131
g132
sg133
g134
sg135
g132
sg136
I01
sg34
g137
sg138
g134
sg139
I0
sg140
I0
sg141
I0
sg142
g134
sg35
g143
sg144
I0
stRp1855
sg146
g147
sg148
F1
sg149
Nsg30
S'CtropA'
p1856
sbasg120
g1789
sg123
F0.032030000000000003
sg124
g125
sg33
S'211'
p1857
sg127
g1
(g128
g12
(dp1858
g130
I6
sg131
g132
sg133
g134
sg135
g132
sg136
I01
sg34
g173
sg138
g134
sg139
I0
sg140
I0
sg141
I0
sg142
g134
sg35
g174
sg144
I0
stRp1859
sg146
g147
sg148
F0.98999999999999999
sg149
Nsg30
S'NoName'
p1860
sbag1
(g2
g3
NtRp1861
(dp1862
g6
g1
(g7
g3
NtRp1863
(dp1864
g10
g1
(g11
g12
(dtRp1865
sg14
g1
(g11
g12
(dtRp1866
sg16
g1
(g11
g12
(dtRp1867
sg18
g1
(g11
g12
(dtRp1868
sg20
g1
(g11
g12
(dtRp1869
sg22
g1
(g11
g12
(dtRp1870
sbsg24
S'Cso'
p1871
sg26
g27
((lp1872
g29
ag30
aS'sequence'
p1873
ag32
ag33
aS'species'
p1874
atRp1875
sg37
(lp1876
sg120
g1789
sg121
S'RWLSTKDLYSRLELPGLNQNVHAMFVMPLGFGNPMGDMFARLNNSFWLPPLSLEGAGTGWTVYPPLSHSGPSVDLAFHLTSSLLGAMNFTNMRGPLFWTALLLLSLPVLAGTLLDRNFNTFEGGDPLYHLFWFFGHPEVYIIPGFGSHSTYKKFGMYASIGLGFVWSHHMYVGLDDRAYFTSATMIAPTGIKFSWLATYGGRPMLAFLFLFTGGTGVLNASDAFHDTYYVVHFHYVLSMGAFSLGYYYWPGLYNLYWFNFPMHFLGGMPRRPYPDAGWNSGSSYQLGPDEANEPH'
p1877
sg123
F0.033649999999999999
sg124
g125
sg33
S'166'
p1878
sg127
g1
(g128
g12
(dp1879
g130
I4
sg131
g132
sg133
g134
sg135
g132
sg136
I01
sg34
g137
sg138
g134
sg139
I0
sg140
I0
sg141
I0
sg142
g134
sg35
g143
sg144
I0
stRp1880
sg146
g147
sg148
F1
sg149
Nsg30
S'CsojaA'
p1881
sbasg120
g1776
sg123
F0.019990000000000001
sg124
g125
sg33
S'213'
p1882
sg127
g1
(g128
g12
(dp1883
g130
I6
sg131
g132
sg133
g134
sg135
g132
sg136
I01
sg34
g173
sg138
g134
sg139
I0
sg140
I0
sg141
I0
sg142
g134
sg35
g174
sg144
I0
stRp1884
sg146
g147
sg148
F0.98999999999999999
sg149
Nsg30
S'NoName'
p1885
sbag1
(g2
g3
NtRp1886
(dp1887
g6
g1
(g7
g3
NtRp1888
(dp1889
g10
g1
(g11
g12
(dtRp1890
sg14
g1
(g11
g12
(dtRp1891
sg16
g1
(g11
g12
(dtRp1892
sg18
g1
(g11
g12
(dtRp1893
sg20
g1
(g11
g12
(dtRp1894
sg22
g1
(g11
g12
(dtRp1895
sbsg24
g25
sg26
g27
((lp1896
g33
ag32
ag29
ag30
atRp1897
sg37
(lp1898
g1
(g2
g3
NtRp1899
(dp1900
g6
g1
(g7
g3
NtRp1901
(dp1902
g10
g1
(g11
g12
(dtRp1903
sg14
g1
(g11
g12
(dtRp1904
sg16
g1
(g11
g12
(dtRp1905
sg18
g1
(g11
g12
(dtRp1906
sg20
g1
(g11
g12
(dtRp1907
sg22
g1
(g11
g12
(dtRp1908
sbsg24
S'Cte'
p1909
sg26
g27
((lp1910
g29
ag30
aS'sequence'
p1911
ag32
ag33
aS'species'
p1912
atRp1913
sg37
(lp1914
sg120
g1886
sg121
S'RWLSTKDLYSRLELPGLNQNVHAMFVMPLGFGNPMGDMFARLNNSFWLPPLSLEGAGTGWTVYPPLSHSGPSVDMAFHLTSSLLGAINFTNMRGPLFWTALLLLSLPVLAGTLLDRNFNTFEGGDPLYHLFWFFGHPEVYIIPGFGSHSTYKKFGMYASIGLGFVWSHHMFVGLDDRAYFTSATMMAPTGIKFSWLATYGGRPMLAFLFLFTGGTGVLNASDSMHDTYYVVHFHYVLSMGAFSLGYYYWPGLYNLYWFNFPMHFLGGMPRRPYPDAGWNSGSSLQLGPDESNEPH'
p1915
sg123
F0.084209999999999993
sg124
g125
sg33
S'215'
p1916
sg127
g1
(g128
g12
(dp1917
g130
I4
sg131
g132
sg133
g134
sg135
g132
sg136
I01
sg34
g137
sg138
g134
sg139
I0
sg140
I0
sg141
I0
sg142
g134
sg35
g143
sg144
I0
stRp1918
sg146
g147
sg148
F1
sg149
Nsg30
S'CtetrA'
p1919
sbag1
(g2
g3
NtRp1920
(dp1921
g6
g1
(g7
g3
NtRp1922
(dp1923
g10
g1
(g11
g12
(dtRp1924
sg14
g1
(g11
g12
(dtRp1925
sg16
g1
(g11
g12
(dtRp1926
sg18
g1
(g11
g12
(dtRp1927
sg20
g1
(g11
g12
(dtRp1928
sg22
g1
(g11
g12
(dtRp1929
sbsg24
g25
sg26
g27
((lp1930
g33
ag32
ag29
ag30
atRp1931
sg37
(lp1932
g1
(g2
g3
NtRp1933
(dp1934
g6
g1
(g7
g3
NtRp1935
(dp1936
g10
g1
(g11
g12
(dtRp1937
sg14
g1
(g11
g12
(dtRp1938
sg16
g1
(g11
g12
(dtRp1939
sg18
g1
(g11
g12
(dtRp1940
sg20
g1
(g11
g12
(dtRp1941
sg22
g1
(g11
g12
(dtRp1942
sbsg24
g25
sg26
g27
((lp1943
g33
ag32
ag29
ag30
atRp1944
sg37
(lp1945
g1
(g2
g3
NtRp1946
(dp1947
g6
g1
(g7
g3
NtRp1948
(dp1949
g10
g1
(g11
g12
(dtRp1950
sg14
g1
(g11
g12
(dtRp1951
sg16
g1
(g11
g12
(dtRp1952
sg18
g1
(g11
g12
(dtRp1953
sg20
g1
(g11
g12
(dtRp1954
sg22
g1
(g11
g12
(dtRp1955
sbsg24
S'Cvi'
p1956
sg26
g27
((lp1957
g29
ag30
aS'sequence'
p1958
ag32
ag33
aS'species'
p1959
atRp1960
sg37
(lp1961
sg120
g1933
sg121
S'RWFSTKDLYSRLELPGLNQNVHAMFVMPLGFGNPMGDMFARLNNSFWLPPLSLEGAGTGWTVYPPLSHSGPSVDLAFHLTSSLLGAINFTNMRGPLFWTALLLLSLPVLAGTLLDRNFNTFDGGDPLYHLFWFFGHPEVYMIPGFGSHSTYKKFGMYASIGLGFVWSHHMYVGLDDRAYFTSATMIAPTGIKFSWLSTYGGRPTLAFLFLFTGGTGVLNASDSMHDTYYVVHFHYVLSMGAFSLGYYYWPGLYNLYWFNFPMHFLGGMPRRPYPDSGWNSGSSFQLGPDESNEPH'
p1962
sg123
F0.03977
sg124
g125
sg33
S'186'
p1963
sg127
g1
(g128
g12
(dp1964
g130
I4
sg131
g132
sg133
g134
sg135
g132
sg136
I01
sg34
g137
sg138
g134
sg139
I0
sg140
I0
sg141
I0
sg142
g134
sg35
g143
sg144
I0
stRp1965
sg146
g147
sg148
F1
sg149
Nsg30
S'CviswA'
p1966
sbag1
(g2
g3
NtRp1967
(dp1968
g6
g1
(g7
g3
NtRp1969
(dp1970
g10
g1
(g11
g12
(dtRp1971
sg14
g1
(g11
g12
(dtRp1972
sg16
g1
(g11
g12
(dtRp1973
sg18
g1
(g11
g12
(dtRp1974
sg20
g1
(g11
g12
(dtRp1975
sg22
g1
(g11
g12
(dtRp1976
sbsg24
S'Csa'
p1977
sg26
g27
((lp1978
g29
ag30
aS'sequence'
p1979
ag32
ag33
aS'species'
p1980
atRp1981
sg37
(lp1982
sg120
g1933
sg121
S'RWFSTKDLYSRLELPGLNQNVHAMFVMPLGFGNPMGDMFARLNNSFWLPPLSLEGAGTGWTVYPPLSHSGPSVDLAFHLTSSLLGAINFTNMRGVLFWTALLLLSLPVLAGTLLDRNFNTFDGGDPLYHLFWFFGHPEVYIIPGFGSHSTFKKFGMYASIGLGFVWSHHMYVGLDDRAYFTSATMIAPTGIKFSWIATYGGRPTLAFLFLFTGGTGVLNASDSMHDTYYVVHFHYVLSMGAFSLGYYYWPGLYNLYWFNFPMHFLGGMPRRPYPDSGWNSGSSYQLGPDEGNEPH'
p1983
sg123
F0.065189999999999998
sg124
g125
sg33
S'77'
p1984
sg127
g1
(g128
g12
(dp1985
g130
I4
sg131
g132
sg133
g134
sg135
g132
sg136
I01
sg34
g137
sg138
g134
sg139
I0
sg140
I0
sg141
I0
sg142
g134
sg35
g143
sg144
I0
stRp1986
sg146
g147
sg148
F1
sg149
Nsg30
S'CsaraA'
p1987
sbasg120
g1920
sg123
F0.029960000000000001
sg124
g125
sg33
S'193'
p1988
sg127
g1
(g128
g12
(dp1989
g130
I6
sg131
g132
sg133
g134
sg135
g132
sg136
I01
sg34
g173
sg138
g134
sg139
I0
sg140
I0
sg141
I0
sg142
g134
sg35
g174
sg144
I0
stRp1990
sg146
g147
sg148
F0.98999999999999999
sg149
Nsg30
S'NoName'
p1991
sbag1
(g2
g3
NtRp1992
(dp1993
g6
g1
(g7
g3
NtRp1994
(dp1995
g10
g1
(g11
g12
(dtRp1996
sg14
g1
(g11
g12
(dtRp1997
sg16
g1
(g11
g12
(dtRp1998
sg18
g1
(g11
g12
(dtRp1999
sg20
g1
(g11
g12
(dtRp2000
sg22
g1
(g11
g12
(dtRp2001
sbsg24
S'Cpr'
p2002
sg26
g27
((lp2003
g29
ag30
aS'sequence'
p2004
ag32
ag33
aS'species'
p2005
atRp2006
sg37
(lp2007
sg120
g1920
sg121
S'RWFSTKDEYSRLELPGLNQNVHAMFVMPLGFGNPMGDMFARLNNSFWLPPLSLEGAGTGWTVYPPLSHSGPSVDLAFHLTSSLLGAINFTNMRGPLFWTALLLLSLPVLTGTLLDRNFNTFDGGDPLYHLFWFFGHPEVYMIPGFGSHSTYKKFGMYASMGLGFVWSHHMFVGLDDRAYFTSATMMAPTGIKFSWLATYGGRPMLAFLFLFTGGTGVLNASDSMHDTYYVVHFHYVLSMGAFSLGYYYWPGLYNLYWFNFPMHFLGGMPRRPYPDSGWNSGSSVQLGPDENNEPH'
p2008
sg123
F0.17724999999999999
sg124
g125
sg33
S'76'
p2009
sg127
g1
(g128
g12
(dp2010
g130
I4
sg131
g132
sg133
g134
sg135
g132
sg136
I01
sg34
g137
sg138
g134
sg139
I0
sg140
I0
sg141
I0
sg142
g134
sg35
g143
sg144
I0
stRp2011
sg146
g147
sg148
F1
sg149
Nsg30
S'CpracA'
p2012
sbasg120
g1886
sg123
F0.02281
sg124
g125
sg33
S'79'
p2013
sg127
g1
(g128
g12
(dp2014
g130
I6
sg131
g132
sg133
g134
sg135
g132
sg136
I01
sg34
g173
sg138
g134
sg139
I0
sg140
I0
sg141
I0
sg142
g134
sg35
g174
sg144
I0
stRp2015
sg146
g147
sg148
F0.98999999999999999
sg149
Nsg30
S'NoName'
p2016
sbasg120
g1776
sg123
F0.01154
sg124
g125
sg33
S'205'
p2017
sg127
g1
(g128
g12
(dp2018
g130
I6
sg131
g132
sg133
g134
sg135
g132
sg136
I01
sg34
g173
sg138
g134
sg139
I0
sg140
I0
sg141
I0
sg142
g134
sg35
g174
sg144
I0
stRp2019
sg146
g147
sg148
F0.98999999999999999
sg149
Nsg30
S'NoName'
p2020
sbasg120
g1763
sg123
F0.02138
sg124
g125
sg33
S'199'
p2021
sg127
g1
(g128
g12
(dp2022
g130
I6
sg131
g132
sg133
g134
sg135
g132
sg136
I01
sg34
g173
sg138
g134
sg139
I0
sg140
I0
sg141
I0
sg142
g134
sg35
g174
sg144
I0
stRp2023
sg146
g147
sg148
F0.98999999999999999
sg149
Nsg30
S'NoName'
p2024
sbag1
(g2
g3
NtRp2025
(dp2026
g6
g1
(g7
g3
NtRp2027
(dp2028
g10
g1
(g11
g12
(dtRp2029
sg14
g1
(g11
g12
(dtRp2030
sg16
g1
(g11
g12
(dtRp2031
sg18
g1
(g11
g12
(dtRp2032
sg20
g1
(g11
g12
(dtRp2033
sg22
g1
(g11
g12
(dtRp2034
sbsg24
g25
sg26
g27
((lp2035
g33
ag32
ag29
ag30
atRp2036
sg37
(lp2037
g1
(g2
g3
NtRp2038
(dp2039
g6
g1
(g7
g3
NtRp2040
(dp2041
g10
g1
(g11
g12
(dtRp2042
sg14
g1
(g11
g12
(dtRp2043
sg16
g1
(g11
g12
(dtRp2044
sg18
g1
(g11
g12
(dtRp2045
sg20
g1
(g11
g12
(dtRp2046
sg22
g1
(g11
g12
(dtRp2047
sbsg24
S'Cne'
p2048
sg26
g27
((lp2049
g29
ag30
aS'sequence'
p2050
ag32
ag33
aS'species'
p2051
atRp2052
sg37
(lp2053
sg120
g2025
sg121
S'RWLSTKDLYSRLELPGLNQNVHAMFVMPLGFGNPMGDMFARLNNSFWLPPLSLEGAGTGWTVYPPLSHSGPSVDLAFHLTSSLLGAINFTNMRGPLFWTALLLLSLPVLAGTLLDRNFNTFDGGDPLYHLFWFFGHPEVYIIPGFGSHSTYKKFGMYASIGLGFVWSHHMYVGLDDRAYFTSATMIAPTGIKFSWLATYGGRPMLAFLFLFTGGTGVLNASDAFHDTYYVVHFHYVLSMGAFSLGYYYWPGLYNLYWFNFPMHFLGGMPRRPYPDSGWNSGSSYQLGPDESNEPH'
p2054
sg123
F0.04879
sg124
g125
sg33
S'74'
p2055
sg127
g1
(g128
g12
(dp2056
g130
I4
sg131
g132
sg133
g134
sg135
g132
sg136
I01
sg34
g137
sg138
g134
sg139
I0
sg140
I0
sg141
I0
sg142
g134
sg35
g143
sg144
I0
stRp2057
sg146
g147
sg148
F1
sg149
Nsg30
S'CneerA'
p2058
sbag1
(g2
g3
NtRp2059
(dp2060
g6
g1
(g7
g3
NtRp2061
(dp2062
g10
g1
(g11
g12
(dtRp2063
sg14
g1
(g11
g12
(dtRp2064
sg16
g1
(g11
g12
(dtRp2065
sg18
g1
(g11
g12
(dtRp2066
sg20
g1
(g11
g12
(dtRp2067
sg22
g1
(g11
g12
(dtRp2068
sbsg24
S'Cfr'
p2069
sg26
g27
((lp2070
g29
ag30
aS'sequence'
p2071
ag32
ag33
aS'species'
p2072
atRp2073
sg37
(lp2074
sg120
g2025
sg121
S'RWLSTKDLYSRLELPGLNQNVHAMFVMPLGFGNPMGDMFARLNNSFWLPPLSLEGAGTGWTVYPPLSHSGPSVDLAFHLTSSLLGAMNFTNMRGPLFWTALLLLSLPVLAGTLLDRNFNTFDGGDPLYHLFWFFGHPEVYIIPGFGSHSTYKKFGMYASIGLGFVWSHHMYVGLDDRAYFTSATMIAPTGIKFSWLSTYGGRPMLAFLFLFTGGTGVLNASDAFHDTYYVVHFHYVLSMGAFSLGYYYWPGLYNLYWFNFPMHFLGGMPRRPYPDSGWNSGSSYQLGPDESNEPH'
p2075
sg123
F0.050279999999999998
sg124
g125
sg33
S'140'
p2076
sg127
g1
(g128
g12
(dp2077
g130
I4
sg131
g132
sg133
g134
sg135
g132
sg136
I01
sg34
g137
sg138
g134
sg139
I0
sg140
I0
sg141
I0
sg142
g134
sg35
g143
sg144
I0
stRp2078
sg146
g147
sg148
F1
sg149
Nsg30
S'CfrijA'
p2079
sbasg120
g1763
sg123
F0.11378000000000001
sg124
g125
sg33
S'206'
p2080
sg127
g1
(g128
g12
(dp2081
g130
I6
sg131
g132
sg133
g134
sg135
g132
sg136
I01
sg34
g173
sg138
g134
sg139
I0
sg140
I0
sg141
I0
sg142
g134
sg35
g174
sg144
I0
stRp2082
sg146
g147
sg148
F0.98999999999999999
sg149
Nsg30
S'NoName'
p2083
sbasg120
g1729
sg123
F0.076910000000000006
sg124
g125
sg33
S'210'
p2084
sg127
g1
(g128
g12
(dp2085
g130
I6
sg131
g132
sg133
g134
sg135
g132
sg136
I01
sg34
g173
sg138
g134
sg139
I0
sg140
I0
sg141
I0
sg142
g134
sg35
g174
sg144
I0
stRp2086
sg146
g147
sg148
F0.98999999999999999
sg149
Nsg30
S'NoName'
p2087
sbasg120
g1716
sg123
F0.022950000000000002
sg124
g125
sg33
S'201'
p2088
sg127
g1
(g128
g12
(dp2089
g130
I6
sg131
g132
sg133
g134
sg135
g132
sg136
I01
sg34
g173
sg138
g134
sg139
I0
sg140
I0
sg141
I0
sg142
g134
sg35
g174
sg144
I0
stRp2090
sg146
g147
sg148
F0.65000000000000002
sg149
Nsg30
S'NoName'
p2091
sbag1
(g2
g3
NtRp2092
(dp2093
g6
g1
(g7
g3
NtRp2094
(dp2095
g10
g1
(g11
g12
(dtRp2096
sg14
g1
(g11
g12
(dtRp2097
sg16
g1
(g11
g12
(dtRp2098
sg18
g1
(g11
g12
(dtRp2099
sg20
g1
(g11
g12
(dtRp2100
sg22
g1
(g11
g12
(dtRp2101
sbsg24
g25
sg26
g27
((lp2102
g33
ag32
ag29
ag30
atRp2103
sg37
(lp2104
g1
(g2
g3
NtRp2105
(dp2106
g6
g1
(g7
g3
NtRp2107
(dp2108
g10
g1
(g11
g12
(dtRp2109
sg14
g1
(g11
g12
(dtRp2110
sg16
g1
(g11
g12
(dtRp2111
sg18
g1
(g11
g12
(dtRp2112
sg20
g1
(g11
g12
(dtRp2113
sg22
g1
(g11
g12
(dtRp2114
sbsg24
g25
sg26
g27
((lp2115
g33
ag32
ag29
ag30
atRp2116
sg37
(lp2117
g1
(g2
g3
NtRp2118
(dp2119
g6
g1
(g7
g3
NtRp2120
(dp2121
g10
g1
(g11
g12
(dtRp2122
sg14
g1
(g11
g12
(dtRp2123
sg16
g1
(g11
g12
(dtRp2124
sg18
g1
(g11
g12
(dtRp2125
sg20
g1
(g11
g12
(dtRp2126
sg22
g1
(g11
g12
(dtRp2127
sbsg24
S'Cgi'
p2128
sg26
g27
((lp2129
g29
ag30
aS'sequence'
p2130
ag32
ag33
aS'species'
p2131
atRp2132
sg37
(lp2133
sg120
g2105
sg121
S'RWLSTKDLYSRLELAGLNQNVHAMFVMPLGFGNPMGDMFARLNNSFWLPPLSLEGAGTGWTVYPPLSHSGPSVDMAFHLTSSLLGAINFTNMRGPLFWTALLLLSLPVLAATLLDRNFNTFEGGDPLYHAFWFFGHPEVYIIPGFGSHSTYKKFGMYASIGLGFVWSHHMYVGLDDRAYFTSATMIAPTGIKFSWLATYGGRPMLAFLFLFTGGTGVLNASDAFHDTYYVVHFHYVLSMGAFSLGYYYWPGLYNLYWFNFPMHFLGGMPRRPYPDAGWNSGSSYQLGPDESNEPH'
p2134
sg123
F0.22796
sg124
g125
sg33
S'146'
p2135
sg127
g1
(g128
g12
(dp2136
g130
I4
sg131
g132
sg133
g134
sg135
g132
sg136
I01
sg34
g137
sg138
g134
sg139
I0
sg140
I0
sg141
I0
sg142
g134
sg35
g143
sg144
I0
stRp2137
sg146
g147
sg148
F1
sg149
Nsg30
S'CgigaA'
p2138
sbag1
(g2
g3
NtRp2139
(dp2140
g6
g1
(g7
g3
NtRp2141
(dp2142
g10
g1
(g11
g12
(dtRp2143
sg14
g1
(g11
g12
(dtRp2144
sg16
g1
(g11
g12
(dtRp2145
sg18
g1
(g11
g12
(dtRp2146
sg20
g1
(g11
g12
(dtRp2147
sg22
g1
(g11
g12
(dtRp2148
sbsg24
S'Cbu'
p2149
sg26
g27
((lp2150
g29
ag30
aS'sequence'
p2151
ag32
ag33
aS'species'
p2152
atRp2153
sg37
(lp2154
sg120
g2105
sg121
S'RWLSTKDLYSRLELAGLNQNVHAMFVMPLGFGNPMGDMFARLNNSFWLPPLSLEGAGTGWTVYPPLSHSGPSVDLAFHLTSSLLGAINFTNMRGPLFWTALLLLSLPVLAGTLLDRNFNTFEGGDPLYHLFWFFGHPEVYIIPGFGSHGTYKKFGMYASIGLGFVWSHHMFVGLDDRAYFTSATMIAPTGIKFSWLATYGGRPMLAFLFLFTGGTGVLNASDAFHDTYYVVHFHYVLSMGAFSLAYYYWPGLYNLFWFNFPMHFLGGMPRRPYPDAGWNSGSSYQLGPDESNEPH'
p2155
sg123
F0.26118000000000002
sg124
g125
sg33
S'81'
p2156
sg127
g1
(g128
g12
(dp2157
g130
I4
sg131
g132
sg133
g134
sg135
g132
sg136
I01
sg34
g137
sg138
g134
sg139
I0
sg140
I0
sg141
I0
sg142
g134
sg35
g143
sg144
I0
stRp2158
sg146
g147
sg148
F1
sg149
Nsg30
S'CbuenA'
p2159
sbasg120
g2092
sg123
F0.037260000000000001
sg124
g125
sg33
S'91'
p2160
sg127
g1
(g128
g12
(dp2161
g130
I6
sg131
g132
sg133
g134
sg135
g132
sg136
I01
sg34
g173
sg138
g134
sg139
I0
sg140
I0
sg141
I0
sg142
g134
sg35
g174
sg144
I0
stRp2162
sg146
g147
sg148
F0.98999999999999999
sg149
Nsg30
S'NoName'
p2163
sbag1
(g2
g3
NtRp2164
(dp2165
g6
g1
(g7
g3
NtRp2166
(dp2167
g10
g1
(g11
g12
(dtRp2168
sg14
g1
(g11
g12
(dtRp2169
sg16
g1
(g11
g12
(dtRp2170
sg18
g1
(g11
g12
(dtRp2171
sg20
g1
(g11
g12
(dtRp2172
sg22
g1
(g11
g12
(dtRp2173
sbsg24
g25
sg26
g27
((lp2174
g33
ag32
ag29
ag30
atRp2175
sg37
(lp2176
g1
(g2
g3
NtRp2177
(dp2178
g6
g1
(g7
g3
NtRp2179
(dp2180
g10
g1
(g11
g12
(dtRp2181
sg14
g1
(g11
g12
(dtRp2182
sg16
g1
(g11
g12
(dtRp2183
sg18
g1
(g11
g12
(dtRp2184
sg20
g1
(g11
g12
(dtRp2185
sg22
g1
(g11
g12
(dtRp2186
sbsg24
S'Cdu'
p2187
sg26
g27
((lp2188
g29
ag30
aS'sequence'
p2189
ag32
ag33
aS'species'
p2190
atRp2191
sg37
(lp2192
sg120
g2164
sg121
S'RWLSTKDLYSRLELPGLNQNVHAMFVMPLGFGNPMGDMFARLNNSFWLPPLSLEGAGTGWTVYPPLSHSGPSVDLAFHLTSSLLGAINFTNMRGPLYWTALLLLSLPVLAGTLLDRNFNTFEGGDPLYHLFWFFGHPEVYIIPGFGSHSTYKKFGMYASIGLGFVWSHHMYVGLDDRAYFTSATMIAPTGIKFSWLATYGGRPMLAFLFLFTGGTGVLNASDAFHDTYYVVHFHYVLSMGAFSLGYYYWPGLYNLYWFNFPMHFLGGMPRRPYPDAGWNSGSSYQLGPDESNEPH'
p2193
sg123
F0.025069999999999999
sg124
g125
sg33
S'144'
p2194
sg127
g1
(g128
g12
(dp2195
g130
I4
sg131
g132
sg133
g134
sg135
g132
sg136
I01
sg34
g137
sg138
g134
sg139
I0
sg140
I0
sg141
I0
sg142
g134
sg35
g143
sg144
I0
stRp2196
sg146
g147
sg148
F1
sg149
Nsg30
S'CdublA'
p2197
sbag1
(g2
g3
NtRp2198
(dp2199
g6
g1
(g7
g3
NtRp2200
(dp2201
g10
g1
(g11
g12
(dtRp2202
sg14
g1
(g11
g12
(dtRp2203
sg16
g1
(g11
g12
(dtRp2204
sg18
g1
(g11
g12
(dtRp2205
sg20
g1
(g11
g12
(dtRp2206
sg22
g1
(g11
g12
(dtRp2207
sbsg24
g25
sg26
g27
((lp2208
g33
ag32
ag29
ag30
atRp2209
sg37
(lp2210
g1
(g2
g3
NtRp2211
(dp2212
g6
g1
(g7
g3
NtRp2213
(dp2214
g10
g1
(g11
g12
(dtRp2215
sg14
g1
(g11
g12
(dtRp2216
sg16
g1
(g11
g12
(dtRp2217
sg18
g1
(g11
g12
(dtRp2218
sg20
g1
(g11
g12
(dtRp2219
sg22
g1
(g11
g12
(dtRp2220
sbsg24
g25
sg26
g27
((lp2221
g33
ag32
ag29
ag30
atRp2222
sg37
(lp2223
g1
(g2
g3
NtRp2224
(dp2225
g6
g1
(g7
g3
NtRp2226
(dp2227
g10
g1
(g11
g12
(dtRp2228
sg14
g1
(g11
g12
(dtRp2229
sg16
g1
(g11
g12
(dtRp2230
sg18
g1
(g11
g12
(dtRp2231
sg20
g1
(g11
g12
(dtRp2232
sg22
g1
(g11
g12
(dtRp2233
sbsg24
g25
sg26
g27
((lp2234
g33
ag32
ag29
ag30
atRp2235
sg37
(lp2236
g1
(g2
g3
NtRp2237
(dp2238
g6
g1
(g7
g3
NtRp2239
(dp2240
g10
g1
(g11
g12
(dtRp2241
sg14
g1
(g11
g12
(dtRp2242
sg16
g1
(g11
g12
(dtRp2243
sg18
g1
(g11
g12
(dtRp2244
sg20
g1
(g11
g12
(dtRp2245
sg22
g1
(g11
g12
(dtRp2246
sbsg24
g25
sg26
g27
((lp2247
g33
ag32
ag29
ag30
atRp2248
sg37
(lp2249
g1
(g2
g3
NtRp2250
(dp2251
g6
g1
(g7
g3
NtRp2252
(dp2253
g10
g1
(g11
g12
(dtRp2254
sg14
g1
(g11
g12
(dtRp2255
sg16
g1
(g11
g12
(dtRp2256
sg18
g1
(g11
g12
(dtRp2257
sg20
g1
(g11
g12
(dtRp2258
sg22
g1
(g11
g12
(dtRp2259
sbsg24
S'Cal'
p2260
sg26
g27
((lp2261
g29
ag30
aS'sequence'
p2262
ag32
ag33
aS'species'
p2263
atRp2264
sg37
(lp2265
sg120
g2237
sg121
S'RWLSTKDLYSRLELPGLNQNVHAMFVMPLGFGNPMGDMFARLNNSFWLPPLSLEGAGTGWTVYPPLSHSGPSVDLAFHLTSSLLGAINFTNMRGPLFWTALLLLSLPVLAGTLLDRNFNTFEGGDPLYHLFWFFGHPEVYIIPGFGSHSTYKKFGMYASIGLGFVWSHHMYVGLDDRAYFTSATMIAPTGIKFSWLATYGGRPMLAFLFLFTGGTGVLNASDAFHDTYYVVHFHYVLSMGAFSLGYYYWPGLYNLYWFNFPMHFLGGMPRRPYPDAGWNSGSSYQLGPDESNEPH'
p2266
sg123
F0.00025000000000000001
sg124
g125
sg33
S'95'
p2267
sg127
g1
(g128
g12
(dp2268
g130
I4
sg131
g132
sg133
g134
sg135
g132
sg136
I01
sg34
g137
sg138
g134
sg139
I0
sg140
I0
sg141
I0
sg142
g134
sg35
g143
sg144
I0
stRp2269
sg146
g147
sg148
F1
sg149
Nsg30
S'CalbiE'
p2270
sbag1
(g2
g3
NtRp2271
(dp2272
g6
g1
(g7
g3
NtRp2273
(dp2274
g10
g1
(g11
g12
(dtRp2275
sg14
g1
(g11
g12
(dtRp2276
sg16
g1
(g11
g12
(dtRp2277
sg18
g1
(g11
g12
(dtRp2278
sg20
g1
(g11
g12
(dtRp2279
sg22
g1
(g11
g12
(dtRp2280
sbsg24
S'Cal'
p2281
sg26
g27
((lp2282
g29
ag30
aS'sequence'
p2283
ag32
ag33
aS'species'
p2284
atRp2285
sg37
(lp2286
sg120
g2237
sg121
S'RWLSTKDLYSRLELPGLNQNVHAMFVMPLGFGNPMGDMFARLNNSFWLPPLSLEGAGTGWTVYPPLSHSGPSVDLAFHLTSSLLGAINFTNMRGPLFWTALLLLSLPVLAGTLLDRNFNTFEGGDPLYHLFWFFGHPEVYIIPGFGSHSTYKKFGMYASIGLGFVWSHHMYVGLDDRAYFTSATMIAPTGIKFSWLATYGGRPMLAFLFLFTGGTGVLNASDAFHDTYYVVHFHYVLSMGAFSLGYYYWPGLYNLYWFNFPMHFLGGMPRRPYPDAGWNSGSSYQLGPDESNEPH'
p2287
sg123
F0.00050000000000000001
sg124
g125
sg33
S'64'
p2288
sg127
g1
(g128
g12
(dp2289
g130
I4
sg131
g132
sg133
g134
sg135
g132
sg136
I01
sg34
g137
sg138
g134
sg139
I0
sg140
I0
sg141
I0
sg142
g134
sg35
g143
sg144
I0
stRp2290
sg146
g147
sg148
F1
sg149
Nsg30
S'CalbiD'
p2291
sbasg120
g2224
sg123
F0.00051999999999999995
sg124
g125
sg33
S'177'
p2292
sg127
g1
(g128
g12
(dp2293
g130
I6
sg131
g132
sg133
g134
sg135
g132
sg136
I01
sg34
g173
sg138
g134
sg139
I0
sg140
I0
sg141
I0
sg142
g134
sg35
g174
sg144
I0
stRp2294
sg146
g147
sg148
F0.73999999999999999
sg149
Nsg30
S'NoName'
p2295
sbag1
(g2
g3
NtRp2296
(dp2297
g6
g1
(g7
g3
NtRp2298
(dp2299
g10
g1
(g11
g12
(dtRp2300
sg14
g1
(g11
g12
(dtRp2301
sg16
g1
(g11
g12
(dtRp2302
sg18
g1
(g11
g12
(dtRp2303
sg20
g1
(g11
g12
(dtRp2304
sg22
g1
(g11
g12
(dtRp2305
sbsg24
S'Cal'
p2306
sg26
g27
((lp2307
g29
ag30
aS'sequence'
p2308
ag32
ag33
aS'species'
p2309
atRp2310
sg37
(lp2311
sg120
g2224
sg121
S'RWLSTKDLYSRLELPGLNQNVHAMFVMPLGFGNPMGDMFARLNNSFWLPPLSLEGAGTGWTVYPPLSHSGPSVDLAFHLTSSLLGAINFTNMRGPLFWTALLLLSLPVLAGTLLDRNFNTFEGGDPLYHLFWFFGHPEVYIIPGFGSHSTYKKFGMYASIGLGFVWSHHMYVGLDDRAYFTSATMIAPTGIKFSWLATYGGRPMLAFLFLFTGGTGVLNASDAFHDTYYVVHFHYVLSMGAFSLGYYYWPGLYNLYWFNFPMHFLGGMPRRPYPDAGWNSGSSYQLGPDESNEPH'
p2312
sg123
F0.00012
sg124
g125
sg33
S'131'
p2313
sg127
g1
(g128
g12
(dp2314
g130
I4
sg131
g132
sg133
g134
sg135
g132
sg136
I01
sg34
g137
sg138
g134
sg139
I0
sg140
I0
sg141
I0
sg142
g134
sg35
g143
sg144
I0
stRp2315
sg146
g147
sg148
F1
sg149
Nsg30
S'CalbiC'
p2316
sbasg120
g2211
sg123
F1.0000000000000001e-05
sg124
g125
sg33
S'96'
p2317
sg127
g1
(g128
g12
(dp2318
g130
I6
sg131
g132
sg133
g134
sg135
g132
sg136
I01
sg34
g173
sg138
g134
sg139
I0
sg140
I0
sg141
I0
sg142
g134
sg35
g174
sg144
I0
stRp2319
sg146
g147
sg148
F1
sg149
Nsg30
S'NoName'
p2320
sbag1
(g2
g3
NtRp2321
(dp2322
g6
g1
(g7
g3
NtRp2323
(dp2324
g10
g1
(g11
g12
(dtRp2325
sg14
g1
(g11
g12
(dtRp2326
sg16
g1
(g11
g12
(dtRp2327
sg18
g1
(g11
g12
(dtRp2328
sg20
g1
(g11
g12
(dtRp2329
sg22
g1
(g11
g12
(dtRp2330
sbsg24
S'Cal'
p2331
sg26
g27
((lp2332
g29
ag30
aS'sequence'
p2333
ag32
ag33
aS'species'
p2334
atRp2335
sg37
(lp2336
sg120
g2211
sg121
S'RWLSTKDLYSRLELPGLNQNVHAMFVMPLGFGNPMGDMFARLNNSFWLPPLSLEGAGTGWTVYPPLSHSGPSVDLAFHLTSSLLGAINFTNMRGPLFWTALLLLSLPVLAGTLLDRNFNTFEGGDPLYHLFWFFGHPEVYIIPGFGSHSTYKKFGMYASIGLGFVWSHHMYVGLDDRAYFTSATMIAPTGIKFSWLATYGGRPMLAFLFLFTGGTGVLNASDAFHDTYYVVHFHYVLSMGAFSLGYYYWPGLYNLYWFNFPMHFLGGMPRRPYPDAGWNSGSSYQLGPDESNEPH'
p2337
sg123
F0.00016000000000000001
sg124
g125
sg33
S'141'
p2338
sg127
g1
(g128
g12
(dp2339
g130
I4
sg131
g132
sg133
g134
sg135
g132
sg136
I01
sg34
g137
sg138
g134
sg139
I0
sg140
I0
sg141
I0
sg142
g134
sg35
g143
sg144
I0
stRp2340
sg146
g147
sg148
F1
sg149
Nsg30
S'CalbiB'
p2341
sbasg120
g2198
sg123
F1.0000000000000001e-05
sg124
g125
sg33
S'120'
p2342
sg127
g1
(g128
g12
(dp2343
g130
I6
sg131
g132
sg133
g134
sg135
g132
sg136
I01
sg34
g173
sg138
g134
sg139
I0
sg140
I0
sg141
I0
sg142
g134
sg35
g174
sg144
I0
stRp2344
sg146
g147
sg148
F1
sg149
Nsg30
S'NoName'
p2345
sbag1
(g2
g3
NtRp2346
(dp2347
g6
g1
(g7
g3
NtRp2348
(dp2349
g10
g1
(g11
g12
(dtRp2350
sg14
g1
(g11
g12
(dtRp2351
sg16
g1
(g11
g12
(dtRp2352
sg18
g1
(g11
g12
(dtRp2353
sg20
g1
(g11
g12
(dtRp2354
sg22
g1
(g11
g12
(dtRp2355
sbsg24
S'Cal'
p2356
sg26
g27
((lp2357
g29
ag30
aS'sequence'
p2358
ag32
ag33
aS'species'
p2359
atRp2360
sg37
(lp2361
sg120
g2198
sg121
S'RWLSTKDLYSRLELPGLNQNVHAMFVMPLGFGNPMGDMFARLNNSFWLPPLSLEGAGTGWTVYPPLSHSGPSVDLAFHLTSSLLGAINFTNMRGPLFWTALLLLSLPVLAGTLLDRNFNTFEGGDPLYHLFWFFGHPEVYIIPGFGSHSTYKKFGMYASIGLGFVWSHHMYVGLDDRAYFTSATMIAPTGIKFSWLATYGGRPMLAFLFLFTGGTGVLNASDAFHDTYYVVHFHYVLSMGAFSLGYYYWPGLYNLYWFNFPMHFLGGMPRRPYPDAGWNSGSSYQLGPDESNEPH'
p2362
sg123
F0.00013999999999999999
sg124
g125
sg33
S'59'
p2363
sg127
g1
(g128
g12
(dp2364
g130
I4
sg131
g132
sg133
g134
sg135
g132
sg136
I01
sg34
g137
sg138
g134
sg139
I0
sg140
I0
sg141
I0
sg142
g134
sg35
g143
sg144
I0
stRp2365
sg146
g147
sg148
F1
sg149
Nsg30
S'CalbiA'
p2366
sbasg120
g2164
sg123
F0.014959999999999999
sg124
g125
sg33
S'94'
p2367
sg127
g1
(g128
g12
(dp2368
g130
I6
sg131
g132
sg133
g134
sg135
g132
sg136
I01
sg34
g173
sg138
g134
sg139
I0
sg140
I0
sg141
I0
sg142
g134
sg35
g174
sg144
I0
stRp2369
sg146
g147
sg148
F0.98999999999999999
sg149
Nsg30
S'NoName'
p2370
sbasg120
g2092
sg123
F0.05287
sg124
g125
sg33
S'136'
p2371
sg127
g1
(g128
g12
(dp2372
g130
I6
sg131
g132
sg133
g134
sg135
g132
sg136
I01
sg34
g173
sg138
g134
sg139
I0
sg140
I0
sg141
I0
sg142
g134
sg35
g174
sg144
I0
stRp2373
sg146
g147
sg148
F0.98999999999999999
sg149
Nsg30
S'NoName'
p2374
sbasg120
g1716
sg123
F0.037499999999999999
sg124
g125
sg33
S'197'
p2375
sg127
g1
(g128
g12
(dp2376
g130
I6
sg131
g132
sg133
g134
sg135
g132
sg136
I01
sg34
g173
sg138
g134
sg139
I0
sg140
I0
sg141
I0
sg142
g134
sg35
g174
sg144
I0
stRp2377
sg146
g147
sg148
F0.98999999999999999
sg149
Nsg30
S'NoName'
p2378
sbasg120
g998
sg123
F0.10766000000000001
sg124
g125
sg33
S'183'
p2379
sg127
g1
(g128
g12
(dp2380
g130
I6
sg131
g132
sg133
g134
sg135
g132
sg136
I01
sg34
g173
sg138
g134
sg139
I0
sg140
I0
sg141
I0
sg142
g134
sg35
g174
sg144
I0
stRp2381
sg146
g147
sg148
F0.98999999999999999
sg149
Nsg30
S'NoName'
p2382
sbasg120
g964
sg123
F0.093560000000000004
sg124
g125
sg33
S'202'
p2383
sg127
g1
(g128
g12
(dp2384
g130
I6
sg131
g132
sg133
g134
sg135
g132
sg136
I01
sg34
g173
sg138
g134
sg139
I0
sg140
I0
sg141
I0
sg142
g134
sg35
g174
sg144
I0
stRp2385
sg146
g147
sg148
F0.97999999999999998
sg149
Nsg30
S'NoName'
p2386
sbasg120
g951
sg123
F0.036760000000000001
sg124
g125
sg33
S'14'
p2387
sg127
g1
(g128
g12
(dp2388
g130
I6
sg131
g132
sg133
g134
sg135
g132
sg136
I01
sg34
g173
sg138
g134
sg139
I0
sg140
I0
sg141
I0
sg142
g134
sg35
g174
sg144
I0
stRp2389
sg146
g147
sg148
F0.97999999999999998
sg149
Nsg30
S'NoName'
p2390
sbag1
(g2
g3
NtRp2391
(dp2392
g6
g1
(g7
g3
NtRp2393
(dp2394
g10
g1
(g11
g12
(dtRp2395
sg14
g1
(g11
g12
(dtRp2396
sg16
g1
(g11
g12
(dtRp2397
sg18
g1
(g11
g12
(dtRp2398
sg20
g1
(g11
g12
(dtRp2399
sg22
g1
(g11
g12
(dtRp2400
sbsg24
g25
sg26
g27
((lp2401
g33
ag32
ag29
ag30
atRp2402
sg37
(lp2403
g1
(g2
g3
NtRp2404
(dp2405
g6
g1
(g7
g3
NtRp2406
(dp2407
g10
g1
(g11
g12
(dtRp2408
sg14
g1
(g11
g12
(dtRp2409
sg16
g1
(g11
g12
(dtRp2410
sg18
g1
(g11
g12
(dtRp2411
sg20
g1
(g11
g12
(dtRp2412
sg22
g1
(g11
g12
(dtRp2413
sbsg24
g25
sg26
g27
((lp2414
g33
ag32
ag29
ag30
atRp2415
sg37
(lp2416
g1
(g2
g3
NtRp2417
(dp2418
g6
g1
(g7
g3
NtRp2419
(dp2420
g10
g1
(g11
g12
(dtRp2421
sg14
g1
(g11
g12
(dtRp2422
sg16
g1
(g11
g12
(dtRp2423
sg18
g1
(g11
g12
(dtRp2424
sg20
g1
(g11
g12
(dtRp2425
sg22
g1
(g11
g12
(dtRp2426
sbsg24
S'Csu'
p2427
sg26
g27
((lp2428
g29
ag30
aS'sequence'
p2429
ag32
ag33
aS'species'
p2430
atRp2431
sg37
(lp2432
sg120
g2404
sg121
S'RWLSTKDLYSRMELPGLNQNVHAMFIMPLGLGNPLGDMFARLNNSFWLPPLSLEGAGTGWTVYPPLSHSGPSVDLAFHLTSSLLGAINFTNMRGPLYWTALLLLSLPVLAATLLDRNFNTFEGGDPLYHLFWFFGHPEVYIIPGFGSHSTYKKFGMYASIGLGFVWSHHMFVGLDDRAYFTSATMIAPTGVKFSWLATYGGRPMLAFLFLFTGGTGVINASDAFHDTYYIVHFHYVLSMGAFSLGFYYWPGLYNLFWFNFPMHFLGGMPRRPYPDAGWNSGSAYQLGPDESNEPH'
p2433
sg123
F0.00012999999999999999
sg124
g125
sg33
S'84'
p2434
sg127
g1
(g128
g12
(dp2435
g130
I4
sg131
g132
sg133
g134
sg135
g132
sg136
I01
sg34
g137
sg138
g134
sg139
I0
sg140
I0
sg141
I0
sg142
g134
sg35
g143
sg144
I0
stRp2436
sg146
g147
sg148
F1
sg149
Nsg30
S'CsubhB'
p2437
sbag1
(g2
g3
NtRp2438
(dp2439
g6
g1
(g7
g3
NtRp2440
(dp2441
g10
g1
(g11
g12
(dtRp2442
sg14
g1
(g11
g12
(dtRp2443
sg16
g1
(g11
g12
(dtRp2444
sg18
g1
(g11
g12
(dtRp2445
sg20
g1
(g11
g12
(dtRp2446
sg22
g1
(g11
g12
(dtRp2447
sbsg24
S'Csu'
p2448
sg26
g27
((lp2449
g29
ag30
aS'sequence'
p2450
ag32
ag33
aS'species'
p2451
atRp2452
sg37
(lp2453
sg120
g2404
sg121
S'RWLSTKDLYSRMELPGLNQNVHAMFIMPLGLGNPLGDMFARLNNSFWLPPLSLEGAGTGWTVYPPLSHSGPSVDLAFHLTSSLLGAINFTNMRGPLYWTALLLLSLPVLAATLLDRNFNTFEGGDPLYHLFWFFGHPEVYIIPGFGSHSTYKKFGMYASIGLGFVWSHHMFVGLDDRAYFTSATMIAPTGVKFSWLATYGGRPMLAFLFLFTGGTGVINASDAFHDTYYIVHFHYVLSMGAFSLGFYYWPGLYNLFWFNFPMHFLGGMPRRPYPDAGWNSGSAYQLGPDESNEPH'
p2454
sg123
F0.00013999999999999999
sg124
g125
sg33
S'57'
p2455
sg127
g1
(g128
g12
(dp2456
g130
I4
sg131
g132
sg133
g134
sg135
g132
sg136
I01
sg34
g137
sg138
g134
sg139
I0
sg140
I0
sg141
I0
sg142
g134
sg35
g143
sg144
I0
stRp2457
sg146
g147
sg148
F1
sg149
Nsg30
S'CsubhA'
p2458
sbasg120
g2391
sg123
F0.59348999999999996
sg124
g125
sg33
S'65'
p2459
sg127
g1
(g128
g12
(dp2460
g130
I6
sg131
g132
sg133
g134
sg135
g132
sg136
I01
sg34
g173
sg138
g134
sg139
I0
sg140
I0
sg141
I0
sg142
g134
sg35
g174
sg144
I0
stRp2461
sg146
g147
sg148
F1
sg149
Nsg30
S'NoName'
p2462
sbag1
(g2
g3
NtRp2463
(dp2464
g6
g1
(g7
g3
NtRp2465
(dp2466
g10
g1
(g11
g12
(dtRp2467
sg14
g1
(g11
g12
(dtRp2468
sg16
g1
(g11
g12
(dtRp2469
sg18
g1
(g11
g12
(dtRp2470
sg20
g1
(g11
g12
(dtRp2471
sg22
g1
(g11
g12
(dtRp2472
sbsg24
S'Cal'
p2473
sg26
g27
((lp2474
g29
ag30
aS'sequence'
p2475
ag32
ag33
aS'species'
p2476
atRp2477
sg37
(lp2478
sg120
g2391
sg121
S'RWLSTKDLYSRMELPGLNQNVHAMFVMPLGFGNPLGDMFARLNNSFWLPPLSLDGPGTGWTVYPPLSHSGASVDFAFHLTSSLLGAINFTNMRGPLFWTALLLLSLPVLVATLLDRNFNTFEGGDPLYHLFWFFGHPEVYMIPGFGSHSTYKKFGMYASIGLGFVWSHHMFVGLDDRAYFTSATMMAPTGIKFSWMATYGGYPMLAFLFLFTGGTGVINASDAFHDTYYIVHFHYVLSMGAFSLGYYYWPGLYNLFWFNFPMHFLGGMPRRPYPDAGWNSGSAYQLGPDESNEPH'
p2479
sg123
F0.40044000000000002
sg124
g125
sg33
S'35'
p2480
sg127
g1
(g128
g12
(dp2481
g130
I4
sg131
g132
sg133
g134
sg135
g132
sg136
I01
sg34
g137
sg138
g134
sg139
I0
sg140
I0
sg141
I0
sg142
g134
sg35
g143
sg144
I0
stRp2482
sg146
g147
sg148
F1
sg149
Nsg30
S'CalaiA'
p2483
sbasg120
g951
sg123
F0.080810000000000007
sg124
g125
sg33
S'121'
p2484
sg127
g1
(g128
g12
(dp2485
g130
I6
sg131
g132
sg133
g134
sg135
g132
sg136
I01
sg34
g173
sg138
g134
sg139
I0
sg140
I0
sg141
I0
sg142
g134
sg35
g174
sg144
I0
stRp2486
sg146
g147
sg148
F0.98999999999999999
sg149
Nsg30
S'NoName'
p2487
sbasg120
g689
sg123
F0.075389999999999999
sg124
g125
sg33
S'58'
p2488
sg127
g1
(g128
g12
(dp2489
g130
I6
sg131
g132
sg133
g134
sg135
g132
sg136
I01
sg34
g173
sg138
g134
sg139
I0
sg140
I0
sg141
I0
sg142
g134
sg35
g174
sg144
I0
stRp2490
sg146
g147
sg148
F0.94999999999999996
sg149
Nsg30
S'NoName'
p2491
sbasg120
g676
sg123
F1.2542500000000001
sg124
g125
sg33
S'32'
p2492
sg127
g1
(g128
g12
(dp2493
g130
I6
sg131
g132
sg133
g134
sg135
g132
sg136
I01
sg34
g173
sg138
g134
sg139
I0
sg140
I0
sg141
I0
sg142
g134
sg35
g174
sg144
I0
stRp2494
sg146
g147
sg148
F0.97999999999999998
sg149
Nsg30
S'NoName'
p2495
sbag1
(g2
g3
NtRp2496
(dp2497
g6
g1
(g7
g3
NtRp2498
(dp2499
g10
g1
(g11
g12
(dtRp2500
sg14
g1
(g11
g12
(dtRp2501
sg16
g1
(g11
g12
(dtRp2502
sg18
g1
(g11
g12
(dtRp2503
sg20
g1
(g11
g12
(dtRp2504
sg22
g1
(g11
g12
(dtRp2505
sbsg24
g25
sg26
g27
((lp2506
g33
ag32
ag29
ag30
atRp2507
sg37
(lp2508
g1
(g2
g3
NtRp2509
(dp2510
g6
g1
(g7
g3
NtRp2511
(dp2512
g10
g1
(g11
g12
(dtRp2513
sg14
g1
(g11
g12
(dtRp2514
sg16
g1
(g11
g12
(dtRp2515
sg18
g1
(g11
g12
(dtRp2516
sg20
g1
(g11
g12
(dtRp2517
sg22
g1
(g11
g12
(dtRp2518
sbsg24
g25
sg26
g27
((lp2519
g33
ag32
ag29
ag30
atRp2520
sg37
(lp2521
g1
(g2
g3
NtRp2522
(dp2523
g6
g1
(g7
g3
NtRp2524
(dp2525
g10
g1
(g11
g12
(dtRp2526
sg14
g1
(g11
g12
(dtRp2527
sg16
g1
(g11
g12
(dtRp2528
sg18
g1
(g11
g12
(dtRp2529
sg20
g1
(g11
g12
(dtRp2530
sg22
g1
(g11
g12
(dtRp2531
sbsg24
S'Ppa'
p2532
sg26
g27
((lp2533
g29
ag30
aS'sequence'
p2534
ag32
ag33
aS'species'
p2535
atRp2536
sg37
(lp2537
sg120
g2509
sg121
S'RWLSTKDLYSRLELPGLNQNVHAMFVMPAGFGNPMGDMFARLNNSFWLPPLSLEGAGTGWTVYPPLAHSGPSVDLAFHLTSSLLGAMNFTNMRGPLFWTSLLLLSLPVLAGTLLDRNFNTFEGGDPLYHLFWFFGHPEVYIMPGFGSHSTYKKFGMYASIGLGLVWSHHMYVGLDDRAYFTSATMMAPTGMKFSWLATYGGRPMLAFLFLFTGGSGVLNASDAFHDTYYVIHFHYVLSLGAFSLGYYYWPGLYNLFWFNFPMHFLGGMPRRPYPDAGWNSGSSYQLGPDESNDPH'
p2538
sg123
F0.16184999999999999
sg124
g125
sg33
S'42'
p2539
sg127
g1
(g128
g12
(dp2540
g130
I4
sg131
g132
sg133
g134
sg135
g132
sg136
I01
sg34
g137
sg138
g134
sg139
I0
sg140
I0
sg141
I0
sg142
g134
sg35
g143
sg144
I0
stRp2541
sg146
g147
sg148
F1
sg149
Nsg30
S'PpastA'
p2542
sbag1
(g2
g3
NtRp2543
(dp2544
g6
g1
(g7
g3
NtRp2545
(dp2546
g10
g1
(g11
g12
(dtRp2547
sg14
g1
(g11
g12
(dtRp2548
sg16
g1
(g11
g12
(dtRp2549
sg18
g1
(g11
g12
(dtRp2550
sg20
g1
(g11
g12
(dtRp2551
sg22
g1
(g11
g12
(dtRp2552
sbsg24
g25
sg26
g27
((lp2553
g33
ag32
ag29
ag30
atRp2554
sg37
(lp2555
g1
(g2
g3
NtRp2556
(dp2557
g6
g1
(g7
g3
NtRp2558
(dp2559
g10
g1
(g11
g12
(dtRp2560
sg14
g1
(g11
g12
(dtRp2561
sg16
g1
(g11
g12
(dtRp2562
sg18
g1
(g11
g12
(dtRp2563
sg20
g1
(g11
g12
(dtRp2564
sg22
g1
(g11
g12
(dtRp2565
sbsg24
S'Pta'
p2566
sg26
g27
((lp2567
g29
ag30
aS'sequence'
p2568
ag32
ag33
aS'species'
p2569
atRp2570
sg37
(lp2571
sg120
g2543
sg121
S'RWLSTKDLYSRLELPGLNQNVHAMFVMPAGFGNPMGDMFARLNNSFWLPPLSLEGAGTGWTVYPPLSHSGPSVDLAFHLTSSLLGGMNFTNMRGPLFWTSLLVLTLPVLAGTLLDRNFNTFEGGDPLYHLFWFFGHPEVYIIPGFGSHSAYKKFGMYASIGLGLVWSHHMYVGLDDRAYFTSATMIAPTGIKFSWLATYGGRPMLAFLFLFTGGSGVLNASDAFHDTYYVMHFHYVLSLGAFSLGYYYWPGLYNLFWFNFPMHFLGGMPRRPYPDAGFNSGSSYQLGPDESNEPH'
p2572
sg123
F0.23080999999999999
sg124
g125
sg33
S'43'
p2573
sg127
g1
(g128
g12
(dp2574
g130
I4
sg131
g132
sg133
g134
sg135
g132
sg136
I01
sg34
g137
sg138
g134
sg139
I0
sg140
I0
sg141
I0
sg142
g134
sg35
g143
sg144
I0
stRp2575
sg146
g147
sg148
F1
sg149
Nsg30
S'PtannA'
p2576
sbag1
(g2
g3
NtRp2577
(dp2578
g6
g1
(g7
g3
NtRp2579
(dp2580
g10
g1
(g11
g12
(dtRp2581
sg14
g1
(g11
g12
(dtRp2582
sg16
g1
(g11
g12
(dtRp2583
sg18
g1
(g11
g12
(dtRp2584
sg20
g1
(g11
g12
(dtRp2585
sg22
g1
(g11
g12
(dtRp2586
sbsg24
g25
sg26
g27
((lp2587
g33
ag32
ag29
ag30
atRp2588
sg37
(lp2589
g1
(g2
g3
NtRp2590
(dp2591
g6
g1
(g7
g3
NtRp2592
(dp2593
g10
g1
(g11
g12
(dtRp2594
sg14
g1
(g11
g12
(dtRp2595
sg16
g1
(g11
g12
(dtRp2596
sg18
g1
(g11
g12
(dtRp2597
sg20
g1
(g11
g12
(dtRp2598
sg22
g1
(g11
g12
(dtRp2599
sbsg24
g25
sg26
g27
((lp2600
g33
ag32
ag29
ag30
atRp2601
sg37
(lp2602
g1
(g2
g3
NtRp2603
(dp2604
g6
g1
(g7
g3
NtRp2605
(dp2606
g10
g1
(g11
g12
(dtRp2607
sg14
g1
(g11
g12
(dtRp2608
sg16
g1
(g11
g12
(dtRp2609
sg18
g1
(g11
g12
(dtRp2610
sg20
g1
(g11
g12
(dtRp2611
sg22
g1
(g11
g12
(dtRp2612
sbsg24
S'Pkl'
p2613
sg26
g27
((lp2614
g29
ag30
aS'sequence'
p2615
ag32
ag33
aS'species'
p2616
atRp2617
sg37
(lp2618
sg120
g2590
sg121
S'RWLSTKDLYSRLELPGLNQNVHAMFMMPTGFGNPMGDMFARLNNSFWLPPLSLEGPGTGWTVYPPLSHSGPSVDLAFHLTSSLLGAMNFTNMRGPLFWTALLVMTLPVLAGTLLDRNFNTFEGGDPLYHLFWFFGHPEVYMMPGFGSHSTYKKFGMYASMGLGLVWSHHMYVGLDDRAYFTSATMMAPTGMKFSWLATYGGRPMLAFMFIFTGGSGVLNASDAFHDTYYVMHFHYVLSLGAFAMGYYYWPGLFNLFWFNFPMHFLGGMPRRPYPDAGFNSGASYQLGPDESNEPH'
p2619
sg123
F0.12625
sg124
g125
sg33
S'178'
p2620
sg127
g1
(g128
g12
(dp2621
g130
I4
sg131
g132
sg133
g134
sg135
g132
sg136
I01
sg34
g137
sg138
g134
sg139
I0
sg140
I0
sg141
I0
sg142
g134
sg35
g143
sg144
I0
stRp2622
sg146
g147
sg148
F1
sg149
Nsg30
S'PkluyA'
p2623
sbag1
(g2
g3
NtRp2624
(dp2625
g6
g1
(g7
g3
NtRp2626
(dp2627
g10
g1
(g11
g12
(dtRp2628
sg14
g1
(g11
g12
(dtRp2629
sg16
g1
(g11
g12
(dtRp2630
sg18
g1
(g11
g12
(dtRp2631
sg20
g1
(g11
g12
(dtRp2632
sg22
g1
(g11
g12
(dtRp2633
sbsg24
S'Bcu'
p2634
sg26
g27
((lp2635
g29
ag30
aS'sequence'
p2636
ag32
ag33
aS'species'
p2637
atRp2638
sg37
(lp2639
sg120
g2590
sg121
S'RWLSTKDLYSRLELPGLDQNVHSMFMMPTGFGNPMGDMFARLNNAFWYPPLSLEGPGTGWTVYPPLSHSGPSMDLAFHLTSSMLSSMNFTNMRGPLFWTALLMMTLPVLAGTLLDRNFNTFEGGDPLYHLYWFFGHPEVYIIPVFGSHSNYKKFGMYASMGLGLVWSHHMYVGLDDRAYFTSATMIAPTGIKFSWLATYGGRPMLAFLFMFTGGSGVLNASDAFHDTYFVVHFHYVLSLGVYGVGYYFWPGLYNMFWFNFPMHFLGGMPRRPYPDAGFNSGSAYQLGPDESNEPH'
p2640
sg123
F0.30854999999999999
sg124
g125
sg33
S'115'
p2641
sg127
g1
(g128
g12
(dp2642
g130
I4
sg131
g132
sg133
g134
sg135
g132
sg136
I01
sg34
g137
sg138
g134
sg139
I0
sg140
I0
sg141
I0
sg142
g134
sg35
g143
sg144
I0
stRp2643
sg146
g147
sg148
F1
sg149
Nsg30
S'BcustA'
p2644
sbasg120
g2577
sg123
F0.19120999999999999
sg124
g125
sg33
S'90'
p2645
sg127
g1
(g128
g12
(dp2646
g130
I6
sg131
g132
sg133
g134
sg135
g132
sg136
I01
sg34
g173
sg138
g134
sg139
I0
sg140
I0
sg141
I0
sg142
g134
sg35
g174
sg144
I0
stRp2647
sg146
g147
sg148
F0.98999999999999999
sg149
Nsg30
S'NoName'
p2648
sbag1
(g2
g3
NtRp2649
(dp2650
g6
g1
(g7
g3
NtRp2651
(dp2652
g10
g1
(g11
g12
(dtRp2653
sg14
g1
(g11
g12
(dtRp2654
sg16
g1
(g11
g12
(dtRp2655
sg18
g1
(g11
g12
(dtRp2656
sg20
g1
(g11
g12
(dtRp2657
sg22
g1
(g11
g12
(dtRp2658
sbsg24
S'Oan'
p2659
sg26
g27
((lp2660
g29
ag30
aS'sequence'
p2661
ag32
ag33
aS'species'
p2662
atRp2663
sg37
(lp2664
sg120
g2577
sg121
S'RWLSTKDLYSRLELPGLNQNAHAMFVMPAGFGNPMGDMFARLNNSFWLPPLSLEGAGTGWTVYPPLSHSGPSVDLAFHLTSSLLGAINFTNMRGPLFWTALLLLSLPVLAGTLLDRNFNTFEGGDPLYHLFWFFGHPEVYIIPGFGSHSTYKKFGMYASIGLGLVWSHHMYVGLDDRAYFTSATMIAPTGIKFSWIATYGGRPMLAFLFLFTGGSGVLNASDAFHDTYYVIHFHYVLSLGAFSLGYYYWPGLYNLFWFNFPMHFLGGMPRRPYPDAGYNSGSSYQLGPDESNEPH'
p2665
sg123
F0.025399999999999999
sg124
g125
sg33
S'30'
p2666
sg127
g1
(g128
g12
(dp2667
g130
I4
sg131
g132
sg133
g134
sg135
g132
sg136
I01
sg34
g137
sg138
g134
sg139
I0
sg140
I0
sg141
I0
sg142
g134
sg35
g143
sg144
I0
stRp2668
sg146
g147
sg148
F1
sg149
Nsg30
S'OanguA'
p2669
sbasg120
g2543
sg123
F0.33273999999999998
sg124
g125
sg33
S'9'
sg127
g1
(g128
g12
(dp2670
g130
I6
sg131
g132
sg133
g134
sg135
g132
sg136
I01
sg34
g173
sg138
g134
sg139
I0
sg140
I0
sg141
I0
sg142
g134
sg35
g174
sg144
I0
stRp2671
sg146
g147
sg148
F0.98999999999999999
sg149
Nsg30
S'NoName'
p2672
sbasg120
g2509
sg123
F0.054379999999999998
sg124
g125
sg33
S'21'
p2673
sg127
g1
(g128
g12
(dp2674
g130
I6
sg131
g132
sg133
g134
sg135
g132
sg136
I01
sg34
g173
sg138
g134
sg139
I0
sg140
I0
sg141
I0
sg142
g134
sg35
g174
sg144
I0
stRp2675
sg146
g147
sg148
F0.96999999999999997
sg149
Nsg30
S'NoName'
p2676
sbasg120
g2496
sg123
F0.76378000000000001
sg124
g125
sg33
S'34'
p2677
sg127
g1
(g128
g12
(dp2678
g130
I6
sg131
g132
sg133
g134
sg135
g132
sg136
I01
sg34
g173
sg138
g134
sg139
I0
sg140
I0
sg141
I0
sg142
g134
sg35
g174
sg144
I0
stRp2679
sg146
g147
sg148
F0.98999999999999999
sg149
Nsg30
S'NoName'
p2680
sbag1
(g2
g3
NtRp2681
(dp2682
g6
g1
(g7
g3
NtRp2683
(dp2684
g10
g1
(g11
g12
(dtRp2685
sg14
g1
(g11
g12
(dtRp2686
sg16
g1
(g11
g12
(dtRp2687
sg18
g1
(g11
g12
(dtRp2688
sg20
g1
(g11
g12
(dtRp2689
sg22
g1
(g11
g12
(dtRp2690
sbsg24
g25
sg26
g27
((lp2691
g33
ag32
ag29
ag30
atRp2692
sg37
(lp2693
g1
(g2
g3
NtRp2694
(dp2695
g6
g1
(g7
g3
NtRp2696
(dp2697
g10
g1
(g11
g12
(dtRp2698
sg14
g1
(g11
g12
(dtRp2699
sg16
g1
(g11
g12
(dtRp2700
sg18
g1
(g11
g12
(dtRp2701
sg20
g1
(g11
g12
(dtRp2702
sg22
g1
(g11
g12
(dtRp2703
sbsg24
g25
sg26
g27
((lp2704
g33
ag32
ag29
ag30
atRp2705
sg37
(lp2706
g1
(g2
g3
NtRp2707
(dp2708
g6
g1
(g7
g3
NtRp2709
(dp2710
g10
g1
(g11
g12
(dtRp2711
sg14
g1
(g11
g12
(dtRp2712
sg16
g1
(g11
g12
(dtRp2713
sg18
g1
(g11
g12
(dtRp2714
sg20
g1
(g11
g12
(dtRp2715
sg22
g1
(g11
g12
(dtRp2716
sbsg24
g25
sg26
g27
((lp2717
g33
ag32
ag29
ag30
atRp2718
sg37
(lp2719
g1
(g2
g3
NtRp2720
(dp2721
g6
g1
(g7
g3
NtRp2722
(dp2723
g10
g1
(g11
g12
(dtRp2724
sg14
g1
(g11
g12
(dtRp2725
sg16
g1
(g11
g12
(dtRp2726
sg18
g1
(g11
g12
(dtRp2727
sg20
g1
(g11
g12
(dtRp2728
sg22
g1
(g11
g12
(dtRp2729
sbsg24
g25
sg26
g27
((lp2730
g33
ag32
ag29
ag30
atRp2731
sg37
(lp2732
g1
(g2
g3
NtRp2733
(dp2734
g6
g1
(g7
g3
NtRp2735
(dp2736
g10
g1
(g11
g12
(dtRp2737
sg14
g1
(g11
g12
(dtRp2738
sg16
g1
(g11
g12
(dtRp2739
sg18
g1
(g11
g12
(dtRp2740
sg20
g1
(g11
g12
(dtRp2741
sg22
g1
(g11
g12
(dtRp2742
sbsg24
S'Cva'
p2743
sg26
g27
((lp2744
g29
ag30
aS'sequence'
p2745
ag32
ag33
aS'species'
p2746
atRp2747
sg37
(lp2748
sg120
g2720
sg121
S'RWLSTKDLYSRLELPGLNQNVHAMFVMPLGFGNPLGDMFARLNNSFWLPPLSLEGAGTGWTIYPPLSHSSPSVDLGFHLTSSLLGAINFTNMRGPLFWTAMLLLSLPVLAGTLLDRNFNTFEGGDPLYHLFWFFGHPEVYIIPGFGSHSTYKKFGMYASIALGFVWSHHMYVGLDDRAYFTSSTMIAPTGIKFSWLATYGGRPMLAFLFLFTGGTGVLNASDAFHDTYYVVHFHYVLSMGAFSLGYYYWPGLYNLFWFNFPMHFLGGMPRRPYPDAGWNSGSSYQLGPDESNEPH'
p2749
sg123
F0.043270000000000003
sg124
g125
sg33
S'50'
p2750
sg127
g1
(g128
g12
(dp2751
g130
I4
sg131
g132
sg133
g134
sg135
g132
sg136
I01
sg34
g137
sg138
g134
sg139
I0
sg140
I0
sg141
I0
sg142
g134
sg35
g143
sg144
I0
stRp2752
sg146
g147
sg148
F1
sg149
Nsg30
S'CvartA'
p2753
sbag1
(g2
g3
NtRp2754
(dp2755
g6
g1
(g7
g3
NtRp2756
(dp2757
g10
g1
(g11
g12
(dtRp2758
sg14
g1
(g11
g12
(dtRp2759
sg16
g1
(g11
g12
(dtRp2760
sg18
g1
(g11
g12
(dtRp2761
sg20
g1
(g11
g12
(dtRp2762
sg22
g1
(g11
g12
(dtRp2763
sbsg24
g25
sg26
g27
((lp2764
g33
ag32
ag29
ag30
atRp2765
sg37
(lp2766
g1
(g2
g3
NtRp2767
(dp2768
g6
g1
(g7
g3
NtRp2769
(dp2770
g10
g1
(g11
g12
(dtRp2771
sg14
g1
(g11
g12
(dtRp2772
sg16
g1
(g11
g12
(dtRp2773
sg18
g1
(g11
g12
(dtRp2774
sg20
g1
(g11
g12
(dtRp2775
sg22
g1
(g11
g12
(dtRp2776
sbsg24
S'Csu'
p2777
sg26
g27
((lp2778
g29
ag30
aS'sequence'
p2779
ag32
ag33
aS'species'
p2780
atRp2781
sg37
(lp2782
sg120
g2754
sg121
S'RWLSTKDLYSRLELPGLNQNVHAMFVMPLGFGNPLGDMFARLNNSFWLPPLSLEGAGTGWTIYPPLSHSSPSVDLGFHLTSSMLGAINFTNMRGPLFWTAMLLLSLPVLAGTLLDRNFNTFEGGDPLYHLFWFFGHPEVYIIPGFGSHSTYKKFGMYASIALGFVWSHHMYVGLDDRAYFTSSTMIAPTGIKFSWLATYGGRPMLAFLFLFTGGTGVLNASDAFHDSYYY-HFHYVLSMGAFSLGYYYWPGLYNLFWFNFPMHFLGGMPRRPYPDAGWNSGSSYQLGPDESNEPH'
p2783
sg123
F0.0043699999999999998
sg124
g125
sg33
S'13'
p2784
sg127
g1
(g128
g12
(dp2785
g130
I4
sg131
g132
sg133
g134
sg135
g132
sg136
I01
sg34
g137
sg138
g134
sg139
I0
sg140
I0
sg141
I0
sg142
g134
sg35
g143
sg144
I0
stRp2786
sg146
g147
sg148
F1
sg149
Nsg30
S'CsuavB'
p2787
sbag1
(g2
g3
NtRp2788
(dp2789
g6
g1
(g7
g3
NtRp2790
(dp2791
g10
g1
(g11
g12
(dtRp2792
sg14
g1
(g11
g12
(dtRp2793
sg16
g1
(g11
g12
(dtRp2794
sg18
g1
(g11
g12
(dtRp2795
sg20
g1
(g11
g12
(dtRp2796
sg22
g1
(g11
g12
(dtRp2797
sbsg24
S'Csu'
p2798
sg26
g27
((lp2799
g29
ag30
aS'sequence'
p2800
ag32
ag33
aS'species'
p2801
atRp2802
sg37
(lp2803
sg120
g2754
sg121
S'RWLSTKDLYSRLELPGLNQNVHAMFVMPLGFGNPLGDMFARLNNSFWLPPLSLEGAGTGWTIYPPLSHSSPSVDLGFHLTSSLLGAINFTNMRGPLFWTAMLLLSLPVLAGTLLDRNFNTFEGGDPLYHLFWFFGHPEVYIIPGFGSHSTYKKFGMYASIALGFVWSHHMYVGLDDRAYFTSSTMIAPTGIKFSWLATYGGRPMLAFLFLFTGGTGVLNASDAFHDTYYVVHFHYVLSMGAFSLGYYYWPGLYNLFWFNFPMHFLGGMPRRPYPDAGWNSGSSYQLGPDESNEPH'
p2804
sg123
F0.0025999999999999999
sg124
g125
sg33
S'36'
p2805
sg127
g1
(g128
g12
(dp2806
g130
I4
sg131
g132
sg133
g134
sg135
g132
sg136
I01
sg34
g137
sg138
g134
sg139
I0
sg140
I0
sg141
I0
sg142
g134
sg35
g143
sg144
I0
stRp2807
sg146
g147
sg148
F1
sg149
Nsg30
S'CsuavA'
p2808
sbasg120
g2720
sg123
F0.016740000000000001
sg124
g125
sg33
S'82'
p2809
sg127
g1
(g128
g12
(dp2810
g130
I6
sg131
g132
sg133
g134
sg135
g132
sg136
I01
sg34
g173
sg138
g134
sg139
I0
sg140
I0
sg141
I0
sg142
g134
sg35
g174
sg144
I0
stRp2811
sg146
g147
sg148
F0.98999999999999999
sg149
Nsg30
S'NoName'
p2812
sbasg120
g2707
sg123
F0.01158
sg124
g125
sg33
S'176'
p2813
sg127
g1
(g128
g12
(dp2814
g130
I6
sg131
g132
sg133
g134
sg135
g132
sg136
I01
sg34
g173
sg138
g134
sg139
I0
sg140
I0
sg141
I0
sg142
g134
sg35
g174
sg144
I0
stRp2815
sg146
g147
sg148
F0.97999999999999998
sg149
Nsg30
S'NoName'
p2816
sbag1
(g2
g3
NtRp2817
(dp2818
g6
g1
(g7
g3
NtRp2819
(dp2820
g10
g1
(g11
g12
(dtRp2821
sg14
g1
(g11
g12
(dtRp2822
sg16
g1
(g11
g12
(dtRp2823
sg18
g1
(g11
g12
(dtRp2824
sg20
g1
(g11
g12
(dtRp2825
sg22
g1
(g11
g12
(dtRp2826
sbsg24
S'Cja'
p2827
sg26
g27
((lp2828
g29
ag30
aS'sequence'
p2829
ag32
ag33
aS'species'
p2830
atRp2831
sg37
(lp2832
sg120
g2707
sg121
S'RWLSTKDLYSRLELPGLNQNVHAMFVMPLGFGNPLGDMFARLNNSFWLPPLSLEGAGTGWTIYPPLAHSSPSVDLGFHLTSSLLGAINFTNMRGPLFWTAMLLLSLPVLAGTLLDRNFNTFEGGDPLYHLFWFFGHPEVYIIPGFGSHSTYKKFGMYASIALGFVWSHHMYVGLDDRAYFTSSTMIAPTGIKFSWLATYGGRPMLAFLFLFTGGTGVLNASDAFHDTYYVVHFHYVLSMGAFSLGYYYWPGLYNLFWFNFPMHFLGGMPRRPYPDAGWNSGSSYQLGPDESNEPH'
p2833
sg123
F0.033799999999999997
sg124
g125
sg33
S'49'
p2834
sg127
g1
(g128
g12
(dp2835
g130
I4
sg131
g132
sg133
g134
sg135
g132
sg136
I01
sg34
g137
sg138
g134
sg139
I0
sg140
I0
sg141
I0
sg142
g134
sg35
g143
sg144
I0
stRp2836
sg146
g147
sg148
F1
sg149
Nsg30
S'CjadiA'
p2837
sbasg120
g2694
sg123
F0.10375
sg124
g125
sg33
S'224'
p2838
sg127
g1
(g128
g12
(dp2839
g130
I6
sg131
g132
sg133
g134
sg135
g132
sg136
I01
sg34
g173
sg138
g134
sg139
I0
sg140
I0
sg141
I0
sg142
g134
sg35
g174
sg144
I0
stRp2840
sg146
g147
sg148
F0.98999999999999999
sg149
Nsg30
S'NoName'
p2841
sbag1
(g2
g3
NtRp2842
(dp2843
g6
g1
(g7
g3
NtRp2844
(dp2845
g10
g1
(g11
g12
(dtRp2846
sg14
g1
(g11
g12
(dtRp2847
sg16
g1
(g11
g12
(dtRp2848
sg18
g1
(g11
g12
(dtRp2849
sg20
g1
(g11
g12
(dtRp2850
sg22
g1
(g11
g12
(dtRp2851
sbsg24
g25
sg26
g27
((lp2852
g33
ag32
ag29
ag30
atRp2853
sg37
(lp2854
g1
(g2
g3
NtRp2855
(dp2856
g6
g1
(g7
g3
NtRp2857
(dp2858
g10
g1
(g11
g12
(dtRp2859
sg14
g1
(g11
g12
(dtRp2860
sg16
g1
(g11
g12
(dtRp2861
sg18
g1
(g11
g12
(dtRp2862
sg20
g1
(g11
g12
(dtRp2863
sg22
g1
(g11
g12
(dtRp2864
sbsg24
g25
sg26
g27
((lp2865
g33
ag32
ag29
ag30
atRp2866
sg37
(lp2867
g1
(g2
g3
NtRp2868
(dp2869
g6
g1
(g7
g3
NtRp2870
(dp2871
g10
g1
(g11
g12
(dtRp2872
sg14
g1
(g11
g12
(dtRp2873
sg16
g1
(g11
g12
(dtRp2874
sg18
g1
(g11
g12
(dtRp2875
sg20
g1
(g11
g12
(dtRp2876
sg22
g1
(g11
g12
(dtRp2877
sbsg24
S'Wpi'
p2878
sg26
g27
((lp2879
g29
ag30
aS'sequence'
p2880
ag32
ag33
aS'species'
p2881
atRp2882
sg37
(lp2883
sg120
g2855
sg121
S'RWLSTKDLYSRLELPGLNQNVHAMFVMPLGFGNPLGDMFARLNNSFWLPPLSLEGAGTGWTIYPPLSHSSPSVDLGFHLTSSLLGAINFTNMRGPLFWTAMLLLSLPVLAGTLLDRNFNTFEGGDPLYHLFWFFGHPEVYIIPGFGSHSTYKKFGMYASIALGFVWSHHMYVGLDDRAYFTSSTMIAPTGIKFSWLATYGGRPMLAFLFLFTGGTGVLNASDAFHDTYYVVHFHYVLSMGAFSLGYYYWPGLYNLFWFNFPMHFLGGMPRRPYPDAGWNSGSSFQLGPDESNEPH'
p2884
sg123
F0.051209999999999999
sg124
g125
sg33
S'207'
p2885
sg127
g1
(g128
g12
(dp2886
g130
I4
sg131
g132
sg133
g134
sg135
g132
sg136
I01
sg34
g137
sg138
g134
sg139
I0
sg140
I0
sg141
I0
sg142
g134
sg35
g143
sg144
I0
stRp2887
sg146
g147
sg148
F1
sg149
Nsg30
S'WpijpA'
p2888
sbag1
(g2
g3
NtRp2889
(dp2890
g6
g1
(g7
g3
NtRp2891
(dp2892
g10
g1
(g11
g12
(dtRp2893
sg14
g1
(g11
g12
(dtRp2894
sg16
g1
(g11
g12
(dtRp2895
sg18
g1
(g11
g12
(dtRp2896
sg20
g1
(g11
g12
(dtRp2897
sg22
g1
(g11
g12
(dtRp2898
sbsg24
S'Wmu'
p2899
sg26
g27
((lp2900
g29
ag30
aS'sequence'
p2901
ag32
ag33
aS'species'
p2902
atRp2903
sg37
(lp2904
sg120
g2855
sg121
S'RWLSTKDLYSRLELPGLNQNVHAMFVMPLGFGNPLGDMFARLNNSFWLPPLSLEGAGTGWTIYPPLAHSSPSVDLGFHLTSSLLGAINFTNMRGPLFWTAMLLLSLPVLAGTLLDRNFNTFEGGDPLYHLFWFFGHPEVYIIPGFGSHSTYKKFGMYASIALGFVWSHHMYVGLDDRAYFTSSTMIAPTGIKFSWLATYGGRPMLAFLFLFTGGTGVLNASDAFHDTYYVVHFHYVLSMGAFSLGYYYWPGLYNLFWFNFPMHFLGGMPRRPYPDAGWNSGSSYQLGPDESNEPH'
p2905
sg123
F0.079170000000000004
sg124
g125
sg33
S'46'
p2906
sg127
g1
(g128
g12
(dp2907
g130
I4
sg131
g132
sg133
g134
sg135
g132
sg136
I01
sg34
g137
sg138
g134
sg139
I0
sg140
I0
sg141
I0
sg142
g134
sg35
g143
sg144
I0
stRp2908
sg146
g147
sg148
F1
sg149
Nsg30
S'WmucoA'
p2909
sbasg120
g2842
sg123
F0.14757000000000001
sg124
g125
sg33
S'53'
p2910
sg127
g1
(g128
g12
(dp2911
g130
I6
sg131
g132
sg133
g134
sg135
g132
sg136
I01
sg34
g173
sg138
g134
sg139
I0
sg140
I0
sg141
I0
sg142
g134
sg35
g174
sg144
I0
stRp2912
sg146
g147
sg148
F0.98999999999999999
sg149
Nsg30
S'NoName'
p2913
sbag1
(g2
g3
NtRp2914
(dp2915
g6
g1
(g7
g3
NtRp2916
(dp2917
g10
g1
(g11
g12
(dtRp2918
sg14
g1
(g11
g12
(dtRp2919
sg16
g1
(g11
g12
(dtRp2920
sg18
g1
(g11
g12
(dtRp2921
sg20
g1
(g11
g12
(dtRp2922
sg22
g1
(g11
g12
(dtRp2923
sbsg24
g25
sg26
g27
((lp2924
g33
ag32
ag29
ag30
atRp2925
sg37
(lp2926
g1
(g2
g3
NtRp2927
(dp2928
g6
g1
(g7
g3
NtRp2929
(dp2930
g10
g1
(g11
g12
(dtRp2931
sg14
g1
(g11
g12
(dtRp2932
sg16
g1
(g11
g12
(dtRp2933
sg18
g1
(g11
g12
(dtRp2934
sg20
g1
(g11
g12
(dtRp2935
sg22
g1
(g11
g12
(dtRp2936
sbsg24
S'Pca'
p2937
sg26
g27
((lp2938
g29
ag30
aS'sequence'
p2939
ag32
ag33
aS'species'
p2940
atRp2941
sg37
(lp2942
sg120
g2914
sg121
S'RWLSTKDLYSRLELPGLNQNVHAMFVMPLGFGNPLGDMFARLNNSFWLPPLSLEWAGTGWTIYPPLSHSSPSVDLGFHLTSSLLGAINFTNMRGPLFWTAMLLLSLPVLAGTLLDRNFNTFEGGDPLYHLFWFFGHPEVYIIPGFGSHSTYKKFGMYASIALGFVWSHHMYVGLDDRAYFTSSTMIAPTGIKFSWLATYGGRPMLAFLFLFTGGTGVLNASDAFHDTYYVVHFHYVLSMGAFSLGYYYWPGLFNLFWFNFPMHFLGGMPRRPYPDAGWNSGSSYQLGPDESNEPH'
p2943
sg123
F0.10655000000000001
sg124
g125
sg33
S'107'
p2944
sg127
g1
(g128
g12
(dp2945
g130
I4
sg131
g132
sg133
g134
sg135
g132
sg136
I01
sg34
g137
sg138
g134
sg139
I0
sg140
I0
sg141
I0
sg142
g134
sg35
g143
sg144
I0
stRp2946
sg146
g147
sg148
F1
sg149
Nsg30
S'PcanaA'
p2947
sbag1
(g2
g3
NtRp2948
(dp2949
g6
g1
(g7
g3
NtRp2950
(dp2951
g10
g1
(g11
g12
(dtRp2952
sg14
g1
(g11
g12
(dtRp2953
sg16
g1
(g11
g12
(dtRp2954
sg18
g1
(g11
g12
(dtRp2955
sg20
g1
(g11
g12
(dtRp2956
sg22
g1
(g11
g12
(dtRp2957
sbsg24
g25
sg26
g27
((lp2958
g33
ag32
ag29
ag30
atRp2959
sg37
(lp2960
g1
(g2
g3
NtRp2961
(dp2962
g6
g1
(g7
g3
NtRp2963
(dp2964
g10
g1
(g11
g12
(dtRp2965
sg14
g1
(g11
g12
(dtRp2966
sg16
g1
(g11
g12
(dtRp2967
sg18
g1
(g11
g12
(dtRp2968
sg20
g1
(g11
g12
(dtRp2969
sg22
g1
(g11
g12
(dtRp2970
sbsg24
S'Cno'
p2971
sg26
g27
((lp2972
g29
ag30
aS'sequence'
p2973
ag32
ag33
aS'species'
p2974
atRp2975
sg37
(lp2976
sg120
g2948
sg121
S'RWLSTKDLYSRLELPGLNQNVHAMFVMPLGFGNPLGDMFARLNNSFWLPPLSLEGAGTGWTIYPPLSHSSPSVDLGFHLTSSLLGAMNFTNMRGPLFWTAMLLLSLPVLAGTLLDRNFNTFEGGDPLYHLFWFFGHPEVYMIPGFGSHSTYKKFGMYASMALGFVWSHHMYVGLDDRAYFTSSTMMAPTGMKFSWLATYGGRPMLAFLFLFTGGTGVLNASDAFHDTYYVVHFHYVLSMGAFSLGYYYWPGLYNLFWFNFPMHFLGGMPRRPYPDAGWNSGSSYQLGPDESNEPH'
p2977
sg123
F0.059069999999999998
sg124
g125
sg33
S'209'
p2978
sg127
g1
(g128
g12
(dp2979
g130
I4
sg131
g132
sg133
g134
sg135
g132
sg136
I01
sg34
g137
sg138
g134
sg139
I0
sg140
I0
sg141
I0
sg142
g134
sg35
g143
sg144
I0
stRp2980
sg146
g147
sg148
F1
sg149
Nsg30
S'CnorvA'
p2981
sbag1
(g2
g3
NtRp2982
(dp2983
g6
g1
(g7
g3
NtRp2984
(dp2985
g10
g1
(g11
g12
(dtRp2986
sg14
g1
(g11
g12
(dtRp2987
sg16
g1
(g11
g12
(dtRp2988
sg18
g1
(g11
g12
(dtRp2989
sg20
g1
(g11
g12
(dtRp2990
sg22
g1
(g11
g12
(dtRp2991
sbsg24
S'Bca'
p2992
sg26
g27
((lp2993
g29
ag30
aS'sequence'
p2994
ag32
ag33
aS'species'
p2995
atRp2996
sg37
(lp2997
sg120
g2948
sg121
S'RWLSTKDLYSRLELPGLNQNVHAMFVMPLGFGNPLGDMFARLNNSFWLPPLSLEGAGTGWTIYPPLSHSSPSVDLGFHLTSSLLGAINFTNMRGPLFWTAMLLLSLPVLAGTLLDRNFNTFEGGDPLYHLFWFFGHPEVYIMPGFGSHSTYKKFGMYASIALGFVWSHHMYVGLDDRAYFTSSTMIAPTGIKFSWLATYGGRPMLAFLFLFTGGTGVLNASDAFHDTYYVVHFHYVLSMGAFSLGYYYWPGLYNLFWFNFPMHFLGGMPRRPYPDAGWNSGSSYQLGPDESNEPH'
p2998
sg123
F0.031899999999999998
sg124
g125
sg33
S'200'
p2999
sg127
g1
(g128
g12
(dp3000
g130
I4
sg131
g132
sg133
g134
sg135
g132
sg136
I01
sg34
g137
sg138
g134
sg139
I0
sg140
I0
sg141
I0
sg142
g134
sg35
g143
sg144
I0
stRp3001
sg146
g147
sg148
F1
sg149
Nsg30
S'BcaliA'
p3002
sbasg120
g2914
sg123
F0.09486
sg124
g125
sg33
S'78'
p3003
sg127
g1
(g128
g12
(dp3004
g130
I6
sg131
g132
sg133
g134
sg135
g132
sg136
I01
sg34
g173
sg138
g134
sg139
I0
sg140
I0
sg141
I0
sg142
g134
sg35
g174
sg144
I0
stRp3005
sg146
g147
sg148
F0.97999999999999998
sg149
Nsg30
S'NoName'
p3006
sbasg120
g2842
sg123
F0.054690000000000003
sg124
g125
sg33
S'212'
p3007
sg127
g1
(g128
g12
(dp3008
g130
I6
sg131
g132
sg133
g134
sg135
g132
sg136
I01
sg34
g173
sg138
g134
sg139
I0
sg140
I0
sg141
I0
sg142
g134
sg35
g174
sg144
I0
stRp3009
sg146
g147
sg148
F0.96999999999999997
sg149
Nsg30
S'NoName'
p3010
sbasg120
g2694
sg123
F0.051860000000000003
sg124
g125
sg33
S'118'
p3011
sg127
g1
(g128
g12
(dp3012
g130
I6
sg131
g132
sg133
g134
sg135
g132
sg136
I01
sg34
g173
sg138
g134
sg139
I0
sg140
I0
sg141
I0
sg142
g134
sg35
g174
sg144
I0
stRp3013
sg146
g147
sg148
F0.96999999999999997
sg149
Nsg30
S'NoName'
p3014
sbasg120
g2681
sg123
F0.52095999999999998
sg124
g125
sg33
S'17'
p3015
sg127
g1
(g128
g12
(dp3016
g130
I6
sg131
g132
sg133
g134
sg135
g132
sg136
I01
sg34
g173
sg138
g134
sg139
I0
sg140
I0
sg141
I0
sg142
g134
sg35
g174
sg144
I0
stRp3017
sg146
g147
sg148
F0.98999999999999999
sg149
Nsg30
S'NoName'
p3018
sbag1
(g2
g3
NtRp3019
(dp3020
g6
g1
(g7
g3
NtRp3021
(dp3022
g10
g1
(g11
g12
(dtRp3023
sg14
g1
(g11
g12
(dtRp3024
sg16
g1
(g11
g12
(dtRp3025
sg18
g1
(g11
g12
(dtRp3026
sg20
g1
(g11
g12
(dtRp3027
sg22
g1
(g11
g12
(dtRp3028
sbsg24
g25
sg26
g27
((lp3029
g33
ag32
ag29
ag30
atRp3030
sg37
(lp3031
g1
(g2
g3
NtRp3032
(dp3033
g6
g1
(g7
g3
NtRp3034
(dp3035
g10
g1
(g11
g12
(dtRp3036
sg14
g1
(g11
g12
(dtRp3037
sg16
g1
(g11
g12
(dtRp3038
sg18
g1
(g11
g12
(dtRp3039
sg20
g1
(g11
g12
(dtRp3040
sg22
g1
(g11
g12
(dtRp3041
sbsg24
g25
sg26
g27
((lp3042
g33
ag32
ag29
ag30
atRp3043
sg37
(lp3044
g1
(g2
g3
NtRp3045
(dp3046
g6
g1
(g7
g3
NtRp3047
(dp3048
g10
g1
(g11
g12
(dtRp3049
sg14
g1
(g11
g12
(dtRp3050
sg16
g1
(g11
g12
(dtRp3051
sg18
g1
(g11
g12
(dtRp3052
sg20
g1
(g11
g12
(dtRp3053
sg22
g1
(g11
g12
(dtRp3054
sbsg24
g25
sg26
g27
((lp3055
g33
ag32
ag29
ag30
atRp3056
sg37
(lp3057
g1
(g2
g3
NtRp3058
(dp3059
g6
g1
(g7
g3
NtRp3060
(dp3061
g10
g1
(g11
g12
(dtRp3062
sg14
g1
(g11
g12
(dtRp3063
sg16
g1
(g11
g12
(dtRp3064
sg18
g1
(g11
g12
(dtRp3065
sg20
g1
(g11
g12
(dtRp3066
sg22
g1
(g11
g12
(dtRp3067
sbsg24
g25
sg26
g27
((lp3068
g33
ag32
ag29
ag30
atRp3069
sg37
(lp3070
g1
(g2
g3
NtRp3071
(dp3072
g6
g1
(g7
g3
NtRp3073
(dp3074
g10
g1
(g11
g12
(dtRp3075
sg14
g1
(g11
g12
(dtRp3076
sg16
g1
(g11
g12
(dtRp3077
sg18
g1
(g11
g12
(dtRp3078
sg20
g1
(g11
g12
(dtRp3079
sg22
g1
(g11
g12
(dtRp3080
sbsg24
g25
sg26
g27
((lp3081
g33
ag32
ag29
ag30
atRp3082
sg37
(lp3083
g1
(g2
g3
NtRp3084
(dp3085
g6
g1
(g7
g3
NtRp3086
(dp3087
g10
g1
(g11
g12
(dtRp3088
sg14
g1
(g11
g12
(dtRp3089
sg16
g1
(g11
g12
(dtRp3090
sg18
g1
(g11
g12
(dtRp3091
sg20
g1
(g11
g12
(dtRp3092
sg22
g1
(g11
g12
(dtRp3093
sbsg24
g25
sg26
g27
((lp3094
g33
ag32
ag29
ag30
atRp3095
sg37
(lp3096
g1
(g2
g3
NtRp3097
(dp3098
g6
g1
(g7
g3
NtRp3099
(dp3100
g10
g1
(g11
g12
(dtRp3101
sg14
g1
(g11
g12
(dtRp3102
sg16
g1
(g11
g12
(dtRp3103
sg18
g1
(g11
g12
(dtRp3104
sg20
g1
(g11
g12
(dtRp3105
sg22
g1
(g11
g12
(dtRp3106
sbsg24
S'Lkl'
p3107
sg26
g27
((lp3108
g29
ag30
aS'sequence'
p3109
ag32
ag33
aS'species'
p3110
atRp3111
sg37
(lp3112
sg120
g3084
sg121
S'RWLSTKDLYSRLELPGLNQNVHAMFVMPLGFGNPMGDMFARLNNSFWLPPLSLEGAGTGWTVYPPLSHSGPSVDLAFHLTSSLLGAINFTNMRGPLFWTALLLLSLPVLAGTLLDRNFNTFEGGDPLYHLFWFFGHPEVYIIPGFGSHSTYKKFGMYASIGLGFVWSHHMYVGLDDRAYFLSATMIAPTGIKFSWLATYGGRPMLAFLFLFTGGTGVLNASDAFHDLYYVVHFHYVLSMGAFSLGYYYWPGLYNLFWFNFPMHFLGGMPRRPYPDAGWNSGSSYQLGPDESNEPH'
p3113
sg123
F0.00044999999999999999
sg124
g125
sg33
S'179'
p3114
sg127
g1
(g128
g12
(dp3115
g130
I4
sg131
g132
sg133
g134
sg135
g132
sg136
I01
sg34
g137
sg138
g134
sg139
I0
sg140
I0
sg141
I0
sg142
g134
sg35
g143
sg144
I0
stRp3116
sg146
g147
sg148
F1
sg149
Nsg30
S'LkluyE'
p3117
sbag1
(g2
g3
NtRp3118
(dp3119
g6
g1
(g7
g3
NtRp3120
(dp3121
g10
g1
(g11
g12
(dtRp3122
sg14
g1
(g11
g12
(dtRp3123
sg16
g1
(g11
g12
(dtRp3124
sg18
g1
(g11
g12
(dtRp3125
sg20
g1
(g11
g12
(dtRp3126
sg22
g1
(g11
g12
(dtRp3127
sbsg24
S'Lkl'
p3128
sg26
g27
((lp3129
g29
ag30
aS'sequence'
p3130
ag32
ag33
aS'species'
p3131
atRp3132
sg37
(lp3133
sg120
g3084
sg121
S'RWLSTKDLYSRLELPGLNQNVHAMFVMPLGFGNPMGDMFARLNNSFWLPPLSLEGAGTGWTVYPPLSHSGPSVDLAFHLTSSLLGAINFTNMRGPLFWTALLLLSLPVLAGTLLDRNFNTFEGGDPLYHLFWFFGHPEVYIIPGFGSHSTYKKFGMYASIGLGFVWSHHMYVGLDDRAYFLSATMIAPTGIKFSWLATYGGRPMLAFLFLFTGGTGVLNASDAFHDLYYVVHFHYVLSMGAFSLGYYYWPGLYNLFWFNFPMHFLGGMPRRPYPDAGWNSGSSYQLGPDESNEPH'
p3134
sg123
F0.0077400000000000004
sg124
g125
sg33
S'69'
p3135
sg127
g1
(g128
g12
(dp3136
g130
I4
sg131
g132
sg133
g134
sg135
g132
sg136
I01
sg34
g137
sg138
g134
sg139
I0
sg140
I0
sg141
I0
sg142
g134
sg35
g143
sg144
I0
stRp3137
sg146
g147
sg148
F1
sg149
Nsg30
S'LkluyD'
p3138
sbasg120
g3071
sg123
F0.0017099999999999999
sg124
g125
sg33
S'80'
p3139
sg127
g1
(g128
g12
(dp3140
g130
I6
sg131
g132
sg133
g134
sg135
g132
sg136
I01
sg34
g173
sg138
g134
sg139
I0
sg140
I0
sg141
I0
sg142
g134
sg35
g174
sg144
I0
stRp3141
sg146
g147
sg148
F0.56000000000000005
sg149
Nsg30
S'NoName'
p3142
sbag1
(g2
g3
NtRp3143
(dp3144
g6
g1
(g7
g3
NtRp3145
(dp3146
g10
g1
(g11
g12
(dtRp3147
sg14
g1
(g11
g12
(dtRp3148
sg16
g1
(g11
g12
(dtRp3149
sg18
g1
(g11
g12
(dtRp3150
sg20
g1
(g11
g12
(dtRp3151
sg22
g1
(g11
g12
(dtRp3152
sbsg24
g25
sg26
g27
((lp3153
g33
ag32
ag29
ag30
atRp3154
sg37
(lp3155
g1
(g2
g3
NtRp3156
(dp3157
g6
g1
(g7
g3
NtRp3158
(dp3159
g10
g1
(g11
g12
(dtRp3160
sg14
g1
(g11
g12
(dtRp3161
sg16
g1
(g11
g12
(dtRp3162
sg18
g1
(g11
g12
(dtRp3163
sg20
g1
(g11
g12
(dtRp3164
sg22
g1
(g11
g12
(dtRp3165
sbsg24
g25
sg26
g27
((lp3166
g33
ag32
ag29
ag30
atRp3167
sg37
(lp3168
g1
(g2
g3
NtRp3169
(dp3170
g6
g1
(g7
g3
NtRp3171
(dp3172
g10
g1
(g11
g12
(dtRp3173
sg14
g1
(g11
g12
(dtRp3174
sg16
g1
(g11
g12
(dtRp3175
sg18
g1
(g11
g12
(dtRp3176
sg20
g1
(g11
g12
(dtRp3177
sg22
g1
(g11
g12
(dtRp3178
sbsg24
g25
sg26
g27
((lp3179
g33
ag32
ag29
ag30
atRp3180
sg37
(lp3181
g1
(g2
g3
NtRp3182
(dp3183
g6
g1
(g7
g3
NtRp3184
(dp3185
g10
g1
(g11
g12
(dtRp3186
sg14
g1
(g11
g12
(dtRp3187
sg16
g1
(g11
g12
(dtRp3188
sg18
g1
(g11
g12
(dtRp3189
sg20
g1
(g11
g12
(dtRp3190
sg22
g1
(g11
g12
(dtRp3191
sbsg24
S'Lkl'
p3192
sg26
g27
((lp3193
g29
ag30
aS'sequence'
p3194
ag32
ag33
aS'species'
p3195
atRp3196
sg37
(lp3197
sg120
g3169
sg121
S'RWLSTKDLYSRLELPGLNQNVHAMFVMPLGFGNPMGDMFARLNNSFWLPPLSLEGAGTGWTVYPPLSHSGPSVDLAFHLTSSLLGAINFTNMRGPLFWTALLLLSLPVLAGTLLDRNFNTFEGGDPLYHLFWFFGHPEVYIIPGFGSHSTYKKFGMYASIGLGFVWSHHMYVGLDDRAYFLSATMIAPTGIKFSWLATYGGRPMLAFLFLFTGGTGVLNASDAFHDLYYVVHFHYVLSMGAFSLGYYYWPGLYNLFWFNFPMHFLGGMPRRPYPDAGWNSGSSYQLGPDESNEPH'
p3198
sg123
F0.00038999999999999999
sg124
g125
sg33
S'198'
p3199
sg127
g1
(g128
g12
(dp3200
g130
I4
sg131
g132
sg133
g134
sg135
g132
sg136
I01
sg34
g137
sg138
g134
sg139
I0
sg140
I0
sg141
I0
sg142
g134
sg35
g143
sg144
I0
stRp3201
sg146
g147
sg148
F1
sg149
Nsg30
S'LkluyF'
p3202
sbag1
(g2
g3
NtRp3203
(dp3204
g6
g1
(g7
g3
NtRp3205
(dp3206
g10
g1
(g11
g12
(dtRp3207
sg14
g1
(g11
g12
(dtRp3208
sg16
g1
(g11
g12
(dtRp3209
sg18
g1
(g11
g12
(dtRp3210
sg20
g1
(g11
g12
(dtRp3211
sg22
g1
(g11
g12
(dtRp3212
sbsg24
S'Lkl'
p3213
sg26
g27
((lp3214
g29
ag30
aS'sequence'
p3215
ag32
ag33
aS'species'
p3216
atRp3217
sg37
(lp3218
sg120
g3169
sg121
S'RWLSTKDLYSRLELPGLNQNVHAMFVMPLGFGNPMGDMFARLNNSFWLPPLSLEGAGTGWTVYPPLSHSGPSVDLAFHLTSSLLGAINFTNMRGPLFWTALLLLSLPVLAGTLLDRNFNTFEGGDPLYHLFWFFGHPEVYIIPGFGSHSTYKKFGMYASIGLGFVWSHHMYVGLDDRAYFLSATMIAPTGIKFSWLATYGGRPMLAFLFLFTGGTGVLNASDAFHDLYYVVHFHYVLSMGAFSLGYYYWPGLYNLFWFNFPMHFLGGMPRRPYPDAGWNSGSSYQLGPDESNEPH'
p3219
sg123
F0.00038000000000000002
sg124
g125
sg33
S'126'
p3220
sg127
g1
(g128
g12
(dp3221
g130
I4
sg131
g132
sg133
g134
sg135
g132
sg136
I01
sg34
g137
sg138
g134
sg139
I0
sg140
I0
sg141
I0
sg142
g134
sg35
g143
sg144
I0
stRp3222
sg146
g147
sg148
F1
sg149
Nsg30
S'LkluyC'
p3223
sbasg120
g3156
sg123
F1.0000000000000001e-05
sg124
g125
sg33
S'124'
p3224
sg127
g1
(g128
g12
(dp3225
g130
I6
sg131
g132
sg133
g134
sg135
g132
sg136
I01
sg34
g173
sg138
g134
sg139
I0
sg140
I0
sg141
I0
sg142
g134
sg35
g174
sg144
I0
stRp3226
sg146
g147
sg148
F1
sg149
Nsg30
S'NoName'
p3227
sbag1
(g2
g3
NtRp3228
(dp3229
g6
g1
(g7
g3
NtRp3230
(dp3231
g10
g1
(g11
g12
(dtRp3232
sg14
g1
(g11
g12
(dtRp3233
sg16
g1
(g11
g12
(dtRp3234
sg18
g1
(g11
g12
(dtRp3235
sg20
g1
(g11
g12
(dtRp3236
sg22
g1
(g11
g12
(dtRp3237
sbsg24
S'Lkl'
p3238
sg26
g27
((lp3239
g29
ag30
aS'sequence'
p3240
ag32
ag33
aS'species'
p3241
atRp3242
sg37
(lp3243
sg120
g3156
sg121
S'RWLSTKDLYSRLELPGLNQNVHAMFVMPLGFGNPMGDMFARLNNSFWLPPLSLEGAGTGWTVYPPLSHSGPSVDLAFHLTSSLLGAINFTNMRGPLFWTALLLLSLPVLAGTLLDRNFNTFEGGDPLYHLFWFFGHPEVYIIPGFGSHSTYKKFGMYASIGLGFVWSHHMYVGLDDRAYFLSATMIAPTGIKFSWLATYGGRPMLAFLFLFTGGTGVLNASDAFHDLYYVVHFHYVLSMGAFSLGYYYWPGLYNLFWFNFPMHFLGGMPRRPYPDAGWNSGSSYQLGPDESNEPH'
p3244
sg123
F0.00040999999999999999
sg124
g125
sg33
S'72'
p3245
sg127
g1
(g128
g12
(dp3246
g130
I4
sg131
g132
sg133
g134
sg135
g132
sg136
I01
sg34
g137
sg138
g134
sg139
I0
sg140
I0
sg141
I0
sg142
g134
sg35
g143
sg144
I0
stRp3247
sg146
g147
sg148
F1
sg149
Nsg30
S'LkluyB'
p3248
sbasg120
g3143
sg123
F1.0000000000000001e-05
sg124
g125
sg33
S'71'
p3249
sg127
g1
(g128
g12
(dp3250
g130
I6
sg131
g132
sg133
g134
sg135
g132
sg136
I01
sg34
g173
sg138
g134
sg139
I0
sg140
I0
sg141
I0
sg142
g134
sg35
g174
sg144
I0
stRp3251
sg146
g147
sg148
F1
sg149
Nsg30
S'NoName'
p3252
sbag1
(g2
g3
NtRp3253
(dp3254
g6
g1
(g7
g3
NtRp3255
(dp3256
g10
g1
(g11
g12
(dtRp3257
sg14
g1
(g11
g12
(dtRp3258
sg16
g1
(g11
g12
(dtRp3259
sg18
g1
(g11
g12
(dtRp3260
sg20
g1
(g11
g12
(dtRp3261
sg22
g1
(g11
g12
(dtRp3262
sbsg24
S'Lkl'
p3263
sg26
g27
((lp3264
g29
ag30
aS'sequence'
p3265
ag32
ag33
aS'species'
p3266
atRp3267
sg37
(lp3268
sg120
g3143
sg121
S'RWLSTKDLYSRLELPGLNQNVHAMFVMPLGFGNPMGDMFARLNNSFWLPPLSLEGAGTGWTVYPPLSHSGPSVDLAFHLTSSLLGAINFTNMRGPLFWTALLLLSLPVLAGTLLDRNFNTFEGGDPLYHLFWFFGHPEVYIIPGFGSHSTYKKFGMYASIGLGFVWSHHMYVGLDDRAYFLSATMIAPTGIKFSWLATYGGRPMLAFLFLFTGGTGVLNASDAFHDLYYVVHFHYVLSMGAFSLGYYYWPGLYNLFWFNFPMHFLGGMPRRPYPDAGWNSGSSYQLGPDESNEPH'
p3269
sg123
F0.00040999999999999999
sg124
g125
sg33
S'39'
p3270
sg127
g1
(g128
g12
(dp3271
g130
I4
sg131
g132
sg133
g134
sg135
g132
sg136
I01
sg34
g137
sg138
g134
sg139
I0
sg140
I0
sg141
I0
sg142
g134
sg35
g143
sg144
I0
stRp3272
sg146
g147
sg148
F1
sg149
Nsg30
S'LkluyA'
p3273
sbasg120
g3071
sg123
F0.0035300000000000002
sg124
g125
sg33
S'170'
p3274
sg127
g1
(g128
g12
(dp3275
g130
I6
sg131
g132
sg133
g134
sg135
g132
sg136
I01
sg34
g173
sg138
g134
sg139
I0
sg140
I0
sg141
I0
sg142
g134
sg35
g174
sg144
I0
stRp3276
sg146
g147
sg148
F0.91000000000000003
sg149
Nsg30
S'NoName'
p3277
sbasg120
g3058
sg123
F0.054280000000000002
sg124
g125
sg33
S'129'
p3278
sg127
g1
(g128
g12
(dp3279
g130
I6
sg131
g132
sg133
g134
sg135
g132
sg136
I01
sg34
g173
sg138
g134
sg139
I0
sg140
I0
sg141
I0
sg142
g134
sg35
g174
sg144
I0
stRp3280
sg146
g147
sg148
F0.98999999999999999
sg149
Nsg30
S'NoName'
p3281
sbag1
(g2
g3
NtRp3282
(dp3283
g6
g1
(g7
g3
NtRp3284
(dp3285
g10
g1
(g11
g12
(dtRp3286
sg14
g1
(g11
g12
(dtRp3287
sg16
g1
(g11
g12
(dtRp3288
sg18
g1
(g11
g12
(dtRp3289
sg20
g1
(g11
g12
(dtRp3290
sg22
g1
(g11
g12
(dtRp3291
sbsg24
g25
sg26
g27
((lp3292
g33
ag32
ag29
ag30
atRp3293
sg37
(lp3294
g1
(g2
g3
NtRp3295
(dp3296
g6
g1
(g7
g3
NtRp3297
(dp3298
g10
g1
(g11
g12
(dtRp3299
sg14
g1
(g11
g12
(dtRp3300
sg16
g1
(g11
g12
(dtRp3301
sg18
g1
(g11
g12
(dtRp3302
sg20
g1
(g11
g12
(dtRp3303
sg22
g1
(g11
g12
(dtRp3304
sbsg24
S'Lan'
p3305
sg26
g27
((lp3306
g29
ag30
aS'sequence'
p3307
ag32
ag33
aS'species'
p3308
atRp3309
sg37
(lp3310
sg120
g3282
sg121
S'RWLSTKDLYSRLELPGLNQNVHAMFVMPLGFGNPMGDMFARLNNSFWLPPLSLEGAGTGWTLYPPLSHSGPSVDLAFHLTSSLLGAINFTNMRGPLFWTALLLLSLPVLAGTVLDRNFNTFEGGDPLYHLFWFFGHPEVYIIPGFGSHSTYKKFGMYASIGLGFVWSHHMYVGLDDRAYFTSATMIAPTGIKFSWLALYGGRPMLAFLFLFTGGTGVLNASDAFHDTYYVVHFHYVLSMGAFSLGYYYWPGLYNLFWFNFPMHFLGGMPRRPYPDAGWNSGSSYQLGPDESNEPH'
p3311
sg123
F0.10922999999999999
sg124
g125
sg33
S'181'
p3312
sg127
g1
(g128
g12
(dp3313
g130
I4
sg131
g132
sg133
g134
sg135
g132
sg136
I01
sg34
g137
sg138
g134
sg139
I0
sg140
I0
sg141
I0
sg142
g134
sg35
g143
sg144
I0
stRp3314
sg146
g147
sg148
F1
sg149
Nsg30
S'LanspA'
p3315
sbag1
(g2
g3
NtRp3316
(dp3317
g6
g1
(g7
g3
NtRp3318
(dp3319
g10
g1
(g11
g12
(dtRp3320
sg14
g1
(g11
g12
(dtRp3321
sg16
g1
(g11
g12
(dtRp3322
sg18
g1
(g11
g12
(dtRp3323
sg20
g1
(g11
g12
(dtRp3324
sg22
g1
(g11
g12
(dtRp3325
sbsg24
g25
sg26
g27
((lp3326
g33
ag32
ag29
ag30
atRp3327
sg37
(lp3328
g1
(g2
g3
NtRp3329
(dp3330
g6
g1
(g7
g3
NtRp3331
(dp3332
g10
g1
(g11
g12
(dtRp3333
sg14
g1
(g11
g12
(dtRp3334
sg16
g1
(g11
g12
(dtRp3335
sg18
g1
(g11
g12
(dtRp3336
sg20
g1
(g11
g12
(dtRp3337
sg22
g1
(g11
g12
(dtRp3338
sbsg24
g25
sg26
g27
((lp3339
g33
ag32
ag29
ag30
atRp3340
sg37
(lp3341
g1
(g2
g3
NtRp3342
(dp3343
g6
g1
(g7
g3
NtRp3344
(dp3345
g10
g1
(g11
g12
(dtRp3346
sg14
g1
(g11
g12
(dtRp3347
sg16
g1
(g11
g12
(dtRp3348
sg18
g1
(g11
g12
(dtRp3349
sg20
g1
(g11
g12
(dtRp3350
sg22
g1
(g11
g12
(dtRp3351
sbsg24
S'Lno'
p3352
sg26
g27
((lp3353
g29
ag30
aS'sequence'
p3354
ag32
ag33
aS'species'
p3355
atRp3356
sg37
(lp3357
sg120
g3329
sg121
S'RWLSTKDLYSRLELPGLNQNVHAMFVMPLGFGNPMGDMFARLNNSFWLPPLSLEGAGTGWTIYPPLSHSGPSVDLAFHLTSSLLGAINFTNMRGPLFWTALLLLSLPVLAGTILDRNFNTFEGGDPLYHLFWFFGHPEVYIIPGFGSHSTYKKFGMYASIGLGFVWSHHMYVGLDDRAYFTSALMIAPTGIKFSWLALYGGRPMLAFLFLFTGGTGVLNASDAFHDTYYVVHFHYVLSMGAFSLGYYYWPGLYNLFWFNFPMHFLGGMPRRPYPDAGWNSGSSYQLGPDESNEPH'
p3358
sg123
F0.0075199999999999998
sg124
g125
sg33
S'0'
sg127
g1
(g128
g12
(dp3359
g130
I4
sg131
g132
sg133
g134
sg135
g132
sg136
I01
sg34
g137
sg138
g134
sg139
I0
sg140
I0
sg141
I0
sg142
g134
sg35
g143
sg144
I0
stRp3360
sg146
g147
sg148
F1
sg149
Nsg30
S'LnothA'
p3361
sbag1
(g2
g3
NtRp3362
(dp3363
g6
g1
(g7
g3
NtRp3364
(dp3365
g10
g1
(g11
g12
(dtRp3366
sg14
g1
(g11
g12
(dtRp3367
sg16
g1
(g11
g12
(dtRp3368
sg18
g1
(g11
g12
(dtRp3369
sg20
g1
(g11
g12
(dtRp3370
sg22
g1
(g11
g12
(dtRp3371
sbsg24
g25
sg26
g27
((lp3372
g33
ag32
ag29
ag30
atRp3373
sg37
(lp3374
g1
(g2
g3
NtRp3375
(dp3376
g6
g1
(g7
g3
NtRp3377
(dp3378
g10
g1
(g11
g12
(dtRp3379
sg14
g1
(g11
g12
(dtRp3380
sg16
g1
(g11
g12
(dtRp3381
sg18
g1
(g11
g12
(dtRp3382
sg20
g1
(g11
g12
(dtRp3383
sg22
g1
(g11
g12
(dtRp3384
sbsg24
S'Lda'
p3385
sg26
g27
((lp3386
g29
ag30
aS'sequence'
p3387
ag32
ag33
aS'species'
p3388
atRp3389
sg37
(lp3390
sg120
g3362
sg121
S'RWLSTKDLYSRLELPGLNQNVHAMFVMPLGFGNPMGDMFARLNNSFWLPPLSLEGAGTGWTVYPPLSHSGPSVDLAFHLTSSLLGAINFTNMRGPLFWTALLLLSLPVLAGTILDRNFNTFEGGDPLYHLFWFFGHPEVYIIPGFGSHSTYKKFGMYASIGLGFVWSHHMYVGLDDRAYFTSATMIAPTGIKFSWLALYGGRPMLAFLFLFTGGTGVLNASDAFHDTYYVVHFHYVLSMGAFSLGYYYWPGLYNLFWFNFPMHFLGGMPRRPYPDAGWNSGSSYQLGPDESNEPH'
p3391
sg123
F0.023539999999999998
sg124
g125
sg33
S'98'
p3392
sg127
g1
(g128
g12
(dp3393
g130
I4
sg131
g132
sg133
g134
sg135
g132
sg136
I01
sg34
g137
sg138
g134
sg139
I0
sg140
I0
sg141
I0
sg142
g134
sg35
g143
sg144
I0
stRp3394
sg146
g147
sg148
F1
sg149
Nsg30
S'LdasiA'
p3395
sbag1
(g2
g3
NtRp3396
(dp3397
g6
g1
(g7
g3
NtRp3398
(dp3399
g10
g1
(g11
g12
(dtRp3400
sg14
g1
(g11
g12
(dtRp3401
sg16
g1
(g11
g12
(dtRp3402
sg18
g1
(g11
g12
(dtRp3403
sg20
g1
(g11
g12
(dtRp3404
sg22
g1
(g11
g12
(dtRp3405
sbsg24
g25
sg26
g27
((lp3406
g33
ag32
ag29
ag30
atRp3407
sg37
(lp3408
g1
(g2
g3
NtRp3409
(dp3410
g6
g1
(g7
g3
NtRp3411
(dp3412
g10
g1
(g11
g12
(dtRp3413
sg14
g1
(g11
g12
(dtRp3414
sg16
g1
(g11
g12
(dtRp3415
sg18
g1
(g11
g12
(dtRp3416
sg20
g1
(g11
g12
(dtRp3417
sg22
g1
(g11
g12
(dtRp3418
sbsg24
S'Lme'
p3419
sg26
g27
((lp3420
g29
ag30
aS'sequence'
p3421
ag32
ag33
aS'species'
p3422
atRp3423
sg37
(lp3424
sg120
g3396
sg121
S'RWLSTKDLYSRLELPGLNQNVHAMFVMPLGFGNPMGDMFARLNNSFWLPPLSLEGAGTGWTVYPPLSHSGPSVDLAFHLTSSLLGAINFTNMRGPLFWTALLLLSLPVLAGTILDRNFNTFEGGDPLYHLFWFFGHPEVYIIPGFGSHSTYKKFGMYASIGLGFVWSHHMYVGLDDRAYFTSATMIAPTGIKFSWLALYGGRPMLAFLFLFTGGTGVLNASDAFHDTYYVVHFHYVLSMGAFSLGYYYWPGLYNLFWFNFPMHFLGGMPRRPYPDAGWNSGSSYQLGPDESNEPH'
p3425
sg123
F0.0050299999999999997
sg124
g125
sg33
S'221'
p3426
sg127
g1
(g128
g12
(dp3427
g130
I4
sg131
g132
sg133
g134
sg135
g132
sg136
I01
sg34
g137
sg138
g134
sg139
I0
sg140
I0
sg141
I0
sg142
g134
sg35
g143
sg144
I0
stRp3428
sg146
g147
sg148
F1
sg149
Nsg30
S'LmeyeA'
p3429
sbag1
(g2
g3
NtRp3430
(dp3431
g6
g1
(g7
g3
NtRp3432
(dp3433
g10
g1
(g11
g12
(dtRp3434
sg14
g1
(g11
g12
(dtRp3435
sg16
g1
(g11
g12
(dtRp3436
sg18
g1
(g11
g12
(dtRp3437
sg20
g1
(g11
g12
(dtRp3438
sg22
g1
(g11
g12
(dtRp3439
sbsg24
S'Lan'
p3440
sg26
g27
((lp3441
g29
ag30
aS'sequence'
p3442
ag32
ag33
aS'species'
p3443
atRp3444
sg37
(lp3445
sg120
g3396
sg121
S'RWLSTKDLYSRLELPGLNQNVHAMFVMPLGFGNPMGDMFARLNNSFWLPPLSLEGAGTGWTVYPPLSHSGPSVDLAFHLTSSLLGAINFTNMRGPLFWTALLLLSLPVLAGTILDRNFNTFEGGDPLYHLFWFFGHPEVYIIPGFGSHSTYKKFGMYASIGLGFVWSHHMYVGLDDRAYFTSALMIAPTGIKFSWLALYGGRPMLAFLFLFTGGTGVLNASDAFHDTYYVVHFHYVLSMGAFSLGYYYWPGLYNLFWFNFPMHFLGGMPRRPYPDAGWNSGSSYQLGPDESNEPH'
p3446
sg123
F0.012290000000000001
sg124
g125
sg33
S'8'
sg127
g1
(g128
g12
(dp3447
g130
I4
sg131
g132
sg133
g134
sg135
g132
sg136
I01
sg34
g137
sg138
g134
sg139
I0
sg140
I0
sg141
I0
sg142
g134
sg35
g143
sg144
I0
stRp3448
sg146
g147
sg148
F1
sg149
Nsg30
S'LanspB'
p3449
sbasg120
g3362
sg123
F0.012070000000000001
sg124
g125
sg33
S'191'
p3450
sg127
g1
(g128
g12
(dp3451
g130
I6
sg131
g132
sg133
g134
sg135
g132
sg136
I01
sg34
g173
sg138
g134
sg139
I0
sg140
I0
sg141
I0
sg142
g134
sg35
g174
sg144
I0
stRp3452
sg146
g147
sg148
F0.98999999999999999
sg149
Nsg30
S'NoName'
p3453
sbasg120
g3329
sg123
F0.0088199999999999997
sg124
g125
sg33
S'97'
p3454
sg127
g1
(g128
g12
(dp3455
g130
I6
sg131
g132
sg133
g134
sg135
g132
sg136
I01
sg34
g173
sg138
g134
sg139
I0
sg140
I0
sg141
I0
sg142
g134
sg35
g174
sg144
I0
stRp3456
sg146
g147
sg148
F0.95999999999999996
sg149
Nsg30
S'NoName'
p3457
sbasg120
g3316
sg123
F0.016570000000000001
sg124
g125
sg33
S'153'
p3458
sg127
g1
(g128
g12
(dp3459
g130
I6
sg131
g132
sg133
g134
sg135
g132
sg136
I01
sg34
g173
sg138
g134
sg139
I0
sg140
I0
sg141
I0
sg142
g134
sg35
g174
sg144
I0
stRp3460
sg146
g147
sg148
F0.94999999999999996
sg149
Nsg30
S'NoName'
p3461
sbag1
(g2
g3
NtRp3462
(dp3463
g6
g1
(g7
g3
NtRp3464
(dp3465
g10
g1
(g11
g12
(dtRp3466
sg14
g1
(g11
g12
(dtRp3467
sg16
g1
(g11
g12
(dtRp3468
sg18
g1
(g11
g12
(dtRp3469
sg20
g1
(g11
g12
(dtRp3470
sg22
g1
(g11
g12
(dtRp3471
sbsg24
S'Kth'
p3472
sg26
g27
((lp3473
g29
ag30
aS'sequence'
p3474
ag32
ag33
aS'species'
p3475
atRp3476
sg37
(lp3477
sg120
g3316
sg121
S'RWLSTKDLYSRLELPGLNQNVHAMFVMPLGFGNPMGDMFARLNNSFWLPPLSLEGAGTGWTVYPPLSHSGPSVDLAFHLTSSLLGAINFTNMRGPLFWTALLLLSLPVLAGTILDRNFNTFEGGDPLYHLFWFFGHPEVYIIPGFGSHSTYKKFGMYASIGLGFVWSHHMYVGLDDRAYFTSATMIAPTGIKFSWLALYGGRPMLAFLFLFTGGTGVLNASDAFHDTYYVVHFHYVLSMGAFSLGYYYWPGLYNLFWFNFPMHFLGGMPRRPYPDAGWNSGSSYQLGPDESNEPH'
p3478
sg123
F0.021499999999999998
sg124
g125
sg33
S'110'
p3479
sg127
g1
(g128
g12
(dp3480
g130
I4
sg131
g132
sg133
g134
sg135
g132
sg136
I01
sg34
g137
sg138
g134
sg139
I0
sg140
I0
sg141
I0
sg142
g134
sg35
g143
sg144
I0
stRp3481
sg146
g147
sg148
F1
sg149
Nsg30
S'KtherA'
p3482
sbasg120
g3282
sg123
F0.033250000000000002
sg124
g125
sg33
S'109'
p3483
sg127
g1
(g128
g12
(dp3484
g130
I6
sg131
g132
sg133
g134
sg135
g132
sg136
I01
sg34
g173
sg138
g134
sg139
I0
sg140
I0
sg141
I0
sg142
g134
sg35
g174
sg144
I0
stRp3485
sg146
g147
sg148
F0.93999999999999995
sg149
Nsg30
S'NoName'
p3486
sbasg120
g3058
sg123
F0.038859999999999999
sg124
g125
sg33
S'195'
p3487
sg127
g1
(g128
g12
(dp3488
g130
I6
sg131
g132
sg133
g134
sg135
g132
sg136
I01
sg34
g173
sg138
g134
sg139
I0
sg140
I0
sg141
I0
sg142
g134
sg35
g174
sg144
I0
stRp3489
sg146
g147
sg148
F0.92000000000000004
sg149
Nsg30
S'NoName'
p3490
sbasg120
g3045
sg123
F0.050380000000000001
sg124
g125
sg33
S'154'
p3491
sg127
g1
(g128
g12
(dp3492
g130
I6
sg131
g132
sg133
g134
sg135
g132
sg136
I01
sg34
g173
sg138
g134
sg139
I0
sg140
I0
sg141
I0
sg142
g134
sg35
g174
sg144
I0
stRp3493
sg146
g147
sg148
F0.89000000000000001
sg149
Nsg30
S'NoName'
p3494
sbag1
(g2
g3
NtRp3495
(dp3496
g6
g1
(g7
g3
NtRp3497
(dp3498
g10
g1
(g11
g12
(dtRp3499
sg14
g1
(g11
g12
(dtRp3500
sg16
g1
(g11
g12
(dtRp3501
sg18
g1
(g11
g12
(dtRp3502
sg20
g1
(g11
g12
(dtRp3503
sg22
g1
(g11
g12
(dtRp3504
sbsg24
g25
sg26
g27
((lp3505
g33
ag32
ag29
ag30
atRp3506
sg37
(lp3507
g1
(g2
g3
NtRp3508
(dp3509
g6
g1
(g7
g3
NtRp3510
(dp3511
g10
g1
(g11
g12
(dtRp3512
sg14
g1
(g11
g12
(dtRp3513
sg16
g1
(g11
g12
(dtRp3514
sg18
g1
(g11
g12
(dtRp3515
sg20
g1
(g11
g12
(dtRp3516
sg22
g1
(g11
g12
(dtRp3517
sbsg24
S'Kma'
p3518
sg26
g27
((lp3519
g29
ag30
aS'sequence'
p3520
ag32
ag33
aS'species'
p3521
atRp3522
sg37
(lp3523
sg120
g3495
sg121
S'RWLSTKDLYSRLELPGLNQNVHAMFVMPLGFGNPMGDMFARLNNSFWLPPLSLEGAGTGWTVYPPLSHSGPSVDLAFHLTSSLLGAINFTNMRGPLFWTALLLLSLPVLAGTLLDRNFNTFEGGDPLYHLFWFFGHPEVYIIPGFGSHSTYKKFGMYASIGLGFVWSHHMYVGLDDRAYFTSATMIAPTGIKFSWLATYGGRPMLAFLFLFTGGTGVLNASDAFHDTYYVVHFHYVLSMGAFSLGYYYWPGLYNLFWFNFPMHFLGGMPRRPYPDAGWNSGSSYQLGPDESNEPH'
p3524
sg123
F0.04018
sg124
g125
sg33
S'218'
p3525
sg127
g1
(g128
g12
(dp3526
g130
I4
sg131
g132
sg133
g134
sg135
g132
sg136
I01
sg34
g137
sg138
g134
sg139
I0
sg140
I0
sg141
I0
sg142
g134
sg35
g143
sg144
I0
stRp3527
sg146
g147
sg148
F1
sg149
Nsg30
S'KmarxA'
p3528
sbag1
(g2
g3
NtRp3529
(dp3530
g6
g1
(g7
g3
NtRp3531
(dp3532
g10
g1
(g11
g12
(dtRp3533
sg14
g1
(g11
g12
(dtRp3534
sg16
g1
(g11
g12
(dtRp3535
sg18
g1
(g11
g12
(dtRp3536
sg20
g1
(g11
g12
(dtRp3537
sg22
g1
(g11
g12
(dtRp3538
sbsg24
S'Kla'
p3539
sg26
g27
((lp3540
g29
ag30
aS'sequence'
p3541
ag32
ag33
aS'species'
p3542
atRp3543
sg37
(lp3544
sg120
g3495
sg121
S'RWLSTKDLYSRLELPGLNQNVHAMFVMPLGFGNPLGDMFARLNNSFWLPPLSLEGAGTGWTVYPPLSHSGPSVDLAFHLTSSLLGAINFTNMRGPLFWTALLLLSLPVLAGTLLDRNFNTFEGGDPLYHLFWFFGHPEVYIIPGFGSHSTYKKFGMYASIGLGFVWSHHMYVGLDDRAYFTSATMIAPTGIKFSWLATYGGRPMLAFLFLFTGGTGVLNASDAFHDTYYVVHFHYVLSMGAFSLGYYYWPGLYNLFWFNFPMHFLGGMPRRPYPDAGWNSGSSYQLGPDESNEPH'
p3545
sg123
F0.043529999999999999
sg124
g125
sg33
S'222'
p3546
sg127
g1
(g128
g12
(dp3547
g130
I4
sg131
g132
sg133
g134
sg135
g132
sg136
I01
sg34
g137
sg138
g134
sg139
I0
sg140
I0
sg141
I0
sg142
g134
sg35
g143
sg144
I0
stRp3548
sg146
g147
sg148
F1
sg149
Nsg30
S'KlactA'
p3549
sbasg120
g3045
sg123
F0.13938999999999999
sg124
g125
sg33
S'127'
p3550
sg127
g1
(g128
g12
(dp3551
g130
I6
sg131
g132
sg133
g134
sg135
g132
sg136
I01
sg34
g173
sg138
g134
sg139
I0
sg140
I0
sg141
I0
sg142
g134
sg35
g174
sg144
I0
stRp3552
sg146
g147
sg148
F0.98999999999999999
sg149
Nsg30
S'NoName'
p3553
sbasg120
g3032
sg123
F1.0000000000000001e-05
sg124
g125
sg33
S'159'
p3554
sg127
g1
(g128
g12
(dp3555
g130
I6
sg131
g132
sg133
g134
sg135
g132
sg136
I01
sg34
g173
sg138
g134
sg139
I0
sg140
I0
sg141
I0
sg142
g134
sg35
g174
sg144
I0
stRp3556
sg146
g147
sg148
F1
sg149
Nsg30
S'NoName'
p3557
sbag1
(g2
g3
NtRp3558
(dp3559
g6
g1
(g7
g3
NtRp3560
(dp3561
g10
g1
(g11
g12
(dtRp3562
sg14
g1
(g11
g12
(dtRp3563
sg16
g1
(g11
g12
(dtRp3564
sg18
g1
(g11
g12
(dtRp3565
sg20
g1
(g11
g12
(dtRp3566
sg22
g1
(g11
g12
(dtRp3567
sbsg24
g25
sg26
g27
((lp3568
g33
ag32
ag29
ag30
atRp3569
sg37
(lp3570
g1
(g2
g3
NtRp3571
(dp3572
g6
g1
(g7
g3
NtRp3573
(dp3574
g10
g1
(g11
g12
(dtRp3575
sg14
g1
(g11
g12
(dtRp3576
sg16
g1
(g11
g12
(dtRp3577
sg18
g1
(g11
g12
(dtRp3578
sg20
g1
(g11
g12
(dtRp3579
sg22
g1
(g11
g12
(dtRp3580
sbsg24
S'Huv'
p3581
sg26
g27
((lp3582
g29
ag30
aS'sequence'
p3583
ag32
ag33
aS'species'
p3584
atRp3585
sg37
(lp3586
sg120
g3558
sg121
S'-MITTKDLYSRLELSGINHNSHAMFIMPIGFGNPAGDMFPRLNNSFWLVPVSLEGAGTGWTVYYPLSHSSVSVDLVFHCLSSLLGAINFTNFL-SLFWLALLLLSLPVLVGTLLDRNFNLYEGGDPLYHLFWFFGHPEVYIIPAFGSMSAYSKFGMYASIGLGFVWVHHMFVGLDDRAYFTSATMIAPLGIKFSWLALIGGRPVLAFLVLFLGGTGVLNASDAFHDTYYVVHFHYVLSLGAFGIGYYYWPGLYNLFVVNFPMHYLGGMPRRSYPDSAWNTGASVQLGTDLLPEPH'
p3587
sg123
F3.9441199999999998
sg124
g125
sg33
S'219'
p3588
sg127
g1
(g128
g12
(dp3589
g130
I4
sg131
g132
sg133
g134
sg135
g132
sg136
I01
sg34
g137
sg138
g134
sg139
I0
sg140
I0
sg141
I0
sg142
g134
sg35
g143
sg144
I0
stRp3590
sg146
g147
sg148
F1
sg149
Nsg30
S'HuvarA'
p3591
sbag1
(g2
g3
NtRp3592
(dp3593
g6
g1
(g7
g3
NtRp3594
(dp3595
g10
g1
(g11
g12
(dtRp3596
sg14
g1
(g11
g12
(dtRp3597
sg16
g1
(g11
g12
(dtRp3598
sg18
g1
(g11
g12
(dtRp3599
sg20
g1
(g11
g12
(dtRp3600
sg22
g1
(g11
g12
(dtRp3601
sbsg24
g25
sg26
g27
((lp3602
g33
ag32
ag29
ag30
atRp3603
sg37
(lp3604
g1
(g2
g3
NtRp3605
(dp3606
g6
g1
(g7
g3
NtRp3607
(dp3608
g10
g1
(g11
g12
(dtRp3609
sg14
g1
(g11
g12
(dtRp3610
sg16
g1
(g11
g12
(dtRp3611
sg18
g1
(g11
g12
(dtRp3612
sg20
g1
(g11
g12
(dtRp3613
sg22
g1
(g11
g12
(dtRp3614
sbsg24
g25
sg26
g27
((lp3615
g33
ag32
ag29
ag30
atRp3616
sg37
(lp3617
g1
(g2
g3
NtRp3618
(dp3619
g6
g1
(g7
g3
NtRp3620
(dp3621
g10
g1
(g11
g12
(dtRp3622
sg14
g1
(g11
g12
(dtRp3623
sg16
g1
(g11
g12
(dtRp3624
sg18
g1
(g11
g12
(dtRp3625
sg20
g1
(g11
g12
(dtRp3626
sg22
g1
(g11
g12
(dtRp3627
sbsg24
g25
sg26
g27
((lp3628
g33
ag32
ag29
ag30
atRp3629
sg37
(lp3630
g1
(g2
g3
NtRp3631
(dp3632
g6
g1
(g7
g3
NtRp3633
(dp3634
g10
g1
(g11
g12
(dtRp3635
sg14
g1
(g11
g12
(dtRp3636
sg16
g1
(g11
g12
(dtRp3637
sg18
g1
(g11
g12
(dtRp3638
sg20
g1
(g11
g12
(dtRp3639
sg22
g1
(g11
g12
(dtRp3640
sbsg24
S'Sse'
p3641
sg26
g27
((lp3642
g29
ag30
aS'sequence'
p3643
ag32
ag33
aS'species'
p3644
atRp3645
sg37
(lp3646
sg120
g3618
sg121
S'RWLSTKDMYSRMELPGLNQNVHAMFAMPLGFGNPMGDMFPRINSGFWLPMLSLEGAGTGWTVYPPLSHSGPSVDLAFHLTSSLLGAINFTNMRGPLFWTALLLLSLPVLAGTLLDRNFNTFEGGDPFYHAFWFFGHPEVYIIPGFGSHSTYKKFGMYASIGLGFVWSHHMYVGLDDRAYFTSATMIAPTGIKFSWLALYGGRPMMAFLFLFTGGTGVLNASDAFHDTYYVVHFHYVLSMGAFSLGYYYWPGLYNLFWFNFPMHFLGGMPRRPYPDAGWNSGSSYQIGPDESNEPH'
p3647
sg123
F0.29805999999999999
sg124
g125
sg33
S'44'
p3648
sg127
g1
(g128
g12
(dp3649
g130
I4
sg131
g132
sg133
g134
sg135
g132
sg136
I01
sg34
g137
sg138
g134
sg139
I0
sg140
I0
sg141
I0
sg142
g134
sg35
g143
sg144
I0
stRp3650
sg146
g147
sg148
F1
sg149
Nsg30
S'SservA'
p3651
sbag1
(g2
g3
NtRp3652
(dp3653
g6
g1
(g7
g3
NtRp3654
(dp3655
g10
g1
(g11
g12
(dtRp3656
sg14
g1
(g11
g12
(dtRp3657
sg16
g1
(g11
g12
(dtRp3658
sg18
g1
(g11
g12
(dtRp3659
sg20
g1
(g11
g12
(dtRp3660
sg22
g1
(g11
g12
(dtRp3661
sbsg24
S'Sca'
p3662
sg26
g27
((lp3663
g29
ag30
aS'sequence'
p3664
ag32
ag33
aS'species'
p3665
atRp3666
sg37
(lp3667
sg120
g3618
sg121
S'RWLSTKDLYSRLELPGLNQNVHAMFVMPLGFGNPMGDTFPRINNGFWLPMLSLEGAGTGWTVYPPLAHSGPSVDLAFHMTSSLLGAINFTNMRGPLFWTALLLLTLPVLAGTLLDRNFNTFEGGDPLYHLFWFFGHPEVYIIPGFGSHSTYKKFGMYASIGLGLVWSHHMYVGLDDRAYFTSATMIAPTGIKFSWLATYGGRPMLAFLFLFTGGTGVLNASDAFHDLYYVVHFHYVLSMGAFSLGYYYWPGLYNLFWFNFPMHFLGGMPRRPYPDAGWNSGASYQLGPDESNEPH'
p3668
sg123
F0.30890000000000001
sg124
g125
sg33
S'214'
p3669
sg127
g1
(g128
g12
(dp3670
g130
I4
sg131
g132
sg133
g134
sg135
g132
sg136
I01
sg34
g137
sg138
g134
sg139
I0
sg140
I0
sg141
I0
sg142
g134
sg35
g143
sg144
I0
stRp3671
sg146
g147
sg148
F1
sg149
Nsg30
S'ScastA'
p3672
sbasg120
g3605
sg123
F0.072319999999999995
sg124
g125
sg33
S'38'
p3673
sg127
g1
(g128
g12
(dp3674
g130
I6
sg131
g132
sg133
g134
sg135
g132
sg136
I01
sg34
g173
sg138
g134
sg139
I0
sg140
I0
sg141
I0
sg142
g134
sg35
g174
sg144
I0
stRp3675
sg146
g147
sg148
F0.98999999999999999
sg149
Nsg30
S'NoName'
p3676
sbag1
(g2
g3
NtRp3677
(dp3678
g6
g1
(g7
g3
NtRp3679
(dp3680
g10
g1
(g11
g12
(dtRp3681
sg14
g1
(g11
g12
(dtRp3682
sg16
g1
(g11
g12
(dtRp3683
sg18
g1
(g11
g12
(dtRp3684
sg20
g1
(g11
g12
(dtRp3685
sg22
g1
(g11
g12
(dtRp3686
sbsg24
g25
sg26
g27
((lp3687
g33
ag32
ag29
ag30
atRp3688
sg37
(lp3689
g1
(g2
g3
NtRp3690
(dp3691
g6
g1
(g7
g3
NtRp3692
(dp3693
g10
g1
(g11
g12
(dtRp3694
sg14
g1
(g11
g12
(dtRp3695
sg16
g1
(g11
g12
(dtRp3696
sg18
g1
(g11
g12
(dtRp3697
sg20
g1
(g11
g12
(dtRp3698
sg22
g1
(g11
g12
(dtRp3699
sbsg24
S'Spa'
p3700
sg26
g27
((lp3701
g29
ag30
aS'sequence'
p3702
ag32
ag33
aS'species'
p3703
atRp3704
sg37
(lp3705
sg120
g3677
sg121
S'RWLSTKDLYSRLELPGLNQNVHAMFVMPLGFGNPMGDTFPRINNAFWLPMLSLEGAGTGWTVYPPLSHSGPSVDLAFHLTSSLLGAINFTNMRGPLFWTALLLLSLPVLAGTLLDRNFNTFEGGDPLYHLFWFFGHPEVYIIPGFGSHSTYKKFGMYASIGLGFVWSHHMYVGLDDRAYFLSATMIAPTGIKFSWLATYGGRPMLAFLFLFTGGTGVLNASDAFHDTYYVVHFHYVLSMGAFSLGYYYWPGLYNLFWFNFPMHFLGGMPRRPYPDAGWNSGSSYQLGPDESNEPH'
p3706
sg123
F0.029780000000000001
sg124
g125
sg33
S'5'
sg127
g1
(g128
g12
(dp3707
g130
I4
sg131
g132
sg133
g134
sg135
g132
sg136
I01
sg34
g137
sg138
g134
sg139
I0
sg140
I0
sg141
I0
sg142
g134
sg35
g143
sg144
I0
stRp3708
sg146
g147
sg148
F1
sg149
Nsg30
S'SpastA'
p3709
sbag1
(g2
g3
NtRp3710
(dp3711
g6
g1
(g7
g3
NtRp3712
(dp3713
g10
g1
(g11
g12
(dtRp3714
sg14
g1
(g11
g12
(dtRp3715
sg16
g1
(g11
g12
(dtRp3716
sg18
g1
(g11
g12
(dtRp3717
sg20
g1
(g11
g12
(dtRp3718
sg22
g1
(g11
g12
(dtRp3719
sbsg24
g25
sg26
g27
((lp3720
g33
ag32
ag29
ag30
atRp3721
sg37
(lp3722
g1
(g2
g3
NtRp3723
(dp3724
g6
g1
(g7
g3
NtRp3725
(dp3726
g10
g1
(g11
g12
(dtRp3727
sg14
g1
(g11
g12
(dtRp3728
sg16
g1
(g11
g12
(dtRp3729
sg18
g1
(g11
g12
(dtRp3730
sg20
g1
(g11
g12
(dtRp3731
sg22
g1
(g11
g12
(dtRp3732
sbsg24
g25
sg26
g27
((lp3733
g33
ag32
ag29
ag30
atRp3734
sg37
(lp3735
g1
(g2
g3
NtRp3736
(dp3737
g6
g1
(g7
g3
NtRp3738
(dp3739
g10
g1
(g11
g12
(dtRp3740
sg14
g1
(g11
g12
(dtRp3741
sg16
g1
(g11
g12
(dtRp3742
sg18
g1
(g11
g12
(dtRp3743
sg20
g1
(g11
g12
(dtRp3744
sg22
g1
(g11
g12
(dtRp3745
sbsg24
S'Sce'
p3746
sg26
g27
((lp3747
g29
ag30
aS'sequence'
p3748
ag32
ag33
aS'species'
p3749
atRp3750
sg37
(lp3751
sg120
g3723
sg121
S'RWLSTKDLYSRLELPGLNQNVHAMFVMPLGFGNPMGDTFPRINNAFWLPMLSLEGAGTGWTVYPPLSHSGPSVDLAFHLTSSLLGAINFTNMRGPLFWTALLLLSLPVLAGTLLDRNFNTFEGGDPLYHLFWFFGHPEVYIIPGFGSHSTYKKFGMYASIGLGFVWSHHMYVGLDDRAYFLSALMIAPTGIKFSWLALYGGRPMLAFLFLFTGGTGVLNASDAFHDTYYVVHFHYVLSMGAFSLGYYYWPGLYNLFWFNFPMHFLGGMPRRPYPDAGWNSGSSYQLGPDESNEPH'
p3752
sg123
F0.0038700000000000002
sg124
g125
sg33
S'134'
p3753
sg127
g1
(g128
g12
(dp3754
g130
I4
sg131
g132
sg133
g134
sg135
g132
sg136
I01
sg34
g137
sg138
g134
sg139
I0
sg140
I0
sg141
I0
sg142
g134
sg35
g143
sg144
I0
stRp3755
sg146
g147
sg148
F1
sg149
Nsg30
S'ScereD'
p3756
sbag1
(g2
g3
NtRp3757
(dp3758
g6
g1
(g7
g3
NtRp3759
(dp3760
g10
g1
(g11
g12
(dtRp3761
sg14
g1
(g11
g12
(dtRp3762
sg16
g1
(g11
g12
(dtRp3763
sg18
g1
(g11
g12
(dtRp3764
sg20
g1
(g11
g12
(dtRp3765
sg22
g1
(g11
g12
(dtRp3766
sbsg24
g25
sg26
g27
((lp3767
g33
ag32
ag29
ag30
atRp3768
sg37
(lp3769
g1
(g2
g3
NtRp3770
(dp3771
g6
g1
(g7
g3
NtRp3772
(dp3773
g10
g1
(g11
g12
(dtRp3774
sg14
g1
(g11
g12
(dtRp3775
sg16
g1
(g11
g12
(dtRp3776
sg18
g1
(g11
g12
(dtRp3777
sg20
g1
(g11
g12
(dtRp3778
sg22
g1
(g11
g12
(dtRp3779
sbsg24
S'Sce'
p3780
sg26
g27
((lp3781
g29
ag30
aS'sequence'
p3782
ag32
ag33
aS'species'
p3783
atRp3784
sg37
(lp3785
sg120
g3757
sg121
S'RWLSTKDLYSRLELPGLNQNVHAMFVMPLGFGNPMGDTFPRINNAFWLPMLSLEGAGTGWTVYPPLSHSGPSVDLAFHLTSSLLGAINFTNMRGPLFWTALLLLSLPVLAGTLLDRNFNTFEGGDPLYHLFWFFGHPEVYIIPGFGSHSTYKKFGMYASIGLGFVWSHHMYVGLDDRAYFLSALMIAPTGIKFSWLALYGGRPMLAFLFLFTGGTGVLNASDAFHDTYYVVHFHYVLSMGAFSLGYYYWPGLYNLFWFNFPMHFLGGMPRRPYPDAGWNSGSSYQLGPDESNEPH'
p3786
sg123
F0.0075900000000000004
sg124
g125
sg33
S'132'
p3787
sg127
g1
(g128
g12
(dp3788
g130
I4
sg131
g132
sg133
g134
sg135
g132
sg136
I01
sg34
g137
sg138
g134
sg139
I0
sg140
I0
sg141
I0
sg142
g134
sg35
g143
sg144
I0
stRp3789
sg146
g147
sg148
F1
sg149
Nsg30
S'ScereE'
p3790
sbag1
(g2
g3
NtRp3791
(dp3792
g6
g1
(g7
g3
NtRp3793
(dp3794
g10
g1
(g11
g12
(dtRp3795
sg14
g1
(g11
g12
(dtRp3796
sg16
g1
(g11
g12
(dtRp3797
sg18
g1
(g11
g12
(dtRp3798
sg20
g1
(g11
g12
(dtRp3799
sg22
g1
(g11
g12
(dtRp3800
sbsg24
g25
sg26
g27
((lp3801
g33
ag32
ag29
ag30
atRp3802
sg37
(lp3803
g1
(g2
g3
NtRp3804
(dp3805
g6
g1
(g7
g3
NtRp3806
(dp3807
g10
g1
(g11
g12
(dtRp3808
sg14
g1
(g11
g12
(dtRp3809
sg16
g1
(g11
g12
(dtRp3810
sg18
g1
(g11
g12
(dtRp3811
sg20
g1
(g11
g12
(dtRp3812
sg22
g1
(g11
g12
(dtRp3813
sbsg24
S'Sce'
p3814
sg26
g27
((lp3815
g29
ag30
aS'sequence'
p3816
ag32
ag33
aS'species'
p3817
atRp3818
sg37
(lp3819
sg120
g3791
sg121
S'RWLSTKDLYSRLELPGLNQNVHAMFVMPLGFGNPMGDTFPRINNAFWLPMLSLEGAGTGWTVYPPLSHSGPSVDLAFHLTSSLLGAINFTNMRGPLFWTALLLLSLPVLAGTLLDRNFNTFEGGDPLYHLFWFFGHPEVYIIPGFGSHSTYKKFGMYASIGLGFVWSHHMYVGLDDRAYFLSALMIAPTGIKFSWLALHGGRPMLAFLFLFTGGTGVLNASDAFHDTYYVVHFHYVLSMGAFSLGYYYWPGLYNLFWFNFPMHFLGGMPRRPYPDAGWNSGSSYQLGPDESNEPH'
p3820
sg123
F0.0053899999999999998
sg124
g125
sg33
S'163'
p3821
sg127
g1
(g128
g12
(dp3822
g130
I4
sg131
g132
sg133
g134
sg135
g132
sg136
I01
sg34
g137
sg138
g134
sg139
I0
sg140
I0
sg141
I0
sg142
g134
sg35
g143
sg144
I0
stRp3823
sg146
g147
sg148
F1
sg149
Nsg30
S'ScereC'
p3824
sbag1
(g2
g3
NtRp3825
(dp3826
g6
g1
(g7
g3
NtRp3827
(dp3828
g10
g1
(g11
g12
(dtRp3829
sg14
g1
(g11
g12
(dtRp3830
sg16
g1
(g11
g12
(dtRp3831
sg18
g1
(g11
g12
(dtRp3832
sg20
g1
(g11
g12
(dtRp3833
sg22
g1
(g11
g12
(dtRp3834
sbsg24
S'Sce'
p3835
sg26
g27
((lp3836
g29
ag30
aS'sequence'
p3837
ag32
ag33
aS'species'
p3838
atRp3839
sg37
(lp3840
sg120
g3791
sg121
S'RWLSTKDLYSRLELPGLNQNVHAMFVMPLGFGNPMGDTFPRINNAFWLPMLSLEGAGTGWTVYPPLSHSGPSVDLAFHLTSSLLGAINFTNMRGPLFWTALLLLSLPVLAGTLLDRNFNTFEGGDPLYHLFWFFGHPEVYIIPGFGSHSTYKKFGMYASIGLGFVWSHHMYVGLDDRAYFLSALMIAPTGIKFSWLALYGGRPMLAFLFLFTGGTGVLNASDAFHDTYYVVHFHYVLSMGAFSLGYYYWPGLYNLFWFNFPMHFLGGMPRRPYPDAGWNSGSSYQLGPDESNEPH'
p3841
sg123
F0.0066400000000000001
sg124
g125
sg33
S'167'
p3842
sg127
g1
(g128
g12
(dp3843
g130
I4
sg131
g132
sg133
g134
sg135
g132
sg136
I01
sg34
g137
sg138
g134
sg139
I0
sg140
I0
sg141
I0
sg142
g134
sg35
g143
sg144
I0
stRp3844
sg146
g147
sg148
F1
sg149
Nsg30
S'ScereA'
p3845
sbasg120
g3757
sg123
F0.00596
sg124
g125
sg33
S'93'
p3846
sg127
g1
(g128
g12
(dp3847
g130
I6
sg131
g132
sg133
g134
sg135
g132
sg136
I01
sg34
g173
sg138
g134
sg139
I0
sg140
I0
sg141
I0
sg142
g134
sg35
g174
sg144
I0
stRp3848
sg146
g147
sg148
F0.98999999999999999
sg149
Nsg30
S'NoName'
p3849
sbasg120
g3723
sg123
F0.0050600000000000003
sg124
g125
sg33
S'47'
p3850
sg127
g1
(g128
g12
(dp3851
g130
I6
sg131
g132
sg133
g134
sg135
g132
sg136
I01
sg34
g173
sg138
g134
sg139
I0
sg140
I0
sg141
I0
sg142
g134
sg35
g174
sg144
I0
stRp3852
sg146
g147
sg148
F0.66000000000000003
sg149
Nsg30
S'NoName'
p3853
sbasg120
g3710
sg123
F0.017850000000000001
sg124
g125
sg33
S'149'
p3854
sg127
g1
(g128
g12
(dp3855
g130
I6
sg131
g132
sg133
g134
sg135
g132
sg136
I01
sg34
g173
sg138
g134
sg139
I0
sg140
I0
sg141
I0
sg142
g134
sg35
g174
sg144
I0
stRp3856
sg146
g147
sg148
F0.89000000000000001
sg149
Nsg30
S'NoName'
p3857
sbag1
(g2
g3
NtRp3858
(dp3859
g6
g1
(g7
g3
NtRp3860
(dp3861
g10
g1
(g11
g12
(dtRp3862
sg14
g1
(g11
g12
(dtRp3863
sg16
g1
(g11
g12
(dtRp3864
sg18
g1
(g11
g12
(dtRp3865
sg20
g1
(g11
g12
(dtRp3866
sg22
g1
(g11
g12
(dtRp3867
sbsg24
S'Sar'
p3868
sg26
g27
((lp3869
g29
ag30
aS'sequence'
p3870
ag32
ag33
aS'species'
p3871
atRp3872
sg37
(lp3873
sg120
g3710
sg121
S'RWLSTKDLYSRLELPGLNQNVHAMFVMPLGFGNPMGDTFPRINNAFWLPMLSLEGAGTGWTVYPPLSHSGPSVDLAFHLTSSLLGAINFTNMRGPLFWTALLLLSLPVLAGTLLDRNFNTFEGGDPLYHLFWFFGHPEVYIIPGFGSHSTYKKFGMYASIGLGFVWSHHMYVGLDDRAYFLSALMIAPTGIKFSWLALYGGRPMLAFLFLFTGGTGVLNASDAFHDTYYVVHFHYVLSMGAFSLGYYYWPGLYNLFWFNFPMHFLGGMPRRPYPDAGWNSGSSYQLGPDESNEPH'
p3874
sg123
F0.047230000000000001
sg124
g125
sg33
S'172'
p3875
sg127
g1
(g128
g12
(dp3876
g130
I4
sg131
g132
sg133
g134
sg135
g132
sg136
I01
sg34
g137
sg138
g134
sg139
I0
sg140
I0
sg141
I0
sg142
g134
sg35
g143
sg144
I0
stRp3877
sg146
g147
sg148
F1
sg149
Nsg30
S'SarboA'
p3878
sbasg120
g3677
sg123
F0.023619999999999999
sg124
g125
sg33
S'101'
p3879
sg127
g1
(g128
g12
(dp3880
g130
I6
sg131
g132
sg133
g134
sg135
g132
sg136
I01
sg34
g173
sg138
g134
sg139
I0
sg140
I0
sg141
I0
sg142
g134
sg35
g174
sg144
I0
stRp3881
sg146
g147
sg148
F0.92000000000000004
sg149
Nsg30
S'NoName'
p3882
sbasg120
g3605
sg123
F0.18547
sg124
g125
sg33
S'51'
p3883
sg127
g1
(g128
g12
(dp3884
g130
I6
sg131
g132
sg133
g134
sg135
g132
sg136
I01
sg34
g173
sg138
g134
sg139
I0
sg140
I0
sg141
I0
sg142
g134
sg35
g174
sg144
I0
stRp3885
sg146
g147
sg148
F0.98999999999999999
sg149
Nsg30
S'NoName'
p3886
sbasg120
g3592
sg123
F0.03594
sg124
g125
sg33
S'29'
p3887
sg127
g1
(g128
g12
(dp3888
g130
I6
sg131
g132
sg133
g134
sg135
g132
sg136
I01
sg34
g173
sg138
g134
sg139
I0
sg140
I0
sg141
I0
sg142
g134
sg35
g174
sg144
I0
stRp3889
sg146
g147
sg148
F0.98999999999999999
sg149
Nsg30
S'NoName'
p3890
sbag1
(g2
g3
NtRp3891
(dp3892
g6
g1
(g7
g3
NtRp3893
(dp3894
g10
g1
(g11
g12
(dtRp3895
sg14
g1
(g11
g12
(dtRp3896
sg16
g1
(g11
g12
(dtRp3897
sg18
g1
(g11
g12
(dtRp3898
sg20
g1
(g11
g12
(dtRp3899
sg22
g1
(g11
g12
(dtRp3900
sbsg24
g25
sg26
g27
((lp3901
g33
ag32
ag29
ag30
atRp3902
sg37
(lp3903
g1
(g2
g3
NtRp3904
(dp3905
g6
g1
(g7
g3
NtRp3906
(dp3907
g10
g1
(g11
g12
(dtRp3908
sg14
g1
(g11
g12
(dtRp3909
sg16
g1
(g11
g12
(dtRp3910
sg18
g1
(g11
g12
(dtRp3911
sg20
g1
(g11
g12
(dtRp3912
sg22
g1
(g11
g12
(dtRp3913
sbsg24
g25
sg26
g27
((lp3914
g33
ag32
ag29
ag30
atRp3915
sg37
(lp3916
g1
(g2
g3
NtRp3917
(dp3918
g6
g1
(g7
g3
NtRp3919
(dp3920
g10
g1
(g11
g12
(dtRp3921
sg14
g1
(g11
g12
(dtRp3922
sg16
g1
(g11
g12
(dtRp3923
sg18
g1
(g11
g12
(dtRp3924
sg20
g1
(g11
g12
(dtRp3925
sg22
g1
(g11
g12
(dtRp3926
sbsg24
S'Nde'
p3927
sg26
g27
((lp3928
g29
ag30
aS'sequence'
p3929
ag32
ag33
aS'species'
p3930
atRp3931
sg37
(lp3932
sg120
g3904
sg121
S'RWLSTKDLYSRLELPGLNQNVHAMFVMPLGFGNPMGDMFPRLNNGFWIVPLSLEGAGTGWTVYPPLSHSGPSVDLAFHMTSSLLGAINFTNMRGPLFWTALLLLSLPVFAGTLLDRNFNTFEGGDPLYHLFWFFGHPEVYIIPGFGSHSTYKKFGMYASIGLGFVWSHHMYVGLDDRAYFTSATMIAPTGIKFSWLATYGGRPMLAFLFLFTGGTGVLNASDAFHDTYYVVHFHYVLSMGAFSTGYYYWPGLYNLFWFNFPMHFLGGMPRRPYPDAGWNSGSSYQFGPDESNEPH'
p3933
sg123
F0.063509999999999997
sg124
g125
sg33
S'157'
p3934
sg127
g1
(g128
g12
(dp3935
g130
I4
sg131
g132
sg133
g134
sg135
g132
sg136
I01
sg34
g137
sg138
g134
sg139
I0
sg140
I0
sg141
I0
sg142
g134
sg35
g143
sg144
I0
stRp3936
sg146
g147
sg148
F1
sg149
Nsg30
S'NdelpA'
p3937
sbag1
(g2
g3
NtRp3938
(dp3939
g6
g1
(g7
g3
NtRp3940
(dp3941
g10
g1
(g11
g12
(dtRp3942
sg14
g1
(g11
g12
(dtRp3943
sg16
g1
(g11
g12
(dtRp3944
sg18
g1
(g11
g12
(dtRp3945
sg20
g1
(g11
g12
(dtRp3946
sg22
g1
(g11
g12
(dtRp3947
sbsg24
S'Cgl'
p3948
sg26
g27
((lp3949
g29
ag30
aS'sequence'
p3950
ag32
ag33
aS'species'
p3951
atRp3952
sg37
(lp3953
sg120
g3904
sg121
S'RWLSTKDLYSRLELPGLNQNVHAMFVMPLGFGNPMGDMFPRLNNGFWIVPLSLEGAGTGWTVYPPLSHSGPSVDLAFHLTSSLLGSINFTNMRGPLFWTALLLLSLPVLAGTLLDRNFNTFEGGDPLYHLFWFFGHPEVYIIPGFGSHSTYKKFGMYASIGLGFVWSHHMYVGLDDRAYFTSATMIAPTGIKFSWLATYGGRPMLAFLFLFTGGTGVLNASDAFHDTYYVVHFHYVLSMGAFSTGYYYWPGLYNLFWFNFPMHFLGGMPRRPYPDAGWNSGSSYQFGPDESNEPH'
p3954
sg123
F0.03882
sg124
g125
sg33
S'63'
p3955
sg127
g1
(g128
g12
(dp3956
g130
I4
sg131
g132
sg133
g134
sg135
g132
sg136
I01
sg34
g137
sg138
g134
sg139
I0
sg140
I0
sg141
I0
sg142
g134
sg35
g143
sg144
I0
stRp3957
sg146
g147
sg148
F1
sg149
Nsg30
S'CglabA'
p3958
sbasg120
g3891
sg123
F0.16661999999999999
sg124
g125
sg33
S'204'
p3959
sg127
g1
(g128
g12
(dp3960
g130
I6
sg131
g132
sg133
g134
sg135
g132
sg136
I01
sg34
g173
sg138
g134
sg139
I0
sg140
I0
sg141
I0
sg142
g134
sg35
g174
sg144
I0
stRp3961
sg146
g147
sg148
F0.98999999999999999
sg149
Nsg30
S'NoName'
p3962
sbag1
(g2
g3
NtRp3963
(dp3964
g6
g1
(g7
g3
NtRp3965
(dp3966
g10
g1
(g11
g12
(dtRp3967
sg14
g1
(g11
g12
(dtRp3968
sg16
g1
(g11
g12
(dtRp3969
sg18
g1
(g11
g12
(dtRp3970
sg20
g1
(g11
g12
(dtRp3971
sg22
g1
(g11
g12
(dtRp3972
sbsg24
g25
sg26
g27
((lp3973
g33
ag32
ag29
ag30
atRp3974
sg37
(lp3975
g1
(g2
g3
NtRp3976
(dp3977
g6
g1
(g7
g3
NtRp3978
(dp3979
g10
g1
(g11
g12
(dtRp3980
sg14
g1
(g11
g12
(dtRp3981
sg16
g1
(g11
g12
(dtRp3982
sg18
g1
(g11
g12
(dtRp3983
sg20
g1
(g11
g12
(dtRp3984
sg22
g1
(g11
g12
(dtRp3985
sbsg24
S'Nba'
p3986
sg26
g27
((lp3987
g29
ag30
aS'sequence'
p3988
ag32
ag33
aS'species'
p3989
atRp3990
sg37
(lp3991
sg120
g3963
sg121
S'RWLSTKDLYSRMELPGLNQNVHAMFVMPLGFGNPMGDMFPRLNNGFWMPALSLEGAGTGWTVYPPLSHSGPSVDLAFHLSSSLLGAINFTNMRGPLFWTALLLFSLPVFAGTLLDRNFNTFEGGDPLYHLFWFFGHPEVYIIPGFGSHSTYKKFGMYASIGLGFVWSHHMYVGLDDRAYFTSATMIAPTGIKFSWLALYGGRPMLAFLFLFTGGTGVLNASDAFHDTYYVVHFHYVLSMGAFSVAYYYWPGLYNLFWFNFPMHFLGGMPRRPYPDAGWNSGSSYQLGPDESNEPH'
p3992
sg123
F0.29926999999999998
sg124
g125
sg33
S'196'
p3993
sg127
g1
(g128
g12
(dp3994
g130
I4
sg131
g132
sg133
g134
sg135
g132
sg136
I01
sg34
g137
sg138
g134
sg139
I0
sg140
I0
sg141
I0
sg142
g134
sg35
g143
sg144
I0
stRp3995
sg146
g147
sg148
F1
sg149
Nsg30
S'NbaciA'
p3996
sbag1
(g2
g3
NtRp3997
(dp3998
g6
g1
(g7
g3
NtRp3999
(dp4000
g10
g1
(g11
g12
(dtRp4001
sg14
g1
(g11
g12
(dtRp4002
sg16
g1
(g11
g12
(dtRp4003
sg18
g1
(g11
g12
(dtRp4004
sg20
g1
(g11
g12
(dtRp4005
sg22
g1
(g11
g12
(dtRp4006
sbsg24
S'Cca'
p4007
sg26
g27
((lp4008
g29
ag30
aS'sequence'
p4009
ag32
ag33
aS'species'
p4010
atRp4011
sg37
(lp4012
sg120
g3963
sg121
S'RWLSTKDLYSRLELPGLNQNVHAMFVMPLGIGNPMGDTFPRLNNGFWLPPLSLEGAGTGWTVYPPLSHSGPSVDLAFHLTSSLLGAINFTNMRGPLFWTALLLFSLPVFAGTLLDRNFNTFEGGDPLYHVFWFFGHPEVYIIPGFGSHSTYKKFGMYASIGLGFVWSHHMYVGLDDRAYFTSALMIAPTGIKFSWLATFGGRPMLAFLFLFTGGTGVLNASDAFHDTYYVVHFHYVLSMGAFSLGYYYWPGLYNLFWFNFPMHFLGGMPRRPYPDAGWNSGSSYQLGPDESNEPH'
p4013
sg123
F0.26266
sg124
g125
sg33
S'192'
p4014
sg127
g1
(g128
g12
(dp4015
g130
I4
sg131
g132
sg133
g134
sg135
g132
sg136
I01
sg34
g137
sg138
g134
sg139
I0
sg140
I0
sg141
I0
sg142
g134
sg35
g143
sg144
I0
stRp4016
sg146
g147
sg148
F1
sg149
Nsg30
S'CcastA'
p4017
sbasg120
g3891
sg123
F0.15296999999999999
sg124
g125
sg33
S'10'
p4018
sg127
g1
(g128
g12
(dp4019
g130
I6
sg131
g132
sg133
g134
sg135
g132
sg136
I01
sg34
g173
sg138
g134
sg139
I0
sg140
I0
sg141
I0
sg142
g134
sg35
g174
sg144
I0
stRp4020
sg146
g147
sg148
F0.98999999999999999
sg149
Nsg30
S'NoName'
p4021
sbasg120
g3592
sg123
F0.042560000000000001
sg124
g125
sg33
S'114'
p4022
sg127
g1
(g128
g12
(dp4023
g130
I6
sg131
g132
sg133
g134
sg135
g132
sg136
I01
sg34
g173
sg138
g134
sg139
I0
sg140
I0
sg141
I0
sg142
g134
sg35
g174
sg144
I0
stRp4024
sg146
g147
sg148
F0.84999999999999998
sg149
Nsg30
S'NoName'
p4025
sbasg120
g3558
sg123
F0.094020000000000006
sg124
g125
sg33
S'18'
p4026
sg127
g1
(g128
g12
(dp4027
g130
I6
sg131
g132
sg133
g134
sg135
g132
sg136
I01
sg34
g173
sg138
g134
sg139
I0
sg140
I0
sg141
I0
sg142
g134
sg35
g174
sg144
I0
stRp4028
sg146
g147
sg148
F0.55000000000000004
sg149
Nsg30
S'NoName'
p4029
sbasg120
g3032
sg123
F0.11952
sg124
g125
sg33
S'104'
p4030
sg127
g1
(g128
g12
(dp4031
g130
I6
sg131
g132
sg133
g134
sg135
g132
sg136
I01
sg34
g173
sg138
g134
sg139
I0
sg140
I0
sg141
I0
sg142
g134
sg35
g174
sg144
I0
stRp4032
sg146
g147
sg148
F0.69999999999999996
sg149
Nsg30
S'NoName'
p4033
sbasg120
g3019
sg123
F0.029839999999999998
sg124
g125
sg33
S'203'
p4034
sg127
g1
(g128
g12
(dp4035
g130
I6
sg131
g132
sg133
g134
sg135
g132
sg136
I01
sg34
g173
sg138
g134
sg139
I0
sg140
I0
sg141
I0
sg142
g134
sg35
g174
sg144
I0
stRp4036
sg146
g147
sg148
F0.82999999999999996
sg149
Nsg30
S'NoName'
p4037
sbag1
(g2
g3
NtRp4038
(dp4039
g6
g1
(g7
g3
NtRp4040
(dp4041
g10
g1
(g11
g12
(dtRp4042
sg14
g1
(g11
g12
(dtRp4043
sg16
g1
(g11
g12
(dtRp4044
sg18
g1
(g11
g12
(dtRp4045
sg20
g1
(g11
g12
(dtRp4046
sg22
g1
(g11
g12
(dtRp4047
sbsg24
g25
sg26
g27
((lp4048
g33
ag32
ag29
ag30
atRp4049
sg37
(lp4050
g1
(g2
g3
NtRp4051
(dp4052
g6
g1
(g7
g3
NtRp4053
(dp4054
g10
g1
(g11
g12
(dtRp4055
sg14
g1
(g11
g12
(dtRp4056
sg16
g1
(g11
g12
(dtRp4057
sg18
g1
(g11
g12
(dtRp4058
sg20
g1
(g11
g12
(dtRp4059
sg22
g1
(g11
g12
(dtRp4060
sbsg24
S'Aac'
p4061
sg26
g27
((lp4062
g29
ag30
aS'sequence'
p4063
ag32
ag33
aS'species'
p4064
atRp4065
sg37
(lp4066
sg120
g4038
sg121
S'RWLSTKDLYSRMELPGLQQNVHLMFVMPLGFGNPMGDMFARLNNSFWLPPLSMEGLGTGWTVYPPLAHSGASVDLAFHLTSSLLGLINFTNMRGPLFWTAMLLMSLPVLAGTLLDRNFNTFEGGDPLYHLFWFFGHPEVYIIPLFGSHSTYKKFGMYASIGLGFVWSHHMYVGLDDRAYFTSLTMILPTSIKFSWLLTYGGRPMLAFLFLFTGGTGVLNLSDLFHDTYYVVHFHYVLSLGAFSMGYYYWPGLYNLFWFNFPMHFLGGMPRRPYPDLGWNSGSSYQLGPDESNEPH'
p4067
sg123
F0.028920000000000001
sg124
g125
sg33
S'216'
p4068
sg127
g1
(g128
g12
(dp4069
g130
I4
sg131
g132
sg133
g134
sg135
g132
sg136
I01
sg34
g137
sg138
g134
sg139
I0
sg140
I0
sg141
I0
sg142
g134
sg35
g143
sg144
I0
stRp4070
sg146
g147
sg148
F1
sg149
Nsg30
S'AacerA'
p4071
sbag1
(g2
g3
NtRp4072
(dp4073
g6
g1
(g7
g3
NtRp4074
(dp4075
g10
g1
(g11
g12
(dtRp4076
sg14
g1
(g11
g12
(dtRp4077
sg16
g1
(g11
g12
(dtRp4078
sg18
g1
(g11
g12
(dtRp4079
sg20
g1
(g11
g12
(dtRp4080
sg22
g1
(g11
g12
(dtRp4081
sbsg24
g25
sg26
g27
((lp4082
g33
ag32
ag29
ag30
atRp4083
sg37
(lp4084
g1
(g2
g3
NtRp4085
(dp4086
g6
g1
(g7
g3
NtRp4087
(dp4088
g10
g1
(g11
g12
(dtRp4089
sg14
g1
(g11
g12
(dtRp4090
sg16
g1
(g11
g12
(dtRp4091
sg18
g1
(g11
g12
(dtRp4092
sg20
g1
(g11
g12
(dtRp4093
sg22
g1
(g11
g12
(dtRp4094
sbsg24
S'Ago'
p4095
sg26
g27
((lp4096
g29
ag30
aS'sequence'
p4097
ag32
ag33
aS'species'
p4098
atRp4099
sg37
(lp4100
sg120
g4072
sg121
S'RWLSTKDLYSRMELPGLQQNVHLMFVMPLGFGNPMGDMFARLNNSFWLPPLSMEGLGTGWTVYPPLSHSGASVDLAFHLTSSLLGLINFTNMRGPLFWTAMLLMSLPVLAGTLLDRNFNTFEGGDPLYHLFWFFGHPEVYIIPLFGSHSTYKKFGMYLSISLGFVWSHHMYVGLDDRAYFTSATMILPTSIKFSWLLTYGGRPMLLFLFLFTGGTGVLNLSDAFHDTYYVVHFHYVLSLGAFSMGYYYWPGLYNLFWFNFPMHFLGGMPRRPYPDLGWNSGSSYQLGPDESNEPH'
p4101
sg123
F0.00088000000000000003
sg124
g125
sg33
S'117'
p4102
sg127
g1
(g128
g12
(dp4103
g130
I4
sg131
g132
sg133
g134
sg135
g132
sg136
I01
sg34
g137
sg138
g134
sg139
I0
sg140
I0
sg141
I0
sg142
g134
sg35
g143
sg144
I0
stRp4104
sg146
g147
sg148
F1
sg149
Nsg30
S'AgossB'
p4105
sbag1
(g2
g3
NtRp4106
(dp4107
g6
g1
(g7
g3
NtRp4108
(dp4109
g10
g1
(g11
g12
(dtRp4110
sg14
g1
(g11
g12
(dtRp4111
sg16
g1
(g11
g12
(dtRp4112
sg18
g1
(g11
g12
(dtRp4113
sg20
g1
(g11
g12
(dtRp4114
sg22
g1
(g11
g12
(dtRp4115
sbsg24
S'Ago'
p4116
sg26
g27
((lp4117
g29
ag30
aS'sequence'
p4118
ag32
ag33
aS'species'
p4119
atRp4120
sg37
(lp4121
sg120
g4072
sg121
S'RWLSTKDLYSRMELPGLQQNVHLMFVMPLGFGNPMGDMFARLNNSFWLPPLSMEGLGTGWTVYPPLSHSGASVDLAFHLTSSLLGLINFTNMRGPLFWTAMLLMSLPVLAGTLLDRNFNTFEGGDPLYHLFWFFGHPEVYIIPLFGSHSTYKKFGMYLSISLGFVWSHHMYVGLDDRAYFTSATMILPTSIKFSWLLTYGGRPMLLFLFLFTGGTGVLNLSDAFHDTYYVVHFHYVLSLGAFSMGYYYWPGLYNLFWFNFPMHFLGGMPRRPYPDLGWNSGSSYQLGPDESNEPH'
p4122
sg123
F0.0023999999999999998
sg124
g125
sg33
S'138'
p4123
sg127
g1
(g128
g12
(dp4124
g130
I4
sg131
g132
sg133
g134
sg135
g132
sg136
I01
sg34
g137
sg138
g134
sg139
I0
sg140
I0
sg141
I0
sg142
g134
sg35
g143
sg144
I0
stRp4125
sg146
g147
sg148
F1
sg149
Nsg30
S'AgossA'
p4126
sbasg120
g4038
sg123
F0.075329999999999994
sg124
g125
sg33
S'27'
p4127
sg127
g1
(g128
g12
(dp4128
g130
I6
sg131
g132
sg133
g134
sg135
g132
sg136
I01
sg34
g173
sg138
g134
sg139
I0
sg140
I0
sg141
I0
sg142
g134
sg35
g174
sg144
I0
stRp4129
sg146
g147
sg148
F0.98999999999999999
sg149
Nsg30
S'NoName'
p4130
sbasg120
g3019
sg123
F0.56830999999999998
sg124
g125
sg33
S'142'
p4131
sg127
g1
(g128
g12
(dp4132
g130
I6
sg131
g132
sg133
g134
sg135
g132
sg136
I01
sg34
g173
sg138
g134
sg139
I0
sg140
I0
sg141
I0
sg142
g134
sg35
g174
sg144
I0
stRp4133
sg146
g147
sg148
F0.98999999999999999
sg149
Nsg30
S'NoName'
p4134
sbasg120
g2681
sg123
F0.14305999999999999
sg124
g125
sg33
S'148'
p4135
sg127
g1
(g128
g12
(dp4136
g130
I6
sg131
g132
sg133
g134
sg135
g132
sg136
I01
sg34
g173
sg138
g134
sg139
I0
sg140
I0
sg141
I0
sg142
g134
sg35
g174
sg144
I0
stRp4137
sg146
g147
sg148
F0.96999999999999997
sg149
Nsg30
S'NoName'
p4138
sbasg120
g2496
sg123
F0.26834000000000002
sg124
g125
sg33
S'1'
sg127
g1
(g128
g12
(dp4139
g130
I6
sg131
g132
sg133
g134
sg135
g132
sg136
I01
sg34
g173
sg138
g134
sg139
I0
sg140
I0
sg141
I0
sg142
g134
sg35
g174
sg144
I0
stRp4140
sg146
g147
sg148
F0.97999999999999998
sg149
Nsg30
S'NoName'
p4141
sbasg120
g676
sg123
F0.062890000000000001
sg124
g125
sg33
S'52'
p4142
sg127
g1
(g128
g12
(dp4143
g130
I6
sg131
g132
sg133
g134
sg135
g132
sg136
I01
sg34
g173
sg138
g134
sg139
I0
sg140
I0
sg141
I0
sg142
g134
sg35
g174
sg144
I0
stRp4144
sg146
g147
sg148
F0.67000000000000004
sg149
Nsg30
S'NoName'
p4145
sbasg120
g263
sg123
F0.52025999999999994
sg124
g125
sg33
S'86'
p4146
sg127
g1
(g128
g12
(dp4147
g130
I6
sg131
g132
sg133
g134
sg135
g132
sg136
I01
sg34
g173
sg138
g134
sg139
I0
sg140
I0
sg141
I0
sg142
g134
sg35
g174
sg144
I0
stRp4148
sg146
g147
sg148
F0.97999999999999998
sg149
Nsg30
S'NoName'
p4149
sbasg120
g52
sg123
F0.11274000000000001
sg124
g125
sg33
S'33'
p4150
sg127
g1
(g128
g12
(dp4151
g130
I6
sg131
g132
sg133
g134
sg135
g132
sg136
I01
sg34
g173
sg138
g134
sg139
I0
sg140
I0
sg141
I0
sg142
g134
sg35
g174
sg144
I0
stRp4152
sg146
g147
sg148
F0.88
sg149
Nsg30
S'NoName'
p4153
sbasg120
g39
sg123
F0.33485999999999999
sg124
g125
sg33
S'16'
p4154
sg127
g1
(g128
g12
(dp4155
g130
I6
sg131
g132
sg133
g134
sg135
g132
sg136
I01
sg34
g173
sg138
g134
sg139
I0
sg140
I0
sg141
I0
sg142
g134
sg35
g174
sg144
I0
stRp4156
sg146
g147
sg148
F0.95999999999999996
sg149
Nsg30
S'NoName'
p4157
sbag1
(g2
g3
NtRp4158
(dp4159
g6
g1
(g7
g3
NtRp4160
(dp4161
g10
g1
(g11
g12
(dtRp4162
sg14
g1
(g11
g12
(dtRp4163
sg16
g1
(g11
g12
(dtRp4164
sg18
g1
(g11
g12
(dtRp4165
sg20
g1
(g11
g12
(dtRp4166
sg22
g1
(g11
g12
(dtRp4167
sbsg24
S'Lst'
p4168
sg26
g27
((lp4169
g29
ag30
aS'sequence'
p4170
ag32
ag33
aS'species'
p4171
atRp4172
sg37
(lp4173
sg120
g39
sg121
S'RWLSTKDLYSRMELPGLNHNVHAMFVMPLGFGNPLGDMFPRLNNSFWLPPLSFEGAGTGWTVYPPLSHSGASVDLAFHLSSSMLGAMNFTNMRGPLFWTALLLLSLPVLGATLLDRNFNTFEGGDPLYHLFWFFGHPEVYIIPGFGSHCTYEKFGMYASMGLGFVWSHHMFVGLDERAYFTAATMIAPTGMKFSWLATYGGTPMVAFLFLFTGGTGVLNASDAFHDTYYVVHFHYVLSMGAFALGYYYWPGLYKYFWFNFPMHFLGGMPRRPYPDAGWNSGSAIQLGPQATKEPH'
p4174
sg123
F1.13117
sg124
g125
sg33
S'184'
p4175
sg127
g1
(g128
g12
(dp4176
g130
I4
sg131
g132
sg133
g134
sg135
g132
sg136
I01
sg34
g137
sg138
g134
sg139
I0
sg140
I0
sg141
I0
sg142
g134
sg35
g143
sg144
I0
stRp4177
sg146
g147
sg148
F1
sg149
Nsg30
S'LstarA'
p4178
sbasg120
g4
sg123
F0.46844999999999998
sg124
g125
sg33
S'105'
p4179
sg127
g1
(g128
g12
(dp4180
g130
I6
sg131
g132
sg133
g134
sg135
g132
sg136
I01
sg34
g173
sg138
g134
sg139
I0
sg140
I0
sg141
I0
sg142
g134
sg35
g174
sg144
I0
stRp4181
sg146
g147
sg148
F1
sg149
Nsg30
S'NoName'
p4182
sbag1
(g2
g3
NtRp4183
(dp4184
g6
g1
(g7
g3
NtRp4185
(dp4186
g10
g1
(g11
g12
(dtRp4187
sg14
g1
(g11
g12
(dtRp4188
sg16
g1
(g11
g12
(dtRp4189
sg18
g1
(g11
g12
(dtRp4190
sg20
g1
(g11
g12
(dtRp4191
sg22
g1
(g11
g12
(dtRp4192
sbsg24
g25
sg26
g27
((lp4193
g33
ag32
ag29
ag30
atRp4194
sg37
(lp4195
g1
(g2
g3
NtRp4196
(dp4197
g6
g1
(g7
g3
NtRp4198
(dp4199
g10
g1
(g11
g12
(dtRp4200
sg14
g1
(g11
g12
(dtRp4201
sg16
g1
(g11
g12
(dtRp4202
sg18
g1
(g11
g12
(dtRp4203
sg20
g1
(g11
g12
(dtRp4204
sg22
g1
(g11
g12
(dtRp4205
sbsg24
S'Sja'
p4206
sg26
g27
((lp4207
g29
ag30
aS'sequence'
p4208
ag32
ag33
aS'species'
p4209
atRp4210
sg37
(lp4211
sg120
g4183
sg121
S'RWLSTKDLYSRLELPGLNQNVHGMFILPLGFGNPLGDVYPRMNNSFWLPPLSLEGPGVGWTMYYPLSHSGLSVDLLMQLTSSTLGSINLTNMRGPLFWTSLLVLTLPVLGGILLDRNWNTFAGGDPLYHLFWFFGHPEVYIIPAFGSHSTFHKFGMYASIALGCVWSHHLYVGLDDRAYFTAATMIAPTGIKFSWLATSGGEPMLVFLILFTGGTGVLNSVDAFHDTYFVVHFHYVLSMGAMGLAYYFWPGLYNMFWFNFPQHFLGNYPRRPYPDAGWNSGSSYQFNPNDSNEPH'
p4212
sg123
F1.0686599999999999
sg124
g125
sg33
S'4'
sg127
g1
(g128
g12
(dp4213
g130
I4
sg131
g132
sg133
g134
sg135
g132
sg136
I01
sg34
g137
sg138
g134
sg139
I0
sg140
I0
sg141
I0
sg142
g134
sg35
g143
sg144
I0
stRp4214
sg146
g147
sg148
F1
sg149
Nsg30
S'SjapoA'
p4215
sbag1
(g2
g3
NtRp4216
(dp4217
g6
g1
(g7
g3
NtRp4218
(dp4219
g10
g1
(g11
g12
(dtRp4220
sg14
g1
(g11
g12
(dtRp4221
sg16
g1
(g11
g12
(dtRp4222
sg18
g1
(g11
g12
(dtRp4223
sg20
g1
(g11
g12
(dtRp4224
sg22
g1
(g11
g12
(dtRp4225
sbsg24
g25
sg26
g27
((lp4226
g33
ag32
ag29
ag30
atRp4227
sg37
(lp4228
g1
(g2
g3
NtRp4229
(dp4230
g6
g1
(g7
g3
NtRp4231
(dp4232
g10
g1
(g11
g12
(dtRp4233
sg14
g1
(g11
g12
(dtRp4234
sg16
g1
(g11
g12
(dtRp4235
sg18
g1
(g11
g12
(dtRp4236
sg20
g1
(g11
g12
(dtRp4237
sg22
g1
(g11
g12
(dtRp4238
sbsg24
S'Spo'
p4239
sg26
g27
((lp4240
g29
ag30
aS'sequence'
p4241
ag32
ag33
aS'species'
p4242
atRp4243
sg37
(lp4244
sg120
g4216
sg121
S'RWMSTKDLYSRMELPGLNQNVHGMFIIPLGFGNPMGDVYPRVNNTFWLPPLSLEGPGGGWTVYPPLSHSGPAIDLALQLTSSTLGSVNLTNMRGPLFWTSLLLLTLPVLGGFLFDRNLNTFAGGDPLYHLFWFFGHPEVYIIPAFGSHPSLHKFGMWASIALGLVWSHHLFVGLDDRAYFSAATMIAPTGIKFSWLATTGGQPMLAFLILFTGGTGVLNSVDAFHDTYFVVHFHYVLSMGAFGLAYY-WPGLYNLFWFNFPQHFLGGMPRRPYPEAGWNSGSSYQFNPSDDNEPH'
p4245
sg123
F0.12372
sg124
g125
sg33
S'158'
p4246
sg127
g1
(g128
g12
(dp4247
g130
I4
sg131
g132
sg133
g134
sg135
g132
sg136
I01
sg34
g137
sg138
g134
sg139
I0
sg140
I0
sg141
I0
sg142
g134
sg35
g143
sg144
I0
stRp4248
sg146
g147
sg148
F1
sg149
Nsg30
S'SpombA'
p4249
sbag1
(g2
g3
NtRp4250
(dp4251
g6
g1
(g7
g3
NtRp4252
(dp4253
g10
g1
(g11
g12
(dtRp4254
sg14
g1
(g11
g12
(dtRp4255
sg16
g1
(g11
g12
(dtRp4256
sg18
g1
(g11
g12
(dtRp4257
sg20
g1
(g11
g12
(dtRp4258
sg22
g1
(g11
g12
(dtRp4259
sbsg24
g25
sg26
g27
((lp4260
g33
ag32
ag29
ag30
atRp4261
sg37
(lp4262
g1
(g2
g3
NtRp4263
(dp4264
g6
g1
(g7
g3
NtRp4265
(dp4266
g10
g1
(g11
g12
(dtRp4267
sg14
g1
(g11
g12
(dtRp4268
sg16
g1
(g11
g12
(dtRp4269
sg18
g1
(g11
g12
(dtRp4270
sg20
g1
(g11
g12
(dtRp4271
sg22
g1
(g11
g12
(dtRp4272
sbsg24
S'Soc'
p4273
sg26
g27
((lp4274
g29
ag30
aS'sequence'
p4275
ag32
ag33
aS'species'
p4276
atRp4277
sg37
(lp4278
sg120
g4250
sg121
S'RWLSTKDLYSRMELPGLNQNVHGMFIIPLGFGNPMGDVYPRVNNTFWLPPLSLEGPGTGWTVYPPLSHSGPAVDLALQLTSSTLGSLNLTNMRGPLFWTSLLLLTLPVLGGFLFDRNLNTFAGGDPLYHLFWFFGHPEVYIIPAFGSHSTLNKFGMCASIALGLVWSHHLFVGLDDRAYFSAATMIAPTGIKFSWLATTGGQPMLAFLILFTGGTGVLNSVDAFHDTYFVVHFHYVLSMGAFGLAYYFWPGLYNLFWFNFPQHFLGGMPRRPYPDAGWNSGSSYQYNPSDDNEPH'
p4279
sg123
F0.03637
sg124
g125
sg33
S'31'
p4280
sg127
g1
(g128
g12
(dp4281
g130
I4
sg131
g132
sg133
g134
sg135
g132
sg136
I01
sg34
g137
sg138
g134
sg139
I0
sg140
I0
sg141
I0
sg142
g134
sg35
g143
sg144
I0
stRp4282
sg146
g147
sg148
F1
sg149
Nsg30
S'SoctoA'
p4283
sbag1
(g2
g3
NtRp4284
(dp4285
g6
g1
(g7
g3
NtRp4286
(dp4287
g10
g1
(g11
g12
(dtRp4288
sg14
g1
(g11
g12
(dtRp4289
sg16
g1
(g11
g12
(dtRp4290
sg18
g1
(g11
g12
(dtRp4291
sg20
g1
(g11
g12
(dtRp4292
sg22
g1
(g11
g12
(dtRp4293
sbsg24
S'Scr'
p4294
sg26
g27
((lp4295
g29
ag30
aS'sequence'
p4296
ag32
ag33
aS'species'
p4297
atRp4298
sg37
(lp4299
sg120
g4250
sg121
S'RWLSTKDLYSRMELPGLNQNVHGMFIIPLGFGNPMGDVYPRVNNTYWLPPLSLEGPGTGWTVYPPLSHSGPSVDLALQLTSSTLGSLNLTNMRGPLFWTSLLLLTLPVLGGFLFDRNLNTFAGGDPLYHLFWFFGHPEVYIIPAFGSHPTLNKFGMCASIALGLVWSHHLFVGLDDRAYFSAATMIAPTGIKFSWLATTGGQPMLAFLILFTGGTGVLNSVDAFHDTYFVVHFHYVLSMGAFGLAYYFWPGLYNLFWFNFPQHFLGGMPRRPYPDAGWNSGSSYQYNPSDDNEPH'
p4300
sg123
F0.036740000000000002
sg124
g125
sg33
S'55'
p4301
sg127
g1
(g128
g12
(dp4302
g130
I4
sg131
g132
sg133
g134
sg135
g132
sg136
I01
sg34
g137
sg138
g134
sg139
I0
sg140
I0
sg141
I0
sg142
g134
sg35
g143
sg144
I0
stRp4303
sg146
g147
sg148
F1
sg149
Nsg30
S'ScryoA'
p4304
sbasg120
g4216
sg123
F0.18453
sg124
g125
sg33
S'155'
p4305
sg127
g1
(g128
g12
(dp4306
g130
I6
sg131
g132
sg133
g134
sg135
g132
sg136
I01
sg34
g173
sg138
g134
sg139
I0
sg140
I0
sg141
I0
sg142
g134
sg35
g174
sg144
I0
stRp4307
sg146
g147
sg148
F0.98999999999999999
sg149
Nsg30
S'NoName'
p4308
sbasg120
g4183
sg123
F0.73307
sg124
g125
sg33
S'15'
p4309
sg127
g1
(g128
g12
(dp4310
g130
I6
sg131
g132
sg133
g134
sg135
g132
sg136
I01
sg34
g173
sg138
g134
sg139
I0
sg140
I0
sg141
I0
sg142
g134
sg35
g174
sg144
I0
stRp4311
sg146
g147
sg148
F0.98999999999999999
sg149
Nsg30
S'NoName'
p4312
sbasg120
g4
sg123
F1.7741899999999999
sg124
g125
sg33
S'194'
p4313
sg127
g1
(g128
g12
(dp4314
g130
I6
sg131
g132
sg133
g134
sg135
g132
sg136
I01
sg34
g173
sg138
g134
sg139
I0
sg140
I0
sg141
I0
sg142
g134
sg35
g174
sg144
I0
stRp4315
sg146
g147
sg148
F1
sg149
Nsg30
S'NoName'
p4316
sbasg31
S'8'
sg120
Nsg123
F0
sg124
g125
sg33
S'171'
p4317
sg34
S'sphere'
p4318
sg127
g1
(g128
g12
(dp4319
g130
I6
sg131
g132
sg133
g134
sg135
g132
sg136
I01
sg34
g173
sg138
g134
sg139
I0
sg140
I0
sg141
I0
sg142
g134
sg35
g174
sg144
I0
stRp4320
sg146
g147
sg148
F1
sg149
Nsg35
S'#833DB4'
p4321
sg30
g125
sb.