ccopy_reg
_reconstructor
p1
(cete2.phylo.phylotree
PhyloNode
p2
c__builtin__
object
p3
NtRp4
(dp5
S'_faces'
p6
g1
(cete2.treeview.main
_FaceAreas
p7
g3
NtRp8
(dp9
S'branch-top'
p10
g1
(cete2.treeview.main
FaceContainer
p11
c__builtin__
dict
p12
(dtRp13
sS'float'
p14
g1
(g11
g12
(dtRp15
sS'branch-bottom'
p16
g1
(g11
g12
(dtRp17
sS'aligned'
p18
g1
(g11
g12
(dtRp19
sS'branch-right'
p20
g1
(g11
g12
(dtRp21
sS'float-behind'
p22
g1
(g11
g12
(dtRp23
sbsS'_species'
p24
S'Unknown'
p25
sS'features'
p26
c__builtin__
set
p27
((lp28
S'dist'
p29
aS'name'
p30
aS'bsize'
p31
aS'support'
p32
aS'_nid'
p33
aS'shape'
p34
aS'fgcolor'
p35
atRp36
sS'_children'
p37
(lp38
g1
(g2
g3
NtRp39
(dp40
g6
g1
(g7
g3
NtRp41
(dp42
g10
g1
(g11
g12
(dtRp43
sg14
g1
(g11
g12
(dtRp44
sg16
g1
(g11
g12
(dtRp45
sg18
g1
(g11
g12
(dtRp46
sg20
g1
(g11
g12
(dtRp47
sg22
g1
(g11
g12
(dtRp48
sbsg24
g25
sg26
g27
((lp49
g33
ag32
ag29
ag30
atRp50
sg37
(lp51
g1
(g2
g3
NtRp52
(dp53
g6
g1
(g7
g3
NtRp54
(dp55
g10
g1
(g11
g12
(dtRp56
sg14
g1
(g11
g12
(dtRp57
sg16
g1
(g11
g12
(dtRp58
sg18
g1
(g11
g12
(dtRp59
sg20
g1
(g11
g12
(dtRp60
sg22
g1
(g11
g12
(dtRp61
sbsg24
g25
sg26
g27
((lp62
g33
ag32
ag29
ag30
atRp63
sg37
(lp64
g1
(g2
g3
NtRp65
(dp66
g6
g1
(g7
g3
NtRp67
(dp68
g10
g1
(g11
g12
(dtRp69
sg14
g1
(g11
g12
(dtRp70
sg16
g1
(g11
g12
(dtRp71
sg18
g1
(g11
g12
(dtRp72
sg20
g1
(g11
g12
(dtRp73
sg22
g1
(g11
g12
(dtRp74
sbsg24
g25
sg26
g27
((lp75
g33
ag32
ag29
ag30
atRp76
sg37
(lp77
g1
(g2
g3
NtRp78
(dp79
g6
g1
(g7
g3
NtRp80
(dp81
g10
g1
(g11
g12
(dtRp82
sg14
g1
(g11
g12
(dtRp83
sg16
g1
(g11
g12
(dtRp84
sg18
g1
(g11
g12
(dtRp85
sg20
g1
(g11
g12
(dtRp86
sg22
g1
(g11
g12
(dtRp87
sbsg24
g25
sg26
g27
((lp88
g33
ag32
ag29
ag30
atRp89
sg37
(lp90
g1
(g2
g3
NtRp91
(dp92
g6
g1
(g7
g3
NtRp93
(dp94
g10
g1
(g11
g12
(dtRp95
sg14
g1
(g11
g12
(dtRp96
sg16
g1
(g11
g12
(dtRp97
sg18
g1
(g11
g12
(dtRp98
sg20
g1
(g11
g12
(dtRp99
sg22
g1
(g11
g12
(dtRp100
sbsg24
g25
sg26
g27
((lp101
g33
ag32
ag29
ag30
atRp102
sg37
(lp103
g1
(g2
g3
NtRp104
(dp105
g6
g1
(g7
g3
NtRp106
(dp107
g10
g1
(g11
g12
(dtRp108
sg14
g1
(g11
g12
(dtRp109
sg16
g1
(g11
g12
(dtRp110
sg18
g1
(g11
g12
(dtRp111
sg20
g1
(g11
g12
(dtRp112
sg22
g1
(g11
g12
(dtRp113
sbsg24
S'Yli'
p114
sg26
g27
((lp115
g29
ag30
aS'sequence'
p116
ag32
ag33
aS'species'
p117
atRp118
sg37
(lp119
sS'_up'
p120
g91
sS'sequence'
p121
S'RWLSTKDLYSRLELTGLNQNVHAMFVMPLGFGNPMGDMFARLNNSFWLVPLSLEGAGTGWTVYFPLAHSGPAVDLAFHLSSSLLGAINFTNMRGPLFWTALLLLSLPVLAGTGIDRNFNTFEGGDALYHLFWFFGHPEVYIIPGFGSHSAISKFGMYASIGLGFVWSHHMFVGLDDRAYFTSATMIAPTSIKFSWLATYGGRTALAFIFLFTGGTGVLNSADPFHDSYYVVHFHYVLSMGAFSIGWYLWPGLYNLFWFNFPMHFLGGMPRRNYPDAGWNSGSAYQLGPSGTNEPH'
p122
sS'_dist'
p123
F0.00011
sS'_name'
p124
S'NoName'
p125
sg33
S'9'
sS'_img_style'
p126
g1
(cete2.treeview.main
NodeStyle
p127
g12
(dp128
S'size'
p129
I4
sS'hz_line_color'
p130
S'#000000'
p131
sS'faces_bgcolor'
p132
S'#FFFFFF'
p133
sS'vt_line_color'
p134
g131
sS'draw_descendants'
p135
I01
sg34
S'square'
p136
sS'bgcolor'
p137
g133
sS'hz_line_type'
p138
I0
sS'vt_line_width'
p139
I0
sS'vt_line_type'
p140
I0
sS'node_bgcolor'
p141
g133
sg35
g131
sS'hz_line_width'
p142
I0
stRp143
sS'_speciesFunction'
p144
c_mod_wsgi_807c38afa5aa71ec1a7fc083768c2b44
extract_species_code
p145
sS'_support'
p146
F1
sS'_temp_faces'
p147
Nsg30
S'YlipoB'
p148
sbag1
(g2
g3
NtRp149
(dp150
g6
g1
(g7
g3
NtRp151
(dp152
g10
g1
(g11
g12
(dtRp153
sg14
g1
(g11
g12
(dtRp154
sg16
g1
(g11
g12
(dtRp155
sg18
g1
(g11
g12
(dtRp156
sg20
g1
(g11
g12
(dtRp157
sg22
g1
(g11
g12
(dtRp158
sbsg24
S'Yli'
p159
sg26
g27
((lp160
g29
ag30
aS'sequence'
p161
ag32
ag33
aS'species'
p162
atRp163
sg37
(lp164
sg120
g91
sg121
S'RWLSTKDLYSRLELTGLNQNVHAMFVMPLGFGNPMGDMFARLNNSFWLVPLSLEGAGTGWTVYFPLAHSGPAVDLAFHLSSSLLGAINFTNMRGPLFWTALLLLSLPVLAGTGIDRNFNTFEGGDALYHLFWFFGHPEVYIIPGFGSHSAISKFGMYASIGLGFVWSHHMFVGLDDRAYFTSATMIAPTSIKFSWLATYGGRTALAFIFLFTGGTGVLNSADPFHDSYYVVHFHYVLSMGAFSIGWYLWPGLYNLFWFNFPMHFLGGMPRRNYPDAGWNSGSAYQLGPSGTNEPH'
p165
sg123
F0.00048000000000000001
sg124
g125
sg33
S'10'
p166
sg126
g1
(g127
g12
(dp167
g129
I4
sg130
g131
sg132
g133
sg134
g131
sg135
I01
sg34
g136
sg137
g133
sg138
I0
sg139
I0
sg140
I0
sg141
g133
sg35
g131
sg142
I0
stRp168
sg144
g145
sg146
F1
sg147
Nsg30
S'YlipoA'
p169
sbasg120
g78
sg123
F0.02656
sg124
g125
sg33
S'5'
sg126
g1
(g127
g12
(dp170
g129
I8
sg130
g131
sg132
g133
sg134
g131
sg135
I01
sg34
S'sphere'
p171
sg137
g133
sg138
I0
sg139
I0
sg140
I0
sg141
g133
sg35
g131
sg142
I0
stRp172
sg144
g145
sg146
F1
sg147
Nsg30
S'NoName'
p173
sbag1
(g2
g3
NtRp174
(dp175
g6
g1
(g7
g3
NtRp176
(dp177
g10
g1
(g11
g12
(dtRp178
sg14
g1
(g11
g12
(dtRp179
sg16
g1
(g11
g12
(dtRp180
sg18
g1
(g11
g12
(dtRp181
sg20
g1
(g11
g12
(dtRp182
sg22
g1
(g11
g12
(dtRp183
sbsg24
g25
sg26
g27
((lp184
g33
ag32
ag29
ag30
atRp185
sg37
(lp186
g1
(g2
g3
NtRp187
(dp188
g6
g1
(g7
g3
NtRp189
(dp190
g10
g1
(g11
g12
(dtRp191
sg14
g1
(g11
g12
(dtRp192
sg16
g1
(g11
g12
(dtRp193
sg18
g1
(g11
g12
(dtRp194
sg20
g1
(g11
g12
(dtRp195
sg22
g1
(g11
g12
(dtRp196
sbsg24
S'Cga'
p197
sg26
g27
((lp198
g29
ag30
aS'sequence'
p199
ag32
ag33
aS'species'
p200
atRp201
sg37
(lp202
sg120
g174
sg121
S'RWLSTKDLYSRLELTGLNQNVHAMFVMPLGFGNPMGDMFARLNNSFWLVPLSLEGAGTGWTVYFPLAHSGPAVDLAFHLSSSLLGAINFTNMRGPLFWTALLLLSLPVLAGTGIDRNFNTFEGGDALYHLFWFFGHPEVYIIPGFGSHSAISKFGMYASIGLGFVWSHHMFVGLDDRAYFTSATMIAPTSIKFSWLSTYGGRTALAFIFLFTGGTGVLNSADPFHDSYYVVHFHYVLSMGAFSIGWYLWPGLYNLFWFNFPMHFLGGMPRRNYPDAGWNSGSAYQLGPSGTNEPH'
p203
sg123
F0.016299999999999999
sg124
g125
sg33
S'13'
p204
sg126
g1
(g127
g12
(dp205
g129
I4
sg130
g131
sg132
g133
sg134
g131
sg135
I01
sg34
g136
sg137
g133
sg138
I0
sg139
I0
sg140
I0
sg141
g133
sg35
g131
sg142
I0
stRp206
sg144
g145
sg146
F1
sg147
Nsg30
S'CgallA'
p207
sbag1
(g2
g3
NtRp208
(dp209
g6
g1
(g7
g3
NtRp210
(dp211
g10
g1
(g11
g12
(dtRp212
sg14
g1
(g11
g12
(dtRp213
sg16
g1
(g11
g12
(dtRp214
sg18
g1
(g11
g12
(dtRp215
sg20
g1
(g11
g12
(dtRp216
sg22
g1
(g11
g12
(dtRp217
sbsg24
S'Cde'
p218
sg26
g27
((lp219
g29
ag30
aS'sequence'
p220
ag32
ag33
aS'species'
p221
atRp222
sg37
(lp223
sg120
g174
sg121
S'RWLSTKDLYSRLELTGLNQNVHAMFVMPLGFGNPMGDMFARLNNSFWLVPLSLEGAGTGWTVYFPLAHSGPAVDLAFHLSSSLLGAINFTNMRGPLFWTALLLLSLPVLAGTGIDRNFNTFEGGDALYHLFFFNGHPEVYIIPGFGSHSAISKFGMYASIGLGFVWSHHMFVGLDDRAYFTSATMIAPTSIKFSWLATYGGRTALAFIFLFTGGTGVLNSADPFHDSYYVVHFHYVLSMGAFSIGWYLWPGLYNLFWFNFPMHFLGGMPRRNYPDAGWNSGSAYQLGPSGTNEPH'
p224
sg123
F0.018610000000000002
sg124
g125
sg33
S'15'
p225
sg126
g1
(g127
g12
(dp226
g129
I4
sg130
g131
sg132
g133
sg134
g131
sg135
I01
sg34
g136
sg137
g133
sg138
I0
sg139
I0
sg140
I0
sg141
g133
sg35
g131
sg142
I0
stRp227
sg144
g145
sg146
F1
sg147
Nsg30
S'CdefoA'
p228
sbasg120
g78
sg123
F0.00282
sg124
g125
sg33
S'7'
sg126
g1
(g127
g12
(dp229
g129
I8
sg130
g131
sg132
g133
sg134
g131
sg135
I01
sg34
g171
sg137
g133
sg138
I0
sg139
I0
sg140
I0
sg141
g133
sg35
g131
sg142
I0
stRp230
sg144
g145
sg146
F0.96999999999999997
sg147
Nsg30
S'NoName'
p231
sbasg120
g65
sg123
F0.00479
sg124
g125
sg33
S'3'
sg126
g1
(g127
g12
(dp232
g129
I8
sg130
g131
sg132
g133
sg134
g131
sg135
I01
sg34
g171
sg137
g133
sg138
I0
sg139
I0
sg140
I0
sg141
g133
sg35
g131
sg142
I0
stRp233
sg144
g145
sg146
F0.80000000000000004
sg147
Nsg30
S'NoName'
p234
sbag1
(g2
g3
NtRp235
(dp236
g6
g1
(g7
g3
NtRp237
(dp238
g10
g1
(g11
g12
(dtRp239
sg14
g1
(g11
g12
(dtRp240
sg16
g1
(g11
g12
(dtRp241
sg18
g1
(g11
g12
(dtRp242
sg20
g1
(g11
g12
(dtRp243
sg22
g1
(g11
g12
(dtRp244
sbsg24
S'Cal'
p245
sg26
g27
((lp246
g29
ag30
aS'sequence'
p247
ag32
ag33
aS'species'
p248
atRp249
sg37
(lp250
sg120
g65
sg121
S'RWLSTKDLYSRLELTGLNQNVHAMFVMPLGFGNPMGDMFARLNNSFWLVPMSLEGAGTGWTVYFPLAHSGPAVDLAFHLASSLLGAINFTNMRGPLFWTALLLLSLPVLAGTGIDRNFNTFEGGDALYHLFWFFGHPEVYIIPGFGSHSAISKFGMYASIGLGFVWSHHMFVGLDDRAYFTSATMIAPTSIKFSWLATYGGRTALAFIFLFTGGTGVLNSADPFHDSYYVVHFHYVLSMGAFSIGWYLWPGLYNLFWFNFPMHFLGGMPRRNYPDAGWNSGSAYQLGPSGTNEPH'
p251
sg123
F0.035970000000000002
sg124
g125
sg33
S'115'
p252
sg126
g1
(g127
g12
(dp253
g129
I4
sg130
g131
sg132
g133
sg134
g131
sg135
I01
sg34
g136
sg137
g133
sg138
I0
sg139
I0
sg140
I0
sg141
g133
sg35
g131
sg142
I0
stRp254
sg144
g145
sg146
F1
sg147
Nsg30
S'CalimA'
p255
sbasg120
g52
sg123
F1.1444799999999999
sg124
g125
sg33
S'2'
sg126
g1
(g127
g12
(dp256
g129
I8
sg130
g131
sg132
g133
sg134
g131
sg135
I01
sg34
g171
sg137
g133
sg138
I0
sg139
I0
sg140
I0
sg141
g133
sg35
g131
sg142
I0
stRp257
sg144
g145
sg146
F0.97999999999999998
sg147
Nsg30
S'NoName'
p258
sbag1
(g2
g3
NtRp259
(dp260
g6
g1
(g7
g3
NtRp261
(dp262
g10
g1
(g11
g12
(dtRp263
sg14
g1
(g11
g12
(dtRp264
sg16
g1
(g11
g12
(dtRp265
sg18
g1
(g11
g12
(dtRp266
sg20
g1
(g11
g12
(dtRp267
sg22
g1
(g11
g12
(dtRp268
sbsg24
g25
sg26
g27
((lp269
g33
ag32
ag29
ag30
atRp270
sg37
(lp271
g1
(g2
g3
NtRp272
(dp273
g6
g1
(g7
g3
NtRp274
(dp275
g10
g1
(g11
g12
(dtRp276
sg14
g1
(g11
g12
(dtRp277
sg16
g1
(g11
g12
(dtRp278
sg18
g1
(g11
g12
(dtRp279
sg20
g1
(g11
g12
(dtRp280
sg22
g1
(g11
g12
(dtRp281
sbsg24
g25
sg26
g27
((lp282
g33
ag32
ag29
ag30
atRp283
sg37
(lp284
g1
(g2
g3
NtRp285
(dp286
g6
g1
(g7
g3
NtRp287
(dp288
g10
g1
(g11
g12
(dtRp289
sg14
g1
(g11
g12
(dtRp290
sg16
g1
(g11
g12
(dtRp291
sg18
g1
(g11
g12
(dtRp292
sg20
g1
(g11
g12
(dtRp293
sg22
g1
(g11
g12
(dtRp294
sbsg24
g25
sg26
g27
((lp295
g33
ag32
ag29
ag30
atRp296
sg37
(lp297
g1
(g2
g3
NtRp298
(dp299
g6
g1
(g7
g3
NtRp300
(dp301
g10
g1
(g11
g12
(dtRp302
sg14
g1
(g11
g12
(dtRp303
sg16
g1
(g11
g12
(dtRp304
sg18
g1
(g11
g12
(dtRp305
sg20
g1
(g11
g12
(dtRp306
sg22
g1
(g11
g12
(dtRp307
sbsg24
g25
sg26
g27
((lp308
g33
ag32
ag29
ag30
atRp309
sg37
(lp310
g1
(g2
g3
NtRp311
(dp312
g6
g1
(g7
g3
NtRp313
(dp314
g10
g1
(g11
g12
(dtRp315
sg14
g1
(g11
g12
(dtRp316
sg16
g1
(g11
g12
(dtRp317
sg18
g1
(g11
g12
(dtRp318
sg20
g1
(g11
g12
(dtRp319
sg22
g1
(g11
g12
(dtRp320
sbsg24
S'Mst'
p321
sg26
g27
((lp322
g29
ag30
aS'sequence'
p323
ag32
ag33
aS'species'
p324
atRp325
sg37
(lp326
sg120
g298
sg121
S'RWLSTKDLYSRLELPTLNQNVHAMFVMPSGFGNPMGDMLARLNNSFWLVPVSLEGAGTGWTVYPPLSHSGASVDLVFHMSSSLLGAINFTNMRGTLFWTALLLLSLPVLSGTLLDRNFNTFEGGDPLYHLFWFFGHPEVYIIPGFGSHSTYKKFGMYASMGLGFVWSHHMYVGLDDRAYFTSATMMAPTGVKFSWLATYGGRPFLAFMFLFTGGTGVLNASDAFHDTYYVVHFHYVLSLGAFSLGYYFWPGLYNLFMFNFPLHFLGGMPRRPYPDAGWNSGSSYQLGPDESNEPH'
p327
sg123
F0.087190000000000004
sg124
g125
sg33
S'25'
p328
sg126
g1
(g127
g12
(dp329
g129
I4
sg130
g131
sg132
g133
sg134
g131
sg135
I01
sg34
g136
sg137
g133
sg138
I0
sg139
I0
sg140
I0
sg141
g133
sg35
g131
sg142
I0
stRp330
sg144
g145
sg146
F1
sg147
Nsg30
S'MstarA'
p331
sbag1
(g2
g3
NtRp332
(dp333
g6
g1
(g7
g3
NtRp334
(dp335
g10
g1
(g11
g12
(dtRp336
sg14
g1
(g11
g12
(dtRp337
sg16
g1
(g11
g12
(dtRp338
sg18
g1
(g11
g12
(dtRp339
sg20
g1
(g11
g12
(dtRp340
sg22
g1
(g11
g12
(dtRp341
sbsg24
S'Min'
p342
sg26
g27
((lp343
g29
ag30
aS'sequence'
p344
ag32
ag33
aS'species'
p345
atRp346
sg37
(lp347
sg120
g298
sg121
S'RWLSTKDLYSRLELPTLNQNVHAMFVMPAGFGNPMGDMLARLNNSFWLVPVSLEGAGTGWTVYPPLSHSGPSVDLVFHISSSLLGSMNFTNMRGTLFWTSLLLLSLPVLSGTLLDRNFNTFEGGDPLYHLFYKMMLFSMYMMPGFGSHSAYKKFGMYASIGLGFVWSHHMYVGLDDRAYFTSATMIAPTGVKFSWLATYGGRPFLAFMFLFTGGTGVLNASDAFHDTYYVVHFHYVLSLGAFSLGYYFWPGLYNLFTFNFPLHFLGGMPRRPYPDAGWNSGSSYQLGPDESNEPH'
p348
sg123
F0.040719999999999999
sg124
g125
sg33
S'27'
p349
sg126
g1
(g127
g12
(dp350
g129
I4
sg130
g131
sg132
g133
sg134
g131
sg135
I01
sg34
g136
sg137
g133
sg138
I0
sg139
I0
sg140
I0
sg141
g133
sg35
g131
sg142
I0
stRp351
sg144
g145
sg146
F1
sg147
Nsg30
S'MingeA'
p352
sbasg120
g285
sg123
F0.037420000000000002
sg124
g125
sg33
S'147'
p353
sg126
g1
(g127
g12
(dp354
g129
I8
sg130
g131
sg132
g133
sg134
g131
sg135
I01
sg34
g171
sg137
g133
sg138
I0
sg139
I0
sg140
I0
sg141
g133
sg35
g131
sg142
I0
stRp355
sg144
g145
sg146
F0.98999999999999999
sg147
Nsg30
S'NoName'
p356
sbag1
(g2
g3
NtRp357
(dp358
g6
g1
(g7
g3
NtRp359
(dp360
g10
g1
(g11
g12
(dtRp361
sg14
g1
(g11
g12
(dtRp362
sg16
g1
(g11
g12
(dtRp363
sg18
g1
(g11
g12
(dtRp364
sg20
g1
(g11
g12
(dtRp365
sg22
g1
(g11
g12
(dtRp366
sbsg24
g25
sg26
g27
((lp367
g33
ag32
ag29
ag30
atRp368
sg37
(lp369
g1
(g2
g3
NtRp370
(dp371
g6
g1
(g7
g3
NtRp372
(dp373
g10
g1
(g11
g12
(dtRp374
sg14
g1
(g11
g12
(dtRp375
sg16
g1
(g11
g12
(dtRp376
sg18
g1
(g11
g12
(dtRp377
sg20
g1
(g11
g12
(dtRp378
sg22
g1
(g11
g12
(dtRp379
sbsg24
g25
sg26
g27
((lp380
g33
ag32
ag29
ag30
atRp381
sg37
(lp382
g1
(g2
g3
NtRp383
(dp384
g6
g1
(g7
g3
NtRp385
(dp386
g10
g1
(g11
g12
(dtRp387
sg14
g1
(g11
g12
(dtRp388
sg16
g1
(g11
g12
(dtRp389
sg18
g1
(g11
g12
(dtRp390
sg20
g1
(g11
g12
(dtRp391
sg22
g1
(g11
g12
(dtRp392
sbsg24
S'Mte'
p393
sg26
g27
((lp394
g29
ag30
aS'sequence'
p395
ag32
ag33
aS'species'
p396
atRp397
sg37
(lp398
sg120
g370
sg121
S'RWLSTKDLYSRLELPTLNQNVHAMFVMPAGFGNPMGDMLARLNNSFWLVPLSLEGAGTGWTVYPPLSHSGPSVDMVFHISSSLLGAINFTNMRGTLFWTALLLLSLPVLSGTLLDRNFNTFEGGDPLYHLFWFFGHPEVYIIPGFGSHSAYKKFGMYASIGLGFVWSHHMYVGLDDRAYFTSATMIAPTGVKFSWLATYGGRPFLAFIFLFTGGTGVLNASDAFHDTYYVVHFHYVLSLGAFSLGYYFWPGLYNLFYFNFPMHALGGMPRRPYPDAGWNSGSSYQLGPDESNEPH'
p399
sg123
F0.042599999999999999
sg124
g125
sg33
S'32'
p400
sg126
g1
(g127
g12
(dp401
g129
I4
sg130
g131
sg132
g133
sg134
g131
sg135
I01
sg34
g136
sg137
g133
sg138
I0
sg139
I0
sg140
I0
sg141
g133
sg35
g131
sg142
I0
stRp402
sg144
g145
sg146
F1
sg147
Nsg30
S'MtetrA'
p403
sbag1
(g2
g3
NtRp404
(dp405
g6
g1
(g7
g3
NtRp406
(dp407
g10
g1
(g11
g12
(dtRp408
sg14
g1
(g11
g12
(dtRp409
sg16
g1
(g11
g12
(dtRp410
sg18
g1
(g11
g12
(dtRp411
sg20
g1
(g11
g12
(dtRp412
sg22
g1
(g11
g12
(dtRp413
sbsg24
g25
sg26
g27
((lp414
g33
ag32
ag29
ag30
atRp415
sg37
(lp416
g1
(g2
g3
NtRp417
(dp418
g6
g1
(g7
g3
NtRp419
(dp420
g10
g1
(g11
g12
(dtRp421
sg14
g1
(g11
g12
(dtRp422
sg16
g1
(g11
g12
(dtRp423
sg18
g1
(g11
g12
(dtRp424
sg20
g1
(g11
g12
(dtRp425
sg22
g1
(g11
g12
(dtRp426
sbsg24
S'Mma'
p427
sg26
g27
((lp428
g29
ag30
aS'sequence'
p429
ag32
ag33
aS'species'
p430
atRp431
sg37
(lp432
sg120
g404
sg121
S'RWLSTKDLYSRLELPTLNQNVHAMFVMPAGFGNPMGDMLARLNNSFWLVPLSLEGPGTGWTVYPPLSHSGPSVDMVFHISSSLLGAINFTNMRGTLFWTALLLLSLPVLSGTLLDRNFNTFEGGDPLYHLFWFFGHPEVYIIPGFGSHSAYKKFGMYASIGLGFVWSHHMYVGLDDRAYFTSATMIAPTGVKFSWLATYGGRPFLAFIFLFTGGTGVLNASDAFHDSYYVVHFHYVLSLGAFSLGYYFWPGLYNLFFFNFPMHALGGMPRRPYPDAGWNSGSSYQLGPDESNEPH'
p433
sg123
F0.00055000000000000003
sg124
g125
sg33
S'35'
p434
sg126
g1
(g127
g12
(dp435
g129
I4
sg130
g131
sg132
g133
sg134
g131
sg135
I01
sg34
g136
sg137
g133
sg138
I0
sg139
I0
sg140
I0
sg141
g133
sg35
g131
sg142
I0
stRp436
sg144
g145
sg146
F1
sg147
Nsg30
S'MmagnB'
p437
sbag1
(g2
g3
NtRp438
(dp439
g6
g1
(g7
g3
NtRp440
(dp441
g10
g1
(g11
g12
(dtRp442
sg14
g1
(g11
g12
(dtRp443
sg16
g1
(g11
g12
(dtRp444
sg18
g1
(g11
g12
(dtRp445
sg20
g1
(g11
g12
(dtRp446
sg22
g1
(g11
g12
(dtRp447
sbsg24
S'Mma'
p448
sg26
g27
((lp449
g29
ag30
aS'sequence'
p450
ag32
ag33
aS'species'
p451
atRp452
sg37
(lp453
sg120
g404
sg121
S'RWLSTKDLYSRLELPTLNQNVHAMFVMPAGFGNPMGDMLARLNNSFWLVPLSLEGPGTGWTVYPPLSHSGPSVDMVFHISSSLLGAINFTNMRGTLFWTALLLLSLPVLSGTLLDRNFNTFEGGDPLYHLFWFFGHPEVYIIPGFGSHSAYKKFGMYASIGLGFVWSHHMYVGLDDRAYFTSATMIAPTGVKFSWLATYGGRPFLAFIFLFTGGTGVLNASDAFHDSYYVVHFHYVLSLGAFSLGYYFWPGLYNLFFFNFPMHALGGMPRRPYPDAGWNSGSSYQLGPDESNEPH'
p454
sg123
F0.00088000000000000003
sg124
g125
sg33
S'36'
p455
sg126
g1
(g127
g12
(dp456
g129
I4
sg130
g131
sg132
g133
sg134
g131
sg135
I01
sg34
g136
sg137
g133
sg138
I0
sg139
I0
sg140
I0
sg141
g133
sg35
g131
sg142
I0
stRp457
sg144
g145
sg146
F1
sg147
Nsg30
S'MmagnA'
p458
sbasg120
g370
sg123
F0.011140000000000001
sg124
g125
sg33
S'202'
p459
sg126
g1
(g127
g12
(dp460
g129
I8
sg130
g131
sg132
g133
sg134
g131
sg135
I01
sg34
g171
sg137
g133
sg138
I0
sg139
I0
sg140
I0
sg141
g133
sg35
g131
sg142
I0
stRp461
sg144
g145
sg146
F0.98999999999999999
sg147
Nsg30
S'NoName'
p462
sbasg120
g357
sg123
F0.11189
sg124
g125
sg33
S'29'
p463
sg126
g1
(g127
g12
(dp464
g129
I8
sg130
g131
sg132
g133
sg134
g131
sg135
I01
sg34
g171
sg137
g133
sg138
I0
sg139
I0
sg140
I0
sg141
g133
sg35
g131
sg142
I0
stRp465
sg144
g145
sg146
F0.98999999999999999
sg147
Nsg30
S'NoName'
p466
sbag1
(g2
g3
NtRp467
(dp468
g6
g1
(g7
g3
NtRp469
(dp470
g10
g1
(g11
g12
(dtRp471
sg14
g1
(g11
g12
(dtRp472
sg16
g1
(g11
g12
(dtRp473
sg18
g1
(g11
g12
(dtRp474
sg20
g1
(g11
g12
(dtRp475
sg22
g1
(g11
g12
(dtRp476
sbsg24
g25
sg26
g27
((lp477
g33
ag32
ag29
ag30
atRp478
sg37
(lp479
g1
(g2
g3
NtRp480
(dp481
g6
g1
(g7
g3
NtRp482
(dp483
g10
g1
(g11
g12
(dtRp484
sg14
g1
(g11
g12
(dtRp485
sg16
g1
(g11
g12
(dtRp486
sg18
g1
(g11
g12
(dtRp487
sg20
g1
(g11
g12
(dtRp488
sg22
g1
(g11
g12
(dtRp489
sbsg24
S'Scl'
p490
sg26
g27
((lp491
g29
ag30
aS'sequence'
p492
ag32
ag33
aS'species'
p493
atRp494
sg37
(lp495
sg120
g467
sg121
S'RWLSTKDLYSRLELPTLNQNVHAMFVMPAGFGNPMGDMLARLNNSFWLVPLSLEGPGTGWTVYPPLSHSGPSVDMVFHMSSSLLGAINFTNMRGTLFWTALLLLSLPVLAGTLLDRNFNTFEGGDPLYHLFWFFGHPEVYMIPGFGSHSTYKKFGMYASMGLGFVWSHHMYVGLDDRAYFTAATMIAPTGVKFSWLATYGGRPFLTFMFLFTGGTGVLNASDAFHDTYYVVHFHYVLSLGAFSLGYYFWPGLYNLFMFNFPLHFLGGMPRRPYPDAGWNSGSSYQLGPDESNEPH'
p496
sg123
F0.020899999999999998
sg124
g125
sg33
S'41'
p497
sg126
g1
(g127
g12
(dp498
g129
I4
sg130
g131
sg132
g133
sg134
g131
sg135
I01
sg34
g136
sg137
g133
sg138
I0
sg139
I0
sg140
I0
sg141
g133
sg35
g131
sg142
I0
stRp499
sg144
g145
sg146
F1
sg147
Nsg30
S'SclavA'
p500
sbag1
(g2
g3
NtRp501
(dp502
g6
g1
(g7
g3
NtRp503
(dp504
g10
g1
(g11
g12
(dtRp505
sg14
g1
(g11
g12
(dtRp506
sg16
g1
(g11
g12
(dtRp507
sg18
g1
(g11
g12
(dtRp508
sg20
g1
(g11
g12
(dtRp509
sg22
g1
(g11
g12
(dtRp510
sbsg24
S'Msp'
p511
sg26
g27
((lp512
g29
ag30
aS'sequence'
p513
ag32
ag33
aS'species'
p514
atRp515
sg37
(lp516
sg120
g467
sg121
S'RWLSTKDLYSRLELPTLNQNVHAMFVMPAGFGNPMGDMLARLNNSFWLVPLSLEGPGTGWTVYPPLSHSGPSVDMVFHMSSSLLGAMNFTNMRGTLFWTALLLLSLPVLAGTLLDRNFNTFEGGDPLYHLFWFFGHPEVYMIPGFGSHSTYKKFGMYASMGLGFVWSHHMYVGLDDRAYFTAATMIAPTGVKFSWLATYGGRPFLTFMFLFTGGTGVLNASDAFHDTYYVVHFHYVLSLGAFSLGYYFWPGLYNLFMFNFPLHFLGGMPRRPYPDAGWNSGSSYQLGPDESNEPH'
p517
sg123
F0.13538
sg124
g125
sg33
S'43'
p518
sg126
g1
(g127
g12
(dp519
g129
I4
sg130
g131
sg132
g133
sg134
g131
sg135
I01
sg34
g136
sg137
g133
sg138
I0
sg139
I0
sg140
I0
sg141
g133
sg35
g131
sg142
I0
stRp520
sg144
g145
sg146
F1
sg147
Nsg30
S'MspicA'
p521
sbasg120
g357
sg123
F0.10536
sg124
g125
sg33
S'33'
p522
sg126
g1
(g127
g12
(dp523
g129
I8
sg130
g131
sg132
g133
sg134
g131
sg135
I01
sg34
g171
sg137
g133
sg138
I0
sg139
I0
sg140
I0
sg141
g133
sg35
g131
sg142
I0
stRp524
sg144
g145
sg146
F0.98999999999999999
sg147
Nsg30
S'NoName'
p525
sbasg120
g285
sg123
F0.03209
sg124
g125
sg33
S'160'
p526
sg126
g1
(g127
g12
(dp527
g129
I8
sg130
g131
sg132
g133
sg134
g131
sg135
I01
sg34
g171
sg137
g133
sg138
I0
sg139
I0
sg140
I0
sg141
g133
sg35
g131
sg142
I0
stRp528
sg144
g145
sg146
F0.98999999999999999
sg147
Nsg30
S'NoName'
p529
sbasg120
g272
sg123
F0.32869999999999999
sg124
g125
sg33
S'136'
p530
sg126
g1
(g127
g12
(dp531
g129
I8
sg130
g131
sg132
g133
sg134
g131
sg135
I01
sg34
g171
sg137
g133
sg138
I0
sg139
I0
sg140
I0
sg141
g133
sg35
g131
sg142
I0
stRp532
sg144
g145
sg146
F0.98999999999999999
sg147
Nsg30
S'NoName'
p533
sbag1
(g2
g3
NtRp534
(dp535
g6
g1
(g7
g3
NtRp536
(dp537
g10
g1
(g11
g12
(dtRp538
sg14
g1
(g11
g12
(dtRp539
sg16
g1
(g11
g12
(dtRp540
sg18
g1
(g11
g12
(dtRp541
sg20
g1
(g11
g12
(dtRp542
sg22
g1
(g11
g12
(dtRp543
sbsg24
g25
sg26
g27
((lp544
g33
ag32
ag29
ag30
atRp545
sg37
(lp546
g1
(g2
g3
NtRp547
(dp548
g6
g1
(g7
g3
NtRp549
(dp550
g10
g1
(g11
g12
(dtRp551
sg14
g1
(g11
g12
(dtRp552
sg16
g1
(g11
g12
(dtRp553
sg18
g1
(g11
g12
(dtRp554
sg20
g1
(g11
g12
(dtRp555
sg22
g1
(g11
g12
(dtRp556
sbsg24
g25
sg26
g27
((lp557
g33
ag32
ag29
ag30
atRp558
sg37
(lp559
g1
(g2
g3
NtRp560
(dp561
g6
g1
(g7
g3
NtRp562
(dp563
g10
g1
(g11
g12
(dtRp564
sg14
g1
(g11
g12
(dtRp565
sg16
g1
(g11
g12
(dtRp566
sg18
g1
(g11
g12
(dtRp567
sg20
g1
(g11
g12
(dtRp568
sg22
g1
(g11
g12
(dtRp569
sbsg24
S'Cze'
p570
sg26
g27
((lp571
g29
ag30
aS'sequence'
p572
ag32
ag33
aS'species'
p573
atRp574
sg37
(lp575
sg120
g547
sg121
S'SWLSTQNLYSRIELPNLNQNVHAMFVMPTGLANPQGDTFPRMNNAFVLLPMSLDGPGSGWTLYPPLTHSGSSMDMAFHLSSSIFGAINLTNMRGPLFWTALMMLALPVLAGTLLDRNFNTFVGGDPLYHIFWFFGHPEVYIIPVFGSQQVYKKFGMYASIGLGFVWSHHMFVGLDDRAYFSGASLIAPTGSKFSWLATYGGRPLLAFMVLFTGGTGVMNSSDMFHDTYYVVHFHYVLSLGVFGVAYYFWPGLYNLFWFNFPLHFLGGLPRRPYPDAGWNSGSSYQFGPDESNEPH'
p576
sg123
F1.5682799999999999
sg124
g125
sg33
S'48'
p577
sg126
g1
(g127
g12
(dp578
g129
I4
sg130
g131
sg132
g133
sg134
g131
sg135
I01
sg34
g136
sg137
g133
sg138
I0
sg139
I0
sg140
I0
sg141
g133
sg35
g131
sg142
I0
stRp579
sg144
g145
sg146
F1
sg147
Nsg30
S'CzempA'
p580
sbag1
(g2
g3
NtRp581
(dp582
g6
g1
(g7
g3
NtRp583
(dp584
g10
g1
(g11
g12
(dtRp585
sg14
g1
(g11
g12
(dtRp586
sg16
g1
(g11
g12
(dtRp587
sg18
g1
(g11
g12
(dtRp588
sg20
g1
(g11
g12
(dtRp589
sg22
g1
(g11
g12
(dtRp590
sbsg24
g25
sg26
g27
((lp591
g33
ag32
ag29
ag30
atRp592
sg37
(lp593
g1
(g2
g3
NtRp594
(dp595
g6
g1
(g7
g3
NtRp596
(dp597
g10
g1
(g11
g12
(dtRp598
sg14
g1
(g11
g12
(dtRp599
sg16
g1
(g11
g12
(dtRp600
sg18
g1
(g11
g12
(dtRp601
sg20
g1
(g11
g12
(dtRp602
sg22
g1
(g11
g12
(dtRp603
sbsg24
S'Csa'
p604
sg26
g27
((lp605
g29
ag30
aS'sequence'
p606
ag32
ag33
aS'species'
p607
atRp608
sg37
(lp609
sg120
g581
sg121
S'----------RLELPNLNQNVHAMFVMPSGFGNPMGDMLARLNNSFWLVPLSLDGPGTGWTMYPPLSHSGASVDLVFHISSSLLGAMNFTNMRGTLFWTALLLLSLPVLSGTLLDRNFNTFEGGDMLYHMFWFFGHPEVYMMPGFGSQSVYKKFGMYASMGLGFVWSHHMFVGLDDRAYFTAATLMAPTGVKFSWLASYGGRPLLAFMFLFTGGTGVLNASDAFHDTYYVVHFHYVLSLGAFSLGYYFWPGLYNLFWFNFPQHFLGAMPRRPYPDAGWNSGSSYQMGPDFSNEPH'
p610
sg123
F0.65920000000000001
sg124
g125
sg33
S'51'
p611
sg126
g1
(g127
g12
(dp612
g129
I4
sg130
g131
sg132
g133
sg134
g131
sg135
I01
sg34
g136
sg137
g133
sg138
I0
sg139
I0
sg140
I0
sg141
g133
sg35
g131
sg142
I0
stRp613
sg144
g145
sg146
F1
sg147
Nsg30
S'CsantA'
p614
sbag1
(g2
g3
NtRp615
(dp616
g6
g1
(g7
g3
NtRp617
(dp618
g10
g1
(g11
g12
(dtRp619
sg14
g1
(g11
g12
(dtRp620
sg16
g1
(g11
g12
(dtRp621
sg18
g1
(g11
g12
(dtRp622
sg20
g1
(g11
g12
(dtRp623
sg22
g1
(g11
g12
(dtRp624
sbsg24
S'Csa'
p625
sg26
g27
((lp626
g29
ag30
aS'sequence'
p627
ag32
ag33
aS'species'
p628
atRp629
sg37
(lp630
sg120
g581
sg121
S'RWLSTKDLYSRLELPAMSQNVHAMFVMPSGFANPMGDTLPRVNNAAILMPMSLEGPGTGWTVYPPLSHSGVSVDLVFHISSSLAGAMNLTNMRGPLFWTALLLLSLPVLAGTLIDRNFNTFDGGDVLYHLFWFFGHPEVYIIPGFGSESRYNKFGMYASIGLGFVWSHHMYVGLDDRSYFTAATLIAPTGVKFSWMATFGGRPFLTFLALFTGGTGVLNASDAFHDTYYVVHFHYVLSLGAFSMGYYYWPGLYNLFWFNFPQHFLGGQPRRSYPDAGWNSGSSYQLGPDESNEPH'
p631
sg123
F1.3581099999999999
sg124
g125
sg33
S'54'
p632
sg126
g1
(g127
g12
(dp633
g129
I4
sg130
g131
sg132
g133
sg134
g131
sg135
I01
sg34
g136
sg137
g133
sg138
I0
sg139
I0
sg140
I0
sg141
g133
sg35
g131
sg142
I0
stRp634
sg144
g145
sg146
F1
sg147
Nsg30
S'CsalmA'
p635
sbasg120
g547
sg123
F0.19968
sg124
g125
sg33
S'47'
p636
sg126
g1
(g127
g12
(dp637
g129
I8
sg130
g131
sg132
g133
sg134
g131
sg135
I01
sg34
g171
sg137
g133
sg138
I0
sg139
I0
sg140
I0
sg141
g133
sg35
g131
sg142
I0
stRp638
sg144
g145
sg146
F0.97999999999999998
sg147
Nsg30
S'NoName'
p639
sbasg120
g534
sg123
F0.14363999999999999
sg124
g125
sg33
S'45'
p640
sg126
g1
(g127
g12
(dp641
g129
I8
sg130
g131
sg132
g133
sg134
g131
sg135
I01
sg34
g171
sg137
g133
sg138
I0
sg139
I0
sg140
I0
sg141
g133
sg35
g131
sg142
I0
stRp642
sg144
g145
sg146
F0.93000000000000005
sg147
Nsg30
S'NoName'
p643
sbag1
(g2
g3
NtRp644
(dp645
g6
g1
(g7
g3
NtRp646
(dp647
g10
g1
(g11
g12
(dtRp648
sg14
g1
(g11
g12
(dtRp649
sg16
g1
(g11
g12
(dtRp650
sg18
g1
(g11
g12
(dtRp651
sg20
g1
(g11
g12
(dtRp652
sg22
g1
(g11
g12
(dtRp653
sbsg24
S'Bar'
p654
sg26
g27
((lp655
g29
ag30
aS'sequence'
p656
ag32
ag33
aS'species'
p657
atRp658
sg37
(lp659
sg120
g534
sg121
S'RWLSTKDLYSRLELPNLNQNSHAMFVMPTGFGNPMGDMLSRLNNSFWLVPLSLEGPGTGWTVYPPLSHSGPSVDLVFHVSSSLLGAMNFTNMRGTLFWTVLLLLALPVLAGTLLDRNFNTFEGGDPLYHMFWFFGHPEVYIIPGFGSQAVYNKFGMYASIGLGFVWSHHMYVGMDDRAYFTAATLIAPTGVKFSWLASYGGRPLLTFIGLFTGGTGVLNAADAFHDSYYVVHFHYVLSLGAFSLGYYFWPGLYNLFWFNFPQHFLGSMPRRPYPDAGWNSGSSVQLGPDVNNEPH'
p660
sg123
F0.74575000000000002
sg124
g125
sg33
S'55'
p661
sg126
g1
(g127
g12
(dp662
g129
I4
sg130
g131
sg132
g133
sg134
g131
sg135
I01
sg34
g136
sg137
g133
sg138
I0
sg139
I0
sg140
I0
sg141
g133
sg35
g131
sg142
I0
stRp663
sg144
g145
sg146
F1
sg147
Nsg30
S'BarxA'
p664
sbasg120
g272
sg123
F0.25233
sg124
g125
sg33
S'39'
p665
sg126
g1
(g127
g12
(dp666
g129
I8
sg130
g131
sg132
g133
sg134
g131
sg135
I01
sg34
g171
sg137
g133
sg138
I0
sg139
I0
sg140
I0
sg141
g133
sg35
g131
sg142
I0
stRp667
sg144
g145
sg146
F0.97999999999999998
sg147
Nsg30
S'NoName'
p668
sbasg120
g259
sg123
F0.42224
sg124
g125
sg33
S'19'
p669
sg126
g1
(g127
g12
(dp670
g129
I8
sg130
g131
sg132
g133
sg134
g131
sg135
I01
sg34
g171
sg137
g133
sg138
I0
sg139
I0
sg140
I0
sg141
g133
sg35
g131
sg142
I0
stRp671
sg144
g145
sg146
F0.97999999999999998
sg147
Nsg30
S'NoName'
p672
sbag1
(g2
g3
NtRp673
(dp674
g6
g1
(g7
g3
NtRp675
(dp676
g10
g1
(g11
g12
(dtRp677
sg14
g1
(g11
g12
(dtRp678
sg16
g1
(g11
g12
(dtRp679
sg18
g1
(g11
g12
(dtRp680
sg20
g1
(g11
g12
(dtRp681
sg22
g1
(g11
g12
(dtRp682
sbsg24
g25
sg26
g27
((lp683
g33
ag32
ag29
ag30
atRp684
sg37
(lp685
g1
(g2
g3
NtRp686
(dp687
g6
g1
(g7
g3
NtRp688
(dp689
g10
g1
(g11
g12
(dtRp690
sg14
g1
(g11
g12
(dtRp691
sg16
g1
(g11
g12
(dtRp692
sg18
g1
(g11
g12
(dtRp693
sg20
g1
(g11
g12
(dtRp694
sg22
g1
(g11
g12
(dtRp695
sbsg24
g25
sg26
g27
((lp696
g33
ag32
ag29
ag30
atRp697
sg37
(lp698
g1
(g2
g3
NtRp699
(dp700
g6
g1
(g7
g3
NtRp701
(dp702
g10
g1
(g11
g12
(dtRp703
sg14
g1
(g11
g12
(dtRp704
sg16
g1
(g11
g12
(dtRp705
sg18
g1
(g11
g12
(dtRp706
sg20
g1
(g11
g12
(dtRp707
sg22
g1
(g11
g12
(dtRp708
sbsg24
g25
sg26
g27
((lp709
g33
ag32
ag29
ag30
atRp710
sg37
(lp711
g1
(g2
g3
NtRp712
(dp713
g6
g1
(g7
g3
NtRp714
(dp715
g10
g1
(g11
g12
(dtRp716
sg14
g1
(g11
g12
(dtRp717
sg16
g1
(g11
g12
(dtRp718
sg18
g1
(g11
g12
(dtRp719
sg20
g1
(g11
g12
(dtRp720
sg22
g1
(g11
g12
(dtRp721
sbsg24
g25
sg26
g27
((lp722
g33
ag32
ag29
ag30
atRp723
sg37
(lp724
g1
(g2
g3
NtRp725
(dp726
g6
g1
(g7
g3
NtRp727
(dp728
g10
g1
(g11
g12
(dtRp729
sg14
g1
(g11
g12
(dtRp730
sg16
g1
(g11
g12
(dtRp731
sg18
g1
(g11
g12
(dtRp732
sg20
g1
(g11
g12
(dtRp733
sg22
g1
(g11
g12
(dtRp734
sbsg24
S'Mfa'
p735
sg26
g27
((lp736
g29
ag30
aS'sequence'
p737
ag32
ag33
aS'species'
p738
atRp739
sg37
(lp740
sg120
g712
sg121
S'RWLSTKDLYSRLELGNLNQNVHAMFVMPLGFGNPLGDMFARLNNSFWLPPLSLEGAGTGWTVYPPLSHSGPSVDLAFHLTSSLLGAINFTNMRGPLFWTALLLLSLPVLAGTLLDRNFNTFEGGDPLYHLFWFFGHPEVYIIPGFGSHSTYKKFGMYASIGLGFVWSHHMYVGLDDRAYFTSATMIAPTGIKFSWLATYGGRPMLAFLFLFTGGTGVLNASDAFHDTYFVVHFHYVLSMGAFSLAYYYWPGLYNLFWFNFPMHFLGGMPRRPYPDAGWNSGSSYQMGPDESNEPH'
p741
sg123
F0.14163999999999999
sg124
g125
sg33
S'64'
p742
sg126
g1
(g127
g12
(dp743
g129
I4
sg130
g131
sg132
g133
sg134
g131
sg135
I01
sg34
g136
sg137
g133
sg138
I0
sg139
I0
sg140
I0
sg141
g133
sg35
g131
sg142
I0
stRp744
sg144
g145
sg146
F1
sg147
Nsg30
S'MfariB'
p745
sbag1
(g2
g3
NtRp746
(dp747
g6
g1
(g7
g3
NtRp748
(dp749
g10
g1
(g11
g12
(dtRp750
sg14
g1
(g11
g12
(dtRp751
sg16
g1
(g11
g12
(dtRp752
sg18
g1
(g11
g12
(dtRp753
sg20
g1
(g11
g12
(dtRp754
sg22
g1
(g11
g12
(dtRp755
sbsg24
S'Csa'
p756
sg26
g27
((lp757
g29
ag30
aS'sequence'
p758
ag32
ag33
aS'species'
p759
atRp760
sg37
(lp761
sg120
g712
sg121
S'RWLSTKDLYSRLELGNFNQNVHAMFVMPLGFGNPLGDMFARLNNSFWLPPLSLEGAGTGWTVYPPLSHSGPSVDLAFHLTSSLLGAINFTNMRGPLFWTALLLLSLPVLAATLLDRNFNTFEGGDPLYHLFWFFGHPEVYIIPGFGSHSTYKKFGMYASMGLGFVWSHHMYVGLDDRAYFTSATMIAPTGMKFSWLATYGGRPMLAFLFLFTGGTGVLNASDAFHDTYYVVHFHYVLSMGAFSLAYYYWPGLYNWFWFNFPMHFLGGMPRRPYPDAGWNSGSSYQMGPDESNEPH'
p762
sg123
F0.069970000000000004
sg124
g125
sg33
S'65'
p763
sg126
g1
(g127
g12
(dp764
g129
I4
sg130
g131
sg132
g133
sg134
g131
sg135
I01
sg34
g136
sg137
g133
sg138
I0
sg139
I0
sg140
I0
sg141
g133
sg35
g131
sg142
I0
stRp765
sg144
g145
sg146
F1
sg147
Nsg30
S'CsakeA'
p766
sbasg120
g699
sg123
F0.048980000000000003
sg124
g125
sg33
S'61'
p767
sg126
g1
(g127
g12
(dp768
g129
I8
sg130
g131
sg132
g133
sg134
g131
sg135
I01
sg34
g171
sg137
g133
sg138
I0
sg139
I0
sg140
I0
sg141
g133
sg35
g131
sg142
I0
stRp769
sg144
g145
sg146
F0.98999999999999999
sg147
Nsg30
S'NoName'
p770
sbag1
(g2
g3
NtRp771
(dp772
g6
g1
(g7
g3
NtRp773
(dp774
g10
g1
(g11
g12
(dtRp775
sg14
g1
(g11
g12
(dtRp776
sg16
g1
(g11
g12
(dtRp777
sg18
g1
(g11
g12
(dtRp778
sg20
g1
(g11
g12
(dtRp779
sg22
g1
(g11
g12
(dtRp780
sbsg24
g25
sg26
g27
((lp781
g33
ag32
ag29
ag30
atRp782
sg37
(lp783
g1
(g2
g3
NtRp784
(dp785
g6
g1
(g7
g3
NtRp786
(dp787
g10
g1
(g11
g12
(dtRp788
sg14
g1
(g11
g12
(dtRp789
sg16
g1
(g11
g12
(dtRp790
sg18
g1
(g11
g12
(dtRp791
sg20
g1
(g11
g12
(dtRp792
sg22
g1
(g11
g12
(dtRp793
sbsg24
g25
sg26
g27
((lp794
g33
ag32
ag29
ag30
atRp795
sg37
(lp796
g1
(g2
g3
NtRp797
(dp798
g6
g1
(g7
g3
NtRp799
(dp800
g10
g1
(g11
g12
(dtRp801
sg14
g1
(g11
g12
(dtRp802
sg16
g1
(g11
g12
(dtRp803
sg18
g1
(g11
g12
(dtRp804
sg20
g1
(g11
g12
(dtRp805
sg22
g1
(g11
g12
(dtRp806
sbsg24
S'Mfa'
p807
sg26
g27
((lp808
g29
ag30
aS'sequence'
p809
ag32
ag33
aS'species'
p810
atRp811
sg37
(lp812
sg120
g784
sg121
S'RWLSTKDLYSRAELGNFNHNVHAMFVMPLGFGNPMGDMFARLNNSFWLPPLSLEGAGTGWTVYPPLSHSGPSVDLAFHLTSSLLGAMNFTNMRGPLFWTALLLLSLPVLAGTLLDRNFNTFEGGDPLYHLFWFFGHPEVYIIPGFGSHSTYKKFGMYASMGLGFVWSHHMYVGLDDRAYFTSATMMAPTGIKFSWLATYGGRPMLAFLFLFTGGTGVLNASDAFHDTYYMYHFHYVLSMGAFSLGYYYWPGLYNWFWFNFPMHFLGGMPRRPYPDAGWNSGSSKQLGPDESNEPH'
p813
sg123
F0.29086000000000001
sg124
g125
sg33
S'70'
p814
sg126
g1
(g127
g12
(dp815
g129
I4
sg130
g131
sg132
g133
sg134
g131
sg135
I01
sg34
g136
sg137
g133
sg138
I0
sg139
I0
sg140
I0
sg141
g133
sg35
g131
sg142
I0
stRp816
sg144
g145
sg146
F1
sg147
Nsg30
S'MfariA'
p817
sbag1
(g2
g3
NtRp818
(dp819
g6
g1
(g7
g3
NtRp820
(dp821
g10
g1
(g11
g12
(dtRp822
sg14
g1
(g11
g12
(dtRp823
sg16
g1
(g11
g12
(dtRp824
sg18
g1
(g11
g12
(dtRp825
sg20
g1
(g11
g12
(dtRp826
sg22
g1
(g11
g12
(dtRp827
sbsg24
S'Dha'
p828
sg26
g27
((lp829
g29
ag30
aS'sequence'
p830
ag32
ag33
aS'species'
p831
atRp832
sg37
(lp833
sg120
g784
sg121
S'RWLSTKDLYSRMELGNFNQNVHAMFIMPWGFGNPLGDMFARLNNSFWLPPLSLEGAGTGWTLYPPLSHSGPSVDLAFHLTSSLLGAMNFTNMRGPLFWTALLLLSLPVLAATLLDRNFNTFEGGDPLYHLFWFFGHPEVYIMPGFGSHSTYKKFGMYASIGLGFVWSHHMFVGLDDRAYFTSATMIAPTGIKFSWLATYGGRPMLAFLFLFTGGTGVLNASDAFHDTYYVVHFHYVLSMGAFSLAYYYWPGLYNLFWFNFPMHFLGGMPRRPYPDAGWNSGSSKQLGPDESNDPH'
p834
sg123
F0.11043
sg124
g125
sg33
S'71'
p835
sg126
g1
(g127
g12
(dp836
g129
I4
sg130
g131
sg132
g133
sg134
g131
sg135
I01
sg34
g136
sg137
g133
sg138
I0
sg139
I0
sg140
I0
sg141
g133
sg35
g131
sg142
I0
stRp837
sg144
g145
sg146
F1
sg147
Nsg30
S'DhansA'
p838
sbasg120
g771
sg123
F0.046699999999999998
sg124
g125
sg33
S'67'
p839
sg126
g1
(g127
g12
(dp840
g129
I8
sg130
g131
sg132
g133
sg134
g131
sg135
I01
sg34
g171
sg137
g133
sg138
I0
sg139
I0
sg140
I0
sg141
g133
sg35
g131
sg142
I0
stRp841
sg144
g145
sg146
F0.65000000000000002
sg147
Nsg30
S'NoName'
p842
sbag1
(g2
g3
NtRp843
(dp844
g6
g1
(g7
g3
NtRp845
(dp846
g10
g1
(g11
g12
(dtRp847
sg14
g1
(g11
g12
(dtRp848
sg16
g1
(g11
g12
(dtRp849
sg18
g1
(g11
g12
(dtRp850
sg20
g1
(g11
g12
(dtRp851
sg22
g1
(g11
g12
(dtRp852
sbsg24
g25
sg26
g27
((lp853
g33
ag32
ag29
ag30
atRp854
sg37
(lp855
g1
(g2
g3
NtRp856
(dp857
g6
g1
(g7
g3
NtRp858
(dp859
g10
g1
(g11
g12
(dtRp860
sg14
g1
(g11
g12
(dtRp861
sg16
g1
(g11
g12
(dtRp862
sg18
g1
(g11
g12
(dtRp863
sg20
g1
(g11
g12
(dtRp864
sg22
g1
(g11
g12
(dtRp865
sbsg24
S'Clu'
p866
sg26
g27
((lp867
g29
ag30
aS'sequence'
p868
ag32
ag33
aS'species'
p869
atRp870
sg37
(lp871
sg120
g843
sg121
S'RWLSTKDLYSRLELPDLNQNVHAMFVMPLGFGNPMGDMFARLNNSFWLPPLSLEGAGTGWTVYPPLSHSGPSVDLAFHLTSSLLGAINFTNMRGPLFWTALLLLSLPVLAGTLLDRNFNTFEGGDPLYHLFWFFGHPEVYMMPGFGSHSTYKKFGMYASMGLGFVWSHHMYVGLDDRAYFTSATMMAPTGMKFSWLATYGGRPMLAFLFLFTGGTGVLNASDAFHDTYYVVHFHYVLSMGAFSLGYYYWPGLYNWFWFNFPMHFLGGMPRRPYPDAGWNSGSSRQLGPDESNEPH'
p872
sg123
F0.037310000000000003
sg124
g125
sg33
S'75'
p873
sg126
g1
(g127
g12
(dp874
g129
I4
sg130
g131
sg132
g133
sg134
g131
sg135
I01
sg34
g136
sg137
g133
sg138
I0
sg139
I0
sg140
I0
sg141
g133
sg35
g131
sg142
I0
stRp875
sg144
g145
sg146
F1
sg147
Nsg30
S'ClusiA'
p876
sbag1
(g2
g3
NtRp877
(dp878
g6
g1
(g7
g3
NtRp879
(dp880
g10
g1
(g11
g12
(dtRp881
sg14
g1
(g11
g12
(dtRp882
sg16
g1
(g11
g12
(dtRp883
sg18
g1
(g11
g12
(dtRp884
sg20
g1
(g11
g12
(dtRp885
sg22
g1
(g11
g12
(dtRp886
sbsg24
g25
sg26
g27
((lp887
g33
ag32
ag29
ag30
atRp888
sg37
(lp889
g1
(g2
g3
NtRp890
(dp891
g6
g1
(g7
g3
NtRp892
(dp893
g10
g1
(g11
g12
(dtRp894
sg14
g1
(g11
g12
(dtRp895
sg16
g1
(g11
g12
(dtRp896
sg18
g1
(g11
g12
(dtRp897
sg20
g1
(g11
g12
(dtRp898
sg22
g1
(g11
g12
(dtRp899
sbsg24
S'Mgu'
p900
sg26
g27
((lp901
g29
ag30
aS'sequence'
p902
ag32
ag33
aS'species'
p903
atRp904
sg37
(lp905
sg120
g877
sg121
S'---------------------------------------------------------------------------------------------------------------------------------------------------------------------------------------------------------------------------------------HFHYVLSMGAFSLGYYYWPGLYNWFWFNFPMHFLGGMPRRPYPDAGWNSGSSKQLGPDESNEPH'
p906
sg123
F0.0044999999999999997
sg124
g125
sg33
S'78'
p907
sg126
g1
(g127
g12
(dp908
g129
I4
sg130
g131
sg132
g133
sg134
g131
sg135
I01
sg34
g136
sg137
g133
sg138
I0
sg139
I0
sg140
I0
sg141
g133
sg35
g131
sg142
I0
stRp909
sg144
g145
sg146
F1
sg147
Nsg30
S'MguilB'
p910
sbag1
(g2
g3
NtRp911
(dp912
g6
g1
(g7
g3
NtRp913
(dp914
g10
g1
(g11
g12
(dtRp915
sg14
g1
(g11
g12
(dtRp916
sg16
g1
(g11
g12
(dtRp917
sg18
g1
(g11
g12
(dtRp918
sg20
g1
(g11
g12
(dtRp919
sg22
g1
(g11
g12
(dtRp920
sbsg24
S'Mgu'
p921
sg26
g27
((lp922
g29
ag30
aS'sequence'
p923
ag32
ag33
aS'species'
p924
atRp925
sg37
(lp926
sg120
g877
sg121
S'RWLSTKDLYSRMELGNFNQNVHAMFVMPIGFGNPMGDMFARLNNSFWLPPLSLEGAGTGWTVYPPLSHSGPSVDMAFHLTSSLLGAMNFTNMRGPLFWTALLLLSLPVLAGTLLDRNFNTFEGGDPLYHLFWFFGHPEVYMMPGFGSHSTYKKFGMYASIGLGFVWSHHMYVGLDDRAYFTSATMMAPTGMKFSWLSTYGGRPMLAFLFLFTGGTGVLNASDAFHDTYYVVHFHYVLSMGAFSLGYYYWPGLYNWFWFNFPMHFLGGMPRRPYPDAGWNSGSSKQLGPDESNEPH'
p927
sg123
F0.0020100000000000001
sg124
g125
sg33
S'80'
p928
sg126
g1
(g127
g12
(dp929
g129
I4
sg130
g131
sg132
g133
sg134
g131
sg135
I01
sg34
g136
sg137
g133
sg138
I0
sg139
I0
sg140
I0
sg141
g133
sg35
g131
sg142
I0
stRp930
sg144
g145
sg146
F1
sg147
Nsg30
S'MguilA'
p931
sbasg120
g843
sg123
F0.25231999999999999
sg124
g125
sg33
S'73'
p932
sg126
g1
(g127
g12
(dp933
g129
I8
sg130
g131
sg132
g133
sg134
g131
sg135
I01
sg34
g171
sg137
g133
sg138
I0
sg139
I0
sg140
I0
sg141
g133
sg35
g131
sg142
I0
stRp934
sg144
g145
sg146
F0.98999999999999999
sg147
Nsg30
S'NoName'
p935
sbasg120
g771
sg123
F0.090679999999999997
sg124
g125
sg33
S'68'
p936
sg126
g1
(g127
g12
(dp937
g129
I8
sg130
g131
sg132
g133
sg134
g131
sg135
I01
sg34
g171
sg137
g133
sg138
I0
sg139
I0
sg140
I0
sg141
g133
sg35
g131
sg142
I0
stRp938
sg144
g145
sg146
F0.98999999999999999
sg147
Nsg30
S'NoName'
p939
sbasg120
g699
sg123
F0.032190000000000003
sg124
g125
sg33
S'62'
p940
sg126
g1
(g127
g12
(dp941
g129
I8
sg130
g131
sg132
g133
sg134
g131
sg135
I01
sg34
g171
sg137
g133
sg138
I0
sg139
I0
sg140
I0
sg141
g133
sg35
g131
sg142
I0
stRp942
sg144
g145
sg146
F0.64000000000000001
sg147
Nsg30
S'NoName'
p943
sbasg120
g686
sg123
F0.12181
sg124
g125
sg33
S'59'
p944
sg126
g1
(g127
g12
(dp945
g129
I8
sg130
g131
sg132
g133
sg134
g131
sg135
I01
sg34
g171
sg137
g133
sg138
I0
sg139
I0
sg140
I0
sg141
g133
sg35
g131
sg142
I0
stRp946
sg144
g145
sg146
F0.98999999999999999
sg147
Nsg30
S'NoName'
p947
sbag1
(g2
g3
NtRp948
(dp949
g6
g1
(g7
g3
NtRp950
(dp951
g10
g1
(g11
g12
(dtRp952
sg14
g1
(g11
g12
(dtRp953
sg16
g1
(g11
g12
(dtRp954
sg18
g1
(g11
g12
(dtRp955
sg20
g1
(g11
g12
(dtRp956
sg22
g1
(g11
g12
(dtRp957
sbsg24
g25
sg26
g27
((lp958
g33
ag32
ag29
ag30
atRp959
sg37
(lp960
g1
(g2
g3
NtRp961
(dp962
g6
g1
(g7
g3
NtRp963
(dp964
g10
g1
(g11
g12
(dtRp965
sg14
g1
(g11
g12
(dtRp966
sg16
g1
(g11
g12
(dtRp967
sg18
g1
(g11
g12
(dtRp968
sg20
g1
(g11
g12
(dtRp969
sg22
g1
(g11
g12
(dtRp970
sbsg24
g25
sg26
g27
((lp971
g33
ag32
ag29
ag30
atRp972
sg37
(lp973
g1
(g2
g3
NtRp974
(dp975
g6
g1
(g7
g3
NtRp976
(dp977
g10
g1
(g11
g12
(dtRp978
sg14
g1
(g11
g12
(dtRp979
sg16
g1
(g11
g12
(dtRp980
sg18
g1
(g11
g12
(dtRp981
sg20
g1
(g11
g12
(dtRp982
sg22
g1
(g11
g12
(dtRp983
sbsg24
S'Cbl'
p984
sg26
g27
((lp985
g29
ag30
aS'sequence'
p986
ag32
ag33
aS'species'
p987
atRp988
sg37
(lp989
sg120
g961
sg121
S'RWLSTKDLYSRLELANLNQNVHAMFVMPLGMGNPMGDMFARLNNSFWLPPLSLEGPGTGWTLYAPLSHSGPSVDMAFHLTSSLLGAINFTNMRGPLYWTALLLLSLPVLAATLLDRNFNTFEGGDPLYHLFWFFGHPEVYMIPGFGSHSTYKKFGMYASIGLGFVWSHHMYVGLDDRAYFTSATMIAPTGIKFSWMATYGGRPMLAFLFLFTGGTGVLNASDAFHDTYYVVHFHYVLSMGAFSLGYYYWPGLYNLFWFNFPMHFLGGMPRRPYPDAGWNSGSSYQLGPDESNEPH'
p990
sg123
F0.36785000000000001
sg124
g125
sg33
S'85'
p991
sg126
g1
(g127
g12
(dp992
g129
I4
sg130
g131
sg132
g133
sg134
g131
sg135
I01
sg34
g136
sg137
g133
sg138
I0
sg139
I0
sg140
I0
sg141
g133
sg35
g131
sg142
I0
stRp993
sg144
g145
sg146
F1
sg147
Nsg30
S'CblacA'
p994
sbag1
(g2
g3
NtRp995
(dp996
g6
g1
(g7
g3
NtRp997
(dp998
g10
g1
(g11
g12
(dtRp999
sg14
g1
(g11
g12
(dtRp1000
sg16
g1
(g11
g12
(dtRp1001
sg18
g1
(g11
g12
(dtRp1002
sg20
g1
(g11
g12
(dtRp1003
sg22
g1
(g11
g12
(dtRp1004
sbsg24
g25
sg26
g27
((lp1005
g33
ag32
ag29
ag30
atRp1006
sg37
(lp1007
g1
(g2
g3
NtRp1008
(dp1009
g6
g1
(g7
g3
NtRp1010
(dp1011
g10
g1
(g11
g12
(dtRp1012
sg14
g1
(g11
g12
(dtRp1013
sg16
g1
(g11
g12
(dtRp1014
sg18
g1
(g11
g12
(dtRp1015
sg20
g1
(g11
g12
(dtRp1016
sg22
g1
(g11
g12
(dtRp1017
sbsg24
g25
sg26
g27
((lp1018
g33
ag32
ag29
ag30
atRp1019
sg37
(lp1020
g1
(g2
g3
NtRp1021
(dp1022
g6
g1
(g7
g3
NtRp1023
(dp1024
g10
g1
(g11
g12
(dtRp1025
sg14
g1
(g11
g12
(dtRp1026
sg16
g1
(g11
g12
(dtRp1027
sg18
g1
(g11
g12
(dtRp1028
sg20
g1
(g11
g12
(dtRp1029
sg22
g1
(g11
g12
(dtRp1030
sbsg24
g25
sg26
g27
((lp1031
g33
ag32
ag29
ag30
atRp1032
sg37
(lp1033
g1
(g2
g3
NtRp1034
(dp1035
g6
g1
(g7
g3
NtRp1036
(dp1037
g10
g1
(g11
g12
(dtRp1038
sg14
g1
(g11
g12
(dtRp1039
sg16
g1
(g11
g12
(dtRp1040
sg18
g1
(g11
g12
(dtRp1041
sg20
g1
(g11
g12
(dtRp1042
sg22
g1
(g11
g12
(dtRp1043
sbsg24
g25
sg26
g27
((lp1044
g33
ag32
ag29
ag30
atRp1045
sg37
(lp1046
g1
(g2
g3
NtRp1047
(dp1048
g6
g1
(g7
g3
NtRp1049
(dp1050
g10
g1
(g11
g12
(dtRp1051
sg14
g1
(g11
g12
(dtRp1052
sg16
g1
(g11
g12
(dtRp1053
sg18
g1
(g11
g12
(dtRp1054
sg20
g1
(g11
g12
(dtRp1055
sg22
g1
(g11
g12
(dtRp1056
sbsg24
S'Lel'
p1057
sg26
g27
((lp1058
g29
ag30
aS'sequence'
p1059
ag32
ag33
aS'species'
p1060
atRp1061
sg37
(lp1062
sg120
g1034
sg121
S'RWLSTKDLYSRLELPGLDQNVHAMFVMPLGFGNPMGDMFARLNNSFWLPPLSLEGAGTGWTVYPPLSHSGPSVDLAFHLTSSLLGAINFTNMRGPLYWTALLLFSLPVLAGTLLDRNFNTFDGGDPLYHLFWFFGHPEVYIIPGFGSHSTYKKFGMYASIGLGFVWSHHMYVGLDDRAYFTSATMIAPTGIKFSWLATYGGRPMLAFLFLFTGGTGVLNASDAFHDTYYTVHFHYVLSMGAFSLGYYYWYGLYNLFWFNFPMHFLGGMPRRPYPDAGWNSGSSYQLGPDESNEPH'
p1063
sg123
F0.18278
sg124
g125
sg33
S'96'
p1064
sg126
g1
(g127
g12
(dp1065
g129
I4
sg130
g131
sg132
g133
sg134
g131
sg135
I01
sg34
g136
sg137
g133
sg138
I0
sg139
I0
sg140
I0
sg141
g133
sg35
g131
sg142
I0
stRp1066
sg144
g145
sg146
F1
sg147
Nsg30
S'LelonA'
p1067
sbag1
(g2
g3
NtRp1068
(dp1069
g6
g1
(g7
g3
NtRp1070
(dp1071
g10
g1
(g11
g12
(dtRp1072
sg14
g1
(g11
g12
(dtRp1073
sg16
g1
(g11
g12
(dtRp1074
sg18
g1
(g11
g12
(dtRp1075
sg20
g1
(g11
g12
(dtRp1076
sg22
g1
(g11
g12
(dtRp1077
sbsg24
S'Cox'
p1078
sg26
g27
((lp1079
g29
ag30
aS'sequence'
p1080
ag32
ag33
aS'species'
p1081
atRp1082
sg37
(lp1083
sg120
g1034
sg121
S'RWLSTKDLYSRLELSGLDQNVHAMFVMPIGFGNPMGDMFARLNNSFWLPPLSLEGPGVGWTVYPPLSHSGPSVDLAFHLTSSLLGAINFTNMRGPLYWTALLLLSLPVLAGTLLDRNFNTFDGGDPLYHLFWFFGHPEVYMIPGFGSHATYKKFGMYASIGLGFVWSHHMYVGLDDRAYFTSATMIAPTGIKFSWLATYGGRPMLAFLFLFTGGTGILNASDAFHDTYYTVHFHYVLSMGAFSLGYYLWYGLYNIFWFNFPMHFLGGMPRRPYPDAGWNSGSSYQLGPDESNEPH'
p1084
sg123
F0.17860000000000001
sg124
g125
sg33
S'97'
p1085
sg126
g1
(g127
g12
(dp1086
g129
I4
sg130
g131
sg132
g133
sg134
g131
sg135
I01
sg34
g136
sg137
g133
sg138
I0
sg139
I0
sg140
I0
sg141
g133
sg35
g131
sg142
I0
stRp1087
sg144
g145
sg146
F1
sg147
Nsg30
S'CoxycA'
p1088
sbasg120
g1021
sg123
F0.041480000000000003
sg124
g125
sg33
S'91'
p1089
sg126
g1
(g127
g12
(dp1090
g129
I8
sg130
g131
sg132
g133
sg134
g131
sg135
I01
sg34
g171
sg137
g133
sg138
I0
sg139
I0
sg140
I0
sg141
g133
sg35
g131
sg142
I0
stRp1091
sg144
g145
sg146
F0.98999999999999999
sg147
Nsg30
S'NoName'
p1092
sbag1
(g2
g3
NtRp1093
(dp1094
g6
g1
(g7
g3
NtRp1095
(dp1096
g10
g1
(g11
g12
(dtRp1097
sg14
g1
(g11
g12
(dtRp1098
sg16
g1
(g11
g12
(dtRp1099
sg18
g1
(g11
g12
(dtRp1100
sg20
g1
(g11
g12
(dtRp1101
sg22
g1
(g11
g12
(dtRp1102
sbsg24
g25
sg26
g27
((lp1103
g33
ag32
ag29
ag30
atRp1104
sg37
(lp1105
g1
(g2
g3
NtRp1106
(dp1107
g6
g1
(g7
g3
NtRp1108
(dp1109
g10
g1
(g11
g12
(dtRp1110
sg14
g1
(g11
g12
(dtRp1111
sg16
g1
(g11
g12
(dtRp1112
sg18
g1
(g11
g12
(dtRp1113
sg20
g1
(g11
g12
(dtRp1114
sg22
g1
(g11
g12
(dtRp1115
sbsg24
g25
sg26
g27
((lp1116
g33
ag32
ag29
ag30
atRp1117
sg37
(lp1118
g1
(g2
g3
NtRp1119
(dp1120
g6
g1
(g7
g3
NtRp1121
(dp1122
g10
g1
(g11
g12
(dtRp1123
sg14
g1
(g11
g12
(dtRp1124
sg16
g1
(g11
g12
(dtRp1125
sg18
g1
(g11
g12
(dtRp1126
sg20
g1
(g11
g12
(dtRp1127
sg22
g1
(g11
g12
(dtRp1128
sbsg24
g25
sg26
g27
((lp1129
g33
ag32
ag29
ag30
atRp1130
sg37
(lp1131
g1
(g2
g3
NtRp1132
(dp1133
g6
g1
(g7
g3
NtRp1134
(dp1135
g10
g1
(g11
g12
(dtRp1136
sg14
g1
(g11
g12
(dtRp1137
sg16
g1
(g11
g12
(dtRp1138
sg18
g1
(g11
g12
(dtRp1139
sg20
g1
(g11
g12
(dtRp1140
sg22
g1
(g11
g12
(dtRp1141
sbsg24
S'Cth'
p1142
sg26
g27
((lp1143
g29
ag30
aS'sequence'
p1144
ag32
ag33
aS'species'
p1145
atRp1146
sg37
(lp1147
sg120
g1119
sg121
S'RWLSTKDLYSRLELPGLNQNVHAMFVMPLGFGNPMGDMFARLNNSFWLPPLSLEGAGTGWTVYPPLSHSGPSVDLAFHLTSSLLGAINFTNMRGPLYWTALLLLSLPVLAGTLLDRNFNTFEGGDPLYHLFWFFGHPEVYIIPGFGSHSTYKKFGMYASIGLGFVWSHHMYVGLDDRAYFTSATMIAPTGIKFSWLATYGGRPMLAFLFLFTGGTGVLNASDAFHDTYYTVHFHYVLSMGAFSLGYYYWYGLYNLFWFNFPMHFLGGMPRRPYPDAGWNSGSSYQLGPDESNEPH'
p1148
sg123
F0.010059999999999999
sg124
g125
sg33
S'104'
p1149
sg126
g1
(g127
g12
(dp1150
g129
I4
sg130
g131
sg132
g133
sg134
g131
sg135
I01
sg34
g136
sg137
g133
sg138
I0
sg139
I0
sg140
I0
sg141
g133
sg35
g131
sg142
I0
stRp1151
sg144
g145
sg146
F1
sg147
Nsg30
S'CtheaA'
p1152
sbag1
(g2
g3
NtRp1153
(dp1154
g6
g1
(g7
g3
NtRp1155
(dp1156
g10
g1
(g11
g12
(dtRp1157
sg14
g1
(g11
g12
(dtRp1158
sg16
g1
(g11
g12
(dtRp1159
sg18
g1
(g11
g12
(dtRp1160
sg20
g1
(g11
g12
(dtRp1161
sg22
g1
(g11
g12
(dtRp1162
sbsg24
g25
sg26
g27
((lp1163
g33
ag32
ag29
ag30
atRp1164
sg37
(lp1165
g1
(g2
g3
NtRp1166
(dp1167
g6
g1
(g7
g3
NtRp1168
(dp1169
g10
g1
(g11
g12
(dtRp1170
sg14
g1
(g11
g12
(dtRp1171
sg16
g1
(g11
g12
(dtRp1172
sg18
g1
(g11
g12
(dtRp1173
sg20
g1
(g11
g12
(dtRp1174
sg22
g1
(g11
g12
(dtRp1175
sbsg24
g25
sg26
g27
((lp1176
g33
ag32
ag29
ag30
atRp1177
sg37
(lp1178
g1
(g2
g3
NtRp1179
(dp1180
g6
g1
(g7
g3
NtRp1181
(dp1182
g10
g1
(g11
g12
(dtRp1183
sg14
g1
(g11
g12
(dtRp1184
sg16
g1
(g11
g12
(dtRp1185
sg18
g1
(g11
g12
(dtRp1186
sg20
g1
(g11
g12
(dtRp1187
sg22
g1
(g11
g12
(dtRp1188
sbsg24
g25
sg26
g27
((lp1189
g33
ag32
ag29
ag30
atRp1190
sg37
(lp1191
g1
(g2
g3
NtRp1192
(dp1193
g6
g1
(g7
g3
NtRp1194
(dp1195
g10
g1
(g11
g12
(dtRp1196
sg14
g1
(g11
g12
(dtRp1197
sg16
g1
(g11
g12
(dtRp1198
sg18
g1
(g11
g12
(dtRp1199
sg20
g1
(g11
g12
(dtRp1200
sg22
g1
(g11
g12
(dtRp1201
sbsg24
S'Cor'
p1202
sg26
g27
((lp1203
g29
ag30
aS'sequence'
p1204
ag32
ag33
aS'species'
p1205
atRp1206
sg37
(lp1207
sg120
g1179
sg121
S'RWLSTKDLYSRLELPGLNQNVHAMFVMPLGFGNPMGDMFARLNNSFWLPPLSLEGAGTGWTVYPPLSHSGPSVDLAFHLTSSLLGAINFTNMRGPLFWTALLLLSLPVLAGTLLDRNFNTFEGGDPLYHLFWFFGHPEVYIIPGFGSHSTYKKFGMYASIGLGFVWSHHMYVGLDDRAYFTSATMIAPTGIKFSWLATYGGRPMLAFLFLFTGGTGVLNASDAFHDTYYTVHFHYVLSMGAFSLGYYYWYGLYNLFWFNFPMHFLGGMPRRPYPDAGWNSGSSYQLGPDESNEPH'
p1208
sg123
F0.00132
sg124
g125
sg33
S'21'
p1209
sg126
g1
(g127
g12
(dp1210
g129
I4
sg130
g131
sg132
g133
sg134
g131
sg135
I01
sg34
g136
sg137
g133
sg138
I0
sg139
I0
sg140
I0
sg141
g133
sg35
g131
sg142
I0
stRp1211
sg144
g145
sg146
F1
sg147
Nsg30
S'CorthC'
p1212
sbag1
(g2
g3
NtRp1213
(dp1214
g6
g1
(g7
g3
NtRp1215
(dp1216
g10
g1
(g11
g12
(dtRp1217
sg14
g1
(g11
g12
(dtRp1218
sg16
g1
(g11
g12
(dtRp1219
sg18
g1
(g11
g12
(dtRp1220
sg20
g1
(g11
g12
(dtRp1221
sg22
g1
(g11
g12
(dtRp1222
sbsg24
S'Cor'
p1223
sg26
g27
((lp1224
g29
ag30
aS'sequence'
p1225
ag32
ag33
aS'species'
p1226
atRp1227
sg37
(lp1228
sg120
g1179
sg121
S'RWLSTKDLYSRLELPGLNQNVHAMFVMPLGFGNPMGDMFARLNNSFWLPPLSLEGAGTGWTVYPPLSHSGPSVDLAFHLTSSLLGAINFTNMRGPLFWTALLLLSLPVLAGTLLDRNFNTFEGGDPLYHLFWFFGHPEVYIIPGFGSHSTYKKFGMYASIGLGFVWSHHMYVGLDDRAYFTSATMIAPTGIKFSWLATYGGRPMLAFLFLFTGGTGVLNASDAFHDTYYTVHFHYVLSMGAFSLGYYYWYGLYNLFWFNFPMHFLGGMPRRPYPDAGWNSGSSYQLGPDESNEPH'
p1229
sg123
F0.00093000000000000005
sg124
g125
sg33
S'31'
p1230
sg126
g1
(g127
g12
(dp1231
g129
I4
sg130
g131
sg132
g133
sg134
g131
sg135
I01
sg34
g136
sg137
g133
sg138
I0
sg139
I0
sg140
I0
sg141
g133
sg35
g131
sg142
I0
stRp1232
sg144
g145
sg146
F1
sg147
Nsg30
S'CorthB'
p1233
sbasg120
g1166
sg123
F0.00052999999999999998
sg124
g125
sg33
S'108'
p1234
sg126
g1
(g127
g12
(dp1235
g129
I8
sg130
g131
sg132
g133
sg134
g131
sg135
I01
sg34
g171
sg137
g133
sg138
I0
sg139
I0
sg140
I0
sg141
g133
sg35
g131
sg142
I0
stRp1236
sg144
g145
sg146
F0.85999999999999999
sg147
Nsg30
S'NoName'
p1237
sbag1
(g2
g3
NtRp1238
(dp1239
g6
g1
(g7
g3
NtRp1240
(dp1241
g10
g1
(g11
g12
(dtRp1242
sg14
g1
(g11
g12
(dtRp1243
sg16
g1
(g11
g12
(dtRp1244
sg18
g1
(g11
g12
(dtRp1245
sg20
g1
(g11
g12
(dtRp1246
sg22
g1
(g11
g12
(dtRp1247
sbsg24
S'Cor'
p1248
sg26
g27
((lp1249
g29
ag30
aS'sequence'
p1250
ag32
ag33
aS'species'
p1251
atRp1252
sg37
(lp1253
sg120
g1166
sg121
S'RWLSTKDLYSRLELPGLNQNVHAMFVMPLGFGNPMGDMFARLNNSFWLPPLSLEGAGTGWTVYPPLSHSGPSVDLAFHLTSSLLGAINFTNMRGPLFWTALLLLSLPVLAGTLLDRNFNTFEGGDPLYHLFWFFGHPEVYIIPGFGSHSTYKKFGMYASIGLGFVWSHHMYVGLDDRAYFTSATMIAPTGIKFSWLATYGGRPMLAFLFLFTGGTGVLNASDAFHDTYYTVHFHYVLSMGAFSLGYYYWYGLYNLFWFNFPMHFLGGMPRRPYPDAGWNSGSSYQLGPDESNEPH'
p1254
sg123
F0.0021099999999999999
sg124
g125
sg33
S'42'
p1255
sg126
g1
(g127
g12
(dp1256
g129
I4
sg130
g131
sg132
g133
sg134
g131
sg135
I01
sg34
g136
sg137
g133
sg138
I0
sg139
I0
sg140
I0
sg141
g133
sg35
g131
sg142
I0
stRp1257
sg144
g145
sg146
F1
sg147
Nsg30
S'CorthA'
p1258
sbasg120
g1153
sg123
F0.0031199999999999999
sg124
g125
sg33
S'107'
p1259
sg126
g1
(g127
g12
(dp1260
g129
I8
sg130
g131
sg132
g133
sg134
g131
sg135
I01
sg34
g171
sg137
g133
sg138
I0
sg139
I0
sg140
I0
sg141
g133
sg35
g131
sg142
I0
stRp1261
sg144
g145
sg146
F0.98999999999999999
sg147
Nsg30
S'NoName'
p1262
sbag1
(g2
g3
NtRp1263
(dp1264
g6
g1
(g7
g3
NtRp1265
(dp1266
g10
g1
(g11
g12
(dtRp1267
sg14
g1
(g11
g12
(dtRp1268
sg16
g1
(g11
g12
(dtRp1269
sg18
g1
(g11
g12
(dtRp1270
sg20
g1
(g11
g12
(dtRp1271
sg22
g1
(g11
g12
(dtRp1272
sbsg24
g25
sg26
g27
((lp1273
g33
ag32
ag29
ag30
atRp1274
sg37
(lp1275
g1
(g2
g3
NtRp1276
(dp1277
g6
g1
(g7
g3
NtRp1278
(dp1279
g10
g1
(g11
g12
(dtRp1280
sg14
g1
(g11
g12
(dtRp1281
sg16
g1
(g11
g12
(dtRp1282
sg18
g1
(g11
g12
(dtRp1283
sg20
g1
(g11
g12
(dtRp1284
sg22
g1
(g11
g12
(dtRp1285
sbsg24
g25
sg26
g27
((lp1286
g33
ag32
ag29
ag30
atRp1287
sg37
(lp1288
g1
(g2
g3
NtRp1289
(dp1290
g6
g1
(g7
g3
NtRp1291
(dp1292
g10
g1
(g11
g12
(dtRp1293
sg14
g1
(g11
g12
(dtRp1294
sg16
g1
(g11
g12
(dtRp1295
sg18
g1
(g11
g12
(dtRp1296
sg20
g1
(g11
g12
(dtRp1297
sg22
g1
(g11
g12
(dtRp1298
sbsg24
S'Cpa'
p1299
sg26
g27
((lp1300
g29
ag30
aS'sequence'
p1301
ag32
ag33
aS'species'
p1302
atRp1303
sg37
(lp1304
sg120
g1276
sg121
S'RWLSTKDLYSRLELPGLNQNVHAMFVMPLGFGNPMGDMFARLNNSFWLPPLSLEGAGTGWTVYPPLSHSGPSVDLAFHLTSSLLGAINFTNMRGPLFWTALLLLSLPVLAGTLLDRNFNTFEGGDPLYHLFWFFGHPEVYIIPGFGSHSTYKKFGMYASIGLGFVWSHHMYVGLDDRAYFTSATMIAPTSIKFSWLATYGGRTALAFIFLFTGGTGVLNSADPFHDSYYVVHFHYVLSMGAFSIGWYLWPGLYNLFWFNFPMHFLGGMPRRNYPDAGWNSGSAYQLGPSGTNEPH'
p1305
sg123
F0.00012999999999999999
sg124
g125
sg33
S'72'
p1306
sg126
g1
(g127
g12
(dp1307
g129
I4
sg130
g131
sg132
g133
sg134
g131
sg135
I01
sg34
g136
sg137
g133
sg138
I0
sg139
I0
sg140
I0
sg141
g133
sg35
g131
sg142
I0
stRp1308
sg144
g145
sg146
F1
sg147
Nsg30
S'CparaD'
p1309
sbag1
(g2
g3
NtRp1310
(dp1311
g6
g1
(g7
g3
NtRp1312
(dp1313
g10
g1
(g11
g12
(dtRp1314
sg14
g1
(g11
g12
(dtRp1315
sg16
g1
(g11
g12
(dtRp1316
sg18
g1
(g11
g12
(dtRp1317
sg20
g1
(g11
g12
(dtRp1318
sg22
g1
(g11
g12
(dtRp1319
sbsg24
S'Cpa'
p1320
sg26
g27
((lp1321
g29
ag30
aS'sequence'
p1322
ag32
ag33
aS'species'
p1323
atRp1324
sg37
(lp1325
sg120
g1276
sg121
S'RWLSTKDLYSRLELPGLNQNVHAMFVMPLGFGNPMGDMFARLNNSFWLPPLSLEGAGTGWTVYPPLSHSGPSVDLAFHLTSSLLGAINFTNMRGPLFWTALLLLSLPVLAGTLLDRNFNTFEGGDPLYHLFWFFGHPEVYIIPGFGSHSTYKKFGMYASIGLGFVWSHHMYVGLDDRAYFTSATMIAPTGIKFSWLATYGGRPMLAFLFLFTGGTGVVNASDAFHDTYYVVHFHYVLSMGAFSLGYYYWYGLYNLFWFNFPMHFLGGMPRRPYPDAGWNSGSSYSLGPDESNEPH'
p1326
sg123
F0.00012999999999999999
sg124
g125
sg33
S'83'
p1327
sg126
g1
(g127
g12
(dp1328
g129
I4
sg130
g131
sg132
g133
sg134
g131
sg135
I01
sg34
g136
sg137
g133
sg138
I0
sg139
I0
sg140
I0
sg141
g133
sg35
g131
sg142
I0
stRp1329
sg144
g145
sg146
F1
sg147
Nsg30
S'CparaB'
p1330
sbasg120
g1263
sg123
F0.00051000000000000004
sg124
g125
sg33
S'53'
p1331
sg126
g1
(g127
g12
(dp1332
g129
I8
sg130
g131
sg132
g133
sg134
g131
sg135
I01
sg34
g171
sg137
g133
sg138
I0
sg139
I0
sg140
I0
sg141
g133
sg35
g131
sg142
I0
stRp1333
sg144
g145
sg146
F0.98999999999999999
sg147
Nsg30
S'NoName'
p1334
sbag1
(g2
g3
NtRp1335
(dp1336
g6
g1
(g7
g3
NtRp1337
(dp1338
g10
g1
(g11
g12
(dtRp1339
sg14
g1
(g11
g12
(dtRp1340
sg16
g1
(g11
g12
(dtRp1341
sg18
g1
(g11
g12
(dtRp1342
sg20
g1
(g11
g12
(dtRp1343
sg22
g1
(g11
g12
(dtRp1344
sbsg24
S'Cpa'
p1345
sg26
g27
((lp1346
g29
ag30
aS'sequence'
p1347
ag32
ag33
aS'species'
p1348
atRp1349
sg37
(lp1350
sg120
g1263
sg121
S'RWLSTKDLYSRLELPGLNQNVHAMFVMPLGFGNPMGDMFARLNNSFWLPPLSLEGAGTGWTVYPPLSHSGPSVDLAFHLTSSLLGAINFTNMRGPLFWTALLLLSLPVLAGTLLDRNFNTFEGGDPLYHLFWFFGHPEVYIIPGFGSHSTYKKFGMYASIGLGFVWSHHMYVGLDDRAYFTSATMIAPTGIKFSWLATYGGRPMLAFLFLFTGGTGVVNASDAFHDTYYVVHFHYVLSMGAFSLGYYYWYGLYNLFWFNFPMHFLGGMPRRPYPDAGWNSGSSYSLGPDESNEPH'
p1351
sg123
F0.00012
sg124
g125
sg33
S'94'
p1352
sg126
g1
(g127
g12
(dp1353
g129
I4
sg130
g131
sg132
g133
sg134
g131
sg135
I01
sg34
g136
sg137
g133
sg138
I0
sg139
I0
sg140
I0
sg141
g133
sg35
g131
sg142
I0
stRp1354
sg144
g145
sg146
F1
sg147
Nsg30
S'CparaC'
p1355
sbasg120
g1153
sg123
F1.0000000000000001e-05
sg124
g125
sg33
S'11'
p1356
sg126
g1
(g127
g12
(dp1357
g129
I8
sg130
g131
sg132
g133
sg134
g131
sg135
I01
sg34
g171
sg137
g133
sg138
I0
sg139
I0
sg140
I0
sg141
g133
sg35
g131
sg142
I0
stRp1358
sg144
g145
sg146
F1
sg147
Nsg30
S'NoName'
p1359
sbasg120
g1119
sg123
F0.0032599999999999999
sg124
g125
sg33
S'103'
p1360
sg126
g1
(g127
g12
(dp1361
g129
I8
sg130
g131
sg132
g133
sg134
g131
sg135
I01
sg34
g171
sg137
g133
sg138
I0
sg139
I0
sg140
I0
sg141
g133
sg35
g131
sg142
I0
stRp1362
sg144
g145
sg146
F0.97999999999999998
sg147
Nsg30
S'NoName'
p1363
sbasg120
g1106
sg123
F1.0000000000000001e-05
sg124
g125
sg33
S'100'
p1364
sg126
g1
(g127
g12
(dp1365
g129
I8
sg130
g131
sg132
g133
sg134
g131
sg135
I01
sg34
g171
sg137
g133
sg138
I0
sg139
I0
sg140
I0
sg141
g133
sg35
g131
sg142
I0
stRp1366
sg144
g145
sg146
F1
sg147
Nsg30
S'NoName'
p1367
sbag1
(g2
g3
NtRp1368
(dp1369
g6
g1
(g7
g3
NtRp1370
(dp1371
g10
g1
(g11
g12
(dtRp1372
sg14
g1
(g11
g12
(dtRp1373
sg16
g1
(g11
g12
(dtRp1374
sg18
g1
(g11
g12
(dtRp1375
sg20
g1
(g11
g12
(dtRp1376
sg22
g1
(g11
g12
(dtRp1377
sbsg24
g25
sg26
g27
((lp1378
g33
ag32
ag29
ag30
atRp1379
sg37
(lp1380
g1
(g2
g3
NtRp1381
(dp1382
g6
g1
(g7
g3
NtRp1383
(dp1384
g10
g1
(g11
g12
(dtRp1385
sg14
g1
(g11
g12
(dtRp1386
sg16
g1
(g11
g12
(dtRp1387
sg18
g1
(g11
g12
(dtRp1388
sg20
g1
(g11
g12
(dtRp1389
sg22
g1
(g11
g12
(dtRp1390
sbsg24
g25
sg26
g27
((lp1391
g33
ag32
ag29
ag30
atRp1392
sg37
(lp1393
g1
(g2
g3
NtRp1394
(dp1395
g6
g1
(g7
g3
NtRp1396
(dp1397
g10
g1
(g11
g12
(dtRp1398
sg14
g1
(g11
g12
(dtRp1399
sg16
g1
(g11
g12
(dtRp1400
sg18
g1
(g11
g12
(dtRp1401
sg20
g1
(g11
g12
(dtRp1402
sg22
g1
(g11
g12
(dtRp1403
sbsg24
g25
sg26
g27
((lp1404
g33
ag32
ag29
ag30
atRp1405
sg37
(lp1406
g1
(g2
g3
NtRp1407
(dp1408
g6
g1
(g7
g3
NtRp1409
(dp1410
g10
g1
(g11
g12
(dtRp1411
sg14
g1
(g11
g12
(dtRp1412
sg16
g1
(g11
g12
(dtRp1413
sg18
g1
(g11
g12
(dtRp1414
sg20
g1
(g11
g12
(dtRp1415
sg22
g1
(g11
g12
(dtRp1416
sbsg24
g25
sg26
g27
((lp1417
g33
ag32
ag29
ag30
atRp1418
sg37
(lp1419
g1
(g2
g3
NtRp1420
(dp1421
g6
g1
(g7
g3
NtRp1422
(dp1423
g10
g1
(g11
g12
(dtRp1424
sg14
g1
(g11
g12
(dtRp1425
sg16
g1
(g11
g12
(dtRp1426
sg18
g1
(g11
g12
(dtRp1427
sg20
g1
(g11
g12
(dtRp1428
sg22
g1
(g11
g12
(dtRp1429
sbsg24
g25
sg26
g27
((lp1430
g33
ag32
ag29
ag30
atRp1431
sg37
(lp1432
g1
(g2
g3
NtRp1433
(dp1434
g6
g1
(g7
g3
NtRp1435
(dp1436
g10
g1
(g11
g12
(dtRp1437
sg14
g1
(g11
g12
(dtRp1438
sg16
g1
(g11
g12
(dtRp1439
sg18
g1
(g11
g12
(dtRp1440
sg20
g1
(g11
g12
(dtRp1441
sg22
g1
(g11
g12
(dtRp1442
sbsg24
S'Cme'
p1443
sg26
g27
((lp1444
g29
ag30
aS'sequence'
p1445
ag32
ag33
aS'species'
p1446
atRp1447
sg37
(lp1448
sg120
g1420
sg121
S'RWLSTKDLYSRLELPGLNQNVHAMFVMPLGFGNPMGDMFARLNNSFWLPPLSLEGAGTGWTVYPPLSHSGPSVDLAFHLTSSLLGAINFTNMRGPLYWTALLLLSLPVLAGTLLDRNFNTFEGGDPLYHLFWFFGHPEVYIIPGFGSHSTYKKFGMYASIGLGFVWSHHMYVGLDDRAYFTSATMIAPTGIKFSWLATYGGRPMLAFLFLFTGGTGVLNASDAFHDTYYVVHFHYVLSMGAFSLGYYYWYGLYNLFWFNFPMHFLGGMPRRPYPDAGWNSGSSYQLGPDESNEPH'
p1449
sg123
F0.00012999999999999999
sg124
g125
sg33
S'23'
p1450
sg126
g1
(g127
g12
(dp1451
g129
I4
sg130
g131
sg132
g133
sg134
g131
sg135
I01
sg34
g136
sg137
g133
sg138
I0
sg139
I0
sg140
I0
sg141
g133
sg35
g131
sg142
I0
stRp1452
sg144
g145
sg146
F1
sg147
Nsg30
S'CmetaF'
p1453
sbag1
(g2
g3
NtRp1454
(dp1455
g6
g1
(g7
g3
NtRp1456
(dp1457
g10
g1
(g11
g12
(dtRp1458
sg14
g1
(g11
g12
(dtRp1459
sg16
g1
(g11
g12
(dtRp1460
sg18
g1
(g11
g12
(dtRp1461
sg20
g1
(g11
g12
(dtRp1462
sg22
g1
(g11
g12
(dtRp1463
sbsg24
S'Cme'
p1464
sg26
g27
((lp1465
g29
ag30
aS'sequence'
p1466
ag32
ag33
aS'species'
p1467
atRp1468
sg37
(lp1469
sg120
g1420
sg121
S'RWLSTKDLYSRLELPGLNQNVHAMFVMPLGFGNPMGDMFARLNNSFWLPPLSLEGAGTGWTVYPPLSHSGPSVDLAFHLTSSLLGAINFTNMRGPLYWTALLLLSLPVLAGTLLDRNFNTFEGGDPLYHLFWFFGHPEVYIIPGFGSHSTYKKFGMYASIGLGFVWSHHMYVGLDDRAYFTSATMIAPTGIKFSWLATYGGRPMLAFLFLFTGGTGVLNASDAFHDTYYVVHFHYVLSMGAFSLGYYYWYGLYNLFWFNFPMHFLGGMPRRPYPDAGWNSGSSYQLGPDESNEPH'
p1470
sg123
F0.00012
sg124
g125
sg33
S'171'
p1471
sg126
g1
(g127
g12
(dp1472
g129
I4
sg130
g131
sg132
g133
sg134
g131
sg135
I01
sg34
g136
sg137
g133
sg138
I0
sg139
I0
sg140
I0
sg141
g133
sg35
g131
sg142
I0
stRp1473
sg144
g145
sg146
F1
sg147
Nsg30
S'CmetaE'
p1474
sbasg120
g1407
sg123
F1.0000000000000001e-05
sg124
g125
sg33
S'20'
p1475
sg126
g1
(g127
g12
(dp1476
g129
I8
sg130
g131
sg132
g133
sg134
g131
sg135
I01
sg34
g171
sg137
g133
sg138
I0
sg139
I0
sg140
I0
sg141
g133
sg35
g131
sg142
I0
stRp1477
sg144
g145
sg146
F1
sg147
Nsg30
S'NoName'
p1478
sbag1
(g2
g3
NtRp1479
(dp1480
g6
g1
(g7
g3
NtRp1481
(dp1482
g10
g1
(g11
g12
(dtRp1483
sg14
g1
(g11
g12
(dtRp1484
sg16
g1
(g11
g12
(dtRp1485
sg18
g1
(g11
g12
(dtRp1486
sg20
g1
(g11
g12
(dtRp1487
sg22
g1
(g11
g12
(dtRp1488
sbsg24
S'Cme'
p1489
sg26
g27
((lp1490
g29
ag30
aS'sequence'
p1491
ag32
ag33
aS'species'
p1492
atRp1493
sg37
(lp1494
sg120
g1407
sg121
S'RWLSTKDLYSRLELPGLNQNVHAMFVMPLGFGNPMGDMFARLNNSFWLPPLSLEGAGTGWTVYPPLSHSGPSVDLAFHLTSSLLGAINFTNMRGPLYWTALLLLSLPVLAGTLLDRNFNTFEGGDPLYHLFWFFGHPEVYIIPGFGSHSTYKKFGMYASIGLGFVWSHHMYVGLDDRAYFTSATMIAPTGIKFSWLATYGGRPMLAFLFLFTGGTGVLNASDAFHDTYYVVHFHYVLSMGAFSLGYYYWYGLYNLFWFNFPMHFLGGMPRRPYPDAGWNSGSSYQLGPDESNEPH'
p1495
sg123
F0.00020000000000000001
sg124
g125
sg33
S'181'
p1496
sg126
g1
(g127
g12
(dp1497
g129
I4
sg130
g131
sg132
g133
sg134
g131
sg135
I01
sg34
g136
sg137
g133
sg138
I0
sg139
I0
sg140
I0
sg141
g133
sg35
g131
sg142
I0
stRp1498
sg144
g145
sg146
F1
sg147
Nsg30
S'CmetaD'
p1499
sbasg120
g1394
sg123
F1.0000000000000001e-05
sg124
g125
sg33
S'125'
p1500
sg126
g1
(g127
g12
(dp1501
g129
I8
sg130
g131
sg132
g133
sg134
g131
sg135
I01
sg34
g171
sg137
g133
sg138
I0
sg139
I0
sg140
I0
sg141
g133
sg35
g131
sg142
I0
stRp1502
sg144
g145
sg146
F1
sg147
Nsg30
S'NoName'
p1503
sbag1
(g2
g3
NtRp1504
(dp1505
g6
g1
(g7
g3
NtRp1506
(dp1507
g10
g1
(g11
g12
(dtRp1508
sg14
g1
(g11
g12
(dtRp1509
sg16
g1
(g11
g12
(dtRp1510
sg18
g1
(g11
g12
(dtRp1511
sg20
g1
(g11
g12
(dtRp1512
sg22
g1
(g11
g12
(dtRp1513
sbsg24
S'Cme'
p1514
sg26
g27
((lp1515
g29
ag30
aS'sequence'
p1516
ag32
ag33
aS'species'
p1517
atRp1518
sg37
(lp1519
sg120
g1394
sg121
S'RWLSTKDLYSRLELPGLNQNVHAMFVMPLGFGNPMGDMFARLNNSFWLPPLSLEGAGTGWTVYPPLSHSGPSVDLAFHLTSSLLGAINFTNMRGPLYWTALLLLSLPVLAGTLLDRNFNTFEGGDPLYHLFWFFGHPEVYIIPGFGSHSTYKKFGMYASIGLGFVWSHHMYVGLDDRAYFTSATMIAPTGIKFSWLATYGGRPMLAFLFLFTGGTGVLNASDAFHDTYYVVHFHYVLSMGAFSLGYYYWYGLYNLFWFNFPMHFLGGMPRRPYPDAGWNSGSSYQLGPDESNEPH'
p1520
sg123
F0.00052999999999999998
sg124
g125
sg33
S'190'
p1521
sg126
g1
(g127
g12
(dp1522
g129
I4
sg130
g131
sg132
g133
sg134
g131
sg135
I01
sg34
g136
sg137
g133
sg138
I0
sg139
I0
sg140
I0
sg141
g133
sg35
g131
sg142
I0
stRp1523
sg144
g145
sg146
F1
sg147
Nsg30
S'CmetaC'
p1524
sbasg120
g1381
sg123
F1.0000000000000001e-05
sg124
g125
sg33
S'16'
p1525
sg126
g1
(g127
g12
(dp1526
g129
I8
sg130
g131
sg132
g133
sg134
g131
sg135
I01
sg34
g171
sg137
g133
sg138
I0
sg139
I0
sg140
I0
sg141
g133
sg35
g131
sg142
I0
stRp1527
sg144
g145
sg146
F1
sg147
Nsg30
S'NoName'
p1528
sbag1
(g2
g3
NtRp1529
(dp1530
g6
g1
(g7
g3
NtRp1531
(dp1532
g10
g1
(g11
g12
(dtRp1533
sg14
g1
(g11
g12
(dtRp1534
sg16
g1
(g11
g12
(dtRp1535
sg18
g1
(g11
g12
(dtRp1536
sg20
g1
(g11
g12
(dtRp1537
sg22
g1
(g11
g12
(dtRp1538
sbsg24
S'Cme'
p1539
sg26
g27
((lp1540
g29
ag30
aS'sequence'
p1541
ag32
ag33
aS'species'
p1542
atRp1543
sg37
(lp1544
sg120
g1381
sg121
S'RWLSTKDLYSRLELPGLNQNVHAMFVMPLGFGNPMGDMFARLNNSFWLPPLSLEGAGTGWTVYPPLSHSGPSVDLAFHLTSSLLGAINFTNMRGPLYWTALLLLSLPVLAGTLLDRNFNTFEGGDPLYHLFWFFGHPEVYIIPGFGSHSTYKKFGMYASIGLGFVWSHHMYVGLDDRAYFTSATMIAPTGIKFSWLATYGGRPMLAFLFLFTGGTGVLNASDAFHDTYYVVHFHYVLSMGAFSLGYYYWYGLYNLFWFNFPMHFLGGMPRRPYPDAGWNSGSSYQLGPDESNEPH'
p1545
sg123
F0.00012
sg124
g125
sg33
S'30'
p1546
sg126
g1
(g127
g12
(dp1547
g129
I4
sg130
g131
sg132
g133
sg134
g131
sg135
I01
sg34
g136
sg137
g133
sg138
I0
sg139
I0
sg140
I0
sg141
g133
sg35
g131
sg142
I0
stRp1548
sg144
g145
sg146
F1
sg147
Nsg30
S'CmetaB'
p1549
sbasg120
g1368
sg123
F1.0000000000000001e-05
sg124
g125
sg33
S'106'
p1550
sg126
g1
(g127
g12
(dp1551
g129
I8
sg130
g131
sg132
g133
sg134
g131
sg135
I01
sg34
g171
sg137
g133
sg138
I0
sg139
I0
sg140
I0
sg141
g133
sg35
g131
sg142
I0
stRp1552
sg144
g145
sg146
F1
sg147
Nsg30
S'NoName'
p1553
sbag1
(g2
g3
NtRp1554
(dp1555
g6
g1
(g7
g3
NtRp1556
(dp1557
g10
g1
(g11
g12
(dtRp1558
sg14
g1
(g11
g12
(dtRp1559
sg16
g1
(g11
g12
(dtRp1560
sg18
g1
(g11
g12
(dtRp1561
sg20
g1
(g11
g12
(dtRp1562
sg22
g1
(g11
g12
(dtRp1563
sbsg24
S'Cme'
p1564
sg26
g27
((lp1565
g29
ag30
aS'sequence'
p1566
ag32
ag33
aS'species'
p1567
atRp1568
sg37
(lp1569
sg120
g1368
sg121
S'RWLSTKDLYSRLELPGLNQNVHAMFVMPLGFGNPMGDMFARLNNSFWLPPLSLEGAGTGWTVYPPLSHSGPSVDLAFHLTSSLLGAINFTNMRGPLYWTALLLLSLPVLAGTLLDRNFNTFEGGDPLYHLFWFFGHPEVYIIPGFGSHSTYKKFGMYASIGLGFVWSHHMYVGLDDRAYFTSATMIAPTGIKFSWLATYGGRPMLAFLFLFTGGTGVLNASDAFHDTYYVVHFHYVLSMGAFSLGYYYWYGLYNLFWFNFPMHFLGGMPRRPYPDAGWNSGSSYQLGPDESNEPH'
p1570
sg123
F0.00012999999999999999
sg124
g125
sg33
S'214'
p1571
sg126
g1
(g127
g12
(dp1572
g129
I4
sg130
g131
sg132
g133
sg134
g131
sg135
I01
sg34
g136
sg137
g133
sg138
I0
sg139
I0
sg140
I0
sg141
g133
sg35
g131
sg142
I0
stRp1573
sg144
g145
sg146
F1
sg147
Nsg30
S'CmetaA'
p1574
sbasg120
g1106
sg123
F0.020930000000000001
sg124
g125
sg33
S'63'
p1575
sg126
g1
(g127
g12
(dp1576
g129
I8
sg130
g131
sg132
g133
sg134
g131
sg135
I01
sg34
g171
sg137
g133
sg138
I0
sg139
I0
sg140
I0
sg141
g133
sg35
g131
sg142
I0
stRp1577
sg144
g145
sg146
F0.98999999999999999
sg147
Nsg30
S'NoName'
p1578
sbasg120
g1093
sg123
F0.045289999999999997
sg124
g125
sg33
S'99'
p1579
sg126
g1
(g127
g12
(dp1580
g129
I8
sg130
g131
sg132
g133
sg134
g131
sg135
I01
sg34
g171
sg137
g133
sg138
I0
sg139
I0
sg140
I0
sg141
g133
sg35
g131
sg142
I0
stRp1581
sg144
g145
sg146
F0.98999999999999999
sg147
Nsg30
S'NoName'
p1582
sbag1
(g2
g3
NtRp1583
(dp1584
g6
g1
(g7
g3
NtRp1585
(dp1586
g10
g1
(g11
g12
(dtRp1587
sg14
g1
(g11
g12
(dtRp1588
sg16
g1
(g11
g12
(dtRp1589
sg18
g1
(g11
g12
(dtRp1590
sg20
g1
(g11
g12
(dtRp1591
sg22
g1
(g11
g12
(dtRp1592
sbsg24
S'Cji'
p1593
sg26
g27
((lp1594
g29
ag30
aS'sequence'
p1595
ag32
ag33
aS'species'
p1596
atRp1597
sg37
(lp1598
sg120
g1093
sg121
S'RWLSTKDLYSRLELPGLNQNVHAMFVMPLGFGNPMGDMFARLNNSFWLPPLSLEGAGTGWTVYPPLSHSGPSVDLAFHLTSSLLGAINFTNMRGPMFWTALLLLSLPVLAGTLLDRNFNTFDGGDPLYHLFWFFGHPEVYIIPGFGSHSTYKKFGMYASIGLGFVWSHHMYVGLDDRAYFTSATMIAPTGIKFSWLATYGGRPMLAFLFLFTGGTGVLNASDAFHDTYYTVHFHYVLSMGAFSLGYYYWYGLYNLFWFNFPMHFLGGMPRRPYPDAGWNSGSSYQLGPDESNEPH'
p1599
sg123
F0.013140000000000001
sg124
g125
sg33
S'224'
p1600
sg126
g1
(g127
g12
(dp1601
g129
I4
sg130
g131
sg132
g133
sg134
g131
sg135
I01
sg34
g136
sg137
g133
sg138
I0
sg139
I0
sg140
I0
sg141
g133
sg35
g131
sg142
I0
stRp1602
sg144
g145
sg146
F1
sg147
Nsg30
S'CjiufA'
p1603
sbasg120
g1021
sg123
F0.044909999999999999
sg124
g125
sg33
S'93'
p1604
sg126
g1
(g127
g12
(dp1605
g129
I8
sg130
g131
sg132
g133
sg134
g131
sg135
I01
sg34
g171
sg137
g133
sg138
I0
sg139
I0
sg140
I0
sg141
g133
sg35
g131
sg142
I0
stRp1606
sg144
g145
sg146
F0.98999999999999999
sg147
Nsg30
S'NoName'
p1607
sbasg120
g1008
sg123
F0.082199999999999995
sg124
g125
sg33
S'88'
p1608
sg126
g1
(g127
g12
(dp1609
g129
I8
sg130
g131
sg132
g133
sg134
g131
sg135
I01
sg34
g171
sg137
g133
sg138
I0
sg139
I0
sg140
I0
sg141
g133
sg35
g131
sg142
I0
stRp1610
sg144
g145
sg146
F0.98999999999999999
sg147
Nsg30
S'NoName'
p1611
sbag1
(g2
g3
NtRp1612
(dp1613
g6
g1
(g7
g3
NtRp1614
(dp1615
g10
g1
(g11
g12
(dtRp1616
sg14
g1
(g11
g12
(dtRp1617
sg16
g1
(g11
g12
(dtRp1618
sg18
g1
(g11
g12
(dtRp1619
sg20
g1
(g11
g12
(dtRp1620
sg22
g1
(g11
g12
(dtRp1621
sbsg24
g25
sg26
g27
((lp1622
g33
ag32
ag29
ag30
atRp1623
sg37
(lp1624
g1
(g2
g3
NtRp1625
(dp1626
g6
g1
(g7
g3
NtRp1627
(dp1628
g10
g1
(g11
g12
(dtRp1629
sg14
g1
(g11
g12
(dtRp1630
sg16
g1
(g11
g12
(dtRp1631
sg18
g1
(g11
g12
(dtRp1632
sg20
g1
(g11
g12
(dtRp1633
sg22
g1
(g11
g12
(dtRp1634
sbsg24
g25
sg26
g27
((lp1635
g33
ag32
ag29
ag30
atRp1636
sg37
(lp1637
g1
(g2
g3
NtRp1638
(dp1639
g6
g1
(g7
g3
NtRp1640
(dp1641
g10
g1
(g11
g12
(dtRp1642
sg14
g1
(g11
g12
(dtRp1643
sg16
g1
(g11
g12
(dtRp1644
sg18
g1
(g11
g12
(dtRp1645
sg20
g1
(g11
g12
(dtRp1646
sg22
g1
(g11
g12
(dtRp1647
sbsg24
S'Cco'
p1648
sg26
g27
((lp1649
g29
ag30
aS'sequence'
p1650
ag32
ag33
aS'species'
p1651
atRp1652
sg37
(lp1653
sg120
g1625
sg121
S'RWLSTKDLYSRMELPGLNQNVHAMFVMPLGFGNPMGDMFARLNNSFWLPPLSLEGAGTGWTLYAPLSHSGPSVDLAFHLTSSLLGAINFTNMRGPLFWTALLLLSLPVLAATLLDRNFNTFEGGDPLYHLFFVLMHPEVYIIPGFGSHSTYKKFGMYASMGLGFVWSHHMYVGLDDRAYFTSATMIAPTGIKFSWLATYGGRPMLAFLFLFTGGTGVLNASDAFHDTYYIKHFHYVLSMGAFSLGYYYWYGLYNMFWFNFPMHFLGGMPRRPYPDAGWNSGSSYQLGPDESNEPH'
p1654
sg123
F0.057970000000000001
sg124
g125
sg33
S'28'
p1655
sg126
g1
(g127
g12
(dp1656
g129
I4
sg130
g131
sg132
g133
sg134
g131
sg135
I01
sg34
g136
sg137
g133
sg138
I0
sg139
I0
sg140
I0
sg141
g133
sg35
g131
sg142
I0
stRp1657
sg144
g145
sg146
F1
sg147
Nsg30
S'CcoryA'
p1658
sbag1
(g2
g3
NtRp1659
(dp1660
g6
g1
(g7
g3
NtRp1661
(dp1662
g10
g1
(g11
g12
(dtRp1663
sg14
g1
(g11
g12
(dtRp1664
sg16
g1
(g11
g12
(dtRp1665
sg18
g1
(g11
g12
(dtRp1666
sg20
g1
(g11
g12
(dtRp1667
sg22
g1
(g11
g12
(dtRp1668
sbsg24
S'Cch'
p1669
sg26
g27
((lp1670
g29
ag30
aS'sequence'
p1671
ag32
ag33
aS'species'
p1672
atRp1673
sg37
(lp1674
sg120
g1625
sg121
S'RWLSTKDLYSRMELPSLNQNVHAMFVMPLGFGNPMGDMFARLNNSFWLPPLSLEGAGTGWTLYAPLSHSGPSVDLAFHLTSSLLGAINFTNMRGPLFWTALLLLSLPVLAATLLDRNFNTFEGGDPLYHLFWFYMYKDYYIIPGFGSHSTYKKFGMYASIGLGFVWSHHMFVGLDDRAYFTSATMIAPTGIKFSWLATYGGRPMLAFLFLFTGGTGVLNASDAFHDTYYVVHFHYVLSMGAFSLGYYYWYGLYNLFWFNFPMHFLGGMPRRPYPDAGWNSGSSYQLGPDESNEPH'
p1675
sg123
F0.052440000000000001
sg124
g125
sg33
S'38'
p1676
sg126
g1
(g127
g12
(dp1677
g129
I4
sg130
g131
sg132
g133
sg134
g131
sg135
I01
sg34
g136
sg137
g133
sg138
I0
sg139
I0
sg140
I0
sg141
g133
sg35
g131
sg142
I0
stRp1678
sg144
g145
sg146
F1
sg147
Nsg30
S'CchauA'
p1679
sbasg120
g1612
sg123
F0.16861999999999999
sg124
g125
sg33
S'8'
sg126
g1
(g127
g12
(dp1680
g129
I8
sg130
g131
sg132
g133
sg134
g131
sg135
I01
sg34
g171
sg137
g133
sg138
I0
sg139
I0
sg140
I0
sg141
g133
sg35
g131
sg142
I0
stRp1681
sg144
g145
sg146
F0.98999999999999999
sg147
Nsg30
S'NoName'
p1682
sbag1
(g2
g3
NtRp1683
(dp1684
g6
g1
(g7
g3
NtRp1685
(dp1686
g10
g1
(g11
g12
(dtRp1687
sg14
g1
(g11
g12
(dtRp1688
sg16
g1
(g11
g12
(dtRp1689
sg18
g1
(g11
g12
(dtRp1690
sg20
g1
(g11
g12
(dtRp1691
sg22
g1
(g11
g12
(dtRp1692
sbsg24
S'Cbo'
p1693
sg26
g27
((lp1694
g29
ag30
aS'sequence'
p1695
ag32
ag33
aS'species'
p1696
atRp1697
sg37
(lp1698
sg120
g1612
sg121
S'RWLSTKDLYSRMELPGLNQNVHAMFVMPLGFGNPMGDMFARLNNSFWLPPLSLEGAGTGWTVYPPLSHSGPSVDLAFHLTSSLLGAINFTNMRGPLFWTALLLLSLPVLAATLLDRNFNTFEGGDPLYHLFWFFGHPEVYIIPGFGSHSTYKKFGMYASIGLGFVWSHHMYVGLDDRAYFTSATMIAPTGIKFSWLATYGGRPMLAFLFLFTGGTGVLNASDAFHDTYYVVHFHYVLSMGAFSLAYYYWYGLYNLFWFNFPMHFLGGMPRRPYPDAGWNSGSSYQLGPDESNEPH'
p1699
sg123
F0.20199
sg124
g125
sg33
S'49'
p1700
sg126
g1
(g127
g12
(dp1701
g129
I4
sg130
g131
sg132
g133
sg134
g131
sg135
I01
sg34
g136
sg137
g133
sg138
I0
sg139
I0
sg140
I0
sg141
g133
sg35
g131
sg142
I0
stRp1702
sg144
g145
sg146
F1
sg147
Nsg30
S'CbohiA'
p1703
sbasg120
g1008
sg123
F0.14915999999999999
sg124
g125
sg33
S'22'
p1704
sg126
g1
(g127
g12
(dp1705
g129
I8
sg130
g131
sg132
g133
sg134
g131
sg135
I01
sg34
g171
sg137
g133
sg138
I0
sg139
I0
sg140
I0
sg141
g133
sg35
g131
sg142
I0
stRp1706
sg144
g145
sg146
F0.98999999999999999
sg147
Nsg30
S'NoName'
p1707
sbasg120
g995
sg123
F0.036799999999999999
sg124
g125
sg33
S'87'
p1708
sg126
g1
(g127
g12
(dp1709
g129
I8
sg130
g131
sg132
g133
sg134
g131
sg135
I01
sg34
g171
sg137
g133
sg138
I0
sg139
I0
sg140
I0
sg141
g133
sg35
g131
sg142
I0
stRp1710
sg144
g145
sg146
F0.98999999999999999
sg147
Nsg30
S'NoName'
p1711
sbag1
(g2
g3
NtRp1712
(dp1713
g6
g1
(g7
g3
NtRp1714
(dp1715
g10
g1
(g11
g12
(dtRp1716
sg14
g1
(g11
g12
(dtRp1717
sg16
g1
(g11
g12
(dtRp1718
sg18
g1
(g11
g12
(dtRp1719
sg20
g1
(g11
g12
(dtRp1720
sg22
g1
(g11
g12
(dtRp1721
sbsg24
g25
sg26
g27
((lp1722
g33
ag32
ag29
ag30
atRp1723
sg37
(lp1724
g1
(g2
g3
NtRp1725
(dp1726
g6
g1
(g7
g3
NtRp1727
(dp1728
g10
g1
(g11
g12
(dtRp1729
sg14
g1
(g11
g12
(dtRp1730
sg16
g1
(g11
g12
(dtRp1731
sg18
g1
(g11
g12
(dtRp1732
sg20
g1
(g11
g12
(dtRp1733
sg22
g1
(g11
g12
(dtRp1734
sbsg24
g25
sg26
g27
((lp1735
g33
ag32
ag29
ag30
atRp1736
sg37
(lp1737
g1
(g2
g3
NtRp1738
(dp1739
g6
g1
(g7
g3
NtRp1740
(dp1741
g10
g1
(g11
g12
(dtRp1742
sg14
g1
(g11
g12
(dtRp1743
sg16
g1
(g11
g12
(dtRp1744
sg18
g1
(g11
g12
(dtRp1745
sg20
g1
(g11
g12
(dtRp1746
sg22
g1
(g11
g12
(dtRp1747
sbsg24
S'Cma'
p1748
sg26
g27
((lp1749
g29
ag30
aS'sequence'
p1750
ag32
ag33
aS'species'
p1751
atRp1752
sg37
(lp1753
sg120
g1725
sg121
S'RWLSTKDLYSRLELPGLSQNVHAMFVMPLGFGNPLGDMFARLNNSFWLPPLSLEGAGTGWTVYPPLSHSGPSVDLAFHLTSSLLGAINFTNMRGPLYWTALLLLSLPVLAGTLLDRNFNTFEGGDPLYHLFWFFGHPEVYMIPGFGSHSTYKKFGMYASMGLGFVWSHHMYVGLDDRAYFTSATMIAPTGIKFSWLATYGGRPMLAFLFLFTGGTGVLNASDAFHDTYYVVHFHYVLSMGAFSLGYYYWSGLYNLYWFNFPMHFLGGMPRRPYPDAGWNSGSSYQLGPDESNEPH'
p1754
sg123
F0.24277000000000001
sg124
g125
sg33
S'79'
p1755
sg126
g1
(g127
g12
(dp1756
g129
I4
sg130
g131
sg132
g133
sg134
g131
sg135
I01
sg34
g136
sg137
g133
sg138
I0
sg139
I0
sg140
I0
sg141
g133
sg35
g131
sg142
I0
stRp1757
sg144
g145
sg146
F1
sg147
Nsg30
S'CmaltA'
p1758
sbag1
(g2
g3
NtRp1759
(dp1760
g6
g1
(g7
g3
NtRp1761
(dp1762
g10
g1
(g11
g12
(dtRp1763
sg14
g1
(g11
g12
(dtRp1764
sg16
g1
(g11
g12
(dtRp1765
sg18
g1
(g11
g12
(dtRp1766
sg20
g1
(g11
g12
(dtRp1767
sg22
g1
(g11
g12
(dtRp1768
sbsg24
g25
sg26
g27
((lp1769
g33
ag32
ag29
ag30
atRp1770
sg37
(lp1771
g1
(g2
g3
NtRp1772
(dp1773
g6
g1
(g7
g3
NtRp1774
(dp1775
g10
g1
(g11
g12
(dtRp1776
sg14
g1
(g11
g12
(dtRp1777
sg16
g1
(g11
g12
(dtRp1778
sg18
g1
(g11
g12
(dtRp1779
sg20
g1
(g11
g12
(dtRp1780
sg22
g1
(g11
g12
(dtRp1781
sbsg24
g25
sg26
g27
((lp1782
g33
ag32
ag29
ag30
atRp1783
sg37
(lp1784
g1
(g2
g3
NtRp1785
(dp1786
g6
g1
(g7
g3
NtRp1787
(dp1788
g10
g1
(g11
g12
(dtRp1789
sg14
g1
(g11
g12
(dtRp1790
sg16
g1
(g11
g12
(dtRp1791
sg18
g1
(g11
g12
(dtRp1792
sg20
g1
(g11
g12
(dtRp1793
sg22
g1
(g11
g12
(dtRp1794
sbsg24
g25
sg26
g27
((lp1795
g33
ag32
ag29
ag30
atRp1796
sg37
(lp1797
g1
(g2
g3
NtRp1798
(dp1799
g6
g1
(g7
g3
NtRp1800
(dp1801
g10
g1
(g11
g12
(dtRp1802
sg14
g1
(g11
g12
(dtRp1803
sg16
g1
(g11
g12
(dtRp1804
sg18
g1
(g11
g12
(dtRp1805
sg20
g1
(g11
g12
(dtRp1806
sg22
g1
(g11
g12
(dtRp1807
sbsg24
g25
sg26
g27
((lp1808
g33
ag32
ag29
ag30
atRp1809
sg37
(lp1810
g1
(g2
g3
NtRp1811
(dp1812
g6
g1
(g7
g3
NtRp1813
(dp1814
g10
g1
(g11
g12
(dtRp1815
sg14
g1
(g11
g12
(dtRp1816
sg16
g1
(g11
g12
(dtRp1817
sg18
g1
(g11
g12
(dtRp1818
sg20
g1
(g11
g12
(dtRp1819
sg22
g1
(g11
g12
(dtRp1820
sbsg24
S'Ctr'
p1821
sg26
g27
((lp1822
g29
ag30
aS'sequence'
p1823
ag32
ag33
aS'species'
p1824
atRp1825
sg37
(lp1826
sg120
g1798
sg121
S'RWLSTKDLYSRLELPGLNQNVHAMFVMPLGFGNPMGDMFARLNNSFWLPPLSLEGAGTGWTVYPPLSHSGPSVDLAFHLTSSLLGAINFTNMRGPLFWTALLLLSLPVLAGTLLDRNFNTFEGGDPLYHLFWFFGHPEVYIIPGFGSHSTYKKFGMYASIGLGFVWSHHMYVGLDDRAYFTSATMIAPTGIKFSWLATYGGRPMLAFLFLFTGGTGVLNASDAFHDSYYVVHFHYVLSMGAFSLGYYYWPGLYNLYWFNFPMHFLGGMPRRPYPDAGWNSGSSYQLGPDEANEPH'
p1827
sg123
F0.00064000000000000005
sg124
g125
sg33
S'132'
p1828
sg126
g1
(g127
g12
(dp1829
g129
I4
sg130
g131
sg132
g133
sg134
g131
sg135
I01
sg34
g136
sg137
g133
sg138
I0
sg139
I0
sg140
I0
sg141
g133
sg35
g131
sg142
I0
stRp1830
sg144
g145
sg146
F1
sg147
Nsg30
S'CtropB'
p1831
sbag1
(g2
g3
NtRp1832
(dp1833
g6
g1
(g7
g3
NtRp1834
(dp1835
g10
g1
(g11
g12
(dtRp1836
sg14
g1
(g11
g12
(dtRp1837
sg16
g1
(g11
g12
(dtRp1838
sg18
g1
(g11
g12
(dtRp1839
sg20
g1
(g11
g12
(dtRp1840
sg22
g1
(g11
g12
(dtRp1841
sbsg24
S'Ctr'
p1842
sg26
g27
((lp1843
g29
ag30
aS'sequence'
p1844
ag32
ag33
aS'species'
p1845
atRp1846
sg37
(lp1847
sg120
g1798
sg121
S'RWLSTKDLYSRLELPGLNQNVHAMFVMPLGFGNPMGDMFARLNNSFWLPPLSLEGAGTGWTVYPPLSHSGPSVDLAFHLTSSLLGAINFTNMRGPLFWTALLLLSLPVLAGTLLDRNFNTFEGGDPLYHLFWFFGHPEVYIIPGFGSHSTYKKFGMYASIGLGFVWSHHMYVGLDDRAYFTSATMIAPTGIKFSWLATYGGRPMLAFLFLFTGGTGVLNASDAFHDSYYVVHFHYVLSMGAFSLGYYYWPGLYNLYWFNFPMHFLGGMPRRPYPDAGWNSGSSYQLGPDEANEPH'
p1848
sg123
F0.00040000000000000002
sg124
g125
sg33
S'143'
p1849
sg126
g1
(g127
g12
(dp1850
g129
I4
sg130
g131
sg132
g133
sg134
g131
sg135
I01
sg34
g136
sg137
g133
sg138
I0
sg139
I0
sg140
I0
sg141
g133
sg35
g131
sg142
I0
stRp1851
sg144
g145
sg146
F1
sg147
Nsg30
S'CtropA'
p1852
sbasg120
g1785
sg123
F0.032030000000000003
sg124
g125
sg33
S'111'
p1853
sg126
g1
(g127
g12
(dp1854
g129
I8
sg130
g131
sg132
g133
sg134
g131
sg135
I01
sg34
g171
sg137
g133
sg138
I0
sg139
I0
sg140
I0
sg141
g133
sg35
g131
sg142
I0
stRp1855
sg144
g145
sg146
F0.98999999999999999
sg147
Nsg30
S'NoName'
p1856
sbag1
(g2
g3
NtRp1857
(dp1858
g6
g1
(g7
g3
NtRp1859
(dp1860
g10
g1
(g11
g12
(dtRp1861
sg14
g1
(g11
g12
(dtRp1862
sg16
g1
(g11
g12
(dtRp1863
sg18
g1
(g11
g12
(dtRp1864
sg20
g1
(g11
g12
(dtRp1865
sg22
g1
(g11
g12
(dtRp1866
sbsg24
S'Cso'
p1867
sg26
g27
((lp1868
g29
ag30
aS'sequence'
p1869
ag32
ag33
aS'species'
p1870
atRp1871
sg37
(lp1872
sg120
g1785
sg121
S'RWLSTKDLYSRLELPGLNQNVHAMFVMPLGFGNPMGDMFARLNNSFWLPPLSLEGAGTGWTVYPPLSHSGPSVDLAFHLTSSLLGAMNFTNMRGPLFWTALLLLSLPVLAGTLLDRNFNTFEGGDPLYHLFWFFGHPEVYIIPGFGSHSTYKKFGMYASIGLGFVWSHHMYVGLDDRAYFTSATMIAPTGIKFSWLATYGGRPMLAFLFLFTGGTGVLNASDAFHDTYYVVHFHYVLSMGAFSLGYYYWPGLYNLYWFNFPMHFLGGMPRRPYPDAGWNSGSSYQLGPDEANEPH'
p1873
sg123
F0.033649999999999999
sg124
g125
sg33
S'154'
p1874
sg126
g1
(g127
g12
(dp1875
g129
I4
sg130
g131
sg132
g133
sg134
g131
sg135
I01
sg34
g136
sg137
g133
sg138
I0
sg139
I0
sg140
I0
sg141
g133
sg35
g131
sg142
I0
stRp1876
sg144
g145
sg146
F1
sg147
Nsg30
S'CsojaA'
p1877
sbasg120
g1772
sg123
F0.019990000000000001
sg124
g125
sg33
S'101'
p1878
sg126
g1
(g127
g12
(dp1879
g129
I8
sg130
g131
sg132
g133
sg134
g131
sg135
I01
sg34
g171
sg137
g133
sg138
I0
sg139
I0
sg140
I0
sg141
g133
sg35
g131
sg142
I0
stRp1880
sg144
g145
sg146
F0.98999999999999999
sg147
Nsg30
S'NoName'
p1881
sbag1
(g2
g3
NtRp1882
(dp1883
g6
g1
(g7
g3
NtRp1884
(dp1885
g10
g1
(g11
g12
(dtRp1886
sg14
g1
(g11
g12
(dtRp1887
sg16
g1
(g11
g12
(dtRp1888
sg18
g1
(g11
g12
(dtRp1889
sg20
g1
(g11
g12
(dtRp1890
sg22
g1
(g11
g12
(dtRp1891
sbsg24
g25
sg26
g27
((lp1892
g33
ag32
ag29
ag30
atRp1893
sg37
(lp1894
g1
(g2
g3
NtRp1895
(dp1896
g6
g1
(g7
g3
NtRp1897
(dp1898
g10
g1
(g11
g12
(dtRp1899
sg14
g1
(g11
g12
(dtRp1900
sg16
g1
(g11
g12
(dtRp1901
sg18
g1
(g11
g12
(dtRp1902
sg20
g1
(g11
g12
(dtRp1903
sg22
g1
(g11
g12
(dtRp1904
sbsg24
S'Cte'
p1905
sg26
g27
((lp1906
g29
ag30
aS'sequence'
p1907
ag32
ag33
aS'species'
p1908
atRp1909
sg37
(lp1910
sg120
g1882
sg121
S'RWLSTKDLYSRLELPGLNQNVHAMFVMPLGFGNPMGDMFARLNNSFWLPPLSLEGAGTGWTVYPPLSHSGPSVDMAFHLTSSLLGAINFTNMRGPLFWTALLLLSLPVLAGTLLDRNFNTFEGGDPLYHLFWFFGHPEVYIIPGFGSHSTYKKFGMYASIGLGFVWSHHMFVGLDDRAYFTSATMMAPTGIKFSWLATYGGRPMLAFLFLFTGGTGVLNASDSMHDTYYVVHFHYVLSMGAFSLGYYYWPGLYNLYWFNFPMHFLGGMPRRPYPDAGWNSGSSLQLGPDESNEPH'
p1911
sg123
F0.084209999999999993
sg124
g125
sg33
S'178'
p1912
sg126
g1
(g127
g12
(dp1913
g129
I4
sg130
g131
sg132
g133
sg134
g131
sg135
I01
sg34
g136
sg137
g133
sg138
I0
sg139
I0
sg140
I0
sg141
g133
sg35
g131
sg142
I0
stRp1914
sg144
g145
sg146
F1
sg147
Nsg30
S'CtetrA'
p1915
sbag1
(g2
g3
NtRp1916
(dp1917
g6
g1
(g7
g3
NtRp1918
(dp1919
g10
g1
(g11
g12
(dtRp1920
sg14
g1
(g11
g12
(dtRp1921
sg16
g1
(g11
g12
(dtRp1922
sg18
g1
(g11
g12
(dtRp1923
sg20
g1
(g11
g12
(dtRp1924
sg22
g1
(g11
g12
(dtRp1925
sbsg24
g25
sg26
g27
((lp1926
g33
ag32
ag29
ag30
atRp1927
sg37
(lp1928
g1
(g2
g3
NtRp1929
(dp1930
g6
g1
(g7
g3
NtRp1931
(dp1932
g10
g1
(g11
g12
(dtRp1933
sg14
g1
(g11
g12
(dtRp1934
sg16
g1
(g11
g12
(dtRp1935
sg18
g1
(g11
g12
(dtRp1936
sg20
g1
(g11
g12
(dtRp1937
sg22
g1
(g11
g12
(dtRp1938
sbsg24
g25
sg26
g27
((lp1939
g33
ag32
ag29
ag30
atRp1940
sg37
(lp1941
g1
(g2
g3
NtRp1942
(dp1943
g6
g1
(g7
g3
NtRp1944
(dp1945
g10
g1
(g11
g12
(dtRp1946
sg14
g1
(g11
g12
(dtRp1947
sg16
g1
(g11
g12
(dtRp1948
sg18
g1
(g11
g12
(dtRp1949
sg20
g1
(g11
g12
(dtRp1950
sg22
g1
(g11
g12
(dtRp1951
sbsg24
S'Cvi'
p1952
sg26
g27
((lp1953
g29
ag30
aS'sequence'
p1954
ag32
ag33
aS'species'
p1955
atRp1956
sg37
(lp1957
sg120
g1929
sg121
S'RWFSTKDLYSRLELPGLNQNVHAMFVMPLGFGNPMGDMFARLNNSFWLPPLSLEGAGTGWTVYPPLSHSGPSVDLAFHLTSSLLGAINFTNMRGPLFWTALLLLSLPVLAGTLLDRNFNTFDGGDPLYHLFWFFGHPEVYMIPGFGSHSTYKKFGMYASIGLGFVWSHHMYVGLDDRAYFTSATMIAPTGIKFSWLSTYGGRPTLAFLFLFTGGTGVLNASDSMHDTYYVVHFHYVLSMGAFSLGYYYWPGLYNLYWFNFPMHFLGGMPRRPYPDSGWNSGSSFQLGPDESNEPH'
p1958
sg123
F0.03977
sg124
g125
sg33
S'210'
p1959
sg126
g1
(g127
g12
(dp1960
g129
I4
sg130
g131
sg132
g133
sg134
g131
sg135
I01
sg34
g136
sg137
g133
sg138
I0
sg139
I0
sg140
I0
sg141
g133
sg35
g131
sg142
I0
stRp1961
sg144
g145
sg146
F1
sg147
Nsg30
S'CviswA'
p1962
sbag1
(g2
g3
NtRp1963
(dp1964
g6
g1
(g7
g3
NtRp1965
(dp1966
g10
g1
(g11
g12
(dtRp1967
sg14
g1
(g11
g12
(dtRp1968
sg16
g1
(g11
g12
(dtRp1969
sg18
g1
(g11
g12
(dtRp1970
sg20
g1
(g11
g12
(dtRp1971
sg22
g1
(g11
g12
(dtRp1972
sbsg24
S'Csa'
p1973
sg26
g27
((lp1974
g29
ag30
aS'sequence'
p1975
ag32
ag33
aS'species'
p1976
atRp1977
sg37
(lp1978
sg120
g1929
sg121
S'RWFSTKDLYSRLELPGLNQNVHAMFVMPLGFGNPMGDMFARLNNSFWLPPLSLEGAGTGWTVYPPLSHSGPSVDLAFHLTSSLLGAINFTNMRGVLFWTALLLLSLPVLAGTLLDRNFNTFDGGDPLYHLFWFFGHPEVYIIPGFGSHSTFKKFGMYASIGLGFVWSHHMYVGLDDRAYFTSATMIAPTGIKFSWIATYGGRPTLAFLFLFTGGTGVLNASDSMHDTYYVVHFHYVLSMGAFSLGYYYWPGLYNLYWFNFPMHFLGGMPRRPYPDSGWNSGSSYQLGPDEGNEPH'
p1979
sg123
F0.065189999999999998
sg124
g125
sg33
S'221'
p1980
sg126
g1
(g127
g12
(dp1981
g129
I4
sg130
g131
sg132
g133
sg134
g131
sg135
I01
sg34
g136
sg137
g133
sg138
I0
sg139
I0
sg140
I0
sg141
g133
sg35
g131
sg142
I0
stRp1982
sg144
g145
sg146
F1
sg147
Nsg30
S'CsaraA'
p1983
sbasg120
g1916
sg123
F0.029960000000000001
sg124
g125
sg33
S'187'
p1984
sg126
g1
(g127
g12
(dp1985
g129
I8
sg130
g131
sg132
g133
sg134
g131
sg135
I01
sg34
g171
sg137
g133
sg138
I0
sg139
I0
sg140
I0
sg141
g133
sg35
g131
sg142
I0
stRp1986
sg144
g145
sg146
F0.98999999999999999
sg147
Nsg30
S'NoName'
p1987
sbag1
(g2
g3
NtRp1988
(dp1989
g6
g1
(g7
g3
NtRp1990
(dp1991
g10
g1
(g11
g12
(dtRp1992
sg14
g1
(g11
g12
(dtRp1993
sg16
g1
(g11
g12
(dtRp1994
sg18
g1
(g11
g12
(dtRp1995
sg20
g1
(g11
g12
(dtRp1996
sg22
g1
(g11
g12
(dtRp1997
sbsg24
S'Cpr'
p1998
sg26
g27
((lp1999
g29
ag30
aS'sequence'
p2000
ag32
ag33
aS'species'
p2001
atRp2002
sg37
(lp2003
sg120
g1916
sg121
S'RWFSTKDEYSRLELPGLNQNVHAMFVMPLGFGNPMGDMFARLNNSFWLPPLSLEGAGTGWTVYPPLSHSGPSVDLAFHLTSSLLGAINFTNMRGPLFWTALLLLSLPVLTGTLLDRNFNTFDGGDPLYHLFWFFGHPEVYMIPGFGSHSTYKKFGMYASMGLGFVWSHHMFVGLDDRAYFTSATMMAPTGIKFSWLATYGGRPMLAFLFLFTGGTGVLNASDSMHDTYYVVHFHYVLSMGAFSLGYYYWPGLYNLYWFNFPMHFLGGMPRRPYPDSGWNSGSSVQLGPDENNEPH'
p2004
sg123
F0.17724999999999999
sg124
g125
sg33
S'4'
sg126
g1
(g127
g12
(dp2005
g129
I4
sg130
g131
sg132
g133
sg134
g131
sg135
I01
sg34
g136
sg137
g133
sg138
I0
sg139
I0
sg140
I0
sg141
g133
sg35
g131
sg142
I0
stRp2006
sg144
g145
sg146
F1
sg147
Nsg30
S'CpracA'
p2007
sbasg120
g1882
sg123
F0.02281
sg124
g125
sg33
S'167'
p2008
sg126
g1
(g127
g12
(dp2009
g129
I8
sg130
g131
sg132
g133
sg134
g131
sg135
I01
sg34
g171
sg137
g133
sg138
I0
sg139
I0
sg140
I0
sg141
g133
sg35
g131
sg142
I0
stRp2010
sg144
g145
sg146
F0.98999999999999999
sg147
Nsg30
S'NoName'
p2011
sbasg120
g1772
sg123
F0.01154
sg124
g125
sg33
S'122'
p2012
sg126
g1
(g127
g12
(dp2013
g129
I8
sg130
g131
sg132
g133
sg134
g131
sg135
I01
sg34
g171
sg137
g133
sg138
I0
sg139
I0
sg140
I0
sg141
g133
sg35
g131
sg142
I0
stRp2014
sg144
g145
sg146
F0.98999999999999999
sg147
Nsg30
S'NoName'
p2015
sbasg120
g1759
sg123
F0.02138
sg124
g125
sg33
S'90'
p2016
sg126
g1
(g127
g12
(dp2017
g129
I8
sg130
g131
sg132
g133
sg134
g131
sg135
I01
sg34
g171
sg137
g133
sg138
I0
sg139
I0
sg140
I0
sg141
g133
sg35
g131
sg142
I0
stRp2018
sg144
g145
sg146
F0.98999999999999999
sg147
Nsg30
S'NoName'
p2019
sbag1
(g2
g3
NtRp2020
(dp2021
g6
g1
(g7
g3
NtRp2022
(dp2023
g10
g1
(g11
g12
(dtRp2024
sg14
g1
(g11
g12
(dtRp2025
sg16
g1
(g11
g12
(dtRp2026
sg18
g1
(g11
g12
(dtRp2027
sg20
g1
(g11
g12
(dtRp2028
sg22
g1
(g11
g12
(dtRp2029
sbsg24
g25
sg26
g27
((lp2030
g33
ag32
ag29
ag30
atRp2031
sg37
(lp2032
g1
(g2
g3
NtRp2033
(dp2034
g6
g1
(g7
g3
NtRp2035
(dp2036
g10
g1
(g11
g12
(dtRp2037
sg14
g1
(g11
g12
(dtRp2038
sg16
g1
(g11
g12
(dtRp2039
sg18
g1
(g11
g12
(dtRp2040
sg20
g1
(g11
g12
(dtRp2041
sg22
g1
(g11
g12
(dtRp2042
sbsg24
S'Cne'
p2043
sg26
g27
((lp2044
g29
ag30
aS'sequence'
p2045
ag32
ag33
aS'species'
p2046
atRp2047
sg37
(lp2048
sg120
g2020
sg121
S'RWLSTKDLYSRLELPGLNQNVHAMFVMPLGFGNPMGDMFARLNNSFWLPPLSLEGAGTGWTVYPPLSHSGPSVDLAFHLTSSLLGAINFTNMRGPLFWTALLLLSLPVLAGTLLDRNFNTFDGGDPLYHLFWFFGHPEVYIIPGFGSHSTYKKFGMYASIGLGFVWSHHMYVGLDDRAYFTSATMIAPTGIKFSWLATYGGRPMLAFLFLFTGGTGVLNASDAFHDTYYVVHFHYVLSMGAFSLGYYYWPGLYNLYWFNFPMHFLGGMPRRPYPDSGWNSGSSYQLGPDESNEPH'
p2049
sg123
F0.04879
sg124
g125
sg33
S'24'
p2050
sg126
g1
(g127
g12
(dp2051
g129
I4
sg130
g131
sg132
g133
sg134
g131
sg135
I01
sg34
g136
sg137
g133
sg138
I0
sg139
I0
sg140
I0
sg141
g133
sg35
g131
sg142
I0
stRp2052
sg144
g145
sg146
F1
sg147
Nsg30
S'CneerA'
p2053
sbag1
(g2
g3
NtRp2054
(dp2055
g6
g1
(g7
g3
NtRp2056
(dp2057
g10
g1
(g11
g12
(dtRp2058
sg14
g1
(g11
g12
(dtRp2059
sg16
g1
(g11
g12
(dtRp2060
sg18
g1
(g11
g12
(dtRp2061
sg20
g1
(g11
g12
(dtRp2062
sg22
g1
(g11
g12
(dtRp2063
sbsg24
S'Cfr'
p2064
sg26
g27
((lp2065
g29
ag30
aS'sequence'
p2066
ag32
ag33
aS'species'
p2067
atRp2068
sg37
(lp2069
sg120
g2020
sg121
S'RWLSTKDLYSRLELPGLNQNVHAMFVMPLGFGNPMGDMFARLNNSFWLPPLSLEGAGTGWTVYPPLSHSGPSVDLAFHLTSSLLGAMNFTNMRGPLFWTALLLLSLPVLAGTLLDRNFNTFDGGDPLYHLFWFFGHPEVYIIPGFGSHSTYKKFGMYASIGLGFVWSHHMYVGLDDRAYFTSATMIAPTGIKFSWLSTYGGRPMLAFLFLFTGGTGVLNASDAFHDTYYVVHFHYVLSMGAFSLGYYYWPGLYNLYWFNFPMHFLGGMPRRPYPDSGWNSGSSYQLGPDESNEPH'
p2070
sg123
F0.050279999999999998
sg124
g125
sg33
S'34'
p2071
sg126
g1
(g127
g12
(dp2072
g129
I4
sg130
g131
sg132
g133
sg134
g131
sg135
I01
sg34
g136
sg137
g133
sg138
I0
sg139
I0
sg140
I0
sg141
g133
sg35
g131
sg142
I0
stRp2073
sg144
g145
sg146
F1
sg147
Nsg30
S'CfrijA'
p2074
sbasg120
g1759
sg123
F0.11378000000000001
sg124
g125
sg33
S'198'
p2075
sg126
g1
(g127
g12
(dp2076
g129
I8
sg130
g131
sg132
g133
sg134
g131
sg135
I01
sg34
g171
sg137
g133
sg138
I0
sg139
I0
sg140
I0
sg141
g133
sg35
g131
sg142
I0
stRp2077
sg144
g145
sg146
F0.98999999999999999
sg147
Nsg30
S'NoName'
p2078
sbasg120
g1725
sg123
F0.076910000000000006
sg124
g125
sg33
S'69'
p2079
sg126
g1
(g127
g12
(dp2080
g129
I8
sg130
g131
sg132
g133
sg134
g131
sg135
I01
sg34
g171
sg137
g133
sg138
I0
sg139
I0
sg140
I0
sg141
g133
sg35
g131
sg142
I0
stRp2081
sg144
g145
sg146
F0.98999999999999999
sg147
Nsg30
S'NoName'
p2082
sbasg120
g1712
sg123
F0.022950000000000002
sg124
g125
sg33
S'60'
p2083
sg126
g1
(g127
g12
(dp2084
g129
I8
sg130
g131
sg132
g133
sg134
g131
sg135
I01
sg34
g171
sg137
g133
sg138
I0
sg139
I0
sg140
I0
sg141
g133
sg35
g131
sg142
I0
stRp2085
sg144
g145
sg146
F0.65000000000000002
sg147
Nsg30
S'NoName'
p2086
sbag1
(g2
g3
NtRp2087
(dp2088
g6
g1
(g7
g3
NtRp2089
(dp2090
g10
g1
(g11
g12
(dtRp2091
sg14
g1
(g11
g12
(dtRp2092
sg16
g1
(g11
g12
(dtRp2093
sg18
g1
(g11
g12
(dtRp2094
sg20
g1
(g11
g12
(dtRp2095
sg22
g1
(g11
g12
(dtRp2096
sbsg24
g25
sg26
g27
((lp2097
g33
ag32
ag29
ag30
atRp2098
sg37
(lp2099
g1
(g2
g3
NtRp2100
(dp2101
g6
g1
(g7
g3
NtRp2102
(dp2103
g10
g1
(g11
g12
(dtRp2104
sg14
g1
(g11
g12
(dtRp2105
sg16
g1
(g11
g12
(dtRp2106
sg18
g1
(g11
g12
(dtRp2107
sg20
g1
(g11
g12
(dtRp2108
sg22
g1
(g11
g12
(dtRp2109
sbsg24
g25
sg26
g27
((lp2110
g33
ag32
ag29
ag30
atRp2111
sg37
(lp2112
g1
(g2
g3
NtRp2113
(dp2114
g6
g1
(g7
g3
NtRp2115
(dp2116
g10
g1
(g11
g12
(dtRp2117
sg14
g1
(g11
g12
(dtRp2118
sg16
g1
(g11
g12
(dtRp2119
sg18
g1
(g11
g12
(dtRp2120
sg20
g1
(g11
g12
(dtRp2121
sg22
g1
(g11
g12
(dtRp2122
sbsg24
S'Cgi'
p2123
sg26
g27
((lp2124
g29
ag30
aS'sequence'
p2125
ag32
ag33
aS'species'
p2126
atRp2127
sg37
(lp2128
sg120
g2100
sg121
S'RWLSTKDLYSRLELAGLNQNVHAMFVMPLGFGNPMGDMFARLNNSFWLPPLSLEGAGTGWTVYPPLSHSGPSVDMAFHLTSSLLGAINFTNMRGPLFWTALLLLSLPVLAATLLDRNFNTFEGGDPLYHAFWFFGHPEVYIIPGFGSHSTYKKFGMYASIGLGFVWSHHMYVGLDDRAYFTSATMIAPTGIKFSWLATYGGRPMLAFLFLFTGGTGVLNASDAFHDTYYVVHFHYVLSMGAFSLGYYYWPGLYNLYWFNFPMHFLGGMPRRPYPDAGWNSGSSYQLGPDESNEPH'
p2129
sg123
F0.22796
sg124
g125
sg33
S'66'
p2130
sg126
g1
(g127
g12
(dp2131
g129
I4
sg130
g131
sg132
g133
sg134
g131
sg135
I01
sg34
g136
sg137
g133
sg138
I0
sg139
I0
sg140
I0
sg141
g133
sg35
g131
sg142
I0
stRp2132
sg144
g145
sg146
F1
sg147
Nsg30
S'CgigaA'
p2133
sbag1
(g2
g3
NtRp2134
(dp2135
g6
g1
(g7
g3
NtRp2136
(dp2137
g10
g1
(g11
g12
(dtRp2138
sg14
g1
(g11
g12
(dtRp2139
sg16
g1
(g11
g12
(dtRp2140
sg18
g1
(g11
g12
(dtRp2141
sg20
g1
(g11
g12
(dtRp2142
sg22
g1
(g11
g12
(dtRp2143
sbsg24
S'Cbu'
p2144
sg26
g27
((lp2145
g29
ag30
aS'sequence'
p2146
ag32
ag33
aS'species'
p2147
atRp2148
sg37
(lp2149
sg120
g2100
sg121
S'RWLSTKDLYSRLELAGLNQNVHAMFVMPLGFGNPMGDMFARLNNSFWLPPLSLEGAGTGWTVYPPLSHSGPSVDLAFHLTSSLLGAINFTNMRGPLFWTALLLLSLPVLAGTLLDRNFNTFEGGDPLYHLFWFFGHPEVYIIPGFGSHGTYKKFGMYASIGLGFVWSHHMFVGLDDRAYFTSATMIAPTGIKFSWLATYGGRPMLAFLFLFTGGTGVLNASDAFHDTYYVVHFHYVLSMGAFSLAYYYWPGLYNLFWFNFPMHFLGGMPRRPYPDAGWNSGSSYQLGPDESNEPH'
p2150
sg123
F0.26118000000000002
sg124
g125
sg33
S'76'
p2151
sg126
g1
(g127
g12
(dp2152
g129
I4
sg130
g131
sg132
g133
sg134
g131
sg135
I01
sg34
g136
sg137
g133
sg138
I0
sg139
I0
sg140
I0
sg141
g133
sg35
g131
sg142
I0
stRp2153
sg144
g145
sg146
F1
sg147
Nsg30
S'CbuenA'
p2154
sbasg120
g2087
sg123
F0.037260000000000001
sg124
g125
sg33
S'46'
p2155
sg126
g1
(g127
g12
(dp2156
g129
I8
sg130
g131
sg132
g133
sg134
g131
sg135
I01
sg34
g171
sg137
g133
sg138
I0
sg139
I0
sg140
I0
sg141
g133
sg35
g131
sg142
I0
stRp2157
sg144
g145
sg146
F0.98999999999999999
sg147
Nsg30
S'NoName'
p2158
sbag1
(g2
g3
NtRp2159
(dp2160
g6
g1
(g7
g3
NtRp2161
(dp2162
g10
g1
(g11
g12
(dtRp2163
sg14
g1
(g11
g12
(dtRp2164
sg16
g1
(g11
g12
(dtRp2165
sg18
g1
(g11
g12
(dtRp2166
sg20
g1
(g11
g12
(dtRp2167
sg22
g1
(g11
g12
(dtRp2168
sbsg24
g25
sg26
g27
((lp2169
g33
ag32
ag29
ag30
atRp2170
sg37
(lp2171
g1
(g2
g3
NtRp2172
(dp2173
g6
g1
(g7
g3
NtRp2174
(dp2175
g10
g1
(g11
g12
(dtRp2176
sg14
g1
(g11
g12
(dtRp2177
sg16
g1
(g11
g12
(dtRp2178
sg18
g1
(g11
g12
(dtRp2179
sg20
g1
(g11
g12
(dtRp2180
sg22
g1
(g11
g12
(dtRp2181
sbsg24
S'Cdu'
p2182
sg26
g27
((lp2183
g29
ag30
aS'sequence'
p2184
ag32
ag33
aS'species'
p2185
atRp2186
sg37
(lp2187
sg120
g2159
sg121
S'RWLSTKDLYSRLELPGLNQNVHAMFVMPLGFGNPMGDMFARLNNSFWLPPLSLEGAGTGWTVYPPLSHSGPSVDLAFHLTSSLLGAINFTNMRGPLYWTALLLLSLPVLAGTLLDRNFNTFEGGDPLYHLFWFFGHPEVYIIPGFGSHSTYKKFGMYASIGLGFVWSHHMYVGLDDRAYFTSATMIAPTGIKFSWLATYGGRPMLAFLFLFTGGTGVLNASDAFHDTYYVVHFHYVLSMGAFSLGYYYWPGLYNLYWFNFPMHFLGGMPRRPYPDAGWNSGSSYQLGPDESNEPH'
p2188
sg123
F0.025069999999999999
sg124
g125
sg33
S'98'
p2189
sg126
g1
(g127
g12
(dp2190
g129
I4
sg130
g131
sg132
g133
sg134
g131
sg135
I01
sg34
g136
sg137
g133
sg138
I0
sg139
I0
sg140
I0
sg141
g133
sg35
g131
sg142
I0
stRp2191
sg144
g145
sg146
F1
sg147
Nsg30
S'CdublA'
p2192
sbag1
(g2
g3
NtRp2193
(dp2194
g6
g1
(g7
g3
NtRp2195
(dp2196
g10
g1
(g11
g12
(dtRp2197
sg14
g1
(g11
g12
(dtRp2198
sg16
g1
(g11
g12
(dtRp2199
sg18
g1
(g11
g12
(dtRp2200
sg20
g1
(g11
g12
(dtRp2201
sg22
g1
(g11
g12
(dtRp2202
sbsg24
g25
sg26
g27
((lp2203
g33
ag32
ag29
ag30
atRp2204
sg37
(lp2205
g1
(g2
g3
NtRp2206
(dp2207
g6
g1
(g7
g3
NtRp2208
(dp2209
g10
g1
(g11
g12
(dtRp2210
sg14
g1
(g11
g12
(dtRp2211
sg16
g1
(g11
g12
(dtRp2212
sg18
g1
(g11
g12
(dtRp2213
sg20
g1
(g11
g12
(dtRp2214
sg22
g1
(g11
g12
(dtRp2215
sbsg24
g25
sg26
g27
((lp2216
g33
ag32
ag29
ag30
atRp2217
sg37
(lp2218
g1
(g2
g3
NtRp2219
(dp2220
g6
g1
(g7
g3
NtRp2221
(dp2222
g10
g1
(g11
g12
(dtRp2223
sg14
g1
(g11
g12
(dtRp2224
sg16
g1
(g11
g12
(dtRp2225
sg18
g1
(g11
g12
(dtRp2226
sg20
g1
(g11
g12
(dtRp2227
sg22
g1
(g11
g12
(dtRp2228
sbsg24
g25
sg26
g27
((lp2229
g33
ag32
ag29
ag30
atRp2230
sg37
(lp2231
g1
(g2
g3
NtRp2232
(dp2233
g6
g1
(g7
g3
NtRp2234
(dp2235
g10
g1
(g11
g12
(dtRp2236
sg14
g1
(g11
g12
(dtRp2237
sg16
g1
(g11
g12
(dtRp2238
sg18
g1
(g11
g12
(dtRp2239
sg20
g1
(g11
g12
(dtRp2240
sg22
g1
(g11
g12
(dtRp2241
sbsg24
g25
sg26
g27
((lp2242
g33
ag32
ag29
ag30
atRp2243
sg37
(lp2244
g1
(g2
g3
NtRp2245
(dp2246
g6
g1
(g7
g3
NtRp2247
(dp2248
g10
g1
(g11
g12
(dtRp2249
sg14
g1
(g11
g12
(dtRp2250
sg16
g1
(g11
g12
(dtRp2251
sg18
g1
(g11
g12
(dtRp2252
sg20
g1
(g11
g12
(dtRp2253
sg22
g1
(g11
g12
(dtRp2254
sbsg24
S'Cal'
p2255
sg26
g27
((lp2256
g29
ag30
aS'sequence'
p2257
ag32
ag33
aS'species'
p2258
atRp2259
sg37
(lp2260
sg120
g2232
sg121
S'RWLSTKDLYSRLELPGLNQNVHAMFVMPLGFGNPMGDMFARLNNSFWLPPLSLEGAGTGWTVYPPLSHSGPSVDLAFHLTSSLLGAINFTNMRGPLFWTALLLLSLPVLAGTLLDRNFNTFEGGDPLYHLFWFFGHPEVYIIPGFGSHSTYKKFGMYASIGLGFVWSHHMYVGLDDRAYFTSATMIAPTGIKFSWLATYGGRPMLAFLFLFTGGTGVLNASDAFHDTYYVVHFHYVLSMGAFSLGYYYWPGLYNLYWFNFPMHFLGGMPRRPYPDAGWNSGSSYQLGPDESNEPH'
p2261
sg123
F0.00025000000000000001
sg124
g125
sg33
S'150'
p2262
sg126
g1
(g127
g12
(dp2263
g129
I4
sg130
g131
sg132
g133
sg134
g131
sg135
I01
sg34
g136
sg137
g133
sg138
I0
sg139
I0
sg140
I0
sg141
g133
sg35
g131
sg142
I0
stRp2264
sg144
g145
sg146
F1
sg147
Nsg30
S'CalbiE'
p2265
sbag1
(g2
g3
NtRp2266
(dp2267
g6
g1
(g7
g3
NtRp2268
(dp2269
g10
g1
(g11
g12
(dtRp2270
sg14
g1
(g11
g12
(dtRp2271
sg16
g1
(g11
g12
(dtRp2272
sg18
g1
(g11
g12
(dtRp2273
sg20
g1
(g11
g12
(dtRp2274
sg22
g1
(g11
g12
(dtRp2275
sbsg24
S'Cal'
p2276
sg26
g27
((lp2277
g29
ag30
aS'sequence'
p2278
ag32
ag33
aS'species'
p2279
atRp2280
sg37
(lp2281
sg120
g2232
sg121
S'RWLSTKDLYSRLELPGLNQNVHAMFVMPLGFGNPMGDMFARLNNSFWLPPLSLEGAGTGWTVYPPLSHSGPSVDLAFHLTSSLLGAINFTNMRGPLFWTALLLLSLPVLAGTLLDRNFNTFEGGDPLYHLFWFFGHPEVYIIPGFGSHSTYKKFGMYASIGLGFVWSHHMYVGLDDRAYFTSATMIAPTGIKFSWLATYGGRPMLAFLFLFTGGTGVLNASDAFHDTYYVVHFHYVLSMGAFSLGYYYWPGLYNLYWFNFPMHFLGGMPRRPYPDAGWNSGSSYQLGPDESNEPH'
p2282
sg123
F0.00050000000000000001
sg124
g125
sg33
S'164'
p2283
sg126
g1
(g127
g12
(dp2284
g129
I4
sg130
g131
sg132
g133
sg134
g131
sg135
I01
sg34
g136
sg137
g133
sg138
I0
sg139
I0
sg140
I0
sg141
g133
sg35
g131
sg142
I0
stRp2285
sg144
g145
sg146
F1
sg147
Nsg30
S'CalbiD'
p2286
sbasg120
g2219
sg123
F0.00051999999999999995
sg124
g125
sg33
S'129'
p2287
sg126
g1
(g127
g12
(dp2288
g129
I8
sg130
g131
sg132
g133
sg134
g131
sg135
I01
sg34
g171
sg137
g133
sg138
I0
sg139
I0
sg140
I0
sg141
g133
sg35
g131
sg142
I0
stRp2289
sg144
g145
sg146
F0.73999999999999999
sg147
Nsg30
S'NoName'
p2290
sbag1
(g2
g3
NtRp2291
(dp2292
g6
g1
(g7
g3
NtRp2293
(dp2294
g10
g1
(g11
g12
(dtRp2295
sg14
g1
(g11
g12
(dtRp2296
sg16
g1
(g11
g12
(dtRp2297
sg18
g1
(g11
g12
(dtRp2298
sg20
g1
(g11
g12
(dtRp2299
sg22
g1
(g11
g12
(dtRp2300
sbsg24
S'Cal'
p2301
sg26
g27
((lp2302
g29
ag30
aS'sequence'
p2303
ag32
ag33
aS'species'
p2304
atRp2305
sg37
(lp2306
sg120
g2219
sg121
S'RWLSTKDLYSRLELPGLNQNVHAMFVMPLGFGNPMGDMFARLNNSFWLPPLSLEGAGTGWTVYPPLSHSGPSVDLAFHLTSSLLGAINFTNMRGPLFWTALLLLSLPVLAGTLLDRNFNTFEGGDPLYHLFWFFGHPEVYIIPGFGSHSTYKKFGMYASIGLGFVWSHHMYVGLDDRAYFTSATMIAPTGIKFSWLATYGGRPMLAFLFLFTGGTGVLNASDAFHDTYYVVHFHYVLSMGAFSLGYYYWPGLYNLYWFNFPMHFLGGMPRRPYPDAGWNSGSSYQLGPDESNEPH'
p2307
sg123
F0.00012
sg124
g125
sg33
S'174'
p2308
sg126
g1
(g127
g12
(dp2309
g129
I4
sg130
g131
sg132
g133
sg134
g131
sg135
I01
sg34
g136
sg137
g133
sg138
I0
sg139
I0
sg140
I0
sg141
g133
sg35
g131
sg142
I0
stRp2310
sg144
g145
sg146
F1
sg147
Nsg30
S'CalbiC'
p2311
sbasg120
g2206
sg123
F1.0000000000000001e-05
sg124
g125
sg33
S'118'
p2312
sg126
g1
(g127
g12
(dp2313
g129
I8
sg130
g131
sg132
g133
sg134
g131
sg135
I01
sg34
g171
sg137
g133
sg138
I0
sg139
I0
sg140
I0
sg141
g133
sg35
g131
sg142
I0
stRp2314
sg144
g145
sg146
F1
sg147
Nsg30
S'NoName'
p2315
sbag1
(g2
g3
NtRp2316
(dp2317
g6
g1
(g7
g3
NtRp2318
(dp2319
g10
g1
(g11
g12
(dtRp2320
sg14
g1
(g11
g12
(dtRp2321
sg16
g1
(g11
g12
(dtRp2322
sg18
g1
(g11
g12
(dtRp2323
sg20
g1
(g11
g12
(dtRp2324
sg22
g1
(g11
g12
(dtRp2325
sbsg24
S'Cal'
p2326
sg26
g27
((lp2327
g29
ag30
aS'sequence'
p2328
ag32
ag33
aS'species'
p2329
atRp2330
sg37
(lp2331
sg120
g2206
sg121
S'RWLSTKDLYSRLELPGLNQNVHAMFVMPLGFGNPMGDMFARLNNSFWLPPLSLEGAGTGWTVYPPLSHSGPSVDLAFHLTSSLLGAINFTNMRGPLFWTALLLLSLPVLAGTLLDRNFNTFEGGDPLYHLFWFFGHPEVYIIPGFGSHSTYKKFGMYASIGLGFVWSHHMYVGLDDRAYFTSATMIAPTGIKFSWLATYGGRPMLAFLFLFTGGTGVLNASDAFHDTYYVVHFHYVLSMGAFSLGYYYWPGLYNLYWFNFPMHFLGGMPRRPYPDAGWNSGSSYQLGPDESNEPH'
p2332
sg123
F0.00016000000000000001
sg124
g125
sg33
S'184'
p2333
sg126
g1
(g127
g12
(dp2334
g129
I4
sg130
g131
sg132
g133
sg134
g131
sg135
I01
sg34
g136
sg137
g133
sg138
I0
sg139
I0
sg140
I0
sg141
g133
sg35
g131
sg142
I0
stRp2335
sg144
g145
sg146
F1
sg147
Nsg30
S'CalbiB'
p2336
sbasg120
g2193
sg123
F1.0000000000000001e-05
sg124
g125
sg33
S'109'
p2337
sg126
g1
(g127
g12
(dp2338
g129
I8
sg130
g131
sg132
g133
sg134
g131
sg135
I01
sg34
g171
sg137
g133
sg138
I0
sg139
I0
sg140
I0
sg141
g133
sg35
g131
sg142
I0
stRp2339
sg144
g145
sg146
F1
sg147
Nsg30
S'NoName'
p2340
sbag1
(g2
g3
NtRp2341
(dp2342
g6
g1
(g7
g3
NtRp2343
(dp2344
g10
g1
(g11
g12
(dtRp2345
sg14
g1
(g11
g12
(dtRp2346
sg16
g1
(g11
g12
(dtRp2347
sg18
g1
(g11
g12
(dtRp2348
sg20
g1
(g11
g12
(dtRp2349
sg22
g1
(g11
g12
(dtRp2350
sbsg24
S'Cal'
p2351
sg26
g27
((lp2352
g29
ag30
aS'sequence'
p2353
ag32
ag33
aS'species'
p2354
atRp2355
sg37
(lp2356
sg120
g2193
sg121
S'RWLSTKDLYSRLELPGLNQNVHAMFVMPLGFGNPMGDMFARLNNSFWLPPLSLEGAGTGWTVYPPLSHSGPSVDLAFHLTSSLLGAINFTNMRGPLFWTALLLLSLPVLAGTLLDRNFNTFEGGDPLYHLFWFFGHPEVYIIPGFGSHSTYKKFGMYASIGLGFVWSHHMYVGLDDRAYFTSATMIAPTGIKFSWLATYGGRPMLAFLFLFTGGTGVLNASDAFHDTYYVVHFHYVLSMGAFSLGYYYWPGLYNLYWFNFPMHFLGGMPRRPYPDAGWNSGSSYQLGPDESNEPH'
p2357
sg123
F0.00013999999999999999
sg124
g125
sg33
S'194'
p2358
sg126
g1
(g127
g12
(dp2359
g129
I4
sg130
g131
sg132
g133
sg134
g131
sg135
I01
sg34
g136
sg137
g133
sg138
I0
sg139
I0
sg140
I0
sg141
g133
sg35
g131
sg142
I0
stRp2360
sg144
g145
sg146
F1
sg147
Nsg30
S'CalbiA'
p2361
sbasg120
g2159
sg123
F0.014959999999999999
sg124
g125
sg33
S'86'
p2362
sg126
g1
(g127
g12
(dp2363
g129
I8
sg130
g131
sg132
g133
sg134
g131
sg135
I01
sg34
g171
sg137
g133
sg138
I0
sg139
I0
sg140
I0
sg141
g133
sg35
g131
sg142
I0
stRp2364
sg144
g145
sg146
F0.98999999999999999
sg147
Nsg30
S'NoName'
p2365
sbasg120
g2087
sg123
F0.05287
sg124
g125
sg33
S'56'
p2366
sg126
g1
(g127
g12
(dp2367
g129
I8
sg130
g131
sg132
g133
sg134
g131
sg135
I01
sg34
g171
sg137
g133
sg138
I0
sg139
I0
sg140
I0
sg141
g133
sg35
g131
sg142
I0
stRp2368
sg144
g145
sg146
F0.98999999999999999
sg147
Nsg30
S'NoName'
p2369
sbasg120
g1712
sg123
F0.037499999999999999
sg124
g125
sg33
S'14'
p2370
sg126
g1
(g127
g12
(dp2371
g129
I8
sg130
g131
sg132
g133
sg134
g131
sg135
I01
sg34
g171
sg137
g133
sg138
I0
sg139
I0
sg140
I0
sg141
g133
sg35
g131
sg142
I0
stRp2372
sg144
g145
sg146
F0.98999999999999999
sg147
Nsg30
S'NoName'
p2373
sbasg120
g995
sg123
F0.10766000000000001
sg124
g125
sg33
S'17'
p2374
sg126
g1
(g127
g12
(dp2375
g129
I8
sg130
g131
sg132
g133
sg134
g131
sg135
I01
sg34
g171
sg137
g133
sg138
I0
sg139
I0
sg140
I0
sg141
g133
sg35
g131
sg142
I0
stRp2376
sg144
g145
sg146
F0.98999999999999999
sg147
Nsg30
S'NoName'
p2377
sbasg120
g961
sg123
F0.093560000000000004
sg124
g125
sg33
S'84'
p2378
sg126
g1
(g127
g12
(dp2379
g129
I8
sg130
g131
sg132
g133
sg134
g131
sg135
I01
sg34
g171
sg137
g133
sg138
I0
sg139
I0
sg140
I0
sg141
g133
sg35
g131
sg142
I0
stRp2380
sg144
g145
sg146
F0.97999999999999998
sg147
Nsg30
S'NoName'
p2381
sbasg120
g948
sg123
F0.036760000000000001
sg124
g125
sg33
S'82'
p2382
sg126
g1
(g127
g12
(dp2383
g129
I8
sg130
g131
sg132
g133
sg134
g131
sg135
I01
sg34
g171
sg137
g133
sg138
I0
sg139
I0
sg140
I0
sg141
g133
sg35
g131
sg142
I0
stRp2384
sg144
g145
sg146
F0.97999999999999998
sg147
Nsg30
S'NoName'
p2385
sbag1
(g2
g3
NtRp2386
(dp2387
g6
g1
(g7
g3
NtRp2388
(dp2389
g10
g1
(g11
g12
(dtRp2390
sg14
g1
(g11
g12
(dtRp2391
sg16
g1
(g11
g12
(dtRp2392
sg18
g1
(g11
g12
(dtRp2393
sg20
g1
(g11
g12
(dtRp2394
sg22
g1
(g11
g12
(dtRp2395
sbsg24
g25
sg26
g27
((lp2396
g33
ag32
ag29
ag30
atRp2397
sg37
(lp2398
g1
(g2
g3
NtRp2399
(dp2400
g6
g1
(g7
g3
NtRp2401
(dp2402
g10
g1
(g11
g12
(dtRp2403
sg14
g1
(g11
g12
(dtRp2404
sg16
g1
(g11
g12
(dtRp2405
sg18
g1
(g11
g12
(dtRp2406
sg20
g1
(g11
g12
(dtRp2407
sg22
g1
(g11
g12
(dtRp2408
sbsg24
g25
sg26
g27
((lp2409
g33
ag32
ag29
ag30
atRp2410
sg37
(lp2411
g1
(g2
g3
NtRp2412
(dp2413
g6
g1
(g7
g3
NtRp2414
(dp2415
g10
g1
(g11
g12
(dtRp2416
sg14
g1
(g11
g12
(dtRp2417
sg16
g1
(g11
g12
(dtRp2418
sg18
g1
(g11
g12
(dtRp2419
sg20
g1
(g11
g12
(dtRp2420
sg22
g1
(g11
g12
(dtRp2421
sbsg24
S'Csu'
p2422
sg26
g27
((lp2423
g29
ag30
aS'sequence'
p2424
ag32
ag33
aS'species'
p2425
atRp2426
sg37
(lp2427
sg120
g2399
sg121
S'RWLSTKDLYSRMELPGLNQNVHAMFIMPLGLGNPLGDMFARLNNSFWLPPLSLEGAGTGWTVYPPLSHSGPSVDLAFHLTSSLLGAINFTNMRGPLYWTALLLLSLPVLAATLLDRNFNTFEGGDPLYHLFWFFGHPEVYIIPGFGSHSTYKKFGMYASIGLGFVWSHHMFVGLDDRAYFTSATMIAPTGVKFSWLATYGGRPMLAFLFLFTGGTGVINASDAFHDTYYIVHFHYVLSMGAFSLGFYYWPGLYNLFWFNFPMHFLGGMPRRPYPDAGWNSGSAYQLGPDESNEPH'
p2428
sg123
F0.00012999999999999999
sg124
g125
sg33
S'110'
p2429
sg126
g1
(g127
g12
(dp2430
g129
I4
sg130
g131
sg132
g133
sg134
g131
sg135
I01
sg34
g136
sg137
g133
sg138
I0
sg139
I0
sg140
I0
sg141
g133
sg35
g131
sg142
I0
stRp2431
sg144
g145
sg146
F1
sg147
Nsg30
S'CsubhB'
p2432
sbag1
(g2
g3
NtRp2433
(dp2434
g6
g1
(g7
g3
NtRp2435
(dp2436
g10
g1
(g11
g12
(dtRp2437
sg14
g1
(g11
g12
(dtRp2438
sg16
g1
(g11
g12
(dtRp2439
sg18
g1
(g11
g12
(dtRp2440
sg20
g1
(g11
g12
(dtRp2441
sg22
g1
(g11
g12
(dtRp2442
sbsg24
S'Csu'
p2443
sg26
g27
((lp2444
g29
ag30
aS'sequence'
p2445
ag32
ag33
aS'species'
p2446
atRp2447
sg37
(lp2448
sg120
g2399
sg121
S'RWLSTKDLYSRMELPGLNQNVHAMFIMPLGLGNPLGDMFARLNNSFWLPPLSLEGAGTGWTVYPPLSHSGPSVDLAFHLTSSLLGAINFTNMRGPLYWTALLLLSLPVLAATLLDRNFNTFEGGDPLYHLFWFFGHPEVYIIPGFGSHSTYKKFGMYASIGLGFVWSHHMFVGLDDRAYFTSATMIAPTGVKFSWLATYGGRPMLAFLFLFTGGTGVINASDAFHDTYYIVHFHYVLSMGAFSLGFYYWPGLYNLFWFNFPMHFLGGMPRRPYPDAGWNSGSAYQLGPDESNEPH'
p2449
sg123
F0.00013999999999999999
sg124
g125
sg33
S'112'
p2450
sg126
g1
(g127
g12
(dp2451
g129
I4
sg130
g131
sg132
g133
sg134
g131
sg135
I01
sg34
g136
sg137
g133
sg138
I0
sg139
I0
sg140
I0
sg141
g133
sg35
g131
sg142
I0
stRp2452
sg144
g145
sg146
F1
sg147
Nsg30
S'CsubhA'
p2453
sbasg120
g2386
sg123
F0.59348999999999996
sg124
g125
sg33
S'206'
p2454
sg126
g1
(g127
g12
(dp2455
g129
I8
sg130
g131
sg132
g133
sg134
g131
sg135
I01
sg34
g171
sg137
g133
sg138
I0
sg139
I0
sg140
I0
sg141
g133
sg35
g131
sg142
I0
stRp2456
sg144
g145
sg146
F1
sg147
Nsg30
S'NoName'
p2457
sbag1
(g2
g3
NtRp2458
(dp2459
g6
g1
(g7
g3
NtRp2460
(dp2461
g10
g1
(g11
g12
(dtRp2462
sg14
g1
(g11
g12
(dtRp2463
sg16
g1
(g11
g12
(dtRp2464
sg18
g1
(g11
g12
(dtRp2465
sg20
g1
(g11
g12
(dtRp2466
sg22
g1
(g11
g12
(dtRp2467
sbsg24
S'Cal'
p2468
sg26
g27
((lp2469
g29
ag30
aS'sequence'
p2470
ag32
ag33
aS'species'
p2471
atRp2472
sg37
(lp2473
sg120
g2386
sg121
S'RWLSTKDLYSRMELPGLNQNVHAMFVMPLGFGNPLGDMFARLNNSFWLPPLSLDGPGTGWTVYPPLSHSGASVDFAFHLTSSLLGAINFTNMRGPLFWTALLLLSLPVLVATLLDRNFNTFEGGDPLYHLFWFFGHPEVYMIPGFGSHSTYKKFGMYASIGLGFVWSHHMFVGLDDRAYFTSATMMAPTGIKFSWMATYGGYPMLAFLFLFTGGTGVINASDAFHDTYYIVHFHYVLSMGAFSLGYYYWPGLYNLFWFNFPMHFLGGMPRRPYPDAGWNSGSAYQLGPDESNEPH'
p2474
sg123
F0.40044000000000002
sg124
g125
sg33
S'114'
p2475
sg126
g1
(g127
g12
(dp2476
g129
I4
sg130
g131
sg132
g133
sg134
g131
sg135
I01
sg34
g136
sg137
g133
sg138
I0
sg139
I0
sg140
I0
sg141
g133
sg35
g131
sg142
I0
stRp2477
sg144
g145
sg146
F1
sg147
Nsg30
S'CalaiA'
p2478
sbasg120
g948
sg123
F0.080810000000000007
sg124
g125
sg33
S'139'
p2479
sg126
g1
(g127
g12
(dp2480
g129
I8
sg130
g131
sg132
g133
sg134
g131
sg135
I01
sg34
g171
sg137
g133
sg138
I0
sg139
I0
sg140
I0
sg141
g133
sg35
g131
sg142
I0
stRp2481
sg144
g145
sg146
F0.98999999999999999
sg147
Nsg30
S'NoName'
p2482
sbasg120
g686
sg123
F0.075389999999999999
sg124
g125
sg33
S'77'
p2483
sg126
g1
(g127
g12
(dp2484
g129
I8
sg130
g131
sg132
g133
sg134
g131
sg135
I01
sg34
g171
sg137
g133
sg138
I0
sg139
I0
sg140
I0
sg141
g133
sg35
g131
sg142
I0
stRp2485
sg144
g145
sg146
F0.94999999999999996
sg147
Nsg30
S'NoName'
p2486
sbasg120
g673
sg123
F1.2542500000000001
sg124
g125
sg33
S'58'
p2487
sg126
g1
(g127
g12
(dp2488
g129
I8
sg130
g131
sg132
g133
sg134
g131
sg135
I01
sg34
g171
sg137
g133
sg138
I0
sg139
I0
sg140
I0
sg141
g133
sg35
g131
sg142
I0
stRp2489
sg144
g145
sg146
F0.97999999999999998
sg147
Nsg30
S'NoName'
p2490
sbag1
(g2
g3
NtRp2491
(dp2492
g6
g1
(g7
g3
NtRp2493
(dp2494
g10
g1
(g11
g12
(dtRp2495
sg14
g1
(g11
g12
(dtRp2496
sg16
g1
(g11
g12
(dtRp2497
sg18
g1
(g11
g12
(dtRp2498
sg20
g1
(g11
g12
(dtRp2499
sg22
g1
(g11
g12
(dtRp2500
sbsg24
g25
sg26
g27
((lp2501
g33
ag32
ag29
ag30
atRp2502
sg37
(lp2503
g1
(g2
g3
NtRp2504
(dp2505
g6
g1
(g7
g3
NtRp2506
(dp2507
g10
g1
(g11
g12
(dtRp2508
sg14
g1
(g11
g12
(dtRp2509
sg16
g1
(g11
g12
(dtRp2510
sg18
g1
(g11
g12
(dtRp2511
sg20
g1
(g11
g12
(dtRp2512
sg22
g1
(g11
g12
(dtRp2513
sbsg24
g25
sg26
g27
((lp2514
g33
ag32
ag29
ag30
atRp2515
sg37
(lp2516
g1
(g2
g3
NtRp2517
(dp2518
g6
g1
(g7
g3
NtRp2519
(dp2520
g10
g1
(g11
g12
(dtRp2521
sg14
g1
(g11
g12
(dtRp2522
sg16
g1
(g11
g12
(dtRp2523
sg18
g1
(g11
g12
(dtRp2524
sg20
g1
(g11
g12
(dtRp2525
sg22
g1
(g11
g12
(dtRp2526
sbsg24
S'Ppa'
p2527
sg26
g27
((lp2528
g29
ag30
aS'sequence'
p2529
ag32
ag33
aS'species'
p2530
atRp2531
sg37
(lp2532
sg120
g2504
sg121
S'RWLSTKDLYSRLELPGLNQNVHAMFVMPAGFGNPMGDMFARLNNSFWLPPLSLEGAGTGWTVYPPLAHSGPSVDLAFHLTSSLLGAMNFTNMRGPLFWTSLLLLSLPVLAGTLLDRNFNTFEGGDPLYHLFWFFGHPEVYIMPGFGSHSTYKKFGMYASIGLGLVWSHHMYVGLDDRAYFTSATMMAPTGMKFSWLATYGGRPMLAFLFLFTGGSGVLNASDAFHDTYYVIHFHYVLSLGAFSLGYYYWPGLYNLFWFNFPMHFLGGMPRRPYPDAGWNSGSSYQLGPDESNDPH'
p2533
sg123
F0.16184999999999999
sg124
g125
sg33
S'119'
p2534
sg126
g1
(g127
g12
(dp2535
g129
I4
sg130
g131
sg132
g133
sg134
g131
sg135
I01
sg34
g136
sg137
g133
sg138
I0
sg139
I0
sg140
I0
sg141
g133
sg35
g131
sg142
I0
stRp2536
sg144
g145
sg146
F1
sg147
Nsg30
S'PpastA'
p2537
sbag1
(g2
g3
NtRp2538
(dp2539
g6
g1
(g7
g3
NtRp2540
(dp2541
g10
g1
(g11
g12
(dtRp2542
sg14
g1
(g11
g12
(dtRp2543
sg16
g1
(g11
g12
(dtRp2544
sg18
g1
(g11
g12
(dtRp2545
sg20
g1
(g11
g12
(dtRp2546
sg22
g1
(g11
g12
(dtRp2547
sbsg24
g25
sg26
g27
((lp2548
g33
ag32
ag29
ag30
atRp2549
sg37
(lp2550
g1
(g2
g3
NtRp2551
(dp2552
g6
g1
(g7
g3
NtRp2553
(dp2554
g10
g1
(g11
g12
(dtRp2555
sg14
g1
(g11
g12
(dtRp2556
sg16
g1
(g11
g12
(dtRp2557
sg18
g1
(g11
g12
(dtRp2558
sg20
g1
(g11
g12
(dtRp2559
sg22
g1
(g11
g12
(dtRp2560
sbsg24
S'Pta'
p2561
sg26
g27
((lp2562
g29
ag30
aS'sequence'
p2563
ag32
ag33
aS'species'
p2564
atRp2565
sg37
(lp2566
sg120
g2538
sg121
S'RWLSTKDLYSRLELPGLNQNVHAMFVMPAGFGNPMGDMFARLNNSFWLPPLSLEGAGTGWTVYPPLSHSGPSVDLAFHLTSSLLGGMNFTNMRGPLFWTSLLVLTLPVLAGTLLDRNFNTFEGGDPLYHLFWFFGHPEVYIIPGFGSHSAYKKFGMYASIGLGLVWSHHMYVGLDDRAYFTSATMIAPTGIKFSWLATYGGRPMLAFLFLFTGGSGVLNASDAFHDTYYVMHFHYVLSLGAFSLGYYYWPGLYNLFWFNFPMHFLGGMPRRPYPDAGFNSGSSYQLGPDESNEPH'
p2567
sg123
F0.23080999999999999
sg124
g125
sg33
S'123'
p2568
sg126
g1
(g127
g12
(dp2569
g129
I4
sg130
g131
sg132
g133
sg134
g131
sg135
I01
sg34
g136
sg137
g133
sg138
I0
sg139
I0
sg140
I0
sg141
g133
sg35
g131
sg142
I0
stRp2570
sg144
g145
sg146
F1
sg147
Nsg30
S'PtannA'
p2571
sbag1
(g2
g3
NtRp2572
(dp2573
g6
g1
(g7
g3
NtRp2574
(dp2575
g10
g1
(g11
g12
(dtRp2576
sg14
g1
(g11
g12
(dtRp2577
sg16
g1
(g11
g12
(dtRp2578
sg18
g1
(g11
g12
(dtRp2579
sg20
g1
(g11
g12
(dtRp2580
sg22
g1
(g11
g12
(dtRp2581
sbsg24
g25
sg26
g27
((lp2582
g33
ag32
ag29
ag30
atRp2583
sg37
(lp2584
g1
(g2
g3
NtRp2585
(dp2586
g6
g1
(g7
g3
NtRp2587
(dp2588
g10
g1
(g11
g12
(dtRp2589
sg14
g1
(g11
g12
(dtRp2590
sg16
g1
(g11
g12
(dtRp2591
sg18
g1
(g11
g12
(dtRp2592
sg20
g1
(g11
g12
(dtRp2593
sg22
g1
(g11
g12
(dtRp2594
sbsg24
g25
sg26
g27
((lp2595
g33
ag32
ag29
ag30
atRp2596
sg37
(lp2597
g1
(g2
g3
NtRp2598
(dp2599
g6
g1
(g7
g3
NtRp2600
(dp2601
g10
g1
(g11
g12
(dtRp2602
sg14
g1
(g11
g12
(dtRp2603
sg16
g1
(g11
g12
(dtRp2604
sg18
g1
(g11
g12
(dtRp2605
sg20
g1
(g11
g12
(dtRp2606
sg22
g1
(g11
g12
(dtRp2607
sbsg24
S'Pkl'
p2608
sg26
g27
((lp2609
g29
ag30
aS'sequence'
p2610
ag32
ag33
aS'species'
p2611
atRp2612
sg37
(lp2613
sg120
g2585
sg121
S'RWLSTKDLYSRLELPGLNQNVHAMFMMPTGFGNPMGDMFARLNNSFWLPPLSLEGPGTGWTVYPPLSHSGPSVDLAFHLTSSLLGAMNFTNMRGPLFWTALLVMTLPVLAGTLLDRNFNTFEGGDPLYHLFWFFGHPEVYMMPGFGSHSTYKKFGMYASMGLGLVWSHHMYVGLDDRAYFTSATMMAPTGMKFSWLATYGGRPMLAFMFIFTGGSGVLNASDAFHDTYYVMHFHYVLSLGAFAMGYYYWPGLFNLFWFNFPMHFLGGMPRRPYPDAGFNSGASYQLGPDESNEPH'
p2614
sg123
F0.12625
sg124
g125
sg33
S'128'
p2615
sg126
g1
(g127
g12
(dp2616
g129
I4
sg130
g131
sg132
g133
sg134
g131
sg135
I01
sg34
g136
sg137
g133
sg138
I0
sg139
I0
sg140
I0
sg141
g133
sg35
g131
sg142
I0
stRp2617
sg144
g145
sg146
F1
sg147
Nsg30
S'PkluyA'
p2618
sbag1
(g2
g3
NtRp2619
(dp2620
g6
g1
(g7
g3
NtRp2621
(dp2622
g10
g1
(g11
g12
(dtRp2623
sg14
g1
(g11
g12
(dtRp2624
sg16
g1
(g11
g12
(dtRp2625
sg18
g1
(g11
g12
(dtRp2626
sg20
g1
(g11
g12
(dtRp2627
sg22
g1
(g11
g12
(dtRp2628
sbsg24
S'Bcu'
p2629
sg26
g27
((lp2630
g29
ag30
aS'sequence'
p2631
ag32
ag33
aS'species'
p2632
atRp2633
sg37
(lp2634
sg120
g2585
sg121
S'RWLSTKDLYSRLELPGLDQNVHSMFMMPTGFGNPMGDMFARLNNAFWYPPLSLEGPGTGWTVYPPLSHSGPSMDLAFHLTSSMLSSMNFTNMRGPLFWTALLMMTLPVLAGTLLDRNFNTFEGGDPLYHLYWFFGHPEVYIIPVFGSHSNYKKFGMYASMGLGLVWSHHMYVGLDDRAYFTSATMIAPTGIKFSWLATYGGRPMLAFLFMFTGGSGVLNASDAFHDTYFVVHFHYVLSLGVYGVGYYFWPGLYNMFWFNFPMHFLGGMPRRPYPDAGFNSGSAYQLGPDESNEPH'
p2635
sg123
F0.30854999999999999
sg124
g125
sg33
S'130'
p2636
sg126
g1
(g127
g12
(dp2637
g129
I4
sg130
g131
sg132
g133
sg134
g131
sg135
I01
sg34
g136
sg137
g133
sg138
I0
sg139
I0
sg140
I0
sg141
g133
sg35
g131
sg142
I0
stRp2638
sg144
g145
sg146
F1
sg147
Nsg30
S'BcustA'
p2639
sbasg120
g2572
sg123
F0.19120999999999999
sg124
g125
sg33
S'124'
p2640
sg126
g1
(g127
g12
(dp2641
g129
I8
sg130
g131
sg132
g133
sg134
g131
sg135
I01
sg34
g171
sg137
g133
sg138
I0
sg139
I0
sg140
I0
sg141
g133
sg35
g131
sg142
I0
stRp2642
sg144
g145
sg146
F0.98999999999999999
sg147
Nsg30
S'NoName'
p2643
sbag1
(g2
g3
NtRp2644
(dp2645
g6
g1
(g7
g3
NtRp2646
(dp2647
g10
g1
(g11
g12
(dtRp2648
sg14
g1
(g11
g12
(dtRp2649
sg16
g1
(g11
g12
(dtRp2650
sg18
g1
(g11
g12
(dtRp2651
sg20
g1
(g11
g12
(dtRp2652
sg22
g1
(g11
g12
(dtRp2653
sbsg24
S'Oan'
p2654
sg26
g27
((lp2655
g29
ag30
aS'sequence'
p2656
ag32
ag33
aS'species'
p2657
atRp2658
sg37
(lp2659
sg120
g2572
sg121
S'RWLSTKDLYSRLELPGLNQNAHAMFVMPAGFGNPMGDMFARLNNSFWLPPLSLEGAGTGWTVYPPLSHSGPSVDLAFHLTSSLLGAINFTNMRGPLFWTALLLLSLPVLAGTLLDRNFNTFEGGDPLYHLFWFFGHPEVYIIPGFGSHSTYKKFGMYASIGLGLVWSHHMYVGLDDRAYFTSATMIAPTGIKFSWIATYGGRPMLAFLFLFTGGSGVLNASDAFHDTYYVIHFHYVLSLGAFSLGYYYWPGLYNLFWFNFPMHFLGGMPRRPYPDAGYNSGSSYQLGPDESNEPH'
p2660
sg123
F0.025399999999999999
sg124
g125
sg33
S'131'
p2661
sg126
g1
(g127
g12
(dp2662
g129
I4
sg130
g131
sg132
g133
sg134
g131
sg135
I01
sg34
g136
sg137
g133
sg138
I0
sg139
I0
sg140
I0
sg141
g133
sg35
g131
sg142
I0
stRp2663
sg144
g145
sg146
F1
sg147
Nsg30
S'OanguA'
p2664
sbasg120
g2538
sg123
F0.33273999999999998
sg124
g125
sg33
S'121'
p2665
sg126
g1
(g127
g12
(dp2666
g129
I8
sg130
g131
sg132
g133
sg134
g131
sg135
I01
sg34
g171
sg137
g133
sg138
I0
sg139
I0
sg140
I0
sg141
g133
sg35
g131
sg142
I0
stRp2667
sg144
g145
sg146
F0.98999999999999999
sg147
Nsg30
S'NoName'
p2668
sbasg120
g2504
sg123
F0.054379999999999998
sg124
g125
sg33
S'117'
p2669
sg126
g1
(g127
g12
(dp2670
g129
I8
sg130
g131
sg132
g133
sg134
g131
sg135
I01
sg34
g171
sg137
g133
sg138
I0
sg139
I0
sg140
I0
sg141
g133
sg35
g131
sg142
I0
stRp2671
sg144
g145
sg146
F0.96999999999999997
sg147
Nsg30
S'NoName'
p2672
sbasg120
g2491
sg123
F0.76378000000000001
sg124
g125
sg33
S'116'
p2673
sg126
g1
(g127
g12
(dp2674
g129
I8
sg130
g131
sg132
g133
sg134
g131
sg135
I01
sg34
g171
sg137
g133
sg138
I0
sg139
I0
sg140
I0
sg141
g133
sg35
g131
sg142
I0
stRp2675
sg144
g145
sg146
F0.98999999999999999
sg147
Nsg30
S'NoName'
p2676
sbag1
(g2
g3
NtRp2677
(dp2678
g6
g1
(g7
g3
NtRp2679
(dp2680
g10
g1
(g11
g12
(dtRp2681
sg14
g1
(g11
g12
(dtRp2682
sg16
g1
(g11
g12
(dtRp2683
sg18
g1
(g11
g12
(dtRp2684
sg20
g1
(g11
g12
(dtRp2685
sg22
g1
(g11
g12
(dtRp2686
sbsg24
g25
sg26
g27
((lp2687
g33
ag32
ag29
ag30
atRp2688
sg37
(lp2689
g1
(g2
g3
NtRp2690
(dp2691
g6
g1
(g7
g3
NtRp2692
(dp2693
g10
g1
(g11
g12
(dtRp2694
sg14
g1
(g11
g12
(dtRp2695
sg16
g1
(g11
g12
(dtRp2696
sg18
g1
(g11
g12
(dtRp2697
sg20
g1
(g11
g12
(dtRp2698
sg22
g1
(g11
g12
(dtRp2699
sbsg24
g25
sg26
g27
((lp2700
g33
ag32
ag29
ag30
atRp2701
sg37
(lp2702
g1
(g2
g3
NtRp2703
(dp2704
g6
g1
(g7
g3
NtRp2705
(dp2706
g10
g1
(g11
g12
(dtRp2707
sg14
g1
(g11
g12
(dtRp2708
sg16
g1
(g11
g12
(dtRp2709
sg18
g1
(g11
g12
(dtRp2710
sg20
g1
(g11
g12
(dtRp2711
sg22
g1
(g11
g12
(dtRp2712
sbsg24
g25
sg26
g27
((lp2713
g33
ag32
ag29
ag30
atRp2714
sg37
(lp2715
g1
(g2
g3
NtRp2716
(dp2717
g6
g1
(g7
g3
NtRp2718
(dp2719
g10
g1
(g11
g12
(dtRp2720
sg14
g1
(g11
g12
(dtRp2721
sg16
g1
(g11
g12
(dtRp2722
sg18
g1
(g11
g12
(dtRp2723
sg20
g1
(g11
g12
(dtRp2724
sg22
g1
(g11
g12
(dtRp2725
sbsg24
g25
sg26
g27
((lp2726
g33
ag32
ag29
ag30
atRp2727
sg37
(lp2728
g1
(g2
g3
NtRp2729
(dp2730
g6
g1
(g7
g3
NtRp2731
(dp2732
g10
g1
(g11
g12
(dtRp2733
sg14
g1
(g11
g12
(dtRp2734
sg16
g1
(g11
g12
(dtRp2735
sg18
g1
(g11
g12
(dtRp2736
sg20
g1
(g11
g12
(dtRp2737
sg22
g1
(g11
g12
(dtRp2738
sbsg24
S'Cva'
p2739
sg26
g27
((lp2740
g29
ag30
aS'sequence'
p2741
ag32
ag33
aS'species'
p2742
atRp2743
sg37
(lp2744
sg120
g2716
sg121
S'RWLSTKDLYSRLELPGLNQNVHAMFVMPLGFGNPLGDMFARLNNSFWLPPLSLEGAGTGWTIYPPLSHSSPSVDLGFHLTSSLLGAINFTNMRGPLFWTAMLLLSLPVLAGTLLDRNFNTFEGGDPLYHLFWFFGHPEVYIIPGFGSHSTYKKFGMYASIALGFVWSHHMYVGLDDRAYFTSSTMIAPTGIKFSWLATYGGRPMLAFLFLFTGGTGVLNASDAFHDTYYVVHFHYVLSMGAFSLGYYYWPGLYNLFWFNFPMHFLGGMPRRPYPDAGWNSGSSYQLGPDESNEPH'
p2745
sg123
F0.043270000000000003
sg124
g125
sg33
S'140'
p2746
sg126
g1
(g127
g12
(dp2747
g129
I4
sg130
g131
sg132
g133
sg134
g131
sg135
I01
sg34
g136
sg137
g133
sg138
I0
sg139
I0
sg140
I0
sg141
g133
sg35
g131
sg142
I0
stRp2748
sg144
g145
sg146
F1
sg147
Nsg30
S'CvartA'
p2749
sbag1
(g2
g3
NtRp2750
(dp2751
g6
g1
(g7
g3
NtRp2752
(dp2753
g10
g1
(g11
g12
(dtRp2754
sg14
g1
(g11
g12
(dtRp2755
sg16
g1
(g11
g12
(dtRp2756
sg18
g1
(g11
g12
(dtRp2757
sg20
g1
(g11
g12
(dtRp2758
sg22
g1
(g11
g12
(dtRp2759
sbsg24
g25
sg26
g27
((lp2760
g33
ag32
ag29
ag30
atRp2761
sg37
(lp2762
g1
(g2
g3
NtRp2763
(dp2764
g6
g1
(g7
g3
NtRp2765
(dp2766
g10
g1
(g11
g12
(dtRp2767
sg14
g1
(g11
g12
(dtRp2768
sg16
g1
(g11
g12
(dtRp2769
sg18
g1
(g11
g12
(dtRp2770
sg20
g1
(g11
g12
(dtRp2771
sg22
g1
(g11
g12
(dtRp2772
sbsg24
S'Csu'
p2773
sg26
g27
((lp2774
g29
ag30
aS'sequence'
p2775
ag32
ag33
aS'species'
p2776
atRp2777
sg37
(lp2778
sg120
g2750
sg121
S'RWLSTKDLYSRLELPGLNQNVHAMFVMPLGFGNPLGDMFARLNNSFWLPPLSLEGAGTGWTIYPPLSHSSPSVDLGFHLTSSMLGAINFTNMRGPLFWTAMLLLSLPVLAGTLLDRNFNTFEGGDPLYHLFWFFGHPEVYIIPGFGSHSTYKKFGMYASIALGFVWSHHMYVGLDDRAYFTSSTMIAPTGIKFSWLATYGGRPMLAFLFLFTGGTGVLNASDAFHDSYYY-HFHYVLSMGAFSLGYYYWPGLYNLFWFNFPMHFLGGMPRRPYPDAGWNSGSSYQLGPDESNEPH'
p2779
sg123
F0.0043699999999999998
sg124
g125
sg33
S'144'
p2780
sg126
g1
(g127
g12
(dp2781
g129
I4
sg130
g131
sg132
g133
sg134
g131
sg135
I01
sg34
g136
sg137
g133
sg138
I0
sg139
I0
sg140
I0
sg141
g133
sg35
g131
sg142
I0
stRp2782
sg144
g145
sg146
F1
sg147
Nsg30
S'CsuavB'
p2783
sbag1
(g2
g3
NtRp2784
(dp2785
g6
g1
(g7
g3
NtRp2786
(dp2787
g10
g1
(g11
g12
(dtRp2788
sg14
g1
(g11
g12
(dtRp2789
sg16
g1
(g11
g12
(dtRp2790
sg18
g1
(g11
g12
(dtRp2791
sg20
g1
(g11
g12
(dtRp2792
sg22
g1
(g11
g12
(dtRp2793
sbsg24
S'Csu'
p2794
sg26
g27
((lp2795
g29
ag30
aS'sequence'
p2796
ag32
ag33
aS'species'
p2797
atRp2798
sg37
(lp2799
sg120
g2750
sg121
S'RWLSTKDLYSRLELPGLNQNVHAMFVMPLGFGNPLGDMFARLNNSFWLPPLSLEGAGTGWTIYPPLSHSSPSVDLGFHLTSSLLGAINFTNMRGPLFWTAMLLLSLPVLAGTLLDRNFNTFEGGDPLYHLFWFFGHPEVYIIPGFGSHSTYKKFGMYASIALGFVWSHHMYVGLDDRAYFTSSTMIAPTGIKFSWLATYGGRPMLAFLFLFTGGTGVLNASDAFHDTYYVVHFHYVLSMGAFSLGYYYWPGLYNLFWFNFPMHFLGGMPRRPYPDAGWNSGSSYQLGPDESNEPH'
p2800
sg123
F0.0025999999999999999
sg124
g125
sg33
S'146'
p2801
sg126
g1
(g127
g12
(dp2802
g129
I4
sg130
g131
sg132
g133
sg134
g131
sg135
I01
sg34
g136
sg137
g133
sg138
I0
sg139
I0
sg140
I0
sg141
g133
sg35
g131
sg142
I0
stRp2803
sg144
g145
sg146
F1
sg147
Nsg30
S'CsuavA'
p2804
sbasg120
g2716
sg123
F0.016740000000000001
sg124
g125
sg33
S'205'
p2805
sg126
g1
(g127
g12
(dp2806
g129
I8
sg130
g131
sg132
g133
sg134
g131
sg135
I01
sg34
g171
sg137
g133
sg138
I0
sg139
I0
sg140
I0
sg141
g133
sg35
g131
sg142
I0
stRp2807
sg144
g145
sg146
F0.98999999999999999
sg147
Nsg30
S'NoName'
p2808
sbasg120
g2703
sg123
F0.01158
sg124
g125
sg33
S'137'
p2809
sg126
g1
(g127
g12
(dp2810
g129
I8
sg130
g131
sg132
g133
sg134
g131
sg135
I01
sg34
g171
sg137
g133
sg138
I0
sg139
I0
sg140
I0
sg141
g133
sg35
g131
sg142
I0
stRp2811
sg144
g145
sg146
F0.97999999999999998
sg147
Nsg30
S'NoName'
p2812
sbag1
(g2
g3
NtRp2813
(dp2814
g6
g1
(g7
g3
NtRp2815
(dp2816
g10
g1
(g11
g12
(dtRp2817
sg14
g1
(g11
g12
(dtRp2818
sg16
g1
(g11
g12
(dtRp2819
sg18
g1
(g11
g12
(dtRp2820
sg20
g1
(g11
g12
(dtRp2821
sg22
g1
(g11
g12
(dtRp2822
sbsg24
S'Cja'
p2823
sg26
g27
((lp2824
g29
ag30
aS'sequence'
p2825
ag32
ag33
aS'species'
p2826
atRp2827
sg37
(lp2828
sg120
g2703
sg121
S'RWLSTKDLYSRLELPGLNQNVHAMFVMPLGFGNPLGDMFARLNNSFWLPPLSLEGAGTGWTIYPPLAHSSPSVDLGFHLTSSLLGAINFTNMRGPLFWTAMLLLSLPVLAGTLLDRNFNTFEGGDPLYHLFWFFGHPEVYIIPGFGSHSTYKKFGMYASIALGFVWSHHMYVGLDDRAYFTSSTMIAPTGIKFSWLATYGGRPMLAFLFLFTGGTGVLNASDAFHDTYYVVHFHYVLSMGAFSLGYYYWPGLYNLFWFNFPMHFLGGMPRRPYPDAGWNSGSSYQLGPDESNEPH'
p2829
sg123
F0.033799999999999997
sg124
g125
sg33
S'148'
p2830
sg126
g1
(g127
g12
(dp2831
g129
I4
sg130
g131
sg132
g133
sg134
g131
sg135
I01
sg34
g136
sg137
g133
sg138
I0
sg139
I0
sg140
I0
sg141
g133
sg35
g131
sg142
I0
stRp2832
sg144
g145
sg146
F1
sg147
Nsg30
S'CjadiA'
p2833
sbasg120
g2690
sg123
F0.10375
sg124
g125
sg33
S'135'
p2834
sg126
g1
(g127
g12
(dp2835
g129
I8
sg130
g131
sg132
g133
sg134
g131
sg135
I01
sg34
g171
sg137
g133
sg138
I0
sg139
I0
sg140
I0
sg141
g133
sg35
g131
sg142
I0
stRp2836
sg144
g145
sg146
F0.98999999999999999
sg147
Nsg30
S'NoName'
p2837
sbag1
(g2
g3
NtRp2838
(dp2839
g6
g1
(g7
g3
NtRp2840
(dp2841
g10
g1
(g11
g12
(dtRp2842
sg14
g1
(g11
g12
(dtRp2843
sg16
g1
(g11
g12
(dtRp2844
sg18
g1
(g11
g12
(dtRp2845
sg20
g1
(g11
g12
(dtRp2846
sg22
g1
(g11
g12
(dtRp2847
sbsg24
g25
sg26
g27
((lp2848
g33
ag32
ag29
ag30
atRp2849
sg37
(lp2850
g1
(g2
g3
NtRp2851
(dp2852
g6
g1
(g7
g3
NtRp2853
(dp2854
g10
g1
(g11
g12
(dtRp2855
sg14
g1
(g11
g12
(dtRp2856
sg16
g1
(g11
g12
(dtRp2857
sg18
g1
(g11
g12
(dtRp2858
sg20
g1
(g11
g12
(dtRp2859
sg22
g1
(g11
g12
(dtRp2860
sbsg24
g25
sg26
g27
((lp2861
g33
ag32
ag29
ag30
atRp2862
sg37
(lp2863
g1
(g2
g3
NtRp2864
(dp2865
g6
g1
(g7
g3
NtRp2866
(dp2867
g10
g1
(g11
g12
(dtRp2868
sg14
g1
(g11
g12
(dtRp2869
sg16
g1
(g11
g12
(dtRp2870
sg18
g1
(g11
g12
(dtRp2871
sg20
g1
(g11
g12
(dtRp2872
sg22
g1
(g11
g12
(dtRp2873
sbsg24
S'Wpi'
p2874
sg26
g27
((lp2875
g29
ag30
aS'sequence'
p2876
ag32
ag33
aS'species'
p2877
atRp2878
sg37
(lp2879
sg120
g2851
sg121
S'RWLSTKDLYSRLELPGLNQNVHAMFVMPLGFGNPLGDMFARLNNSFWLPPLSLEGAGTGWTIYPPLSHSSPSVDLGFHLTSSLLGAINFTNMRGPLFWTAMLLLSLPVLAGTLLDRNFNTFEGGDPLYHLFWFFGHPEVYIIPGFGSHSTYKKFGMYASIALGFVWSHHMYVGLDDRAYFTSSTMIAPTGIKFSWLATYGGRPMLAFLFLFTGGTGVLNASDAFHDTYYVVHFHYVLSMGAFSLGYYYWPGLYNLFWFNFPMHFLGGMPRRPYPDAGWNSGSSFQLGPDESNEPH'
p2880
sg123
F0.051209999999999999
sg124
g125
sg33
S'153'
p2881
sg126
g1
(g127
g12
(dp2882
g129
I4
sg130
g131
sg132
g133
sg134
g131
sg135
I01
sg34
g136
sg137
g133
sg138
I0
sg139
I0
sg140
I0
sg141
g133
sg35
g131
sg142
I0
stRp2883
sg144
g145
sg146
F1
sg147
Nsg30
S'WpijpA'
p2884
sbag1
(g2
g3
NtRp2885
(dp2886
g6
g1
(g7
g3
NtRp2887
(dp2888
g10
g1
(g11
g12
(dtRp2889
sg14
g1
(g11
g12
(dtRp2890
sg16
g1
(g11
g12
(dtRp2891
sg18
g1
(g11
g12
(dtRp2892
sg20
g1
(g11
g12
(dtRp2893
sg22
g1
(g11
g12
(dtRp2894
sbsg24
S'Wmu'
p2895
sg26
g27
((lp2896
g29
ag30
aS'sequence'
p2897
ag32
ag33
aS'species'
p2898
atRp2899
sg37
(lp2900
sg120
g2851
sg121
S'RWLSTKDLYSRLELPGLNQNVHAMFVMPLGFGNPLGDMFARLNNSFWLPPLSLEGAGTGWTIYPPLAHSSPSVDLGFHLTSSLLGAINFTNMRGPLFWTAMLLLSLPVLAGTLLDRNFNTFEGGDPLYHLFWFFGHPEVYIIPGFGSHSTYKKFGMYASIALGFVWSHHMYVGLDDRAYFTSSTMIAPTGIKFSWLATYGGRPMLAFLFLFTGGTGVLNASDAFHDTYYVVHFHYVLSMGAFSLGYYYWPGLYNLFWFNFPMHFLGGMPRRPYPDAGWNSGSSYQLGPDESNEPH'
p2901
sg123
F0.079170000000000004
sg124
g125
sg33
S'156'
p2902
sg126
g1
(g127
g12
(dp2903
g129
I4
sg130
g131
sg132
g133
sg134
g131
sg135
I01
sg34
g136
sg137
g133
sg138
I0
sg139
I0
sg140
I0
sg141
g133
sg35
g131
sg142
I0
stRp2904
sg144
g145
sg146
F1
sg147
Nsg30
S'WmucoA'
p2905
sbasg120
g2838
sg123
F0.14757000000000001
sg124
g125
sg33
S'149'
p2906
sg126
g1
(g127
g12
(dp2907
g129
I8
sg130
g131
sg132
g133
sg134
g131
sg135
I01
sg34
g171
sg137
g133
sg138
I0
sg139
I0
sg140
I0
sg141
g133
sg35
g131
sg142
I0
stRp2908
sg144
g145
sg146
F0.98999999999999999
sg147
Nsg30
S'NoName'
p2909
sbag1
(g2
g3
NtRp2910
(dp2911
g6
g1
(g7
g3
NtRp2912
(dp2913
g10
g1
(g11
g12
(dtRp2914
sg14
g1
(g11
g12
(dtRp2915
sg16
g1
(g11
g12
(dtRp2916
sg18
g1
(g11
g12
(dtRp2917
sg20
g1
(g11
g12
(dtRp2918
sg22
g1
(g11
g12
(dtRp2919
sbsg24
g25
sg26
g27
((lp2920
g33
ag32
ag29
ag30
atRp2921
sg37
(lp2922
g1
(g2
g3
NtRp2923
(dp2924
g6
g1
(g7
g3
NtRp2925
(dp2926
g10
g1
(g11
g12
(dtRp2927
sg14
g1
(g11
g12
(dtRp2928
sg16
g1
(g11
g12
(dtRp2929
sg18
g1
(g11
g12
(dtRp2930
sg20
g1
(g11
g12
(dtRp2931
sg22
g1
(g11
g12
(dtRp2932
sbsg24
S'Pca'
p2933
sg26
g27
((lp2934
g29
ag30
aS'sequence'
p2935
ag32
ag33
aS'species'
p2936
atRp2937
sg37
(lp2938
sg120
g2910
sg121
S'RWLSTKDLYSRLELPGLNQNVHAMFVMPLGFGNPLGDMFARLNNSFWLPPLSLEWAGTGWTIYPPLSHSSPSVDLGFHLTSSLLGAINFTNMRGPLFWTAMLLLSLPVLAGTLLDRNFNTFEGGDPLYHLFWFFGHPEVYIIPGFGSHSTYKKFGMYASIALGFVWSHHMYVGLDDRAYFTSSTMIAPTGIKFSWLATYGGRPMLAFLFLFTGGTGVLNASDAFHDTYYVVHFHYVLSMGAFSLGYYYWPGLFNLFWFNFPMHFLGGMPRRPYPDAGWNSGSSYQLGPDESNEPH'
p2939
sg123
F0.10655000000000001
sg124
g125
sg33
S'161'
p2940
sg126
g1
(g127
g12
(dp2941
g129
I4
sg130
g131
sg132
g133
sg134
g131
sg135
I01
sg34
g136
sg137
g133
sg138
I0
sg139
I0
sg140
I0
sg141
g133
sg35
g131
sg142
I0
stRp2942
sg144
g145
sg146
F1
sg147
Nsg30
S'PcanaA'
p2943
sbag1
(g2
g3
NtRp2944
(dp2945
g6
g1
(g7
g3
NtRp2946
(dp2947
g10
g1
(g11
g12
(dtRp2948
sg14
g1
(g11
g12
(dtRp2949
sg16
g1
(g11
g12
(dtRp2950
sg18
g1
(g11
g12
(dtRp2951
sg20
g1
(g11
g12
(dtRp2952
sg22
g1
(g11
g12
(dtRp2953
sbsg24
g25
sg26
g27
((lp2954
g33
ag32
ag29
ag30
atRp2955
sg37
(lp2956
g1
(g2
g3
NtRp2957
(dp2958
g6
g1
(g7
g3
NtRp2959
(dp2960
g10
g1
(g11
g12
(dtRp2961
sg14
g1
(g11
g12
(dtRp2962
sg16
g1
(g11
g12
(dtRp2963
sg18
g1
(g11
g12
(dtRp2964
sg20
g1
(g11
g12
(dtRp2965
sg22
g1
(g11
g12
(dtRp2966
sbsg24
S'Cno'
p2967
sg26
g27
((lp2968
g29
ag30
aS'sequence'
p2969
ag32
ag33
aS'species'
p2970
atRp2971
sg37
(lp2972
sg120
g2944
sg121
S'RWLSTKDLYSRLELPGLNQNVHAMFVMPLGFGNPLGDMFARLNNSFWLPPLSLEGAGTGWTIYPPLSHSSPSVDLGFHLTSSLLGAMNFTNMRGPLFWTAMLLLSLPVLAGTLLDRNFNTFEGGDPLYHLFWFFGHPEVYMIPGFGSHSTYKKFGMYASMALGFVWSHHMYVGLDDRAYFTSSTMMAPTGMKFSWLATYGGRPMLAFLFLFTGGTGVLNASDAFHDTYYVVHFHYVLSMGAFSLGYYYWPGLYNLFWFNFPMHFLGGMPRRPYPDAGWNSGSSYQLGPDESNEPH'
p2973
sg123
F0.059069999999999998
sg124
g125
sg33
S'165'
p2974
sg126
g1
(g127
g12
(dp2975
g129
I4
sg130
g131
sg132
g133
sg134
g131
sg135
I01
sg34
g136
sg137
g133
sg138
I0
sg139
I0
sg140
I0
sg141
g133
sg35
g131
sg142
I0
stRp2976
sg144
g145
sg146
F1
sg147
Nsg30
S'CnorvA'
p2977
sbag1
(g2
g3
NtRp2978
(dp2979
g6
g1
(g7
g3
NtRp2980
(dp2981
g10
g1
(g11
g12
(dtRp2982
sg14
g1
(g11
g12
(dtRp2983
sg16
g1
(g11
g12
(dtRp2984
sg18
g1
(g11
g12
(dtRp2985
sg20
g1
(g11
g12
(dtRp2986
sg22
g1
(g11
g12
(dtRp2987
sbsg24
S'Bca'
p2988
sg26
g27
((lp2989
g29
ag30
aS'sequence'
p2990
ag32
ag33
aS'species'
p2991
atRp2992
sg37
(lp2993
sg120
g2944
sg121
S'RWLSTKDLYSRLELPGLNQNVHAMFVMPLGFGNPLGDMFARLNNSFWLPPLSLEGAGTGWTIYPPLSHSSPSVDLGFHLTSSLLGAINFTNMRGPLFWTAMLLLSLPVLAGTLLDRNFNTFEGGDPLYHLFWFFGHPEVYIMPGFGSHSTYKKFGMYASIALGFVWSHHMYVGLDDRAYFTSSTMIAPTGIKFSWLATYGGRPMLAFLFLFTGGTGVLNASDAFHDTYYVVHFHYVLSMGAFSLGYYYWPGLYNLFWFNFPMHFLGGMPRRPYPDAGWNSGSSYQLGPDESNEPH'
p2994
sg123
F0.031899999999999998
sg124
g125
sg33
S'166'
p2995
sg126
g1
(g127
g12
(dp2996
g129
I4
sg130
g131
sg132
g133
sg134
g131
sg135
I01
sg34
g136
sg137
g133
sg138
I0
sg139
I0
sg140
I0
sg141
g133
sg35
g131
sg142
I0
stRp2997
sg144
g145
sg146
F1
sg147
Nsg30
S'BcaliA'
p2998
sbasg120
g2910
sg123
F0.09486
sg124
g125
sg33
S'158'
p2999
sg126
g1
(g127
g12
(dp3000
g129
I8
sg130
g131
sg132
g133
sg134
g131
sg135
I01
sg34
g171
sg137
g133
sg138
I0
sg139
I0
sg140
I0
sg141
g133
sg35
g131
sg142
I0
stRp3001
sg144
g145
sg146
F0.97999999999999998
sg147
Nsg30
S'NoName'
p3002
sbasg120
g2838
sg123
F0.054690000000000003
sg124
g125
sg33
S'151'
p3003
sg126
g1
(g127
g12
(dp3004
g129
I8
sg130
g131
sg132
g133
sg134
g131
sg135
I01
sg34
g171
sg137
g133
sg138
I0
sg139
I0
sg140
I0
sg141
g133
sg35
g131
sg142
I0
stRp3005
sg144
g145
sg146
F0.96999999999999997
sg147
Nsg30
S'NoName'
p3006
sbasg120
g2690
sg123
F0.051860000000000003
sg124
g125
sg33
S'141'
p3007
sg126
g1
(g127
g12
(dp3008
g129
I8
sg130
g131
sg132
g133
sg134
g131
sg135
I01
sg34
g171
sg137
g133
sg138
I0
sg139
I0
sg140
I0
sg141
g133
sg35
g131
sg142
I0
stRp3009
sg144
g145
sg146
F0.96999999999999997
sg147
Nsg30
S'NoName'
p3010
sbasg120
g2677
sg123
F0.52095999999999998
sg124
g125
sg33
S'134'
p3011
sg126
g1
(g127
g12
(dp3012
g129
I8
sg130
g131
sg132
g133
sg134
g131
sg135
I01
sg34
g171
sg137
g133
sg138
I0
sg139
I0
sg140
I0
sg141
g133
sg35
g131
sg142
I0
stRp3013
sg144
g145
sg146
F0.98999999999999999
sg147
Nsg30
S'NoName'
p3014
sbag1
(g2
g3
NtRp3015
(dp3016
g6
g1
(g7
g3
NtRp3017
(dp3018
g10
g1
(g11
g12
(dtRp3019
sg14
g1
(g11
g12
(dtRp3020
sg16
g1
(g11
g12
(dtRp3021
sg18
g1
(g11
g12
(dtRp3022
sg20
g1
(g11
g12
(dtRp3023
sg22
g1
(g11
g12
(dtRp3024
sbsg24
g25
sg26
g27
((lp3025
g33
ag32
ag29
ag30
atRp3026
sg37
(lp3027
g1
(g2
g3
NtRp3028
(dp3029
g6
g1
(g7
g3
NtRp3030
(dp3031
g10
g1
(g11
g12
(dtRp3032
sg14
g1
(g11
g12
(dtRp3033
sg16
g1
(g11
g12
(dtRp3034
sg18
g1
(g11
g12
(dtRp3035
sg20
g1
(g11
g12
(dtRp3036
sg22
g1
(g11
g12
(dtRp3037
sbsg24
g25
sg26
g27
((lp3038
g33
ag32
ag29
ag30
atRp3039
sg37
(lp3040
g1
(g2
g3
NtRp3041
(dp3042
g6
g1
(g7
g3
NtRp3043
(dp3044
g10
g1
(g11
g12
(dtRp3045
sg14
g1
(g11
g12
(dtRp3046
sg16
g1
(g11
g12
(dtRp3047
sg18
g1
(g11
g12
(dtRp3048
sg20
g1
(g11
g12
(dtRp3049
sg22
g1
(g11
g12
(dtRp3050
sbsg24
g25
sg26
g27
((lp3051
g33
ag32
ag29
ag30
atRp3052
sg37
(lp3053
g1
(g2
g3
NtRp3054
(dp3055
g6
g1
(g7
g3
NtRp3056
(dp3057
g10
g1
(g11
g12
(dtRp3058
sg14
g1
(g11
g12
(dtRp3059
sg16
g1
(g11
g12
(dtRp3060
sg18
g1
(g11
g12
(dtRp3061
sg20
g1
(g11
g12
(dtRp3062
sg22
g1
(g11
g12
(dtRp3063
sbsg24
g25
sg26
g27
((lp3064
g33
ag32
ag29
ag30
atRp3065
sg37
(lp3066
g1
(g2
g3
NtRp3067
(dp3068
g6
g1
(g7
g3
NtRp3069
(dp3070
g10
g1
(g11
g12
(dtRp3071
sg14
g1
(g11
g12
(dtRp3072
sg16
g1
(g11
g12
(dtRp3073
sg18
g1
(g11
g12
(dtRp3074
sg20
g1
(g11
g12
(dtRp3075
sg22
g1
(g11
g12
(dtRp3076
sbsg24
g25
sg26
g27
((lp3077
g33
ag32
ag29
ag30
atRp3078
sg37
(lp3079
g1
(g2
g3
NtRp3080
(dp3081
g6
g1
(g7
g3
NtRp3082
(dp3083
g10
g1
(g11
g12
(dtRp3084
sg14
g1
(g11
g12
(dtRp3085
sg16
g1
(g11
g12
(dtRp3086
sg18
g1
(g11
g12
(dtRp3087
sg20
g1
(g11
g12
(dtRp3088
sg22
g1
(g11
g12
(dtRp3089
sbsg24
g25
sg26
g27
((lp3090
g33
ag32
ag29
ag30
atRp3091
sg37
(lp3092
g1
(g2
g3
NtRp3093
(dp3094
g6
g1
(g7
g3
NtRp3095
(dp3096
g10
g1
(g11
g12
(dtRp3097
sg14
g1
(g11
g12
(dtRp3098
sg16
g1
(g11
g12
(dtRp3099
sg18
g1
(g11
g12
(dtRp3100
sg20
g1
(g11
g12
(dtRp3101
sg22
g1
(g11
g12
(dtRp3102
sbsg24
S'Lkl'
p3103
sg26
g27
((lp3104
g29
ag30
aS'sequence'
p3105
ag32
ag33
aS'species'
p3106
atRp3107
sg37
(lp3108
sg120
g3080
sg121
S'RWLSTKDLYSRLELPGLNQNVHAMFVMPLGFGNPMGDMFARLNNSFWLPPLSLEGAGTGWTVYPPLSHSGPSVDLAFHLTSSLLGAINFTNMRGPLFWTALLLLSLPVLAGTLLDRNFNTFEGGDPLYHLFWFFGHPEVYIIPGFGSHSTYKKFGMYASIGLGFVWSHHMYVGLDDRAYFLSATMIAPTGIKFSWLATYGGRPMLAFLFLFTGGTGVLNASDAFHDLYYVVHFHYVLSMGAFSLGYYYWPGLYNLFWFNFPMHFLGGMPRRPYPDAGWNSGSSYQLGPDESNEPH'
p3109
sg123
F0.00044999999999999999
sg124
g125
sg33
S'179'
p3110
sg126
g1
(g127
g12
(dp3111
g129
I4
sg130
g131
sg132
g133
sg134
g131
sg135
I01
sg34
g136
sg137
g133
sg138
I0
sg139
I0
sg140
I0
sg141
g133
sg35
g131
sg142
I0
stRp3112
sg144
g145
sg146
F1
sg147
Nsg30
S'LkluyE'
p3113
sbag1
(g2
g3
NtRp3114
(dp3115
g6
g1
(g7
g3
NtRp3116
(dp3117
g10
g1
(g11
g12
(dtRp3118
sg14
g1
(g11
g12
(dtRp3119
sg16
g1
(g11
g12
(dtRp3120
sg18
g1
(g11
g12
(dtRp3121
sg20
g1
(g11
g12
(dtRp3122
sg22
g1
(g11
g12
(dtRp3123
sbsg24
S'Lkl'
p3124
sg26
g27
((lp3125
g29
ag30
aS'sequence'
p3126
ag32
ag33
aS'species'
p3127
atRp3128
sg37
(lp3129
sg120
g3080
sg121
S'RWLSTKDLYSRLELPGLNQNVHAMFVMPLGFGNPMGDMFARLNNSFWLPPLSLEGAGTGWTVYPPLSHSGPSVDLAFHLTSSLLGAINFTNMRGPLFWTALLLLSLPVLAGTLLDRNFNTFEGGDPLYHLFWFFGHPEVYIIPGFGSHSTYKKFGMYASIGLGFVWSHHMYVGLDDRAYFLSATMIAPTGIKFSWLATYGGRPMLAFLFLFTGGTGVLNASDAFHDLYYVVHFHYVLSMGAFSLGYYYWPGLYNLFWFNFPMHFLGGMPRRPYPDAGWNSGSSYQLGPDESNEPH'
p3130
sg123
F0.0077400000000000004
sg124
g125
sg33
S'180'
p3131
sg126
g1
(g127
g12
(dp3132
g129
I4
sg130
g131
sg132
g133
sg134
g131
sg135
I01
sg34
g136
sg137
g133
sg138
I0
sg139
I0
sg140
I0
sg141
g133
sg35
g131
sg142
I0
stRp3133
sg144
g145
sg146
F1
sg147
Nsg30
S'LkluyD'
p3134
sbasg120
g3067
sg123
F0.0017099999999999999
sg124
g125
sg33
S'176'
p3135
sg126
g1
(g127
g12
(dp3136
g129
I8
sg130
g131
sg132
g133
sg134
g131
sg135
I01
sg34
g171
sg137
g133
sg138
I0
sg139
I0
sg140
I0
sg141
g133
sg35
g131
sg142
I0
stRp3137
sg144
g145
sg146
F0.56000000000000005
sg147
Nsg30
S'NoName'
p3138
sbag1
(g2
g3
NtRp3139
(dp3140
g6
g1
(g7
g3
NtRp3141
(dp3142
g10
g1
(g11
g12
(dtRp3143
sg14
g1
(g11
g12
(dtRp3144
sg16
g1
(g11
g12
(dtRp3145
sg18
g1
(g11
g12
(dtRp3146
sg20
g1
(g11
g12
(dtRp3147
sg22
g1
(g11
g12
(dtRp3148
sbsg24
g25
sg26
g27
((lp3149
g33
ag32
ag29
ag30
atRp3150
sg37
(lp3151
g1
(g2
g3
NtRp3152
(dp3153
g6
g1
(g7
g3
NtRp3154
(dp3155
g10
g1
(g11
g12
(dtRp3156
sg14
g1
(g11
g12
(dtRp3157
sg16
g1
(g11
g12
(dtRp3158
sg18
g1
(g11
g12
(dtRp3159
sg20
g1
(g11
g12
(dtRp3160
sg22
g1
(g11
g12
(dtRp3161
sbsg24
g25
sg26
g27
((lp3162
g33
ag32
ag29
ag30
atRp3163
sg37
(lp3164
g1
(g2
g3
NtRp3165
(dp3166
g6
g1
(g7
g3
NtRp3167
(dp3168
g10
g1
(g11
g12
(dtRp3169
sg14
g1
(g11
g12
(dtRp3170
sg16
g1
(g11
g12
(dtRp3171
sg18
g1
(g11
g12
(dtRp3172
sg20
g1
(g11
g12
(dtRp3173
sg22
g1
(g11
g12
(dtRp3174
sbsg24
g25
sg26
g27
((lp3175
g33
ag32
ag29
ag30
atRp3176
sg37
(lp3177
g1
(g2
g3
NtRp3178
(dp3179
g6
g1
(g7
g3
NtRp3180
(dp3181
g10
g1
(g11
g12
(dtRp3182
sg14
g1
(g11
g12
(dtRp3183
sg16
g1
(g11
g12
(dtRp3184
sg18
g1
(g11
g12
(dtRp3185
sg20
g1
(g11
g12
(dtRp3186
sg22
g1
(g11
g12
(dtRp3187
sbsg24
S'Lkl'
p3188
sg26
g27
((lp3189
g29
ag30
aS'sequence'
p3190
ag32
ag33
aS'species'
p3191
atRp3192
sg37
(lp3193
sg120
g3165
sg121
S'RWLSTKDLYSRLELPGLNQNVHAMFVMPLGFGNPMGDMFARLNNSFWLPPLSLEGAGTGWTVYPPLSHSGPSVDLAFHLTSSLLGAINFTNMRGPLFWTALLLLSLPVLAGTLLDRNFNTFEGGDPLYHLFWFFGHPEVYIIPGFGSHSTYKKFGMYASIGLGFVWSHHMYVGLDDRAYFLSATMIAPTGIKFSWLATYGGRPMLAFLFLFTGGTGVLNASDAFHDLYYVVHFHYVLSMGAFSLGYYYWPGLYNLFWFNFPMHFLGGMPRRPYPDAGWNSGSSYQLGPDESNEPH'
p3194
sg123
F0.00038999999999999999
sg124
g125
sg33
S'186'
p3195
sg126
g1
(g127
g12
(dp3196
g129
I4
sg130
g131
sg132
g133
sg134
g131
sg135
I01
sg34
g136
sg137
g133
sg138
I0
sg139
I0
sg140
I0
sg141
g133
sg35
g131
sg142
I0
stRp3197
sg144
g145
sg146
F1
sg147
Nsg30
S'LkluyF'
p3198
sbag1
(g2
g3
NtRp3199
(dp3200
g6
g1
(g7
g3
NtRp3201
(dp3202
g10
g1
(g11
g12
(dtRp3203
sg14
g1
(g11
g12
(dtRp3204
sg16
g1
(g11
g12
(dtRp3205
sg18
g1
(g11
g12
(dtRp3206
sg20
g1
(g11
g12
(dtRp3207
sg22
g1
(g11
g12
(dtRp3208
sbsg24
S'Lkl'
p3209
sg26
g27
((lp3210
g29
ag30
aS'sequence'
p3211
ag32
ag33
aS'species'
p3212
atRp3213
sg37
(lp3214
sg120
g3165
sg121
S'RWLSTKDLYSRLELPGLNQNVHAMFVMPLGFGNPMGDMFARLNNSFWLPPLSLEGAGTGWTVYPPLSHSGPSVDLAFHLTSSLLGAINFTNMRGPLFWTALLLLSLPVLAGTLLDRNFNTFEGGDPLYHLFWFFGHPEVYIIPGFGSHSTYKKFGMYASIGLGFVWSHHMYVGLDDRAYFLSATMIAPTGIKFSWLATYGGRPMLAFLFLFTGGTGVLNASDAFHDLYYVVHFHYVLSMGAFSLGYYYWPGLYNLFWFNFPMHFLGGMPRRPYPDAGWNSGSSYQLGPDESNEPH'
p3215
sg123
F0.00038000000000000002
sg124
g125
sg33
S'188'
p3216
sg126
g1
(g127
g12
(dp3217
g129
I4
sg130
g131
sg132
g133
sg134
g131
sg135
I01
sg34
g136
sg137
g133
sg138
I0
sg139
I0
sg140
I0
sg141
g133
sg35
g131
sg142
I0
stRp3218
sg144
g145
sg146
F1
sg147
Nsg30
S'LkluyC'
p3219
sbasg120
g3152
sg123
F1.0000000000000001e-05
sg124
g125
sg33
S'183'
p3220
sg126
g1
(g127
g12
(dp3221
g129
I8
sg130
g131
sg132
g133
sg134
g131
sg135
I01
sg34
g171
sg137
g133
sg138
I0
sg139
I0
sg140
I0
sg141
g133
sg35
g131
sg142
I0
stRp3222
sg144
g145
sg146
F1
sg147
Nsg30
S'NoName'
p3223
sbag1
(g2
g3
NtRp3224
(dp3225
g6
g1
(g7
g3
NtRp3226
(dp3227
g10
g1
(g11
g12
(dtRp3228
sg14
g1
(g11
g12
(dtRp3229
sg16
g1
(g11
g12
(dtRp3230
sg18
g1
(g11
g12
(dtRp3231
sg20
g1
(g11
g12
(dtRp3232
sg22
g1
(g11
g12
(dtRp3233
sbsg24
S'Lkl'
p3234
sg26
g27
((lp3235
g29
ag30
aS'sequence'
p3236
ag32
ag33
aS'species'
p3237
atRp3238
sg37
(lp3239
sg120
g3152
sg121
S'RWLSTKDLYSRLELPGLNQNVHAMFVMPLGFGNPMGDMFARLNNSFWLPPLSLEGAGTGWTVYPPLSHSGPSVDLAFHLTSSLLGAINFTNMRGPLFWTALLLLSLPVLAGTLLDRNFNTFEGGDPLYHLFWFFGHPEVYIIPGFGSHSTYKKFGMYASIGLGFVWSHHMYVGLDDRAYFLSATMIAPTGIKFSWLATYGGRPMLAFLFLFTGGTGVLNASDAFHDLYYVVHFHYVLSMGAFSLGYYYWPGLYNLFWFNFPMHFLGGMPRRPYPDAGWNSGSSYQLGPDESNEPH'
p3240
sg123
F0.00040999999999999999
sg124
g125
sg33
S'189'
p3241
sg126
g1
(g127
g12
(dp3242
g129
I4
sg130
g131
sg132
g133
sg134
g131
sg135
I01
sg34
g136
sg137
g133
sg138
I0
sg139
I0
sg140
I0
sg141
g133
sg35
g131
sg142
I0
stRp3243
sg144
g145
sg146
F1
sg147
Nsg30
S'LkluyB'
p3244
sbasg120
g3139
sg123
F1.0000000000000001e-05
sg124
g125
sg33
S'182'
p3245
sg126
g1
(g127
g12
(dp3246
g129
I8
sg130
g131
sg132
g133
sg134
g131
sg135
I01
sg34
g171
sg137
g133
sg138
I0
sg139
I0
sg140
I0
sg141
g133
sg35
g131
sg142
I0
stRp3247
sg144
g145
sg146
F1
sg147
Nsg30
S'NoName'
p3248
sbag1
(g2
g3
NtRp3249
(dp3250
g6
g1
(g7
g3
NtRp3251
(dp3252
g10
g1
(g11
g12
(dtRp3253
sg14
g1
(g11
g12
(dtRp3254
sg16
g1
(g11
g12
(dtRp3255
sg18
g1
(g11
g12
(dtRp3256
sg20
g1
(g11
g12
(dtRp3257
sg22
g1
(g11
g12
(dtRp3258
sbsg24
S'Lkl'
p3259
sg26
g27
((lp3260
g29
ag30
aS'sequence'
p3261
ag32
ag33
aS'species'
p3262
atRp3263
sg37
(lp3264
sg120
g3139
sg121
S'RWLSTKDLYSRLELPGLNQNVHAMFVMPLGFGNPMGDMFARLNNSFWLPPLSLEGAGTGWTVYPPLSHSGPSVDLAFHLTSSLLGAINFTNMRGPLFWTALLLLSLPVLAGTLLDRNFNTFEGGDPLYHLFWFFGHPEVYIIPGFGSHSTYKKFGMYASIGLGFVWSHHMYVGLDDRAYFLSATMIAPTGIKFSWLATYGGRPMLAFLFLFTGGTGVLNASDAFHDLYYVVHFHYVLSMGAFSLGYYYWPGLYNLFWFNFPMHFLGGMPRRPYPDAGWNSGSSYQLGPDESNEPH'
p3265
sg123
F0.00040999999999999999
sg124
g125
sg33
S'191'
p3266
sg126
g1
(g127
g12
(dp3267
g129
I4
sg130
g131
sg132
g133
sg134
g131
sg135
I01
sg34
g136
sg137
g133
sg138
I0
sg139
I0
sg140
I0
sg141
g133
sg35
g131
sg142
I0
stRp3268
sg144
g145
sg146
F1
sg147
Nsg30
S'LkluyA'
p3269
sbasg120
g3067
sg123
F0.0035300000000000002
sg124
g125
sg33
S'177'
p3270
sg126
g1
(g127
g12
(dp3271
g129
I8
sg130
g131
sg132
g133
sg134
g131
sg135
I01
sg34
g171
sg137
g133
sg138
I0
sg139
I0
sg140
I0
sg141
g133
sg35
g131
sg142
I0
stRp3272
sg144
g145
sg146
F0.91000000000000003
sg147
Nsg30
S'NoName'
p3273
sbasg120
g3054
sg123
F0.054280000000000002
sg124
g125
sg33
S'173'
p3274
sg126
g1
(g127
g12
(dp3275
g129
I8
sg130
g131
sg132
g133
sg134
g131
sg135
I01
sg34
g171
sg137
g133
sg138
I0
sg139
I0
sg140
I0
sg141
g133
sg35
g131
sg142
I0
stRp3276
sg144
g145
sg146
F0.98999999999999999
sg147
Nsg30
S'NoName'
p3277
sbag1
(g2
g3
NtRp3278
(dp3279
g6
g1
(g7
g3
NtRp3280
(dp3281
g10
g1
(g11
g12
(dtRp3282
sg14
g1
(g11
g12
(dtRp3283
sg16
g1
(g11
g12
(dtRp3284
sg18
g1
(g11
g12
(dtRp3285
sg20
g1
(g11
g12
(dtRp3286
sg22
g1
(g11
g12
(dtRp3287
sbsg24
g25
sg26
g27
((lp3288
g33
ag32
ag29
ag30
atRp3289
sg37
(lp3290
g1
(g2
g3
NtRp3291
(dp3292
g6
g1
(g7
g3
NtRp3293
(dp3294
g10
g1
(g11
g12
(dtRp3295
sg14
g1
(g11
g12
(dtRp3296
sg16
g1
(g11
g12
(dtRp3297
sg18
g1
(g11
g12
(dtRp3298
sg20
g1
(g11
g12
(dtRp3299
sg22
g1
(g11
g12
(dtRp3300
sbsg24
S'Lan'
p3301
sg26
g27
((lp3302
g29
ag30
aS'sequence'
p3303
ag32
ag33
aS'species'
p3304
atRp3305
sg37
(lp3306
sg120
g3278
sg121
S'RWLSTKDLYSRLELPGLNQNVHAMFVMPLGFGNPMGDMFARLNNSFWLPPLSLEGAGTGWTLYPPLSHSGPSVDLAFHLTSSLLGAINFTNMRGPLFWTALLLLSLPVLAGTVLDRNFNTFEGGDPLYHLFWFFGHPEVYIIPGFGSHSTYKKFGMYASIGLGFVWSHHMYVGLDDRAYFTSATMIAPTGIKFSWLALYGGRPMLAFLFLFTGGTGVLNASDAFHDTYYVVHFHYVLSMGAFSLGYYYWPGLYNLFWFNFPMHFLGGMPRRPYPDAGWNSGSSYQLGPDESNEPH'
p3307
sg123
F0.10922999999999999
sg124
g125
sg33
S'195'
p3308
sg126
g1
(g127
g12
(dp3309
g129
I4
sg130
g131
sg132
g133
sg134
g131
sg135
I01
sg34
g136
sg137
g133
sg138
I0
sg139
I0
sg140
I0
sg141
g133
sg35
g131
sg142
I0
stRp3310
sg144
g145
sg146
F1
sg147
Nsg30
S'LanspA'
p3311
sbag1
(g2
g3
NtRp3312
(dp3313
g6
g1
(g7
g3
NtRp3314
(dp3315
g10
g1
(g11
g12
(dtRp3316
sg14
g1
(g11
g12
(dtRp3317
sg16
g1
(g11
g12
(dtRp3318
sg18
g1
(g11
g12
(dtRp3319
sg20
g1
(g11
g12
(dtRp3320
sg22
g1
(g11
g12
(dtRp3321
sbsg24
g25
sg26
g27
((lp3322
g33
ag32
ag29
ag30
atRp3323
sg37
(lp3324
g1
(g2
g3
NtRp3325
(dp3326
g6
g1
(g7
g3
NtRp3327
(dp3328
g10
g1
(g11
g12
(dtRp3329
sg14
g1
(g11
g12
(dtRp3330
sg16
g1
(g11
g12
(dtRp3331
sg18
g1
(g11
g12
(dtRp3332
sg20
g1
(g11
g12
(dtRp3333
sg22
g1
(g11
g12
(dtRp3334
sbsg24
g25
sg26
g27
((lp3335
g33
ag32
ag29
ag30
atRp3336
sg37
(lp3337
g1
(g2
g3
NtRp3338
(dp3339
g6
g1
(g7
g3
NtRp3340
(dp3341
g10
g1
(g11
g12
(dtRp3342
sg14
g1
(g11
g12
(dtRp3343
sg16
g1
(g11
g12
(dtRp3344
sg18
g1
(g11
g12
(dtRp3345
sg20
g1
(g11
g12
(dtRp3346
sg22
g1
(g11
g12
(dtRp3347
sbsg24
S'Lno'
p3348
sg26
g27
((lp3349
g29
ag30
aS'sequence'
p3350
ag32
ag33
aS'species'
p3351
atRp3352
sg37
(lp3353
sg120
g3325
sg121
S'RWLSTKDLYSRLELPGLNQNVHAMFVMPLGFGNPMGDMFARLNNSFWLPPLSLEGAGTGWTIYPPLSHSGPSVDLAFHLTSSLLGAINFTNMRGPLFWTALLLLSLPVLAGTILDRNFNTFEGGDPLYHLFWFFGHPEVYIIPGFGSHSTYKKFGMYASIGLGFVWSHHMYVGLDDRAYFTSALMIAPTGIKFSWLALYGGRPMLAFLFLFTGGTGVLNASDAFHDTYYVVHFHYVLSMGAFSLGYYYWPGLYNLFWFNFPMHFLGGMPRRPYPDAGWNSGSSYQLGPDESNEPH'
p3354
sg123
F0.0075199999999999998
sg124
g125
sg33
S'201'
p3355
sg126
g1
(g127
g12
(dp3356
g129
I4
sg130
g131
sg132
g133
sg134
g131
sg135
I01
sg34
g136
sg137
g133
sg138
I0
sg139
I0
sg140
I0
sg141
g133
sg35
g131
sg142
I0
stRp3357
sg144
g145
sg146
F1
sg147
Nsg30
S'LnothA'
p3358
sbag1
(g2
g3
NtRp3359
(dp3360
g6
g1
(g7
g3
NtRp3361
(dp3362
g10
g1
(g11
g12
(dtRp3363
sg14
g1
(g11
g12
(dtRp3364
sg16
g1
(g11
g12
(dtRp3365
sg18
g1
(g11
g12
(dtRp3366
sg20
g1
(g11
g12
(dtRp3367
sg22
g1
(g11
g12
(dtRp3368
sbsg24
g25
sg26
g27
((lp3369
g33
ag32
ag29
ag30
atRp3370
sg37
(lp3371
g1
(g2
g3
NtRp3372
(dp3373
g6
g1
(g7
g3
NtRp3374
(dp3375
g10
g1
(g11
g12
(dtRp3376
sg14
g1
(g11
g12
(dtRp3377
sg16
g1
(g11
g12
(dtRp3378
sg18
g1
(g11
g12
(dtRp3379
sg20
g1
(g11
g12
(dtRp3380
sg22
g1
(g11
g12
(dtRp3381
sbsg24
S'Lda'
p3382
sg26
g27
((lp3383
g29
ag30
aS'sequence'
p3384
ag32
ag33
aS'species'
p3385
atRp3386
sg37
(lp3387
sg120
g3359
sg121
S'RWLSTKDLYSRLELPGLNQNVHAMFVMPLGFGNPMGDMFARLNNSFWLPPLSLEGAGTGWTVYPPLSHSGPSVDLAFHLTSSLLGAINFTNMRGPLFWTALLLLSLPVLAGTILDRNFNTFEGGDPLYHLFWFFGHPEVYIIPGFGSHSTYKKFGMYASIGLGFVWSHHMYVGLDDRAYFTSATMIAPTGIKFSWLALYGGRPMLAFLFLFTGGTGVLNASDAFHDTYYVVHFHYVLSMGAFSLGYYYWPGLYNLFWFNFPMHFLGGMPRRPYPDAGWNSGSSYQLGPDESNEPH'
p3388
sg123
F0.023539999999999998
sg124
g125
sg33
S'204'
p3389
sg126
g1
(g127
g12
(dp3390
g129
I4
sg130
g131
sg132
g133
sg134
g131
sg135
I01
sg34
g136
sg137
g133
sg138
I0
sg139
I0
sg140
I0
sg141
g133
sg35
g131
sg142
I0
stRp3391
sg144
g145
sg146
F1
sg147
Nsg30
S'LdasiA'
p3392
sbag1
(g2
g3
NtRp3393
(dp3394
g6
g1
(g7
g3
NtRp3395
(dp3396
g10
g1
(g11
g12
(dtRp3397
sg14
g1
(g11
g12
(dtRp3398
sg16
g1
(g11
g12
(dtRp3399
sg18
g1
(g11
g12
(dtRp3400
sg20
g1
(g11
g12
(dtRp3401
sg22
g1
(g11
g12
(dtRp3402
sbsg24
g25
sg26
g27
((lp3403
g33
ag32
ag29
ag30
atRp3404
sg37
(lp3405
g1
(g2
g3
NtRp3406
(dp3407
g6
g1
(g7
g3
NtRp3408
(dp3409
g10
g1
(g11
g12
(dtRp3410
sg14
g1
(g11
g12
(dtRp3411
sg16
g1
(g11
g12
(dtRp3412
sg18
g1
(g11
g12
(dtRp3413
sg20
g1
(g11
g12
(dtRp3414
sg22
g1
(g11
g12
(dtRp3415
sbsg24
S'Lme'
p3416
sg26
g27
((lp3417
g29
ag30
aS'sequence'
p3418
ag32
ag33
aS'species'
p3419
atRp3420
sg37
(lp3421
sg120
g3393
sg121
S'RWLSTKDLYSRLELPGLNQNVHAMFVMPLGFGNPMGDMFARLNNSFWLPPLSLEGAGTGWTVYPPLSHSGPSVDLAFHLTSSLLGAINFTNMRGPLFWTALLLLSLPVLAGTILDRNFNTFEGGDPLYHLFWFFGHPEVYIIPGFGSHSTYKKFGMYASIGLGFVWSHHMYVGLDDRAYFTSATMIAPTGIKFSWLALYGGRPMLAFLFLFTGGTGVLNASDAFHDTYYVVHFHYVLSMGAFSLGYYYWPGLYNLFWFNFPMHFLGGMPRRPYPDAGWNSGSSYQLGPDESNEPH'
p3422
sg123
F0.0050299999999999997
sg124
g125
sg33
S'209'
p3423
sg126
g1
(g127
g12
(dp3424
g129
I4
sg130
g131
sg132
g133
sg134
g131
sg135
I01
sg34
g136
sg137
g133
sg138
I0
sg139
I0
sg140
I0
sg141
g133
sg35
g131
sg142
I0
stRp3425
sg144
g145
sg146
F1
sg147
Nsg30
S'LmeyeA'
p3426
sbag1
(g2
g3
NtRp3427
(dp3428
g6
g1
(g7
g3
NtRp3429
(dp3430
g10
g1
(g11
g12
(dtRp3431
sg14
g1
(g11
g12
(dtRp3432
sg16
g1
(g11
g12
(dtRp3433
sg18
g1
(g11
g12
(dtRp3434
sg20
g1
(g11
g12
(dtRp3435
sg22
g1
(g11
g12
(dtRp3436
sbsg24
S'Lan'
p3437
sg26
g27
((lp3438
g29
ag30
aS'sequence'
p3439
ag32
ag33
aS'species'
p3440
atRp3441
sg37
(lp3442
sg120
g3393
sg121
S'RWLSTKDLYSRLELPGLNQNVHAMFVMPLGFGNPMGDMFARLNNSFWLPPLSLEGAGTGWTVYPPLSHSGPSVDLAFHLTSSLLGAINFTNMRGPLFWTALLLLSLPVLAGTILDRNFNTFEGGDPLYHLFWFFGHPEVYIIPGFGSHSTYKKFGMYASIGLGFVWSHHMYVGLDDRAYFTSALMIAPTGIKFSWLALYGGRPMLAFLFLFTGGTGVLNASDAFHDTYYVVHFHYVLSMGAFSLGYYYWPGLYNLFWFNFPMHFLGGMPRRPYPDAGWNSGSSYQLGPDESNEPH'
p3443
sg123
F0.012290000000000001
sg124
g125
sg33
S'211'
p3444
sg126
g1
(g127
g12
(dp3445
g129
I4
sg130
g131
sg132
g133
sg134
g131
sg135
I01
sg34
g136
sg137
g133
sg138
I0
sg139
I0
sg140
I0
sg141
g133
sg35
g131
sg142
I0
stRp3446
sg144
g145
sg146
F1
sg147
Nsg30
S'LanspB'
p3447
sbasg120
g3359
sg123
F0.012070000000000001
sg124
g125
sg33
S'203'
p3448
sg126
g1
(g127
g12
(dp3449
g129
I8
sg130
g131
sg132
g133
sg134
g131
sg135
I01
sg34
g171
sg137
g133
sg138
I0
sg139
I0
sg140
I0
sg141
g133
sg35
g131
sg142
I0
stRp3450
sg144
g145
sg146
F0.98999999999999999
sg147
Nsg30
S'NoName'
p3451
sbasg120
g3325
sg123
F0.0088199999999999997
sg124
g125
sg33
S'199'
p3452
sg126
g1
(g127
g12
(dp3453
g129
I8
sg130
g131
sg132
g133
sg134
g131
sg135
I01
sg34
g171
sg137
g133
sg138
I0
sg139
I0
sg140
I0
sg141
g133
sg35
g131
sg142
I0
stRp3454
sg144
g145
sg146
F0.95999999999999996
sg147
Nsg30
S'NoName'
p3455
sbasg120
g3312
sg123
F0.016570000000000001
sg124
g125
sg33
S'196'
p3456
sg126
g1
(g127
g12
(dp3457
g129
I8
sg130
g131
sg132
g133
sg134
g131
sg135
I01
sg34
g171
sg137
g133
sg138
I0
sg139
I0
sg140
I0
sg141
g133
sg35
g131
sg142
I0
stRp3458
sg144
g145
sg146
F0.94999999999999996
sg147
Nsg30
S'NoName'
p3459
sbag1
(g2
g3
NtRp3460
(dp3461
g6
g1
(g7
g3
NtRp3462
(dp3463
g10
g1
(g11
g12
(dtRp3464
sg14
g1
(g11
g12
(dtRp3465
sg16
g1
(g11
g12
(dtRp3466
sg18
g1
(g11
g12
(dtRp3467
sg20
g1
(g11
g12
(dtRp3468
sg22
g1
(g11
g12
(dtRp3469
sbsg24
S'Kth'
p3470
sg26
g27
((lp3471
g29
ag30
aS'sequence'
p3472
ag32
ag33
aS'species'
p3473
atRp3474
sg37
(lp3475
sg120
g3312
sg121
S'RWLSTKDLYSRLELPGLNQNVHAMFVMPLGFGNPMGDMFARLNNSFWLPPLSLEGAGTGWTVYPPLSHSGPSVDLAFHLTSSLLGAINFTNMRGPLFWTALLLLSLPVLAGTILDRNFNTFEGGDPLYHLFWFFGHPEVYIIPGFGSHSTYKKFGMYASIGLGFVWSHHMYVGLDDRAYFTSATMIAPTGIKFSWLALYGGRPMLAFLFLFTGGTGVLNASDAFHDTYYVVHFHYVLSMGAFSLGYYYWPGLYNLFWFNFPMHFLGGMPRRPYPDAGWNSGSSYQLGPDESNEPH'
p3476
sg123
F0.021499999999999998
sg124
g125
sg33
S'212'
p3477
sg126
g1
(g127
g12
(dp3478
g129
I4
sg130
g131
sg132
g133
sg134
g131
sg135
I01
sg34
g136
sg137
g133
sg138
I0
sg139
I0
sg140
I0
sg141
g133
sg35
g131
sg142
I0
stRp3479
sg144
g145
sg146
F1
sg147
Nsg30
S'KtherA'
p3480
sbasg120
g3278
sg123
F0.033250000000000002
sg124
g125
sg33
S'193'
p3481
sg126
g1
(g127
g12
(dp3482
g129
I8
sg130
g131
sg132
g133
sg134
g131
sg135
I01
sg34
g171
sg137
g133
sg138
I0
sg139
I0
sg140
I0
sg141
g133
sg35
g131
sg142
I0
stRp3483
sg144
g145
sg146
F0.93999999999999995
sg147
Nsg30
S'NoName'
p3484
sbasg120
g3054
sg123
F0.038859999999999999
sg124
g125
sg33
S'185'
p3485
sg126
g1
(g127
g12
(dp3486
g129
I8
sg130
g131
sg132
g133
sg134
g131
sg135
I01
sg34
g171
sg137
g133
sg138
I0
sg139
I0
sg140
I0
sg141
g133
sg35
g131
sg142
I0
stRp3487
sg144
g145
sg146
F0.92000000000000004
sg147
Nsg30
S'NoName'
p3488
sbasg120
g3041
sg123
F0.050380000000000001
sg124
g125
sg33
S'172'
p3489
sg126
g1
(g127
g12
(dp3490
g129
I8
sg130
g131
sg132
g133
sg134
g131
sg135
I01
sg34
g171
sg137
g133
sg138
I0
sg139
I0
sg140
I0
sg141
g133
sg35
g131
sg142
I0
stRp3491
sg144
g145
sg146
F0.89000000000000001
sg147
Nsg30
S'NoName'
p3492
sbag1
(g2
g3
NtRp3493
(dp3494
g6
g1
(g7
g3
NtRp3495
(dp3496
g10
g1
(g11
g12
(dtRp3497
sg14
g1
(g11
g12
(dtRp3498
sg16
g1
(g11
g12
(dtRp3499
sg18
g1
(g11
g12
(dtRp3500
sg20
g1
(g11
g12
(dtRp3501
sg22
g1
(g11
g12
(dtRp3502
sbsg24
g25
sg26
g27
((lp3503
g33
ag32
ag29
ag30
atRp3504
sg37
(lp3505
g1
(g2
g3
NtRp3506
(dp3507
g6
g1
(g7
g3
NtRp3508
(dp3509
g10
g1
(g11
g12
(dtRp3510
sg14
g1
(g11
g12
(dtRp3511
sg16
g1
(g11
g12
(dtRp3512
sg18
g1
(g11
g12
(dtRp3513
sg20
g1
(g11
g12
(dtRp3514
sg22
g1
(g11
g12
(dtRp3515
sbsg24
S'Kma'
p3516
sg26
g27
((lp3517
g29
ag30
aS'sequence'
p3518
ag32
ag33
aS'species'
p3519
atRp3520
sg37
(lp3521
sg120
g3493
sg121
S'RWLSTKDLYSRLELPGLNQNVHAMFVMPLGFGNPMGDMFARLNNSFWLPPLSLEGAGTGWTVYPPLSHSGPSVDLAFHLTSSLLGAINFTNMRGPLFWTALLLLSLPVLAGTLLDRNFNTFEGGDPLYHLFWFFGHPEVYIIPGFGSHSTYKKFGMYASIGLGFVWSHHMYVGLDDRAYFTSATMIAPTGIKFSWLATYGGRPMLAFLFLFTGGTGVLNASDAFHDTYYVVHFHYVLSMGAFSLGYYYWPGLYNLFWFNFPMHFLGGMPRRPYPDAGWNSGSSYQLGPDESNEPH'
p3522
sg123
F0.04018
sg124
g125
sg33
S'217'
p3523
sg126
g1
(g127
g12
(dp3524
g129
I4
sg130
g131
sg132
g133
sg134
g131
sg135
I01
sg34
g136
sg137
g133
sg138
I0
sg139
I0
sg140
I0
sg141
g133
sg35
g131
sg142
I0
stRp3525
sg144
g145
sg146
F1
sg147
Nsg30
S'KmarxA'
p3526
sbag1
(g2
g3
NtRp3527
(dp3528
g6
g1
(g7
g3
NtRp3529
(dp3530
g10
g1
(g11
g12
(dtRp3531
sg14
g1
(g11
g12
(dtRp3532
sg16
g1
(g11
g12
(dtRp3533
sg18
g1
(g11
g12
(dtRp3534
sg20
g1
(g11
g12
(dtRp3535
sg22
g1
(g11
g12
(dtRp3536
sbsg24
S'Kla'
p3537
sg26
g27
((lp3538
g29
ag30
aS'sequence'
p3539
ag32
ag33
aS'species'
p3540
atRp3541
sg37
(lp3542
sg120
g3493
sg121
S'RWLSTKDLYSRLELPGLNQNVHAMFVMPLGFGNPLGDMFARLNNSFWLPPLSLEGAGTGWTVYPPLSHSGPSVDLAFHLTSSLLGAINFTNMRGPLFWTALLLLSLPVLAGTLLDRNFNTFEGGDPLYHLFWFFGHPEVYIIPGFGSHSTYKKFGMYASIGLGFVWSHHMYVGLDDRAYFTSATMIAPTGIKFSWLATYGGRPMLAFLFLFTGGTGVLNASDAFHDTYYVVHFHYVLSMGAFSLGYYYWPGLYNLFWFNFPMHFLGGMPRRPYPDAGWNSGSSYQLGPDESNEPH'
p3543
sg123
F0.043529999999999999
sg124
g125
sg33
S'219'
p3544
sg126
g1
(g127
g12
(dp3545
g129
I4
sg130
g131
sg132
g133
sg134
g131
sg135
I01
sg34
g136
sg137
g133
sg138
I0
sg139
I0
sg140
I0
sg141
g133
sg35
g131
sg142
I0
stRp3546
sg144
g145
sg146
F1
sg147
Nsg30
S'KlactA'
p3547
sbasg120
g3041
sg123
F0.13938999999999999
sg124
g125
sg33
S'208'
p3548
sg126
g1
(g127
g12
(dp3549
g129
I8
sg130
g131
sg132
g133
sg134
g131
sg135
I01
sg34
g171
sg137
g133
sg138
I0
sg139
I0
sg140
I0
sg141
g133
sg35
g131
sg142
I0
stRp3550
sg144
g145
sg146
F0.98999999999999999
sg147
Nsg30
S'NoName'
p3551
sbasg120
g3028
sg123
F1.0000000000000001e-05
sg124
g125
sg33
S'170'
p3552
sg126
g1
(g127
g12
(dp3553
g129
I8
sg130
g131
sg132
g133
sg134
g131
sg135
I01
sg34
g171
sg137
g133
sg138
I0
sg139
I0
sg140
I0
sg141
g133
sg35
g131
sg142
I0
stRp3554
sg144
g145
sg146
F1
sg147
Nsg30
S'NoName'
p3555
sbag1
(g2
g3
NtRp3556
(dp3557
g6
g1
(g7
g3
NtRp3558
(dp3559
g10
g1
(g11
g12
(dtRp3560
sg14
g1
(g11
g12
(dtRp3561
sg16
g1
(g11
g12
(dtRp3562
sg18
g1
(g11
g12
(dtRp3563
sg20
g1
(g11
g12
(dtRp3564
sg22
g1
(g11
g12
(dtRp3565
sbsg24
g25
sg26
g27
((lp3566
g33
ag32
ag29
ag30
atRp3567
sg37
(lp3568
g1
(g2
g3
NtRp3569
(dp3570
g6
g1
(g7
g3
NtRp3571
(dp3572
g10
g1
(g11
g12
(dtRp3573
sg14
g1
(g11
g12
(dtRp3574
sg16
g1
(g11
g12
(dtRp3575
sg18
g1
(g11
g12
(dtRp3576
sg20
g1
(g11
g12
(dtRp3577
sg22
g1
(g11
g12
(dtRp3578
sbsg24
S'Huv'
p3579
sg26
g27
((lp3580
g29
ag30
aS'sequence'
p3581
ag32
ag33
aS'species'
p3582
atRp3583
sg37
(lp3584
sg120
g3556
sg121
S'-MITTKDLYSRLELSGINHNSHAMFIMPIGFGNPAGDMFPRLNNSFWLVPVSLEGAGTGWTVYYPLSHSSVSVDLVFHCLSSLLGAINFTNFL-SLFWLALLLLSLPVLVGTLLDRNFNLYEGGDPLYHLFWFFGHPEVYIIPAFGSMSAYSKFGMYASIGLGFVWVHHMFVGLDDRAYFTSATMIAPLGIKFSWLALIGGRPVLAFLVLFLGGTGVLNASDAFHDTYYVVHFHYVLSLGAFGIGYYYWPGLYNLFVVNFPMHYLGGMPRRSYPDSAWNTGASVQLGTDLLPEPH'
p3585
sg123
F3.9441199999999998
sg124
g125
sg33
S'222'
p3586
sg126
g1
(g127
g12
(dp3587
g129
I4
sg130
g131
sg132
g133
sg134
g131
sg135
I01
sg34
g136
sg137
g133
sg138
I0
sg139
I0
sg140
I0
sg141
g133
sg35
g131
sg142
I0
stRp3588
sg144
g145
sg146
F1
sg147
Nsg30
S'HuvarA'
p3589
sbag1
(g2
g3
NtRp3590
(dp3591
g6
g1
(g7
g3
NtRp3592
(dp3593
g10
g1
(g11
g12
(dtRp3594
sg14
g1
(g11
g12
(dtRp3595
sg16
g1
(g11
g12
(dtRp3596
sg18
g1
(g11
g12
(dtRp3597
sg20
g1
(g11
g12
(dtRp3598
sg22
g1
(g11
g12
(dtRp3599
sbsg24
g25
sg26
g27
((lp3600
g33
ag32
ag29
ag30
atRp3601
sg37
(lp3602
g1
(g2
g3
NtRp3603
(dp3604
g6
g1
(g7
g3
NtRp3605
(dp3606
g10
g1
(g11
g12
(dtRp3607
sg14
g1
(g11
g12
(dtRp3608
sg16
g1
(g11
g12
(dtRp3609
sg18
g1
(g11
g12
(dtRp3610
sg20
g1
(g11
g12
(dtRp3611
sg22
g1
(g11
g12
(dtRp3612
sbsg24
g25
sg26
g27
((lp3613
g33
ag32
ag29
ag30
atRp3614
sg37
(lp3615
g1
(g2
g3
NtRp3616
(dp3617
g6
g1
(g7
g3
NtRp3618
(dp3619
g10
g1
(g11
g12
(dtRp3620
sg14
g1
(g11
g12
(dtRp3621
sg16
g1
(g11
g12
(dtRp3622
sg18
g1
(g11
g12
(dtRp3623
sg20
g1
(g11
g12
(dtRp3624
sg22
g1
(g11
g12
(dtRp3625
sbsg24
g25
sg26
g27
((lp3626
g33
ag32
ag29
ag30
atRp3627
sg37
(lp3628
g1
(g2
g3
NtRp3629
(dp3630
g6
g1
(g7
g3
NtRp3631
(dp3632
g10
g1
(g11
g12
(dtRp3633
sg14
g1
(g11
g12
(dtRp3634
sg16
g1
(g11
g12
(dtRp3635
sg18
g1
(g11
g12
(dtRp3636
sg20
g1
(g11
g12
(dtRp3637
sg22
g1
(g11
g12
(dtRp3638
sbsg24
S'Sse'
p3639
sg26
g27
((lp3640
g29
ag30
aS'sequence'
p3641
ag32
ag33
aS'species'
p3642
atRp3643
sg37
(lp3644
sg120
g3616
sg121
S'RWLSTKDMYSRMELPGLNQNVHAMFAMPLGFGNPMGDMFPRINSGFWLPMLSLEGAGTGWTVYPPLSHSGPSVDLAFHLTSSLLGAINFTNMRGPLFWTALLLLSLPVLAGTLLDRNFNTFEGGDPFYHAFWFFGHPEVYIIPGFGSHSTYKKFGMYASIGLGFVWSHHMYVGLDDRAYFTSATMIAPTGIKFSWLALYGGRPMMAFLFLFTGGTGVLNASDAFHDTYYVVHFHYVLSMGAFSLGYYYWPGLYNLFWFNFPMHFLGGMPRRPYPDAGWNSGSSYQIGPDESNEPH'
p3645
sg123
F0.29805999999999999
sg124
g125
sg33
S'40'
p3646
sg126
g1
(g127
g12
(dp3647
g129
I4
sg130
g131
sg132
g133
sg134
g131
sg135
I01
sg34
g136
sg137
g133
sg138
I0
sg139
I0
sg140
I0
sg141
g133
sg35
g131
sg142
I0
stRp3648
sg144
g145
sg146
F1
sg147
Nsg30
S'SservA'
p3649
sbag1
(g2
g3
NtRp3650
(dp3651
g6
g1
(g7
g3
NtRp3652
(dp3653
g10
g1
(g11
g12
(dtRp3654
sg14
g1
(g11
g12
(dtRp3655
sg16
g1
(g11
g12
(dtRp3656
sg18
g1
(g11
g12
(dtRp3657
sg20
g1
(g11
g12
(dtRp3658
sg22
g1
(g11
g12
(dtRp3659
sbsg24
S'Sca'
p3660
sg26
g27
((lp3661
g29
ag30
aS'sequence'
p3662
ag32
ag33
aS'species'
p3663
atRp3664
sg37
(lp3665
sg120
g3616
sg121
S'RWLSTKDLYSRLELPGLNQNVHAMFVMPLGFGNPMGDTFPRINNGFWLPMLSLEGAGTGWTVYPPLAHSGPSVDLAFHMTSSLLGAINFTNMRGPLFWTALLLLTLPVLAGTLLDRNFNTFEGGDPLYHLFWFFGHPEVYIIPGFGSHSTYKKFGMYASIGLGLVWSHHMYVGLDDRAYFTSATMIAPTGIKFSWLATYGGRPMLAFLFLFTGGTGVLNASDAFHDLYYVVHFHYVLSMGAFSLGYYYWPGLYNLFWFNFPMHFLGGMPRRPYPDAGWNSGASYQLGPDESNEPH'
p3666
sg123
F0.30890000000000001
sg124
g125
sg33
S'92'
p3667
sg126
g1
(g127
g12
(dp3668
g129
I4
sg130
g131
sg132
g133
sg134
g131
sg135
I01
sg34
g136
sg137
g133
sg138
I0
sg139
I0
sg140
I0
sg141
g133
sg35
g131
sg142
I0
stRp3669
sg144
g145
sg146
F1
sg147
Nsg30
S'ScastA'
p3670
sbasg120
g3603
sg123
F0.072319999999999995
sg124
g125
sg33
S'162'
p3671
sg126
g1
(g127
g12
(dp3672
g129
I8
sg130
g131
sg132
g133
sg134
g131
sg135
I01
sg34
g171
sg137
g133
sg138
I0
sg139
I0
sg140
I0
sg141
g133
sg35
g131
sg142
I0
stRp3673
sg144
g145
sg146
F0.98999999999999999
sg147
Nsg30
S'NoName'
p3674
sbag1
(g2
g3
NtRp3675
(dp3676
g6
g1
(g7
g3
NtRp3677
(dp3678
g10
g1
(g11
g12
(dtRp3679
sg14
g1
(g11
g12
(dtRp3680
sg16
g1
(g11
g12
(dtRp3681
sg18
g1
(g11
g12
(dtRp3682
sg20
g1
(g11
g12
(dtRp3683
sg22
g1
(g11
g12
(dtRp3684
sbsg24
g25
sg26
g27
((lp3685
g33
ag32
ag29
ag30
atRp3686
sg37
(lp3687
g1
(g2
g3
NtRp3688
(dp3689
g6
g1
(g7
g3
NtRp3690
(dp3691
g10
g1
(g11
g12
(dtRp3692
sg14
g1
(g11
g12
(dtRp3693
sg16
g1
(g11
g12
(dtRp3694
sg18
g1
(g11
g12
(dtRp3695
sg20
g1
(g11
g12
(dtRp3696
sg22
g1
(g11
g12
(dtRp3697
sbsg24
S'Spa'
p3698
sg26
g27
((lp3699
g29
ag30
aS'sequence'
p3700
ag32
ag33
aS'species'
p3701
atRp3702
sg37
(lp3703
sg120
g3675
sg121
S'RWLSTKDLYSRLELPGLNQNVHAMFVMPLGFGNPMGDTFPRINNAFWLPMLSLEGAGTGWTVYPPLSHSGPSVDLAFHLTSSLLGAINFTNMRGPLFWTALLLLSLPVLAGTLLDRNFNTFEGGDPLYHLFWFFGHPEVYIIPGFGSHSTYKKFGMYASIGLGFVWSHHMYVGLDDRAYFLSATMIAPTGIKFSWLATYGGRPMLAFLFLFTGGTGVLNASDAFHDTYYVVHFHYVLSMGAFSLGYYYWPGLYNLFWFNFPMHFLGGMPRRPYPDAGWNSGSSYQLGPDESNEPH'
p3704
sg123
F0.029780000000000001
sg124
g125
sg33
S'200'
p3705
sg126
g1
(g127
g12
(dp3706
g129
I4
sg130
g131
sg132
g133
sg134
g131
sg135
I01
sg34
g136
sg137
g133
sg138
I0
sg139
I0
sg140
I0
sg141
g133
sg35
g131
sg142
I0
stRp3707
sg144
g145
sg146
F1
sg147
Nsg30
S'SpastA'
p3708
sbag1
(g2
g3
NtRp3709
(dp3710
g6
g1
(g7
g3
NtRp3711
(dp3712
g10
g1
(g11
g12
(dtRp3713
sg14
g1
(g11
g12
(dtRp3714
sg16
g1
(g11
g12
(dtRp3715
sg18
g1
(g11
g12
(dtRp3716
sg20
g1
(g11
g12
(dtRp3717
sg22
g1
(g11
g12
(dtRp3718
sbsg24
g25
sg26
g27
((lp3719
g33
ag32
ag29
ag30
atRp3720
sg37
(lp3721
g1
(g2
g3
NtRp3722
(dp3723
g6
g1
(g7
g3
NtRp3724
(dp3725
g10
g1
(g11
g12
(dtRp3726
sg14
g1
(g11
g12
(dtRp3727
sg16
g1
(g11
g12
(dtRp3728
sg18
g1
(g11
g12
(dtRp3729
sg20
g1
(g11
g12
(dtRp3730
sg22
g1
(g11
g12
(dtRp3731
sbsg24
g25
sg26
g27
((lp3732
g33
ag32
ag29
ag30
atRp3733
sg37
(lp3734
g1
(g2
g3
NtRp3735
(dp3736
g6
g1
(g7
g3
NtRp3737
(dp3738
g10
g1
(g11
g12
(dtRp3739
sg14
g1
(g11
g12
(dtRp3740
sg16
g1
(g11
g12
(dtRp3741
sg18
g1
(g11
g12
(dtRp3742
sg20
g1
(g11
g12
(dtRp3743
sg22
g1
(g11
g12
(dtRp3744
sbsg24
S'Sce'
p3745
sg26
g27
((lp3746
g29
ag30
aS'sequence'
p3747
ag32
ag33
aS'species'
p3748
atRp3749
sg37
(lp3750
sg120
g3722
sg121
S'RWLSTKDLYSRLELPGLNQNVHAMFVMPLGFGNPMGDTFPRINNAFWLPMLSLEGAGTGWTVYPPLSHSGPSVDLAFHLTSSLLGAINFTNMRGPLFWTALLLLSLPVLAGTLLDRNFNTFEGGDPLYHLFWFFGHPEVYIIPGFGSHSTYKKFGMYASIGLGFVWSHHMYVGLDDRAYFLSALMIAPTGIKFSWLALYGGRPMLAFLFLFTGGTGVLNASDAFHDTYYVVHFHYVLSMGAFSLGYYYWPGLYNLFWFNFPMHFLGGMPRRPYPDAGWNSGSSYQLGPDESNEPH'
p3751
sg123
F0.0038700000000000002
sg124
g125
sg33
S'168'
p3752
sg126
g1
(g127
g12
(dp3753
g129
I4
sg130
g131
sg132
g133
sg134
g131
sg135
I01
sg34
g136
sg137
g133
sg138
I0
sg139
I0
sg140
I0
sg141
g133
sg35
g131
sg142
I0
stRp3754
sg144
g145
sg146
F1
sg147
Nsg30
S'ScereD'
p3755
sbag1
(g2
g3
NtRp3756
(dp3757
g6
g1
(g7
g3
NtRp3758
(dp3759
g10
g1
(g11
g12
(dtRp3760
sg14
g1
(g11
g12
(dtRp3761
sg16
g1
(g11
g12
(dtRp3762
sg18
g1
(g11
g12
(dtRp3763
sg20
g1
(g11
g12
(dtRp3764
sg22
g1
(g11
g12
(dtRp3765
sbsg24
g25
sg26
g27
((lp3766
g33
ag32
ag29
ag30
atRp3767
sg37
(lp3768
g1
(g2
g3
NtRp3769
(dp3770
g6
g1
(g7
g3
NtRp3771
(dp3772
g10
g1
(g11
g12
(dtRp3773
sg14
g1
(g11
g12
(dtRp3774
sg16
g1
(g11
g12
(dtRp3775
sg18
g1
(g11
g12
(dtRp3776
sg20
g1
(g11
g12
(dtRp3777
sg22
g1
(g11
g12
(dtRp3778
sbsg24
S'Sce'
p3779
sg26
g27
((lp3780
g29
ag30
aS'sequence'
p3781
ag32
ag33
aS'species'
p3782
atRp3783
sg37
(lp3784
sg120
g3756
sg121
S'RWLSTKDLYSRLELPGLNQNVHAMFVMPLGFGNPMGDTFPRINNAFWLPMLSLEGAGTGWTVYPPLSHSGPSVDLAFHLTSSLLGAINFTNMRGPLFWTALLLLSLPVLAGTLLDRNFNTFEGGDPLYHLFWFFGHPEVYIIPGFGSHSTYKKFGMYASIGLGFVWSHHMYVGLDDRAYFLSALMIAPTGIKFSWLALYGGRPMLAFLFLFTGGTGVLNASDAFHDTYYVVHFHYVLSMGAFSLGYYYWPGLYNLFWFNFPMHFLGGMPRRPYPDAGWNSGSSYQLGPDESNEPH'
p3785
sg123
F0.0075900000000000004
sg124
g125
sg33
S'18'
p3786
sg126
g1
(g127
g12
(dp3787
g129
I4
sg130
g131
sg132
g133
sg134
g131
sg135
I01
sg34
g136
sg137
g133
sg138
I0
sg139
I0
sg140
I0
sg141
g133
sg35
g131
sg142
I0
stRp3788
sg144
g145
sg146
F1
sg147
Nsg30
S'ScereE'
p3789
sbag1
(g2
g3
NtRp3790
(dp3791
g6
g1
(g7
g3
NtRp3792
(dp3793
g10
g1
(g11
g12
(dtRp3794
sg14
g1
(g11
g12
(dtRp3795
sg16
g1
(g11
g12
(dtRp3796
sg18
g1
(g11
g12
(dtRp3797
sg20
g1
(g11
g12
(dtRp3798
sg22
g1
(g11
g12
(dtRp3799
sbsg24
g25
sg26
g27
((lp3800
g33
ag32
ag29
ag30
atRp3801
sg37
(lp3802
g1
(g2
g3
NtRp3803
(dp3804
g6
g1
(g7
g3
NtRp3805
(dp3806
g10
g1
(g11
g12
(dtRp3807
sg14
g1
(g11
g12
(dtRp3808
sg16
g1
(g11
g12
(dtRp3809
sg18
g1
(g11
g12
(dtRp3810
sg20
g1
(g11
g12
(dtRp3811
sg22
g1
(g11
g12
(dtRp3812
sbsg24
S'Sce'
p3813
sg26
g27
((lp3814
g29
ag30
aS'sequence'
p3815
ag32
ag33
aS'species'
p3816
atRp3817
sg37
(lp3818
sg120
g3790
sg121
S'RWLSTKDLYSRLELPGLNQNVHAMFVMPLGFGNPMGDTFPRINNAFWLPMLSLEGAGTGWTVYPPLSHSGPSVDLAFHLTSSLLGAINFTNMRGPLFWTALLLLSLPVLAGTLLDRNFNTFEGGDPLYHLFWFFGHPEVYIIPGFGSHSTYKKFGMYASIGLGFVWSHHMYVGLDDRAYFLSALMIAPTGIKFSWLALHGGRPMLAFLFLFTGGTGVLNASDAFHDTYYVVHFHYVLSMGAFSLGYYYWPGLYNLFWFNFPMHFLGGMPRRPYPDAGWNSGSSYQLGPDESNEPH'
p3819
sg123
F0.0053899999999999998
sg124
g125
sg33
S'95'
p3820
sg126
g1
(g127
g12
(dp3821
g129
I4
sg130
g131
sg132
g133
sg134
g131
sg135
I01
sg34
g136
sg137
g133
sg138
I0
sg139
I0
sg140
I0
sg141
g133
sg35
g131
sg142
I0
stRp3822
sg144
g145
sg146
F1
sg147
Nsg30
S'ScereC'
p3823
sbag1
(g2
g3
NtRp3824
(dp3825
g6
g1
(g7
g3
NtRp3826
(dp3827
g10
g1
(g11
g12
(dtRp3828
sg14
g1
(g11
g12
(dtRp3829
sg16
g1
(g11
g12
(dtRp3830
sg18
g1
(g11
g12
(dtRp3831
sg20
g1
(g11
g12
(dtRp3832
sg22
g1
(g11
g12
(dtRp3833
sbsg24
S'Sce'
p3834
sg26
g27
((lp3835
g29
ag30
aS'sequence'
p3836
ag32
ag33
aS'species'
p3837
atRp3838
sg37
(lp3839
sg120
g3790
sg121
S'RWLSTKDLYSRLELPGLNQNVHAMFVMPLGFGNPMGDTFPRINNAFWLPMLSLEGAGTGWTVYPPLSHSGPSVDLAFHLTSSLLGAINFTNMRGPLFWTALLLLSLPVLAGTLLDRNFNTFEGGDPLYHLFWFFGHPEVYIIPGFGSHSTYKKFGMYASIGLGFVWSHHMYVGLDDRAYFLSALMIAPTGIKFSWLALYGGRPMLAFLFLFTGGTGVLNASDAFHDTYYVVHFHYVLSMGAFSLGYYYWPGLYNLFWFNFPMHFLGGMPRRPYPDAGWNSGSSYQLGPDESNEPH'
p3840
sg123
F0.0066400000000000001
sg124
g125
sg33
S'133'
p3841
sg126
g1
(g127
g12
(dp3842
g129
I4
sg130
g131
sg132
g133
sg134
g131
sg135
I01
sg34
g136
sg137
g133
sg138
I0
sg139
I0
sg140
I0
sg141
g133
sg35
g131
sg142
I0
stRp3843
sg144
g145
sg146
F1
sg147
Nsg30
S'ScereA'
p3844
sbasg120
g3756
sg123
F0.00596
sg124
g125
sg33
S'207'
p3845
sg126
g1
(g127
g12
(dp3846
g129
I8
sg130
g131
sg132
g133
sg134
g131
sg135
I01
sg34
g171
sg137
g133
sg138
I0
sg139
I0
sg140
I0
sg141
g133
sg35
g131
sg142
I0
stRp3847
sg144
g145
sg146
F0.98999999999999999
sg147
Nsg30
S'NoName'
p3848
sbasg120
g3722
sg123
F0.0050600000000000003
sg124
g125
sg33
S'126'
p3849
sg126
g1
(g127
g12
(dp3850
g129
I8
sg130
g131
sg132
g133
sg134
g131
sg135
I01
sg34
g171
sg137
g133
sg138
I0
sg139
I0
sg140
I0
sg141
g133
sg35
g131
sg142
I0
stRp3851
sg144
g145
sg146
F0.66000000000000003
sg147
Nsg30
S'NoName'
p3852
sbasg120
g3709
sg123
F0.017850000000000001
sg124
g125
sg33
S'26'
p3853
sg126
g1
(g127
g12
(dp3854
g129
I8
sg130
g131
sg132
g133
sg134
g131
sg135
I01
sg34
g171
sg137
g133
sg138
I0
sg139
I0
sg140
I0
sg141
g133
sg35
g131
sg142
I0
stRp3855
sg144
g145
sg146
F0.89000000000000001
sg147
Nsg30
S'NoName'
p3856
sbag1
(g2
g3
NtRp3857
(dp3858
g6
g1
(g7
g3
NtRp3859
(dp3860
g10
g1
(g11
g12
(dtRp3861
sg14
g1
(g11
g12
(dtRp3862
sg16
g1
(g11
g12
(dtRp3863
sg18
g1
(g11
g12
(dtRp3864
sg20
g1
(g11
g12
(dtRp3865
sg22
g1
(g11
g12
(dtRp3866
sbsg24
S'Sar'
p3867
sg26
g27
((lp3868
g29
ag30
aS'sequence'
p3869
ag32
ag33
aS'species'
p3870
atRp3871
sg37
(lp3872
sg120
g3709
sg121
S'RWLSTKDLYSRLELPGLNQNVHAMFVMPLGFGNPMGDTFPRINNAFWLPMLSLEGAGTGWTVYPPLSHSGPSVDLAFHLTSSLLGAINFTNMRGPLFWTALLLLSLPVLAGTLLDRNFNTFEGGDPLYHLFWFFGHPEVYIIPGFGSHSTYKKFGMYASIGLGFVWSHHMYVGLDDRAYFLSALMIAPTGIKFSWLALYGGRPMLAFLFLFTGGTGVLNASDAFHDTYYVVHFHYVLSMGAFSLGYYYWPGLYNLFWFNFPMHFLGGMPRRPYPDAGWNSGSSYQLGPDESNEPH'
p3873
sg123
F0.047230000000000001
sg124
g125
sg33
S'175'
p3874
sg126
g1
(g127
g12
(dp3875
g129
I4
sg130
g131
sg132
g133
sg134
g131
sg135
I01
sg34
g136
sg137
g133
sg138
I0
sg139
I0
sg140
I0
sg141
g133
sg35
g131
sg142
I0
stRp3876
sg144
g145
sg146
F1
sg147
Nsg30
S'SarboA'
p3877
sbasg120
g3675
sg123
F0.023619999999999999
sg124
g125
sg33
S'145'
p3878
sg126
g1
(g127
g12
(dp3879
g129
I8
sg130
g131
sg132
g133
sg134
g131
sg135
I01
sg34
g171
sg137
g133
sg138
I0
sg139
I0
sg140
I0
sg141
g133
sg35
g131
sg142
I0
stRp3880
sg144
g145
sg146
F0.92000000000000004
sg147
Nsg30
S'NoName'
p3881
sbasg120
g3603
sg123
F0.18547
sg124
g125
sg33
S'216'
p3882
sg126
g1
(g127
g12
(dp3883
g129
I8
sg130
g131
sg132
g133
sg134
g131
sg135
I01
sg34
g171
sg137
g133
sg138
I0
sg139
I0
sg140
I0
sg141
g133
sg35
g131
sg142
I0
stRp3884
sg144
g145
sg146
F0.98999999999999999
sg147
Nsg30
S'NoName'
p3885
sbasg120
g3590
sg123
F0.03594
sg124
g125
sg33
S'157'
p3886
sg126
g1
(g127
g12
(dp3887
g129
I8
sg130
g131
sg132
g133
sg134
g131
sg135
I01
sg34
g171
sg137
g133
sg138
I0
sg139
I0
sg140
I0
sg141
g133
sg35
g131
sg142
I0
stRp3888
sg144
g145
sg146
F0.98999999999999999
sg147
Nsg30
S'NoName'
p3889
sbag1
(g2
g3
NtRp3890
(dp3891
g6
g1
(g7
g3
NtRp3892
(dp3893
g10
g1
(g11
g12
(dtRp3894
sg14
g1
(g11
g12
(dtRp3895
sg16
g1
(g11
g12
(dtRp3896
sg18
g1
(g11
g12
(dtRp3897
sg20
g1
(g11
g12
(dtRp3898
sg22
g1
(g11
g12
(dtRp3899
sbsg24
g25
sg26
g27
((lp3900
g33
ag32
ag29
ag30
atRp3901
sg37
(lp3902
g1
(g2
g3
NtRp3903
(dp3904
g6
g1
(g7
g3
NtRp3905
(dp3906
g10
g1
(g11
g12
(dtRp3907
sg14
g1
(g11
g12
(dtRp3908
sg16
g1
(g11
g12
(dtRp3909
sg18
g1
(g11
g12
(dtRp3910
sg20
g1
(g11
g12
(dtRp3911
sg22
g1
(g11
g12
(dtRp3912
sbsg24
g25
sg26
g27
((lp3913
g33
ag32
ag29
ag30
atRp3914
sg37
(lp3915
g1
(g2
g3
NtRp3916
(dp3917
g6
g1
(g7
g3
NtRp3918
(dp3919
g10
g1
(g11
g12
(dtRp3920
sg14
g1
(g11
g12
(dtRp3921
sg16
g1
(g11
g12
(dtRp3922
sg18
g1
(g11
g12
(dtRp3923
sg20
g1
(g11
g12
(dtRp3924
sg22
g1
(g11
g12
(dtRp3925
sbsg24
S'Nde'
p3926
sg26
g27
((lp3927
g29
ag30
aS'sequence'
p3928
ag32
ag33
aS'species'
p3929
atRp3930
sg37
(lp3931
sg120
g3903
sg121
S'RWLSTKDLYSRLELPGLNQNVHAMFVMPLGFGNPMGDMFPRLNNGFWIVPLSLEGAGTGWTVYPPLSHSGPSVDLAFHMTSSLLGAINFTNMRGPLFWTALLLLSLPVFAGTLLDRNFNTFEGGDPLYHLFWFFGHPEVYIIPGFGSHSTYKKFGMYASIGLGFVWSHHMYVGLDDRAYFTSATMIAPTGIKFSWLATYGGRPMLAFLFLFTGGTGVLNASDAFHDTYYVVHFHYVLSMGAFSTGYYYWPGLYNLFWFNFPMHFLGGMPRRPYPDAGWNSGSSYQFGPDESNEPH'
p3932
sg123
F0.063509999999999997
sg124
g125
sg33
S'159'
p3933
sg126
g1
(g127
g12
(dp3934
g129
I4
sg130
g131
sg132
g133
sg134
g131
sg135
I01
sg34
g136
sg137
g133
sg138
I0
sg139
I0
sg140
I0
sg141
g133
sg35
g131
sg142
I0
stRp3935
sg144
g145
sg146
F1
sg147
Nsg30
S'NdelpA'
p3936
sbag1
(g2
g3
NtRp3937
(dp3938
g6
g1
(g7
g3
NtRp3939
(dp3940
g10
g1
(g11
g12
(dtRp3941
sg14
g1
(g11
g12
(dtRp3942
sg16
g1
(g11
g12
(dtRp3943
sg18
g1
(g11
g12
(dtRp3944
sg20
g1
(g11
g12
(dtRp3945
sg22
g1
(g11
g12
(dtRp3946
sbsg24
S'Cgl'
p3947
sg26
g27
((lp3948
g29
ag30
aS'sequence'
p3949
ag32
ag33
aS'species'
p3950
atRp3951
sg37
(lp3952
sg120
g3903
sg121
S'RWLSTKDLYSRLELPGLNQNVHAMFVMPLGFGNPMGDMFPRLNNGFWIVPLSLEGAGTGWTVYPPLSHSGPSVDLAFHLTSSLLGSINFTNMRGPLFWTALLLLSLPVLAGTLLDRNFNTFEGGDPLYHLFWFFGHPEVYIIPGFGSHSTYKKFGMYASIGLGFVWSHHMYVGLDDRAYFTSATMIAPTGIKFSWLATYGGRPMLAFLFLFTGGTGVLNASDAFHDTYYVVHFHYVLSMGAFSTGYYYWPGLYNLFWFNFPMHFLGGMPRRPYPDAGWNSGSSYQFGPDESNEPH'
p3953
sg123
F0.03882
sg124
g125
sg33
S'213'
p3954
sg126
g1
(g127
g12
(dp3955
g129
I4
sg130
g131
sg132
g133
sg134
g131
sg135
I01
sg34
g136
sg137
g133
sg138
I0
sg139
I0
sg140
I0
sg141
g133
sg35
g131
sg142
I0
stRp3956
sg144
g145
sg146
F1
sg147
Nsg30
S'CglabA'
p3957
sbasg120
g3890
sg123
F0.16661999999999999
sg124
g125
sg33
S'52'
p3958
sg126
g1
(g127
g12
(dp3959
g129
I8
sg130
g131
sg132
g133
sg134
g131
sg135
I01
sg34
g171
sg137
g133
sg138
I0
sg139
I0
sg140
I0
sg141
g133
sg35
g131
sg142
I0
stRp3960
sg144
g145
sg146
F0.98999999999999999
sg147
Nsg30
S'NoName'
p3961
sbag1
(g2
g3
NtRp3962
(dp3963
g6
g1
(g7
g3
NtRp3964
(dp3965
g10
g1
(g11
g12
(dtRp3966
sg14
g1
(g11
g12
(dtRp3967
sg16
g1
(g11
g12
(dtRp3968
sg18
g1
(g11
g12
(dtRp3969
sg20
g1
(g11
g12
(dtRp3970
sg22
g1
(g11
g12
(dtRp3971
sbsg24
g25
sg26
g27
((lp3972
g33
ag32
ag29
ag30
atRp3973
sg37
(lp3974
g1
(g2
g3
NtRp3975
(dp3976
g6
g1
(g7
g3
NtRp3977
(dp3978
g10
g1
(g11
g12
(dtRp3979
sg14
g1
(g11
g12
(dtRp3980
sg16
g1
(g11
g12
(dtRp3981
sg18
g1
(g11
g12
(dtRp3982
sg20
g1
(g11
g12
(dtRp3983
sg22
g1
(g11
g12
(dtRp3984
sbsg24
S'Nba'
p3985
sg26
g27
((lp3986
g29
ag30
aS'sequence'
p3987
ag32
ag33
aS'species'
p3988
atRp3989
sg37
(lp3990
sg120
g3962
sg121
S'RWLSTKDLYSRMELPGLNQNVHAMFVMPLGFGNPMGDMFPRLNNGFWMPALSLEGAGTGWTVYPPLSHSGPSVDLAFHLSSSLLGAINFTNMRGPLFWTALLLFSLPVFAGTLLDRNFNTFEGGDPLYHLFWFFGHPEVYIIPGFGSHSTYKKFGMYASIGLGFVWSHHMYVGLDDRAYFTSATMIAPTGIKFSWLALYGGRPMLAFLFLFTGGTGVLNASDAFHDTYYVVHFHYVLSMGAFSVAYYYWPGLYNLFWFNFPMHFLGGMPRRPYPDAGWNSGSSYQLGPDESNEPH'
p3991
sg123
F0.29926999999999998
sg124
g125
sg33
S'89'
p3992
sg126
g1
(g127
g12
(dp3993
g129
I4
sg130
g131
sg132
g133
sg134
g131
sg135
I01
sg34
g136
sg137
g133
sg138
I0
sg139
I0
sg140
I0
sg141
g133
sg35
g131
sg142
I0
stRp3994
sg144
g145
sg146
F1
sg147
Nsg30
S'NbaciA'
p3995
sbag1
(g2
g3
NtRp3996
(dp3997
g6
g1
(g7
g3
NtRp3998
(dp3999
g10
g1
(g11
g12
(dtRp4000
sg14
g1
(g11
g12
(dtRp4001
sg16
g1
(g11
g12
(dtRp4002
sg18
g1
(g11
g12
(dtRp4003
sg20
g1
(g11
g12
(dtRp4004
sg22
g1
(g11
g12
(dtRp4005
sbsg24
S'Cca'
p4006
sg26
g27
((lp4007
g29
ag30
aS'sequence'
p4008
ag32
ag33
aS'species'
p4009
atRp4010
sg37
(lp4011
sg120
g3962
sg121
S'RWLSTKDLYSRLELPGLNQNVHAMFVMPLGIGNPMGDTFPRLNNGFWLPPLSLEGAGTGWTVYPPLSHSGPSVDLAFHLTSSLLGAINFTNMRGPLFWTALLLFSLPVFAGTLLDRNFNTFEGGDPLYHVFWFFGHPEVYIIPGFGSHSTYKKFGMYASIGLGFVWSHHMYVGLDDRAYFTSALMIAPTGIKFSWLATFGGRPMLAFLFLFTGGTGVLNASDAFHDTYYVVHFHYVLSMGAFSLGYYYWPGLYNLFWFNFPMHFLGGMPRRPYPDAGWNSGSSYQLGPDESNEPH'
p4012
sg123
F0.26266
sg124
g125
sg33
S'142'
p4013
sg126
g1
(g127
g12
(dp4014
g129
I4
sg130
g131
sg132
g133
sg134
g131
sg135
I01
sg34
g136
sg137
g133
sg138
I0
sg139
I0
sg140
I0
sg141
g133
sg35
g131
sg142
I0
stRp4015
sg144
g145
sg146
F1
sg147
Nsg30
S'CcastA'
p4016
sbasg120
g3890
sg123
F0.15296999999999999
sg124
g125
sg33
S'105'
p4017
sg126
g1
(g127
g12
(dp4018
g129
I8
sg130
g131
sg132
g133
sg134
g131
sg135
I01
sg34
g171
sg137
g133
sg138
I0
sg139
I0
sg140
I0
sg141
g133
sg35
g131
sg142
I0
stRp4019
sg144
g145
sg146
F0.98999999999999999
sg147
Nsg30
S'NoName'
p4020
sbasg120
g3590
sg123
F0.042560000000000001
sg124
g125
sg33
S'57'
p4021
sg126
g1
(g127
g12
(dp4022
g129
I8
sg130
g131
sg132
g133
sg134
g131
sg135
I01
sg34
g171
sg137
g133
sg138
I0
sg139
I0
sg140
I0
sg141
g133
sg35
g131
sg142
I0
stRp4023
sg144
g145
sg146
F0.84999999999999998
sg147
Nsg30
S'NoName'
p4024
sbasg120
g3556
sg123
F0.094020000000000006
sg124
g125
sg33
S'220'
p4025
sg126
g1
(g127
g12
(dp4026
g129
I8
sg130
g131
sg132
g133
sg134
g131
sg135
I01
sg34
g171
sg137
g133
sg138
I0
sg139
I0
sg140
I0
sg141
g133
sg35
g131
sg142
I0
stRp4027
sg144
g145
sg146
F0.55000000000000004
sg147
Nsg30
S'NoName'
p4028
sbasg120
g3028
sg123
F0.11952
sg124
g125
sg33
S'215'
p4029
sg126
g1
(g127
g12
(dp4030
g129
I8
sg130
g131
sg132
g133
sg134
g131
sg135
I01
sg34
g171
sg137
g133
sg138
I0
sg139
I0
sg140
I0
sg141
g133
sg35
g131
sg142
I0
stRp4031
sg144
g145
sg146
F0.69999999999999996
sg147
Nsg30
S'NoName'
p4032
sbasg120
g3015
sg123
F0.029839999999999998
sg124
g125
sg33
S'169'
p4033
sg126
g1
(g127
g12
(dp4034
g129
I8
sg130
g131
sg132
g133
sg134
g131
sg135
I01
sg34
g171
sg137
g133
sg138
I0
sg139
I0
sg140
I0
sg141
g133
sg35
g131
sg142
I0
stRp4035
sg144
g145
sg146
F0.82999999999999996
sg147
Nsg30
S'NoName'
p4036
sbag1
(g2
g3
NtRp4037
(dp4038
g6
g1
(g7
g3
NtRp4039
(dp4040
g10
g1
(g11
g12
(dtRp4041
sg14
g1
(g11
g12
(dtRp4042
sg16
g1
(g11
g12
(dtRp4043
sg18
g1
(g11
g12
(dtRp4044
sg20
g1
(g11
g12
(dtRp4045
sg22
g1
(g11
g12
(dtRp4046
sbsg24
g25
sg26
g27
((lp4047
g33
ag32
ag29
ag30
atRp4048
sg37
(lp4049
g1
(g2
g3
NtRp4050
(dp4051
g6
g1
(g7
g3
NtRp4052
(dp4053
g10
g1
(g11
g12
(dtRp4054
sg14
g1
(g11
g12
(dtRp4055
sg16
g1
(g11
g12
(dtRp4056
sg18
g1
(g11
g12
(dtRp4057
sg20
g1
(g11
g12
(dtRp4058
sg22
g1
(g11
g12
(dtRp4059
sbsg24
S'Aac'
p4060
sg26
g27
((lp4061
g29
ag30
aS'sequence'
p4062
ag32
ag33
aS'species'
p4063
atRp4064
sg37
(lp4065
sg120
g4037
sg121
S'RWLSTKDLYSRMELPGLQQNVHLMFVMPLGFGNPMGDMFARLNNSFWLPPLSMEGLGTGWTVYPPLAHSGASVDLAFHLTSSLLGLINFTNMRGPLFWTAMLLMSLPVLAGTLLDRNFNTFEGGDPLYHLFWFFGHPEVYIIPLFGSHSTYKKFGMYASIGLGFVWSHHMYVGLDDRAYFTSLTMILPTSIKFSWLLTYGGRPMLAFLFLFTGGTGVLNLSDLFHDTYYVVHFHYVLSLGAFSMGYYYWPGLYNLFWFNFPMHFLGGMPRRPYPDLGWNSGSSYQLGPDESNEPH'
p4066
sg123
F0.028920000000000001
sg124
g125
sg33
S'74'
p4067
sg126
g1
(g127
g12
(dp4068
g129
I4
sg130
g131
sg132
g133
sg134
g131
sg135
I01
sg34
g136
sg137
g133
sg138
I0
sg139
I0
sg140
I0
sg141
g133
sg35
g131
sg142
I0
stRp4069
sg144
g145
sg146
F1
sg147
Nsg30
S'AacerA'
p4070
sbag1
(g2
g3
NtRp4071
(dp4072
g6
g1
(g7
g3
NtRp4073
(dp4074
g10
g1
(g11
g12
(dtRp4075
sg14
g1
(g11
g12
(dtRp4076
sg16
g1
(g11
g12
(dtRp4077
sg18
g1
(g11
g12
(dtRp4078
sg20
g1
(g11
g12
(dtRp4079
sg22
g1
(g11
g12
(dtRp4080
sbsg24
g25
sg26
g27
((lp4081
g33
ag32
ag29
ag30
atRp4082
sg37
(lp4083
g1
(g2
g3
NtRp4084
(dp4085
g6
g1
(g7
g3
NtRp4086
(dp4087
g10
g1
(g11
g12
(dtRp4088
sg14
g1
(g11
g12
(dtRp4089
sg16
g1
(g11
g12
(dtRp4090
sg18
g1
(g11
g12
(dtRp4091
sg20
g1
(g11
g12
(dtRp4092
sg22
g1
(g11
g12
(dtRp4093
sbsg24
S'Ago'
p4094
sg26
g27
((lp4095
g29
ag30
aS'sequence'
p4096
ag32
ag33
aS'species'
p4097
atRp4098
sg37
(lp4099
sg120
g4071
sg121
S'RWLSTKDLYSRMELPGLQQNVHLMFVMPLGFGNPMGDMFARLNNSFWLPPLSMEGLGTGWTVYPPLSHSGASVDLAFHLTSSLLGLINFTNMRGPLFWTAMLLMSLPVLAGTLLDRNFNTFEGGDPLYHLFWFFGHPEVYIIPLFGSHSTYKKFGMYLSISLGFVWSHHMYVGLDDRAYFTSATMILPTSIKFSWLLTYGGRPMLLFLFLFTGGTGVLNLSDAFHDTYYVVHFHYVLSLGAFSMGYYYWPGLYNLFWFNFPMHFLGGMPRRPYPDLGWNSGSSYQLGPDESNEPH'
p4100
sg123
F0.00088000000000000003
sg124
g125
sg33
S'152'
p4101
sg126
g1
(g127
g12
(dp4102
g129
I4
sg130
g131
sg132
g133
sg134
g131
sg135
I01
sg34
g136
sg137
g133
sg138
I0
sg139
I0
sg140
I0
sg141
g133
sg35
g131
sg142
I0
stRp4103
sg144
g145
sg146
F1
sg147
Nsg30
S'AgossB'
p4104
sbag1
(g2
g3
NtRp4105
(dp4106
g6
g1
(g7
g3
NtRp4107
(dp4108
g10
g1
(g11
g12
(dtRp4109
sg14
g1
(g11
g12
(dtRp4110
sg16
g1
(g11
g12
(dtRp4111
sg18
g1
(g11
g12
(dtRp4112
sg20
g1
(g11
g12
(dtRp4113
sg22
g1
(g11
g12
(dtRp4114
sbsg24
S'Ago'
p4115
sg26
g27
((lp4116
g29
ag30
aS'sequence'
p4117
ag32
ag33
aS'species'
p4118
atRp4119
sg37
(lp4120
sg120
g4071
sg121
S'RWLSTKDLYSRMELPGLQQNVHLMFVMPLGFGNPMGDMFARLNNSFWLPPLSMEGLGTGWTVYPPLSHSGASVDLAFHLTSSLLGLINFTNMRGPLFWTAMLLMSLPVLAGTLLDRNFNTFEGGDPLYHLFWFFGHPEVYIIPLFGSHSTYKKFGMYLSISLGFVWSHHMYVGLDDRAYFTSATMILPTSIKFSWLLTYGGRPMLLFLFLFTGGTGVLNLSDAFHDTYYVVHFHYVLSLGAFSMGYYYWPGLYNLFWFNFPMHFLGGMPRRPYPDLGWNSGSSYQLGPDESNEPH'
p4121
sg123
F0.0023999999999999998
sg124
g125
sg33
S'192'
p4122
sg126
g1
(g127
g12
(dp4123
g129
I4
sg130
g131
sg132
g133
sg134
g131
sg135
I01
sg34
g136
sg137
g133
sg138
I0
sg139
I0
sg140
I0
sg141
g133
sg35
g131
sg142
I0
stRp4124
sg144
g145
sg146
F1
sg147
Nsg30
S'AgossA'
p4125
sbasg120
g4037
sg123
F0.075329999999999994
sg124
g125
sg33
S'197'
p4126
sg126
g1
(g127
g12
(dp4127
g129
I8
sg130
g131
sg132
g133
sg134
g131
sg135
I01
sg34
g171
sg137
g133
sg138
I0
sg139
I0
sg140
I0
sg141
g133
sg35
g131
sg142
I0
stRp4128
sg144
g145
sg146
F0.98999999999999999
sg147
Nsg30
S'NoName'
p4129
sbasg120
g3015
sg123
F0.56830999999999998
sg124
g125
sg33
S'37'
p4130
sg126
g1
(g127
g12
(dp4131
g129
I8
sg130
g131
sg132
g133
sg134
g131
sg135
I01
sg34
g171
sg137
g133
sg138
I0
sg139
I0
sg140
I0
sg141
g133
sg35
g131
sg142
I0
stRp4132
sg144
g145
sg146
F0.98999999999999999
sg147
Nsg30
S'NoName'
p4133
sbasg120
g2677
sg123
F0.14305999999999999
sg124
g125
sg33
S'163'
p4134
sg126
g1
(g127
g12
(dp4135
g129
I8
sg130
g131
sg132
g133
sg134
g131
sg135
I01
sg34
g171
sg137
g133
sg138
I0
sg139
I0
sg140
I0
sg141
g133
sg35
g131
sg142
I0
stRp4136
sg144
g145
sg146
F0.96999999999999997
sg147
Nsg30
S'NoName'
p4137
sbasg120
g2491
sg123
F0.26834000000000002
sg124
g125
sg33
S'127'
p4138
sg126
g1
(g127
g12
(dp4139
g129
I8
sg130
g131
sg132
g133
sg134
g131
sg135
I01
sg34
g171
sg137
g133
sg138
I0
sg139
I0
sg140
I0
sg141
g133
sg35
g131
sg142
I0
stRp4140
sg144
g145
sg146
F0.97999999999999998
sg147
Nsg30
S'NoName'
p4141
sbasg120
g673
sg123
F0.062890000000000001
sg124
g125
sg33
S'218'
p4142
sg126
g1
(g127
g12
(dp4143
g129
I8
sg130
g131
sg132
g133
sg134
g131
sg135
I01
sg34
g171
sg137
g133
sg138
I0
sg139
I0
sg140
I0
sg141
g133
sg35
g131
sg142
I0
stRp4144
sg144
g145
sg146
F0.67000000000000004
sg147
Nsg30
S'NoName'
p4145
sbasg120
g259
sg123
F0.52025999999999994
sg124
g125
sg33
S'50'
p4146
sg126
g1
(g127
g12
(dp4147
g129
I8
sg130
g131
sg132
g133
sg134
g131
sg135
I01
sg34
g171
sg137
g133
sg138
I0
sg139
I0
sg140
I0
sg141
g133
sg35
g131
sg142
I0
stRp4148
sg144
g145
sg146
F0.97999999999999998
sg147
Nsg30
S'NoName'
p4149
sbasg120
g52
sg123
F0.11274000000000001
sg124
g125
sg33
S'12'
p4150
sg126
g1
(g127
g12
(dp4151
g129
I8
sg130
g131
sg132
g133
sg134
g131
sg135
I01
sg34
g171
sg137
g133
sg138
I0
sg139
I0
sg140
I0
sg141
g133
sg35
g131
sg142
I0
stRp4152
sg144
g145
sg146
F0.88
sg147
Nsg30
S'NoName'
p4153
sbasg120
g39
sg123
F0.33485999999999999
sg124
g125
sg33
S'1'
sg126
g1
(g127
g12
(dp4154
g129
I8
sg130
g131
sg132
g133
sg134
g131
sg135
I01
sg34
g171
sg137
g133
sg138
I0
sg139
I0
sg140
I0
sg141
g133
sg35
g131
sg142
I0
stRp4155
sg144
g145
sg146
F0.95999999999999996
sg147
Nsg30
S'NoName'
p4156
sbag1
(g2
g3
NtRp4157
(dp4158
g6
g1
(g7
g3
NtRp4159
(dp4160
g10
g1
(g11
g12
(dtRp4161
sg14
g1
(g11
g12
(dtRp4162
sg16
g1
(g11
g12
(dtRp4163
sg18
g1
(g11
g12
(dtRp4164
sg20
g1
(g11
g12
(dtRp4165
sg22
g1
(g11
g12
(dtRp4166
sbsg24
S'Lst'
p4167
sg26
g27
((lp4168
g29
ag30
aS'sequence'
p4169
ag32
ag33
aS'species'
p4170
atRp4171
sg37
(lp4172
sg120
g39
sg121
S'RWLSTKDLYSRMELPGLNHNVHAMFVMPLGFGNPLGDMFPRLNNSFWLPPLSFEGAGTGWTVYPPLSHSGASVDLAFHLSSSMLGAMNFTNMRGPLFWTALLLLSLPVLGATLLDRNFNTFEGGDPLYHLFWFFGHPEVYIIPGFGSHCTYEKFGMYASMGLGFVWSHHMFVGLDERAYFTAATMIAPTGMKFSWLATYGGTPMVAFLFLFTGGTGVLNASDAFHDTYYVVHFHYVLSMGAFALGYYYWPGLYKYFWFNFPMHFLGGMPRRPYPDAGWNSGSAIQLGPQATKEPH'
p4173
sg123
F1.13117
sg124
g125
sg33
S'6'
sg126
g1
(g127
g12
(dp4174
g129
I4
sg130
g131
sg132
g133
sg134
g131
sg135
I01
sg34
g136
sg137
g133
sg138
I0
sg139
I0
sg140
I0
sg141
g133
sg35
g131
sg142
I0
stRp4175
sg144
g145
sg146
F1
sg147
Nsg30
S'LstarA'
p4176
sbasg120
g4
sg123
F0.46844999999999998
sg124
g125
sg33
S'223'
p4177
sg126
g1
(g127
g12
(dp4178
g129
I8
sg130
g131
sg132
g133
sg134
g131
sg135
I01
sg34
g171
sg137
g133
sg138
I0
sg139
I0
sg140
I0
sg141
g133
sg35
g131
sg142
I0
stRp4179
sg144
g145
sg146
F1
sg147
Nsg30
S'NoName'
p4180
sbag1
(g2
g3
NtRp4181
(dp4182
g6
g1
(g7
g3
NtRp4183
(dp4184
g10
g1
(g11
g12
(dtRp4185
sg14
g1
(g11
g12
(dtRp4186
sg16
g1
(g11
g12
(dtRp4187
sg18
g1
(g11
g12
(dtRp4188
sg20
g1
(g11
g12
(dtRp4189
sg22
g1
(g11
g12
(dtRp4190
sbsg24
g25
sg26
g27
((lp4191
g33
ag32
ag29
ag30
atRp4192
sg37
(lp4193
g1
(g2
g3
NtRp4194
(dp4195
g6
g1
(g7
g3
NtRp4196
(dp4197
g10
g1
(g11
g12
(dtRp4198
sg14
g1
(g11
g12
(dtRp4199
sg16
g1
(g11
g12
(dtRp4200
sg18
g1
(g11
g12
(dtRp4201
sg20
g1
(g11
g12
(dtRp4202
sg22
g1
(g11
g12
(dtRp4203
sbsg24
S'Sja'
p4204
sg26
g27
((lp4205
g29
ag30
aS'sequence'
p4206
ag32
ag33
aS'species'
p4207
atRp4208
sg37
(lp4209
sg120
g4181
sg121
S'RWLSTKDLYSRLELPGLNQNVHGMFILPLGFGNPLGDVYPRMNNSFWLPPLSLEGPGVGWTMYYPLSHSGLSVDLLMQLTSSTLGSINLTNMRGPLFWTSLLVLTLPVLGGILLDRNWNTFAGGDPLYHLFWFFGHPEVYIIPAFGSHSTFHKFGMYASIALGCVWSHHLYVGLDDRAYFTAATMIAPTGIKFSWLATSGGEPMLVFLILFTGGTGVLNSVDAFHDTYFVVHFHYVLSMGAMGLAYYFWPGLYNMFWFNFPQHFLGNYPRRPYPDAGWNSGSSYQFNPNDSNEPH'
p4210
sg123
F1.0686599999999999
sg124
g125
sg33
S'81'
p4211
sg126
g1
(g127
g12
(dp4212
g129
I4
sg130
g131
sg132
g133
sg134
g131
sg135
I01
sg34
g136
sg137
g133
sg138
I0
sg139
I0
sg140
I0
sg141
g133
sg35
g131
sg142
I0
stRp4213
sg144
g145
sg146
F1
sg147
Nsg30
S'SjapoA'
p4214
sbag1
(g2
g3
NtRp4215
(dp4216
g6
g1
(g7
g3
NtRp4217
(dp4218
g10
g1
(g11
g12
(dtRp4219
sg14
g1
(g11
g12
(dtRp4220
sg16
g1
(g11
g12
(dtRp4221
sg18
g1
(g11
g12
(dtRp4222
sg20
g1
(g11
g12
(dtRp4223
sg22
g1
(g11
g12
(dtRp4224
sbsg24
g25
sg26
g27
((lp4225
g33
ag32
ag29
ag30
atRp4226
sg37
(lp4227
g1
(g2
g3
NtRp4228
(dp4229
g6
g1
(g7
g3
NtRp4230
(dp4231
g10
g1
(g11
g12
(dtRp4232
sg14
g1
(g11
g12
(dtRp4233
sg16
g1
(g11
g12
(dtRp4234
sg18
g1
(g11
g12
(dtRp4235
sg20
g1
(g11
g12
(dtRp4236
sg22
g1
(g11
g12
(dtRp4237
sbsg24
S'Spo'
p4238
sg26
g27
((lp4239
g29
ag30
aS'sequence'
p4240
ag32
ag33
aS'species'
p4241
atRp4242
sg37
(lp4243
sg120
g4215
sg121
S'RWMSTKDLYSRMELPGLNQNVHGMFIIPLGFGNPMGDVYPRVNNTFWLPPLSLEGPGGGWTVYPPLSHSGPAIDLALQLTSSTLGSVNLTNMRGPLFWTSLLLLTLPVLGGFLFDRNLNTFAGGDPLYHLFWFFGHPEVYIIPAFGSHPSLHKFGMWASIALGLVWSHHLFVGLDDRAYFSAATMIAPTGIKFSWLATTGGQPMLAFLILFTGGTGVLNSVDAFHDTYFVVHFHYVLSMGAFGLAYY-WPGLYNLFWFNFPQHFLGGMPRRPYPEAGWNSGSSYQFNPSDDNEPH'
p4244
sg123
F0.12372
sg124
g125
sg33
S'0'
sg126
g1
(g127
g12
(dp4245
g129
I4
sg130
g131
sg132
g133
sg134
g131
sg135
I01
sg34
g136
sg137
g133
sg138
I0
sg139
I0
sg140
I0
sg141
g133
sg35
g131
sg142
I0
stRp4246
sg144
g145
sg146
F1
sg147
Nsg30
S'SpombA'
p4247
sbag1
(g2
g3
NtRp4248
(dp4249
g6
g1
(g7
g3
NtRp4250
(dp4251
g10
g1
(g11
g12
(dtRp4252
sg14
g1
(g11
g12
(dtRp4253
sg16
g1
(g11
g12
(dtRp4254
sg18
g1
(g11
g12
(dtRp4255
sg20
g1
(g11
g12
(dtRp4256
sg22
g1
(g11
g12
(dtRp4257
sbsg24
g25
sg26
g27
((lp4258
g33
ag32
ag29
ag30
atRp4259
sg37
(lp4260
g1
(g2
g3
NtRp4261
(dp4262
g6
g1
(g7
g3
NtRp4263
(dp4264
g10
g1
(g11
g12
(dtRp4265
sg14
g1
(g11
g12
(dtRp4266
sg16
g1
(g11
g12
(dtRp4267
sg18
g1
(g11
g12
(dtRp4268
sg20
g1
(g11
g12
(dtRp4269
sg22
g1
(g11
g12
(dtRp4270
sbsg24
S'Soc'
p4271
sg26
g27
((lp4272
g29
ag30
aS'sequence'
p4273
ag32
ag33
aS'species'
p4274
atRp4275
sg37
(lp4276
sg120
g4248
sg121
S'RWLSTKDLYSRMELPGLNQNVHGMFIIPLGFGNPMGDVYPRVNNTFWLPPLSLEGPGTGWTVYPPLSHSGPAVDLALQLTSSTLGSLNLTNMRGPLFWTSLLLLTLPVLGGFLFDRNLNTFAGGDPLYHLFWFFGHPEVYIIPAFGSHSTLNKFGMCASIALGLVWSHHLFVGLDDRAYFSAATMIAPTGIKFSWLATTGGQPMLAFLILFTGGTGVLNSVDAFHDTYFVVHFHYVLSMGAFGLAYYFWPGLYNLFWFNFPQHFLGGMPRRPYPDAGWNSGSSYQYNPSDDNEPH'
p4277
sg123
F0.03637
sg124
g125
sg33
S'102'
p4278
sg126
g1
(g127
g12
(dp4279
g129
I4
sg130
g131
sg132
g133
sg134
g131
sg135
I01
sg34
g136
sg137
g133
sg138
I0
sg139
I0
sg140
I0
sg141
g133
sg35
g131
sg142
I0
stRp4280
sg144
g145
sg146
F1
sg147
Nsg30
S'SoctoA'
p4281
sbag1
(g2
g3
NtRp4282
(dp4283
g6
g1
(g7
g3
NtRp4284
(dp4285
g10
g1
(g11
g12
(dtRp4286
sg14
g1
(g11
g12
(dtRp4287
sg16
g1
(g11
g12
(dtRp4288
sg18
g1
(g11
g12
(dtRp4289
sg20
g1
(g11
g12
(dtRp4290
sg22
g1
(g11
g12
(dtRp4291
sbsg24
S'Scr'
p4292
sg26
g27
((lp4293
g29
ag30
aS'sequence'
p4294
ag32
ag33
aS'species'
p4295
atRp4296
sg37
(lp4297
sg120
g4248
sg121
S'RWLSTKDLYSRMELPGLNQNVHGMFIIPLGFGNPMGDVYPRVNNTYWLPPLSLEGPGTGWTVYPPLSHSGPSVDLALQLTSSTLGSLNLTNMRGPLFWTSLLLLTLPVLGGFLFDRNLNTFAGGDPLYHLFWFFGHPEVYIIPAFGSHPTLNKFGMCASIALGLVWSHHLFVGLDDRAYFSAATMIAPTGIKFSWLATTGGQPMLAFLILFTGGTGVLNSVDAFHDTYFVVHFHYVLSMGAFGLAYYFWPGLYNLFWFNFPQHFLGGMPRRPYPDAGWNSGSSYQYNPSDDNEPH'
p4298
sg123
F0.036740000000000002
sg124
g125
sg33
S'155'
p4299
sg126
g1
(g127
g12
(dp4300
g129
I4
sg130
g131
sg132
g133
sg134
g131
sg135
I01
sg34
g136
sg137
g133
sg138
I0
sg139
I0
sg140
I0
sg141
g133
sg35
g131
sg142
I0
stRp4301
sg144
g145
sg146
F1
sg147
Nsg30
S'ScryoA'
p4302
sbasg120
g4215
sg123
F0.18453
sg124
g125
sg33
S'120'
p4303
sg126
g1
(g127
g12
(dp4304
g129
I8
sg130
g131
sg132
g133
sg134
g131
sg135
I01
sg34
g171
sg137
g133
sg138
I0
sg139
I0
sg140
I0
sg141
g133
sg35
g131
sg142
I0
stRp4305
sg144
g145
sg146
F0.98999999999999999
sg147
Nsg30
S'NoName'
p4306
sbasg120
g4181
sg123
F0.73307
sg124
g125
sg33
S'44'
p4307
sg126
g1
(g127
g12
(dp4308
g129
I8
sg130
g131
sg132
g133
sg134
g131
sg135
I01
sg34
g171
sg137
g133
sg138
I0
sg139
I0
sg140
I0
sg141
g133
sg35
g131
sg142
I0
stRp4309
sg144
g145
sg146
F0.98999999999999999
sg147
Nsg30
S'NoName'
p4310
sbasg120
g4
sg123
F1.7741899999999999
sg124
g125
sg33
S'113'
p4311
sg126
g1
(g127
g12
(dp4312
g129
I8
sg130
g131
sg132
g133
sg134
g131
sg135
I01
sg34
g171
sg137
g133
sg138
I0
sg139
I0
sg140
I0
sg141
g133
sg35
g131
sg142
I0
stRp4313
sg144
g145
sg146
F1
sg147
Nsg30
S'NoName'
p4314
sbasg31
S'8'
sg120
Nsg123
F0
sg124
g125
sg33
S'138'
p4315
sg34
g171
sg126
g1
(g127
g12
(dp4316
g129
I8
sg130
g131
sg132
g133
sg134
g131
sg135
I01
sg34
g171
sg137
g133
sg138
I0
sg139
I0
sg140
I0
sg141
g133
sg35
S'#833DB4'
p4317
sg142
I0
stRp4318
sg144
g145
sg146
F1
sg147
Nsg35
g4317
sg30
g125
sb.