ccopy_reg
_reconstructor
p1
(cete2.phylo.phylotree
PhyloNode
p2
c__builtin__
object
p3
NtRp4
(dp5
S'_faces'
p6
g1
(cete2.treeview.main
_FaceAreas
p7
g3
NtRp8
(dp9
S'branch-top'
p10
g1
(cete2.treeview.main
FaceContainer
p11
c__builtin__
dict
p12
(dtRp13
sS'float'
p14
g1
(g11
g12
(dtRp15
sS'branch-bottom'
p16
g1
(g11
g12
(dtRp17
sS'aligned'
p18
g1
(g11
g12
(dtRp19
sS'branch-right'
p20
g1
(g11
g12
(dtRp21
sS'float-behind'
p22
g1
(g11
g12
(dtRp23
sbsS'_species'
p24
S'Unknown'
p25
sS'features'
p26
c__builtin__
set
p27
((lp28
S'dist'
p29
aS'name'
p30
aS'bsize'
p31
aS'support'
p32
aS'_nid'
p33
aS'shape'
p34
aS'fgcolor'
p35
atRp36
sS'_children'
p37
(lp38
g1
(g2
g3
NtRp39
(dp40
g6
g1
(g7
g3
NtRp41
(dp42
g10
g1
(g11
g12
(dtRp43
sg14
g1
(g11
g12
(dtRp44
sg16
g1
(g11
g12
(dtRp45
sg18
g1
(g11
g12
(dtRp46
sg20
g1
(g11
g12
(dtRp47
sg22
g1
(g11
g12
(dtRp48
sbsg24
g25
sg26
g27
((lp49
g33
ag32
ag29
ag30
atRp50
sg37
(lp51
g1
(g2
g3
NtRp52
(dp53
g6
g1
(g7
g3
NtRp54
(dp55
g10
g1
(g11
g12
(dtRp56
sg14
g1
(g11
g12
(dtRp57
sg16
g1
(g11
g12
(dtRp58
sg18
g1
(g11
g12
(dtRp59
sg20
g1
(g11
g12
(dtRp60
sg22
g1
(g11
g12
(dtRp61
sbsg24
g25
sg26
g27
((lp62
g33
ag32
ag29
ag30
atRp63
sg37
(lp64
g1
(g2
g3
NtRp65
(dp66
g6
g1
(g7
g3
NtRp67
(dp68
g10
g1
(g11
g12
(dtRp69
sg14
g1
(g11
g12
(dtRp70
sg16
g1
(g11
g12
(dtRp71
sg18
g1
(g11
g12
(dtRp72
sg20
g1
(g11
g12
(dtRp73
sg22
g1
(g11
g12
(dtRp74
sbsg24
g25
sg26
g27
((lp75
g33
ag32
ag29
ag30
atRp76
sg37
(lp77
g1
(g2
g3
NtRp78
(dp79
g6
g1
(g7
g3
NtRp80
(dp81
g10
g1
(g11
g12
(dtRp82
sg14
g1
(g11
g12
(dtRp83
sg16
g1
(g11
g12
(dtRp84
sg18
g1
(g11
g12
(dtRp85
sg20
g1
(g11
g12
(dtRp86
sg22
g1
(g11
g12
(dtRp87
sbsg24
g25
sg26
g27
((lp88
g33
ag32
ag29
ag30
atRp89
sg37
(lp90
g1
(g2
g3
NtRp91
(dp92
g6
g1
(g7
g3
NtRp93
(dp94
g10
g1
(g11
g12
(dtRp95
sg14
g1
(g11
g12
(dtRp96
sg16
g1
(g11
g12
(dtRp97
sg18
g1
(g11
g12
(dtRp98
sg20
g1
(g11
g12
(dtRp99
sg22
g1
(g11
g12
(dtRp100
sbsg24
g25
sg26
g27
((lp101
g33
ag32
ag29
ag30
atRp102
sg37
(lp103
g1
(g2
g3
NtRp104
(dp105
g6
g1
(g7
g3
NtRp106
(dp107
g10
g1
(g11
g12
(dtRp108
sg14
g1
(g11
g12
(dtRp109
sg16
g1
(g11
g12
(dtRp110
sg18
g1
(g11
g12
(dtRp111
sg20
g1
(g11
g12
(dtRp112
sg22
g1
(g11
g12
(dtRp113
sbsg24
S'Yli'
p114
sg26
g27
((lp115
g29
ag30
aS'sequence'
p116
ag32
ag33
aS'species'
p117
atRp118
sg37
(lp119
sS'_up'
p120
g91
sS'sequence'
p121
S'RWLSTKDLYSRLELTGLNQNVHAMFVMPLGFGNPMGDMFARLNNSFWLVPLSLEGAGTGWTVYFPLAHSGPAVDLAFHLSSSLLGAINFTNMRGPLFWTALLLLSLPVLAGTGIDRNFNTFEGGDALYHLFWFFGHPEVYIIPGFGSHSAISKFGMYASIGLGFVWSHHMFVGLDDRAYFTSATMIAPTSIKFSWLATYGGRTALAFIFLFTGGTGVLNSADPFHDSYYVVHFHYVLSMGAFSIGWYLWPGLYNLFWFNFPMHFLGGMPRRNYPDAGWNSGSAYQLGPSGTNEPH'
p122
sS'_dist'
p123
F0.00011
sS'_name'
p124
S'NoName'
p125
sg33
S'176'
p126
sS'_img_style'
p127
g1
(cete2.treeview.main
NodeStyle
p128
g12
(dp129
S'size'
p130
I4
sS'hz_line_color'
p131
S'#000000'
p132
sS'faces_bgcolor'
p133
S'#FFFFFF'
p134
sS'vt_line_color'
p135
g132
sS'draw_descendants'
p136
I01
sg34
S'square'
p137
sS'bgcolor'
p138
g134
sS'hz_line_type'
p139
I0
sS'vt_line_width'
p140
I0
sS'vt_line_type'
p141
I0
sS'node_bgcolor'
p142
g134
sg35
g132
sS'hz_line_width'
p143
I0
stRp144
sS'_speciesFunction'
p145
cete2.phylo.phylotree
_parse_species
p146
sS'_support'
p147
F1
sS'_temp_faces'
p148
Nsg30
S'YlipoB'
p149
sbag1
(g2
g3
NtRp150
(dp151
g6
g1
(g7
g3
NtRp152
(dp153
g10
g1
(g11
g12
(dtRp154
sg14
g1
(g11
g12
(dtRp155
sg16
g1
(g11
g12
(dtRp156
sg18
g1
(g11
g12
(dtRp157
sg20
g1
(g11
g12
(dtRp158
sg22
g1
(g11
g12
(dtRp159
sbsg24
S'Yli'
p160
sg26
g27
((lp161
g29
ag30
aS'sequence'
p162
ag32
ag33
aS'species'
p163
atRp164
sg37
(lp165
sg120
g91
sg121
S'RWLSTKDLYSRLELTGLNQNVHAMFVMPLGFGNPMGDMFARLNNSFWLVPLSLEGAGTGWTVYFPLAHSGPAVDLAFHLSSSLLGAINFTNMRGPLFWTALLLLSLPVLAGTGIDRNFNTFEGGDALYHLFWFFGHPEVYIIPGFGSHSAISKFGMYASIGLGFVWSHHMFVGLDDRAYFTSATMIAPTSIKFSWLATYGGRTALAFIFLFTGGTGVLNSADPFHDSYYVVHFHYVLSMGAFSIGWYLWPGLYNLFWFNFPMHFLGGMPRRNYPDAGWNSGSAYQLGPSGTNEPH'
p166
sg123
F0.00048000000000000001
sg124
g125
sg33
S'186'
p167
sg127
g1
(g128
g12
(dp168
g130
I4
sg131
g132
sg133
g134
sg135
g132
sg136
I01
sg34
g137
sg138
g134
sg139
I0
sg140
I0
sg141
I0
sg142
g134
sg35
g132
sg143
I0
stRp169
sg145
g146
sg147
F1
sg148
Nsg30
S'YlipoA'
p170
sbasg120
g78
sg123
F0.02656
sg124
g125
sg33
S'153'
p171
sg127
g1
(g128
g12
(dp172
g130
I8
sg131
g132
sg133
g134
sg135
g132
sg136
I01
sg34
S'sphere'
p173
sg138
g134
sg139
I0
sg140
I0
sg141
I0
sg142
g134
sg35
g132
sg143
I0
stRp174
sg145
g146
sg147
F1
sg148
Nsg30
S'NoName'
p175
sbag1
(g2
g3
NtRp176
(dp177
g6
g1
(g7
g3
NtRp178
(dp179
g10
g1
(g11
g12
(dtRp180
sg14
g1
(g11
g12
(dtRp181
sg16
g1
(g11
g12
(dtRp182
sg18
g1
(g11
g12
(dtRp183
sg20
g1
(g11
g12
(dtRp184
sg22
g1
(g11
g12
(dtRp185
sbsg24
g25
sg26
g27
((lp186
g33
ag32
ag29
ag30
atRp187
sg37
(lp188
g1
(g2
g3
NtRp189
(dp190
g6
g1
(g7
g3
NtRp191
(dp192
g10
g1
(g11
g12
(dtRp193
sg14
g1
(g11
g12
(dtRp194
sg16
g1
(g11
g12
(dtRp195
sg18
g1
(g11
g12
(dtRp196
sg20
g1
(g11
g12
(dtRp197
sg22
g1
(g11
g12
(dtRp198
sbsg24
S'Cga'
p199
sg26
g27
((lp200
g29
ag30
aS'sequence'
p201
ag32
ag33
aS'species'
p202
atRp203
sg37
(lp204
sg120
g176
sg121
S'RWLSTKDLYSRLELTGLNQNVHAMFVMPLGFGNPMGDMFARLNNSFWLVPLSLEGAGTGWTVYFPLAHSGPAVDLAFHLSSSLLGAINFTNMRGPLFWTALLLLSLPVLAGTGIDRNFNTFEGGDALYHLFWFFGHPEVYIIPGFGSHSAISKFGMYASIGLGFVWSHHMFVGLDDRAYFTSATMIAPTSIKFSWLSTYGGRTALAFIFLFTGGTGVLNSADPFHDSYYVVHFHYVLSMGAFSIGWYLWPGLYNLFWFNFPMHFLGGMPRRNYPDAGWNSGSAYQLGPSGTNEPH'
p205
sg123
F0.016299999999999999
sg124
g125
sg33
S'108'
p206
sg127
g1
(g128
g12
(dp207
g130
I4
sg131
g132
sg133
g134
sg135
g132
sg136
I01
sg34
g137
sg138
g134
sg139
I0
sg140
I0
sg141
I0
sg142
g134
sg35
g132
sg143
I0
stRp208
sg145
g146
sg147
F1
sg148
Nsg30
S'CgallA'
p209
sbag1
(g2
g3
NtRp210
(dp211
g6
g1
(g7
g3
NtRp212
(dp213
g10
g1
(g11
g12
(dtRp214
sg14
g1
(g11
g12
(dtRp215
sg16
g1
(g11
g12
(dtRp216
sg18
g1
(g11
g12
(dtRp217
sg20
g1
(g11
g12
(dtRp218
sg22
g1
(g11
g12
(dtRp219
sbsg24
S'Cde'
p220
sg26
g27
((lp221
g29
ag30
aS'sequence'
p222
ag32
ag33
aS'species'
p223
atRp224
sg37
(lp225
sg120
g176
sg121
S'RWLSTKDLYSRLELTGLNQNVHAMFVMPLGFGNPMGDMFARLNNSFWLVPLSLEGAGTGWTVYFPLAHSGPAVDLAFHLSSSLLGAINFTNMRGPLFWTALLLLSLPVLAGTGIDRNFNTFEGGDALYHLFFFNGHPEVYIIPGFGSHSAISKFGMYASIGLGFVWSHHMFVGLDDRAYFTSATMIAPTSIKFSWLATYGGRTALAFIFLFTGGTGVLNSADPFHDSYYVVHFHYVLSMGAFSIGWYLWPGLYNLFWFNFPMHFLGGMPRRNYPDAGWNSGSAYQLGPSGTNEPH'
p226
sg123
F0.018610000000000002
sg124
g125
sg33
S'216'
p227
sg127
g1
(g128
g12
(dp228
g130
I4
sg131
g132
sg133
g134
sg135
g132
sg136
I01
sg34
g137
sg138
g134
sg139
I0
sg140
I0
sg141
I0
sg142
g134
sg35
g132
sg143
I0
stRp229
sg145
g146
sg147
F1
sg148
Nsg30
S'CdefoA'
p230
sbasg120
g78
sg123
F0.00282
sg124
g125
sg33
S'164'
p231
sg127
g1
(g128
g12
(dp232
g130
I8
sg131
g132
sg133
g134
sg135
g132
sg136
I01
sg34
g173
sg138
g134
sg139
I0
sg140
I0
sg141
I0
sg142
g134
sg35
g132
sg143
I0
stRp233
sg145
g146
sg147
F0.96999999999999997
sg148
Nsg30
S'NoName'
p234
sbasg120
g65
sg123
F0.00479
sg124
g125
sg33
S'144'
p235
sg127
g1
(g128
g12
(dp236
g130
I8
sg131
g132
sg133
g134
sg135
g132
sg136
I01
sg34
g173
sg138
g134
sg139
I0
sg140
I0
sg141
I0
sg142
g134
sg35
g132
sg143
I0
stRp237
sg145
g146
sg147
F0.80000000000000004
sg148
Nsg30
S'NoName'
p238
sbag1
(g2
g3
NtRp239
(dp240
g6
g1
(g7
g3
NtRp241
(dp242
g10
g1
(g11
g12
(dtRp243
sg14
g1
(g11
g12
(dtRp244
sg16
g1
(g11
g12
(dtRp245
sg18
g1
(g11
g12
(dtRp246
sg20
g1
(g11
g12
(dtRp247
sg22
g1
(g11
g12
(dtRp248
sbsg24
S'Cal'
p249
sg26
g27
((lp250
g29
ag30
aS'sequence'
p251
ag32
ag33
aS'species'
p252
atRp253
sg37
(lp254
sg120
g65
sg121
S'RWLSTKDLYSRLELTGLNQNVHAMFVMPLGFGNPMGDMFARLNNSFWLVPMSLEGAGTGWTVYFPLAHSGPAVDLAFHLASSLLGAINFTNMRGPLFWTALLLLSLPVLAGTGIDRNFNTFEGGDALYHLFWFFGHPEVYIIPGFGSHSAISKFGMYASIGLGFVWSHHMFVGLDDRAYFTSATMIAPTSIKFSWLATYGGRTALAFIFLFTGGTGVLNSADPFHDSYYVVHFHYVLSMGAFSIGWYLWPGLYNLFWFNFPMHFLGGMPRRNYPDAGWNSGSAYQLGPSGTNEPH'
p255
sg123
F0.035970000000000002
sg124
g125
sg33
S'1'
sg127
g1
(g128
g12
(dp256
g130
I4
sg131
g132
sg133
g134
sg135
g132
sg136
I01
sg34
g137
sg138
g134
sg139
I0
sg140
I0
sg141
I0
sg142
g134
sg35
g132
sg143
I0
stRp257
sg145
g146
sg147
F1
sg148
Nsg30
S'CalimA'
p258
sbasg120
g52
sg123
F1.1444799999999999
sg124
g125
sg33
S'134'
p259
sg127
g1
(g128
g12
(dp260
g130
I8
sg131
g132
sg133
g134
sg135
g132
sg136
I01
sg34
g173
sg138
g134
sg139
I0
sg140
I0
sg141
I0
sg142
g134
sg35
g132
sg143
I0
stRp261
sg145
g146
sg147
F0.97999999999999998
sg148
Nsg30
S'NoName'
p262
sbag1
(g2
g3
NtRp263
(dp264
g6
g1
(g7
g3
NtRp265
(dp266
g10
g1
(g11
g12
(dtRp267
sg14
g1
(g11
g12
(dtRp268
sg16
g1
(g11
g12
(dtRp269
sg18
g1
(g11
g12
(dtRp270
sg20
g1
(g11
g12
(dtRp271
sg22
g1
(g11
g12
(dtRp272
sbsg24
g25
sg26
g27
((lp273
g33
ag32
ag29
ag30
atRp274
sg37
(lp275
g1
(g2
g3
NtRp276
(dp277
g6
g1
(g7
g3
NtRp278
(dp279
g10
g1
(g11
g12
(dtRp280
sg14
g1
(g11
g12
(dtRp281
sg16
g1
(g11
g12
(dtRp282
sg18
g1
(g11
g12
(dtRp283
sg20
g1
(g11
g12
(dtRp284
sg22
g1
(g11
g12
(dtRp285
sbsg24
g25
sg26
g27
((lp286
g33
ag32
ag29
ag30
atRp287
sg37
(lp288
g1
(g2
g3
NtRp289
(dp290
g6
g1
(g7
g3
NtRp291
(dp292
g10
g1
(g11
g12
(dtRp293
sg14
g1
(g11
g12
(dtRp294
sg16
g1
(g11
g12
(dtRp295
sg18
g1
(g11
g12
(dtRp296
sg20
g1
(g11
g12
(dtRp297
sg22
g1
(g11
g12
(dtRp298
sbsg24
g25
sg26
g27
((lp299
g33
ag32
ag29
ag30
atRp300
sg37
(lp301
g1
(g2
g3
NtRp302
(dp303
g6
g1
(g7
g3
NtRp304
(dp305
g10
g1
(g11
g12
(dtRp306
sg14
g1
(g11
g12
(dtRp307
sg16
g1
(g11
g12
(dtRp308
sg18
g1
(g11
g12
(dtRp309
sg20
g1
(g11
g12
(dtRp310
sg22
g1
(g11
g12
(dtRp311
sbsg24
g25
sg26
g27
((lp312
g33
ag32
ag29
ag30
atRp313
sg37
(lp314
g1
(g2
g3
NtRp315
(dp316
g6
g1
(g7
g3
NtRp317
(dp318
g10
g1
(g11
g12
(dtRp319
sg14
g1
(g11
g12
(dtRp320
sg16
g1
(g11
g12
(dtRp321
sg18
g1
(g11
g12
(dtRp322
sg20
g1
(g11
g12
(dtRp323
sg22
g1
(g11
g12
(dtRp324
sbsg24
S'Mst'
p325
sg26
g27
((lp326
g29
ag30
aS'sequence'
p327
ag32
ag33
aS'species'
p328
atRp329
sg37
(lp330
sg120
g302
sg121
S'RWLSTKDLYSRLELPTLNQNVHAMFVMPSGFGNPMGDMLARLNNSFWLVPVSLEGAGTGWTVYPPLSHSGASVDLVFHMSSSLLGAINFTNMRGTLFWTALLLLSLPVLSGTLLDRNFNTFEGGDPLYHLFWFFGHPEVYIIPGFGSHSTYKKFGMYASMGLGFVWSHHMYVGLDDRAYFTSATMMAPTGVKFSWLATYGGRPFLAFMFLFTGGTGVLNASDAFHDTYYVVHFHYVLSLGAFSLGYYFWPGLYNLFMFNFPLHFLGGMPRRPYPDAGWNSGSSYQLGPDESNEPH'
p331
sg123
F0.087190000000000004
sg124
g125
sg33
S'10'
p332
sg127
g1
(g128
g12
(dp333
g130
I4
sg131
g132
sg133
g134
sg135
g132
sg136
I01
sg34
g137
sg138
g134
sg139
I0
sg140
I0
sg141
I0
sg142
g134
sg35
g132
sg143
I0
stRp334
sg145
g146
sg147
F1
sg148
Nsg30
S'MstarA'
p335
sbag1
(g2
g3
NtRp336
(dp337
g6
g1
(g7
g3
NtRp338
(dp339
g10
g1
(g11
g12
(dtRp340
sg14
g1
(g11
g12
(dtRp341
sg16
g1
(g11
g12
(dtRp342
sg18
g1
(g11
g12
(dtRp343
sg20
g1
(g11
g12
(dtRp344
sg22
g1
(g11
g12
(dtRp345
sbsg24
S'Min'
p346
sg26
g27
((lp347
g29
ag30
aS'sequence'
p348
ag32
ag33
aS'species'
p349
atRp350
sg37
(lp351
sg120
g302
sg121
S'RWLSTKDLYSRLELPTLNQNVHAMFVMPAGFGNPMGDMLARLNNSFWLVPVSLEGAGTGWTVYPPLSHSGPSVDLVFHISSSLLGSMNFTNMRGTLFWTSLLLLSLPVLSGTLLDRNFNTFEGGDPLYHLFYKMMLFSMYMMPGFGSHSAYKKFGMYASIGLGFVWSHHMYVGLDDRAYFTSATMIAPTGVKFSWLATYGGRPFLAFMFLFTGGTGVLNASDAFHDTYYVVHFHYVLSLGAFSLGYYFWPGLYNLFTFNFPLHFLGGMPRRPYPDAGWNSGSSYQLGPDESNEPH'
p352
sg123
F0.040719999999999999
sg124
g125
sg33
S'11'
p353
sg127
g1
(g128
g12
(dp354
g130
I4
sg131
g132
sg133
g134
sg135
g132
sg136
I01
sg34
g137
sg138
g134
sg139
I0
sg140
I0
sg141
I0
sg142
g134
sg35
g132
sg143
I0
stRp355
sg145
g146
sg147
F1
sg148
Nsg30
S'MingeA'
p356
sbasg120
g289
sg123
F0.037420000000000002
sg124
g125
sg33
S'5'
sg127
g1
(g128
g12
(dp357
g130
I8
sg131
g132
sg133
g134
sg135
g132
sg136
I01
sg34
g173
sg138
g134
sg139
I0
sg140
I0
sg141
I0
sg142
g134
sg35
g132
sg143
I0
stRp358
sg145
g146
sg147
F0.98999999999999999
sg148
Nsg30
S'NoName'
p359
sbag1
(g2
g3
NtRp360
(dp361
g6
g1
(g7
g3
NtRp362
(dp363
g10
g1
(g11
g12
(dtRp364
sg14
g1
(g11
g12
(dtRp365
sg16
g1
(g11
g12
(dtRp366
sg18
g1
(g11
g12
(dtRp367
sg20
g1
(g11
g12
(dtRp368
sg22
g1
(g11
g12
(dtRp369
sbsg24
g25
sg26
g27
((lp370
g33
ag32
ag29
ag30
atRp371
sg37
(lp372
g1
(g2
g3
NtRp373
(dp374
g6
g1
(g7
g3
NtRp375
(dp376
g10
g1
(g11
g12
(dtRp377
sg14
g1
(g11
g12
(dtRp378
sg16
g1
(g11
g12
(dtRp379
sg18
g1
(g11
g12
(dtRp380
sg20
g1
(g11
g12
(dtRp381
sg22
g1
(g11
g12
(dtRp382
sbsg24
g25
sg26
g27
((lp383
g33
ag32
ag29
ag30
atRp384
sg37
(lp385
g1
(g2
g3
NtRp386
(dp387
g6
g1
(g7
g3
NtRp388
(dp389
g10
g1
(g11
g12
(dtRp390
sg14
g1
(g11
g12
(dtRp391
sg16
g1
(g11
g12
(dtRp392
sg18
g1
(g11
g12
(dtRp393
sg20
g1
(g11
g12
(dtRp394
sg22
g1
(g11
g12
(dtRp395
sbsg24
S'Mte'
p396
sg26
g27
((lp397
g29
ag30
aS'sequence'
p398
ag32
ag33
aS'species'
p399
atRp400
sg37
(lp401
sg120
g373
sg121
S'RWLSTKDLYSRLELPTLNQNVHAMFVMPAGFGNPMGDMLARLNNSFWLVPLSLEGAGTGWTVYPPLSHSGPSVDMVFHISSSLLGAINFTNMRGTLFWTALLLLSLPVLSGTLLDRNFNTFEGGDPLYHLFWFFGHPEVYIIPGFGSHSAYKKFGMYASIGLGFVWSHHMYVGLDDRAYFTSATMIAPTGVKFSWLATYGGRPFLAFIFLFTGGTGVLNASDAFHDTYYVVHFHYVLSLGAFSLGYYFWPGLYNLFYFNFPMHALGGMPRRPYPDAGWNSGSSYQLGPDESNEPH'
p402
sg123
F0.042599999999999999
sg124
g125
sg33
S'17'
p403
sg127
g1
(g128
g12
(dp404
g130
I4
sg131
g132
sg133
g134
sg135
g132
sg136
I01
sg34
g137
sg138
g134
sg139
I0
sg140
I0
sg141
I0
sg142
g134
sg35
g132
sg143
I0
stRp405
sg145
g146
sg147
F1
sg148
Nsg30
S'MtetrA'
p406
sbag1
(g2
g3
NtRp407
(dp408
g6
g1
(g7
g3
NtRp409
(dp410
g10
g1
(g11
g12
(dtRp411
sg14
g1
(g11
g12
(dtRp412
sg16
g1
(g11
g12
(dtRp413
sg18
g1
(g11
g12
(dtRp414
sg20
g1
(g11
g12
(dtRp415
sg22
g1
(g11
g12
(dtRp416
sbsg24
g25
sg26
g27
((lp417
g33
ag32
ag29
ag30
atRp418
sg37
(lp419
g1
(g2
g3
NtRp420
(dp421
g6
g1
(g7
g3
NtRp422
(dp423
g10
g1
(g11
g12
(dtRp424
sg14
g1
(g11
g12
(dtRp425
sg16
g1
(g11
g12
(dtRp426
sg18
g1
(g11
g12
(dtRp427
sg20
g1
(g11
g12
(dtRp428
sg22
g1
(g11
g12
(dtRp429
sbsg24
S'Mma'
p430
sg26
g27
((lp431
g29
ag30
aS'sequence'
p432
ag32
ag33
aS'species'
p433
atRp434
sg37
(lp435
sg120
g407
sg121
S'RWLSTKDLYSRLELPTLNQNVHAMFVMPAGFGNPMGDMLARLNNSFWLVPLSLEGPGTGWTVYPPLSHSGPSVDMVFHISSSLLGAINFTNMRGTLFWTALLLLSLPVLSGTLLDRNFNTFEGGDPLYHLFWFFGHPEVYIIPGFGSHSAYKKFGMYASIGLGFVWSHHMYVGLDDRAYFTSATMIAPTGVKFSWLATYGGRPFLAFIFLFTGGTGVLNASDAFHDSYYVVHFHYVLSLGAFSLGYYFWPGLYNLFFFNFPMHALGGMPRRPYPDAGWNSGSSYQLGPDESNEPH'
p436
sg123
F0.00055000000000000003
sg124
g125
sg33
S'20'
p437
sg127
g1
(g128
g12
(dp438
g130
I4
sg131
g132
sg133
g134
sg135
g132
sg136
I01
sg34
g137
sg138
g134
sg139
I0
sg140
I0
sg141
I0
sg142
g134
sg35
g132
sg143
I0
stRp439
sg145
g146
sg147
F1
sg148
Nsg30
S'MmagnB'
p440
sbag1
(g2
g3
NtRp441
(dp442
g6
g1
(g7
g3
NtRp443
(dp444
g10
g1
(g11
g12
(dtRp445
sg14
g1
(g11
g12
(dtRp446
sg16
g1
(g11
g12
(dtRp447
sg18
g1
(g11
g12
(dtRp448
sg20
g1
(g11
g12
(dtRp449
sg22
g1
(g11
g12
(dtRp450
sbsg24
S'Mma'
p451
sg26
g27
((lp452
g29
ag30
aS'sequence'
p453
ag32
ag33
aS'species'
p454
atRp455
sg37
(lp456
sg120
g407
sg121
S'RWLSTKDLYSRLELPTLNQNVHAMFVMPAGFGNPMGDMLARLNNSFWLVPLSLEGPGTGWTVYPPLSHSGPSVDMVFHISSSLLGAINFTNMRGTLFWTALLLLSLPVLSGTLLDRNFNTFEGGDPLYHLFWFFGHPEVYIIPGFGSHSAYKKFGMYASIGLGFVWSHHMYVGLDDRAYFTSATMIAPTGVKFSWLATYGGRPFLAFIFLFTGGTGVLNASDAFHDSYYVVHFHYVLSLGAFSLGYYFWPGLYNLFFFNFPMHALGGMPRRPYPDAGWNSGSSYQLGPDESNEPH'
p457
sg123
F0.00088000000000000003
sg124
g125
sg33
S'22'
p458
sg127
g1
(g128
g12
(dp459
g130
I4
sg131
g132
sg133
g134
sg135
g132
sg136
I01
sg34
g137
sg138
g134
sg139
I0
sg140
I0
sg141
I0
sg142
g134
sg35
g132
sg143
I0
stRp460
sg145
g146
sg147
F1
sg148
Nsg30
S'MmagnA'
p461
sbasg120
g373
sg123
F0.011140000000000001
sg124
g125
sg33
S'15'
p462
sg127
g1
(g128
g12
(dp463
g130
I8
sg131
g132
sg133
g134
sg135
g132
sg136
I01
sg34
g173
sg138
g134
sg139
I0
sg140
I0
sg141
I0
sg142
g134
sg35
g132
sg143
I0
stRp464
sg145
g146
sg147
F0.98999999999999999
sg148
Nsg30
S'NoName'
p465
sbasg120
g360
sg123
F0.11189
sg124
g125
sg33
S'14'
p466
sg127
g1
(g128
g12
(dp467
g130
I8
sg131
g132
sg133
g134
sg135
g132
sg136
I01
sg34
g173
sg138
g134
sg139
I0
sg140
I0
sg141
I0
sg142
g134
sg35
g132
sg143
I0
stRp468
sg145
g146
sg147
F0.98999999999999999
sg148
Nsg30
S'NoName'
p469
sbag1
(g2
g3
NtRp470
(dp471
g6
g1
(g7
g3
NtRp472
(dp473
g10
g1
(g11
g12
(dtRp474
sg14
g1
(g11
g12
(dtRp475
sg16
g1
(g11
g12
(dtRp476
sg18
g1
(g11
g12
(dtRp477
sg20
g1
(g11
g12
(dtRp478
sg22
g1
(g11
g12
(dtRp479
sbsg24
g25
sg26
g27
((lp480
g33
ag32
ag29
ag30
atRp481
sg37
(lp482
g1
(g2
g3
NtRp483
(dp484
g6
g1
(g7
g3
NtRp485
(dp486
g10
g1
(g11
g12
(dtRp487
sg14
g1
(g11
g12
(dtRp488
sg16
g1
(g11
g12
(dtRp489
sg18
g1
(g11
g12
(dtRp490
sg20
g1
(g11
g12
(dtRp491
sg22
g1
(g11
g12
(dtRp492
sbsg24
S'Scl'
p493
sg26
g27
((lp494
g29
ag30
aS'sequence'
p495
ag32
ag33
aS'species'
p496
atRp497
sg37
(lp498
sg120
g470
sg121
S'RWLSTKDLYSRLELPTLNQNVHAMFVMPAGFGNPMGDMLARLNNSFWLVPLSLEGPGTGWTVYPPLSHSGPSVDMVFHMSSSLLGAINFTNMRGTLFWTALLLLSLPVLAGTLLDRNFNTFEGGDPLYHLFWFFGHPEVYMIPGFGSHSTYKKFGMYASMGLGFVWSHHMYVGLDDRAYFTAATMIAPTGVKFSWLATYGGRPFLTFMFLFTGGTGVLNASDAFHDTYYVVHFHYVLSLGAFSLGYYFWPGLYNLFMFNFPLHFLGGMPRRPYPDAGWNSGSSYQLGPDESNEPH'
p499
sg123
F0.020899999999999998
sg124
g125
sg33
S'25'
p500
sg127
g1
(g128
g12
(dp501
g130
I4
sg131
g132
sg133
g134
sg135
g132
sg136
I01
sg34
g137
sg138
g134
sg139
I0
sg140
I0
sg141
I0
sg142
g134
sg35
g132
sg143
I0
stRp502
sg145
g146
sg147
F1
sg148
Nsg30
S'SclavA'
p503
sbag1
(g2
g3
NtRp504
(dp505
g6
g1
(g7
g3
NtRp506
(dp507
g10
g1
(g11
g12
(dtRp508
sg14
g1
(g11
g12
(dtRp509
sg16
g1
(g11
g12
(dtRp510
sg18
g1
(g11
g12
(dtRp511
sg20
g1
(g11
g12
(dtRp512
sg22
g1
(g11
g12
(dtRp513
sbsg24
S'Msp'
p514
sg26
g27
((lp515
g29
ag30
aS'sequence'
p516
ag32
ag33
aS'species'
p517
atRp518
sg37
(lp519
sg120
g470
sg121
S'RWLSTKDLYSRLELPTLNQNVHAMFVMPAGFGNPMGDMLARLNNSFWLVPLSLEGPGTGWTVYPPLSHSGPSVDMVFHMSSSLLGAMNFTNMRGTLFWTALLLLSLPVLAGTLLDRNFNTFEGGDPLYHLFWFFGHPEVYMIPGFGSHSTYKKFGMYASMGLGFVWSHHMYVGLDDRAYFTAATMIAPTGVKFSWLATYGGRPFLTFMFLFTGGTGVLNASDAFHDTYYVVHFHYVLSLGAFSLGYYFWPGLYNLFMFNFPLHFLGGMPRRPYPDAGWNSGSSYQLGPDESNEPH'
p520
sg123
F0.13538
sg124
g125
sg33
S'27'
p521
sg127
g1
(g128
g12
(dp522
g130
I4
sg131
g132
sg133
g134
sg135
g132
sg136
I01
sg34
g137
sg138
g134
sg139
I0
sg140
I0
sg141
I0
sg142
g134
sg35
g132
sg143
I0
stRp523
sg145
g146
sg147
F1
sg148
Nsg30
S'MspicA'
p524
sbasg120
g360
sg123
F0.10536
sg124
g125
sg33
S'18'
p525
sg127
g1
(g128
g12
(dp526
g130
I8
sg131
g132
sg133
g134
sg135
g132
sg136
I01
sg34
g173
sg138
g134
sg139
I0
sg140
I0
sg141
I0
sg142
g134
sg35
g132
sg143
I0
stRp527
sg145
g146
sg147
F0.98999999999999999
sg148
Nsg30
S'NoName'
p528
sbasg120
g289
sg123
F0.03209
sg124
g125
sg33
S'8'
sg127
g1
(g128
g12
(dp529
g130
I8
sg131
g132
sg133
g134
sg135
g132
sg136
I01
sg34
g173
sg138
g134
sg139
I0
sg140
I0
sg141
I0
sg142
g134
sg35
g132
sg143
I0
stRp530
sg145
g146
sg147
F0.98999999999999999
sg148
Nsg30
S'NoName'
p531
sbasg120
g276
sg123
F0.32869999999999999
sg124
g125
sg33
S'3'
sg127
g1
(g128
g12
(dp532
g130
I8
sg131
g132
sg133
g134
sg135
g132
sg136
I01
sg34
g173
sg138
g134
sg139
I0
sg140
I0
sg141
I0
sg142
g134
sg35
g132
sg143
I0
stRp533
sg145
g146
sg147
F0.98999999999999999
sg148
Nsg30
S'NoName'
p534
sbag1
(g2
g3
NtRp535
(dp536
g6
g1
(g7
g3
NtRp537
(dp538
g10
g1
(g11
g12
(dtRp539
sg14
g1
(g11
g12
(dtRp540
sg16
g1
(g11
g12
(dtRp541
sg18
g1
(g11
g12
(dtRp542
sg20
g1
(g11
g12
(dtRp543
sg22
g1
(g11
g12
(dtRp544
sbsg24
g25
sg26
g27
((lp545
g33
ag32
ag29
ag30
atRp546
sg37
(lp547
g1
(g2
g3
NtRp548
(dp549
g6
g1
(g7
g3
NtRp550
(dp551
g10
g1
(g11
g12
(dtRp552
sg14
g1
(g11
g12
(dtRp553
sg16
g1
(g11
g12
(dtRp554
sg18
g1
(g11
g12
(dtRp555
sg20
g1
(g11
g12
(dtRp556
sg22
g1
(g11
g12
(dtRp557
sbsg24
g25
sg26
g27
((lp558
g33
ag32
ag29
ag30
atRp559
sg37
(lp560
g1
(g2
g3
NtRp561
(dp562
g6
g1
(g7
g3
NtRp563
(dp564
g10
g1
(g11
g12
(dtRp565
sg14
g1
(g11
g12
(dtRp566
sg16
g1
(g11
g12
(dtRp567
sg18
g1
(g11
g12
(dtRp568
sg20
g1
(g11
g12
(dtRp569
sg22
g1
(g11
g12
(dtRp570
sbsg24
S'Cze'
p571
sg26
g27
((lp572
g29
ag30
aS'sequence'
p573
ag32
ag33
aS'species'
p574
atRp575
sg37
(lp576
sg120
g548
sg121
S'SWLSTQNLYSRIELPNLNQNVHAMFVMPTGLANPQGDTFPRMNNAFVLLPMSLDGPGSGWTLYPPLTHSGSSMDMAFHLSSSIFGAINLTNMRGPLFWTALMMLALPVLAGTLLDRNFNTFVGGDPLYHIFWFFGHPEVYIIPVFGSQQVYKKFGMYASIGLGFVWSHHMFVGLDDRAYFSGASLIAPTGSKFSWLATYGGRPLLAFMVLFTGGTGVMNSSDMFHDTYYVVHFHYVLSLGVFGVAYYFWPGLYNLFWFNFPLHFLGGLPRRPYPDAGWNSGSSYQFGPDESNEPH'
p577
sg123
F1.5682799999999999
sg124
g125
sg33
S'32'
p578
sg127
g1
(g128
g12
(dp579
g130
I4
sg131
g132
sg133
g134
sg135
g132
sg136
I01
sg34
g137
sg138
g134
sg139
I0
sg140
I0
sg141
I0
sg142
g134
sg35
g132
sg143
I0
stRp580
sg145
g146
sg147
F1
sg148
Nsg30
S'CzempA'
p581
sbag1
(g2
g3
NtRp582
(dp583
g6
g1
(g7
g3
NtRp584
(dp585
g10
g1
(g11
g12
(dtRp586
sg14
g1
(g11
g12
(dtRp587
sg16
g1
(g11
g12
(dtRp588
sg18
g1
(g11
g12
(dtRp589
sg20
g1
(g11
g12
(dtRp590
sg22
g1
(g11
g12
(dtRp591
sbsg24
g25
sg26
g27
((lp592
g33
ag32
ag29
ag30
atRp593
sg37
(lp594
g1
(g2
g3
NtRp595
(dp596
g6
g1
(g7
g3
NtRp597
(dp598
g10
g1
(g11
g12
(dtRp599
sg14
g1
(g11
g12
(dtRp600
sg16
g1
(g11
g12
(dtRp601
sg18
g1
(g11
g12
(dtRp602
sg20
g1
(g11
g12
(dtRp603
sg22
g1
(g11
g12
(dtRp604
sbsg24
S'Csa'
p605
sg26
g27
((lp606
g29
ag30
aS'sequence'
p607
ag32
ag33
aS'species'
p608
atRp609
sg37
(lp610
sg120
g582
sg121
S'----------RLELPNLNQNVHAMFVMPSGFGNPMGDMLARLNNSFWLVPLSLDGPGTGWTMYPPLSHSGASVDLVFHISSSLLGAMNFTNMRGTLFWTALLLLSLPVLSGTLLDRNFNTFEGGDMLYHMFWFFGHPEVYMMPGFGSQSVYKKFGMYASMGLGFVWSHHMFVGLDDRAYFTAATLMAPTGVKFSWLASYGGRPLLAFMFLFTGGTGVLNASDAFHDTYYVVHFHYVLSLGAFSLGYYFWPGLYNLFWFNFPQHFLGAMPRRPYPDAGWNSGSSYQMGPDFSNEPH'
p611
sg123
F0.65920000000000001
sg124
g125
sg33
S'35'
p612
sg127
g1
(g128
g12
(dp613
g130
I4
sg131
g132
sg133
g134
sg135
g132
sg136
I01
sg34
g137
sg138
g134
sg139
I0
sg140
I0
sg141
I0
sg142
g134
sg35
g132
sg143
I0
stRp614
sg145
g146
sg147
F1
sg148
Nsg30
S'CsantA'
p615
sbag1
(g2
g3
NtRp616
(dp617
g6
g1
(g7
g3
NtRp618
(dp619
g10
g1
(g11
g12
(dtRp620
sg14
g1
(g11
g12
(dtRp621
sg16
g1
(g11
g12
(dtRp622
sg18
g1
(g11
g12
(dtRp623
sg20
g1
(g11
g12
(dtRp624
sg22
g1
(g11
g12
(dtRp625
sbsg24
S'Csa'
p626
sg26
g27
((lp627
g29
ag30
aS'sequence'
p628
ag32
ag33
aS'species'
p629
atRp630
sg37
(lp631
sg120
g582
sg121
S'RWLSTKDLYSRLELPAMSQNVHAMFVMPSGFANPMGDTLPRVNNAAILMPMSLEGPGTGWTVYPPLSHSGVSVDLVFHISSSLAGAMNLTNMRGPLFWTALLLLSLPVLAGTLIDRNFNTFDGGDVLYHLFWFFGHPEVYIIPGFGSESRYNKFGMYASIGLGFVWSHHMYVGLDDRSYFTAATLIAPTGVKFSWMATFGGRPFLTFLALFTGGTGVLNASDAFHDTYYVVHFHYVLSLGAFSMGYYYWPGLYNLFWFNFPQHFLGGQPRRSYPDAGWNSGSSYQLGPDESNEPH'
p632
sg123
F1.3581099999999999
sg124
g125
sg33
S'37'
p633
sg127
g1
(g128
g12
(dp634
g130
I4
sg131
g132
sg133
g134
sg135
g132
sg136
I01
sg34
g137
sg138
g134
sg139
I0
sg140
I0
sg141
I0
sg142
g134
sg35
g132
sg143
I0
stRp635
sg145
g146
sg147
F1
sg148
Nsg30
S'CsalmA'
p636
sbasg120
g548
sg123
F0.19968
sg124
g125
sg33
S'30'
p637
sg127
g1
(g128
g12
(dp638
g130
I8
sg131
g132
sg133
g134
sg135
g132
sg136
I01
sg34
g173
sg138
g134
sg139
I0
sg140
I0
sg141
I0
sg142
g134
sg35
g132
sg143
I0
stRp639
sg145
g146
sg147
F0.97999999999999998
sg148
Nsg30
S'NoName'
p640
sbasg120
g535
sg123
F0.14363999999999999
sg124
g125
sg33
S'28'
p641
sg127
g1
(g128
g12
(dp642
g130
I8
sg131
g132
sg133
g134
sg135
g132
sg136
I01
sg34
g173
sg138
g134
sg139
I0
sg140
I0
sg141
I0
sg142
g134
sg35
g132
sg143
I0
stRp643
sg145
g146
sg147
F0.93000000000000005
sg148
Nsg30
S'NoName'
p644
sbag1
(g2
g3
NtRp645
(dp646
g6
g1
(g7
g3
NtRp647
(dp648
g10
g1
(g11
g12
(dtRp649
sg14
g1
(g11
g12
(dtRp650
sg16
g1
(g11
g12
(dtRp651
sg18
g1
(g11
g12
(dtRp652
sg20
g1
(g11
g12
(dtRp653
sg22
g1
(g11
g12
(dtRp654
sbsg24
S'Bar'
p655
sg26
g27
((lp656
g29
ag30
aS'sequence'
p657
ag32
ag33
aS'species'
p658
atRp659
sg37
(lp660
sg120
g535
sg121
S'RWLSTKDLYSRLELPNLNQNSHAMFVMPTGFGNPMGDMLSRLNNSFWLVPLSLEGPGTGWTVYPPLSHSGPSVDLVFHVSSSLLGAMNFTNMRGTLFWTVLLLLALPVLAGTLLDRNFNTFEGGDPLYHMFWFFGHPEVYIIPGFGSQAVYNKFGMYASIGLGFVWSHHMYVGMDDRAYFTAATLIAPTGVKFSWLASYGGRPLLTFIGLFTGGTGVLNAADAFHDSYYVVHFHYVLSLGAFSLGYYFWPGLYNLFWFNFPQHFLGSMPRRPYPDAGWNSGSSVQLGPDVNNEPH'
p661
sg123
F0.74575000000000002
sg124
g125
sg33
S'38'
p662
sg127
g1
(g128
g12
(dp663
g130
I4
sg131
g132
sg133
g134
sg135
g132
sg136
I01
sg34
g137
sg138
g134
sg139
I0
sg140
I0
sg141
I0
sg142
g134
sg35
g132
sg143
I0
stRp664
sg145
g146
sg147
F1
sg148
Nsg30
S'BarxA'
p665
sbasg120
g276
sg123
F0.25233
sg124
g125
sg33
S'24'
p666
sg127
g1
(g128
g12
(dp667
g130
I8
sg131
g132
sg133
g134
sg135
g132
sg136
I01
sg34
g173
sg138
g134
sg139
I0
sg140
I0
sg141
I0
sg142
g134
sg35
g132
sg143
I0
stRp668
sg145
g146
sg147
F0.97999999999999998
sg148
Nsg30
S'NoName'
p669
sbasg120
g263
sg123
F0.42224
sg124
g125
sg33
S'2'
sg127
g1
(g128
g12
(dp670
g130
I8
sg131
g132
sg133
g134
sg135
g132
sg136
I01
sg34
g173
sg138
g134
sg139
I0
sg140
I0
sg141
I0
sg142
g134
sg35
g132
sg143
I0
stRp671
sg145
g146
sg147
F0.97999999999999998
sg148
Nsg30
S'NoName'
p672
sbag1
(g2
g3
NtRp673
(dp674
g6
g1
(g7
g3
NtRp675
(dp676
g10
g1
(g11
g12
(dtRp677
sg14
g1
(g11
g12
(dtRp678
sg16
g1
(g11
g12
(dtRp679
sg18
g1
(g11
g12
(dtRp680
sg20
g1
(g11
g12
(dtRp681
sg22
g1
(g11
g12
(dtRp682
sbsg24
g25
sg26
g27
((lp683
g33
ag32
ag29
ag30
atRp684
sg37
(lp685
g1
(g2
g3
NtRp686
(dp687
g6
g1
(g7
g3
NtRp688
(dp689
g10
g1
(g11
g12
(dtRp690
sg14
g1
(g11
g12
(dtRp691
sg16
g1
(g11
g12
(dtRp692
sg18
g1
(g11
g12
(dtRp693
sg20
g1
(g11
g12
(dtRp694
sg22
g1
(g11
g12
(dtRp695
sbsg24
g25
sg26
g27
((lp696
g33
ag32
ag29
ag30
atRp697
sg37
(lp698
g1
(g2
g3
NtRp699
(dp700
g6
g1
(g7
g3
NtRp701
(dp702
g10
g1
(g11
g12
(dtRp703
sg14
g1
(g11
g12
(dtRp704
sg16
g1
(g11
g12
(dtRp705
sg18
g1
(g11
g12
(dtRp706
sg20
g1
(g11
g12
(dtRp707
sg22
g1
(g11
g12
(dtRp708
sbsg24
g25
sg26
g27
((lp709
g33
ag32
ag29
ag30
atRp710
sg37
(lp711
g1
(g2
g3
NtRp712
(dp713
g6
g1
(g7
g3
NtRp714
(dp715
g10
g1
(g11
g12
(dtRp716
sg14
g1
(g11
g12
(dtRp717
sg16
g1
(g11
g12
(dtRp718
sg18
g1
(g11
g12
(dtRp719
sg20
g1
(g11
g12
(dtRp720
sg22
g1
(g11
g12
(dtRp721
sbsg24
g25
sg26
g27
((lp722
g33
ag32
ag29
ag30
atRp723
sg37
(lp724
g1
(g2
g3
NtRp725
(dp726
g6
g1
(g7
g3
NtRp727
(dp728
g10
g1
(g11
g12
(dtRp729
sg14
g1
(g11
g12
(dtRp730
sg16
g1
(g11
g12
(dtRp731
sg18
g1
(g11
g12
(dtRp732
sg20
g1
(g11
g12
(dtRp733
sg22
g1
(g11
g12
(dtRp734
sbsg24
S'Mfa'
p735
sg26
g27
((lp736
g29
ag30
aS'sequence'
p737
ag32
ag33
aS'species'
p738
atRp739
sg37
(lp740
sg120
g712
sg121
S'RWLSTKDLYSRLELGNLNQNVHAMFVMPLGFGNPLGDMFARLNNSFWLPPLSLEGAGTGWTVYPPLSHSGPSVDLAFHLTSSLLGAINFTNMRGPLFWTALLLLSLPVLAGTLLDRNFNTFEGGDPLYHLFWFFGHPEVYIIPGFGSHSTYKKFGMYASIGLGFVWSHHMYVGLDDRAYFTSATMIAPTGIKFSWLATYGGRPMLAFLFLFTGGTGVLNASDAFHDTYFVVHFHYVLSMGAFSLAYYYWPGLYNLFWFNFPMHFLGGMPRRPYPDAGWNSGSSYQMGPDESNEPH'
p741
sg123
F0.14163999999999999
sg124
g125
sg33
S'47'
p742
sg127
g1
(g128
g12
(dp743
g130
I4
sg131
g132
sg133
g134
sg135
g132
sg136
I01
sg34
g137
sg138
g134
sg139
I0
sg140
I0
sg141
I0
sg142
g134
sg35
g132
sg143
I0
stRp744
sg145
g146
sg147
F1
sg148
Nsg30
S'MfariB'
p745
sbag1
(g2
g3
NtRp746
(dp747
g6
g1
(g7
g3
NtRp748
(dp749
g10
g1
(g11
g12
(dtRp750
sg14
g1
(g11
g12
(dtRp751
sg16
g1
(g11
g12
(dtRp752
sg18
g1
(g11
g12
(dtRp753
sg20
g1
(g11
g12
(dtRp754
sg22
g1
(g11
g12
(dtRp755
sbsg24
S'Csa'
p756
sg26
g27
((lp757
g29
ag30
aS'sequence'
p758
ag32
ag33
aS'species'
p759
atRp760
sg37
(lp761
sg120
g712
sg121
S'RWLSTKDLYSRLELGNFNQNVHAMFVMPLGFGNPLGDMFARLNNSFWLPPLSLEGAGTGWTVYPPLSHSGPSVDLAFHLTSSLLGAINFTNMRGPLFWTALLLLSLPVLAATLLDRNFNTFEGGDPLYHLFWFFGHPEVYIIPGFGSHSTYKKFGMYASMGLGFVWSHHMYVGLDDRAYFTSATMIAPTGMKFSWLATYGGRPMLAFLFLFTGGTGVLNASDAFHDTYYVVHFHYVLSMGAFSLAYYYWPGLYNWFWFNFPMHFLGGMPRRPYPDAGWNSGSSYQMGPDESNEPH'
p762
sg123
F0.069970000000000004
sg124
g125
sg33
S'48'
p763
sg127
g1
(g128
g12
(dp764
g130
I4
sg131
g132
sg133
g134
sg135
g132
sg136
I01
sg34
g137
sg138
g134
sg139
I0
sg140
I0
sg141
I0
sg142
g134
sg35
g132
sg143
I0
stRp765
sg145
g146
sg147
F1
sg148
Nsg30
S'CsakeA'
p766
sbasg120
g699
sg123
F0.048980000000000003
sg124
g125
sg33
S'43'
p767
sg127
g1
(g128
g12
(dp768
g130
I8
sg131
g132
sg133
g134
sg135
g132
sg136
I01
sg34
g173
sg138
g134
sg139
I0
sg140
I0
sg141
I0
sg142
g134
sg35
g132
sg143
I0
stRp769
sg145
g146
sg147
F0.98999999999999999
sg148
Nsg30
S'NoName'
p770
sbag1
(g2
g3
NtRp771
(dp772
g6
g1
(g7
g3
NtRp773
(dp774
g10
g1
(g11
g12
(dtRp775
sg14
g1
(g11
g12
(dtRp776
sg16
g1
(g11
g12
(dtRp777
sg18
g1
(g11
g12
(dtRp778
sg20
g1
(g11
g12
(dtRp779
sg22
g1
(g11
g12
(dtRp780
sbsg24
g25
sg26
g27
((lp781
g33
ag32
ag29
ag30
atRp782
sg37
(lp783
g1
(g2
g3
NtRp784
(dp785
g6
g1
(g7
g3
NtRp786
(dp787
g10
g1
(g11
g12
(dtRp788
sg14
g1
(g11
g12
(dtRp789
sg16
g1
(g11
g12
(dtRp790
sg18
g1
(g11
g12
(dtRp791
sg20
g1
(g11
g12
(dtRp792
sg22
g1
(g11
g12
(dtRp793
sbsg24
g25
sg26
g27
((lp794
g33
ag32
ag29
ag30
atRp795
sg37
(lp796
g1
(g2
g3
NtRp797
(dp798
g6
g1
(g7
g3
NtRp799
(dp800
g10
g1
(g11
g12
(dtRp801
sg14
g1
(g11
g12
(dtRp802
sg16
g1
(g11
g12
(dtRp803
sg18
g1
(g11
g12
(dtRp804
sg20
g1
(g11
g12
(dtRp805
sg22
g1
(g11
g12
(dtRp806
sbsg24
S'Mfa'
p807
sg26
g27
((lp808
g29
ag30
aS'sequence'
p809
ag32
ag33
aS'species'
p810
atRp811
sg37
(lp812
sg120
g784
sg121
S'RWLSTKDLYSRAELGNFNHNVHAMFVMPLGFGNPMGDMFARLNNSFWLPPLSLEGAGTGWTVYPPLSHSGPSVDLAFHLTSSLLGAMNFTNMRGPLFWTALLLLSLPVLAGTLLDRNFNTFEGGDPLYHLFWFFGHPEVYIIPGFGSHSTYKKFGMYASMGLGFVWSHHMYVGLDDRAYFTSATMMAPTGIKFSWLATYGGRPMLAFLFLFTGGTGVLNASDAFHDTYYMYHFHYVLSMGAFSLGYYYWPGLYNWFWFNFPMHFLGGMPRRPYPDAGWNSGSSKQLGPDESNEPH'
p813
sg123
F0.29086000000000001
sg124
g125
sg33
S'55'
p814
sg127
g1
(g128
g12
(dp815
g130
I4
sg131
g132
sg133
g134
sg135
g132
sg136
I01
sg34
g137
sg138
g134
sg139
I0
sg140
I0
sg141
I0
sg142
g134
sg35
g132
sg143
I0
stRp816
sg145
g146
sg147
F1
sg148
Nsg30
S'MfariA'
p817
sbag1
(g2
g3
NtRp818
(dp819
g6
g1
(g7
g3
NtRp820
(dp821
g10
g1
(g11
g12
(dtRp822
sg14
g1
(g11
g12
(dtRp823
sg16
g1
(g11
g12
(dtRp824
sg18
g1
(g11
g12
(dtRp825
sg20
g1
(g11
g12
(dtRp826
sg22
g1
(g11
g12
(dtRp827
sbsg24
S'Dha'
p828
sg26
g27
((lp829
g29
ag30
aS'sequence'
p830
ag32
ag33
aS'species'
p831
atRp832
sg37
(lp833
sg120
g784
sg121
S'RWLSTKDLYSRMELGNFNQNVHAMFIMPWGFGNPLGDMFARLNNSFWLPPLSLEGAGTGWTLYPPLSHSGPSVDLAFHLTSSLLGAMNFTNMRGPLFWTALLLLSLPVLAATLLDRNFNTFEGGDPLYHLFWFFGHPEVYIMPGFGSHSTYKKFGMYASIGLGFVWSHHMFVGLDDRAYFTSATMIAPTGIKFSWLATYGGRPMLAFLFLFTGGTGVLNASDAFHDTYYVVHFHYVLSMGAFSLAYYYWPGLYNLFWFNFPMHFLGGMPRRPYPDAGWNSGSSKQLGPDESNDPH'
p834
sg123
F0.11043
sg124
g125
sg33
S'56'
p835
sg127
g1
(g128
g12
(dp836
g130
I4
sg131
g132
sg133
g134
sg135
g132
sg136
I01
sg34
g137
sg138
g134
sg139
I0
sg140
I0
sg141
I0
sg142
g134
sg35
g132
sg143
I0
stRp837
sg145
g146
sg147
F1
sg148
Nsg30
S'DhansA'
p838
sbasg120
g771
sg123
F0.046699999999999998
sg124
g125
sg33
S'51'
p839
sg127
g1
(g128
g12
(dp840
g130
I8
sg131
g132
sg133
g134
sg135
g132
sg136
I01
sg34
g173
sg138
g134
sg139
I0
sg140
I0
sg141
I0
sg142
g134
sg35
g132
sg143
I0
stRp841
sg145
g146
sg147
F0.65000000000000002
sg148
Nsg30
S'NoName'
p842
sbag1
(g2
g3
NtRp843
(dp844
g6
g1
(g7
g3
NtRp845
(dp846
g10
g1
(g11
g12
(dtRp847
sg14
g1
(g11
g12
(dtRp848
sg16
g1
(g11
g12
(dtRp849
sg18
g1
(g11
g12
(dtRp850
sg20
g1
(g11
g12
(dtRp851
sg22
g1
(g11
g12
(dtRp852
sbsg24
g25
sg26
g27
((lp853
g33
ag32
ag29
ag30
atRp854
sg37
(lp855
g1
(g2
g3
NtRp856
(dp857
g6
g1
(g7
g3
NtRp858
(dp859
g10
g1
(g11
g12
(dtRp860
sg14
g1
(g11
g12
(dtRp861
sg16
g1
(g11
g12
(dtRp862
sg18
g1
(g11
g12
(dtRp863
sg20
g1
(g11
g12
(dtRp864
sg22
g1
(g11
g12
(dtRp865
sbsg24
S'Clu'
p866
sg26
g27
((lp867
g29
ag30
aS'sequence'
p868
ag32
ag33
aS'species'
p869
atRp870
sg37
(lp871
sg120
g843
sg121
S'RWLSTKDLYSRLELPDLNQNVHAMFVMPLGFGNPMGDMFARLNNSFWLPPLSLEGAGTGWTVYPPLSHSGPSVDLAFHLTSSLLGAINFTNMRGPLFWTALLLLSLPVLAGTLLDRNFNTFEGGDPLYHLFWFFGHPEVYMMPGFGSHSTYKKFGMYASMGLGFVWSHHMYVGLDDRAYFTSATMMAPTGMKFSWLATYGGRPMLAFLFLFTGGTGVLNASDAFHDTYYVVHFHYVLSMGAFSLGYYYWPGLYNWFWFNFPMHFLGGMPRRPYPDAGWNSGSSRQLGPDESNEPH'
p872
sg123
F0.037310000000000003
sg124
g125
sg33
S'60'
p873
sg127
g1
(g128
g12
(dp874
g130
I4
sg131
g132
sg133
g134
sg135
g132
sg136
I01
sg34
g137
sg138
g134
sg139
I0
sg140
I0
sg141
I0
sg142
g134
sg35
g132
sg143
I0
stRp875
sg145
g146
sg147
F1
sg148
Nsg30
S'ClusiA'
p876
sbag1
(g2
g3
NtRp877
(dp878
g6
g1
(g7
g3
NtRp879
(dp880
g10
g1
(g11
g12
(dtRp881
sg14
g1
(g11
g12
(dtRp882
sg16
g1
(g11
g12
(dtRp883
sg18
g1
(g11
g12
(dtRp884
sg20
g1
(g11
g12
(dtRp885
sg22
g1
(g11
g12
(dtRp886
sbsg24
g25
sg26
g27
((lp887
g33
ag32
ag29
ag30
atRp888
sg37
(lp889
g1
(g2
g3
NtRp890
(dp891
g6
g1
(g7
g3
NtRp892
(dp893
g10
g1
(g11
g12
(dtRp894
sg14
g1
(g11
g12
(dtRp895
sg16
g1
(g11
g12
(dtRp896
sg18
g1
(g11
g12
(dtRp897
sg20
g1
(g11
g12
(dtRp898
sg22
g1
(g11
g12
(dtRp899
sbsg24
S'Mgu'
p900
sg26
g27
((lp901
g29
ag30
aS'sequence'
p902
ag32
ag33
aS'species'
p903
atRp904
sg37
(lp905
sg120
g877
sg121
S'---------------------------------------------------------------------------------------------------------------------------------------------------------------------------------------------------------------------------------------HFHYVLSMGAFSLGYYYWPGLYNWFWFNFPMHFLGGMPRRPYPDAGWNSGSSKQLGPDESNEPH'
p906
sg123
F0.0044999999999999997
sg124
g125
sg33
S'64'
p907
sg127
g1
(g128
g12
(dp908
g130
I4
sg131
g132
sg133
g134
sg135
g132
sg136
I01
sg34
g137
sg138
g134
sg139
I0
sg140
I0
sg141
I0
sg142
g134
sg35
g132
sg143
I0
stRp909
sg145
g146
sg147
F1
sg148
Nsg30
S'MguilB'
p910
sbag1
(g2
g3
NtRp911
(dp912
g6
g1
(g7
g3
NtRp913
(dp914
g10
g1
(g11
g12
(dtRp915
sg14
g1
(g11
g12
(dtRp916
sg16
g1
(g11
g12
(dtRp917
sg18
g1
(g11
g12
(dtRp918
sg20
g1
(g11
g12
(dtRp919
sg22
g1
(g11
g12
(dtRp920
sbsg24
S'Mgu'
p921
sg26
g27
((lp922
g29
ag30
aS'sequence'
p923
ag32
ag33
aS'species'
p924
atRp925
sg37
(lp926
sg120
g877
sg121
S'RWLSTKDLYSRMELGNFNQNVHAMFVMPIGFGNPMGDMFARLNNSFWLPPLSLEGAGTGWTVYPPLSHSGPSVDMAFHLTSSLLGAMNFTNMRGPLFWTALLLLSLPVLAGTLLDRNFNTFEGGDPLYHLFWFFGHPEVYMMPGFGSHSTYKKFGMYASIGLGFVWSHHMYVGLDDRAYFTSATMMAPTGMKFSWLSTYGGRPMLAFLFLFTGGTGVLNASDAFHDTYYVVHFHYVLSMGAFSLGYYYWPGLYNWFWFNFPMHFLGGMPRRPYPDAGWNSGSSKQLGPDESNEPH'
p927
sg123
F0.0020100000000000001
sg124
g125
sg33
S'67'
p928
sg127
g1
(g128
g12
(dp929
g130
I4
sg131
g132
sg133
g134
sg135
g132
sg136
I01
sg34
g137
sg138
g134
sg139
I0
sg140
I0
sg141
I0
sg142
g134
sg35
g132
sg143
I0
stRp930
sg145
g146
sg147
F1
sg148
Nsg30
S'MguilA'
p931
sbasg120
g843
sg123
F0.25231999999999999
sg124
g125
sg33
S'58'
p932
sg127
g1
(g128
g12
(dp933
g130
I8
sg131
g132
sg133
g134
sg135
g132
sg136
I01
sg34
g173
sg138
g134
sg139
I0
sg140
I0
sg141
I0
sg142
g134
sg35
g132
sg143
I0
stRp934
sg145
g146
sg147
F0.98999999999999999
sg148
Nsg30
S'NoName'
p935
sbasg120
g771
sg123
F0.090679999999999997
sg124
g125
sg33
S'53'
p936
sg127
g1
(g128
g12
(dp937
g130
I8
sg131
g132
sg133
g134
sg135
g132
sg136
I01
sg34
g173
sg138
g134
sg139
I0
sg140
I0
sg141
I0
sg142
g134
sg35
g132
sg143
I0
stRp938
sg145
g146
sg147
F0.98999999999999999
sg148
Nsg30
S'NoName'
p939
sbasg120
g699
sg123
F0.032190000000000003
sg124
g125
sg33
S'45'
p940
sg127
g1
(g128
g12
(dp941
g130
I8
sg131
g132
sg133
g134
sg135
g132
sg136
I01
sg34
g173
sg138
g134
sg139
I0
sg140
I0
sg141
I0
sg142
g134
sg35
g132
sg143
I0
stRp942
sg145
g146
sg147
F0.64000000000000001
sg148
Nsg30
S'NoName'
p943
sbasg120
g686
sg123
F0.12181
sg124
g125
sg33
S'41'
p944
sg127
g1
(g128
g12
(dp945
g130
I8
sg131
g132
sg133
g134
sg135
g132
sg136
I01
sg34
g173
sg138
g134
sg139
I0
sg140
I0
sg141
I0
sg142
g134
sg35
g132
sg143
I0
stRp946
sg145
g146
sg147
F0.98999999999999999
sg148
Nsg30
S'NoName'
p947
sbag1
(g2
g3
NtRp948
(dp949
g6
g1
(g7
g3
NtRp950
(dp951
g10
g1
(g11
g12
(dtRp952
sg14
g1
(g11
g12
(dtRp953
sg16
g1
(g11
g12
(dtRp954
sg18
g1
(g11
g12
(dtRp955
sg20
g1
(g11
g12
(dtRp956
sg22
g1
(g11
g12
(dtRp957
sbsg24
g25
sg26
g27
((lp958
g33
ag32
ag29
ag30
atRp959
sg37
(lp960
g1
(g2
g3
NtRp961
(dp962
g6
g1
(g7
g3
NtRp963
(dp964
g10
g1
(g11
g12
(dtRp965
sg14
g1
(g11
g12
(dtRp966
sg16
g1
(g11
g12
(dtRp967
sg18
g1
(g11
g12
(dtRp968
sg20
g1
(g11
g12
(dtRp969
sg22
g1
(g11
g12
(dtRp970
sbsg24
g25
sg26
g27
((lp971
g33
ag32
ag29
ag30
atRp972
sg37
(lp973
g1
(g2
g3
NtRp974
(dp975
g6
g1
(g7
g3
NtRp976
(dp977
g10
g1
(g11
g12
(dtRp978
sg14
g1
(g11
g12
(dtRp979
sg16
g1
(g11
g12
(dtRp980
sg18
g1
(g11
g12
(dtRp981
sg20
g1
(g11
g12
(dtRp982
sg22
g1
(g11
g12
(dtRp983
sbsg24
S'Cbl'
p984
sg26
g27
((lp985
g29
ag30
aS'sequence'
p986
ag32
ag33
aS'species'
p987
atRp988
sg37
(lp989
sg120
g961
sg121
S'RWLSTKDLYSRLELANLNQNVHAMFVMPLGMGNPMGDMFARLNNSFWLPPLSLEGPGTGWTLYAPLSHSGPSVDMAFHLTSSLLGAINFTNMRGPLYWTALLLLSLPVLAATLLDRNFNTFEGGDPLYHLFWFFGHPEVYMIPGFGSHSTYKKFGMYASIGLGFVWSHHMYVGLDDRAYFTSATMIAPTGIKFSWMATYGGRPMLAFLFLFTGGTGVLNASDAFHDTYYVVHFHYVLSMGAFSLGYYYWPGLYNLFWFNFPMHFLGGMPRRPYPDAGWNSGSSYQLGPDESNEPH'
p990
sg123
F0.36785000000000001
sg124
g125
sg33
S'71'
p991
sg127
g1
(g128
g12
(dp992
g130
I4
sg131
g132
sg133
g134
sg135
g132
sg136
I01
sg34
g137
sg138
g134
sg139
I0
sg140
I0
sg141
I0
sg142
g134
sg35
g132
sg143
I0
stRp993
sg145
g146
sg147
F1
sg148
Nsg30
S'CblacA'
p994
sbag1
(g2
g3
NtRp995
(dp996
g6
g1
(g7
g3
NtRp997
(dp998
g10
g1
(g11
g12
(dtRp999
sg14
g1
(g11
g12
(dtRp1000
sg16
g1
(g11
g12
(dtRp1001
sg18
g1
(g11
g12
(dtRp1002
sg20
g1
(g11
g12
(dtRp1003
sg22
g1
(g11
g12
(dtRp1004
sbsg24
g25
sg26
g27
((lp1005
g33
ag32
ag29
ag30
atRp1006
sg37
(lp1007
g1
(g2
g3
NtRp1008
(dp1009
g6
g1
(g7
g3
NtRp1010
(dp1011
g10
g1
(g11
g12
(dtRp1012
sg14
g1
(g11
g12
(dtRp1013
sg16
g1
(g11
g12
(dtRp1014
sg18
g1
(g11
g12
(dtRp1015
sg20
g1
(g11
g12
(dtRp1016
sg22
g1
(g11
g12
(dtRp1017
sbsg24
g25
sg26
g27
((lp1018
g33
ag32
ag29
ag30
atRp1019
sg37
(lp1020
g1
(g2
g3
NtRp1021
(dp1022
g6
g1
(g7
g3
NtRp1023
(dp1024
g10
g1
(g11
g12
(dtRp1025
sg14
g1
(g11
g12
(dtRp1026
sg16
g1
(g11
g12
(dtRp1027
sg18
g1
(g11
g12
(dtRp1028
sg20
g1
(g11
g12
(dtRp1029
sg22
g1
(g11
g12
(dtRp1030
sbsg24
g25
sg26
g27
((lp1031
g33
ag32
ag29
ag30
atRp1032
sg37
(lp1033
g1
(g2
g3
NtRp1034
(dp1035
g6
g1
(g7
g3
NtRp1036
(dp1037
g10
g1
(g11
g12
(dtRp1038
sg14
g1
(g11
g12
(dtRp1039
sg16
g1
(g11
g12
(dtRp1040
sg18
g1
(g11
g12
(dtRp1041
sg20
g1
(g11
g12
(dtRp1042
sg22
g1
(g11
g12
(dtRp1043
sbsg24
g25
sg26
g27
((lp1044
g33
ag32
ag29
ag30
atRp1045
sg37
(lp1046
g1
(g2
g3
NtRp1047
(dp1048
g6
g1
(g7
g3
NtRp1049
(dp1050
g10
g1
(g11
g12
(dtRp1051
sg14
g1
(g11
g12
(dtRp1052
sg16
g1
(g11
g12
(dtRp1053
sg18
g1
(g11
g12
(dtRp1054
sg20
g1
(g11
g12
(dtRp1055
sg22
g1
(g11
g12
(dtRp1056
sbsg24
S'Lel'
p1057
sg26
g27
((lp1058
g29
ag30
aS'sequence'
p1059
ag32
ag33
aS'species'
p1060
atRp1061
sg37
(lp1062
sg120
g1034
sg121
S'RWLSTKDLYSRLELPGLDQNVHAMFVMPLGFGNPMGDMFARLNNSFWLPPLSLEGAGTGWTVYPPLSHSGPSVDLAFHLTSSLLGAINFTNMRGPLYWTALLLFSLPVLAGTLLDRNFNTFDGGDPLYHLFWFFGHPEVYIIPGFGSHSTYKKFGMYASIGLGFVWSHHMYVGLDDRAYFTSATMIAPTGIKFSWLATYGGRPMLAFLFLFTGGTGVLNASDAFHDTYYTVHFHYVLSMGAFSLGYYYWYGLYNLFWFNFPMHFLGGMPRRPYPDAGWNSGSSYQLGPDESNEPH'
p1063
sg123
F0.18278
sg124
g125
sg33
S'80'
p1064
sg127
g1
(g128
g12
(dp1065
g130
I4
sg131
g132
sg133
g134
sg135
g132
sg136
I01
sg34
g137
sg138
g134
sg139
I0
sg140
I0
sg141
I0
sg142
g134
sg35
g132
sg143
I0
stRp1066
sg145
g146
sg147
F1
sg148
Nsg30
S'LelonA'
p1067
sbag1
(g2
g3
NtRp1068
(dp1069
g6
g1
(g7
g3
NtRp1070
(dp1071
g10
g1
(g11
g12
(dtRp1072
sg14
g1
(g11
g12
(dtRp1073
sg16
g1
(g11
g12
(dtRp1074
sg18
g1
(g11
g12
(dtRp1075
sg20
g1
(g11
g12
(dtRp1076
sg22
g1
(g11
g12
(dtRp1077
sbsg24
S'Cox'
p1078
sg26
g27
((lp1079
g29
ag30
aS'sequence'
p1080
ag32
ag33
aS'species'
p1081
atRp1082
sg37
(lp1083
sg120
g1034
sg121
S'RWLSTKDLYSRLELSGLDQNVHAMFVMPIGFGNPMGDMFARLNNSFWLPPLSLEGPGVGWTVYPPLSHSGPSVDLAFHLTSSLLGAINFTNMRGPLYWTALLLLSLPVLAGTLLDRNFNTFDGGDPLYHLFWFFGHPEVYMIPGFGSHATYKKFGMYASIGLGFVWSHHMYVGLDDRAYFTSATMIAPTGIKFSWLATYGGRPMLAFLFLFTGGTGILNASDAFHDTYYTVHFHYVLSMGAFSLGYYLWYGLYNIFWFNFPMHFLGGMPRRPYPDAGWNSGSSYQLGPDESNEPH'
p1084
sg123
F0.17860000000000001
sg124
g125
sg33
S'46'
p1085
sg127
g1
(g128
g12
(dp1086
g130
I4
sg131
g132
sg133
g134
sg135
g132
sg136
I01
sg34
g137
sg138
g134
sg139
I0
sg140
I0
sg141
I0
sg142
g134
sg35
g132
sg143
I0
stRp1087
sg145
g146
sg147
F1
sg148
Nsg30
S'CoxycA'
p1088
sbasg120
g1021
sg123
F0.041480000000000003
sg124
g125
sg33
S'77'
p1089
sg127
g1
(g128
g12
(dp1090
g130
I8
sg131
g132
sg133
g134
sg135
g132
sg136
I01
sg34
g173
sg138
g134
sg139
I0
sg140
I0
sg141
I0
sg142
g134
sg35
g132
sg143
I0
stRp1091
sg145
g146
sg147
F0.98999999999999999
sg148
Nsg30
S'NoName'
p1092
sbag1
(g2
g3
NtRp1093
(dp1094
g6
g1
(g7
g3
NtRp1095
(dp1096
g10
g1
(g11
g12
(dtRp1097
sg14
g1
(g11
g12
(dtRp1098
sg16
g1
(g11
g12
(dtRp1099
sg18
g1
(g11
g12
(dtRp1100
sg20
g1
(g11
g12
(dtRp1101
sg22
g1
(g11
g12
(dtRp1102
sbsg24
g25
sg26
g27
((lp1103
g33
ag32
ag29
ag30
atRp1104
sg37
(lp1105
g1
(g2
g3
NtRp1106
(dp1107
g6
g1
(g7
g3
NtRp1108
(dp1109
g10
g1
(g11
g12
(dtRp1110
sg14
g1
(g11
g12
(dtRp1111
sg16
g1
(g11
g12
(dtRp1112
sg18
g1
(g11
g12
(dtRp1113
sg20
g1
(g11
g12
(dtRp1114
sg22
g1
(g11
g12
(dtRp1115
sbsg24
g25
sg26
g27
((lp1116
g33
ag32
ag29
ag30
atRp1117
sg37
(lp1118
g1
(g2
g3
NtRp1119
(dp1120
g6
g1
(g7
g3
NtRp1121
(dp1122
g10
g1
(g11
g12
(dtRp1123
sg14
g1
(g11
g12
(dtRp1124
sg16
g1
(g11
g12
(dtRp1125
sg18
g1
(g11
g12
(dtRp1126
sg20
g1
(g11
g12
(dtRp1127
sg22
g1
(g11
g12
(dtRp1128
sbsg24
g25
sg26
g27
((lp1129
g33
ag32
ag29
ag30
atRp1130
sg37
(lp1131
g1
(g2
g3
NtRp1132
(dp1133
g6
g1
(g7
g3
NtRp1134
(dp1135
g10
g1
(g11
g12
(dtRp1136
sg14
g1
(g11
g12
(dtRp1137
sg16
g1
(g11
g12
(dtRp1138
sg18
g1
(g11
g12
(dtRp1139
sg20
g1
(g11
g12
(dtRp1140
sg22
g1
(g11
g12
(dtRp1141
sbsg24
S'Cth'
p1142
sg26
g27
((lp1143
g29
ag30
aS'sequence'
p1144
ag32
ag33
aS'species'
p1145
atRp1146
sg37
(lp1147
sg120
g1119
sg121
S'RWLSTKDLYSRLELPGLNQNVHAMFVMPLGFGNPMGDMFARLNNSFWLPPLSLEGAGTGWTVYPPLSHSGPSVDLAFHLTSSLLGAINFTNMRGPLYWTALLLLSLPVLAGTLLDRNFNTFEGGDPLYHLFWFFGHPEVYIIPGFGSHSTYKKFGMYASIGLGFVWSHHMYVGLDDRAYFTSATMIAPTGIKFSWLATYGGRPMLAFLFLFTGGTGVLNASDAFHDTYYTVHFHYVLSMGAFSLGYYYWYGLYNLFWFNFPMHFLGGMPRRPYPDAGWNSGSSYQLGPDESNEPH'
p1148
sg123
F0.010059999999999999
sg124
g125
sg33
S'87'
p1149
sg127
g1
(g128
g12
(dp1150
g130
I4
sg131
g132
sg133
g134
sg135
g132
sg136
I01
sg34
g137
sg138
g134
sg139
I0
sg140
I0
sg141
I0
sg142
g134
sg35
g132
sg143
I0
stRp1151
sg145
g146
sg147
F1
sg148
Nsg30
S'CtheaA'
p1152
sbag1
(g2
g3
NtRp1153
(dp1154
g6
g1
(g7
g3
NtRp1155
(dp1156
g10
g1
(g11
g12
(dtRp1157
sg14
g1
(g11
g12
(dtRp1158
sg16
g1
(g11
g12
(dtRp1159
sg18
g1
(g11
g12
(dtRp1160
sg20
g1
(g11
g12
(dtRp1161
sg22
g1
(g11
g12
(dtRp1162
sbsg24
g25
sg26
g27
((lp1163
g33
ag32
ag29
ag30
atRp1164
sg37
(lp1165
g1
(g2
g3
NtRp1166
(dp1167
g6
g1
(g7
g3
NtRp1168
(dp1169
g10
g1
(g11
g12
(dtRp1170
sg14
g1
(g11
g12
(dtRp1171
sg16
g1
(g11
g12
(dtRp1172
sg18
g1
(g11
g12
(dtRp1173
sg20
g1
(g11
g12
(dtRp1174
sg22
g1
(g11
g12
(dtRp1175
sbsg24
g25
sg26
g27
((lp1176
g33
ag32
ag29
ag30
atRp1177
sg37
(lp1178
g1
(g2
g3
NtRp1179
(dp1180
g6
g1
(g7
g3
NtRp1181
(dp1182
g10
g1
(g11
g12
(dtRp1183
sg14
g1
(g11
g12
(dtRp1184
sg16
g1
(g11
g12
(dtRp1185
sg18
g1
(g11
g12
(dtRp1186
sg20
g1
(g11
g12
(dtRp1187
sg22
g1
(g11
g12
(dtRp1188
sbsg24
g25
sg26
g27
((lp1189
g33
ag32
ag29
ag30
atRp1190
sg37
(lp1191
g1
(g2
g3
NtRp1192
(dp1193
g6
g1
(g7
g3
NtRp1194
(dp1195
g10
g1
(g11
g12
(dtRp1196
sg14
g1
(g11
g12
(dtRp1197
sg16
g1
(g11
g12
(dtRp1198
sg18
g1
(g11
g12
(dtRp1199
sg20
g1
(g11
g12
(dtRp1200
sg22
g1
(g11
g12
(dtRp1201
sbsg24
S'Cor'
p1202
sg26
g27
((lp1203
g29
ag30
aS'sequence'
p1204
ag32
ag33
aS'species'
p1205
atRp1206
sg37
(lp1207
sg120
g1179
sg121
S'RWLSTKDLYSRLELPGLNQNVHAMFVMPLGFGNPMGDMFARLNNSFWLPPLSLEGAGTGWTVYPPLSHSGPSVDLAFHLTSSLLGAINFTNMRGPLFWTALLLLSLPVLAGTLLDRNFNTFEGGDPLYHLFWFFGHPEVYIIPGFGSHSTYKKFGMYASIGLGFVWSHHMYVGLDDRAYFTSATMIAPTGIKFSWLATYGGRPMLAFLFLFTGGTGVLNASDAFHDTYYTVHFHYVLSMGAFSLGYYYWYGLYNLFWFNFPMHFLGGMPRRPYPDAGWNSGSSYQLGPDESNEPH'
p1208
sg123
F0.00132
sg124
g125
sg33
S'94'
p1209
sg127
g1
(g128
g12
(dp1210
g130
I4
sg131
g132
sg133
g134
sg135
g132
sg136
I01
sg34
g137
sg138
g134
sg139
I0
sg140
I0
sg141
I0
sg142
g134
sg35
g132
sg143
I0
stRp1211
sg145
g146
sg147
F1
sg148
Nsg30
S'CorthC'
p1212
sbag1
(g2
g3
NtRp1213
(dp1214
g6
g1
(g7
g3
NtRp1215
(dp1216
g10
g1
(g11
g12
(dtRp1217
sg14
g1
(g11
g12
(dtRp1218
sg16
g1
(g11
g12
(dtRp1219
sg18
g1
(g11
g12
(dtRp1220
sg20
g1
(g11
g12
(dtRp1221
sg22
g1
(g11
g12
(dtRp1222
sbsg24
S'Cor'
p1223
sg26
g27
((lp1224
g29
ag30
aS'sequence'
p1225
ag32
ag33
aS'species'
p1226
atRp1227
sg37
(lp1228
sg120
g1179
sg121
S'RWLSTKDLYSRLELPGLNQNVHAMFVMPLGFGNPMGDMFARLNNSFWLPPLSLEGAGTGWTVYPPLSHSGPSVDLAFHLTSSLLGAINFTNMRGPLFWTALLLLSLPVLAGTLLDRNFNTFEGGDPLYHLFWFFGHPEVYIIPGFGSHSTYKKFGMYASIGLGFVWSHHMYVGLDDRAYFTSATMIAPTGIKFSWLATYGGRPMLAFLFLFTGGTGVLNASDAFHDTYYTVHFHYVLSMGAFSLGYYYWYGLYNLFWFNFPMHFLGGMPRRPYPDAGWNSGSSYQLGPDESNEPH'
p1229
sg123
F0.00093000000000000005
sg124
g125
sg33
S'96'
p1230
sg127
g1
(g128
g12
(dp1231
g130
I4
sg131
g132
sg133
g134
sg135
g132
sg136
I01
sg34
g137
sg138
g134
sg139
I0
sg140
I0
sg141
I0
sg142
g134
sg35
g132
sg143
I0
stRp1232
sg145
g146
sg147
F1
sg148
Nsg30
S'CorthB'
p1233
sbasg120
g1166
sg123
F0.00052999999999999998
sg124
g125
sg33
S'90'
p1234
sg127
g1
(g128
g12
(dp1235
g130
I8
sg131
g132
sg133
g134
sg135
g132
sg136
I01
sg34
g173
sg138
g134
sg139
I0
sg140
I0
sg141
I0
sg142
g134
sg35
g132
sg143
I0
stRp1236
sg145
g146
sg147
F0.85999999999999999
sg148
Nsg30
S'NoName'
p1237
sbag1
(g2
g3
NtRp1238
(dp1239
g6
g1
(g7
g3
NtRp1240
(dp1241
g10
g1
(g11
g12
(dtRp1242
sg14
g1
(g11
g12
(dtRp1243
sg16
g1
(g11
g12
(dtRp1244
sg18
g1
(g11
g12
(dtRp1245
sg20
g1
(g11
g12
(dtRp1246
sg22
g1
(g11
g12
(dtRp1247
sbsg24
S'Cor'
p1248
sg26
g27
((lp1249
g29
ag30
aS'sequence'
p1250
ag32
ag33
aS'species'
p1251
atRp1252
sg37
(lp1253
sg120
g1166
sg121
S'RWLSTKDLYSRLELPGLNQNVHAMFVMPLGFGNPMGDMFARLNNSFWLPPLSLEGAGTGWTVYPPLSHSGPSVDLAFHLTSSLLGAINFTNMRGPLFWTALLLLSLPVLAGTLLDRNFNTFEGGDPLYHLFWFFGHPEVYIIPGFGSHSTYKKFGMYASIGLGFVWSHHMYVGLDDRAYFTSATMIAPTGIKFSWLATYGGRPMLAFLFLFTGGTGVLNASDAFHDTYYTVHFHYVLSMGAFSLGYYYWYGLYNLFWFNFPMHFLGGMPRRPYPDAGWNSGSSYQLGPDESNEPH'
p1254
sg123
F0.0021099999999999999
sg124
g125
sg33
S'98'
p1255
sg127
g1
(g128
g12
(dp1256
g130
I4
sg131
g132
sg133
g134
sg135
g132
sg136
I01
sg34
g137
sg138
g134
sg139
I0
sg140
I0
sg141
I0
sg142
g134
sg35
g132
sg143
I0
stRp1257
sg145
g146
sg147
F1
sg148
Nsg30
S'CorthA'
p1258
sbasg120
g1153
sg123
F0.0031199999999999999
sg124
g125
sg33
S'89'
p1259
sg127
g1
(g128
g12
(dp1260
g130
I8
sg131
g132
sg133
g134
sg135
g132
sg136
I01
sg34
g173
sg138
g134
sg139
I0
sg140
I0
sg141
I0
sg142
g134
sg35
g132
sg143
I0
stRp1261
sg145
g146
sg147
F0.98999999999999999
sg148
Nsg30
S'NoName'
p1262
sbag1
(g2
g3
NtRp1263
(dp1264
g6
g1
(g7
g3
NtRp1265
(dp1266
g10
g1
(g11
g12
(dtRp1267
sg14
g1
(g11
g12
(dtRp1268
sg16
g1
(g11
g12
(dtRp1269
sg18
g1
(g11
g12
(dtRp1270
sg20
g1
(g11
g12
(dtRp1271
sg22
g1
(g11
g12
(dtRp1272
sbsg24
g25
sg26
g27
((lp1273
g33
ag32
ag29
ag30
atRp1274
sg37
(lp1275
g1
(g2
g3
NtRp1276
(dp1277
g6
g1
(g7
g3
NtRp1278
(dp1279
g10
g1
(g11
g12
(dtRp1280
sg14
g1
(g11
g12
(dtRp1281
sg16
g1
(g11
g12
(dtRp1282
sg18
g1
(g11
g12
(dtRp1283
sg20
g1
(g11
g12
(dtRp1284
sg22
g1
(g11
g12
(dtRp1285
sbsg24
g25
sg26
g27
((lp1286
g33
ag32
ag29
ag30
atRp1287
sg37
(lp1288
g1
(g2
g3
NtRp1289
(dp1290
g6
g1
(g7
g3
NtRp1291
(dp1292
g10
g1
(g11
g12
(dtRp1293
sg14
g1
(g11
g12
(dtRp1294
sg16
g1
(g11
g12
(dtRp1295
sg18
g1
(g11
g12
(dtRp1296
sg20
g1
(g11
g12
(dtRp1297
sg22
g1
(g11
g12
(dtRp1298
sbsg24
S'Cpa'
p1299
sg26
g27
((lp1300
g29
ag30
aS'sequence'
p1301
ag32
ag33
aS'species'
p1302
atRp1303
sg37
(lp1304
sg120
g1276
sg121
S'RWLSTKDLYSRLELPGLNQNVHAMFVMPLGFGNPMGDMFARLNNSFWLPPLSLEGAGTGWTVYPPLSHSGPSVDLAFHLTSSLLGAINFTNMRGPLFWTALLLLSLPVLAGTLLDRNFNTFEGGDPLYHLFWFFGHPEVYIIPGFGSHSTYKKFGMYASIGLGFVWSHHMYVGLDDRAYFTSATMIAPTSIKFSWLATYGGRTALAFIFLFTGGTGVLNSADPFHDSYYVVHFHYVLSMGAFSIGWYLWPGLYNLFWFNFPMHFLGGMPRRNYPDAGWNSGSAYQLGPSGTNEPH'
p1305
sg123
F0.00012999999999999999
sg124
g125
sg33
S'104'
p1306
sg127
g1
(g128
g12
(dp1307
g130
I4
sg131
g132
sg133
g134
sg135
g132
sg136
I01
sg34
g137
sg138
g134
sg139
I0
sg140
I0
sg141
I0
sg142
g134
sg35
g132
sg143
I0
stRp1308
sg145
g146
sg147
F1
sg148
Nsg30
S'CparaD'
p1309
sbag1
(g2
g3
NtRp1310
(dp1311
g6
g1
(g7
g3
NtRp1312
(dp1313
g10
g1
(g11
g12
(dtRp1314
sg14
g1
(g11
g12
(dtRp1315
sg16
g1
(g11
g12
(dtRp1316
sg18
g1
(g11
g12
(dtRp1317
sg20
g1
(g11
g12
(dtRp1318
sg22
g1
(g11
g12
(dtRp1319
sbsg24
S'Cpa'
p1320
sg26
g27
((lp1321
g29
ag30
aS'sequence'
p1322
ag32
ag33
aS'species'
p1323
atRp1324
sg37
(lp1325
sg120
g1276
sg121
S'RWLSTKDLYSRLELPGLNQNVHAMFVMPLGFGNPMGDMFARLNNSFWLPPLSLEGAGTGWTVYPPLSHSGPSVDLAFHLTSSLLGAINFTNMRGPLFWTALLLLSLPVLAGTLLDRNFNTFEGGDPLYHLFWFFGHPEVYIIPGFGSHSTYKKFGMYASIGLGFVWSHHMYVGLDDRAYFTSATMIAPTGIKFSWLATYGGRPMLAFLFLFTGGTGVVNASDAFHDTYYVVHFHYVLSMGAFSLGYYYWYGLYNLFWFNFPMHFLGGMPRRPYPDAGWNSGSSYSLGPDESNEPH'
p1326
sg123
F0.00012999999999999999
sg124
g125
sg33
S'106'
p1327
sg127
g1
(g128
g12
(dp1328
g130
I4
sg131
g132
sg133
g134
sg135
g132
sg136
I01
sg34
g137
sg138
g134
sg139
I0
sg140
I0
sg141
I0
sg142
g134
sg35
g132
sg143
I0
stRp1329
sg145
g146
sg147
F1
sg148
Nsg30
S'CparaB'
p1330
sbasg120
g1263
sg123
F0.00051000000000000004
sg124
g125
sg33
S'100'
p1331
sg127
g1
(g128
g12
(dp1332
g130
I8
sg131
g132
sg133
g134
sg135
g132
sg136
I01
sg34
g173
sg138
g134
sg139
I0
sg140
I0
sg141
I0
sg142
g134
sg35
g132
sg143
I0
stRp1333
sg145
g146
sg147
F0.98999999999999999
sg148
Nsg30
S'NoName'
p1334
sbag1
(g2
g3
NtRp1335
(dp1336
g6
g1
(g7
g3
NtRp1337
(dp1338
g10
g1
(g11
g12
(dtRp1339
sg14
g1
(g11
g12
(dtRp1340
sg16
g1
(g11
g12
(dtRp1341
sg18
g1
(g11
g12
(dtRp1342
sg20
g1
(g11
g12
(dtRp1343
sg22
g1
(g11
g12
(dtRp1344
sbsg24
S'Cpa'
p1345
sg26
g27
((lp1346
g29
ag30
aS'sequence'
p1347
ag32
ag33
aS'species'
p1348
atRp1349
sg37
(lp1350
sg120
g1263
sg121
S'RWLSTKDLYSRLELPGLNQNVHAMFVMPLGFGNPMGDMFARLNNSFWLPPLSLEGAGTGWTVYPPLSHSGPSVDLAFHLTSSLLGAINFTNMRGPLFWTALLLLSLPVLAGTLLDRNFNTFEGGDPLYHLFWFFGHPEVYIIPGFGSHSTYKKFGMYASIGLGFVWSHHMYVGLDDRAYFTSATMIAPTGIKFSWLATYGGRPMLAFLFLFTGGTGVVNASDAFHDTYYVVHFHYVLSMGAFSLGYYYWYGLYNLFWFNFPMHFLGGMPRRPYPDAGWNSGSSYSLGPDESNEPH'
p1351
sg123
F0.00012
sg124
g125
sg33
S'206'
p1352
sg127
g1
(g128
g12
(dp1353
g130
I4
sg131
g132
sg133
g134
sg135
g132
sg136
I01
sg34
g137
sg138
g134
sg139
I0
sg140
I0
sg141
I0
sg142
g134
sg35
g132
sg143
I0
stRp1354
sg145
g146
sg147
F1
sg148
Nsg30
S'CparaC'
p1355
sbasg120
g1153
sg123
F1.0000000000000001e-05
sg124
g125
sg33
S'92'
p1356
sg127
g1
(g128
g12
(dp1357
g130
I8
sg131
g132
sg133
g134
sg135
g132
sg136
I01
sg34
g173
sg138
g134
sg139
I0
sg140
I0
sg141
I0
sg142
g134
sg35
g132
sg143
I0
stRp1358
sg145
g146
sg147
F1
sg148
Nsg30
S'NoName'
p1359
sbasg120
g1119
sg123
F0.0032599999999999999
sg124
g125
sg33
S'86'
p1360
sg127
g1
(g128
g12
(dp1361
g130
I8
sg131
g132
sg133
g134
sg135
g132
sg136
I01
sg34
g173
sg138
g134
sg139
I0
sg140
I0
sg141
I0
sg142
g134
sg35
g132
sg143
I0
stRp1362
sg145
g146
sg147
F0.97999999999999998
sg148
Nsg30
S'NoName'
p1363
sbasg120
g1106
sg123
F1.0000000000000001e-05
sg124
g125
sg33
S'84'
p1364
sg127
g1
(g128
g12
(dp1365
g130
I8
sg131
g132
sg133
g134
sg135
g132
sg136
I01
sg34
g173
sg138
g134
sg139
I0
sg140
I0
sg141
I0
sg142
g134
sg35
g132
sg143
I0
stRp1366
sg145
g146
sg147
F1
sg148
Nsg30
S'NoName'
p1367
sbag1
(g2
g3
NtRp1368
(dp1369
g6
g1
(g7
g3
NtRp1370
(dp1371
g10
g1
(g11
g12
(dtRp1372
sg14
g1
(g11
g12
(dtRp1373
sg16
g1
(g11
g12
(dtRp1374
sg18
g1
(g11
g12
(dtRp1375
sg20
g1
(g11
g12
(dtRp1376
sg22
g1
(g11
g12
(dtRp1377
sbsg24
g25
sg26
g27
((lp1378
g33
ag32
ag29
ag30
atRp1379
sg37
(lp1380
g1
(g2
g3
NtRp1381
(dp1382
g6
g1
(g7
g3
NtRp1383
(dp1384
g10
g1
(g11
g12
(dtRp1385
sg14
g1
(g11
g12
(dtRp1386
sg16
g1
(g11
g12
(dtRp1387
sg18
g1
(g11
g12
(dtRp1388
sg20
g1
(g11
g12
(dtRp1389
sg22
g1
(g11
g12
(dtRp1390
sbsg24
g25
sg26
g27
((lp1391
g33
ag32
ag29
ag30
atRp1392
sg37
(lp1393
g1
(g2
g3
NtRp1394
(dp1395
g6
g1
(g7
g3
NtRp1396
(dp1397
g10
g1
(g11
g12
(dtRp1398
sg14
g1
(g11
g12
(dtRp1399
sg16
g1
(g11
g12
(dtRp1400
sg18
g1
(g11
g12
(dtRp1401
sg20
g1
(g11
g12
(dtRp1402
sg22
g1
(g11
g12
(dtRp1403
sbsg24
g25
sg26
g27
((lp1404
g33
ag32
ag29
ag30
atRp1405
sg37
(lp1406
g1
(g2
g3
NtRp1407
(dp1408
g6
g1
(g7
g3
NtRp1409
(dp1410
g10
g1
(g11
g12
(dtRp1411
sg14
g1
(g11
g12
(dtRp1412
sg16
g1
(g11
g12
(dtRp1413
sg18
g1
(g11
g12
(dtRp1414
sg20
g1
(g11
g12
(dtRp1415
sg22
g1
(g11
g12
(dtRp1416
sbsg24
g25
sg26
g27
((lp1417
g33
ag32
ag29
ag30
atRp1418
sg37
(lp1419
g1
(g2
g3
NtRp1420
(dp1421
g6
g1
(g7
g3
NtRp1422
(dp1423
g10
g1
(g11
g12
(dtRp1424
sg14
g1
(g11
g12
(dtRp1425
sg16
g1
(g11
g12
(dtRp1426
sg18
g1
(g11
g12
(dtRp1427
sg20
g1
(g11
g12
(dtRp1428
sg22
g1
(g11
g12
(dtRp1429
sbsg24
g25
sg26
g27
((lp1430
g33
ag32
ag29
ag30
atRp1431
sg37
(lp1432
g1
(g2
g3
NtRp1433
(dp1434
g6
g1
(g7
g3
NtRp1435
(dp1436
g10
g1
(g11
g12
(dtRp1437
sg14
g1
(g11
g12
(dtRp1438
sg16
g1
(g11
g12
(dtRp1439
sg18
g1
(g11
g12
(dtRp1440
sg20
g1
(g11
g12
(dtRp1441
sg22
g1
(g11
g12
(dtRp1442
sbsg24
S'Cme'
p1443
sg26
g27
((lp1444
g29
ag30
aS'sequence'
p1445
ag32
ag33
aS'species'
p1446
atRp1447
sg37
(lp1448
sg120
g1420
sg121
S'RWLSTKDLYSRLELPGLNQNVHAMFVMPLGFGNPMGDMFARLNNSFWLPPLSLEGAGTGWTVYPPLSHSGPSVDLAFHLTSSLLGAINFTNMRGPLYWTALLLLSLPVLAGTLLDRNFNTFEGGDPLYHLFWFFGHPEVYIIPGFGSHSTYKKFGMYASIGLGFVWSHHMYVGLDDRAYFTSATMIAPTGIKFSWLATYGGRPMLAFLFLFTGGTGVLNASDAFHDTYYVVHFHYVLSMGAFSLGYYYWYGLYNLFWFNFPMHFLGGMPRRPYPDAGWNSGSSYQLGPDESNEPH'
p1449
sg123
F0.00012999999999999999
sg124
g125
sg33
S'120'
p1450
sg127
g1
(g128
g12
(dp1451
g130
I4
sg131
g132
sg133
g134
sg135
g132
sg136
I01
sg34
g137
sg138
g134
sg139
I0
sg140
I0
sg141
I0
sg142
g134
sg35
g132
sg143
I0
stRp1452
sg145
g146
sg147
F1
sg148
Nsg30
S'CmetaF'
p1453
sbag1
(g2
g3
NtRp1454
(dp1455
g6
g1
(g7
g3
NtRp1456
(dp1457
g10
g1
(g11
g12
(dtRp1458
sg14
g1
(g11
g12
(dtRp1459
sg16
g1
(g11
g12
(dtRp1460
sg18
g1
(g11
g12
(dtRp1461
sg20
g1
(g11
g12
(dtRp1462
sg22
g1
(g11
g12
(dtRp1463
sbsg24
S'Cme'
p1464
sg26
g27
((lp1465
g29
ag30
aS'sequence'
p1466
ag32
ag33
aS'species'
p1467
atRp1468
sg37
(lp1469
sg120
g1420
sg121
S'RWLSTKDLYSRLELPGLNQNVHAMFVMPLGFGNPMGDMFARLNNSFWLPPLSLEGAGTGWTVYPPLSHSGPSVDLAFHLTSSLLGAINFTNMRGPLYWTALLLLSLPVLAGTLLDRNFNTFEGGDPLYHLFWFFGHPEVYIIPGFGSHSTYKKFGMYASIGLGFVWSHHMYVGLDDRAYFTSATMIAPTGIKFSWLATYGGRPMLAFLFLFTGGTGVLNASDAFHDTYYVVHFHYVLSMGAFSLGYYYWYGLYNLFWFNFPMHFLGGMPRRPYPDAGWNSGSSYQLGPDESNEPH'
p1470
sg123
F0.00012
sg124
g125
sg33
S'122'
p1471
sg127
g1
(g128
g12
(dp1472
g130
I4
sg131
g132
sg133
g134
sg135
g132
sg136
I01
sg34
g137
sg138
g134
sg139
I0
sg140
I0
sg141
I0
sg142
g134
sg35
g132
sg143
I0
stRp1473
sg145
g146
sg147
F1
sg148
Nsg30
S'CmetaE'
p1474
sbasg120
g1407
sg123
F1.0000000000000001e-05
sg124
g125
sg33
S'115'
p1475
sg127
g1
(g128
g12
(dp1476
g130
I8
sg131
g132
sg133
g134
sg135
g132
sg136
I01
sg34
g173
sg138
g134
sg139
I0
sg140
I0
sg141
I0
sg142
g134
sg35
g132
sg143
I0
stRp1477
sg145
g146
sg147
F1
sg148
Nsg30
S'NoName'
p1478
sbag1
(g2
g3
NtRp1479
(dp1480
g6
g1
(g7
g3
NtRp1481
(dp1482
g10
g1
(g11
g12
(dtRp1483
sg14
g1
(g11
g12
(dtRp1484
sg16
g1
(g11
g12
(dtRp1485
sg18
g1
(g11
g12
(dtRp1486
sg20
g1
(g11
g12
(dtRp1487
sg22
g1
(g11
g12
(dtRp1488
sbsg24
S'Cme'
p1489
sg26
g27
((lp1490
g29
ag30
aS'sequence'
p1491
ag32
ag33
aS'species'
p1492
atRp1493
sg37
(lp1494
sg120
g1407
sg121
S'RWLSTKDLYSRLELPGLNQNVHAMFVMPLGFGNPMGDMFARLNNSFWLPPLSLEGAGTGWTVYPPLSHSGPSVDLAFHLTSSLLGAINFTNMRGPLYWTALLLLSLPVLAGTLLDRNFNTFEGGDPLYHLFWFFGHPEVYIIPGFGSHSTYKKFGMYASIGLGFVWSHHMYVGLDDRAYFTSATMIAPTGIKFSWLATYGGRPMLAFLFLFTGGTGVLNASDAFHDTYYVVHFHYVLSMGAFSLGYYYWYGLYNLFWFNFPMHFLGGMPRRPYPDAGWNSGSSYQLGPDESNEPH'
p1495
sg123
F0.00020000000000000001
sg124
g125
sg33
S'124'
p1496
sg127
g1
(g128
g12
(dp1497
g130
I4
sg131
g132
sg133
g134
sg135
g132
sg136
I01
sg34
g137
sg138
g134
sg139
I0
sg140
I0
sg141
I0
sg142
g134
sg35
g132
sg143
I0
stRp1498
sg145
g146
sg147
F1
sg148
Nsg30
S'CmetaD'
p1499
sbasg120
g1394
sg123
F1.0000000000000001e-05
sg124
g125
sg33
S'114'
p1500
sg127
g1
(g128
g12
(dp1501
g130
I8
sg131
g132
sg133
g134
sg135
g132
sg136
I01
sg34
g173
sg138
g134
sg139
I0
sg140
I0
sg141
I0
sg142
g134
sg35
g132
sg143
I0
stRp1502
sg145
g146
sg147
F1
sg148
Nsg30
S'NoName'
p1503
sbag1
(g2
g3
NtRp1504
(dp1505
g6
g1
(g7
g3
NtRp1506
(dp1507
g10
g1
(g11
g12
(dtRp1508
sg14
g1
(g11
g12
(dtRp1509
sg16
g1
(g11
g12
(dtRp1510
sg18
g1
(g11
g12
(dtRp1511
sg20
g1
(g11
g12
(dtRp1512
sg22
g1
(g11
g12
(dtRp1513
sbsg24
S'Cme'
p1514
sg26
g27
((lp1515
g29
ag30
aS'sequence'
p1516
ag32
ag33
aS'species'
p1517
atRp1518
sg37
(lp1519
sg120
g1394
sg121
S'RWLSTKDLYSRLELPGLNQNVHAMFVMPLGFGNPMGDMFARLNNSFWLPPLSLEGAGTGWTVYPPLSHSGPSVDLAFHLTSSLLGAINFTNMRGPLYWTALLLLSLPVLAGTLLDRNFNTFEGGDPLYHLFWFFGHPEVYIIPGFGSHSTYKKFGMYASIGLGFVWSHHMYVGLDDRAYFTSATMIAPTGIKFSWLATYGGRPMLAFLFLFTGGTGVLNASDAFHDTYYVVHFHYVLSMGAFSLGYYYWYGLYNLFWFNFPMHFLGGMPRRPYPDAGWNSGSSYQLGPDESNEPH'
p1520
sg123
F0.00052999999999999998
sg124
g125
sg33
S'127'
p1521
sg127
g1
(g128
g12
(dp1522
g130
I4
sg131
g132
sg133
g134
sg135
g132
sg136
I01
sg34
g137
sg138
g134
sg139
I0
sg140
I0
sg141
I0
sg142
g134
sg35
g132
sg143
I0
stRp1523
sg145
g146
sg147
F1
sg148
Nsg30
S'CmetaC'
p1524
sbasg120
g1381
sg123
F1.0000000000000001e-05
sg124
g125
sg33
S'112'
p1525
sg127
g1
(g128
g12
(dp1526
g130
I8
sg131
g132
sg133
g134
sg135
g132
sg136
I01
sg34
g173
sg138
g134
sg139
I0
sg140
I0
sg141
I0
sg142
g134
sg35
g132
sg143
I0
stRp1527
sg145
g146
sg147
F1
sg148
Nsg30
S'NoName'
p1528
sbag1
(g2
g3
NtRp1529
(dp1530
g6
g1
(g7
g3
NtRp1531
(dp1532
g10
g1
(g11
g12
(dtRp1533
sg14
g1
(g11
g12
(dtRp1534
sg16
g1
(g11
g12
(dtRp1535
sg18
g1
(g11
g12
(dtRp1536
sg20
g1
(g11
g12
(dtRp1537
sg22
g1
(g11
g12
(dtRp1538
sbsg24
S'Cme'
p1539
sg26
g27
((lp1540
g29
ag30
aS'sequence'
p1541
ag32
ag33
aS'species'
p1542
atRp1543
sg37
(lp1544
sg120
g1381
sg121
S'RWLSTKDLYSRLELPGLNQNVHAMFVMPLGFGNPMGDMFARLNNSFWLPPLSLEGAGTGWTVYPPLSHSGPSVDLAFHLTSSLLGAINFTNMRGPLYWTALLLLSLPVLAGTLLDRNFNTFEGGDPLYHLFWFFGHPEVYIIPGFGSHSTYKKFGMYASIGLGFVWSHHMYVGLDDRAYFTSATMIAPTGIKFSWLATYGGRPMLAFLFLFTGGTGVLNASDAFHDTYYVVHFHYVLSMGAFSLGYYYWYGLYNLFWFNFPMHFLGGMPRRPYPDAGWNSGSSYQLGPDESNEPH'
p1545
sg123
F0.00012
sg124
g125
sg33
S'130'
p1546
sg127
g1
(g128
g12
(dp1547
g130
I4
sg131
g132
sg133
g134
sg135
g132
sg136
I01
sg34
g137
sg138
g134
sg139
I0
sg140
I0
sg141
I0
sg142
g134
sg35
g132
sg143
I0
stRp1548
sg145
g146
sg147
F1
sg148
Nsg30
S'CmetaB'
p1549
sbasg120
g1368
sg123
F1.0000000000000001e-05
sg124
g125
sg33
S'109'
p1550
sg127
g1
(g128
g12
(dp1551
g130
I8
sg131
g132
sg133
g134
sg135
g132
sg136
I01
sg34
g173
sg138
g134
sg139
I0
sg140
I0
sg141
I0
sg142
g134
sg35
g132
sg143
I0
stRp1552
sg145
g146
sg147
F1
sg148
Nsg30
S'NoName'
p1553
sbag1
(g2
g3
NtRp1554
(dp1555
g6
g1
(g7
g3
NtRp1556
(dp1557
g10
g1
(g11
g12
(dtRp1558
sg14
g1
(g11
g12
(dtRp1559
sg16
g1
(g11
g12
(dtRp1560
sg18
g1
(g11
g12
(dtRp1561
sg20
g1
(g11
g12
(dtRp1562
sg22
g1
(g11
g12
(dtRp1563
sbsg24
S'Cme'
p1564
sg26
g27
((lp1565
g29
ag30
aS'sequence'
p1566
ag32
ag33
aS'species'
p1567
atRp1568
sg37
(lp1569
sg120
g1368
sg121
S'RWLSTKDLYSRLELPGLNQNVHAMFVMPLGFGNPMGDMFARLNNSFWLPPLSLEGAGTGWTVYPPLSHSGPSVDLAFHLTSSLLGAINFTNMRGPLYWTALLLLSLPVLAGTLLDRNFNTFEGGDPLYHLFWFFGHPEVYIIPGFGSHSTYKKFGMYASIGLGFVWSHHMYVGLDDRAYFTSATMIAPTGIKFSWLATYGGRPMLAFLFLFTGGTGVLNASDAFHDTYYVVHFHYVLSMGAFSLGYYYWYGLYNLFWFNFPMHFLGGMPRRPYPDAGWNSGSSYQLGPDESNEPH'
p1570
sg123
F0.00012999999999999999
sg124
g125
sg33
S'132'
p1571
sg127
g1
(g128
g12
(dp1572
g130
I4
sg131
g132
sg133
g134
sg135
g132
sg136
I01
sg34
g137
sg138
g134
sg139
I0
sg140
I0
sg141
I0
sg142
g134
sg35
g132
sg143
I0
stRp1573
sg145
g146
sg147
F1
sg148
Nsg30
S'CmetaA'
p1574
sbasg120
g1106
sg123
F0.020930000000000001
sg124
g125
sg33
S'101'
p1575
sg127
g1
(g128
g12
(dp1576
g130
I8
sg131
g132
sg133
g134
sg135
g132
sg136
I01
sg34
g173
sg138
g134
sg139
I0
sg140
I0
sg141
I0
sg142
g134
sg35
g132
sg143
I0
stRp1577
sg145
g146
sg147
F0.98999999999999999
sg148
Nsg30
S'NoName'
p1578
sbasg120
g1093
sg123
F0.045289999999999997
sg124
g125
sg33
S'83'
p1579
sg127
g1
(g128
g12
(dp1580
g130
I8
sg131
g132
sg133
g134
sg135
g132
sg136
I01
sg34
g173
sg138
g134
sg139
I0
sg140
I0
sg141
I0
sg142
g134
sg35
g132
sg143
I0
stRp1581
sg145
g146
sg147
F0.98999999999999999
sg148
Nsg30
S'NoName'
p1582
sbag1
(g2
g3
NtRp1583
(dp1584
g6
g1
(g7
g3
NtRp1585
(dp1586
g10
g1
(g11
g12
(dtRp1587
sg14
g1
(g11
g12
(dtRp1588
sg16
g1
(g11
g12
(dtRp1589
sg18
g1
(g11
g12
(dtRp1590
sg20
g1
(g11
g12
(dtRp1591
sg22
g1
(g11
g12
(dtRp1592
sbsg24
S'Cji'
p1593
sg26
g27
((lp1594
g29
ag30
aS'sequence'
p1595
ag32
ag33
aS'species'
p1596
atRp1597
sg37
(lp1598
sg120
g1093
sg121
S'RWLSTKDLYSRLELPGLNQNVHAMFVMPLGFGNPMGDMFARLNNSFWLPPLSLEGAGTGWTVYPPLSHSGPSVDLAFHLTSSLLGAINFTNMRGPMFWTALLLLSLPVLAGTLLDRNFNTFDGGDPLYHLFWFFGHPEVYIIPGFGSHSTYKKFGMYASIGLGFVWSHHMYVGLDDRAYFTSATMIAPTGIKFSWLATYGGRPMLAFLFLFTGGTGVLNASDAFHDTYYTVHFHYVLSMGAFSLGYYYWYGLYNLFWFNFPMHFLGGMPRRPYPDAGWNSGSSYQLGPDESNEPH'
p1599
sg123
F0.013140000000000001
sg124
g125
sg33
S'133'
p1600
sg127
g1
(g128
g12
(dp1601
g130
I4
sg131
g132
sg133
g134
sg135
g132
sg136
I01
sg34
g137
sg138
g134
sg139
I0
sg140
I0
sg141
I0
sg142
g134
sg35
g132
sg143
I0
stRp1602
sg145
g146
sg147
F1
sg148
Nsg30
S'CjiufA'
p1603
sbasg120
g1021
sg123
F0.044909999999999999
sg124
g125
sg33
S'78'
p1604
sg127
g1
(g128
g12
(dp1605
g130
I8
sg131
g132
sg133
g134
sg135
g132
sg136
I01
sg34
g173
sg138
g134
sg139
I0
sg140
I0
sg141
I0
sg142
g134
sg35
g132
sg143
I0
stRp1606
sg145
g146
sg147
F0.98999999999999999
sg148
Nsg30
S'NoName'
p1607
sbasg120
g1008
sg123
F0.082199999999999995
sg124
g125
sg33
S'75'
p1608
sg127
g1
(g128
g12
(dp1609
g130
I8
sg131
g132
sg133
g134
sg135
g132
sg136
I01
sg34
g173
sg138
g134
sg139
I0
sg140
I0
sg141
I0
sg142
g134
sg35
g132
sg143
I0
stRp1610
sg145
g146
sg147
F0.98999999999999999
sg148
Nsg30
S'NoName'
p1611
sbag1
(g2
g3
NtRp1612
(dp1613
g6
g1
(g7
g3
NtRp1614
(dp1615
g10
g1
(g11
g12
(dtRp1616
sg14
g1
(g11
g12
(dtRp1617
sg16
g1
(g11
g12
(dtRp1618
sg18
g1
(g11
g12
(dtRp1619
sg20
g1
(g11
g12
(dtRp1620
sg22
g1
(g11
g12
(dtRp1621
sbsg24
g25
sg26
g27
((lp1622
g33
ag32
ag29
ag30
atRp1623
sg37
(lp1624
g1
(g2
g3
NtRp1625
(dp1626
g6
g1
(g7
g3
NtRp1627
(dp1628
g10
g1
(g11
g12
(dtRp1629
sg14
g1
(g11
g12
(dtRp1630
sg16
g1
(g11
g12
(dtRp1631
sg18
g1
(g11
g12
(dtRp1632
sg20
g1
(g11
g12
(dtRp1633
sg22
g1
(g11
g12
(dtRp1634
sbsg24
g25
sg26
g27
((lp1635
g33
ag32
ag29
ag30
atRp1636
sg37
(lp1637
g1
(g2
g3
NtRp1638
(dp1639
g6
g1
(g7
g3
NtRp1640
(dp1641
g10
g1
(g11
g12
(dtRp1642
sg14
g1
(g11
g12
(dtRp1643
sg16
g1
(g11
g12
(dtRp1644
sg18
g1
(g11
g12
(dtRp1645
sg20
g1
(g11
g12
(dtRp1646
sg22
g1
(g11
g12
(dtRp1647
sbsg24
S'Cco'
p1648
sg26
g27
((lp1649
g29
ag30
aS'sequence'
p1650
ag32
ag33
aS'species'
p1651
atRp1652
sg37
(lp1653
sg120
g1625
sg121
S'RWLSTKDLYSRMELPGLNQNVHAMFVMPLGFGNPMGDMFARLNNSFWLPPLSLEGAGTGWTLYAPLSHSGPSVDLAFHLTSSLLGAINFTNMRGPLFWTALLLLSLPVLAATLLDRNFNTFEGGDPLYHLFFVLMHPEVYIIPGFGSHSTYKKFGMYASMGLGFVWSHHMYVGLDDRAYFTSATMIAPTGIKFSWLATYGGRPMLAFLFLFTGGTGVLNASDAFHDTYYIKHFHYVLSMGAFSLGYYYWYGLYNMFWFNFPMHFLGGMPRRPYPDAGWNSGSSYQLGPDESNEPH'
p1654
sg123
F0.057970000000000001
sg124
g125
sg33
S'139'
p1655
sg127
g1
(g128
g12
(dp1656
g130
I4
sg131
g132
sg133
g134
sg135
g132
sg136
I01
sg34
g137
sg138
g134
sg139
I0
sg140
I0
sg141
I0
sg142
g134
sg35
g132
sg143
I0
stRp1657
sg145
g146
sg147
F1
sg148
Nsg30
S'CcoryA'
p1658
sbag1
(g2
g3
NtRp1659
(dp1660
g6
g1
(g7
g3
NtRp1661
(dp1662
g10
g1
(g11
g12
(dtRp1663
sg14
g1
(g11
g12
(dtRp1664
sg16
g1
(g11
g12
(dtRp1665
sg18
g1
(g11
g12
(dtRp1666
sg20
g1
(g11
g12
(dtRp1667
sg22
g1
(g11
g12
(dtRp1668
sbsg24
S'Cch'
p1669
sg26
g27
((lp1670
g29
ag30
aS'sequence'
p1671
ag32
ag33
aS'species'
p1672
atRp1673
sg37
(lp1674
sg120
g1625
sg121
S'RWLSTKDLYSRMELPSLNQNVHAMFVMPLGFGNPMGDMFARLNNSFWLPPLSLEGAGTGWTLYAPLSHSGPSVDLAFHLTSSLLGAINFTNMRGPLFWTALLLLSLPVLAATLLDRNFNTFEGGDPLYHLFWFYMYKDYYIIPGFGSHSTYKKFGMYASIGLGFVWSHHMFVGLDDRAYFTSATMIAPTGIKFSWLATYGGRPMLAFLFLFTGGTGVLNASDAFHDTYYVVHFHYVLSMGAFSLGYYYWYGLYNLFWFNFPMHFLGGMPRRPYPDAGWNSGSSYQLGPDESNEPH'
p1675
sg123
F0.052440000000000001
sg124
g125
sg33
S'140'
p1676
sg127
g1
(g128
g12
(dp1677
g130
I4
sg131
g132
sg133
g134
sg135
g132
sg136
I01
sg34
g137
sg138
g134
sg139
I0
sg140
I0
sg141
I0
sg142
g134
sg35
g132
sg143
I0
stRp1678
sg145
g146
sg147
F1
sg148
Nsg30
S'CchauA'
p1679
sbasg120
g1612
sg123
F0.16861999999999999
sg124
g125
sg33
S'135'
p1680
sg127
g1
(g128
g12
(dp1681
g130
I8
sg131
g132
sg133
g134
sg135
g132
sg136
I01
sg34
g173
sg138
g134
sg139
I0
sg140
I0
sg141
I0
sg142
g134
sg35
g132
sg143
I0
stRp1682
sg145
g146
sg147
F0.98999999999999999
sg148
Nsg30
S'NoName'
p1683
sbag1
(g2
g3
NtRp1684
(dp1685
g6
g1
(g7
g3
NtRp1686
(dp1687
g10
g1
(g11
g12
(dtRp1688
sg14
g1
(g11
g12
(dtRp1689
sg16
g1
(g11
g12
(dtRp1690
sg18
g1
(g11
g12
(dtRp1691
sg20
g1
(g11
g12
(dtRp1692
sg22
g1
(g11
g12
(dtRp1693
sbsg24
S'Cbo'
p1694
sg26
g27
((lp1695
g29
ag30
aS'sequence'
p1696
ag32
ag33
aS'species'
p1697
atRp1698
sg37
(lp1699
sg120
g1612
sg121
S'RWLSTKDLYSRMELPGLNQNVHAMFVMPLGFGNPMGDMFARLNNSFWLPPLSLEGAGTGWTVYPPLSHSGPSVDLAFHLTSSLLGAINFTNMRGPLFWTALLLLSLPVLAATLLDRNFNTFEGGDPLYHLFWFFGHPEVYIIPGFGSHSTYKKFGMYASIGLGFVWSHHMYVGLDDRAYFTSATMIAPTGIKFSWLATYGGRPMLAFLFLFTGGTGVLNASDAFHDTYYVVHFHYVLSMGAFSLAYYYWYGLYNLFWFNFPMHFLGGMPRRPYPDAGWNSGSSYQLGPDESNEPH'
p1700
sg123
F0.20199
sg124
g125
sg33
S'142'
p1701
sg127
g1
(g128
g12
(dp1702
g130
I4
sg131
g132
sg133
g134
sg135
g132
sg136
I01
sg34
g137
sg138
g134
sg139
I0
sg140
I0
sg141
I0
sg142
g134
sg35
g132
sg143
I0
stRp1703
sg145
g146
sg147
F1
sg148
Nsg30
S'CbohiA'
p1704
sbasg120
g1008
sg123
F0.14915999999999999
sg124
g125
sg33
S'118'
p1705
sg127
g1
(g128
g12
(dp1706
g130
I8
sg131
g132
sg133
g134
sg135
g132
sg136
I01
sg34
g173
sg138
g134
sg139
I0
sg140
I0
sg141
I0
sg142
g134
sg35
g132
sg143
I0
stRp1707
sg145
g146
sg147
F0.98999999999999999
sg148
Nsg30
S'NoName'
p1708
sbasg120
g995
sg123
F0.036799999999999999
sg124
g125
sg33
S'73'
p1709
sg127
g1
(g128
g12
(dp1710
g130
I8
sg131
g132
sg133
g134
sg135
g132
sg136
I01
sg34
g173
sg138
g134
sg139
I0
sg140
I0
sg141
I0
sg142
g134
sg35
g132
sg143
I0
stRp1711
sg145
g146
sg147
F0.98999999999999999
sg148
Nsg30
S'NoName'
p1712
sbag1
(g2
g3
NtRp1713
(dp1714
g6
g1
(g7
g3
NtRp1715
(dp1716
g10
g1
(g11
g12
(dtRp1717
sg14
g1
(g11
g12
(dtRp1718
sg16
g1
(g11
g12
(dtRp1719
sg18
g1
(g11
g12
(dtRp1720
sg20
g1
(g11
g12
(dtRp1721
sg22
g1
(g11
g12
(dtRp1722
sbsg24
g25
sg26
g27
((lp1723
g33
ag32
ag29
ag30
atRp1724
sg37
(lp1725
g1
(g2
g3
NtRp1726
(dp1727
g6
g1
(g7
g3
NtRp1728
(dp1729
g10
g1
(g11
g12
(dtRp1730
sg14
g1
(g11
g12
(dtRp1731
sg16
g1
(g11
g12
(dtRp1732
sg18
g1
(g11
g12
(dtRp1733
sg20
g1
(g11
g12
(dtRp1734
sg22
g1
(g11
g12
(dtRp1735
sbsg24
g25
sg26
g27
((lp1736
g33
ag32
ag29
ag30
atRp1737
sg37
(lp1738
g1
(g2
g3
NtRp1739
(dp1740
g6
g1
(g7
g3
NtRp1741
(dp1742
g10
g1
(g11
g12
(dtRp1743
sg14
g1
(g11
g12
(dtRp1744
sg16
g1
(g11
g12
(dtRp1745
sg18
g1
(g11
g12
(dtRp1746
sg20
g1
(g11
g12
(dtRp1747
sg22
g1
(g11
g12
(dtRp1748
sbsg24
S'Cma'
p1749
sg26
g27
((lp1750
g29
ag30
aS'sequence'
p1751
ag32
ag33
aS'species'
p1752
atRp1753
sg37
(lp1754
sg120
g1726
sg121
S'RWLSTKDLYSRLELPGLSQNVHAMFVMPLGFGNPLGDMFARLNNSFWLPPLSLEGAGTGWTVYPPLSHSGPSVDLAFHLTSSLLGAINFTNMRGPLYWTALLLLSLPVLAGTLLDRNFNTFEGGDPLYHLFWFFGHPEVYMIPGFGSHSTYKKFGMYASMGLGFVWSHHMYVGLDDRAYFTSATMIAPTGIKFSWLATYGGRPMLAFLFLFTGGTGVLNASDAFHDTYYVVHFHYVLSMGAFSLGYYYWSGLYNLYWFNFPMHFLGGMPRRPYPDAGWNSGSSYQLGPDESNEPH'
p1755
sg123
F0.24277000000000001
sg124
g125
sg33
S'146'
p1756
sg127
g1
(g128
g12
(dp1757
g130
I4
sg131
g132
sg133
g134
sg135
g132
sg136
I01
sg34
g137
sg138
g134
sg139
I0
sg140
I0
sg141
I0
sg142
g134
sg35
g132
sg143
I0
stRp1758
sg145
g146
sg147
F1
sg148
Nsg30
S'CmaltA'
p1759
sbag1
(g2
g3
NtRp1760
(dp1761
g6
g1
(g7
g3
NtRp1762
(dp1763
g10
g1
(g11
g12
(dtRp1764
sg14
g1
(g11
g12
(dtRp1765
sg16
g1
(g11
g12
(dtRp1766
sg18
g1
(g11
g12
(dtRp1767
sg20
g1
(g11
g12
(dtRp1768
sg22
g1
(g11
g12
(dtRp1769
sbsg24
g25
sg26
g27
((lp1770
g33
ag32
ag29
ag30
atRp1771
sg37
(lp1772
g1
(g2
g3
NtRp1773
(dp1774
g6
g1
(g7
g3
NtRp1775
(dp1776
g10
g1
(g11
g12
(dtRp1777
sg14
g1
(g11
g12
(dtRp1778
sg16
g1
(g11
g12
(dtRp1779
sg18
g1
(g11
g12
(dtRp1780
sg20
g1
(g11
g12
(dtRp1781
sg22
g1
(g11
g12
(dtRp1782
sbsg24
g25
sg26
g27
((lp1783
g33
ag32
ag29
ag30
atRp1784
sg37
(lp1785
g1
(g2
g3
NtRp1786
(dp1787
g6
g1
(g7
g3
NtRp1788
(dp1789
g10
g1
(g11
g12
(dtRp1790
sg14
g1
(g11
g12
(dtRp1791
sg16
g1
(g11
g12
(dtRp1792
sg18
g1
(g11
g12
(dtRp1793
sg20
g1
(g11
g12
(dtRp1794
sg22
g1
(g11
g12
(dtRp1795
sbsg24
g25
sg26
g27
((lp1796
g33
ag32
ag29
ag30
atRp1797
sg37
(lp1798
g1
(g2
g3
NtRp1799
(dp1800
g6
g1
(g7
g3
NtRp1801
(dp1802
g10
g1
(g11
g12
(dtRp1803
sg14
g1
(g11
g12
(dtRp1804
sg16
g1
(g11
g12
(dtRp1805
sg18
g1
(g11
g12
(dtRp1806
sg20
g1
(g11
g12
(dtRp1807
sg22
g1
(g11
g12
(dtRp1808
sbsg24
g25
sg26
g27
((lp1809
g33
ag32
ag29
ag30
atRp1810
sg37
(lp1811
g1
(g2
g3
NtRp1812
(dp1813
g6
g1
(g7
g3
NtRp1814
(dp1815
g10
g1
(g11
g12
(dtRp1816
sg14
g1
(g11
g12
(dtRp1817
sg16
g1
(g11
g12
(dtRp1818
sg18
g1
(g11
g12
(dtRp1819
sg20
g1
(g11
g12
(dtRp1820
sg22
g1
(g11
g12
(dtRp1821
sbsg24
S'Ctr'
p1822
sg26
g27
((lp1823
g29
ag30
aS'sequence'
p1824
ag32
ag33
aS'species'
p1825
atRp1826
sg37
(lp1827
sg120
g1799
sg121
S'RWLSTKDLYSRLELPGLNQNVHAMFVMPLGFGNPMGDMFARLNNSFWLPPLSLEGAGTGWTVYPPLSHSGPSVDLAFHLTSSLLGAINFTNMRGPLFWTALLLLSLPVLAGTLLDRNFNTFEGGDPLYHLFWFFGHPEVYIIPGFGSHSTYKKFGMYASIGLGFVWSHHMYVGLDDRAYFTSATMIAPTGIKFSWLATYGGRPMLAFLFLFTGGTGVLNASDAFHDSYYVVHFHYVLSMGAFSLGYYYWPGLYNLYWFNFPMHFLGGMPRRPYPDAGWNSGSSYQLGPDEANEPH'
p1828
sg123
F0.00064000000000000005
sg124
g125
sg33
S'154'
p1829
sg127
g1
(g128
g12
(dp1830
g130
I4
sg131
g132
sg133
g134
sg135
g132
sg136
I01
sg34
g137
sg138
g134
sg139
I0
sg140
I0
sg141
I0
sg142
g134
sg35
g132
sg143
I0
stRp1831
sg145
g146
sg147
F1
sg148
Nsg30
S'CtropB'
p1832
sbag1
(g2
g3
NtRp1833
(dp1834
g6
g1
(g7
g3
NtRp1835
(dp1836
g10
g1
(g11
g12
(dtRp1837
sg14
g1
(g11
g12
(dtRp1838
sg16
g1
(g11
g12
(dtRp1839
sg18
g1
(g11
g12
(dtRp1840
sg20
g1
(g11
g12
(dtRp1841
sg22
g1
(g11
g12
(dtRp1842
sbsg24
S'Ctr'
p1843
sg26
g27
((lp1844
g29
ag30
aS'sequence'
p1845
ag32
ag33
aS'species'
p1846
atRp1847
sg37
(lp1848
sg120
g1799
sg121
S'RWLSTKDLYSRLELPGLNQNVHAMFVMPLGFGNPMGDMFARLNNSFWLPPLSLEGAGTGWTVYPPLSHSGPSVDLAFHLTSSLLGAINFTNMRGPLFWTALLLLSLPVLAGTLLDRNFNTFEGGDPLYHLFWFFGHPEVYIIPGFGSHSTYKKFGMYASIGLGFVWSHHMYVGLDDRAYFTSATMIAPTGIKFSWLATYGGRPMLAFLFLFTGGTGVLNASDAFHDSYYVVHFHYVLSMGAFSLGYYYWPGLYNLYWFNFPMHFLGGMPRRPYPDAGWNSGSSYQLGPDEANEPH'
p1849
sg123
F0.00040000000000000002
sg124
g125
sg33
S'155'
p1850
sg127
g1
(g128
g12
(dp1851
g130
I4
sg131
g132
sg133
g134
sg135
g132
sg136
I01
sg34
g137
sg138
g134
sg139
I0
sg140
I0
sg141
I0
sg142
g134
sg35
g132
sg143
I0
stRp1852
sg145
g146
sg147
F1
sg148
Nsg30
S'CtropA'
p1853
sbasg120
g1786
sg123
F0.032030000000000003
sg124
g125
sg33
S'151'
p1854
sg127
g1
(g128
g12
(dp1855
g130
I8
sg131
g132
sg133
g134
sg135
g132
sg136
I01
sg34
g173
sg138
g134
sg139
I0
sg140
I0
sg141
I0
sg142
g134
sg35
g132
sg143
I0
stRp1856
sg145
g146
sg147
F0.98999999999999999
sg148
Nsg30
S'NoName'
p1857
sbag1
(g2
g3
NtRp1858
(dp1859
g6
g1
(g7
g3
NtRp1860
(dp1861
g10
g1
(g11
g12
(dtRp1862
sg14
g1
(g11
g12
(dtRp1863
sg16
g1
(g11
g12
(dtRp1864
sg18
g1
(g11
g12
(dtRp1865
sg20
g1
(g11
g12
(dtRp1866
sg22
g1
(g11
g12
(dtRp1867
sbsg24
S'Cso'
p1868
sg26
g27
((lp1869
g29
ag30
aS'sequence'
p1870
ag32
ag33
aS'species'
p1871
atRp1872
sg37
(lp1873
sg120
g1786
sg121
S'RWLSTKDLYSRLELPGLNQNVHAMFVMPLGFGNPMGDMFARLNNSFWLPPLSLEGAGTGWTVYPPLSHSGPSVDLAFHLTSSLLGAMNFTNMRGPLFWTALLLLSLPVLAGTLLDRNFNTFEGGDPLYHLFWFFGHPEVYIIPGFGSHSTYKKFGMYASIGLGFVWSHHMYVGLDDRAYFTSATMIAPTGIKFSWLATYGGRPMLAFLFLFTGGTGVLNASDAFHDTYYVVHFHYVLSMGAFSLGYYYWPGLYNLYWFNFPMHFLGGMPRRPYPDAGWNSGSSYQLGPDEANEPH'
p1874
sg123
F0.033649999999999999
sg124
g125
sg33
S'158'
p1875
sg127
g1
(g128
g12
(dp1876
g130
I4
sg131
g132
sg133
g134
sg135
g132
sg136
I01
sg34
g137
sg138
g134
sg139
I0
sg140
I0
sg141
I0
sg142
g134
sg35
g132
sg143
I0
stRp1877
sg145
g146
sg147
F1
sg148
Nsg30
S'CsojaA'
p1878
sbasg120
g1773
sg123
F0.019990000000000001
sg124
g125
sg33
S'149'
p1879
sg127
g1
(g128
g12
(dp1880
g130
I8
sg131
g132
sg133
g134
sg135
g132
sg136
I01
sg34
g173
sg138
g134
sg139
I0
sg140
I0
sg141
I0
sg142
g134
sg35
g132
sg143
I0
stRp1881
sg145
g146
sg147
F0.98999999999999999
sg148
Nsg30
S'NoName'
p1882
sbag1
(g2
g3
NtRp1883
(dp1884
g6
g1
(g7
g3
NtRp1885
(dp1886
g10
g1
(g11
g12
(dtRp1887
sg14
g1
(g11
g12
(dtRp1888
sg16
g1
(g11
g12
(dtRp1889
sg18
g1
(g11
g12
(dtRp1890
sg20
g1
(g11
g12
(dtRp1891
sg22
g1
(g11
g12
(dtRp1892
sbsg24
g25
sg26
g27
((lp1893
g33
ag32
ag29
ag30
atRp1894
sg37
(lp1895
g1
(g2
g3
NtRp1896
(dp1897
g6
g1
(g7
g3
NtRp1898
(dp1899
g10
g1
(g11
g12
(dtRp1900
sg14
g1
(g11
g12
(dtRp1901
sg16
g1
(g11
g12
(dtRp1902
sg18
g1
(g11
g12
(dtRp1903
sg20
g1
(g11
g12
(dtRp1904
sg22
g1
(g11
g12
(dtRp1905
sbsg24
S'Cte'
p1906
sg26
g27
((lp1907
g29
ag30
aS'sequence'
p1908
ag32
ag33
aS'species'
p1909
atRp1910
sg37
(lp1911
sg120
g1883
sg121
S'RWLSTKDLYSRLELPGLNQNVHAMFVMPLGFGNPMGDMFARLNNSFWLPPLSLEGAGTGWTVYPPLSHSGPSVDMAFHLTSSLLGAINFTNMRGPLFWTALLLLSLPVLAGTLLDRNFNTFEGGDPLYHLFWFFGHPEVYIIPGFGSHSTYKKFGMYASIGLGFVWSHHMFVGLDDRAYFTSATMMAPTGIKFSWLATYGGRPMLAFLFLFTGGTGVLNASDSMHDTYYVVHFHYVLSMGAFSLGYYYWPGLYNLYWFNFPMHFLGGMPRRPYPDAGWNSGSSLQLGPDESNEPH'
p1912
sg123
F0.084209999999999993
sg124
g125
sg33
S'162'
p1913
sg127
g1
(g128
g12
(dp1914
g130
I4
sg131
g132
sg133
g134
sg135
g132
sg136
I01
sg34
g137
sg138
g134
sg139
I0
sg140
I0
sg141
I0
sg142
g134
sg35
g132
sg143
I0
stRp1915
sg145
g146
sg147
F1
sg148
Nsg30
S'CtetrA'
p1916
sbag1
(g2
g3
NtRp1917
(dp1918
g6
g1
(g7
g3
NtRp1919
(dp1920
g10
g1
(g11
g12
(dtRp1921
sg14
g1
(g11
g12
(dtRp1922
sg16
g1
(g11
g12
(dtRp1923
sg18
g1
(g11
g12
(dtRp1924
sg20
g1
(g11
g12
(dtRp1925
sg22
g1
(g11
g12
(dtRp1926
sbsg24
g25
sg26
g27
((lp1927
g33
ag32
ag29
ag30
atRp1928
sg37
(lp1929
g1
(g2
g3
NtRp1930
(dp1931
g6
g1
(g7
g3
NtRp1932
(dp1933
g10
g1
(g11
g12
(dtRp1934
sg14
g1
(g11
g12
(dtRp1935
sg16
g1
(g11
g12
(dtRp1936
sg18
g1
(g11
g12
(dtRp1937
sg20
g1
(g11
g12
(dtRp1938
sg22
g1
(g11
g12
(dtRp1939
sbsg24
g25
sg26
g27
((lp1940
g33
ag32
ag29
ag30
atRp1941
sg37
(lp1942
g1
(g2
g3
NtRp1943
(dp1944
g6
g1
(g7
g3
NtRp1945
(dp1946
g10
g1
(g11
g12
(dtRp1947
sg14
g1
(g11
g12
(dtRp1948
sg16
g1
(g11
g12
(dtRp1949
sg18
g1
(g11
g12
(dtRp1950
sg20
g1
(g11
g12
(dtRp1951
sg22
g1
(g11
g12
(dtRp1952
sbsg24
S'Cvi'
p1953
sg26
g27
((lp1954
g29
ag30
aS'sequence'
p1955
ag32
ag33
aS'species'
p1956
atRp1957
sg37
(lp1958
sg120
g1930
sg121
S'RWFSTKDLYSRLELPGLNQNVHAMFVMPLGFGNPMGDMFARLNNSFWLPPLSLEGAGTGWTVYPPLSHSGPSVDLAFHLTSSLLGAINFTNMRGPLFWTALLLLSLPVLAGTLLDRNFNTFDGGDPLYHLFWFFGHPEVYMIPGFGSHSTYKKFGMYASIGLGFVWSHHMYVGLDDRAYFTSATMIAPTGIKFSWLSTYGGRPTLAFLFLFTGGTGVLNASDSMHDTYYVVHFHYVLSMGAFSLGYYYWPGLYNLYWFNFPMHFLGGMPRRPYPDSGWNSGSSFQLGPDESNEPH'
p1959
sg123
F0.03977
sg124
g125
sg33
S'167'
p1960
sg127
g1
(g128
g12
(dp1961
g130
I4
sg131
g132
sg133
g134
sg135
g132
sg136
I01
sg34
g137
sg138
g134
sg139
I0
sg140
I0
sg141
I0
sg142
g134
sg35
g132
sg143
I0
stRp1962
sg145
g146
sg147
F1
sg148
Nsg30
S'CviswA'
p1963
sbag1
(g2
g3
NtRp1964
(dp1965
g6
g1
(g7
g3
NtRp1966
(dp1967
g10
g1
(g11
g12
(dtRp1968
sg14
g1
(g11
g12
(dtRp1969
sg16
g1
(g11
g12
(dtRp1970
sg18
g1
(g11
g12
(dtRp1971
sg20
g1
(g11
g12
(dtRp1972
sg22
g1
(g11
g12
(dtRp1973
sbsg24
S'Csa'
p1974
sg26
g27
((lp1975
g29
ag30
aS'sequence'
p1976
ag32
ag33
aS'species'
p1977
atRp1978
sg37
(lp1979
sg120
g1930
sg121
S'RWFSTKDLYSRLELPGLNQNVHAMFVMPLGFGNPMGDMFARLNNSFWLPPLSLEGAGTGWTVYPPLSHSGPSVDLAFHLTSSLLGAINFTNMRGVLFWTALLLLSLPVLAGTLLDRNFNTFDGGDPLYHLFWFFGHPEVYIIPGFGSHSTFKKFGMYASIGLGFVWSHHMYVGLDDRAYFTSATMIAPTGIKFSWIATYGGRPTLAFLFLFTGGTGVLNASDSMHDTYYVVHFHYVLSMGAFSLGYYYWPGLYNLYWFNFPMHFLGGMPRRPYPDSGWNSGSSYQLGPDEGNEPH'
p1980
sg123
F0.065189999999999998
sg124
g125
sg33
S'169'
p1981
sg127
g1
(g128
g12
(dp1982
g130
I4
sg131
g132
sg133
g134
sg135
g132
sg136
I01
sg34
g137
sg138
g134
sg139
I0
sg140
I0
sg141
I0
sg142
g134
sg35
g132
sg143
I0
stRp1983
sg145
g146
sg147
F1
sg148
Nsg30
S'CsaraA'
p1984
sbasg120
g1917
sg123
F0.029960000000000001
sg124
g125
sg33
S'163'
p1985
sg127
g1
(g128
g12
(dp1986
g130
I8
sg131
g132
sg133
g134
sg135
g132
sg136
I01
sg34
g173
sg138
g134
sg139
I0
sg140
I0
sg141
I0
sg142
g134
sg35
g132
sg143
I0
stRp1987
sg145
g146
sg147
F0.98999999999999999
sg148
Nsg30
S'NoName'
p1988
sbag1
(g2
g3
NtRp1989
(dp1990
g6
g1
(g7
g3
NtRp1991
(dp1992
g10
g1
(g11
g12
(dtRp1993
sg14
g1
(g11
g12
(dtRp1994
sg16
g1
(g11
g12
(dtRp1995
sg18
g1
(g11
g12
(dtRp1996
sg20
g1
(g11
g12
(dtRp1997
sg22
g1
(g11
g12
(dtRp1998
sbsg24
S'Cpr'
p1999
sg26
g27
((lp2000
g29
ag30
aS'sequence'
p2001
ag32
ag33
aS'species'
p2002
atRp2003
sg37
(lp2004
sg120
g1917
sg121
S'RWFSTKDEYSRLELPGLNQNVHAMFVMPLGFGNPMGDMFARLNNSFWLPPLSLEGAGTGWTVYPPLSHSGPSVDLAFHLTSSLLGAINFTNMRGPLFWTALLLLSLPVLTGTLLDRNFNTFDGGDPLYHLFWFFGHPEVYMIPGFGSHSTYKKFGMYASMGLGFVWSHHMFVGLDDRAYFTSATMMAPTGIKFSWLATYGGRPMLAFLFLFTGGTGVLNASDSMHDTYYVVHFHYVLSMGAFSLGYYYWPGLYNLYWFNFPMHFLGGMPRRPYPDSGWNSGSSVQLGPDENNEPH'
p2005
sg123
F0.17724999999999999
sg124
g125
sg33
S'170'
p2006
sg127
g1
(g128
g12
(dp2007
g130
I4
sg131
g132
sg133
g134
sg135
g132
sg136
I01
sg34
g137
sg138
g134
sg139
I0
sg140
I0
sg141
I0
sg142
g134
sg35
g132
sg143
I0
stRp2008
sg145
g146
sg147
F1
sg148
Nsg30
S'CpracA'
p2009
sbasg120
g1883
sg123
F0.02281
sg124
g125
sg33
S'160'
p2010
sg127
g1
(g128
g12
(dp2011
g130
I8
sg131
g132
sg133
g134
sg135
g132
sg136
I01
sg34
g173
sg138
g134
sg139
I0
sg140
I0
sg141
I0
sg142
g134
sg35
g132
sg143
I0
stRp2012
sg145
g146
sg147
F0.98999999999999999
sg148
Nsg30
S'NoName'
p2013
sbasg120
g1773
sg123
F0.01154
sg124
g125
sg33
S'152'
p2014
sg127
g1
(g128
g12
(dp2015
g130
I8
sg131
g132
sg133
g134
sg135
g132
sg136
I01
sg34
g173
sg138
g134
sg139
I0
sg140
I0
sg141
I0
sg142
g134
sg35
g132
sg143
I0
stRp2016
sg145
g146
sg147
F0.98999999999999999
sg148
Nsg30
S'NoName'
p2017
sbasg120
g1760
sg123
F0.02138
sg124
g125
sg33
S'148'
p2018
sg127
g1
(g128
g12
(dp2019
g130
I8
sg131
g132
sg133
g134
sg135
g132
sg136
I01
sg34
g173
sg138
g134
sg139
I0
sg140
I0
sg141
I0
sg142
g134
sg35
g132
sg143
I0
stRp2020
sg145
g146
sg147
F0.98999999999999999
sg148
Nsg30
S'NoName'
p2021
sbag1
(g2
g3
NtRp2022
(dp2023
g6
g1
(g7
g3
NtRp2024
(dp2025
g10
g1
(g11
g12
(dtRp2026
sg14
g1
(g11
g12
(dtRp2027
sg16
g1
(g11
g12
(dtRp2028
sg18
g1
(g11
g12
(dtRp2029
sg20
g1
(g11
g12
(dtRp2030
sg22
g1
(g11
g12
(dtRp2031
sbsg24
g25
sg26
g27
((lp2032
g33
ag32
ag29
ag30
atRp2033
sg37
(lp2034
g1
(g2
g3
NtRp2035
(dp2036
g6
g1
(g7
g3
NtRp2037
(dp2038
g10
g1
(g11
g12
(dtRp2039
sg14
g1
(g11
g12
(dtRp2040
sg16
g1
(g11
g12
(dtRp2041
sg18
g1
(g11
g12
(dtRp2042
sg20
g1
(g11
g12
(dtRp2043
sg22
g1
(g11
g12
(dtRp2044
sbsg24
S'Cne'
p2045
sg26
g27
((lp2046
g29
ag30
aS'sequence'
p2047
ag32
ag33
aS'species'
p2048
atRp2049
sg37
(lp2050
sg120
g2022
sg121
S'RWLSTKDLYSRLELPGLNQNVHAMFVMPLGFGNPMGDMFARLNNSFWLPPLSLEGAGTGWTVYPPLSHSGPSVDLAFHLTSSLLGAINFTNMRGPLFWTALLLLSLPVLAGTLLDRNFNTFDGGDPLYHLFWFFGHPEVYIIPGFGSHSTYKKFGMYASIGLGFVWSHHMYVGLDDRAYFTSATMIAPTGIKFSWLATYGGRPMLAFLFLFTGGTGVLNASDAFHDTYYVVHFHYVLSMGAFSLGYYYWPGLYNLYWFNFPMHFLGGMPRRPYPDSGWNSGSSYQLGPDESNEPH'
p2051
sg123
F0.04879
sg124
g125
sg33
S'175'
p2052
sg127
g1
(g128
g12
(dp2053
g130
I4
sg131
g132
sg133
g134
sg135
g132
sg136
I01
sg34
g137
sg138
g134
sg139
I0
sg140
I0
sg141
I0
sg142
g134
sg35
g132
sg143
I0
stRp2054
sg145
g146
sg147
F1
sg148
Nsg30
S'CneerA'
p2055
sbag1
(g2
g3
NtRp2056
(dp2057
g6
g1
(g7
g3
NtRp2058
(dp2059
g10
g1
(g11
g12
(dtRp2060
sg14
g1
(g11
g12
(dtRp2061
sg16
g1
(g11
g12
(dtRp2062
sg18
g1
(g11
g12
(dtRp2063
sg20
g1
(g11
g12
(dtRp2064
sg22
g1
(g11
g12
(dtRp2065
sbsg24
S'Cfr'
p2066
sg26
g27
((lp2067
g29
ag30
aS'sequence'
p2068
ag32
ag33
aS'species'
p2069
atRp2070
sg37
(lp2071
sg120
g2022
sg121
S'RWLSTKDLYSRLELPGLNQNVHAMFVMPLGFGNPMGDMFARLNNSFWLPPLSLEGAGTGWTVYPPLSHSGPSVDLAFHLTSSLLGAMNFTNMRGPLFWTALLLLSLPVLAGTLLDRNFNTFDGGDPLYHLFWFFGHPEVYIIPGFGSHSTYKKFGMYASIGLGFVWSHHMYVGLDDRAYFTSATMIAPTGIKFSWLSTYGGRPMLAFLFLFTGGTGVLNASDAFHDTYYVVHFHYVLSMGAFSLGYYYWPGLYNLYWFNFPMHFLGGMPRRPYPDSGWNSGSSYQLGPDESNEPH'
p2072
sg123
F0.050279999999999998
sg124
g125
sg33
S'177'
p2073
sg127
g1
(g128
g12
(dp2074
g130
I4
sg131
g132
sg133
g134
sg135
g132
sg136
I01
sg34
g137
sg138
g134
sg139
I0
sg140
I0
sg141
I0
sg142
g134
sg35
g132
sg143
I0
stRp2075
sg145
g146
sg147
F1
sg148
Nsg30
S'CfrijA'
p2076
sbasg120
g1760
sg123
F0.11378000000000001
sg124
g125
sg33
S'165'
p2077
sg127
g1
(g128
g12
(dp2078
g130
I8
sg131
g132
sg133
g134
sg135
g132
sg136
I01
sg34
g173
sg138
g134
sg139
I0
sg140
I0
sg141
I0
sg142
g134
sg35
g132
sg143
I0
stRp2079
sg145
g146
sg147
F0.98999999999999999
sg148
Nsg30
S'NoName'
p2080
sbasg120
g1726
sg123
F0.076910000000000006
sg124
g125
sg33
S'145'
p2081
sg127
g1
(g128
g12
(dp2082
g130
I8
sg131
g132
sg133
g134
sg135
g132
sg136
I01
sg34
g173
sg138
g134
sg139
I0
sg140
I0
sg141
I0
sg142
g134
sg35
g132
sg143
I0
stRp2083
sg145
g146
sg147
F0.98999999999999999
sg148
Nsg30
S'NoName'
p2084
sbasg120
g1713
sg123
F0.022950000000000002
sg124
g125
sg33
S'143'
p2085
sg127
g1
(g128
g12
(dp2086
g130
I8
sg131
g132
sg133
g134
sg135
g132
sg136
I01
sg34
g173
sg138
g134
sg139
I0
sg140
I0
sg141
I0
sg142
g134
sg35
g132
sg143
I0
stRp2087
sg145
g146
sg147
F0.65000000000000002
sg148
Nsg30
S'NoName'
p2088
sbag1
(g2
g3
NtRp2089
(dp2090
g6
g1
(g7
g3
NtRp2091
(dp2092
g10
g1
(g11
g12
(dtRp2093
sg14
g1
(g11
g12
(dtRp2094
sg16
g1
(g11
g12
(dtRp2095
sg18
g1
(g11
g12
(dtRp2096
sg20
g1
(g11
g12
(dtRp2097
sg22
g1
(g11
g12
(dtRp2098
sbsg24
g25
sg26
g27
((lp2099
g33
ag32
ag29
ag30
atRp2100
sg37
(lp2101
g1
(g2
g3
NtRp2102
(dp2103
g6
g1
(g7
g3
NtRp2104
(dp2105
g10
g1
(g11
g12
(dtRp2106
sg14
g1
(g11
g12
(dtRp2107
sg16
g1
(g11
g12
(dtRp2108
sg18
g1
(g11
g12
(dtRp2109
sg20
g1
(g11
g12
(dtRp2110
sg22
g1
(g11
g12
(dtRp2111
sbsg24
g25
sg26
g27
((lp2112
g33
ag32
ag29
ag30
atRp2113
sg37
(lp2114
g1
(g2
g3
NtRp2115
(dp2116
g6
g1
(g7
g3
NtRp2117
(dp2118
g10
g1
(g11
g12
(dtRp2119
sg14
g1
(g11
g12
(dtRp2120
sg16
g1
(g11
g12
(dtRp2121
sg18
g1
(g11
g12
(dtRp2122
sg20
g1
(g11
g12
(dtRp2123
sg22
g1
(g11
g12
(dtRp2124
sbsg24
S'Cgi'
p2125
sg26
g27
((lp2126
g29
ag30
aS'sequence'
p2127
ag32
ag33
aS'species'
p2128
atRp2129
sg37
(lp2130
sg120
g2102
sg121
S'RWLSTKDLYSRLELAGLNQNVHAMFVMPLGFGNPMGDMFARLNNSFWLPPLSLEGAGTGWTVYPPLSHSGPSVDMAFHLTSSLLGAINFTNMRGPLFWTALLLLSLPVLAATLLDRNFNTFEGGDPLYHAFWFFGHPEVYIIPGFGSHSTYKKFGMYASIGLGFVWSHHMYVGLDDRAYFTSATMIAPTGIKFSWLATYGGRPMLAFLFLFTGGTGVLNASDAFHDTYYVVHFHYVLSMGAFSLGYYYWPGLYNLYWFNFPMHFLGGMPRRPYPDAGWNSGSSYQLGPDESNEPH'
p2131
sg123
F0.22796
sg124
g125
sg33
S'182'
p2132
sg127
g1
(g128
g12
(dp2133
g130
I4
sg131
g132
sg133
g134
sg135
g132
sg136
I01
sg34
g137
sg138
g134
sg139
I0
sg140
I0
sg141
I0
sg142
g134
sg35
g132
sg143
I0
stRp2134
sg145
g146
sg147
F1
sg148
Nsg30
S'CgigaA'
p2135
sbag1
(g2
g3
NtRp2136
(dp2137
g6
g1
(g7
g3
NtRp2138
(dp2139
g10
g1
(g11
g12
(dtRp2140
sg14
g1
(g11
g12
(dtRp2141
sg16
g1
(g11
g12
(dtRp2142
sg18
g1
(g11
g12
(dtRp2143
sg20
g1
(g11
g12
(dtRp2144
sg22
g1
(g11
g12
(dtRp2145
sbsg24
S'Cbu'
p2146
sg26
g27
((lp2147
g29
ag30
aS'sequence'
p2148
ag32
ag33
aS'species'
p2149
atRp2150
sg37
(lp2151
sg120
g2102
sg121
S'RWLSTKDLYSRLELAGLNQNVHAMFVMPLGFGNPMGDMFARLNNSFWLPPLSLEGAGTGWTVYPPLSHSGPSVDLAFHLTSSLLGAINFTNMRGPLFWTALLLLSLPVLAGTLLDRNFNTFEGGDPLYHLFWFFGHPEVYIIPGFGSHGTYKKFGMYASIGLGFVWSHHMFVGLDDRAYFTSATMIAPTGIKFSWLATYGGRPMLAFLFLFTGGTGVLNASDAFHDTYYVVHFHYVLSMGAFSLAYYYWPGLYNLFWFNFPMHFLGGMPRRPYPDAGWNSGSSYQLGPDESNEPH'
p2152
sg123
F0.26118000000000002
sg124
g125
sg33
S'184'
p2153
sg127
g1
(g128
g12
(dp2154
g130
I4
sg131
g132
sg133
g134
sg135
g132
sg136
I01
sg34
g137
sg138
g134
sg139
I0
sg140
I0
sg141
I0
sg142
g134
sg35
g132
sg143
I0
stRp2155
sg145
g146
sg147
F1
sg148
Nsg30
S'CbuenA'
p2156
sbasg120
g2089
sg123
F0.037260000000000001
sg124
g125
sg33
S'178'
p2157
sg127
g1
(g128
g12
(dp2158
g130
I8
sg131
g132
sg133
g134
sg135
g132
sg136
I01
sg34
g173
sg138
g134
sg139
I0
sg140
I0
sg141
I0
sg142
g134
sg35
g132
sg143
I0
stRp2159
sg145
g146
sg147
F0.98999999999999999
sg148
Nsg30
S'NoName'
p2160
sbag1
(g2
g3
NtRp2161
(dp2162
g6
g1
(g7
g3
NtRp2163
(dp2164
g10
g1
(g11
g12
(dtRp2165
sg14
g1
(g11
g12
(dtRp2166
sg16
g1
(g11
g12
(dtRp2167
sg18
g1
(g11
g12
(dtRp2168
sg20
g1
(g11
g12
(dtRp2169
sg22
g1
(g11
g12
(dtRp2170
sbsg24
g25
sg26
g27
((lp2171
g33
ag32
ag29
ag30
atRp2172
sg37
(lp2173
g1
(g2
g3
NtRp2174
(dp2175
g6
g1
(g7
g3
NtRp2176
(dp2177
g10
g1
(g11
g12
(dtRp2178
sg14
g1
(g11
g12
(dtRp2179
sg16
g1
(g11
g12
(dtRp2180
sg18
g1
(g11
g12
(dtRp2181
sg20
g1
(g11
g12
(dtRp2182
sg22
g1
(g11
g12
(dtRp2183
sbsg24
S'Cdu'
p2184
sg26
g27
((lp2185
g29
ag30
aS'sequence'
p2186
ag32
ag33
aS'species'
p2187
atRp2188
sg37
(lp2189
sg120
g2161
sg121
S'RWLSTKDLYSRLELPGLNQNVHAMFVMPLGFGNPMGDMFARLNNSFWLPPLSLEGAGTGWTVYPPLSHSGPSVDLAFHLTSSLLGAINFTNMRGPLYWTALLLLSLPVLAGTLLDRNFNTFEGGDPLYHLFWFFGHPEVYIIPGFGSHSTYKKFGMYASIGLGFVWSHHMYVGLDDRAYFTSATMIAPTGIKFSWLATYGGRPMLAFLFLFTGGTGVLNASDAFHDTYYVVHFHYVLSMGAFSLGYYYWPGLYNLYWFNFPMHFLGGMPRRPYPDAGWNSGSSYQLGPDESNEPH'
p2190
sg123
F0.025069999999999999
sg124
g125
sg33
S'187'
p2191
sg127
g1
(g128
g12
(dp2192
g130
I4
sg131
g132
sg133
g134
sg135
g132
sg136
I01
sg34
g137
sg138
g134
sg139
I0
sg140
I0
sg141
I0
sg142
g134
sg35
g132
sg143
I0
stRp2193
sg145
g146
sg147
F1
sg148
Nsg30
S'CdublA'
p2194
sbag1
(g2
g3
NtRp2195
(dp2196
g6
g1
(g7
g3
NtRp2197
(dp2198
g10
g1
(g11
g12
(dtRp2199
sg14
g1
(g11
g12
(dtRp2200
sg16
g1
(g11
g12
(dtRp2201
sg18
g1
(g11
g12
(dtRp2202
sg20
g1
(g11
g12
(dtRp2203
sg22
g1
(g11
g12
(dtRp2204
sbsg24
g25
sg26
g27
((lp2205
g33
ag32
ag29
ag30
atRp2206
sg37
(lp2207
g1
(g2
g3
NtRp2208
(dp2209
g6
g1
(g7
g3
NtRp2210
(dp2211
g10
g1
(g11
g12
(dtRp2212
sg14
g1
(g11
g12
(dtRp2213
sg16
g1
(g11
g12
(dtRp2214
sg18
g1
(g11
g12
(dtRp2215
sg20
g1
(g11
g12
(dtRp2216
sg22
g1
(g11
g12
(dtRp2217
sbsg24
g25
sg26
g27
((lp2218
g33
ag32
ag29
ag30
atRp2219
sg37
(lp2220
g1
(g2
g3
NtRp2221
(dp2222
g6
g1
(g7
g3
NtRp2223
(dp2224
g10
g1
(g11
g12
(dtRp2225
sg14
g1
(g11
g12
(dtRp2226
sg16
g1
(g11
g12
(dtRp2227
sg18
g1
(g11
g12
(dtRp2228
sg20
g1
(g11
g12
(dtRp2229
sg22
g1
(g11
g12
(dtRp2230
sbsg24
g25
sg26
g27
((lp2231
g33
ag32
ag29
ag30
atRp2232
sg37
(lp2233
g1
(g2
g3
NtRp2234
(dp2235
g6
g1
(g7
g3
NtRp2236
(dp2237
g10
g1
(g11
g12
(dtRp2238
sg14
g1
(g11
g12
(dtRp2239
sg16
g1
(g11
g12
(dtRp2240
sg18
g1
(g11
g12
(dtRp2241
sg20
g1
(g11
g12
(dtRp2242
sg22
g1
(g11
g12
(dtRp2243
sbsg24
g25
sg26
g27
((lp2244
g33
ag32
ag29
ag30
atRp2245
sg37
(lp2246
g1
(g2
g3
NtRp2247
(dp2248
g6
g1
(g7
g3
NtRp2249
(dp2250
g10
g1
(g11
g12
(dtRp2251
sg14
g1
(g11
g12
(dtRp2252
sg16
g1
(g11
g12
(dtRp2253
sg18
g1
(g11
g12
(dtRp2254
sg20
g1
(g11
g12
(dtRp2255
sg22
g1
(g11
g12
(dtRp2256
sbsg24
S'Cal'
p2257
sg26
g27
((lp2258
g29
ag30
aS'sequence'
p2259
ag32
ag33
aS'species'
p2260
atRp2261
sg37
(lp2262
sg120
g2234
sg121
S'RWLSTKDLYSRLELPGLNQNVHAMFVMPLGFGNPMGDMFARLNNSFWLPPLSLEGAGTGWTVYPPLSHSGPSVDLAFHLTSSLLGAINFTNMRGPLFWTALLLLSLPVLAGTLLDRNFNTFEGGDPLYHLFWFFGHPEVYIIPGFGSHSTYKKFGMYASIGLGFVWSHHMYVGLDDRAYFTSATMIAPTGIKFSWLATYGGRPMLAFLFLFTGGTGVLNASDAFHDTYYVVHFHYVLSMGAFSLGYYYWPGLYNLYWFNFPMHFLGGMPRRPYPDAGWNSGSSYQLGPDESNEPH'
p2263
sg123
F0.00025000000000000001
sg124
g125
sg33
S'196'
p2264
sg127
g1
(g128
g12
(dp2265
g130
I4
sg131
g132
sg133
g134
sg135
g132
sg136
I01
sg34
g137
sg138
g134
sg139
I0
sg140
I0
sg141
I0
sg142
g134
sg35
g132
sg143
I0
stRp2266
sg145
g146
sg147
F1
sg148
Nsg30
S'CalbiE'
p2267
sbag1
(g2
g3
NtRp2268
(dp2269
g6
g1
(g7
g3
NtRp2270
(dp2271
g10
g1
(g11
g12
(dtRp2272
sg14
g1
(g11
g12
(dtRp2273
sg16
g1
(g11
g12
(dtRp2274
sg18
g1
(g11
g12
(dtRp2275
sg20
g1
(g11
g12
(dtRp2276
sg22
g1
(g11
g12
(dtRp2277
sbsg24
S'Cal'
p2278
sg26
g27
((lp2279
g29
ag30
aS'sequence'
p2280
ag32
ag33
aS'species'
p2281
atRp2282
sg37
(lp2283
sg120
g2234
sg121
S'RWLSTKDLYSRLELPGLNQNVHAMFVMPLGFGNPMGDMFARLNNSFWLPPLSLEGAGTGWTVYPPLSHSGPSVDLAFHLTSSLLGAINFTNMRGPLFWTALLLLSLPVLAGTLLDRNFNTFEGGDPLYHLFWFFGHPEVYIIPGFGSHSTYKKFGMYASIGLGFVWSHHMYVGLDDRAYFTSATMIAPTGIKFSWLATYGGRPMLAFLFLFTGGTGVLNASDAFHDTYYVVHFHYVLSMGAFSLGYYYWPGLYNLYWFNFPMHFLGGMPRRPYPDAGWNSGSSYQLGPDESNEPH'
p2284
sg123
F0.00050000000000000001
sg124
g125
sg33
S'198'
p2285
sg127
g1
(g128
g12
(dp2286
g130
I4
sg131
g132
sg133
g134
sg135
g132
sg136
I01
sg34
g137
sg138
g134
sg139
I0
sg140
I0
sg141
I0
sg142
g134
sg35
g132
sg143
I0
stRp2287
sg145
g146
sg147
F1
sg148
Nsg30
S'CalbiD'
p2288
sbasg120
g2221
sg123
F0.00051999999999999995
sg124
g125
sg33
S'192'
p2289
sg127
g1
(g128
g12
(dp2290
g130
I8
sg131
g132
sg133
g134
sg135
g132
sg136
I01
sg34
g173
sg138
g134
sg139
I0
sg140
I0
sg141
I0
sg142
g134
sg35
g132
sg143
I0
stRp2291
sg145
g146
sg147
F0.73999999999999999
sg148
Nsg30
S'NoName'
p2292
sbag1
(g2
g3
NtRp2293
(dp2294
g6
g1
(g7
g3
NtRp2295
(dp2296
g10
g1
(g11
g12
(dtRp2297
sg14
g1
(g11
g12
(dtRp2298
sg16
g1
(g11
g12
(dtRp2299
sg18
g1
(g11
g12
(dtRp2300
sg20
g1
(g11
g12
(dtRp2301
sg22
g1
(g11
g12
(dtRp2302
sbsg24
S'Cal'
p2303
sg26
g27
((lp2304
g29
ag30
aS'sequence'
p2305
ag32
ag33
aS'species'
p2306
atRp2307
sg37
(lp2308
sg120
g2221
sg121
S'RWLSTKDLYSRLELPGLNQNVHAMFVMPLGFGNPMGDMFARLNNSFWLPPLSLEGAGTGWTVYPPLSHSGPSVDLAFHLTSSLLGAINFTNMRGPLFWTALLLLSLPVLAGTLLDRNFNTFEGGDPLYHLFWFFGHPEVYIIPGFGSHSTYKKFGMYASIGLGFVWSHHMYVGLDDRAYFTSATMIAPTGIKFSWLATYGGRPMLAFLFLFTGGTGVLNASDAFHDTYYVVHFHYVLSMGAFSLGYYYWPGLYNLYWFNFPMHFLGGMPRRPYPDAGWNSGSSYQLGPDESNEPH'
p2309
sg123
F0.00012
sg124
g125
sg33
S'199'
p2310
sg127
g1
(g128
g12
(dp2311
g130
I4
sg131
g132
sg133
g134
sg135
g132
sg136
I01
sg34
g137
sg138
g134
sg139
I0
sg140
I0
sg141
I0
sg142
g134
sg35
g132
sg143
I0
stRp2312
sg145
g146
sg147
F1
sg148
Nsg30
S'CalbiC'
p2313
sbasg120
g2208
sg123
F1.0000000000000001e-05
sg124
g125
sg33
S'190'
p2314
sg127
g1
(g128
g12
(dp2315
g130
I8
sg131
g132
sg133
g134
sg135
g132
sg136
I01
sg34
g173
sg138
g134
sg139
I0
sg140
I0
sg141
I0
sg142
g134
sg35
g132
sg143
I0
stRp2316
sg145
g146
sg147
F1
sg148
Nsg30
S'NoName'
p2317
sbag1
(g2
g3
NtRp2318
(dp2319
g6
g1
(g7
g3
NtRp2320
(dp2321
g10
g1
(g11
g12
(dtRp2322
sg14
g1
(g11
g12
(dtRp2323
sg16
g1
(g11
g12
(dtRp2324
sg18
g1
(g11
g12
(dtRp2325
sg20
g1
(g11
g12
(dtRp2326
sg22
g1
(g11
g12
(dtRp2327
sbsg24
S'Cal'
p2328
sg26
g27
((lp2329
g29
ag30
aS'sequence'
p2330
ag32
ag33
aS'species'
p2331
atRp2332
sg37
(lp2333
sg120
g2208
sg121
S'RWLSTKDLYSRLELPGLNQNVHAMFVMPLGFGNPMGDMFARLNNSFWLPPLSLEGAGTGWTVYPPLSHSGPSVDLAFHLTSSLLGAINFTNMRGPLFWTALLLLSLPVLAGTLLDRNFNTFEGGDPLYHLFWFFGHPEVYIIPGFGSHSTYKKFGMYASIGLGFVWSHHMYVGLDDRAYFTSATMIAPTGIKFSWLATYGGRPMLAFLFLFTGGTGVLNASDAFHDTYYVVHFHYVLSMGAFSLGYYYWPGLYNLYWFNFPMHFLGGMPRRPYPDAGWNSGSSYQLGPDESNEPH'
p2334
sg123
F0.00016000000000000001
sg124
g125
sg33
S'201'
p2335
sg127
g1
(g128
g12
(dp2336
g130
I4
sg131
g132
sg133
g134
sg135
g132
sg136
I01
sg34
g137
sg138
g134
sg139
I0
sg140
I0
sg141
I0
sg142
g134
sg35
g132
sg143
I0
stRp2337
sg145
g146
sg147
F1
sg148
Nsg30
S'CalbiB'
p2338
sbasg120
g2195
sg123
F1.0000000000000001e-05
sg124
g125
sg33
S'188'
p2339
sg127
g1
(g128
g12
(dp2340
g130
I8
sg131
g132
sg133
g134
sg135
g132
sg136
I01
sg34
g173
sg138
g134
sg139
I0
sg140
I0
sg141
I0
sg142
g134
sg35
g132
sg143
I0
stRp2341
sg145
g146
sg147
F1
sg148
Nsg30
S'NoName'
p2342
sbag1
(g2
g3
NtRp2343
(dp2344
g6
g1
(g7
g3
NtRp2345
(dp2346
g10
g1
(g11
g12
(dtRp2347
sg14
g1
(g11
g12
(dtRp2348
sg16
g1
(g11
g12
(dtRp2349
sg18
g1
(g11
g12
(dtRp2350
sg20
g1
(g11
g12
(dtRp2351
sg22
g1
(g11
g12
(dtRp2352
sbsg24
S'Cal'
p2353
sg26
g27
((lp2354
g29
ag30
aS'sequence'
p2355
ag32
ag33
aS'species'
p2356
atRp2357
sg37
(lp2358
sg120
g2195
sg121
S'RWLSTKDLYSRLELPGLNQNVHAMFVMPLGFGNPMGDMFARLNNSFWLPPLSLEGAGTGWTVYPPLSHSGPSVDLAFHLTSSLLGAINFTNMRGPLFWTALLLLSLPVLAGTLLDRNFNTFEGGDPLYHLFWFFGHPEVYIIPGFGSHSTYKKFGMYASIGLGFVWSHHMYVGLDDRAYFTSATMIAPTGIKFSWLATYGGRPMLAFLFLFTGGTGVLNASDAFHDTYYVVHFHYVLSMGAFSLGYYYWPGLYNLYWFNFPMHFLGGMPRRPYPDAGWNSGSSYQLGPDESNEPH'
p2359
sg123
F0.00013999999999999999
sg124
g125
sg33
S'202'
p2360
sg127
g1
(g128
g12
(dp2361
g130
I4
sg131
g132
sg133
g134
sg135
g132
sg136
I01
sg34
g137
sg138
g134
sg139
I0
sg140
I0
sg141
I0
sg142
g134
sg35
g132
sg143
I0
stRp2362
sg145
g146
sg147
F1
sg148
Nsg30
S'CalbiA'
p2363
sbasg120
g2161
sg123
F0.014959999999999999
sg124
g125
sg33
S'185'
p2364
sg127
g1
(g128
g12
(dp2365
g130
I8
sg131
g132
sg133
g134
sg135
g132
sg136
I01
sg34
g173
sg138
g134
sg139
I0
sg140
I0
sg141
I0
sg142
g134
sg35
g132
sg143
I0
stRp2366
sg145
g146
sg147
F0.98999999999999999
sg148
Nsg30
S'NoName'
p2367
sbasg120
g2089
sg123
F0.05287
sg124
g125
sg33
S'180'
p2368
sg127
g1
(g128
g12
(dp2369
g130
I8
sg131
g132
sg133
g134
sg135
g132
sg136
I01
sg34
g173
sg138
g134
sg139
I0
sg140
I0
sg141
I0
sg142
g134
sg35
g132
sg143
I0
stRp2370
sg145
g146
sg147
F0.98999999999999999
sg148
Nsg30
S'NoName'
p2371
sbasg120
g1713
sg123
F0.037499999999999999
sg124
g125
sg33
S'173'
p2372
sg127
g1
(g128
g12
(dp2373
g130
I8
sg131
g132
sg133
g134
sg135
g132
sg136
I01
sg34
g173
sg138
g134
sg139
I0
sg140
I0
sg141
I0
sg142
g134
sg35
g132
sg143
I0
stRp2374
sg145
g146
sg147
F0.98999999999999999
sg148
Nsg30
S'NoName'
p2375
sbasg120
g995
sg123
F0.10766000000000001
sg124
g125
sg33
S'136'
p2376
sg127
g1
(g128
g12
(dp2377
g130
I8
sg131
g132
sg133
g134
sg135
g132
sg136
I01
sg34
g173
sg138
g134
sg139
I0
sg140
I0
sg141
I0
sg142
g134
sg35
g132
sg143
I0
stRp2378
sg145
g146
sg147
F0.98999999999999999
sg148
Nsg30
S'NoName'
p2379
sbasg120
g961
sg123
F0.093560000000000004
sg124
g125
sg33
S'70'
p2380
sg127
g1
(g128
g12
(dp2381
g130
I8
sg131
g132
sg133
g134
sg135
g132
sg136
I01
sg34
g173
sg138
g134
sg139
I0
sg140
I0
sg141
I0
sg142
g134
sg35
g132
sg143
I0
stRp2382
sg145
g146
sg147
F0.97999999999999998
sg148
Nsg30
S'NoName'
p2383
sbasg120
g948
sg123
F0.036760000000000001
sg124
g125
sg33
S'68'
p2384
sg127
g1
(g128
g12
(dp2385
g130
I8
sg131
g132
sg133
g134
sg135
g132
sg136
I01
sg34
g173
sg138
g134
sg139
I0
sg140
I0
sg141
I0
sg142
g134
sg35
g132
sg143
I0
stRp2386
sg145
g146
sg147
F0.97999999999999998
sg148
Nsg30
S'NoName'
p2387
sbag1
(g2
g3
NtRp2388
(dp2389
g6
g1
(g7
g3
NtRp2390
(dp2391
g10
g1
(g11
g12
(dtRp2392
sg14
g1
(g11
g12
(dtRp2393
sg16
g1
(g11
g12
(dtRp2394
sg18
g1
(g11
g12
(dtRp2395
sg20
g1
(g11
g12
(dtRp2396
sg22
g1
(g11
g12
(dtRp2397
sbsg24
g25
sg26
g27
((lp2398
g33
ag32
ag29
ag30
atRp2399
sg37
(lp2400
g1
(g2
g3
NtRp2401
(dp2402
g6
g1
(g7
g3
NtRp2403
(dp2404
g10
g1
(g11
g12
(dtRp2405
sg14
g1
(g11
g12
(dtRp2406
sg16
g1
(g11
g12
(dtRp2407
sg18
g1
(g11
g12
(dtRp2408
sg20
g1
(g11
g12
(dtRp2409
sg22
g1
(g11
g12
(dtRp2410
sbsg24
g25
sg26
g27
((lp2411
g33
ag32
ag29
ag30
atRp2412
sg37
(lp2413
g1
(g2
g3
NtRp2414
(dp2415
g6
g1
(g7
g3
NtRp2416
(dp2417
g10
g1
(g11
g12
(dtRp2418
sg14
g1
(g11
g12
(dtRp2419
sg16
g1
(g11
g12
(dtRp2420
sg18
g1
(g11
g12
(dtRp2421
sg20
g1
(g11
g12
(dtRp2422
sg22
g1
(g11
g12
(dtRp2423
sbsg24
S'Csu'
p2424
sg26
g27
((lp2425
g29
ag30
aS'sequence'
p2426
ag32
ag33
aS'species'
p2427
atRp2428
sg37
(lp2429
sg120
g2401
sg121
S'RWLSTKDLYSRMELPGLNQNVHAMFIMPLGLGNPLGDMFARLNNSFWLPPLSLEGAGTGWTVYPPLSHSGPSVDLAFHLTSSLLGAINFTNMRGPLYWTALLLLSLPVLAATLLDRNFNTFEGGDPLYHLFWFFGHPEVYIIPGFGSHSTYKKFGMYASIGLGFVWSHHMFVGLDDRAYFTSATMIAPTGVKFSWLATYGGRPMLAFLFLFTGGTGVINASDAFHDTYYIVHFHYVLSMGAFSLGFYYWPGLYNLFWFNFPMHFLGGMPRRPYPDAGWNSGSAYQLGPDESNEPH'
p2430
sg123
F0.00012999999999999999
sg124
g125
sg33
S'207'
p2431
sg127
g1
(g128
g12
(dp2432
g130
I4
sg131
g132
sg133
g134
sg135
g132
sg136
I01
sg34
g137
sg138
g134
sg139
I0
sg140
I0
sg141
I0
sg142
g134
sg35
g132
sg143
I0
stRp2433
sg145
g146
sg147
F1
sg148
Nsg30
S'CsubhB'
p2434
sbag1
(g2
g3
NtRp2435
(dp2436
g6
g1
(g7
g3
NtRp2437
(dp2438
g10
g1
(g11
g12
(dtRp2439
sg14
g1
(g11
g12
(dtRp2440
sg16
g1
(g11
g12
(dtRp2441
sg18
g1
(g11
g12
(dtRp2442
sg20
g1
(g11
g12
(dtRp2443
sg22
g1
(g11
g12
(dtRp2444
sbsg24
S'Csu'
p2445
sg26
g27
((lp2446
g29
ag30
aS'sequence'
p2447
ag32
ag33
aS'species'
p2448
atRp2449
sg37
(lp2450
sg120
g2401
sg121
S'RWLSTKDLYSRMELPGLNQNVHAMFIMPLGLGNPLGDMFARLNNSFWLPPLSLEGAGTGWTVYPPLSHSGPSVDLAFHLTSSLLGAINFTNMRGPLYWTALLLLSLPVLAATLLDRNFNTFEGGDPLYHLFWFFGHPEVYIIPGFGSHSTYKKFGMYASIGLGFVWSHHMFVGLDDRAYFTSATMIAPTGVKFSWLATYGGRPMLAFLFLFTGGTGVINASDAFHDTYYIVHFHYVLSMGAFSLGFYYWPGLYNLFWFNFPMHFLGGMPRRPYPDAGWNSGSAYQLGPDESNEPH'
p2451
sg123
F0.00013999999999999999
sg124
g125
sg33
S'208'
p2452
sg127
g1
(g128
g12
(dp2453
g130
I4
sg131
g132
sg133
g134
sg135
g132
sg136
I01
sg34
g137
sg138
g134
sg139
I0
sg140
I0
sg141
I0
sg142
g134
sg35
g132
sg143
I0
stRp2454
sg145
g146
sg147
F1
sg148
Nsg30
S'CsubhA'
p2455
sbasg120
g2388
sg123
F0.59348999999999996
sg124
g125
sg33
S'204'
p2456
sg127
g1
(g128
g12
(dp2457
g130
I8
sg131
g132
sg133
g134
sg135
g132
sg136
I01
sg34
g173
sg138
g134
sg139
I0
sg140
I0
sg141
I0
sg142
g134
sg35
g132
sg143
I0
stRp2458
sg145
g146
sg147
F1
sg148
Nsg30
S'NoName'
p2459
sbag1
(g2
g3
NtRp2460
(dp2461
g6
g1
(g7
g3
NtRp2462
(dp2463
g10
g1
(g11
g12
(dtRp2464
sg14
g1
(g11
g12
(dtRp2465
sg16
g1
(g11
g12
(dtRp2466
sg18
g1
(g11
g12
(dtRp2467
sg20
g1
(g11
g12
(dtRp2468
sg22
g1
(g11
g12
(dtRp2469
sbsg24
S'Cal'
p2470
sg26
g27
((lp2471
g29
ag30
aS'sequence'
p2472
ag32
ag33
aS'species'
p2473
atRp2474
sg37
(lp2475
sg120
g2388
sg121
S'RWLSTKDLYSRMELPGLNQNVHAMFVMPLGFGNPLGDMFARLNNSFWLPPLSLDGPGTGWTVYPPLSHSGASVDFAFHLTSSLLGAINFTNMRGPLFWTALLLLSLPVLVATLLDRNFNTFEGGDPLYHLFWFFGHPEVYMIPGFGSHSTYKKFGMYASIGLGFVWSHHMFVGLDDRAYFTSATMMAPTGIKFSWMATYGGYPMLAFLFLFTGGTGVINASDAFHDTYYIVHFHYVLSMGAFSLGYYYWPGLYNLFWFNFPMHFLGGMPRRPYPDAGWNSGSAYQLGPDESNEPH'
p2476
sg123
F0.40044000000000002
sg124
g125
sg33
S'210'
p2477
sg127
g1
(g128
g12
(dp2478
g130
I4
sg131
g132
sg133
g134
sg135
g132
sg136
I01
sg34
g137
sg138
g134
sg139
I0
sg140
I0
sg141
I0
sg142
g134
sg35
g132
sg143
I0
stRp2479
sg145
g146
sg147
F1
sg148
Nsg30
S'CalaiA'
p2480
sbasg120
g948
sg123
F0.080810000000000007
sg124
g125
sg33
S'194'
p2481
sg127
g1
(g128
g12
(dp2482
g130
I8
sg131
g132
sg133
g134
sg135
g132
sg136
I01
sg34
g173
sg138
g134
sg139
I0
sg140
I0
sg141
I0
sg142
g134
sg35
g132
sg143
I0
stRp2483
sg145
g146
sg147
F0.98999999999999999
sg148
Nsg30
S'NoName'
p2484
sbasg120
g686
sg123
F0.075389999999999999
sg124
g125
sg33
S'62'
p2485
sg127
g1
(g128
g12
(dp2486
g130
I8
sg131
g132
sg133
g134
sg135
g132
sg136
I01
sg34
g173
sg138
g134
sg139
I0
sg140
I0
sg141
I0
sg142
g134
sg35
g132
sg143
I0
stRp2487
sg145
g146
sg147
F0.94999999999999996
sg148
Nsg30
S'NoName'
p2488
sbasg120
g673
sg123
F1.2542500000000001
sg124
g125
sg33
S'40'
p2489
sg127
g1
(g128
g12
(dp2490
g130
I8
sg131
g132
sg133
g134
sg135
g132
sg136
I01
sg34
g173
sg138
g134
sg139
I0
sg140
I0
sg141
I0
sg142
g134
sg35
g132
sg143
I0
stRp2491
sg145
g146
sg147
F0.97999999999999998
sg148
Nsg30
S'NoName'
p2492
sbag1
(g2
g3
NtRp2493
(dp2494
g6
g1
(g7
g3
NtRp2495
(dp2496
g10
g1
(g11
g12
(dtRp2497
sg14
g1
(g11
g12
(dtRp2498
sg16
g1
(g11
g12
(dtRp2499
sg18
g1
(g11
g12
(dtRp2500
sg20
g1
(g11
g12
(dtRp2501
sg22
g1
(g11
g12
(dtRp2502
sbsg24
g25
sg26
g27
((lp2503
g33
ag32
ag29
ag30
atRp2504
sg37
(lp2505
g1
(g2
g3
NtRp2506
(dp2507
g6
g1
(g7
g3
NtRp2508
(dp2509
g10
g1
(g11
g12
(dtRp2510
sg14
g1
(g11
g12
(dtRp2511
sg16
g1
(g11
g12
(dtRp2512
sg18
g1
(g11
g12
(dtRp2513
sg20
g1
(g11
g12
(dtRp2514
sg22
g1
(g11
g12
(dtRp2515
sbsg24
g25
sg26
g27
((lp2516
g33
ag32
ag29
ag30
atRp2517
sg37
(lp2518
g1
(g2
g3
NtRp2519
(dp2520
g6
g1
(g7
g3
NtRp2521
(dp2522
g10
g1
(g11
g12
(dtRp2523
sg14
g1
(g11
g12
(dtRp2524
sg16
g1
(g11
g12
(dtRp2525
sg18
g1
(g11
g12
(dtRp2526
sg20
g1
(g11
g12
(dtRp2527
sg22
g1
(g11
g12
(dtRp2528
sbsg24
S'Ppa'
p2529
sg26
g27
((lp2530
g29
ag30
aS'sequence'
p2531
ag32
ag33
aS'species'
p2532
atRp2533
sg37
(lp2534
sg120
g2506
sg121
S'RWLSTKDLYSRLELPGLNQNVHAMFVMPAGFGNPMGDMFARLNNSFWLPPLSLEGAGTGWTVYPPLAHSGPSVDLAFHLTSSLLGAMNFTNMRGPLFWTSLLLLSLPVLAGTLLDRNFNTFEGGDPLYHLFWFFGHPEVYIMPGFGSHSTYKKFGMYASIGLGLVWSHHMYVGLDDRAYFTSATMMAPTGMKFSWLATYGGRPMLAFLFLFTGGSGVLNASDAFHDTYYVIHFHYVLSLGAFSLGYYYWPGLYNLFWFNFPMHFLGGMPRRPYPDAGWNSGSSYQLGPDESNDPH'
p2535
sg123
F0.16184999999999999
sg124
g125
sg33
S'215'
p2536
sg127
g1
(g128
g12
(dp2537
g130
I4
sg131
g132
sg133
g134
sg135
g132
sg136
I01
sg34
g137
sg138
g134
sg139
I0
sg140
I0
sg141
I0
sg142
g134
sg35
g132
sg143
I0
stRp2538
sg145
g146
sg147
F1
sg148
Nsg30
S'PpastA'
p2539
sbag1
(g2
g3
NtRp2540
(dp2541
g6
g1
(g7
g3
NtRp2542
(dp2543
g10
g1
(g11
g12
(dtRp2544
sg14
g1
(g11
g12
(dtRp2545
sg16
g1
(g11
g12
(dtRp2546
sg18
g1
(g11
g12
(dtRp2547
sg20
g1
(g11
g12
(dtRp2548
sg22
g1
(g11
g12
(dtRp2549
sbsg24
g25
sg26
g27
((lp2550
g33
ag32
ag29
ag30
atRp2551
sg37
(lp2552
g1
(g2
g3
NtRp2553
(dp2554
g6
g1
(g7
g3
NtRp2555
(dp2556
g10
g1
(g11
g12
(dtRp2557
sg14
g1
(g11
g12
(dtRp2558
sg16
g1
(g11
g12
(dtRp2559
sg18
g1
(g11
g12
(dtRp2560
sg20
g1
(g11
g12
(dtRp2561
sg22
g1
(g11
g12
(dtRp2562
sbsg24
S'Pta'
p2563
sg26
g27
((lp2564
g29
ag30
aS'sequence'
p2565
ag32
ag33
aS'species'
p2566
atRp2567
sg37
(lp2568
sg120
g2540
sg121
S'RWLSTKDLYSRLELPGLNQNVHAMFVMPAGFGNPMGDMFARLNNSFWLPPLSLEGAGTGWTVYPPLSHSGPSVDLAFHLTSSLLGGMNFTNMRGPLFWTSLLVLTLPVLAGTLLDRNFNTFEGGDPLYHLFWFFGHPEVYIIPGFGSHSAYKKFGMYASIGLGLVWSHHMYVGLDDRAYFTSATMIAPTGIKFSWLATYGGRPMLAFLFLFTGGSGVLNASDAFHDTYYVMHFHYVLSLGAFSLGYYYWPGLYNLFWFNFPMHFLGGMPRRPYPDAGFNSGSSYQLGPDESNEPH'
p2569
sg123
F0.23080999999999999
sg124
g125
sg33
S'219'
p2570
sg127
g1
(g128
g12
(dp2571
g130
I4
sg131
g132
sg133
g134
sg135
g132
sg136
I01
sg34
g137
sg138
g134
sg139
I0
sg140
I0
sg141
I0
sg142
g134
sg35
g132
sg143
I0
stRp2572
sg145
g146
sg147
F1
sg148
Nsg30
S'PtannA'
p2573
sbag1
(g2
g3
NtRp2574
(dp2575
g6
g1
(g7
g3
NtRp2576
(dp2577
g10
g1
(g11
g12
(dtRp2578
sg14
g1
(g11
g12
(dtRp2579
sg16
g1
(g11
g12
(dtRp2580
sg18
g1
(g11
g12
(dtRp2581
sg20
g1
(g11
g12
(dtRp2582
sg22
g1
(g11
g12
(dtRp2583
sbsg24
g25
sg26
g27
((lp2584
g33
ag32
ag29
ag30
atRp2585
sg37
(lp2586
g1
(g2
g3
NtRp2587
(dp2588
g6
g1
(g7
g3
NtRp2589
(dp2590
g10
g1
(g11
g12
(dtRp2591
sg14
g1
(g11
g12
(dtRp2592
sg16
g1
(g11
g12
(dtRp2593
sg18
g1
(g11
g12
(dtRp2594
sg20
g1
(g11
g12
(dtRp2595
sg22
g1
(g11
g12
(dtRp2596
sbsg24
g25
sg26
g27
((lp2597
g33
ag32
ag29
ag30
atRp2598
sg37
(lp2599
g1
(g2
g3
NtRp2600
(dp2601
g6
g1
(g7
g3
NtRp2602
(dp2603
g10
g1
(g11
g12
(dtRp2604
sg14
g1
(g11
g12
(dtRp2605
sg16
g1
(g11
g12
(dtRp2606
sg18
g1
(g11
g12
(dtRp2607
sg20
g1
(g11
g12
(dtRp2608
sg22
g1
(g11
g12
(dtRp2609
sbsg24
S'Pkl'
p2610
sg26
g27
((lp2611
g29
ag30
aS'sequence'
p2612
ag32
ag33
aS'species'
p2613
atRp2614
sg37
(lp2615
sg120
g2587
sg121
S'RWLSTKDLYSRLELPGLNQNVHAMFMMPTGFGNPMGDMFARLNNSFWLPPLSLEGPGTGWTVYPPLSHSGPSVDLAFHLTSSLLGAMNFTNMRGPLFWTALLVMTLPVLAGTLLDRNFNTFEGGDPLYHLFWFFGHPEVYMMPGFGSHSTYKKFGMYASMGLGLVWSHHMYVGLDDRAYFTSATMMAPTGMKFSWLATYGGRPMLAFMFIFTGGSGVLNASDAFHDTYYVMHFHYVLSLGAFAMGYYYWPGLFNLFWFNFPMHFLGGMPRRPYPDAGFNSGASYQLGPDESNEPH'
p2616
sg123
F0.12625
sg124
g125
sg33
S'13'
p2617
sg127
g1
(g128
g12
(dp2618
g130
I4
sg131
g132
sg133
g134
sg135
g132
sg136
I01
sg34
g137
sg138
g134
sg139
I0
sg140
I0
sg141
I0
sg142
g134
sg35
g132
sg143
I0
stRp2619
sg145
g146
sg147
F1
sg148
Nsg30
S'PkluyA'
p2620
sbag1
(g2
g3
NtRp2621
(dp2622
g6
g1
(g7
g3
NtRp2623
(dp2624
g10
g1
(g11
g12
(dtRp2625
sg14
g1
(g11
g12
(dtRp2626
sg16
g1
(g11
g12
(dtRp2627
sg18
g1
(g11
g12
(dtRp2628
sg20
g1
(g11
g12
(dtRp2629
sg22
g1
(g11
g12
(dtRp2630
sbsg24
S'Bcu'
p2631
sg26
g27
((lp2632
g29
ag30
aS'sequence'
p2633
ag32
ag33
aS'species'
p2634
atRp2635
sg37
(lp2636
sg120
g2587
sg121
S'RWLSTKDLYSRLELPGLDQNVHSMFMMPTGFGNPMGDMFARLNNAFWYPPLSLEGPGTGWTVYPPLSHSGPSMDLAFHLTSSMLSSMNFTNMRGPLFWTALLMMTLPVLAGTLLDRNFNTFEGGDPLYHLYWFFGHPEVYIIPVFGSHSNYKKFGMYASMGLGLVWSHHMYVGLDDRAYFTSATMIAPTGIKFSWLATYGGRPMLAFLFMFTGGSGVLNASDAFHDTYFVVHFHYVLSLGVYGVGYYFWPGLYNMFWFNFPMHFLGGMPRRPYPDAGFNSGSAYQLGPDESNEPH'
p2637
sg123
F0.30854999999999999
sg124
g125
sg33
S'23'
p2638
sg127
g1
(g128
g12
(dp2639
g130
I4
sg131
g132
sg133
g134
sg135
g132
sg136
I01
sg34
g137
sg138
g134
sg139
I0
sg140
I0
sg141
I0
sg142
g134
sg35
g132
sg143
I0
stRp2640
sg145
g146
sg147
F1
sg148
Nsg30
S'BcustA'
p2641
sbasg120
g2574
sg123
F0.19120999999999999
sg124
g125
sg33
S'221'
p2642
sg127
g1
(g128
g12
(dp2643
g130
I8
sg131
g132
sg133
g134
sg135
g132
sg136
I01
sg34
g173
sg138
g134
sg139
I0
sg140
I0
sg141
I0
sg142
g134
sg35
g132
sg143
I0
stRp2644
sg145
g146
sg147
F0.98999999999999999
sg148
Nsg30
S'NoName'
p2645
sbag1
(g2
g3
NtRp2646
(dp2647
g6
g1
(g7
g3
NtRp2648
(dp2649
g10
g1
(g11
g12
(dtRp2650
sg14
g1
(g11
g12
(dtRp2651
sg16
g1
(g11
g12
(dtRp2652
sg18
g1
(g11
g12
(dtRp2653
sg20
g1
(g11
g12
(dtRp2654
sg22
g1
(g11
g12
(dtRp2655
sbsg24
S'Oan'
p2656
sg26
g27
((lp2657
g29
ag30
aS'sequence'
p2658
ag32
ag33
aS'species'
p2659
atRp2660
sg37
(lp2661
sg120
g2574
sg121
S'RWLSTKDLYSRLELPGLNQNAHAMFVMPAGFGNPMGDMFARLNNSFWLPPLSLEGAGTGWTVYPPLSHSGPSVDLAFHLTSSLLGAINFTNMRGPLFWTALLLLSLPVLAGTLLDRNFNTFEGGDPLYHLFWFFGHPEVYIIPGFGSHSTYKKFGMYASIGLGLVWSHHMYVGLDDRAYFTSATMIAPTGIKFSWIATYGGRPMLAFLFLFTGGSGVLNASDAFHDTYYVIHFHYVLSLGAFSLGYYYWPGLYNLFWFNFPMHFLGGMPRRPYPDAGYNSGSSYQLGPDESNEPH'
p2662
sg123
F0.025399999999999999
sg124
g125
sg33
S'33'
p2663
sg127
g1
(g128
g12
(dp2664
g130
I4
sg131
g132
sg133
g134
sg135
g132
sg136
I01
sg34
g137
sg138
g134
sg139
I0
sg140
I0
sg141
I0
sg142
g134
sg35
g132
sg143
I0
stRp2665
sg145
g146
sg147
F1
sg148
Nsg30
S'OanguA'
p2666
sbasg120
g2540
sg123
F0.33273999999999998
sg124
g125
sg33
S'217'
p2667
sg127
g1
(g128
g12
(dp2668
g130
I8
sg131
g132
sg133
g134
sg135
g132
sg136
I01
sg34
g173
sg138
g134
sg139
I0
sg140
I0
sg141
I0
sg142
g134
sg35
g132
sg143
I0
stRp2669
sg145
g146
sg147
F0.98999999999999999
sg148
Nsg30
S'NoName'
p2670
sbasg120
g2506
sg123
F0.054379999999999998
sg124
g125
sg33
S'214'
p2671
sg127
g1
(g128
g12
(dp2672
g130
I8
sg131
g132
sg133
g134
sg135
g132
sg136
I01
sg34
g173
sg138
g134
sg139
I0
sg140
I0
sg141
I0
sg142
g134
sg35
g132
sg143
I0
stRp2673
sg145
g146
sg147
F0.96999999999999997
sg148
Nsg30
S'NoName'
p2674
sbasg120
g2493
sg123
F0.76378000000000001
sg124
g125
sg33
S'212'
p2675
sg127
g1
(g128
g12
(dp2676
g130
I8
sg131
g132
sg133
g134
sg135
g132
sg136
I01
sg34
g173
sg138
g134
sg139
I0
sg140
I0
sg141
I0
sg142
g134
sg35
g132
sg143
I0
stRp2677
sg145
g146
sg147
F0.98999999999999999
sg148
Nsg30
S'NoName'
p2678
sbag1
(g2
g3
NtRp2679
(dp2680
g6
g1
(g7
g3
NtRp2681
(dp2682
g10
g1
(g11
g12
(dtRp2683
sg14
g1
(g11
g12
(dtRp2684
sg16
g1
(g11
g12
(dtRp2685
sg18
g1
(g11
g12
(dtRp2686
sg20
g1
(g11
g12
(dtRp2687
sg22
g1
(g11
g12
(dtRp2688
sbsg24
g25
sg26
g27
((lp2689
g33
ag32
ag29
ag30
atRp2690
sg37
(lp2691
g1
(g2
g3
NtRp2692
(dp2693
g6
g1
(g7
g3
NtRp2694
(dp2695
g10
g1
(g11
g12
(dtRp2696
sg14
g1
(g11
g12
(dtRp2697
sg16
g1
(g11
g12
(dtRp2698
sg18
g1
(g11
g12
(dtRp2699
sg20
g1
(g11
g12
(dtRp2700
sg22
g1
(g11
g12
(dtRp2701
sbsg24
g25
sg26
g27
((lp2702
g33
ag32
ag29
ag30
atRp2703
sg37
(lp2704
g1
(g2
g3
NtRp2705
(dp2706
g6
g1
(g7
g3
NtRp2707
(dp2708
g10
g1
(g11
g12
(dtRp2709
sg14
g1
(g11
g12
(dtRp2710
sg16
g1
(g11
g12
(dtRp2711
sg18
g1
(g11
g12
(dtRp2712
sg20
g1
(g11
g12
(dtRp2713
sg22
g1
(g11
g12
(dtRp2714
sbsg24
g25
sg26
g27
((lp2715
g33
ag32
ag29
ag30
atRp2716
sg37
(lp2717
g1
(g2
g3
NtRp2718
(dp2719
g6
g1
(g7
g3
NtRp2720
(dp2721
g10
g1
(g11
g12
(dtRp2722
sg14
g1
(g11
g12
(dtRp2723
sg16
g1
(g11
g12
(dtRp2724
sg18
g1
(g11
g12
(dtRp2725
sg20
g1
(g11
g12
(dtRp2726
sg22
g1
(g11
g12
(dtRp2727
sbsg24
g25
sg26
g27
((lp2728
g33
ag32
ag29
ag30
atRp2729
sg37
(lp2730
g1
(g2
g3
NtRp2731
(dp2732
g6
g1
(g7
g3
NtRp2733
(dp2734
g10
g1
(g11
g12
(dtRp2735
sg14
g1
(g11
g12
(dtRp2736
sg16
g1
(g11
g12
(dtRp2737
sg18
g1
(g11
g12
(dtRp2738
sg20
g1
(g11
g12
(dtRp2739
sg22
g1
(g11
g12
(dtRp2740
sbsg24
S'Cva'
p2741
sg26
g27
((lp2742
g29
ag30
aS'sequence'
p2743
ag32
ag33
aS'species'
p2744
atRp2745
sg37
(lp2746
sg120
g2718
sg121
S'RWLSTKDLYSRLELPGLNQNVHAMFVMPLGFGNPLGDMFARLNNSFWLPPLSLEGAGTGWTIYPPLSHSSPSVDLGFHLTSSLLGAINFTNMRGPLFWTAMLLLSLPVLAGTLLDRNFNTFEGGDPLYHLFWFFGHPEVYIIPGFGSHSTYKKFGMYASIALGFVWSHHMYVGLDDRAYFTSSTMIAPTGIKFSWLATYGGRPMLAFLFLFTGGTGVLNASDAFHDTYYVVHFHYVLSMGAFSLGYYYWPGLYNLFWFNFPMHFLGGMPRRPYPDAGWNSGSSYQLGPDESNEPH'
p2747
sg123
F0.043270000000000003
sg124
g125
sg33
S'85'
p2748
sg127
g1
(g128
g12
(dp2749
g130
I4
sg131
g132
sg133
g134
sg135
g132
sg136
I01
sg34
g137
sg138
g134
sg139
I0
sg140
I0
sg141
I0
sg142
g134
sg35
g132
sg143
I0
stRp2750
sg145
g146
sg147
F1
sg148
Nsg30
S'CvartA'
p2751
sbag1
(g2
g3
NtRp2752
(dp2753
g6
g1
(g7
g3
NtRp2754
(dp2755
g10
g1
(g11
g12
(dtRp2756
sg14
g1
(g11
g12
(dtRp2757
sg16
g1
(g11
g12
(dtRp2758
sg18
g1
(g11
g12
(dtRp2759
sg20
g1
(g11
g12
(dtRp2760
sg22
g1
(g11
g12
(dtRp2761
sbsg24
g25
sg26
g27
((lp2762
g33
ag32
ag29
ag30
atRp2763
sg37
(lp2764
g1
(g2
g3
NtRp2765
(dp2766
g6
g1
(g7
g3
NtRp2767
(dp2768
g10
g1
(g11
g12
(dtRp2769
sg14
g1
(g11
g12
(dtRp2770
sg16
g1
(g11
g12
(dtRp2771
sg18
g1
(g11
g12
(dtRp2772
sg20
g1
(g11
g12
(dtRp2773
sg22
g1
(g11
g12
(dtRp2774
sbsg24
S'Csu'
p2775
sg26
g27
((lp2776
g29
ag30
aS'sequence'
p2777
ag32
ag33
aS'species'
p2778
atRp2779
sg37
(lp2780
sg120
g2752
sg121
S'RWLSTKDLYSRLELPGLNQNVHAMFVMPLGFGNPLGDMFARLNNSFWLPPLSLEGAGTGWTIYPPLSHSSPSVDLGFHLTSSMLGAINFTNMRGPLFWTAMLLLSLPVLAGTLLDRNFNTFEGGDPLYHLFWFFGHPEVYIIPGFGSHSTYKKFGMYASIALGFVWSHHMYVGLDDRAYFTSSTMIAPTGIKFSWLATYGGRPMLAFLFLFTGGTGVLNASDAFHDSYYY-HFHYVLSMGAFSLGYYYWPGLYNLFWFNFPMHFLGGMPRRPYPDAGWNSGSSYQLGPDESNEPH'
p2781
sg123
F0.0043699999999999998
sg124
g125
sg33
S'107'
p2782
sg127
g1
(g128
g12
(dp2783
g130
I4
sg131
g132
sg133
g134
sg135
g132
sg136
I01
sg34
g137
sg138
g134
sg139
I0
sg140
I0
sg141
I0
sg142
g134
sg35
g132
sg143
I0
stRp2784
sg145
g146
sg147
F1
sg148
Nsg30
S'CsuavB'
p2785
sbag1
(g2
g3
NtRp2786
(dp2787
g6
g1
(g7
g3
NtRp2788
(dp2789
g10
g1
(g11
g12
(dtRp2790
sg14
g1
(g11
g12
(dtRp2791
sg16
g1
(g11
g12
(dtRp2792
sg18
g1
(g11
g12
(dtRp2793
sg20
g1
(g11
g12
(dtRp2794
sg22
g1
(g11
g12
(dtRp2795
sbsg24
S'Csu'
p2796
sg26
g27
((lp2797
g29
ag30
aS'sequence'
p2798
ag32
ag33
aS'species'
p2799
atRp2800
sg37
(lp2801
sg120
g2752
sg121
S'RWLSTKDLYSRLELPGLNQNVHAMFVMPLGFGNPLGDMFARLNNSFWLPPLSLEGAGTGWTIYPPLSHSSPSVDLGFHLTSSLLGAINFTNMRGPLFWTAMLLLSLPVLAGTLLDRNFNTFEGGDPLYHLFWFFGHPEVYIIPGFGSHSTYKKFGMYASIALGFVWSHHMYVGLDDRAYFTSSTMIAPTGIKFSWLATYGGRPMLAFLFLFTGGTGVLNASDAFHDTYYVVHFHYVLSMGAFSLGYYYWPGLYNLFWFNFPMHFLGGMPRRPYPDAGWNSGSSYQLGPDESNEPH'
p2802
sg123
F0.0025999999999999999
sg124
g125
sg33
S'117'
p2803
sg127
g1
(g128
g12
(dp2804
g130
I4
sg131
g132
sg133
g134
sg135
g132
sg136
I01
sg34
g137
sg138
g134
sg139
I0
sg140
I0
sg141
I0
sg142
g134
sg35
g132
sg143
I0
stRp2805
sg145
g146
sg147
F1
sg148
Nsg30
S'CsuavA'
p2806
sbasg120
g2718
sg123
F0.016740000000000001
sg124
g125
sg33
S'76'
p2807
sg127
g1
(g128
g12
(dp2808
g130
I8
sg131
g132
sg133
g134
sg135
g132
sg136
I01
sg34
g173
sg138
g134
sg139
I0
sg140
I0
sg141
I0
sg142
g134
sg35
g132
sg143
I0
stRp2809
sg145
g146
sg147
F0.98999999999999999
sg148
Nsg30
S'NoName'
p2810
sbasg120
g2705
sg123
F0.01158
sg124
g125
sg33
S'66'
p2811
sg127
g1
(g128
g12
(dp2812
g130
I8
sg131
g132
sg133
g134
sg135
g132
sg136
I01
sg34
g173
sg138
g134
sg139
I0
sg140
I0
sg141
I0
sg142
g134
sg35
g132
sg143
I0
stRp2813
sg145
g146
sg147
F0.97999999999999998
sg148
Nsg30
S'NoName'
p2814
sbag1
(g2
g3
NtRp2815
(dp2816
g6
g1
(g7
g3
NtRp2817
(dp2818
g10
g1
(g11
g12
(dtRp2819
sg14
g1
(g11
g12
(dtRp2820
sg16
g1
(g11
g12
(dtRp2821
sg18
g1
(g11
g12
(dtRp2822
sg20
g1
(g11
g12
(dtRp2823
sg22
g1
(g11
g12
(dtRp2824
sbsg24
S'Cja'
p2825
sg26
g27
((lp2826
g29
ag30
aS'sequence'
p2827
ag32
ag33
aS'species'
p2828
atRp2829
sg37
(lp2830
sg120
g2705
sg121
S'RWLSTKDLYSRLELPGLNQNVHAMFVMPLGFGNPLGDMFARLNNSFWLPPLSLEGAGTGWTIYPPLAHSSPSVDLGFHLTSSLLGAINFTNMRGPLFWTAMLLLSLPVLAGTLLDRNFNTFEGGDPLYHLFWFFGHPEVYIIPGFGSHSTYKKFGMYASIALGFVWSHHMYVGLDDRAYFTSSTMIAPTGIKFSWLATYGGRPMLAFLFLFTGGTGVLNASDAFHDTYYVVHFHYVLSMGAFSLGYYYWPGLYNLFWFNFPMHFLGGMPRRPYPDAGWNSGSSYQLGPDESNEPH'
p2831
sg123
F0.033799999999999997
sg124
g125
sg33
S'131'
p2832
sg127
g1
(g128
g12
(dp2833
g130
I4
sg131
g132
sg133
g134
sg135
g132
sg136
I01
sg34
g137
sg138
g134
sg139
I0
sg140
I0
sg141
I0
sg142
g134
sg35
g132
sg143
I0
stRp2834
sg145
g146
sg147
F1
sg148
Nsg30
S'CjadiA'
p2835
sbasg120
g2692
sg123
F0.10375
sg124
g125
sg33
S'54'
p2836
sg127
g1
(g128
g12
(dp2837
g130
I8
sg131
g132
sg133
g134
sg135
g132
sg136
I01
sg34
g173
sg138
g134
sg139
I0
sg140
I0
sg141
I0
sg142
g134
sg35
g132
sg143
I0
stRp2838
sg145
g146
sg147
F0.98999999999999999
sg148
Nsg30
S'NoName'
p2839
sbag1
(g2
g3
NtRp2840
(dp2841
g6
g1
(g7
g3
NtRp2842
(dp2843
g10
g1
(g11
g12
(dtRp2844
sg14
g1
(g11
g12
(dtRp2845
sg16
g1
(g11
g12
(dtRp2846
sg18
g1
(g11
g12
(dtRp2847
sg20
g1
(g11
g12
(dtRp2848
sg22
g1
(g11
g12
(dtRp2849
sbsg24
g25
sg26
g27
((lp2850
g33
ag32
ag29
ag30
atRp2851
sg37
(lp2852
g1
(g2
g3
NtRp2853
(dp2854
g6
g1
(g7
g3
NtRp2855
(dp2856
g10
g1
(g11
g12
(dtRp2857
sg14
g1
(g11
g12
(dtRp2858
sg16
g1
(g11
g12
(dtRp2859
sg18
g1
(g11
g12
(dtRp2860
sg20
g1
(g11
g12
(dtRp2861
sg22
g1
(g11
g12
(dtRp2862
sbsg24
g25
sg26
g27
((lp2863
g33
ag32
ag29
ag30
atRp2864
sg37
(lp2865
g1
(g2
g3
NtRp2866
(dp2867
g6
g1
(g7
g3
NtRp2868
(dp2869
g10
g1
(g11
g12
(dtRp2870
sg14
g1
(g11
g12
(dtRp2871
sg16
g1
(g11
g12
(dtRp2872
sg18
g1
(g11
g12
(dtRp2873
sg20
g1
(g11
g12
(dtRp2874
sg22
g1
(g11
g12
(dtRp2875
sbsg24
S'Wpi'
p2876
sg26
g27
((lp2877
g29
ag30
aS'sequence'
p2878
ag32
ag33
aS'species'
p2879
atRp2880
sg37
(lp2881
sg120
g2853
sg121
S'RWLSTKDLYSRLELPGLNQNVHAMFVMPLGFGNPLGDMFARLNNSFWLPPLSLEGAGTGWTIYPPLSHSSPSVDLGFHLTSSLLGAINFTNMRGPLFWTAMLLLSLPVLAGTLLDRNFNTFEGGDPLYHLFWFFGHPEVYIIPGFGSHSTYKKFGMYASIALGFVWSHHMYVGLDDRAYFTSSTMIAPTGIKFSWLATYGGRPMLAFLFLFTGGTGVLNASDAFHDTYYVVHFHYVLSMGAFSLGYYYWPGLYNLFWFNFPMHFLGGMPRRPYPDAGWNSGSSFQLGPDESNEPH'
p2882
sg123
F0.051209999999999999
sg124
g125
sg33
S'161'
p2883
sg127
g1
(g128
g12
(dp2884
g130
I4
sg131
g132
sg133
g134
sg135
g132
sg136
I01
sg34
g137
sg138
g134
sg139
I0
sg140
I0
sg141
I0
sg142
g134
sg35
g132
sg143
I0
stRp2885
sg145
g146
sg147
F1
sg148
Nsg30
S'WpijpA'
p2886
sbag1
(g2
g3
NtRp2887
(dp2888
g6
g1
(g7
g3
NtRp2889
(dp2890
g10
g1
(g11
g12
(dtRp2891
sg14
g1
(g11
g12
(dtRp2892
sg16
g1
(g11
g12
(dtRp2893
sg18
g1
(g11
g12
(dtRp2894
sg20
g1
(g11
g12
(dtRp2895
sg22
g1
(g11
g12
(dtRp2896
sbsg24
S'Wmu'
p2897
sg26
g27
((lp2898
g29
ag30
aS'sequence'
p2899
ag32
ag33
aS'species'
p2900
atRp2901
sg37
(lp2902
sg120
g2853
sg121
S'RWLSTKDLYSRLELPGLNQNVHAMFVMPLGFGNPLGDMFARLNNSFWLPPLSLEGAGTGWTIYPPLAHSSPSVDLGFHLTSSLLGAINFTNMRGPLFWTAMLLLSLPVLAGTLLDRNFNTFEGGDPLYHLFWFFGHPEVYIIPGFGSHSTYKKFGMYASIALGFVWSHHMYVGLDDRAYFTSSTMIAPTGIKFSWLATYGGRPMLAFLFLFTGGTGVLNASDAFHDTYYVVHFHYVLSMGAFSLGYYYWPGLYNLFWFNFPMHFLGGMPRRPYPDAGWNSGSSYQLGPDESNEPH'
p2903
sg123
F0.079170000000000004
sg124
g125
sg33
S'172'
p2904
sg127
g1
(g128
g12
(dp2905
g130
I4
sg131
g132
sg133
g134
sg135
g132
sg136
I01
sg34
g137
sg138
g134
sg139
I0
sg140
I0
sg141
I0
sg142
g134
sg35
g132
sg143
I0
stRp2906
sg145
g146
sg147
F1
sg148
Nsg30
S'WmucoA'
p2907
sbasg120
g2840
sg123
F0.14757000000000001
sg124
g125
sg33
S'141'
p2908
sg127
g1
(g128
g12
(dp2909
g130
I8
sg131
g132
sg133
g134
sg135
g132
sg136
I01
sg34
g173
sg138
g134
sg139
I0
sg140
I0
sg141
I0
sg142
g134
sg35
g132
sg143
I0
stRp2910
sg145
g146
sg147
F0.98999999999999999
sg148
Nsg30
S'NoName'
p2911
sbag1
(g2
g3
NtRp2912
(dp2913
g6
g1
(g7
g3
NtRp2914
(dp2915
g10
g1
(g11
g12
(dtRp2916
sg14
g1
(g11
g12
(dtRp2917
sg16
g1
(g11
g12
(dtRp2918
sg18
g1
(g11
g12
(dtRp2919
sg20
g1
(g11
g12
(dtRp2920
sg22
g1
(g11
g12
(dtRp2921
sbsg24
g25
sg26
g27
((lp2922
g33
ag32
ag29
ag30
atRp2923
sg37
(lp2924
g1
(g2
g3
NtRp2925
(dp2926
g6
g1
(g7
g3
NtRp2927
(dp2928
g10
g1
(g11
g12
(dtRp2929
sg14
g1
(g11
g12
(dtRp2930
sg16
g1
(g11
g12
(dtRp2931
sg18
g1
(g11
g12
(dtRp2932
sg20
g1
(g11
g12
(dtRp2933
sg22
g1
(g11
g12
(dtRp2934
sbsg24
S'Pca'
p2935
sg26
g27
((lp2936
g29
ag30
aS'sequence'
p2937
ag32
ag33
aS'species'
p2938
atRp2939
sg37
(lp2940
sg120
g2912
sg121
S'RWLSTKDLYSRLELPGLNQNVHAMFVMPLGFGNPLGDMFARLNNSFWLPPLSLEWAGTGWTIYPPLSHSSPSVDLGFHLTSSLLGAINFTNMRGPLFWTAMLLLSLPVLAGTLLDRNFNTFEGGDPLYHLFWFFGHPEVYIIPGFGSHSTYKKFGMYASIALGFVWSHHMYVGLDDRAYFTSSTMIAPTGIKFSWLATYGGRPMLAFLFLFTGGTGVLNASDAFHDTYYVVHFHYVLSMGAFSLGYYYWPGLFNLFWFNFPMHFLGGMPRRPYPDAGWNSGSSYQLGPDESNEPH'
p2941
sg123
F0.10655000000000001
sg124
g125
sg33
S'193'
p2942
sg127
g1
(g128
g12
(dp2943
g130
I4
sg131
g132
sg133
g134
sg135
g132
sg136
I01
sg34
g137
sg138
g134
sg139
I0
sg140
I0
sg141
I0
sg142
g134
sg35
g132
sg143
I0
stRp2944
sg145
g146
sg147
F1
sg148
Nsg30
S'PcanaA'
p2945
sbag1
(g2
g3
NtRp2946
(dp2947
g6
g1
(g7
g3
NtRp2948
(dp2949
g10
g1
(g11
g12
(dtRp2950
sg14
g1
(g11
g12
(dtRp2951
sg16
g1
(g11
g12
(dtRp2952
sg18
g1
(g11
g12
(dtRp2953
sg20
g1
(g11
g12
(dtRp2954
sg22
g1
(g11
g12
(dtRp2955
sbsg24
g25
sg26
g27
((lp2956
g33
ag32
ag29
ag30
atRp2957
sg37
(lp2958
g1
(g2
g3
NtRp2959
(dp2960
g6
g1
(g7
g3
NtRp2961
(dp2962
g10
g1
(g11
g12
(dtRp2963
sg14
g1
(g11
g12
(dtRp2964
sg16
g1
(g11
g12
(dtRp2965
sg18
g1
(g11
g12
(dtRp2966
sg20
g1
(g11
g12
(dtRp2967
sg22
g1
(g11
g12
(dtRp2968
sbsg24
S'Cno'
p2969
sg26
g27
((lp2970
g29
ag30
aS'sequence'
p2971
ag32
ag33
aS'species'
p2972
atRp2973
sg37
(lp2974
sg120
g2946
sg121
S'RWLSTKDLYSRLELPGLNQNVHAMFVMPLGFGNPLGDMFARLNNSFWLPPLSLEGAGTGWTIYPPLSHSSPSVDLGFHLTSSLLGAMNFTNMRGPLFWTAMLLLSLPVLAGTLLDRNFNTFEGGDPLYHLFWFFGHPEVYMIPGFGSHSTYKKFGMYASMALGFVWSHHMYVGLDDRAYFTSSTMMAPTGMKFSWLATYGGRPMLAFLFLFTGGTGVLNASDAFHDTYYVVHFHYVLSMGAFSLGYYYWPGLYNLFWFNFPMHFLGGMPRRPYPDAGWNSGSSYQLGPDESNEPH'
p2975
sg123
F0.059069999999999998
sg124
g125
sg33
S'213'
p2976
sg127
g1
(g128
g12
(dp2977
g130
I4
sg131
g132
sg133
g134
sg135
g132
sg136
I01
sg34
g137
sg138
g134
sg139
I0
sg140
I0
sg141
I0
sg142
g134
sg35
g132
sg143
I0
stRp2978
sg145
g146
sg147
F1
sg148
Nsg30
S'CnorvA'
p2979
sbag1
(g2
g3
NtRp2980
(dp2981
g6
g1
(g7
g3
NtRp2982
(dp2983
g10
g1
(g11
g12
(dtRp2984
sg14
g1
(g11
g12
(dtRp2985
sg16
g1
(g11
g12
(dtRp2986
sg18
g1
(g11
g12
(dtRp2987
sg20
g1
(g11
g12
(dtRp2988
sg22
g1
(g11
g12
(dtRp2989
sbsg24
S'Bca'
p2990
sg26
g27
((lp2991
g29
ag30
aS'sequence'
p2992
ag32
ag33
aS'species'
p2993
atRp2994
sg37
(lp2995
sg120
g2946
sg121
S'RWLSTKDLYSRLELPGLNQNVHAMFVMPLGFGNPLGDMFARLNNSFWLPPLSLEGAGTGWTIYPPLSHSSPSVDLGFHLTSSLLGAINFTNMRGPLFWTAMLLLSLPVLAGTLLDRNFNTFEGGDPLYHLFWFFGHPEVYIMPGFGSHSTYKKFGMYASIALGFVWSHHMYVGLDDRAYFTSSTMIAPTGIKFSWLATYGGRPMLAFLFLFTGGTGVLNASDAFHDTYYVVHFHYVLSMGAFSLGYYYWPGLYNLFWFNFPMHFLGGMPRRPYPDAGWNSGSSYQLGPDESNEPH'
p2996
sg123
F0.031899999999999998
sg124
g125
sg33
S'224'
p2997
sg127
g1
(g128
g12
(dp2998
g130
I4
sg131
g132
sg133
g134
sg135
g132
sg136
I01
sg34
g137
sg138
g134
sg139
I0
sg140
I0
sg141
I0
sg142
g134
sg35
g132
sg143
I0
stRp2999
sg145
g146
sg147
F1
sg148
Nsg30
S'BcaliA'
p3000
sbasg120
g2912
sg123
F0.09486
sg124
g125
sg33
S'183'
p3001
sg127
g1
(g128
g12
(dp3002
g130
I8
sg131
g132
sg133
g134
sg135
g132
sg136
I01
sg34
g173
sg138
g134
sg139
I0
sg140
I0
sg141
I0
sg142
g134
sg35
g132
sg143
I0
stRp3003
sg145
g146
sg147
F0.97999999999999998
sg148
Nsg30
S'NoName'
p3004
sbasg120
g2840
sg123
F0.054690000000000003
sg124
g125
sg33
S'150'
p3005
sg127
g1
(g128
g12
(dp3006
g130
I8
sg131
g132
sg133
g134
sg135
g132
sg136
I01
sg34
g173
sg138
g134
sg139
I0
sg140
I0
sg141
I0
sg142
g134
sg35
g132
sg143
I0
stRp3007
sg145
g146
sg147
F0.96999999999999997
sg148
Nsg30
S'NoName'
p3008
sbasg120
g2692
sg123
F0.051860000000000003
sg124
g125
sg33
S'95'
p3009
sg127
g1
(g128
g12
(dp3010
g130
I8
sg131
g132
sg133
g134
sg135
g132
sg136
I01
sg34
g173
sg138
g134
sg139
I0
sg140
I0
sg141
I0
sg142
g134
sg35
g132
sg143
I0
stRp3011
sg145
g146
sg147
F0.96999999999999997
sg148
Nsg30
S'NoName'
p3012
sbasg120
g2679
sg123
F0.52095999999999998
sg124
g125
sg33
S'42'
p3013
sg127
g1
(g128
g12
(dp3014
g130
I8
sg131
g132
sg133
g134
sg135
g132
sg136
I01
sg34
g173
sg138
g134
sg139
I0
sg140
I0
sg141
I0
sg142
g134
sg35
g132
sg143
I0
stRp3015
sg145
g146
sg147
F0.98999999999999999
sg148
Nsg30
S'NoName'
p3016
sbag1
(g2
g3
NtRp3017
(dp3018
g6
g1
(g7
g3
NtRp3019
(dp3020
g10
g1
(g11
g12
(dtRp3021
sg14
g1
(g11
g12
(dtRp3022
sg16
g1
(g11
g12
(dtRp3023
sg18
g1
(g11
g12
(dtRp3024
sg20
g1
(g11
g12
(dtRp3025
sg22
g1
(g11
g12
(dtRp3026
sbsg24
g25
sg26
g27
((lp3027
g33
ag32
ag29
ag30
atRp3028
sg37
(lp3029
g1
(g2
g3
NtRp3030
(dp3031
g6
g1
(g7
g3
NtRp3032
(dp3033
g10
g1
(g11
g12
(dtRp3034
sg14
g1
(g11
g12
(dtRp3035
sg16
g1
(g11
g12
(dtRp3036
sg18
g1
(g11
g12
(dtRp3037
sg20
g1
(g11
g12
(dtRp3038
sg22
g1
(g11
g12
(dtRp3039
sbsg24
g25
sg26
g27
((lp3040
g33
ag32
ag29
ag30
atRp3041
sg37
(lp3042
g1
(g2
g3
NtRp3043
(dp3044
g6
g1
(g7
g3
NtRp3045
(dp3046
g10
g1
(g11
g12
(dtRp3047
sg14
g1
(g11
g12
(dtRp3048
sg16
g1
(g11
g12
(dtRp3049
sg18
g1
(g11
g12
(dtRp3050
sg20
g1
(g11
g12
(dtRp3051
sg22
g1
(g11
g12
(dtRp3052
sbsg24
g25
sg26
g27
((lp3053
g33
ag32
ag29
ag30
atRp3054
sg37
(lp3055
g1
(g2
g3
NtRp3056
(dp3057
g6
g1
(g7
g3
NtRp3058
(dp3059
g10
g1
(g11
g12
(dtRp3060
sg14
g1
(g11
g12
(dtRp3061
sg16
g1
(g11
g12
(dtRp3062
sg18
g1
(g11
g12
(dtRp3063
sg20
g1
(g11
g12
(dtRp3064
sg22
g1
(g11
g12
(dtRp3065
sbsg24
g25
sg26
g27
((lp3066
g33
ag32
ag29
ag30
atRp3067
sg37
(lp3068
g1
(g2
g3
NtRp3069
(dp3070
g6
g1
(g7
g3
NtRp3071
(dp3072
g10
g1
(g11
g12
(dtRp3073
sg14
g1
(g11
g12
(dtRp3074
sg16
g1
(g11
g12
(dtRp3075
sg18
g1
(g11
g12
(dtRp3076
sg20
g1
(g11
g12
(dtRp3077
sg22
g1
(g11
g12
(dtRp3078
sbsg24
g25
sg26
g27
((lp3079
g33
ag32
ag29
ag30
atRp3080
sg37
(lp3081
g1
(g2
g3
NtRp3082
(dp3083
g6
g1
(g7
g3
NtRp3084
(dp3085
g10
g1
(g11
g12
(dtRp3086
sg14
g1
(g11
g12
(dtRp3087
sg16
g1
(g11
g12
(dtRp3088
sg18
g1
(g11
g12
(dtRp3089
sg20
g1
(g11
g12
(dtRp3090
sg22
g1
(g11
g12
(dtRp3091
sbsg24
g25
sg26
g27
((lp3092
g33
ag32
ag29
ag30
atRp3093
sg37
(lp3094
g1
(g2
g3
NtRp3095
(dp3096
g6
g1
(g7
g3
NtRp3097
(dp3098
g10
g1
(g11
g12
(dtRp3099
sg14
g1
(g11
g12
(dtRp3100
sg16
g1
(g11
g12
(dtRp3101
sg18
g1
(g11
g12
(dtRp3102
sg20
g1
(g11
g12
(dtRp3103
sg22
g1
(g11
g12
(dtRp3104
sbsg24
S'Lkl'
p3105
sg26
g27
((lp3106
g29
ag30
aS'sequence'
p3107
ag32
ag33
aS'species'
p3108
atRp3109
sg37
(lp3110
sg120
g3082
sg121
S'RWLSTKDLYSRLELPGLNQNVHAMFVMPLGFGNPMGDMFARLNNSFWLPPLSLEGAGTGWTVYPPLSHSGPSVDLAFHLTSSLLGAINFTNMRGPLFWTALLLLSLPVLAGTLLDRNFNTFEGGDPLYHLFWFFGHPEVYIIPGFGSHSTYKKFGMYASIGLGFVWSHHMYVGLDDRAYFLSATMIAPTGIKFSWLATYGGRPMLAFLFLFTGGTGVLNASDAFHDLYYVVHFHYVLSMGAFSLGYYYWPGLYNLFWFNFPMHFLGGMPRRPYPDAGWNSGSSYQLGPDESNEPH'
p3111
sg123
F0.00044999999999999999
sg124
g125
sg33
S'72'
p3112
sg127
g1
(g128
g12
(dp3113
g130
I4
sg131
g132
sg133
g134
sg135
g132
sg136
I01
sg34
g137
sg138
g134
sg139
I0
sg140
I0
sg141
I0
sg142
g134
sg35
g132
sg143
I0
stRp3114
sg145
g146
sg147
F1
sg148
Nsg30
S'LkluyE'
p3115
sbag1
(g2
g3
NtRp3116
(dp3117
g6
g1
(g7
g3
NtRp3118
(dp3119
g10
g1
(g11
g12
(dtRp3120
sg14
g1
(g11
g12
(dtRp3121
sg16
g1
(g11
g12
(dtRp3122
sg18
g1
(g11
g12
(dtRp3123
sg20
g1
(g11
g12
(dtRp3124
sg22
g1
(g11
g12
(dtRp3125
sbsg24
S'Lkl'
p3126
sg26
g27
((lp3127
g29
ag30
aS'sequence'
p3128
ag32
ag33
aS'species'
p3129
atRp3130
sg37
(lp3131
sg120
g3082
sg121
S'RWLSTKDLYSRLELPGLNQNVHAMFVMPLGFGNPMGDMFARLNNSFWLPPLSLEGAGTGWTVYPPLSHSGPSVDLAFHLTSSLLGAINFTNMRGPLFWTALLLLSLPVLAGTLLDRNFNTFEGGDPLYHLFWFFGHPEVYIIPGFGSHSTYKKFGMYASIGLGFVWSHHMYVGLDDRAYFLSATMIAPTGIKFSWLATYGGRPMLAFLFLFTGGTGVLNASDAFHDLYYVVHFHYVLSMGAFSLGYYYWPGLYNLFWFNFPMHFLGGMPRRPYPDAGWNSGSSYQLGPDESNEPH'
p3132
sg123
F0.0077400000000000004
sg124
g125
sg33
S'82'
p3133
sg127
g1
(g128
g12
(dp3134
g130
I4
sg131
g132
sg133
g134
sg135
g132
sg136
I01
sg34
g137
sg138
g134
sg139
I0
sg140
I0
sg141
I0
sg142
g134
sg35
g132
sg143
I0
stRp3135
sg145
g146
sg147
F1
sg148
Nsg30
S'LkluyD'
p3136
sbasg120
g3069
sg123
F0.0017099999999999999
sg124
g125
sg33
S'50'
p3137
sg127
g1
(g128
g12
(dp3138
g130
I8
sg131
g132
sg133
g134
sg135
g132
sg136
I01
sg34
g173
sg138
g134
sg139
I0
sg140
I0
sg141
I0
sg142
g134
sg35
g132
sg143
I0
stRp3139
sg145
g146
sg147
F0.56000000000000005
sg148
Nsg30
S'NoName'
p3140
sbag1
(g2
g3
NtRp3141
(dp3142
g6
g1
(g7
g3
NtRp3143
(dp3144
g10
g1
(g11
g12
(dtRp3145
sg14
g1
(g11
g12
(dtRp3146
sg16
g1
(g11
g12
(dtRp3147
sg18
g1
(g11
g12
(dtRp3148
sg20
g1
(g11
g12
(dtRp3149
sg22
g1
(g11
g12
(dtRp3150
sbsg24
g25
sg26
g27
((lp3151
g33
ag32
ag29
ag30
atRp3152
sg37
(lp3153
g1
(g2
g3
NtRp3154
(dp3155
g6
g1
(g7
g3
NtRp3156
(dp3157
g10
g1
(g11
g12
(dtRp3158
sg14
g1
(g11
g12
(dtRp3159
sg16
g1
(g11
g12
(dtRp3160
sg18
g1
(g11
g12
(dtRp3161
sg20
g1
(g11
g12
(dtRp3162
sg22
g1
(g11
g12
(dtRp3163
sbsg24
g25
sg26
g27
((lp3164
g33
ag32
ag29
ag30
atRp3165
sg37
(lp3166
g1
(g2
g3
NtRp3167
(dp3168
g6
g1
(g7
g3
NtRp3169
(dp3170
g10
g1
(g11
g12
(dtRp3171
sg14
g1
(g11
g12
(dtRp3172
sg16
g1
(g11
g12
(dtRp3173
sg18
g1
(g11
g12
(dtRp3174
sg20
g1
(g11
g12
(dtRp3175
sg22
g1
(g11
g12
(dtRp3176
sbsg24
g25
sg26
g27
((lp3177
g33
ag32
ag29
ag30
atRp3178
sg37
(lp3179
g1
(g2
g3
NtRp3180
(dp3181
g6
g1
(g7
g3
NtRp3182
(dp3183
g10
g1
(g11
g12
(dtRp3184
sg14
g1
(g11
g12
(dtRp3185
sg16
g1
(g11
g12
(dtRp3186
sg18
g1
(g11
g12
(dtRp3187
sg20
g1
(g11
g12
(dtRp3188
sg22
g1
(g11
g12
(dtRp3189
sbsg24
S'Lkl'
p3190
sg26
g27
((lp3191
g29
ag30
aS'sequence'
p3192
ag32
ag33
aS'species'
p3193
atRp3194
sg37
(lp3195
sg120
g3167
sg121
S'RWLSTKDLYSRLELPGLNQNVHAMFVMPLGFGNPMGDMFARLNNSFWLPPLSLEGAGTGWTVYPPLSHSGPSVDLAFHLTSSLLGAINFTNMRGPLFWTALLLLSLPVLAGTLLDRNFNTFEGGDPLYHLFWFFGHPEVYIIPGFGSHSTYKKFGMYASIGLGFVWSHHMYVGLDDRAYFLSATMIAPTGIKFSWLATYGGRPMLAFLFLFTGGTGVLNASDAFHDLYYVVHFHYVLSMGAFSLGYYYWPGLYNLFWFNFPMHFLGGMPRRPYPDAGWNSGSSYQLGPDESNEPH'
p3196
sg123
F0.00038999999999999999
sg124
g125
sg33
S'126'
p3197
sg127
g1
(g128
g12
(dp3198
g130
I4
sg131
g132
sg133
g134
sg135
g132
sg136
I01
sg34
g137
sg138
g134
sg139
I0
sg140
I0
sg141
I0
sg142
g134
sg35
g132
sg143
I0
stRp3199
sg145
g146
sg147
F1
sg148
Nsg30
S'LkluyF'
p3200
sbag1
(g2
g3
NtRp3201
(dp3202
g6
g1
(g7
g3
NtRp3203
(dp3204
g10
g1
(g11
g12
(dtRp3205
sg14
g1
(g11
g12
(dtRp3206
sg16
g1
(g11
g12
(dtRp3207
sg18
g1
(g11
g12
(dtRp3208
sg20
g1
(g11
g12
(dtRp3209
sg22
g1
(g11
g12
(dtRp3210
sbsg24
S'Lkl'
p3211
sg26
g27
((lp3212
g29
ag30
aS'sequence'
p3213
ag32
ag33
aS'species'
p3214
atRp3215
sg37
(lp3216
sg120
g3167
sg121
S'RWLSTKDLYSRLELPGLNQNVHAMFVMPLGFGNPMGDMFARLNNSFWLPPLSLEGAGTGWTVYPPLSHSGPSVDLAFHLTSSLLGAINFTNMRGPLFWTALLLLSLPVLAGTLLDRNFNTFEGGDPLYHLFWFFGHPEVYIIPGFGSHSTYKKFGMYASIGLGFVWSHHMYVGLDDRAYFLSATMIAPTGIKFSWLATYGGRPMLAFLFLFTGGTGVLNASDAFHDLYYVVHFHYVLSMGAFSLGYYYWPGLYNLFWFNFPMHFLGGMPRRPYPDAGWNSGSSYQLGPDESNEPH'
p3217
sg123
F0.00038000000000000002
sg124
g125
sg33
S'138'
p3218
sg127
g1
(g128
g12
(dp3219
g130
I4
sg131
g132
sg133
g134
sg135
g132
sg136
I01
sg34
g137
sg138
g134
sg139
I0
sg140
I0
sg141
I0
sg142
g134
sg35
g132
sg143
I0
stRp3220
sg145
g146
sg147
F1
sg148
Nsg30
S'LkluyC'
p3221
sbasg120
g3154
sg123
F1.0000000000000001e-05
sg124
g125
sg33
S'103'
p3222
sg127
g1
(g128
g12
(dp3223
g130
I8
sg131
g132
sg133
g134
sg135
g132
sg136
I01
sg34
g173
sg138
g134
sg139
I0
sg140
I0
sg141
I0
sg142
g134
sg35
g132
sg143
I0
stRp3224
sg145
g146
sg147
F1
sg148
Nsg30
S'NoName'
p3225
sbag1
(g2
g3
NtRp3226
(dp3227
g6
g1
(g7
g3
NtRp3228
(dp3229
g10
g1
(g11
g12
(dtRp3230
sg14
g1
(g11
g12
(dtRp3231
sg16
g1
(g11
g12
(dtRp3232
sg18
g1
(g11
g12
(dtRp3233
sg20
g1
(g11
g12
(dtRp3234
sg22
g1
(g11
g12
(dtRp3235
sbsg24
S'Lkl'
p3236
sg26
g27
((lp3237
g29
ag30
aS'sequence'
p3238
ag32
ag33
aS'species'
p3239
atRp3240
sg37
(lp3241
sg120
g3154
sg121
S'RWLSTKDLYSRLELPGLNQNVHAMFVMPLGFGNPMGDMFARLNNSFWLPPLSLEGAGTGWTVYPPLSHSGPSVDLAFHLTSSLLGAINFTNMRGPLFWTALLLLSLPVLAGTLLDRNFNTFEGGDPLYHLFWFFGHPEVYIIPGFGSHSTYKKFGMYASIGLGFVWSHHMYVGLDDRAYFLSATMIAPTGIKFSWLATYGGRPMLAFLFLFTGGTGVLNASDAFHDLYYVVHFHYVLSMGAFSLGYYYWPGLYNLFWFNFPMHFLGGMPRRPYPDAGWNSGSSYQLGPDESNEPH'
p3242
sg123
F0.00040999999999999999
sg124
g125
sg33
S'147'
p3243
sg127
g1
(g128
g12
(dp3244
g130
I4
sg131
g132
sg133
g134
sg135
g132
sg136
I01
sg34
g137
sg138
g134
sg139
I0
sg140
I0
sg141
I0
sg142
g134
sg35
g132
sg143
I0
stRp3245
sg145
g146
sg147
F1
sg148
Nsg30
S'LkluyB'
p3246
sbasg120
g3141
sg123
F1.0000000000000001e-05
sg124
g125
sg33
S'91'
p3247
sg127
g1
(g128
g12
(dp3248
g130
I8
sg131
g132
sg133
g134
sg135
g132
sg136
I01
sg34
g173
sg138
g134
sg139
I0
sg140
I0
sg141
I0
sg142
g134
sg35
g132
sg143
I0
stRp3249
sg145
g146
sg147
F1
sg148
Nsg30
S'NoName'
p3250
sbag1
(g2
g3
NtRp3251
(dp3252
g6
g1
(g7
g3
NtRp3253
(dp3254
g10
g1
(g11
g12
(dtRp3255
sg14
g1
(g11
g12
(dtRp3256
sg16
g1
(g11
g12
(dtRp3257
sg18
g1
(g11
g12
(dtRp3258
sg20
g1
(g11
g12
(dtRp3259
sg22
g1
(g11
g12
(dtRp3260
sbsg24
S'Lkl'
p3261
sg26
g27
((lp3262
g29
ag30
aS'sequence'
p3263
ag32
ag33
aS'species'
p3264
atRp3265
sg37
(lp3266
sg120
g3141
sg121
S'RWLSTKDLYSRLELPGLNQNVHAMFVMPLGFGNPMGDMFARLNNSFWLPPLSLEGAGTGWTVYPPLSHSGPSVDLAFHLTSSLLGAINFTNMRGPLFWTALLLLSLPVLAGTLLDRNFNTFEGGDPLYHLFWFFGHPEVYIIPGFGSHSTYKKFGMYASIGLGFVWSHHMYVGLDDRAYFLSATMIAPTGIKFSWLATYGGRPMLAFLFLFTGGTGVLNASDAFHDLYYVVHFHYVLSMGAFSLGYYYWPGLYNLFWFNFPMHFLGGMPRRPYPDAGWNSGSSYQLGPDESNEPH'
p3267
sg123
F0.00040999999999999999
sg124
g125
sg33
S'157'
p3268
sg127
g1
(g128
g12
(dp3269
g130
I4
sg131
g132
sg133
g134
sg135
g132
sg136
I01
sg34
g137
sg138
g134
sg139
I0
sg140
I0
sg141
I0
sg142
g134
sg35
g132
sg143
I0
stRp3270
sg145
g146
sg147
F1
sg148
Nsg30
S'LkluyA'
p3271
sbasg120
g3069
sg123
F0.0035300000000000002
sg124
g125
sg33
S'61'
p3272
sg127
g1
(g128
g12
(dp3273
g130
I8
sg131
g132
sg133
g134
sg135
g132
sg136
I01
sg34
g173
sg138
g134
sg139
I0
sg140
I0
sg141
I0
sg142
g134
sg35
g132
sg143
I0
stRp3274
sg145
g146
sg147
F0.91000000000000003
sg148
Nsg30
S'NoName'
p3275
sbasg120
g3056
sg123
F0.054280000000000002
sg124
g125
sg33
S'39'
p3276
sg127
g1
(g128
g12
(dp3277
g130
I8
sg131
g132
sg133
g134
sg135
g132
sg136
I01
sg34
g173
sg138
g134
sg139
I0
sg140
I0
sg141
I0
sg142
g134
sg35
g132
sg143
I0
stRp3278
sg145
g146
sg147
F0.98999999999999999
sg148
Nsg30
S'NoName'
p3279
sbag1
(g2
g3
NtRp3280
(dp3281
g6
g1
(g7
g3
NtRp3282
(dp3283
g10
g1
(g11
g12
(dtRp3284
sg14
g1
(g11
g12
(dtRp3285
sg16
g1
(g11
g12
(dtRp3286
sg18
g1
(g11
g12
(dtRp3287
sg20
g1
(g11
g12
(dtRp3288
sg22
g1
(g11
g12
(dtRp3289
sbsg24
g25
sg26
g27
((lp3290
g33
ag32
ag29
ag30
atRp3291
sg37
(lp3292
g1
(g2
g3
NtRp3293
(dp3294
g6
g1
(g7
g3
NtRp3295
(dp3296
g10
g1
(g11
g12
(dtRp3297
sg14
g1
(g11
g12
(dtRp3298
sg16
g1
(g11
g12
(dtRp3299
sg18
g1
(g11
g12
(dtRp3300
sg20
g1
(g11
g12
(dtRp3301
sg22
g1
(g11
g12
(dtRp3302
sbsg24
S'Lan'
p3303
sg26
g27
((lp3304
g29
ag30
aS'sequence'
p3305
ag32
ag33
aS'species'
p3306
atRp3307
sg37
(lp3308
sg120
g3280
sg121
S'RWLSTKDLYSRLELPGLNQNVHAMFVMPLGFGNPMGDMFARLNNSFWLPPLSLEGAGTGWTLYPPLSHSGPSVDLAFHLTSSLLGAINFTNMRGPLFWTALLLLSLPVLAGTVLDRNFNTFEGGDPLYHLFWFFGHPEVYIIPGFGSHSTYKKFGMYASIGLGFVWSHHMYVGLDDRAYFTSATMIAPTGIKFSWLALYGGRPMLAFLFLFTGGTGVLNASDAFHDTYYVVHFHYVLSMGAFSLGYYYWPGLYNLFWFNFPMHFLGGMPRRPYPDAGWNSGSSYQLGPDESNEPH'
p3309
sg123
F0.10922999999999999
sg124
g125
sg33
S'179'
p3310
sg127
g1
(g128
g12
(dp3311
g130
I4
sg131
g132
sg133
g134
sg135
g132
sg136
I01
sg34
g137
sg138
g134
sg139
I0
sg140
I0
sg141
I0
sg142
g134
sg35
g132
sg143
I0
stRp3312
sg145
g146
sg147
F1
sg148
Nsg30
S'LanspA'
p3313
sbag1
(g2
g3
NtRp3314
(dp3315
g6
g1
(g7
g3
NtRp3316
(dp3317
g10
g1
(g11
g12
(dtRp3318
sg14
g1
(g11
g12
(dtRp3319
sg16
g1
(g11
g12
(dtRp3320
sg18
g1
(g11
g12
(dtRp3321
sg20
g1
(g11
g12
(dtRp3322
sg22
g1
(g11
g12
(dtRp3323
sbsg24
g25
sg26
g27
((lp3324
g33
ag32
ag29
ag30
atRp3325
sg37
(lp3326
g1
(g2
g3
NtRp3327
(dp3328
g6
g1
(g7
g3
NtRp3329
(dp3330
g10
g1
(g11
g12
(dtRp3331
sg14
g1
(g11
g12
(dtRp3332
sg16
g1
(g11
g12
(dtRp3333
sg18
g1
(g11
g12
(dtRp3334
sg20
g1
(g11
g12
(dtRp3335
sg22
g1
(g11
g12
(dtRp3336
sbsg24
g25
sg26
g27
((lp3337
g33
ag32
ag29
ag30
atRp3338
sg37
(lp3339
g1
(g2
g3
NtRp3340
(dp3341
g6
g1
(g7
g3
NtRp3342
(dp3343
g10
g1
(g11
g12
(dtRp3344
sg14
g1
(g11
g12
(dtRp3345
sg16
g1
(g11
g12
(dtRp3346
sg18
g1
(g11
g12
(dtRp3347
sg20
g1
(g11
g12
(dtRp3348
sg22
g1
(g11
g12
(dtRp3349
sbsg24
S'Lno'
p3350
sg26
g27
((lp3351
g29
ag30
aS'sequence'
p3352
ag32
ag33
aS'species'
p3353
atRp3354
sg37
(lp3355
sg120
g3327
sg121
S'RWLSTKDLYSRLELPGLNQNVHAMFVMPLGFGNPMGDMFARLNNSFWLPPLSLEGAGTGWTIYPPLSHSGPSVDLAFHLTSSLLGAINFTNMRGPLFWTALLLLSLPVLAGTILDRNFNTFEGGDPLYHLFWFFGHPEVYIIPGFGSHSTYKKFGMYASIGLGFVWSHHMYVGLDDRAYFTSALMIAPTGIKFSWLALYGGRPMLAFLFLFTGGTGVLNASDAFHDTYYVVHFHYVLSMGAFSLGYYYWPGLYNLFWFNFPMHFLGGMPRRPYPDAGWNSGSSYQLGPDESNEPH'
p3356
sg123
F0.0075199999999999998
sg124
g125
sg33
S'209'
p3357
sg127
g1
(g128
g12
(dp3358
g130
I4
sg131
g132
sg133
g134
sg135
g132
sg136
I01
sg34
g137
sg138
g134
sg139
I0
sg140
I0
sg141
I0
sg142
g134
sg35
g132
sg143
I0
stRp3359
sg145
g146
sg147
F1
sg148
Nsg30
S'LnothA'
p3360
sbag1
(g2
g3
NtRp3361
(dp3362
g6
g1
(g7
g3
NtRp3363
(dp3364
g10
g1
(g11
g12
(dtRp3365
sg14
g1
(g11
g12
(dtRp3366
sg16
g1
(g11
g12
(dtRp3367
sg18
g1
(g11
g12
(dtRp3368
sg20
g1
(g11
g12
(dtRp3369
sg22
g1
(g11
g12
(dtRp3370
sbsg24
g25
sg26
g27
((lp3371
g33
ag32
ag29
ag30
atRp3372
sg37
(lp3373
g1
(g2
g3
NtRp3374
(dp3375
g6
g1
(g7
g3
NtRp3376
(dp3377
g10
g1
(g11
g12
(dtRp3378
sg14
g1
(g11
g12
(dtRp3379
sg16
g1
(g11
g12
(dtRp3380
sg18
g1
(g11
g12
(dtRp3381
sg20
g1
(g11
g12
(dtRp3382
sg22
g1
(g11
g12
(dtRp3383
sbsg24
S'Lda'
p3384
sg26
g27
((lp3385
g29
ag30
aS'sequence'
p3386
ag32
ag33
aS'species'
p3387
atRp3388
sg37
(lp3389
sg120
g3361
sg121
S'RWLSTKDLYSRLELPGLNQNVHAMFVMPLGFGNPMGDMFARLNNSFWLPPLSLEGAGTGWTVYPPLSHSGPSVDLAFHLTSSLLGAINFTNMRGPLFWTALLLLSLPVLAGTILDRNFNTFEGGDPLYHLFWFFGHPEVYIIPGFGSHSTYKKFGMYASIGLGFVWSHHMYVGLDDRAYFTSATMIAPTGIKFSWLALYGGRPMLAFLFLFTGGTGVLNASDAFHDTYYVVHFHYVLSMGAFSLGYYYWPGLYNLFWFNFPMHFLGGMPRRPYPDAGWNSGSSYQLGPDESNEPH'
p3390
sg123
F0.023539999999999998
sg124
g125
sg33
S'4'
sg127
g1
(g128
g12
(dp3391
g130
I4
sg131
g132
sg133
g134
sg135
g132
sg136
I01
sg34
g137
sg138
g134
sg139
I0
sg140
I0
sg141
I0
sg142
g134
sg35
g132
sg143
I0
stRp3392
sg145
g146
sg147
F1
sg148
Nsg30
S'LdasiA'
p3393
sbag1
(g2
g3
NtRp3394
(dp3395
g6
g1
(g7
g3
NtRp3396
(dp3397
g10
g1
(g11
g12
(dtRp3398
sg14
g1
(g11
g12
(dtRp3399
sg16
g1
(g11
g12
(dtRp3400
sg18
g1
(g11
g12
(dtRp3401
sg20
g1
(g11
g12
(dtRp3402
sg22
g1
(g11
g12
(dtRp3403
sbsg24
g25
sg26
g27
((lp3404
g33
ag32
ag29
ag30
atRp3405
sg37
(lp3406
g1
(g2
g3
NtRp3407
(dp3408
g6
g1
(g7
g3
NtRp3409
(dp3410
g10
g1
(g11
g12
(dtRp3411
sg14
g1
(g11
g12
(dtRp3412
sg16
g1
(g11
g12
(dtRp3413
sg18
g1
(g11
g12
(dtRp3414
sg20
g1
(g11
g12
(dtRp3415
sg22
g1
(g11
g12
(dtRp3416
sbsg24
S'Lme'
p3417
sg26
g27
((lp3418
g29
ag30
aS'sequence'
p3419
ag32
ag33
aS'species'
p3420
atRp3421
sg37
(lp3422
sg120
g3394
sg121
S'RWLSTKDLYSRLELPGLNQNVHAMFVMPLGFGNPMGDMFARLNNSFWLPPLSLEGAGTGWTVYPPLSHSGPSVDLAFHLTSSLLGAINFTNMRGPLFWTALLLLSLPVLAGTILDRNFNTFEGGDPLYHLFWFFGHPEVYIIPGFGSHSTYKKFGMYASIGLGFVWSHHMYVGLDDRAYFTSATMIAPTGIKFSWLALYGGRPMLAFLFLFTGGTGVLNASDAFHDTYYVVHFHYVLSMGAFSLGYYYWPGLYNLFWFNFPMHFLGGMPRRPYPDAGWNSGSSYQLGPDESNEPH'
p3423
sg123
F0.0050299999999999997
sg124
g125
sg33
S'26'
p3424
sg127
g1
(g128
g12
(dp3425
g130
I4
sg131
g132
sg133
g134
sg135
g132
sg136
I01
sg34
g137
sg138
g134
sg139
I0
sg140
I0
sg141
I0
sg142
g134
sg35
g132
sg143
I0
stRp3426
sg145
g146
sg147
F1
sg148
Nsg30
S'LmeyeA'
p3427
sbag1
(g2
g3
NtRp3428
(dp3429
g6
g1
(g7
g3
NtRp3430
(dp3431
g10
g1
(g11
g12
(dtRp3432
sg14
g1
(g11
g12
(dtRp3433
sg16
g1
(g11
g12
(dtRp3434
sg18
g1
(g11
g12
(dtRp3435
sg20
g1
(g11
g12
(dtRp3436
sg22
g1
(g11
g12
(dtRp3437
sbsg24
S'Lan'
p3438
sg26
g27
((lp3439
g29
ag30
aS'sequence'
p3440
ag32
ag33
aS'species'
p3441
atRp3442
sg37
(lp3443
sg120
g3394
sg121
S'RWLSTKDLYSRLELPGLNQNVHAMFVMPLGFGNPMGDMFARLNNSFWLPPLSLEGAGTGWTVYPPLSHSGPSVDLAFHLTSSLLGAINFTNMRGPLFWTALLLLSLPVLAGTILDRNFNTFEGGDPLYHLFWFFGHPEVYIIPGFGSHSTYKKFGMYASIGLGFVWSHHMYVGLDDRAYFTSALMIAPTGIKFSWLALYGGRPMLAFLFLFTGGTGVLNASDAFHDTYYVVHFHYVLSMGAFSLGYYYWPGLYNLFWFNFPMHFLGGMPRRPYPDAGWNSGSSYQLGPDESNEPH'
p3444
sg123
F0.012290000000000001
sg124
g125
sg33
S'36'
p3445
sg127
g1
(g128
g12
(dp3446
g130
I4
sg131
g132
sg133
g134
sg135
g132
sg136
I01
sg34
g137
sg138
g134
sg139
I0
sg140
I0
sg141
I0
sg142
g134
sg35
g132
sg143
I0
stRp3447
sg145
g146
sg147
F1
sg148
Nsg30
S'LanspB'
p3448
sbasg120
g3361
sg123
F0.012070000000000001
sg124
g125
sg33
S'220'
p3449
sg127
g1
(g128
g12
(dp3450
g130
I8
sg131
g132
sg133
g134
sg135
g132
sg136
I01
sg34
g173
sg138
g134
sg139
I0
sg140
I0
sg141
I0
sg142
g134
sg35
g132
sg143
I0
stRp3451
sg145
g146
sg147
F0.98999999999999999
sg148
Nsg30
S'NoName'
p3452
sbasg120
g3327
sg123
F0.0088199999999999997
sg124
g125
sg33
S'200'
p3453
sg127
g1
(g128
g12
(dp3454
g130
I8
sg131
g132
sg133
g134
sg135
g132
sg136
I01
sg34
g173
sg138
g134
sg139
I0
sg140
I0
sg141
I0
sg142
g134
sg35
g132
sg143
I0
stRp3455
sg145
g146
sg147
F0.95999999999999996
sg148
Nsg30
S'NoName'
p3456
sbasg120
g3314
sg123
F0.016570000000000001
sg124
g125
sg33
S'189'
p3457
sg127
g1
(g128
g12
(dp3458
g130
I8
sg131
g132
sg133
g134
sg135
g132
sg136
I01
sg34
g173
sg138
g134
sg139
I0
sg140
I0
sg141
I0
sg142
g134
sg35
g132
sg143
I0
stRp3459
sg145
g146
sg147
F0.94999999999999996
sg148
Nsg30
S'NoName'
p3460
sbag1
(g2
g3
NtRp3461
(dp3462
g6
g1
(g7
g3
NtRp3463
(dp3464
g10
g1
(g11
g12
(dtRp3465
sg14
g1
(g11
g12
(dtRp3466
sg16
g1
(g11
g12
(dtRp3467
sg18
g1
(g11
g12
(dtRp3468
sg20
g1
(g11
g12
(dtRp3469
sg22
g1
(g11
g12
(dtRp3470
sbsg24
S'Kth'
p3471
sg26
g27
((lp3472
g29
ag30
aS'sequence'
p3473
ag32
ag33
aS'species'
p3474
atRp3475
sg37
(lp3476
sg120
g3314
sg121
S'RWLSTKDLYSRLELPGLNQNVHAMFVMPLGFGNPMGDMFARLNNSFWLPPLSLEGAGTGWTVYPPLSHSGPSVDLAFHLTSSLLGAINFTNMRGPLFWTALLLLSLPVLAGTILDRNFNTFEGGDPLYHLFWFFGHPEVYIIPGFGSHSTYKKFGMYASIGLGFVWSHHMYVGLDDRAYFTSATMIAPTGIKFSWLALYGGRPMLAFLFLFTGGTGVLNASDAFHDTYYVVHFHYVLSMGAFSLGYYYWPGLYNLFWFNFPMHFLGGMPRRPYPDAGWNSGSSYQLGPDESNEPH'
p3477
sg123
F0.021499999999999998
sg124
g125
sg33
S'137'
p3478
sg127
g1
(g128
g12
(dp3479
g130
I4
sg131
g132
sg133
g134
sg135
g132
sg136
I01
sg34
g137
sg138
g134
sg139
I0
sg140
I0
sg141
I0
sg142
g134
sg35
g132
sg143
I0
stRp3480
sg145
g146
sg147
F1
sg148
Nsg30
S'KtherA'
p3481
sbasg120
g3280
sg123
F0.033250000000000002
sg124
g125
sg33
S'168'
p3482
sg127
g1
(g128
g12
(dp3483
g130
I8
sg131
g132
sg133
g134
sg135
g132
sg136
I01
sg34
g173
sg138
g134
sg139
I0
sg140
I0
sg141
I0
sg142
g134
sg35
g132
sg143
I0
stRp3484
sg145
g146
sg147
F0.93999999999999995
sg148
Nsg30
S'NoName'
p3485
sbasg120
g3056
sg123
F0.038859999999999999
sg124
g125
sg33
S'113'
p3486
sg127
g1
(g128
g12
(dp3487
g130
I8
sg131
g132
sg133
g134
sg135
g132
sg136
I01
sg34
g173
sg138
g134
sg139
I0
sg140
I0
sg141
I0
sg142
g134
sg35
g132
sg143
I0
stRp3488
sg145
g146
sg147
F0.92000000000000004
sg148
Nsg30
S'NoName'
p3489
sbasg120
g3043
sg123
F0.050380000000000001
sg124
g125
sg33
S'29'
p3490
sg127
g1
(g128
g12
(dp3491
g130
I8
sg131
g132
sg133
g134
sg135
g132
sg136
I01
sg34
g173
sg138
g134
sg139
I0
sg140
I0
sg141
I0
sg142
g134
sg35
g132
sg143
I0
stRp3492
sg145
g146
sg147
F0.89000000000000001
sg148
Nsg30
S'NoName'
p3493
sbag1
(g2
g3
NtRp3494
(dp3495
g6
g1
(g7
g3
NtRp3496
(dp3497
g10
g1
(g11
g12
(dtRp3498
sg14
g1
(g11
g12
(dtRp3499
sg16
g1
(g11
g12
(dtRp3500
sg18
g1
(g11
g12
(dtRp3501
sg20
g1
(g11
g12
(dtRp3502
sg22
g1
(g11
g12
(dtRp3503
sbsg24
g25
sg26
g27
((lp3504
g33
ag32
ag29
ag30
atRp3505
sg37
(lp3506
g1
(g2
g3
NtRp3507
(dp3508
g6
g1
(g7
g3
NtRp3509
(dp3510
g10
g1
(g11
g12
(dtRp3511
sg14
g1
(g11
g12
(dtRp3512
sg16
g1
(g11
g12
(dtRp3513
sg18
g1
(g11
g12
(dtRp3514
sg20
g1
(g11
g12
(dtRp3515
sg22
g1
(g11
g12
(dtRp3516
sbsg24
S'Kma'
p3517
sg26
g27
((lp3518
g29
ag30
aS'sequence'
p3519
ag32
ag33
aS'species'
p3520
atRp3521
sg37
(lp3522
sg120
g3494
sg121
S'RWLSTKDLYSRLELPGLNQNVHAMFVMPLGFGNPMGDMFARLNNSFWLPPLSLEGAGTGWTVYPPLSHSGPSVDLAFHLTSSLLGAINFTNMRGPLFWTALLLLSLPVLAGTLLDRNFNTFEGGDPLYHLFWFFGHPEVYIIPGFGSHSTYKKFGMYASIGLGFVWSHHMYVGLDDRAYFTSATMIAPTGIKFSWLATYGGRPMLAFLFLFTGGTGVLNASDAFHDTYYVVHFHYVLSMGAFSLGYYYWPGLYNLFWFNFPMHFLGGMPRRPYPDAGWNSGSSYQLGPDESNEPH'
p3523
sg123
F0.04018
sg124
g125
sg33
S'69'
p3524
sg127
g1
(g128
g12
(dp3525
g130
I4
sg131
g132
sg133
g134
sg135
g132
sg136
I01
sg34
g137
sg138
g134
sg139
I0
sg140
I0
sg141
I0
sg142
g134
sg35
g132
sg143
I0
stRp3526
sg145
g146
sg147
F1
sg148
Nsg30
S'KmarxA'
p3527
sbag1
(g2
g3
NtRp3528
(dp3529
g6
g1
(g7
g3
NtRp3530
(dp3531
g10
g1
(g11
g12
(dtRp3532
sg14
g1
(g11
g12
(dtRp3533
sg16
g1
(g11
g12
(dtRp3534
sg18
g1
(g11
g12
(dtRp3535
sg20
g1
(g11
g12
(dtRp3536
sg22
g1
(g11
g12
(dtRp3537
sbsg24
S'Kla'
p3538
sg26
g27
((lp3539
g29
ag30
aS'sequence'
p3540
ag32
ag33
aS'species'
p3541
atRp3542
sg37
(lp3543
sg120
g3494
sg121
S'RWLSTKDLYSRLELPGLNQNVHAMFVMPLGFGNPLGDMFARLNNSFWLPPLSLEGAGTGWTVYPPLSHSGPSVDLAFHLTSSLLGAINFTNMRGPLFWTALLLLSLPVLAGTLLDRNFNTFEGGDPLYHLFWFFGHPEVYIIPGFGSHSTYKKFGMYASIGLGFVWSHHMYVGLDDRAYFTSATMIAPTGIKFSWLATYGGRPMLAFLFLFTGGTGVLNASDAFHDTYYVVHFHYVLSMGAFSLGYYYWPGLYNLFWFNFPMHFLGGMPRRPYPDAGWNSGSSYQLGPDESNEPH'
p3544
sg123
F0.043529999999999999
sg124
g125
sg33
S'79'
p3545
sg127
g1
(g128
g12
(dp3546
g130
I4
sg131
g132
sg133
g134
sg135
g132
sg136
I01
sg34
g137
sg138
g134
sg139
I0
sg140
I0
sg141
I0
sg142
g134
sg35
g132
sg143
I0
stRp3547
sg145
g146
sg147
F1
sg148
Nsg30
S'KlactA'
p3548
sbasg120
g3043
sg123
F0.13938999999999999
sg124
g125
sg33
S'16'
p3549
sg127
g1
(g128
g12
(dp3550
g130
I8
sg131
g132
sg133
g134
sg135
g132
sg136
I01
sg34
g173
sg138
g134
sg139
I0
sg140
I0
sg141
I0
sg142
g134
sg35
g132
sg143
I0
stRp3551
sg145
g146
sg147
F0.98999999999999999
sg148
Nsg30
S'NoName'
p3552
sbasg120
g3030
sg123
F1.0000000000000001e-05
sg124
g125
sg33
S'19'
p3553
sg127
g1
(g128
g12
(dp3554
g130
I8
sg131
g132
sg133
g134
sg135
g132
sg136
I01
sg34
g173
sg138
g134
sg139
I0
sg140
I0
sg141
I0
sg142
g134
sg35
g132
sg143
I0
stRp3555
sg145
g146
sg147
F1
sg148
Nsg30
S'NoName'
p3556
sbag1
(g2
g3
NtRp3557
(dp3558
g6
g1
(g7
g3
NtRp3559
(dp3560
g10
g1
(g11
g12
(dtRp3561
sg14
g1
(g11
g12
(dtRp3562
sg16
g1
(g11
g12
(dtRp3563
sg18
g1
(g11
g12
(dtRp3564
sg20
g1
(g11
g12
(dtRp3565
sg22
g1
(g11
g12
(dtRp3566
sbsg24
g25
sg26
g27
((lp3567
g33
ag32
ag29
ag30
atRp3568
sg37
(lp3569
g1
(g2
g3
NtRp3570
(dp3571
g6
g1
(g7
g3
NtRp3572
(dp3573
g10
g1
(g11
g12
(dtRp3574
sg14
g1
(g11
g12
(dtRp3575
sg16
g1
(g11
g12
(dtRp3576
sg18
g1
(g11
g12
(dtRp3577
sg20
g1
(g11
g12
(dtRp3578
sg22
g1
(g11
g12
(dtRp3579
sbsg24
S'Huv'
p3580
sg26
g27
((lp3581
g29
ag30
aS'sequence'
p3582
ag32
ag33
aS'species'
p3583
atRp3584
sg37
(lp3585
sg120
g3557
sg121
S'-MITTKDLYSRLELSGINHNSHAMFIMPIGFGNPAGDMFPRLNNSFWLVPVSLEGAGTGWTVYYPLSHSSVSVDLVFHCLSSLLGAINFTNFL-SLFWLALLLLSLPVLVGTLLDRNFNLYEGGDPLYHLFWFFGHPEVYIIPAFGSMSAYSKFGMYASIGLGFVWVHHMFVGLDDRAYFTSATMIAPLGIKFSWLALIGGRPVLAFLVLFLGGTGVLNASDAFHDTYYVVHFHYVLSLGAFGIGYYYWPGLYNLFVVNFPMHYLGGMPRRSYPDSAWNTGASVQLGTDLLPEPH'
p3586
sg123
F3.9441199999999998
sg124
g125
sg33
S'99'
p3587
sg127
g1
(g128
g12
(dp3588
g130
I4
sg131
g132
sg133
g134
sg135
g132
sg136
I01
sg34
g137
sg138
g134
sg139
I0
sg140
I0
sg141
I0
sg142
g134
sg35
g132
sg143
I0
stRp3589
sg145
g146
sg147
F1
sg148
Nsg30
S'HuvarA'
p3590
sbag1
(g2
g3
NtRp3591
(dp3592
g6
g1
(g7
g3
NtRp3593
(dp3594
g10
g1
(g11
g12
(dtRp3595
sg14
g1
(g11
g12
(dtRp3596
sg16
g1
(g11
g12
(dtRp3597
sg18
g1
(g11
g12
(dtRp3598
sg20
g1
(g11
g12
(dtRp3599
sg22
g1
(g11
g12
(dtRp3600
sbsg24
g25
sg26
g27
((lp3601
g33
ag32
ag29
ag30
atRp3602
sg37
(lp3603
g1
(g2
g3
NtRp3604
(dp3605
g6
g1
(g7
g3
NtRp3606
(dp3607
g10
g1
(g11
g12
(dtRp3608
sg14
g1
(g11
g12
(dtRp3609
sg16
g1
(g11
g12
(dtRp3610
sg18
g1
(g11
g12
(dtRp3611
sg20
g1
(g11
g12
(dtRp3612
sg22
g1
(g11
g12
(dtRp3613
sbsg24
g25
sg26
g27
((lp3614
g33
ag32
ag29
ag30
atRp3615
sg37
(lp3616
g1
(g2
g3
NtRp3617
(dp3618
g6
g1
(g7
g3
NtRp3619
(dp3620
g10
g1
(g11
g12
(dtRp3621
sg14
g1
(g11
g12
(dtRp3622
sg16
g1
(g11
g12
(dtRp3623
sg18
g1
(g11
g12
(dtRp3624
sg20
g1
(g11
g12
(dtRp3625
sg22
g1
(g11
g12
(dtRp3626
sbsg24
g25
sg26
g27
((lp3627
g33
ag32
ag29
ag30
atRp3628
sg37
(lp3629
g1
(g2
g3
NtRp3630
(dp3631
g6
g1
(g7
g3
NtRp3632
(dp3633
g10
g1
(g11
g12
(dtRp3634
sg14
g1
(g11
g12
(dtRp3635
sg16
g1
(g11
g12
(dtRp3636
sg18
g1
(g11
g12
(dtRp3637
sg20
g1
(g11
g12
(dtRp3638
sg22
g1
(g11
g12
(dtRp3639
sbsg24
S'Sse'
p3640
sg26
g27
((lp3641
g29
ag30
aS'sequence'
p3642
ag32
ag33
aS'species'
p3643
atRp3644
sg37
(lp3645
sg120
g3617
sg121
S'RWLSTKDMYSRMELPGLNQNVHAMFAMPLGFGNPMGDMFPRINSGFWLPMLSLEGAGTGWTVYPPLSHSGPSVDLAFHLTSSLLGAINFTNMRGPLFWTALLLLSLPVLAGTLLDRNFNTFEGGDPFYHAFWFFGHPEVYIIPGFGSHSTYKKFGMYASIGLGFVWSHHMYVGLDDRAYFTSATMIAPTGIKFSWLALYGGRPMMAFLFLFTGGTGVLNASDAFHDTYYVVHFHYVLSMGAFSLGYYYWPGLYNLFWFNFPMHFLGGMPRRPYPDAGWNSGSSYQIGPDESNEPH'
p3646
sg123
F0.29805999999999999
sg124
g125
sg33
S'181'
p3647
sg127
g1
(g128
g12
(dp3648
g130
I4
sg131
g132
sg133
g134
sg135
g132
sg136
I01
sg34
g137
sg138
g134
sg139
I0
sg140
I0
sg141
I0
sg142
g134
sg35
g132
sg143
I0
stRp3649
sg145
g146
sg147
F1
sg148
Nsg30
S'SservA'
p3650
sbag1
(g2
g3
NtRp3651
(dp3652
g6
g1
(g7
g3
NtRp3653
(dp3654
g10
g1
(g11
g12
(dtRp3655
sg14
g1
(g11
g12
(dtRp3656
sg16
g1
(g11
g12
(dtRp3657
sg18
g1
(g11
g12
(dtRp3658
sg20
g1
(g11
g12
(dtRp3659
sg22
g1
(g11
g12
(dtRp3660
sbsg24
S'Sca'
p3661
sg26
g27
((lp3662
g29
ag30
aS'sequence'
p3663
ag32
ag33
aS'species'
p3664
atRp3665
sg37
(lp3666
sg120
g3617
sg121
S'RWLSTKDLYSRLELPGLNQNVHAMFVMPLGFGNPMGDTFPRINNGFWLPMLSLEGAGTGWTVYPPLAHSGPSVDLAFHMTSSLLGAINFTNMRGPLFWTALLLLTLPVLAGTLLDRNFNTFEGGDPLYHLFWFFGHPEVYIIPGFGSHSTYKKFGMYASIGLGLVWSHHMYVGLDDRAYFTSATMIAPTGIKFSWLATYGGRPMLAFLFLFTGGTGVLNASDAFHDLYYVVHFHYVLSMGAFSLGYYYWPGLYNLFWFNFPMHFLGGMPRRPYPDAGWNSGASYQLGPDESNEPH'
p3667
sg123
F0.30890000000000001
sg124
g125
sg33
S'6'
sg127
g1
(g128
g12
(dp3668
g130
I4
sg131
g132
sg133
g134
sg135
g132
sg136
I01
sg34
g137
sg138
g134
sg139
I0
sg140
I0
sg141
I0
sg142
g134
sg35
g132
sg143
I0
stRp3669
sg145
g146
sg147
F1
sg148
Nsg30
S'ScastA'
p3670
sbasg120
g3604
sg123
F0.072319999999999995
sg124
g125
sg33
S'74'
p3671
sg127
g1
(g128
g12
(dp3672
g130
I8
sg131
g132
sg133
g134
sg135
g132
sg136
I01
sg34
g173
sg138
g134
sg139
I0
sg140
I0
sg141
I0
sg142
g134
sg35
g132
sg143
I0
stRp3673
sg145
g146
sg147
F0.98999999999999999
sg148
Nsg30
S'NoName'
p3674
sbag1
(g2
g3
NtRp3675
(dp3676
g6
g1
(g7
g3
NtRp3677
(dp3678
g10
g1
(g11
g12
(dtRp3679
sg14
g1
(g11
g12
(dtRp3680
sg16
g1
(g11
g12
(dtRp3681
sg18
g1
(g11
g12
(dtRp3682
sg20
g1
(g11
g12
(dtRp3683
sg22
g1
(g11
g12
(dtRp3684
sbsg24
g25
sg26
g27
((lp3685
g33
ag32
ag29
ag30
atRp3686
sg37
(lp3687
g1
(g2
g3
NtRp3688
(dp3689
g6
g1
(g7
g3
NtRp3690
(dp3691
g10
g1
(g11
g12
(dtRp3692
sg14
g1
(g11
g12
(dtRp3693
sg16
g1
(g11
g12
(dtRp3694
sg18
g1
(g11
g12
(dtRp3695
sg20
g1
(g11
g12
(dtRp3696
sg22
g1
(g11
g12
(dtRp3697
sbsg24
S'Spa'
p3698
sg26
g27
((lp3699
g29
ag30
aS'sequence'
p3700
ag32
ag33
aS'species'
p3701
atRp3702
sg37
(lp3703
sg120
g3675
sg121
S'RWLSTKDLYSRLELPGLNQNVHAMFVMPLGFGNPMGDTFPRINNAFWLPMLSLEGAGTGWTVYPPLSHSGPSVDLAFHLTSSLLGAINFTNMRGPLFWTALLLLSLPVLAGTLLDRNFNTFEGGDPLYHLFWFFGHPEVYIIPGFGSHSTYKKFGMYASIGLGFVWSHHMYVGLDDRAYFLSATMIAPTGIKFSWLATYGGRPMLAFLFLFTGGTGVLNASDAFHDTYYVVHFHYVLSMGAFSLGYYYWPGLYNLFWFNFPMHFLGGMPRRPYPDAGWNSGSSYQLGPDESNEPH'
p3704
sg123
F0.029780000000000001
sg124
g125
sg33
S'111'
p3705
sg127
g1
(g128
g12
(dp3706
g130
I4
sg131
g132
sg133
g134
sg135
g132
sg136
I01
sg34
g137
sg138
g134
sg139
I0
sg140
I0
sg141
I0
sg142
g134
sg35
g132
sg143
I0
stRp3707
sg145
g146
sg147
F1
sg148
Nsg30
S'SpastA'
p3708
sbag1
(g2
g3
NtRp3709
(dp3710
g6
g1
(g7
g3
NtRp3711
(dp3712
g10
g1
(g11
g12
(dtRp3713
sg14
g1
(g11
g12
(dtRp3714
sg16
g1
(g11
g12
(dtRp3715
sg18
g1
(g11
g12
(dtRp3716
sg20
g1
(g11
g12
(dtRp3717
sg22
g1
(g11
g12
(dtRp3718
sbsg24
g25
sg26
g27
((lp3719
g33
ag32
ag29
ag30
atRp3720
sg37
(lp3721
g1
(g2
g3
NtRp3722
(dp3723
g6
g1
(g7
g3
NtRp3724
(dp3725
g10
g1
(g11
g12
(dtRp3726
sg14
g1
(g11
g12
(dtRp3727
sg16
g1
(g11
g12
(dtRp3728
sg18
g1
(g11
g12
(dtRp3729
sg20
g1
(g11
g12
(dtRp3730
sg22
g1
(g11
g12
(dtRp3731
sbsg24
g25
sg26
g27
((lp3732
g33
ag32
ag29
ag30
atRp3733
sg37
(lp3734
g1
(g2
g3
NtRp3735
(dp3736
g6
g1
(g7
g3
NtRp3737
(dp3738
g10
g1
(g11
g12
(dtRp3739
sg14
g1
(g11
g12
(dtRp3740
sg16
g1
(g11
g12
(dtRp3741
sg18
g1
(g11
g12
(dtRp3742
sg20
g1
(g11
g12
(dtRp3743
sg22
g1
(g11
g12
(dtRp3744
sbsg24
S'Sce'
p3745
sg26
g27
((lp3746
g29
ag30
aS'sequence'
p3747
ag32
ag33
aS'species'
p3748
atRp3749
sg37
(lp3750
sg120
g3722
sg121
S'RWLSTKDLYSRLELPGLNQNVHAMFVMPLGFGNPMGDTFPRINNAFWLPMLSLEGAGTGWTVYPPLSHSGPSVDLAFHLTSSLLGAINFTNMRGPLFWTALLLLSLPVLAGTLLDRNFNTFEGGDPLYHLFWFFGHPEVYIIPGFGSHSTYKKFGMYASIGLGFVWSHHMYVGLDDRAYFLSALMIAPTGIKFSWLALYGGRPMLAFLFLFTGGTGVLNASDAFHDTYYVVHFHYVLSMGAFSLGYYYWPGLYNLFWFNFPMHFLGGMPRRPYPDAGWNSGSSYQLGPDESNEPH'
p3751
sg123
F0.0038700000000000002
sg124
g125
sg33
S'44'
p3752
sg127
g1
(g128
g12
(dp3753
g130
I4
sg131
g132
sg133
g134
sg135
g132
sg136
I01
sg34
g137
sg138
g134
sg139
I0
sg140
I0
sg141
I0
sg142
g134
sg35
g132
sg143
I0
stRp3754
sg145
g146
sg147
F1
sg148
Nsg30
S'ScereD'
p3755
sbag1
(g2
g3
NtRp3756
(dp3757
g6
g1
(g7
g3
NtRp3758
(dp3759
g10
g1
(g11
g12
(dtRp3760
sg14
g1
(g11
g12
(dtRp3761
sg16
g1
(g11
g12
(dtRp3762
sg18
g1
(g11
g12
(dtRp3763
sg20
g1
(g11
g12
(dtRp3764
sg22
g1
(g11
g12
(dtRp3765
sbsg24
g25
sg26
g27
((lp3766
g33
ag32
ag29
ag30
atRp3767
sg37
(lp3768
g1
(g2
g3
NtRp3769
(dp3770
g6
g1
(g7
g3
NtRp3771
(dp3772
g10
g1
(g11
g12
(dtRp3773
sg14
g1
(g11
g12
(dtRp3774
sg16
g1
(g11
g12
(dtRp3775
sg18
g1
(g11
g12
(dtRp3776
sg20
g1
(g11
g12
(dtRp3777
sg22
g1
(g11
g12
(dtRp3778
sbsg24
S'Sce'
p3779
sg26
g27
((lp3780
g29
ag30
aS'sequence'
p3781
ag32
ag33
aS'species'
p3782
atRp3783
sg37
(lp3784
sg120
g3756
sg121
S'RWLSTKDLYSRLELPGLNQNVHAMFVMPLGFGNPMGDTFPRINNAFWLPMLSLEGAGTGWTVYPPLSHSGPSVDLAFHLTSSLLGAINFTNMRGPLFWTALLLLSLPVLAGTLLDRNFNTFEGGDPLYHLFWFFGHPEVYIIPGFGSHSTYKKFGMYASIGLGFVWSHHMYVGLDDRAYFLSALMIAPTGIKFSWLALYGGRPMLAFLFLFTGGTGVLNASDAFHDTYYVVHFHYVLSMGAFSLGYYYWPGLYNLFWFNFPMHFLGGMPRRPYPDAGWNSGSSYQLGPDESNEPH'
p3785
sg123
F0.0075900000000000004
sg124
g125
sg33
S'119'
p3786
sg127
g1
(g128
g12
(dp3787
g130
I4
sg131
g132
sg133
g134
sg135
g132
sg136
I01
sg34
g137
sg138
g134
sg139
I0
sg140
I0
sg141
I0
sg142
g134
sg35
g132
sg143
I0
stRp3788
sg145
g146
sg147
F1
sg148
Nsg30
S'ScereE'
p3789
sbag1
(g2
g3
NtRp3790
(dp3791
g6
g1
(g7
g3
NtRp3792
(dp3793
g10
g1
(g11
g12
(dtRp3794
sg14
g1
(g11
g12
(dtRp3795
sg16
g1
(g11
g12
(dtRp3796
sg18
g1
(g11
g12
(dtRp3797
sg20
g1
(g11
g12
(dtRp3798
sg22
g1
(g11
g12
(dtRp3799
sbsg24
g25
sg26
g27
((lp3800
g33
ag32
ag29
ag30
atRp3801
sg37
(lp3802
g1
(g2
g3
NtRp3803
(dp3804
g6
g1
(g7
g3
NtRp3805
(dp3806
g10
g1
(g11
g12
(dtRp3807
sg14
g1
(g11
g12
(dtRp3808
sg16
g1
(g11
g12
(dtRp3809
sg18
g1
(g11
g12
(dtRp3810
sg20
g1
(g11
g12
(dtRp3811
sg22
g1
(g11
g12
(dtRp3812
sbsg24
S'Sce'
p3813
sg26
g27
((lp3814
g29
ag30
aS'sequence'
p3815
ag32
ag33
aS'species'
p3816
atRp3817
sg37
(lp3818
sg120
g3790
sg121
S'RWLSTKDLYSRLELPGLNQNVHAMFVMPLGFGNPMGDTFPRINNAFWLPMLSLEGAGTGWTVYPPLSHSGPSVDLAFHLTSSLLGAINFTNMRGPLFWTALLLLSLPVLAGTLLDRNFNTFEGGDPLYHLFWFFGHPEVYIIPGFGSHSTYKKFGMYASIGLGFVWSHHMYVGLDDRAYFLSALMIAPTGIKFSWLALHGGRPMLAFLFLFTGGTGVLNASDAFHDTYYVVHFHYVLSMGAFSLGYYYWPGLYNLFWFNFPMHFLGGMPRRPYPDAGWNSGSSYQLGPDESNEPH'
p3819
sg123
F0.0053899999999999998
sg124
g125
sg33
S'0'
sg127
g1
(g128
g12
(dp3820
g130
I4
sg131
g132
sg133
g134
sg135
g132
sg136
I01
sg34
g137
sg138
g134
sg139
I0
sg140
I0
sg141
I0
sg142
g134
sg35
g132
sg143
I0
stRp3821
sg145
g146
sg147
F1
sg148
Nsg30
S'ScereC'
p3822
sbag1
(g2
g3
NtRp3823
(dp3824
g6
g1
(g7
g3
NtRp3825
(dp3826
g10
g1
(g11
g12
(dtRp3827
sg14
g1
(g11
g12
(dtRp3828
sg16
g1
(g11
g12
(dtRp3829
sg18
g1
(g11
g12
(dtRp3830
sg20
g1
(g11
g12
(dtRp3831
sg22
g1
(g11
g12
(dtRp3832
sbsg24
S'Sce'
p3833
sg26
g27
((lp3834
g29
ag30
aS'sequence'
p3835
ag32
ag33
aS'species'
p3836
atRp3837
sg37
(lp3838
sg120
g3790
sg121
S'RWLSTKDLYSRLELPGLNQNVHAMFVMPLGFGNPMGDTFPRINNAFWLPMLSLEGAGTGWTVYPPLSHSGPSVDLAFHLTSSLLGAINFTNMRGPLFWTALLLLSLPVLAGTLLDRNFNTFEGGDPLYHLFWFFGHPEVYIIPGFGSHSTYKKFGMYASIGLGFVWSHHMYVGLDDRAYFLSALMIAPTGIKFSWLALYGGRPMLAFLFLFTGGTGVLNASDAFHDTYYVVHFHYVLSMGAFSLGYYYWPGLYNLFWFNFPMHFLGGMPRRPYPDAGWNSGSSYQLGPDESNEPH'
p3839
sg123
F0.0066400000000000001
sg124
g125
sg33
S'52'
p3840
sg127
g1
(g128
g12
(dp3841
g130
I4
sg131
g132
sg133
g134
sg135
g132
sg136
I01
sg34
g137
sg138
g134
sg139
I0
sg140
I0
sg141
I0
sg142
g134
sg35
g132
sg143
I0
stRp3842
sg145
g146
sg147
F1
sg148
Nsg30
S'ScereA'
p3843
sbasg120
g3756
sg123
F0.00596
sg124
g125
sg33
S'97'
p3844
sg127
g1
(g128
g12
(dp3845
g130
I8
sg131
g132
sg133
g134
sg135
g132
sg136
I01
sg34
g173
sg138
g134
sg139
I0
sg140
I0
sg141
I0
sg142
g134
sg35
g132
sg143
I0
stRp3846
sg145
g146
sg147
F0.98999999999999999
sg148
Nsg30
S'NoName'
p3847
sbasg120
g3722
sg123
F0.0050600000000000003
sg124
g125
sg33
S'218'
p3848
sg127
g1
(g128
g12
(dp3849
g130
I8
sg131
g132
sg133
g134
sg135
g132
sg136
I01
sg34
g173
sg138
g134
sg139
I0
sg140
I0
sg141
I0
sg142
g134
sg35
g132
sg143
I0
stRp3850
sg145
g146
sg147
F0.66000000000000003
sg148
Nsg30
S'NoName'
p3851
sbasg120
g3709
sg123
F0.017850000000000001
sg124
g125
sg33
S'166'
p3852
sg127
g1
(g128
g12
(dp3853
g130
I8
sg131
g132
sg133
g134
sg135
g132
sg136
I01
sg34
g173
sg138
g134
sg139
I0
sg140
I0
sg141
I0
sg142
g134
sg35
g132
sg143
I0
stRp3854
sg145
g146
sg147
F0.89000000000000001
sg148
Nsg30
S'NoName'
p3855
sbag1
(g2
g3
NtRp3856
(dp3857
g6
g1
(g7
g3
NtRp3858
(dp3859
g10
g1
(g11
g12
(dtRp3860
sg14
g1
(g11
g12
(dtRp3861
sg16
g1
(g11
g12
(dtRp3862
sg18
g1
(g11
g12
(dtRp3863
sg20
g1
(g11
g12
(dtRp3864
sg22
g1
(g11
g12
(dtRp3865
sbsg24
S'Sar'
p3866
sg26
g27
((lp3867
g29
ag30
aS'sequence'
p3868
ag32
ag33
aS'species'
p3869
atRp3870
sg37
(lp3871
sg120
g3709
sg121
S'RWLSTKDLYSRLELPGLNQNVHAMFVMPLGFGNPMGDTFPRINNAFWLPMLSLEGAGTGWTVYPPLSHSGPSVDLAFHLTSSLLGAINFTNMRGPLFWTALLLLSLPVLAGTLLDRNFNTFEGGDPLYHLFWFFGHPEVYIIPGFGSHSTYKKFGMYASIGLGFVWSHHMYVGLDDRAYFLSALMIAPTGIKFSWLALYGGRPMLAFLFLFTGGTGVLNASDAFHDTYYVVHFHYVLSMGAFSLGYYYWPGLYNLFWFNFPMHFLGGMPRRPYPDAGWNSGSSYQLGPDESNEPH'
p3872
sg123
F0.047230000000000001
sg124
g125
sg33
S'105'
p3873
sg127
g1
(g128
g12
(dp3874
g130
I4
sg131
g132
sg133
g134
sg135
g132
sg136
I01
sg34
g137
sg138
g134
sg139
I0
sg140
I0
sg141
I0
sg142
g134
sg35
g132
sg143
I0
stRp3875
sg145
g146
sg147
F1
sg148
Nsg30
S'SarboA'
p3876
sbasg120
g3675
sg123
F0.023619999999999999
sg124
g125
sg33
S'59'
p3877
sg127
g1
(g128
g12
(dp3878
g130
I8
sg131
g132
sg133
g134
sg135
g132
sg136
I01
sg34
g173
sg138
g134
sg139
I0
sg140
I0
sg141
I0
sg142
g134
sg35
g132
sg143
I0
stRp3879
sg145
g146
sg147
F0.92000000000000004
sg148
Nsg30
S'NoName'
p3880
sbasg120
g3604
sg123
F0.18547
sg124
g125
sg33
S'128'
p3881
sg127
g1
(g128
g12
(dp3882
g130
I8
sg131
g132
sg133
g134
sg135
g132
sg136
I01
sg34
g173
sg138
g134
sg139
I0
sg140
I0
sg141
I0
sg142
g134
sg35
g132
sg143
I0
stRp3883
sg145
g146
sg147
F0.98999999999999999
sg148
Nsg30
S'NoName'
p3884
sbasg120
g3591
sg123
F0.03594
sg124
g125
sg33
S'21'
p3885
sg127
g1
(g128
g12
(dp3886
g130
I8
sg131
g132
sg133
g134
sg135
g132
sg136
I01
sg34
g173
sg138
g134
sg139
I0
sg140
I0
sg141
I0
sg142
g134
sg35
g132
sg143
I0
stRp3887
sg145
g146
sg147
F0.98999999999999999
sg148
Nsg30
S'NoName'
p3888
sbag1
(g2
g3
NtRp3889
(dp3890
g6
g1
(g7
g3
NtRp3891
(dp3892
g10
g1
(g11
g12
(dtRp3893
sg14
g1
(g11
g12
(dtRp3894
sg16
g1
(g11
g12
(dtRp3895
sg18
g1
(g11
g12
(dtRp3896
sg20
g1
(g11
g12
(dtRp3897
sg22
g1
(g11
g12
(dtRp3898
sbsg24
g25
sg26
g27
((lp3899
g33
ag32
ag29
ag30
atRp3900
sg37
(lp3901
g1
(g2
g3
NtRp3902
(dp3903
g6
g1
(g7
g3
NtRp3904
(dp3905
g10
g1
(g11
g12
(dtRp3906
sg14
g1
(g11
g12
(dtRp3907
sg16
g1
(g11
g12
(dtRp3908
sg18
g1
(g11
g12
(dtRp3909
sg20
g1
(g11
g12
(dtRp3910
sg22
g1
(g11
g12
(dtRp3911
sbsg24
g25
sg26
g27
((lp3912
g33
ag32
ag29
ag30
atRp3913
sg37
(lp3914
g1
(g2
g3
NtRp3915
(dp3916
g6
g1
(g7
g3
NtRp3917
(dp3918
g10
g1
(g11
g12
(dtRp3919
sg14
g1
(g11
g12
(dtRp3920
sg16
g1
(g11
g12
(dtRp3921
sg18
g1
(g11
g12
(dtRp3922
sg20
g1
(g11
g12
(dtRp3923
sg22
g1
(g11
g12
(dtRp3924
sbsg24
S'Nde'
p3925
sg26
g27
((lp3926
g29
ag30
aS'sequence'
p3927
ag32
ag33
aS'species'
p3928
atRp3929
sg37
(lp3930
sg120
g3902
sg121
S'RWLSTKDLYSRLELPGLNQNVHAMFVMPLGFGNPMGDMFPRLNNGFWIVPLSLEGAGTGWTVYPPLSHSGPSVDLAFHMTSSLLGAINFTNMRGPLFWTALLLLSLPVFAGTLLDRNFNTFEGGDPLYHLFWFFGHPEVYIIPGFGSHSTYKKFGMYASIGLGFVWSHHMYVGLDDRAYFTSATMIAPTGIKFSWLATYGGRPMLAFLFLFTGGTGVLNASDAFHDTYYVVHFHYVLSMGAFSTGYYYWPGLYNLFWFNFPMHFLGGMPRRPYPDAGWNSGSSYQFGPDESNEPH'
p3931
sg123
F0.063509999999999997
sg124
g125
sg33
S'191'
p3932
sg127
g1
(g128
g12
(dp3933
g130
I4
sg131
g132
sg133
g134
sg135
g132
sg136
I01
sg34
g137
sg138
g134
sg139
I0
sg140
I0
sg141
I0
sg142
g134
sg35
g132
sg143
I0
stRp3934
sg145
g146
sg147
F1
sg148
Nsg30
S'NdelpA'
p3935
sbag1
(g2
g3
NtRp3936
(dp3937
g6
g1
(g7
g3
NtRp3938
(dp3939
g10
g1
(g11
g12
(dtRp3940
sg14
g1
(g11
g12
(dtRp3941
sg16
g1
(g11
g12
(dtRp3942
sg18
g1
(g11
g12
(dtRp3943
sg20
g1
(g11
g12
(dtRp3944
sg22
g1
(g11
g12
(dtRp3945
sbsg24
S'Cgl'
p3946
sg26
g27
((lp3947
g29
ag30
aS'sequence'
p3948
ag32
ag33
aS'species'
p3949
atRp3950
sg37
(lp3951
sg120
g3902
sg121
S'RWLSTKDLYSRLELPGLNQNVHAMFVMPLGFGNPMGDMFPRLNNGFWIVPLSLEGAGTGWTVYPPLSHSGPSVDLAFHLTSSLLGSINFTNMRGPLFWTALLLLSLPVLAGTLLDRNFNTFEGGDPLYHLFWFFGHPEVYIIPGFGSHSTYKKFGMYASIGLGFVWSHHMYVGLDDRAYFTSATMIAPTGIKFSWLATYGGRPMLAFLFLFTGGTGVLNASDAFHDTYYVVHFHYVLSMGAFSTGYYYWPGLYNLFWFNFPMHFLGGMPRRPYPDAGWNSGSSYQFGPDESNEPH'
p3952
sg123
F0.03882
sg124
g125
sg33
S'123'
p3953
sg127
g1
(g128
g12
(dp3954
g130
I4
sg131
g132
sg133
g134
sg135
g132
sg136
I01
sg34
g137
sg138
g134
sg139
I0
sg140
I0
sg141
I0
sg142
g134
sg35
g132
sg143
I0
stRp3955
sg145
g146
sg147
F1
sg148
Nsg30
S'CglabA'
p3956
sbasg120
g3889
sg123
F0.16661999999999999
sg124
g125
sg33
S'159'
p3957
sg127
g1
(g128
g12
(dp3958
g130
I8
sg131
g132
sg133
g134
sg135
g132
sg136
I01
sg34
g173
sg138
g134
sg139
I0
sg140
I0
sg141
I0
sg142
g134
sg35
g132
sg143
I0
stRp3959
sg145
g146
sg147
F0.98999999999999999
sg148
Nsg30
S'NoName'
p3960
sbag1
(g2
g3
NtRp3961
(dp3962
g6
g1
(g7
g3
NtRp3963
(dp3964
g10
g1
(g11
g12
(dtRp3965
sg14
g1
(g11
g12
(dtRp3966
sg16
g1
(g11
g12
(dtRp3967
sg18
g1
(g11
g12
(dtRp3968
sg20
g1
(g11
g12
(dtRp3969
sg22
g1
(g11
g12
(dtRp3970
sbsg24
g25
sg26
g27
((lp3971
g33
ag32
ag29
ag30
atRp3972
sg37
(lp3973
g1
(g2
g3
NtRp3974
(dp3975
g6
g1
(g7
g3
NtRp3976
(dp3977
g10
g1
(g11
g12
(dtRp3978
sg14
g1
(g11
g12
(dtRp3979
sg16
g1
(g11
g12
(dtRp3980
sg18
g1
(g11
g12
(dtRp3981
sg20
g1
(g11
g12
(dtRp3982
sg22
g1
(g11
g12
(dtRp3983
sbsg24
S'Nba'
p3984
sg26
g27
((lp3985
g29
ag30
aS'sequence'
p3986
ag32
ag33
aS'species'
p3987
atRp3988
sg37
(lp3989
sg120
g3961
sg121
S'RWLSTKDLYSRMELPGLNQNVHAMFVMPLGFGNPMGDMFPRLNNGFWMPALSLEGAGTGWTVYPPLSHSGPSVDLAFHLSSSLLGAINFTNMRGPLFWTALLLFSLPVFAGTLLDRNFNTFEGGDPLYHLFWFFGHPEVYIIPGFGSHSTYKKFGMYASIGLGFVWSHHMYVGLDDRAYFTSATMIAPTGIKFSWLALYGGRPMLAFLFLFTGGTGVLNASDAFHDTYYVVHFHYVLSMGAFSVAYYYWPGLYNLFWFNFPMHFLGGMPRRPYPDAGWNSGSSYQLGPDESNEPH'
p3990
sg123
F0.29926999999999998
sg124
g125
sg33
S'93'
p3991
sg127
g1
(g128
g12
(dp3992
g130
I4
sg131
g132
sg133
g134
sg135
g132
sg136
I01
sg34
g137
sg138
g134
sg139
I0
sg140
I0
sg141
I0
sg142
g134
sg35
g132
sg143
I0
stRp3993
sg145
g146
sg147
F1
sg148
Nsg30
S'NbaciA'
p3994
sbag1
(g2
g3
NtRp3995
(dp3996
g6
g1
(g7
g3
NtRp3997
(dp3998
g10
g1
(g11
g12
(dtRp3999
sg14
g1
(g11
g12
(dtRp4000
sg16
g1
(g11
g12
(dtRp4001
sg18
g1
(g11
g12
(dtRp4002
sg20
g1
(g11
g12
(dtRp4003
sg22
g1
(g11
g12
(dtRp4004
sbsg24
S'Cca'
p4005
sg26
g27
((lp4006
g29
ag30
aS'sequence'
p4007
ag32
ag33
aS'species'
p4008
atRp4009
sg37
(lp4010
sg120
g3961
sg121
S'RWLSTKDLYSRLELPGLNQNVHAMFVMPLGIGNPMGDTFPRLNNGFWLPPLSLEGAGTGWTVYPPLSHSGPSVDLAFHLTSSLLGAINFTNMRGPLFWTALLLFSLPVFAGTLLDRNFNTFEGGDPLYHVFWFFGHPEVYIIPGFGSHSTYKKFGMYASIGLGFVWSHHMYVGLDDRAYFTSALMIAPTGIKFSWLATFGGRPMLAFLFLFTGGTGVLNASDAFHDTYYVVHFHYVLSMGAFSLGYYYWPGLYNLFWFNFPMHFLGGMPRRPYPDAGWNSGSSYQLGPDESNEPH'
p4011
sg123
F0.26266
sg124
g125
sg33
S'63'
p4012
sg127
g1
(g128
g12
(dp4013
g130
I4
sg131
g132
sg133
g134
sg135
g132
sg136
I01
sg34
g137
sg138
g134
sg139
I0
sg140
I0
sg141
I0
sg142
g134
sg35
g132
sg143
I0
stRp4014
sg145
g146
sg147
F1
sg148
Nsg30
S'CcastA'
p4015
sbasg120
g3889
sg123
F0.15296999999999999
sg124
g125
sg33
S'211'
p4016
sg127
g1
(g128
g12
(dp4017
g130
I8
sg131
g132
sg133
g134
sg135
g132
sg136
I01
sg34
g173
sg138
g134
sg139
I0
sg140
I0
sg141
I0
sg142
g134
sg35
g132
sg143
I0
stRp4018
sg145
g146
sg147
F0.98999999999999999
sg148
Nsg30
S'NoName'
p4019
sbasg120
g3591
sg123
F0.042560000000000001
sg124
g125
sg33
S'174'
p4020
sg127
g1
(g128
g12
(dp4021
g130
I8
sg131
g132
sg133
g134
sg135
g132
sg136
I01
sg34
g173
sg138
g134
sg139
I0
sg140
I0
sg141
I0
sg142
g134
sg35
g132
sg143
I0
stRp4022
sg145
g146
sg147
F0.84999999999999998
sg148
Nsg30
S'NoName'
p4023
sbasg120
g3557
sg123
F0.094020000000000006
sg124
g125
sg33
S'88'
p4024
sg127
g1
(g128
g12
(dp4025
g130
I8
sg131
g132
sg133
g134
sg135
g132
sg136
I01
sg34
g173
sg138
g134
sg139
I0
sg140
I0
sg141
I0
sg142
g134
sg35
g132
sg143
I0
stRp4026
sg145
g146
sg147
F0.55000000000000004
sg148
Nsg30
S'NoName'
p4027
sbasg120
g3030
sg123
F0.11952
sg124
g125
sg33
S'57'
p4028
sg127
g1
(g128
g12
(dp4029
g130
I8
sg131
g132
sg133
g134
sg135
g132
sg136
I01
sg34
g173
sg138
g134
sg139
I0
sg140
I0
sg141
I0
sg142
g134
sg35
g132
sg143
I0
stRp4030
sg145
g146
sg147
F0.69999999999999996
sg148
Nsg30
S'NoName'
p4031
sbasg120
g3017
sg123
F0.029839999999999998
sg124
g125
sg33
S'9'
sg127
g1
(g128
g12
(dp4032
g130
I8
sg131
g132
sg133
g134
sg135
g132
sg136
I01
sg34
g173
sg138
g134
sg139
I0
sg140
I0
sg141
I0
sg142
g134
sg35
g132
sg143
I0
stRp4033
sg145
g146
sg147
F0.82999999999999996
sg148
Nsg30
S'NoName'
p4034
sbag1
(g2
g3
NtRp4035
(dp4036
g6
g1
(g7
g3
NtRp4037
(dp4038
g10
g1
(g11
g12
(dtRp4039
sg14
g1
(g11
g12
(dtRp4040
sg16
g1
(g11
g12
(dtRp4041
sg18
g1
(g11
g12
(dtRp4042
sg20
g1
(g11
g12
(dtRp4043
sg22
g1
(g11
g12
(dtRp4044
sbsg24
g25
sg26
g27
((lp4045
g33
ag32
ag29
ag30
atRp4046
sg37
(lp4047
g1
(g2
g3
NtRp4048
(dp4049
g6
g1
(g7
g3
NtRp4050
(dp4051
g10
g1
(g11
g12
(dtRp4052
sg14
g1
(g11
g12
(dtRp4053
sg16
g1
(g11
g12
(dtRp4054
sg18
g1
(g11
g12
(dtRp4055
sg20
g1
(g11
g12
(dtRp4056
sg22
g1
(g11
g12
(dtRp4057
sbsg24
S'Aac'
p4058
sg26
g27
((lp4059
g29
ag30
aS'sequence'
p4060
ag32
ag33
aS'species'
p4061
atRp4062
sg37
(lp4063
sg120
g4035
sg121
S'RWLSTKDLYSRMELPGLQQNVHLMFVMPLGFGNPMGDMFARLNNSFWLPPLSMEGLGTGWTVYPPLAHSGASVDLAFHLTSSLLGLINFTNMRGPLFWTAMLLMSLPVLAGTLLDRNFNTFEGGDPLYHLFWFFGHPEVYIIPLFGSHSTYKKFGMYASIGLGFVWSHHMYVGLDDRAYFTSLTMILPTSIKFSWLLTYGGRPMLAFLFLFTGGTGVLNLSDLFHDTYYVVHFHYVLSLGAFSMGYYYWPGLYNLFWFNFPMHFLGGMPRRPYPDLGWNSGSSYQLGPDESNEPH'
p4064
sg123
F0.028920000000000001
sg124
g125
sg33
S'7'
sg127
g1
(g128
g12
(dp4065
g130
I4
sg131
g132
sg133
g134
sg135
g132
sg136
I01
sg34
g137
sg138
g134
sg139
I0
sg140
I0
sg141
I0
sg142
g134
sg35
g132
sg143
I0
stRp4066
sg145
g146
sg147
F1
sg148
Nsg30
S'AacerA'
p4067
sbag1
(g2
g3
NtRp4068
(dp4069
g6
g1
(g7
g3
NtRp4070
(dp4071
g10
g1
(g11
g12
(dtRp4072
sg14
g1
(g11
g12
(dtRp4073
sg16
g1
(g11
g12
(dtRp4074
sg18
g1
(g11
g12
(dtRp4075
sg20
g1
(g11
g12
(dtRp4076
sg22
g1
(g11
g12
(dtRp4077
sbsg24
g25
sg26
g27
((lp4078
g33
ag32
ag29
ag30
atRp4079
sg37
(lp4080
g1
(g2
g3
NtRp4081
(dp4082
g6
g1
(g7
g3
NtRp4083
(dp4084
g10
g1
(g11
g12
(dtRp4085
sg14
g1
(g11
g12
(dtRp4086
sg16
g1
(g11
g12
(dtRp4087
sg18
g1
(g11
g12
(dtRp4088
sg20
g1
(g11
g12
(dtRp4089
sg22
g1
(g11
g12
(dtRp4090
sbsg24
S'Ago'
p4091
sg26
g27
((lp4092
g29
ag30
aS'sequence'
p4093
ag32
ag33
aS'species'
p4094
atRp4095
sg37
(lp4096
sg120
g4068
sg121
S'RWLSTKDLYSRMELPGLQQNVHLMFVMPLGFGNPMGDMFARLNNSFWLPPLSMEGLGTGWTVYPPLSHSGASVDLAFHLTSSLLGLINFTNMRGPLFWTAMLLMSLPVLAGTLLDRNFNTFEGGDPLYHLFWFFGHPEVYIIPLFGSHSTYKKFGMYLSISLGFVWSHHMYVGLDDRAYFTSATMILPTSIKFSWLLTYGGRPMLLFLFLFTGGTGVLNLSDAFHDTYYVVHFHYVLSLGAFSMGYYYWPGLYNLFWFNFPMHFLGGMPRRPYPDLGWNSGSSYQLGPDESNEPH'
p4097
sg123
F0.00088000000000000003
sg124
g125
sg33
S'12'
p4098
sg127
g1
(g128
g12
(dp4099
g130
I4
sg131
g132
sg133
g134
sg135
g132
sg136
I01
sg34
g137
sg138
g134
sg139
I0
sg140
I0
sg141
I0
sg142
g134
sg35
g132
sg143
I0
stRp4100
sg145
g146
sg147
F1
sg148
Nsg30
S'AgossB'
p4101
sbag1
(g2
g3
NtRp4102
(dp4103
g6
g1
(g7
g3
NtRp4104
(dp4105
g10
g1
(g11
g12
(dtRp4106
sg14
g1
(g11
g12
(dtRp4107
sg16
g1
(g11
g12
(dtRp4108
sg18
g1
(g11
g12
(dtRp4109
sg20
g1
(g11
g12
(dtRp4110
sg22
g1
(g11
g12
(dtRp4111
sbsg24
S'Ago'
p4112
sg26
g27
((lp4113
g29
ag30
aS'sequence'
p4114
ag32
ag33
aS'species'
p4115
atRp4116
sg37
(lp4117
sg120
g4068
sg121
S'RWLSTKDLYSRMELPGLQQNVHLMFVMPLGFGNPMGDMFARLNNSFWLPPLSMEGLGTGWTVYPPLSHSGASVDLAFHLTSSLLGLINFTNMRGPLFWTAMLLMSLPVLAGTLLDRNFNTFEGGDPLYHLFWFFGHPEVYIIPLFGSHSTYKKFGMYLSISLGFVWSHHMYVGLDDRAYFTSATMILPTSIKFSWLLTYGGRPMLLFLFLFTGGTGVLNLSDAFHDTYYVVHFHYVLSLGAFSMGYYYWPGLYNLFWFNFPMHFLGGMPRRPYPDLGWNSGSSYQLGPDESNEPH'
p4118
sg123
F0.0023999999999999998
sg124
g125
sg33
S'65'
p4119
sg127
g1
(g128
g12
(dp4120
g130
I4
sg131
g132
sg133
g134
sg135
g132
sg136
I01
sg34
g137
sg138
g134
sg139
I0
sg140
I0
sg141
I0
sg142
g134
sg35
g132
sg143
I0
stRp4121
sg145
g146
sg147
F1
sg148
Nsg30
S'AgossA'
p4122
sbasg120
g4035
sg123
F0.075329999999999994
sg124
g125
sg33
S'31'
p4123
sg127
g1
(g128
g12
(dp4124
g130
I8
sg131
g132
sg133
g134
sg135
g132
sg136
I01
sg34
g173
sg138
g134
sg139
I0
sg140
I0
sg141
I0
sg142
g134
sg35
g132
sg143
I0
stRp4125
sg145
g146
sg147
F0.98999999999999999
sg148
Nsg30
S'NoName'
p4126
sbasg120
g3017
sg123
F0.56830999999999998
sg124
g125
sg33
S'129'
p4127
sg127
g1
(g128
g12
(dp4128
g130
I8
sg131
g132
sg133
g134
sg135
g132
sg136
I01
sg34
g173
sg138
g134
sg139
I0
sg140
I0
sg141
I0
sg142
g134
sg35
g132
sg143
I0
stRp4129
sg145
g146
sg147
F0.98999999999999999
sg148
Nsg30
S'NoName'
p4130
sbasg120
g2679
sg123
F0.14305999999999999
sg124
g125
sg33
S'203'
p4131
sg127
g1
(g128
g12
(dp4132
g130
I8
sg131
g132
sg133
g134
sg135
g132
sg136
I01
sg34
g173
sg138
g134
sg139
I0
sg140
I0
sg141
I0
sg142
g134
sg35
g132
sg143
I0
stRp4133
sg145
g146
sg147
F0.96999999999999997
sg148
Nsg30
S'NoName'
p4134
sbasg120
g2493
sg123
F0.26834000000000002
sg124
g125
sg33
S'222'
p4135
sg127
g1
(g128
g12
(dp4136
g130
I8
sg131
g132
sg133
g134
sg135
g132
sg136
I01
sg34
g173
sg138
g134
sg139
I0
sg140
I0
sg141
I0
sg142
g134
sg35
g132
sg143
I0
stRp4137
sg145
g146
sg147
F0.97999999999999998
sg148
Nsg30
S'NoName'
p4138
sbasg120
g673
sg123
F0.062890000000000001
sg124
g125
sg33
S'205'
p4139
sg127
g1
(g128
g12
(dp4140
g130
I8
sg131
g132
sg133
g134
sg135
g132
sg136
I01
sg34
g173
sg138
g134
sg139
I0
sg140
I0
sg141
I0
sg142
g134
sg35
g132
sg143
I0
stRp4141
sg145
g146
sg147
F0.67000000000000004
sg148
Nsg30
S'NoName'
p4142
sbasg120
g263
sg123
F0.52025999999999994
sg124
g125
sg33
S'34'
p4143
sg127
g1
(g128
g12
(dp4144
g130
I8
sg131
g132
sg133
g134
sg135
g132
sg136
I01
sg34
g173
sg138
g134
sg139
I0
sg140
I0
sg141
I0
sg142
g134
sg35
g132
sg143
I0
stRp4145
sg145
g146
sg147
F0.97999999999999998
sg148
Nsg30
S'NoName'
p4146
sbasg120
g52
sg123
F0.11274000000000001
sg124
g125
sg33
S'197'
p4147
sg127
g1
(g128
g12
(dp4148
g130
I8
sg131
g132
sg133
g134
sg135
g132
sg136
I01
sg34
g173
sg138
g134
sg139
I0
sg140
I0
sg141
I0
sg142
g134
sg35
g132
sg143
I0
stRp4149
sg145
g146
sg147
F0.88
sg148
Nsg30
S'NoName'
p4150
sbasg120
g39
sg123
F0.33485999999999999
sg124
g125
sg33
S'121'
p4151
sg127
g1
(g128
g12
(dp4152
g130
I8
sg131
g132
sg133
g134
sg135
g132
sg136
I01
sg34
g173
sg138
g134
sg139
I0
sg140
I0
sg141
I0
sg142
g134
sg35
g132
sg143
I0
stRp4153
sg145
g146
sg147
F0.95999999999999996
sg148
Nsg30
S'NoName'
p4154
sbag1
(g2
g3
NtRp4155
(dp4156
g6
g1
(g7
g3
NtRp4157
(dp4158
g10
g1
(g11
g12
(dtRp4159
sg14
g1
(g11
g12
(dtRp4160
sg16
g1
(g11
g12
(dtRp4161
sg18
g1
(g11
g12
(dtRp4162
sg20
g1
(g11
g12
(dtRp4163
sg22
g1
(g11
g12
(dtRp4164
sbsg24
S'Lst'
p4165
sg26
g27
((lp4166
g29
ag30
aS'sequence'
p4167
ag32
ag33
aS'species'
p4168
atRp4169
sg37
(lp4170
sg120
g39
sg121
S'RWLSTKDLYSRMELPGLNHNVHAMFVMPLGFGNPLGDMFPRLNNSFWLPPLSFEGAGTGWTVYPPLSHSGASVDLAFHLSSSMLGAMNFTNMRGPLFWTALLLLSLPVLGATLLDRNFNTFEGGDPLYHLFWFFGHPEVYIIPGFGSHCTYEKFGMYASMGLGFVWSHHMFVGLDERAYFTAATMIAPTGMKFSWLATYGGTPMVAFLFLFTGGTGVLNASDAFHDTYYVVHFHYVLSMGAFALGYYYWPGLYKYFWFNFPMHFLGGMPRRPYPDAGWNSGSAIQLGPQATKEPH'
p4171
sg123
F1.13117
sg124
g125
sg33
S'116'
p4172
sg127
g1
(g128
g12
(dp4173
g130
I4
sg131
g132
sg133
g134
sg135
g132
sg136
I01
sg34
g137
sg138
g134
sg139
I0
sg140
I0
sg141
I0
sg142
g134
sg35
g132
sg143
I0
stRp4174
sg145
g146
sg147
F1
sg148
Nsg30
S'LstarA'
p4175
sbasg120
g4
sg123
F0.46844999999999998
sg124
g125
sg33
S'110'
p4176
sg127
g1
(g128
g12
(dp4177
g130
I8
sg131
g132
sg133
g134
sg135
g132
sg136
I01
sg34
g173
sg138
g134
sg139
I0
sg140
I0
sg141
I0
sg142
g134
sg35
g132
sg143
I0
stRp4178
sg145
g146
sg147
F1
sg148
Nsg30
S'NoName'
p4179
sbag1
(g2
g3
NtRp4180
(dp4181
g6
g1
(g7
g3
NtRp4182
(dp4183
g10
g1
(g11
g12
(dtRp4184
sg14
g1
(g11
g12
(dtRp4185
sg16
g1
(g11
g12
(dtRp4186
sg18
g1
(g11
g12
(dtRp4187
sg20
g1
(g11
g12
(dtRp4188
sg22
g1
(g11
g12
(dtRp4189
sbsg24
g25
sg26
g27
((lp4190
g33
ag32
ag29
ag30
atRp4191
sg37
(lp4192
g1
(g2
g3
NtRp4193
(dp4194
g6
g1
(g7
g3
NtRp4195
(dp4196
g10
g1
(g11
g12
(dtRp4197
sg14
g1
(g11
g12
(dtRp4198
sg16
g1
(g11
g12
(dtRp4199
sg18
g1
(g11
g12
(dtRp4200
sg20
g1
(g11
g12
(dtRp4201
sg22
g1
(g11
g12
(dtRp4202
sbsg24
S'Sja'
p4203
sg26
g27
((lp4204
g29
ag30
aS'sequence'
p4205
ag32
ag33
aS'species'
p4206
atRp4207
sg37
(lp4208
sg120
g4180
sg121
S'RWLSTKDLYSRLELPGLNQNVHGMFILPLGFGNPLGDVYPRMNNSFWLPPLSLEGPGVGWTMYYPLSHSGLSVDLLMQLTSSTLGSINLTNMRGPLFWTSLLVLTLPVLGGILLDRNWNTFAGGDPLYHLFWFFGHPEVYIIPAFGSHSTFHKFGMYASIALGCVWSHHLYVGLDDRAYFTAATMIAPTGIKFSWLATSGGEPMLVFLILFTGGTGVLNSVDAFHDTYFVVHFHYVLSMGAMGLAYYFWPGLYNMFWFNFPQHFLGNYPRRPYPDAGWNSGSSYQFNPNDSNEPH'
p4209
sg123
F1.0686599999999999
sg124
g125
sg33
S'223'
p4210
sg127
g1
(g128
g12
(dp4211
g130
I4
sg131
g132
sg133
g134
sg135
g132
sg136
I01
sg34
g137
sg138
g134
sg139
I0
sg140
I0
sg141
I0
sg142
g134
sg35
g132
sg143
I0
stRp4212
sg145
g146
sg147
F1
sg148
Nsg30
S'SjapoA'
p4213
sbag1
(g2
g3
NtRp4214
(dp4215
g6
g1
(g7
g3
NtRp4216
(dp4217
g10
g1
(g11
g12
(dtRp4218
sg14
g1
(g11
g12
(dtRp4219
sg16
g1
(g11
g12
(dtRp4220
sg18
g1
(g11
g12
(dtRp4221
sg20
g1
(g11
g12
(dtRp4222
sg22
g1
(g11
g12
(dtRp4223
sbsg24
g25
sg26
g27
((lp4224
g33
ag32
ag29
ag30
atRp4225
sg37
(lp4226
g1
(g2
g3
NtRp4227
(dp4228
g6
g1
(g7
g3
NtRp4229
(dp4230
g10
g1
(g11
g12
(dtRp4231
sg14
g1
(g11
g12
(dtRp4232
sg16
g1
(g11
g12
(dtRp4233
sg18
g1
(g11
g12
(dtRp4234
sg20
g1
(g11
g12
(dtRp4235
sg22
g1
(g11
g12
(dtRp4236
sbsg24
S'Spo'
p4237
sg26
g27
((lp4238
g29
ag30
aS'sequence'
p4239
ag32
ag33
aS'species'
p4240
atRp4241
sg37
(lp4242
sg120
g4214
sg121
S'RWMSTKDLYSRMELPGLNQNVHGMFIIPLGFGNPMGDVYPRVNNTFWLPPLSLEGPGGGWTVYPPLSHSGPAIDLALQLTSSTLGSVNLTNMRGPLFWTSLLLLTLPVLGGFLFDRNLNTFAGGDPLYHLFWFFGHPEVYIIPAFGSHPSLHKFGMWASIALGLVWSHHLFVGLDDRAYFSAATMIAPTGIKFSWLATTGGQPMLAFLILFTGGTGVLNSVDAFHDTYFVVHFHYVLSMGAFGLAYY-WPGLYNLFWFNFPQHFLGGMPRRPYPEAGWNSGSSYQFNPSDDNEPH'
p4243
sg123
F0.12372
sg124
g125
sg33
S'102'
p4244
sg127
g1
(g128
g12
(dp4245
g130
I4
sg131
g132
sg133
g134
sg135
g132
sg136
I01
sg34
g137
sg138
g134
sg139
I0
sg140
I0
sg141
I0
sg142
g134
sg35
g132
sg143
I0
stRp4246
sg145
g146
sg147
F1
sg148
Nsg30
S'SpombA'
p4247
sbag1
(g2
g3
NtRp4248
(dp4249
g6
g1
(g7
g3
NtRp4250
(dp4251
g10
g1
(g11
g12
(dtRp4252
sg14
g1
(g11
g12
(dtRp4253
sg16
g1
(g11
g12
(dtRp4254
sg18
g1
(g11
g12
(dtRp4255
sg20
g1
(g11
g12
(dtRp4256
sg22
g1
(g11
g12
(dtRp4257
sbsg24
g25
sg26
g27
((lp4258
g33
ag32
ag29
ag30
atRp4259
sg37
(lp4260
g1
(g2
g3
NtRp4261
(dp4262
g6
g1
(g7
g3
NtRp4263
(dp4264
g10
g1
(g11
g12
(dtRp4265
sg14
g1
(g11
g12
(dtRp4266
sg16
g1
(g11
g12
(dtRp4267
sg18
g1
(g11
g12
(dtRp4268
sg20
g1
(g11
g12
(dtRp4269
sg22
g1
(g11
g12
(dtRp4270
sbsg24
S'Soc'
p4271
sg26
g27
((lp4272
g29
ag30
aS'sequence'
p4273
ag32
ag33
aS'species'
p4274
atRp4275
sg37
(lp4276
sg120
g4248
sg121
S'RWLSTKDLYSRMELPGLNQNVHGMFIIPLGFGNPMGDVYPRVNNTFWLPPLSLEGPGTGWTVYPPLSHSGPAVDLALQLTSSTLGSLNLTNMRGPLFWTSLLLLTLPVLGGFLFDRNLNTFAGGDPLYHLFWFFGHPEVYIIPAFGSHSTLNKFGMCASIALGLVWSHHLFVGLDDRAYFSAATMIAPTGIKFSWLATTGGQPMLAFLILFTGGTGVLNSVDAFHDTYFVVHFHYVLSMGAFGLAYYFWPGLYNLFWFNFPQHFLGGMPRRPYPDAGWNSGSSYQYNPSDDNEPH'
p4277
sg123
F0.03637
sg124
g125
sg33
S'156'
p4278
sg127
g1
(g128
g12
(dp4279
g130
I4
sg131
g132
sg133
g134
sg135
g132
sg136
I01
sg34
g137
sg138
g134
sg139
I0
sg140
I0
sg141
I0
sg142
g134
sg35
g132
sg143
I0
stRp4280
sg145
g146
sg147
F1
sg148
Nsg30
S'SoctoA'
p4281
sbag1
(g2
g3
NtRp4282
(dp4283
g6
g1
(g7
g3
NtRp4284
(dp4285
g10
g1
(g11
g12
(dtRp4286
sg14
g1
(g11
g12
(dtRp4287
sg16
g1
(g11
g12
(dtRp4288
sg18
g1
(g11
g12
(dtRp4289
sg20
g1
(g11
g12
(dtRp4290
sg22
g1
(g11
g12
(dtRp4291
sbsg24
S'Scr'
p4292
sg26
g27
((lp4293
g29
ag30
aS'sequence'
p4294
ag32
ag33
aS'species'
p4295
atRp4296
sg37
(lp4297
sg120
g4248
sg121
S'RWLSTKDLYSRMELPGLNQNVHGMFIIPLGFGNPMGDVYPRVNNTYWLPPLSLEGPGTGWTVYPPLSHSGPSVDLALQLTSSTLGSLNLTNMRGPLFWTSLLLLTLPVLGGFLFDRNLNTFAGGDPLYHLFWFFGHPEVYIIPAFGSHPTLNKFGMCASIALGLVWSHHLFVGLDDRAYFSAATMIAPTGIKFSWLATTGGQPMLAFLILFTGGTGVLNSVDAFHDTYFVVHFHYVLSMGAFGLAYYFWPGLYNLFWFNFPQHFLGGMPRRPYPDAGWNSGSSYQYNPSDDNEPH'
p4298
sg123
F0.036740000000000002
sg124
g125
sg33
S'125'
p4299
sg127
g1
(g128
g12
(dp4300
g130
I4
sg131
g132
sg133
g134
sg135
g132
sg136
I01
sg34
g137
sg138
g134
sg139
I0
sg140
I0
sg141
I0
sg142
g134
sg35
g132
sg143
I0
stRp4301
sg145
g146
sg147
F1
sg148
Nsg30
S'ScryoA'
p4302
sbasg120
g4214
sg123
F0.18453
sg124
g125
sg33
S'49'
p4303
sg127
g1
(g128
g12
(dp4304
g130
I8
sg131
g132
sg133
g134
sg135
g132
sg136
I01
sg34
g173
sg138
g134
sg139
I0
sg140
I0
sg141
I0
sg142
g134
sg35
g132
sg143
I0
stRp4305
sg145
g146
sg147
F0.98999999999999999
sg148
Nsg30
S'NoName'
p4306
sbasg120
g4180
sg123
F0.73307
sg124
g125
sg33
S'171'
p4307
sg127
g1
(g128
g12
(dp4308
g130
I8
sg131
g132
sg133
g134
sg135
g132
sg136
I01
sg34
g173
sg138
g134
sg139
I0
sg140
I0
sg141
I0
sg142
g134
sg35
g132
sg143
I0
stRp4309
sg145
g146
sg147
F0.98999999999999999
sg148
Nsg30
S'NoName'
p4310
sbasg120
g4
sg123
F1.7741899999999999
sg124
g125
sg33
S'195'
p4311
sg127
g1
(g128
g12
(dp4312
g130
I8
sg131
g132
sg133
g134
sg135
g132
sg136
I01
sg34
g173
sg138
g134
sg139
I0
sg140
I0
sg141
I0
sg142
g134
sg35
g132
sg143
I0
stRp4313
sg145
g146
sg147
F1
sg148
Nsg30
S'NoName'
p4314
sbasg31
S'8'
sg120
Nsg123
F0
sg124
g125
sg33
S'81'
p4315
sg34
g173
sg127
g1
(g128
g12
(dp4316
g130
I8
sg131
g132
sg133
g134
sg135
g132
sg136
I01
sg34
g173
sg138
g134
sg139
I0
sg140
I0
sg141
I0
sg142
g134
sg35
S'#833DB4'
p4317
sg143
I0
stRp4318
sg145
g146
sg147
F1
sg148
Nsg35
g4317
sg30
g125
sb.