ccopy_reg
_reconstructor
p1
(cete2.phylo.phylotree
PhyloNode
p2
c__builtin__
object
p3
NtRp4
(dp5
S'_faces'
p6
g1
(cete2.treeview.main
_FaceAreas
p7
g3
NtRp8
(dp9
S'branch-top'
p10
g1
(cete2.treeview.main
FaceContainer
p11
c__builtin__
dict
p12
(dtRp13
sS'float'
p14
g1
(g11
g12
(dtRp15
sS'branch-bottom'
p16
g1
(g11
g12
(dtRp17
sS'aligned'
p18
g1
(g11
g12
(dtRp19
sS'branch-right'
p20
g1
(g11
g12
(dtRp21
sS'float-behind'
p22
g1
(g11
g12
(dtRp23
sbsS'_species'
p24
S'Unknown'
p25
sS'features'
p26
c__builtin__
set
p27
((lp28
S'dist'
p29
aS'name'
p30
aS'bsize'
p31
aS'support'
p32
aS'_nid'
p33
aS'shape'
p34
aS'fgcolor'
p35
atRp36
sS'_children'
p37
(lp38
g1
(g2
g3
NtRp39
(dp40
g6
g1
(g7
g3
NtRp41
(dp42
g10
g1
(g11
g12
(dtRp43
sg14
g1
(g11
g12
(dtRp44
sg16
g1
(g11
g12
(dtRp45
sg18
g1
(g11
g12
(dtRp46
sg20
g1
(g11
g12
(dtRp47
sg22
g1
(g11
g12
(dtRp48
sbsg24
g25
sg26
g27
((lp49
g33
ag32
ag29
ag30
atRp50
sg37
(lp51
g1
(g2
g3
NtRp52
(dp53
g6
g1
(g7
g3
NtRp54
(dp55
g10
g1
(g11
g12
(dtRp56
sg14
g1
(g11
g12
(dtRp57
sg16
g1
(g11
g12
(dtRp58
sg18
g1
(g11
g12
(dtRp59
sg20
g1
(g11
g12
(dtRp60
sg22
g1
(g11
g12
(dtRp61
sbsg24
g25
sg26
g27
((lp62
g33
ag32
ag29
ag30
atRp63
sg37
(lp64
g1
(g2
g3
NtRp65
(dp66
g6
g1
(g7
g3
NtRp67
(dp68
g10
g1
(g11
g12
(dtRp69
sg14
g1
(g11
g12
(dtRp70
sg16
g1
(g11
g12
(dtRp71
sg18
g1
(g11
g12
(dtRp72
sg20
g1
(g11
g12
(dtRp73
sg22
g1
(g11
g12
(dtRp74
sbsg24
g25
sg26
g27
((lp75
g33
ag32
ag29
ag30
atRp76
sg37
(lp77
g1
(g2
g3
NtRp78
(dp79
g6
g1
(g7
g3
NtRp80
(dp81
g10
g1
(g11
g12
(dtRp82
sg14
g1
(g11
g12
(dtRp83
sg16
g1
(g11
g12
(dtRp84
sg18
g1
(g11
g12
(dtRp85
sg20
g1
(g11
g12
(dtRp86
sg22
g1
(g11
g12
(dtRp87
sbsg24
g25
sg26
g27
((lp88
g33
ag32
ag29
ag30
atRp89
sg37
(lp90
g1
(g2
g3
NtRp91
(dp92
g6
g1
(g7
g3
NtRp93
(dp94
g10
g1
(g11
g12
(dtRp95
sg14
g1
(g11
g12
(dtRp96
sg16
g1
(g11
g12
(dtRp97
sg18
g1
(g11
g12
(dtRp98
sg20
g1
(g11
g12
(dtRp99
sg22
g1
(g11
g12
(dtRp100
sbsg24
g25
sg26
g27
((lp101
g33
ag32
ag29
ag30
atRp102
sg37
(lp103
g1
(g2
g3
NtRp104
(dp105
g6
g1
(g7
g3
NtRp106
(dp107
g10
g1
(g11
g12
(dtRp108
sg14
g1
(g11
g12
(dtRp109
sg16
g1
(g11
g12
(dtRp110
sg18
g1
(g11
g12
(dtRp111
sg20
g1
(g11
g12
(dtRp112
sg22
g1
(g11
g12
(dtRp113
sbsg24
S'Yli'
p114
sg26
g27
((lp115
g29
ag30
aS'sequence'
p116
ag32
ag33
aS'species'
p117
atRp118
sg37
(lp119
sS'_up'
p120
g91
sS'sequence'
p121
S'RWLSTKDLYSRLELTGLNQNVHAMFVMPLGFGNPMGDMFARLNNSFWLVPLSLEGAGTGWTVYFPLAHSGPAVDLAFHLSSSLLGAINFTNMRGPLFWTALLLLSLPVLAGTGIDRNFNTFEGGDALYHLFWFFGHPEVYIIPGFGSHSAISKFGMYASIGLGFVWSHHMFVGLDDRAYFTSATMIAPTSIKFSWLATYGGRTALAFIFLFTGGTGVLNSADPFHDSYYVVMAFSIGWLPYNLFWFMFGMNDAGWSSAYQLGPSGTNE'
p122
sS'_dist'
p123
F0.00011
sS'_name'
p124
S'NoName'
p125
sg33
S'24'
p126
sS'_img_style'
p127
g1
(cete2.treeview.main
NodeStyle
p128
g12
(dp129
S'size'
p130
I4
sS'hz_line_color'
p131
S'#000000'
p132
sS'faces_bgcolor'
p133
S'#FFFFFF'
p134
sS'vt_line_color'
p135
g132
sS'draw_descendants'
p136
I01
sg34
S'square'
p137
sS'bgcolor'
p138
g134
sS'hz_line_type'
p139
I0
sS'vt_line_width'
p140
I0
sS'vt_line_type'
p141
I0
sS'node_bgcolor'
p142
g134
sg35
S'#000000'
p143
sS'hz_line_width'
p144
I0
stRp145
sS'_speciesFunction'
p146
cete2.phylo.phylotree
_parse_species
p147
sS'_support'
p148
F1
sS'_temp_faces'
p149
Nsg30
S'YlipoB'
p150
sbag1
(g2
g3
NtRp151
(dp152
g6
g1
(g7
g3
NtRp153
(dp154
g10
g1
(g11
g12
(dtRp155
sg14
g1
(g11
g12
(dtRp156
sg16
g1
(g11
g12
(dtRp157
sg18
g1
(g11
g12
(dtRp158
sg20
g1
(g11
g12
(dtRp159
sg22
g1
(g11
g12
(dtRp160
sbsg24
S'Yli'
p161
sg26
g27
((lp162
g29
ag30
aS'sequence'
p163
ag32
ag33
aS'species'
p164
atRp165
sg37
(lp166
sg120
g91
sg121
S'RWLSTKDLYSRLELTGLNQNVHAMFVMPLGFGNPMGDMFARLNNSFWLVPLSLEGAGTGWTVYFPLAHSGPAVDLAFHLSSSLLGAINFTNMRGPLFWTALLLLSLPVLAGTGIDRNFNTFEGGDALYHLFWFFGHPEVYIIPGFGSHSAISKFGMYASIGLGFVWSHHMFVGLDDRAYFTSATMIAPTSIKFSWLATYGGRTALAFIFLFTGGTGVLNSADPFHDSYYVVMAFSIGWLPYNLFWFMFGMNDAGWSSAYQLGPSGTNE'
p167
sg123
F0.00048000000000000001
sg124
g125
sg33
S'22'
p168
sg127
g1
(g128
g12
(dp169
g130
I4
sg131
g132
sg133
g134
sg135
g132
sg136
I01
sg34
g137
sg138
g134
sg139
I0
sg140
I0
sg141
I0
sg142
g134
sg35
g143
sg144
I0
stRp170
sg146
g147
sg148
F1
sg149
Nsg30
S'YlipoA'
p171
sbasg120
g78
sg123
F0.02656
sg124
g125
sg33
S'78'
p172
sg127
g1
(g128
g12
(dp173
g130
I6
sg131
g132
sg133
g134
sg135
g132
sg136
I01
sg34
S'circle'
p174
sg138
g134
sg139
I0
sg140
I0
sg141
I0
sg142
g134
sg35
S'#0030c1'
p175
sg144
I0
stRp176
sg146
g147
sg148
F1
sg149
Nsg30
S'NoName'
p177
sbag1
(g2
g3
NtRp178
(dp179
g6
g1
(g7
g3
NtRp180
(dp181
g10
g1
(g11
g12
(dtRp182
sg14
g1
(g11
g12
(dtRp183
sg16
g1
(g11
g12
(dtRp184
sg18
g1
(g11
g12
(dtRp185
sg20
g1
(g11
g12
(dtRp186
sg22
g1
(g11
g12
(dtRp187
sbsg24
g25
sg26
g27
((lp188
g33
ag32
ag29
ag30
atRp189
sg37
(lp190
g1
(g2
g3
NtRp191
(dp192
g6
g1
(g7
g3
NtRp193
(dp194
g10
g1
(g11
g12
(dtRp195
sg14
g1
(g11
g12
(dtRp196
sg16
g1
(g11
g12
(dtRp197
sg18
g1
(g11
g12
(dtRp198
sg20
g1
(g11
g12
(dtRp199
sg22
g1
(g11
g12
(dtRp200
sbsg24
S'Cga'
p201
sg26
g27
((lp202
g29
ag30
aS'sequence'
p203
ag32
ag33
aS'species'
p204
atRp205
sg37
(lp206
sg120
g178
sg121
S'RWLSTKDLYSRLELTGLNQNVHAMFVMPLGFGNPMGDMFARLNNSFWLVPLSLEGAGTGWTVYFPLAHSGPAVDLAFHLSSSLLGAINFTNMRGPLFWTALLLLSLPVLAGTGIDRNFNTFEGGDALYHLFWFFGHPEVYIIPGFGSHSAISKFGMYASIGLGFVWSHHMFVGLDDRAYFTSATMIAPTSIKFSWLSTYGGRTALAFIFLFTGGTGVLNSADPFHDSYYVVMAFSIGWLPYNLFWFMFGMNDAGWSSAYQLGPSGTNE'
p207
sg123
F0.016299999999999999
sg124
g125
sg33
S'61'
p208
sg127
g1
(g128
g12
(dp209
g130
I4
sg131
g132
sg133
g134
sg135
g132
sg136
I01
sg34
g137
sg138
g134
sg139
I0
sg140
I0
sg141
I0
sg142
g134
sg35
g143
sg144
I0
stRp210
sg146
g147
sg148
F1
sg149
Nsg30
S'CgallA'
p211
sbag1
(g2
g3
NtRp212
(dp213
g6
g1
(g7
g3
NtRp214
(dp215
g10
g1
(g11
g12
(dtRp216
sg14
g1
(g11
g12
(dtRp217
sg16
g1
(g11
g12
(dtRp218
sg18
g1
(g11
g12
(dtRp219
sg20
g1
(g11
g12
(dtRp220
sg22
g1
(g11
g12
(dtRp221
sbsg24
S'Cde'
p222
sg26
g27
((lp223
g29
ag30
aS'sequence'
p224
ag32
ag33
aS'species'
p225
atRp226
sg37
(lp227
sg120
g178
sg121
S'RWLSTKDLYSRLELTGLNQNVHAMFVMPLGFGNPMGDMFARLNNSFWLVPLSLEGAGTGWTVYFPLAHSGPAVDLAFHLSSSLLGAINFTNMRGPLFWTALLLLSLPVLAGTGIDRNFNTFEGGDALYHLFFFNGHPEVYIIPGFGSHSAISKFGMYASIGLGFVWSHHMFVGLDDRAYFTSATMIAPTSIKFSWLATYGGRTALAFIFLFTGGTGVLNSADPFHDSYYVVMAFSIGWLPYNLFWFMFGMNDAGWSSAYQLGPSGTNE'
p228
sg123
F0.018610000000000002
sg124
g125
sg33
S'192'
p229
sg127
g1
(g128
g12
(dp230
g130
I4
sg131
g132
sg133
g134
sg135
g132
sg136
I01
sg34
g137
sg138
g134
sg139
I0
sg140
I0
sg141
I0
sg142
g134
sg35
g143
sg144
I0
stRp231
sg146
g147
sg148
F1
sg149
Nsg30
S'CdefoA'
p232
sbasg120
g78
sg123
F0.00282
sg124
g125
sg33
S'70'
p233
sg127
g1
(g128
g12
(dp234
g130
I6
sg131
g132
sg133
g134
sg135
g132
sg136
I01
sg34
g174
sg138
g134
sg139
I0
sg140
I0
sg141
I0
sg142
g134
sg35
g175
sg144
I0
stRp235
sg146
g147
sg148
F0.96999999999999997
sg149
Nsg30
S'NoName'
p236
sbasg120
g65
sg123
F0.00479
sg124
g125
sg33
S'94'
p237
sg127
g1
(g128
g12
(dp238
g130
I6
sg131
g132
sg133
g134
sg135
g132
sg136
I01
sg34
g174
sg138
g134
sg139
I0
sg140
I0
sg141
I0
sg142
g134
sg35
g175
sg144
I0
stRp239
sg146
g147
sg148
F0.80000000000000004
sg149
Nsg30
S'NoName'
p240
sbag1
(g2
g3
NtRp241
(dp242
g6
g1
(g7
g3
NtRp243
(dp244
g10
g1
(g11
g12
(dtRp245
sg14
g1
(g11
g12
(dtRp246
sg16
g1
(g11
g12
(dtRp247
sg18
g1
(g11
g12
(dtRp248
sg20
g1
(g11
g12
(dtRp249
sg22
g1
(g11
g12
(dtRp250
sbsg24
S'Cal'
p251
sg26
g27
((lp252
g29
ag30
aS'sequence'
p253
ag32
ag33
aS'species'
p254
atRp255
sg37
(lp256
sg120
g65
sg121
S'RWLSTKDLYSRLELTGLNQNVHAMFVMPLGFGNPMGDMFARLNNSFWLVPMSLEGAGTGWTVYFPLAHSGPAVDLAFHLASSLLGAINFTNMRGPLFWTALLLLSLPVLAGTGIDRNFNTFEGGDALYHLFWFFGHPEVYIIPGFGSHSAISKFGMYASIGLGFVWSHHMFVGLDDRAYFTSATMIAPTSIKFSWLATYGGRTALAFIFLFTGGTGVLNSADPFHDSYYVVMAFSIGWLPYNLFWFMFGMNDAGWSSAYQLGPSGTNE'
p257
sg123
F0.035970000000000002
sg124
g125
sg33
S'7'
sg127
g1
(g128
g12
(dp258
g130
I4
sg131
g132
sg133
g134
sg135
g132
sg136
I01
sg34
g137
sg138
g134
sg139
I0
sg140
I0
sg141
I0
sg142
g134
sg35
g143
sg144
I0
stRp259
sg146
g147
sg148
F1
sg149
Nsg30
S'CalimA'
p260
sbasg120
g52
sg123
F1.1444799999999999
sg124
g125
sg33
S'40'
p261
sg127
g1
(g128
g12
(dp262
g130
I6
sg131
g132
sg133
g134
sg135
g132
sg136
I01
sg34
g174
sg138
g134
sg139
I0
sg140
I0
sg141
I0
sg142
g134
sg35
g175
sg144
I0
stRp263
sg146
g147
sg148
F0.97999999999999998
sg149
Nsg30
S'NoName'
p264
sbag1
(g2
g3
NtRp265
(dp266
g6
g1
(g7
g3
NtRp267
(dp268
g10
g1
(g11
g12
(dtRp269
sg14
g1
(g11
g12
(dtRp270
sg16
g1
(g11
g12
(dtRp271
sg18
g1
(g11
g12
(dtRp272
sg20
g1
(g11
g12
(dtRp273
sg22
g1
(g11
g12
(dtRp274
sbsg24
g25
sg26
g27
((lp275
g33
ag32
ag29
ag30
atRp276
sg37
(lp277
g1
(g2
g3
NtRp278
(dp279
g6
g1
(g7
g3
NtRp280
(dp281
g10
g1
(g11
g12
(dtRp282
sg14
g1
(g11
g12
(dtRp283
sg16
g1
(g11
g12
(dtRp284
sg18
g1
(g11
g12
(dtRp285
sg20
g1
(g11
g12
(dtRp286
sg22
g1
(g11
g12
(dtRp287
sbsg24
g25
sg26
g27
((lp288
g33
ag32
ag29
ag30
atRp289
sg37
(lp290
g1
(g2
g3
NtRp291
(dp292
g6
g1
(g7
g3
NtRp293
(dp294
g10
g1
(g11
g12
(dtRp295
sg14
g1
(g11
g12
(dtRp296
sg16
g1
(g11
g12
(dtRp297
sg18
g1
(g11
g12
(dtRp298
sg20
g1
(g11
g12
(dtRp299
sg22
g1
(g11
g12
(dtRp300
sbsg24
g25
sg26
g27
((lp301
g33
ag32
ag29
ag30
atRp302
sg37
(lp303
g1
(g2
g3
NtRp304
(dp305
g6
g1
(g7
g3
NtRp306
(dp307
g10
g1
(g11
g12
(dtRp308
sg14
g1
(g11
g12
(dtRp309
sg16
g1
(g11
g12
(dtRp310
sg18
g1
(g11
g12
(dtRp311
sg20
g1
(g11
g12
(dtRp312
sg22
g1
(g11
g12
(dtRp313
sbsg24
g25
sg26
g27
((lp314
g33
ag32
ag29
ag30
atRp315
sg37
(lp316
g1
(g2
g3
NtRp317
(dp318
g6
g1
(g7
g3
NtRp319
(dp320
g10
g1
(g11
g12
(dtRp321
sg14
g1
(g11
g12
(dtRp322
sg16
g1
(g11
g12
(dtRp323
sg18
g1
(g11
g12
(dtRp324
sg20
g1
(g11
g12
(dtRp325
sg22
g1
(g11
g12
(dtRp326
sbsg24
S'Mst'
p327
sg26
g27
((lp328
g29
ag30
aS'sequence'
p329
ag32
ag33
aS'species'
p330
atRp331
sg37
(lp332
sg120
g304
sg121
S'RWLSTKDLYSRLELPTLNQNVHAMFVMPSGFGNPMGDMLARLNNSFWLVPVSLEGAGTGWTVYPPLSHSGASVDLVFHMSSSLLGAINFTNMRGTLFWTALLLLSLPVLSGTLLDRNFNTFEGGDPLYHLFWFFGHPEVYIIPGFGSHSTYKKFGMYASMGLGFVWSHHMYVGLDDRAYFTSATMMAPTGVKFSWLATYGGRPFLAFMFLFTGGTGVLNASDAFHDTYYVVLAFSLGYFPYNLFMFLFGMPDAGWSSSYQLGPDESNE'
p333
sg123
F0.087190000000000004
sg124
g125
sg33
S'14'
p334
sg127
g1
(g128
g12
(dp335
g130
I4
sg131
g132
sg133
g134
sg135
g132
sg136
I01
sg34
g137
sg138
g134
sg139
I0
sg140
I0
sg141
I0
sg142
g134
sg35
g143
sg144
I0
stRp336
sg146
g147
sg148
F1
sg149
Nsg30
S'MstarA'
p337
sbag1
(g2
g3
NtRp338
(dp339
g6
g1
(g7
g3
NtRp340
(dp341
g10
g1
(g11
g12
(dtRp342
sg14
g1
(g11
g12
(dtRp343
sg16
g1
(g11
g12
(dtRp344
sg18
g1
(g11
g12
(dtRp345
sg20
g1
(g11
g12
(dtRp346
sg22
g1
(g11
g12
(dtRp347
sbsg24
S'Min'
p348
sg26
g27
((lp349
g29
ag30
aS'sequence'
p350
ag32
ag33
aS'species'
p351
atRp352
sg37
(lp353
sg120
g304
sg121
S'RWLSTKDLYSRLELPTLNQNVHAMFVMPAGFGNPMGDMLARLNNSFWLVPVSLEGAGTGWTVYPPLSHSGPSVDLVFHISSSLLGSMNFTNMRGTLFWTSLLLLSLPVLSGTLLDRNFNTFEGGDPLYHLFYKMMLFSMYMMPGFGSHSAYKKFGMYASIGLGFVWSHHMYVGLDDRAYFTSATMIAPTGVKFSWLATYGGRPFLAFMFLFTGGTGVLNASDAFHDTYYVVLAFSLGYFPYNLFTFLFGMPDAGWSSSYQLGPDESNE'
p354
sg123
F0.040719999999999999
sg124
g125
sg33
S'181'
p355
sg127
g1
(g128
g12
(dp356
g130
I4
sg131
g132
sg133
g134
sg135
g132
sg136
I01
sg34
g137
sg138
g134
sg139
I0
sg140
I0
sg141
I0
sg142
g134
sg35
g143
sg144
I0
stRp357
sg146
g147
sg148
F1
sg149
Nsg30
S'MingeA'
p358
sbasg120
g291
sg123
F0.037420000000000002
sg124
g125
sg33
S'82'
p359
sg127
g1
(g128
g12
(dp360
g130
I6
sg131
g132
sg133
g134
sg135
g132
sg136
I01
sg34
g174
sg138
g134
sg139
I0
sg140
I0
sg141
I0
sg142
g134
sg35
g175
sg144
I0
stRp361
sg146
g147
sg148
F0.98999999999999999
sg149
Nsg30
S'NoName'
p362
sbag1
(g2
g3
NtRp363
(dp364
g6
g1
(g7
g3
NtRp365
(dp366
g10
g1
(g11
g12
(dtRp367
sg14
g1
(g11
g12
(dtRp368
sg16
g1
(g11
g12
(dtRp369
sg18
g1
(g11
g12
(dtRp370
sg20
g1
(g11
g12
(dtRp371
sg22
g1
(g11
g12
(dtRp372
sbsg24
g25
sg26
g27
((lp373
g33
ag32
ag29
ag30
atRp374
sg37
(lp375
g1
(g2
g3
NtRp376
(dp377
g6
g1
(g7
g3
NtRp378
(dp379
g10
g1
(g11
g12
(dtRp380
sg14
g1
(g11
g12
(dtRp381
sg16
g1
(g11
g12
(dtRp382
sg18
g1
(g11
g12
(dtRp383
sg20
g1
(g11
g12
(dtRp384
sg22
g1
(g11
g12
(dtRp385
sbsg24
g25
sg26
g27
((lp386
g33
ag32
ag29
ag30
atRp387
sg37
(lp388
g1
(g2
g3
NtRp389
(dp390
g6
g1
(g7
g3
NtRp391
(dp392
g10
g1
(g11
g12
(dtRp393
sg14
g1
(g11
g12
(dtRp394
sg16
g1
(g11
g12
(dtRp395
sg18
g1
(g11
g12
(dtRp396
sg20
g1
(g11
g12
(dtRp397
sg22
g1
(g11
g12
(dtRp398
sbsg24
S'Mte'
p399
sg26
g27
((lp400
g29
ag30
aS'sequence'
p401
ag32
ag33
aS'species'
p402
atRp403
sg37
(lp404
sg120
g376
sg121
S'RWLSTKDLYSRLELPTLNQNVHAMFVMPAGFGNPMGDMLARLNNSFWLVPLSLEGAGTGWTVYPPLSHSGPSVDMVFHISSSLLGAINFTNMRGTLFWTALLLLSLPVLSGTLLDRNFNTFEGGDPLYHLFWFFGHPEVYIIPGFGSHSAYKKFGMYASIGLGFVWSHHMYVGLDDRAYFTSATMIAPTGVKFSWLATYGGRPFLAFIFLFTGGTGVLNASDAFHDTYYVVLAFSLGYFPYNLFYFMAGMPDAGWSSSYQLGPDESNE'
p405
sg123
F0.042599999999999999
sg124
g125
sg33
S'171'
p406
sg127
g1
(g128
g12
(dp407
g130
I4
sg131
g132
sg133
g134
sg135
g132
sg136
I01
sg34
g137
sg138
g134
sg139
I0
sg140
I0
sg141
I0
sg142
g134
sg35
g143
sg144
I0
stRp408
sg146
g147
sg148
F1
sg149
Nsg30
S'MtetrA'
p409
sbag1
(g2
g3
NtRp410
(dp411
g6
g1
(g7
g3
NtRp412
(dp413
g10
g1
(g11
g12
(dtRp414
sg14
g1
(g11
g12
(dtRp415
sg16
g1
(g11
g12
(dtRp416
sg18
g1
(g11
g12
(dtRp417
sg20
g1
(g11
g12
(dtRp418
sg22
g1
(g11
g12
(dtRp419
sbsg24
g25
sg26
g27
((lp420
g33
ag32
ag29
ag30
atRp421
sg37
(lp422
g1
(g2
g3
NtRp423
(dp424
g6
g1
(g7
g3
NtRp425
(dp426
g10
g1
(g11
g12
(dtRp427
sg14
g1
(g11
g12
(dtRp428
sg16
g1
(g11
g12
(dtRp429
sg18
g1
(g11
g12
(dtRp430
sg20
g1
(g11
g12
(dtRp431
sg22
g1
(g11
g12
(dtRp432
sbsg24
S'Mma'
p433
sg26
g27
((lp434
g29
ag30
aS'sequence'
p435
ag32
ag33
aS'species'
p436
atRp437
sg37
(lp438
sg120
g410
sg121
S'RWLSTKDLYSRLELPTLNQNVHAMFVMPAGFGNPMGDMLARLNNSFWLVPLSLEGPGTGWTVYPPLSHSGPSVDMVFHISSSLLGAINFTNMRGTLFWTALLLLSLPVLSGTLLDRNFNTFEGGDPLYHLFWFFGHPEVYIIPGFGSHSAYKKFGMYASIGLGFVWSHHMYVGLDDRAYFTSATMIAPTGVKFSWLATYGGRPFLAFIFLFTGGTGVLNASDAFHDSYYVVLAFSLGYFPYNLFFFMAGMPDAGWSSSYQLGPDESNE'
p439
sg123
F0.00055000000000000003
sg124
g125
sg33
S'83'
p440
sg127
g1
(g128
g12
(dp441
g130
I4
sg131
g132
sg133
g134
sg135
g132
sg136
I01
sg34
g137
sg138
g134
sg139
I0
sg140
I0
sg141
I0
sg142
g134
sg35
g143
sg144
I0
stRp442
sg146
g147
sg148
F1
sg149
Nsg30
S'MmagnB'
p443
sbag1
(g2
g3
NtRp444
(dp445
g6
g1
(g7
g3
NtRp446
(dp447
g10
g1
(g11
g12
(dtRp448
sg14
g1
(g11
g12
(dtRp449
sg16
g1
(g11
g12
(dtRp450
sg18
g1
(g11
g12
(dtRp451
sg20
g1
(g11
g12
(dtRp452
sg22
g1
(g11
g12
(dtRp453
sbsg24
S'Mma'
p454
sg26
g27
((lp455
g29
ag30
aS'sequence'
p456
ag32
ag33
aS'species'
p457
atRp458
sg37
(lp459
sg120
g410
sg121
S'RWLSTKDLYSRLELPTLNQNVHAMFVMPAGFGNPMGDMLARLNNSFWLVPLSLEGPGTGWTVYPPLSHSGPSVDMVFHISSSLLGAINFTNMRGTLFWTALLLLSLPVLSGTLLDRNFNTFEGGDPLYHLFWFFGHPEVYIIPGFGSHSAYKKFGMYASIGLGFVWSHHMYVGLDDRAYFTSATMIAPTGVKFSWLATYGGRPFLAFIFLFTGGTGVLNASDAFHDSYYVVLAFSLGYFPYNLFFFMAGMPDAGWSSSYQLGPDESNE'
p460
sg123
F0.00088000000000000003
sg124
g125
sg33
S'79'
p461
sg127
g1
(g128
g12
(dp462
g130
I4
sg131
g132
sg133
g134
sg135
g132
sg136
I01
sg34
g137
sg138
g134
sg139
I0
sg140
I0
sg141
I0
sg142
g134
sg35
g143
sg144
I0
stRp463
sg146
g147
sg148
F1
sg149
Nsg30
S'MmagnA'
p464
sbasg120
g376
sg123
F0.011140000000000001
sg124
g125
sg33
S'169'
p465
sg127
g1
(g128
g12
(dp466
g130
I6
sg131
g132
sg133
g134
sg135
g132
sg136
I01
sg34
g174
sg138
g134
sg139
I0
sg140
I0
sg141
I0
sg142
g134
sg35
g175
sg144
I0
stRp467
sg146
g147
sg148
F0.98999999999999999
sg149
Nsg30
S'NoName'
p468
sbasg120
g363
sg123
F0.11189
sg124
g125
sg33
S'191'
p469
sg127
g1
(g128
g12
(dp470
g130
I6
sg131
g132
sg133
g134
sg135
g132
sg136
I01
sg34
g174
sg138
g134
sg139
I0
sg140
I0
sg141
I0
sg142
g134
sg35
g175
sg144
I0
stRp471
sg146
g147
sg148
F0.98999999999999999
sg149
Nsg30
S'NoName'
p472
sbag1
(g2
g3
NtRp473
(dp474
g6
g1
(g7
g3
NtRp475
(dp476
g10
g1
(g11
g12
(dtRp477
sg14
g1
(g11
g12
(dtRp478
sg16
g1
(g11
g12
(dtRp479
sg18
g1
(g11
g12
(dtRp480
sg20
g1
(g11
g12
(dtRp481
sg22
g1
(g11
g12
(dtRp482
sbsg24
g25
sg26
g27
((lp483
g33
ag32
ag29
ag30
atRp484
sg37
(lp485
g1
(g2
g3
NtRp486
(dp487
g6
g1
(g7
g3
NtRp488
(dp489
g10
g1
(g11
g12
(dtRp490
sg14
g1
(g11
g12
(dtRp491
sg16
g1
(g11
g12
(dtRp492
sg18
g1
(g11
g12
(dtRp493
sg20
g1
(g11
g12
(dtRp494
sg22
g1
(g11
g12
(dtRp495
sbsg24
S'Scl'
p496
sg26
g27
((lp497
g29
ag30
aS'sequence'
p498
ag32
ag33
aS'species'
p499
atRp500
sg37
(lp501
sg120
g473
sg121
S'RWLSTKDLYSRLELPTLNQNVHAMFVMPAGFGNPMGDMLARLNNSFWLVPLSLEGPGTGWTVYPPLSHSGPSVDMVFHMSSSLLGAINFTNMRGTLFWTALLLLSLPVLAGTLLDRNFNTFEGGDPLYHLFWFFGHPEVYMIPGFGSHSTYKKFGMYASMGLGFVWSHHMYVGLDDRAYFTAATMIAPTGVKFSWLATYGGRPFLTFMFLFTGGTGVLNASDAFHDTYYVVLAFSLGYFPYNLFMFLFGMPDAGWSSSYQLGPDESNE'
p502
sg123
F0.020899999999999998
sg124
g125
sg33
S'176'
p503
sg127
g1
(g128
g12
(dp504
g130
I4
sg131
g132
sg133
g134
sg135
g132
sg136
I01
sg34
g137
sg138
g134
sg139
I0
sg140
I0
sg141
I0
sg142
g134
sg35
g143
sg144
I0
stRp505
sg146
g147
sg148
F1
sg149
Nsg30
S'SclavA'
p506
sbag1
(g2
g3
NtRp507
(dp508
g6
g1
(g7
g3
NtRp509
(dp510
g10
g1
(g11
g12
(dtRp511
sg14
g1
(g11
g12
(dtRp512
sg16
g1
(g11
g12
(dtRp513
sg18
g1
(g11
g12
(dtRp514
sg20
g1
(g11
g12
(dtRp515
sg22
g1
(g11
g12
(dtRp516
sbsg24
S'Msp'
p517
sg26
g27
((lp518
g29
ag30
aS'sequence'
p519
ag32
ag33
aS'species'
p520
atRp521
sg37
(lp522
sg120
g473
sg121
S'RWLSTKDLYSRLELPTLNQNVHAMFVMPAGFGNPMGDMLARLNNSFWLVPLSLEGPGTGWTVYPPLSHSGPSVDMVFHMSSSLLGAMNFTNMRGTLFWTALLLLSLPVLAGTLLDRNFNTFEGGDPLYHLFWFFGHPEVYMIPGFGSHSTYKKFGMYASMGLGFVWSHHMYVGLDDRAYFTAATMIAPTGVKFSWLATYGGRPFLTFMFLFTGGTGVLNASDAFHDTYYVVLAFSLGYFPYNLFMFLFGMPDAGWSSSYQLGPDESNE'
p523
sg123
F0.13538
sg124
g125
sg33
S'173'
p524
sg127
g1
(g128
g12
(dp525
g130
I4
sg131
g132
sg133
g134
sg135
g132
sg136
I01
sg34
g137
sg138
g134
sg139
I0
sg140
I0
sg141
I0
sg142
g134
sg35
g143
sg144
I0
stRp526
sg146
g147
sg148
F1
sg149
Nsg30
S'MspicA'
p527
sbasg120
g363
sg123
F0.10536
sg124
g125
sg33
S'67'
p528
sg127
g1
(g128
g12
(dp529
g130
I6
sg131
g132
sg133
g134
sg135
g132
sg136
I01
sg34
g174
sg138
g134
sg139
I0
sg140
I0
sg141
I0
sg142
g134
sg35
g175
sg144
I0
stRp530
sg146
g147
sg148
F0.98999999999999999
sg149
Nsg30
S'NoName'
p531
sbasg120
g291
sg123
F0.03209
sg124
g125
sg33
S'97'
p532
sg127
g1
(g128
g12
(dp533
g130
I6
sg131
g132
sg133
g134
sg135
g132
sg136
I01
sg34
g174
sg138
g134
sg139
I0
sg140
I0
sg141
I0
sg142
g134
sg35
g175
sg144
I0
stRp534
sg146
g147
sg148
F0.98999999999999999
sg149
Nsg30
S'NoName'
p535
sbasg120
g278
sg123
F0.32869999999999999
sg124
g125
sg33
S'30'
p536
sg127
g1
(g128
g12
(dp537
g130
I6
sg131
g132
sg133
g134
sg135
g132
sg136
I01
sg34
g174
sg138
g134
sg139
I0
sg140
I0
sg141
I0
sg142
g134
sg35
g175
sg144
I0
stRp538
sg146
g147
sg148
F0.98999999999999999
sg149
Nsg30
S'NoName'
p539
sbag1
(g2
g3
NtRp540
(dp541
g6
g1
(g7
g3
NtRp542
(dp543
g10
g1
(g11
g12
(dtRp544
sg14
g1
(g11
g12
(dtRp545
sg16
g1
(g11
g12
(dtRp546
sg18
g1
(g11
g12
(dtRp547
sg20
g1
(g11
g12
(dtRp548
sg22
g1
(g11
g12
(dtRp549
sbsg24
g25
sg26
g27
((lp550
g33
ag32
ag29
ag30
atRp551
sg37
(lp552
g1
(g2
g3
NtRp553
(dp554
g6
g1
(g7
g3
NtRp555
(dp556
g10
g1
(g11
g12
(dtRp557
sg14
g1
(g11
g12
(dtRp558
sg16
g1
(g11
g12
(dtRp559
sg18
g1
(g11
g12
(dtRp560
sg20
g1
(g11
g12
(dtRp561
sg22
g1
(g11
g12
(dtRp562
sbsg24
g25
sg26
g27
((lp563
g33
ag32
ag29
ag30
atRp564
sg37
(lp565
g1
(g2
g3
NtRp566
(dp567
g6
g1
(g7
g3
NtRp568
(dp569
g10
g1
(g11
g12
(dtRp570
sg14
g1
(g11
g12
(dtRp571
sg16
g1
(g11
g12
(dtRp572
sg18
g1
(g11
g12
(dtRp573
sg20
g1
(g11
g12
(dtRp574
sg22
g1
(g11
g12
(dtRp575
sbsg24
S'Cze'
p576
sg26
g27
((lp577
g29
ag30
aS'sequence'
p578
ag32
ag33
aS'species'
p579
atRp580
sg37
(lp581
sg120
g553
sg121
S'SWLSTQNLYSRIELPNLNQNVHAMFVMPTGLANPQGDTFPRMNNAFVLLPMSLDGPGSGWTLYPPLTHSGSSMDMAFHLSSSIFGAINLTNMRGPLFWTALMMLALPVLAGTLLDRNFNTFVGGDPLYHIFWFFGHPEVYIIPVFGSQQVYKKFGMYASIGLGFVWSHHMFVGLDDRAYFSGASLIAPTGSKFSWLATYGGRPLLAFMVLFTGGTGVMNSSDMFHDTYYVVLVFGVAYFPYNLFWFLFGLPDAGWSSSYQFGPDESNE'
p582
sg123
F1.5682799999999999
sg124
g125
sg33
S'175'
p583
sg127
g1
(g128
g12
(dp584
g130
I4
sg131
g132
sg133
g134
sg135
g132
sg136
I01
sg34
g137
sg138
g134
sg139
I0
sg140
I0
sg141
I0
sg142
g134
sg35
g143
sg144
I0
stRp585
sg146
g147
sg148
F1
sg149
Nsg30
S'CzempA'
p586
sbag1
(g2
g3
NtRp587
(dp588
g6
g1
(g7
g3
NtRp589
(dp590
g10
g1
(g11
g12
(dtRp591
sg14
g1
(g11
g12
(dtRp592
sg16
g1
(g11
g12
(dtRp593
sg18
g1
(g11
g12
(dtRp594
sg20
g1
(g11
g12
(dtRp595
sg22
g1
(g11
g12
(dtRp596
sbsg24
g25
sg26
g27
((lp597
g33
ag32
ag29
ag30
atRp598
sg37
(lp599
g1
(g2
g3
NtRp600
(dp601
g6
g1
(g7
g3
NtRp602
(dp603
g10
g1
(g11
g12
(dtRp604
sg14
g1
(g11
g12
(dtRp605
sg16
g1
(g11
g12
(dtRp606
sg18
g1
(g11
g12
(dtRp607
sg20
g1
(g11
g12
(dtRp608
sg22
g1
(g11
g12
(dtRp609
sbsg24
S'Csa'
p610
sg26
g27
((lp611
g29
ag30
aS'sequence'
p612
ag32
ag33
aS'species'
p613
atRp614
sg37
(lp615
sg120
g587
sg121
S'----------RLELPNLNQNVHAMFVMPSGFGNPMGDMLARLNNSFWLVPLSLDGPGTGWTMYPPLSHSGASVDLVFHISSSLLGAMNFTNMRGTLFWTALLLLSLPVLSGTLLDRNFNTFEGGDMLYHMFWFFGHPEVYMMPGFGSQSVYKKFGMYASMGLGFVWSHHMFVGLDDRAYFTAATLMAPTGVKFSWLASYGGRPLLAFMFLFTGGTGVLNASDAFHDTYYVVLAFSLGYFPYNLFWFQFAMPDAGWSSSYQMGPDFSNE'
p616
sg123
F0.65920000000000001
sg124
g125
sg33
S'110'
p617
sg127
g1
(g128
g12
(dp618
g130
I4
sg131
g132
sg133
g134
sg135
g132
sg136
I01
sg34
g137
sg138
g134
sg139
I0
sg140
I0
sg141
I0
sg142
g134
sg35
g143
sg144
I0
stRp619
sg146
g147
sg148
F1
sg149
Nsg30
S'CsantA'
p620
sbag1
(g2
g3
NtRp621
(dp622
g6
g1
(g7
g3
NtRp623
(dp624
g10
g1
(g11
g12
(dtRp625
sg14
g1
(g11
g12
(dtRp626
sg16
g1
(g11
g12
(dtRp627
sg18
g1
(g11
g12
(dtRp628
sg20
g1
(g11
g12
(dtRp629
sg22
g1
(g11
g12
(dtRp630
sbsg24
S'Csa'
p631
sg26
g27
((lp632
g29
ag30
aS'sequence'
p633
ag32
ag33
aS'species'
p634
atRp635
sg37
(lp636
sg120
g587
sg121
S'RWLSTKDLYSRLELPAMSQNVHAMFVMPSGFANPMGDTLPRVNNAAILMPMSLEGPGTGWTVYPPLSHSGVSVDLVFHISSSLAGAMNLTNMRGPLFWTALLLLSLPVLAGTLIDRNFNTFDGGDVLYHLFWFFGHPEVYIIPGFGSESRYNKFGMYASIGLGFVWSHHMYVGLDDRSYFTAATLIAPTGVKFSWMATFGGRPFLTFLALFTGGTGVLNASDAFHDTYYVVLAFSMGYYPYNLFWFQFGQSDAGWSSSYQLGPDESNE'
p637
sg123
F1.3581099999999999
sg124
g125
sg33
S'113'
p638
sg127
g1
(g128
g12
(dp639
g130
I4
sg131
g132
sg133
g134
sg135
g132
sg136
I01
sg34
g137
sg138
g134
sg139
I0
sg140
I0
sg141
I0
sg142
g134
sg35
g143
sg144
I0
stRp640
sg146
g147
sg148
F1
sg149
Nsg30
S'CsalmA'
p641
sbasg120
g553
sg123
F0.19968
sg124
g125
sg33
S'186'
p642
sg127
g1
(g128
g12
(dp643
g130
I6
sg131
g132
sg133
g134
sg135
g132
sg136
I01
sg34
g174
sg138
g134
sg139
I0
sg140
I0
sg141
I0
sg142
g134
sg35
g175
sg144
I0
stRp644
sg146
g147
sg148
F0.97999999999999998
sg149
Nsg30
S'NoName'
p645
sbasg120
g540
sg123
F0.14363999999999999
sg124
g125
sg33
S'178'
p646
sg127
g1
(g128
g12
(dp647
g130
I6
sg131
g132
sg133
g134
sg135
g132
sg136
I01
sg34
g174
sg138
g134
sg139
I0
sg140
I0
sg141
I0
sg142
g134
sg35
g175
sg144
I0
stRp648
sg146
g147
sg148
F0.93000000000000005
sg149
Nsg30
S'NoName'
p649
sbag1
(g2
g3
NtRp650
(dp651
g6
g1
(g7
g3
NtRp652
(dp653
g10
g1
(g11
g12
(dtRp654
sg14
g1
(g11
g12
(dtRp655
sg16
g1
(g11
g12
(dtRp656
sg18
g1
(g11
g12
(dtRp657
sg20
g1
(g11
g12
(dtRp658
sg22
g1
(g11
g12
(dtRp659
sbsg24
S'Bar'
p660
sg26
g27
((lp661
g29
ag30
aS'sequence'
p662
ag32
ag33
aS'species'
p663
atRp664
sg37
(lp665
sg120
g540
sg121
S'RWLSTKDLYSRLELPNLNQNSHAMFVMPTGFGNPMGDMLSRLNNSFWLVPLSLEGPGTGWTVYPPLSHSGPSVDLVFHVSSSLLGAMNFTNMRGTLFWTVLLLLALPVLAGTLLDRNFNTFEGGDPLYHMFWFFGHPEVYIIPGFGSQAVYNKFGMYASIGLGFVWSHHMYVGMDDRAYFTAATLIAPTGVKFSWLASYGGRPLLTFIGLFTGGTGVLNAADAFHDSYYVVLAFSLGYFPYNLFWFQFSMPDAGWSSSVQLGPDVNNE'
p666
sg123
F0.74575000000000002
sg124
g125
sg33
S'184'
p667
sg127
g1
(g128
g12
(dp668
g130
I4
sg131
g132
sg133
g134
sg135
g132
sg136
I01
sg34
g137
sg138
g134
sg139
I0
sg140
I0
sg141
I0
sg142
g134
sg35
g143
sg144
I0
stRp669
sg146
g147
sg148
F1
sg149
Nsg30
S'BarxA'
p670
sbasg120
g278
sg123
F0.25233
sg124
g125
sg33
S'197'
p671
sg127
g1
(g128
g12
(dp672
g130
I6
sg131
g132
sg133
g134
sg135
g132
sg136
I01
sg34
g174
sg138
g134
sg139
I0
sg140
I0
sg141
I0
sg142
g134
sg35
g175
sg144
I0
stRp673
sg146
g147
sg148
F0.97999999999999998
sg149
Nsg30
S'NoName'
p674
sbasg120
g265
sg123
F0.42224
sg124
g125
sg33
S'77'
p675
sg127
g1
(g128
g12
(dp676
g130
I6
sg131
g132
sg133
g134
sg135
g132
sg136
I01
sg34
g174
sg138
g134
sg139
I0
sg140
I0
sg141
I0
sg142
g134
sg35
g175
sg144
I0
stRp677
sg146
g147
sg148
F0.97999999999999998
sg149
Nsg30
S'NoName'
p678
sbag1
(g2
g3
NtRp679
(dp680
g6
g1
(g7
g3
NtRp681
(dp682
g10
g1
(g11
g12
(dtRp683
sg14
g1
(g11
g12
(dtRp684
sg16
g1
(g11
g12
(dtRp685
sg18
g1
(g11
g12
(dtRp686
sg20
g1
(g11
g12
(dtRp687
sg22
g1
(g11
g12
(dtRp688
sbsg24
g25
sg26
g27
((lp689
g33
ag32
ag29
ag30
atRp690
sg37
(lp691
g1
(g2
g3
NtRp692
(dp693
g6
g1
(g7
g3
NtRp694
(dp695
g10
g1
(g11
g12
(dtRp696
sg14
g1
(g11
g12
(dtRp697
sg16
g1
(g11
g12
(dtRp698
sg18
g1
(g11
g12
(dtRp699
sg20
g1
(g11
g12
(dtRp700
sg22
g1
(g11
g12
(dtRp701
sbsg24
g25
sg26
g27
((lp702
g33
ag32
ag29
ag30
atRp703
sg37
(lp704
g1
(g2
g3
NtRp705
(dp706
g6
g1
(g7
g3
NtRp707
(dp708
g10
g1
(g11
g12
(dtRp709
sg14
g1
(g11
g12
(dtRp710
sg16
g1
(g11
g12
(dtRp711
sg18
g1
(g11
g12
(dtRp712
sg20
g1
(g11
g12
(dtRp713
sg22
g1
(g11
g12
(dtRp714
sbsg24
g25
sg26
g27
((lp715
g33
ag32
ag29
ag30
atRp716
sg37
(lp717
g1
(g2
g3
NtRp718
(dp719
g6
g1
(g7
g3
NtRp720
(dp721
g10
g1
(g11
g12
(dtRp722
sg14
g1
(g11
g12
(dtRp723
sg16
g1
(g11
g12
(dtRp724
sg18
g1
(g11
g12
(dtRp725
sg20
g1
(g11
g12
(dtRp726
sg22
g1
(g11
g12
(dtRp727
sbsg24
g25
sg26
g27
((lp728
g33
ag32
ag29
ag30
atRp729
sg37
(lp730
g1
(g2
g3
NtRp731
(dp732
g6
g1
(g7
g3
NtRp733
(dp734
g10
g1
(g11
g12
(dtRp735
sg14
g1
(g11
g12
(dtRp736
sg16
g1
(g11
g12
(dtRp737
sg18
g1
(g11
g12
(dtRp738
sg20
g1
(g11
g12
(dtRp739
sg22
g1
(g11
g12
(dtRp740
sbsg24
S'Mfa'
p741
sg26
g27
((lp742
g29
ag30
aS'sequence'
p743
ag32
ag33
aS'species'
p744
atRp745
sg37
(lp746
sg120
g718
sg121
S'RWLSTKDLYSRLELGNLNQNVHAMFVMPLGFGNPLGDMFARLNNSFWLPPLSLEGAGTGWTVYPPLSHSGPSVDLAFHLTSSLLGAINFTNMRGPLFWTALLLLSLPVLAGTLLDRNFNTFEGGDPLYHLFWFFGHPEVYIIPGFGSHSTYKKFGMYASIGLGFVWSHHMYVGLDDRAYFTSATMIAPTGIKFSWLATYGGRPMLAFLFLFTGGTGVLNASDAFHDTYFVVMAFSLAYYPYNLFWFMFGMPDAGWSSSYQMGPDESNE'
p747
sg123
F0.14163999999999999
sg124
g125
sg33
S'115'
p748
sg127
g1
(g128
g12
(dp749
g130
I4
sg131
g132
sg133
g134
sg135
g132
sg136
I01
sg34
g137
sg138
g134
sg139
I0
sg140
I0
sg141
I0
sg142
g134
sg35
g143
sg144
I0
stRp750
sg146
g147
sg148
F1
sg149
Nsg30
S'MfariB'
p751
sbag1
(g2
g3
NtRp752
(dp753
g6
g1
(g7
g3
NtRp754
(dp755
g10
g1
(g11
g12
(dtRp756
sg14
g1
(g11
g12
(dtRp757
sg16
g1
(g11
g12
(dtRp758
sg18
g1
(g11
g12
(dtRp759
sg20
g1
(g11
g12
(dtRp760
sg22
g1
(g11
g12
(dtRp761
sbsg24
S'Csa'
p762
sg26
g27
((lp763
g29
ag30
aS'sequence'
p764
ag32
ag33
aS'species'
p765
atRp766
sg37
(lp767
sg120
g718
sg121
S'RWLSTKDLYSRLELGNFNQNVHAMFVMPLGFGNPLGDMFARLNNSFWLPPLSLEGAGTGWTVYPPLSHSGPSVDLAFHLTSSLLGAINFTNMRGPLFWTALLLLSLPVLAATLLDRNFNTFEGGDPLYHLFWFFGHPEVYIIPGFGSHSTYKKFGMYASMGLGFVWSHHMYVGLDDRAYFTSATMIAPTGMKFSWLATYGGRPMLAFLFLFTGGTGVLNASDAFHDTYYVVMAFSLAYYPYNWFWFMFGMPDAGWSSSYQMGPDESNE'
p768
sg123
F0.069970000000000004
sg124
g125
sg33
S'112'
p769
sg127
g1
(g128
g12
(dp770
g130
I4
sg131
g132
sg133
g134
sg135
g132
sg136
I01
sg34
g137
sg138
g134
sg139
I0
sg140
I0
sg141
I0
sg142
g134
sg35
g143
sg144
I0
stRp771
sg146
g147
sg148
F1
sg149
Nsg30
S'CsakeA'
p772
sbasg120
g705
sg123
F0.048980000000000003
sg124
g125
sg33
S'109'
p773
sg127
g1
(g128
g12
(dp774
g130
I6
sg131
g132
sg133
g134
sg135
g132
sg136
I01
sg34
g174
sg138
g134
sg139
I0
sg140
I0
sg141
I0
sg142
g134
sg35
g175
sg144
I0
stRp775
sg146
g147
sg148
F0.98999999999999999
sg149
Nsg30
S'NoName'
p776
sbag1
(g2
g3
NtRp777
(dp778
g6
g1
(g7
g3
NtRp779
(dp780
g10
g1
(g11
g12
(dtRp781
sg14
g1
(g11
g12
(dtRp782
sg16
g1
(g11
g12
(dtRp783
sg18
g1
(g11
g12
(dtRp784
sg20
g1
(g11
g12
(dtRp785
sg22
g1
(g11
g12
(dtRp786
sbsg24
g25
sg26
g27
((lp787
g33
ag32
ag29
ag30
atRp788
sg37
(lp789
g1
(g2
g3
NtRp790
(dp791
g6
g1
(g7
g3
NtRp792
(dp793
g10
g1
(g11
g12
(dtRp794
sg14
g1
(g11
g12
(dtRp795
sg16
g1
(g11
g12
(dtRp796
sg18
g1
(g11
g12
(dtRp797
sg20
g1
(g11
g12
(dtRp798
sg22
g1
(g11
g12
(dtRp799
sbsg24
g25
sg26
g27
((lp800
g33
ag32
ag29
ag30
atRp801
sg37
(lp802
g1
(g2
g3
NtRp803
(dp804
g6
g1
(g7
g3
NtRp805
(dp806
g10
g1
(g11
g12
(dtRp807
sg14
g1
(g11
g12
(dtRp808
sg16
g1
(g11
g12
(dtRp809
sg18
g1
(g11
g12
(dtRp810
sg20
g1
(g11
g12
(dtRp811
sg22
g1
(g11
g12
(dtRp812
sbsg24
S'Mfa'
p813
sg26
g27
((lp814
g29
ag30
aS'sequence'
p815
ag32
ag33
aS'species'
p816
atRp817
sg37
(lp818
sg120
g790
sg121
S'RWLSTKDLYSRAELGNFNHNVHAMFVMPLGFGNPMGDMFARLNNSFWLPPLSLEGAGTGWTVYPPLSHSGPSVDLAFHLTSSLLGAMNFTNMRGPLFWTALLLLSLPVLAGTLLDRNFNTFEGGDPLYHLFWFFGHPEVYIIPGFGSHSTYKKFGMYASMGLGFVWSHHMYVGLDDRAYFTSATMMAPTGIKFSWLATYGGRPMLAFLFLFTGGTGVLNASDAFHDTYYMYMAFSLGYYPYNWFWFMFGMPDAGWSSSKQLGPDESNE'
p819
sg123
F0.29086000000000001
sg124
g125
sg33
S'156'
p820
sg127
g1
(g128
g12
(dp821
g130
I4
sg131
g132
sg133
g134
sg135
g132
sg136
I01
sg34
g137
sg138
g134
sg139
I0
sg140
I0
sg141
I0
sg142
g134
sg35
g143
sg144
I0
stRp822
sg146
g147
sg148
F1
sg149
Nsg30
S'MfariA'
p823
sbag1
(g2
g3
NtRp824
(dp825
g6
g1
(g7
g3
NtRp826
(dp827
g10
g1
(g11
g12
(dtRp828
sg14
g1
(g11
g12
(dtRp829
sg16
g1
(g11
g12
(dtRp830
sg18
g1
(g11
g12
(dtRp831
sg20
g1
(g11
g12
(dtRp832
sg22
g1
(g11
g12
(dtRp833
sbsg24
S'Dha'
p834
sg26
g27
((lp835
g29
ag30
aS'sequence'
p836
ag32
ag33
aS'species'
p837
atRp838
sg37
(lp839
sg120
g790
sg121
S'RWLSTKDLYSRMELGNFNQNVHAMFIMPWGFGNPLGDMFARLNNSFWLPPLSLEGAGTGWTLYPPLSHSGPSVDLAFHLTSSLLGAMNFTNMRGPLFWTALLLLSLPVLAATLLDRNFNTFEGGDPLYHLFWFFGHPEVYIMPGFGSHSTYKKFGMYASIGLGFVWSHHMFVGLDDRAYFTSATMIAPTGIKFSWLATYGGRPMLAFLFLFTGGTGVLNASDAFHDTYYVVMAFSLAYYPYNLFWFMFGMPDAGWSSSKQLGPDESND'
p840
sg123
F0.11043
sg124
g125
sg33
S'147'
p841
sg127
g1
(g128
g12
(dp842
g130
I4
sg131
g132
sg133
g134
sg135
g132
sg136
I01
sg34
g137
sg138
g134
sg139
I0
sg140
I0
sg141
I0
sg142
g134
sg35
g143
sg144
I0
stRp843
sg146
g147
sg148
F1
sg149
Nsg30
S'DhansA'
p844
sbasg120
g777
sg123
F0.046699999999999998
sg124
g125
sg33
S'122'
p845
sg127
g1
(g128
g12
(dp846
g130
I6
sg131
g132
sg133
g134
sg135
g132
sg136
I01
sg34
g174
sg138
g134
sg139
I0
sg140
I0
sg141
I0
sg142
g134
sg35
g175
sg144
I0
stRp847
sg146
g147
sg148
F0.65000000000000002
sg149
Nsg30
S'NoName'
p848
sbag1
(g2
g3
NtRp849
(dp850
g6
g1
(g7
g3
NtRp851
(dp852
g10
g1
(g11
g12
(dtRp853
sg14
g1
(g11
g12
(dtRp854
sg16
g1
(g11
g12
(dtRp855
sg18
g1
(g11
g12
(dtRp856
sg20
g1
(g11
g12
(dtRp857
sg22
g1
(g11
g12
(dtRp858
sbsg24
g25
sg26
g27
((lp859
g33
ag32
ag29
ag30
atRp860
sg37
(lp861
g1
(g2
g3
NtRp862
(dp863
g6
g1
(g7
g3
NtRp864
(dp865
g10
g1
(g11
g12
(dtRp866
sg14
g1
(g11
g12
(dtRp867
sg16
g1
(g11
g12
(dtRp868
sg18
g1
(g11
g12
(dtRp869
sg20
g1
(g11
g12
(dtRp870
sg22
g1
(g11
g12
(dtRp871
sbsg24
S'Clu'
p872
sg26
g27
((lp873
g29
ag30
aS'sequence'
p874
ag32
ag33
aS'species'
p875
atRp876
sg37
(lp877
sg120
g849
sg121
S'RWLSTKDLYSRLELPDLNQNVHAMFVMPLGFGNPMGDMFARLNNSFWLPPLSLEGAGTGWTVYPPLSHSGPSVDLAFHLTSSLLGAINFTNMRGPLFWTALLLLSLPVLAGTLLDRNFNTFEGGDPLYHLFWFFGHPEVYMMPGFGSHSTYKKFGMYASMGLGFVWSHHMYVGLDDRAYFTSATMMAPTGMKFSWLATYGGRPMLAFLFLFTGGTGVLNASDAFHDTYYVVMAFSLGYYPYNWFWFMFGMPDAGWSSSRQLGPDESNE'
p878
sg123
F0.037310000000000003
sg124
g125
sg33
S'140'
p879
sg127
g1
(g128
g12
(dp880
g130
I4
sg131
g132
sg133
g134
sg135
g132
sg136
I01
sg34
g137
sg138
g134
sg139
I0
sg140
I0
sg141
I0
sg142
g134
sg35
g143
sg144
I0
stRp881
sg146
g147
sg148
F1
sg149
Nsg30
S'ClusiA'
p882
sbag1
(g2
g3
NtRp883
(dp884
g6
g1
(g7
g3
NtRp885
(dp886
g10
g1
(g11
g12
(dtRp887
sg14
g1
(g11
g12
(dtRp888
sg16
g1
(g11
g12
(dtRp889
sg18
g1
(g11
g12
(dtRp890
sg20
g1
(g11
g12
(dtRp891
sg22
g1
(g11
g12
(dtRp892
sbsg24
g25
sg26
g27
((lp893
g33
ag32
ag29
ag30
atRp894
sg37
(lp895
g1
(g2
g3
NtRp896
(dp897
g6
g1
(g7
g3
NtRp898
(dp899
g10
g1
(g11
g12
(dtRp900
sg14
g1
(g11
g12
(dtRp901
sg16
g1
(g11
g12
(dtRp902
sg18
g1
(g11
g12
(dtRp903
sg20
g1
(g11
g12
(dtRp904
sg22
g1
(g11
g12
(dtRp905
sbsg24
S'Mgu'
p906
sg26
g27
((lp907
g29
ag30
aS'sequence'
p908
ag32
ag33
aS'species'
p909
atRp910
sg37
(lp911
sg120
g883
sg121
S'---------------------------------------------------------------------------------------------------------------------------------------------------------------------------------------------------------------------------------------MAFSLGYYPYNWFWFMFGMPDAGWSSSKQLGPDESNE'
p912
sg123
F0.0044999999999999997
sg124
g125
sg33
S'193'
p913
sg127
g1
(g128
g12
(dp914
g130
I4
sg131
g132
sg133
g134
sg135
g132
sg136
I01
sg34
g137
sg138
g134
sg139
I0
sg140
I0
sg141
I0
sg142
g134
sg35
g143
sg144
I0
stRp915
sg146
g147
sg148
F1
sg149
Nsg30
S'MguilB'
p916
sbag1
(g2
g3
NtRp917
(dp918
g6
g1
(g7
g3
NtRp919
(dp920
g10
g1
(g11
g12
(dtRp921
sg14
g1
(g11
g12
(dtRp922
sg16
g1
(g11
g12
(dtRp923
sg18
g1
(g11
g12
(dtRp924
sg20
g1
(g11
g12
(dtRp925
sg22
g1
(g11
g12
(dtRp926
sbsg24
S'Mgu'
p927
sg26
g27
((lp928
g29
ag30
aS'sequence'
p929
ag32
ag33
aS'species'
p930
atRp931
sg37
(lp932
sg120
g883
sg121
S'RWLSTKDLYSRMELGNFNQNVHAMFVMPIGFGNPMGDMFARLNNSFWLPPLSLEGAGTGWTVYPPLSHSGPSVDMAFHLTSSLLGAMNFTNMRGPLFWTALLLLSLPVLAGTLLDRNFNTFEGGDPLYHLFWFFGHPEVYMMPGFGSHSTYKKFGMYASIGLGFVWSHHMYVGLDDRAYFTSATMMAPTGMKFSWLSTYGGRPMLAFLFLFTGGTGVLNASDAFHDTYYVVMAFSLGYYPYNWFWFMFGMPDAGWSSSKQLGPDESNE'
p933
sg123
F0.0020100000000000001
sg124
g125
sg33
S'204'
p934
sg127
g1
(g128
g12
(dp935
g130
I4
sg131
g132
sg133
g134
sg135
g132
sg136
I01
sg34
g137
sg138
g134
sg139
I0
sg140
I0
sg141
I0
sg142
g134
sg35
g143
sg144
I0
stRp936
sg146
g147
sg148
F1
sg149
Nsg30
S'MguilA'
p937
sbasg120
g849
sg123
F0.25231999999999999
sg124
g125
sg33
S'199'
p938
sg127
g1
(g128
g12
(dp939
g130
I6
sg131
g132
sg133
g134
sg135
g132
sg136
I01
sg34
g174
sg138
g134
sg139
I0
sg140
I0
sg141
I0
sg142
g134
sg35
g175
sg144
I0
stRp940
sg146
g147
sg148
F0.98999999999999999
sg149
Nsg30
S'NoName'
p941
sbasg120
g777
sg123
F0.090679999999999997
sg124
g125
sg33
S'152'
p942
sg127
g1
(g128
g12
(dp943
g130
I6
sg131
g132
sg133
g134
sg135
g132
sg136
I01
sg34
g174
sg138
g134
sg139
I0
sg140
I0
sg141
I0
sg142
g134
sg35
g175
sg144
I0
stRp944
sg146
g147
sg148
F0.98999999999999999
sg149
Nsg30
S'NoName'
p945
sbasg120
g705
sg123
F0.032190000000000003
sg124
g125
sg33
S'123'
p946
sg127
g1
(g128
g12
(dp947
g130
I6
sg131
g132
sg133
g134
sg135
g132
sg136
I01
sg34
g174
sg138
g134
sg139
I0
sg140
I0
sg141
I0
sg142
g134
sg35
g175
sg144
I0
stRp948
sg146
g147
sg148
F0.64000000000000001
sg149
Nsg30
S'NoName'
p949
sbasg120
g692
sg123
F0.12181
sg124
g125
sg33
S'107'
p950
sg127
g1
(g128
g12
(dp951
g130
I6
sg131
g132
sg133
g134
sg135
g132
sg136
I01
sg34
g174
sg138
g134
sg139
I0
sg140
I0
sg141
I0
sg142
g134
sg35
g175
sg144
I0
stRp952
sg146
g147
sg148
F0.98999999999999999
sg149
Nsg30
S'NoName'
p953
sbag1
(g2
g3
NtRp954
(dp955
g6
g1
(g7
g3
NtRp956
(dp957
g10
g1
(g11
g12
(dtRp958
sg14
g1
(g11
g12
(dtRp959
sg16
g1
(g11
g12
(dtRp960
sg18
g1
(g11
g12
(dtRp961
sg20
g1
(g11
g12
(dtRp962
sg22
g1
(g11
g12
(dtRp963
sbsg24
g25
sg26
g27
((lp964
g33
ag32
ag29
ag30
atRp965
sg37
(lp966
g1
(g2
g3
NtRp967
(dp968
g6
g1
(g7
g3
NtRp969
(dp970
g10
g1
(g11
g12
(dtRp971
sg14
g1
(g11
g12
(dtRp972
sg16
g1
(g11
g12
(dtRp973
sg18
g1
(g11
g12
(dtRp974
sg20
g1
(g11
g12
(dtRp975
sg22
g1
(g11
g12
(dtRp976
sbsg24
g25
sg26
g27
((lp977
g33
ag32
ag29
ag30
atRp978
sg37
(lp979
g1
(g2
g3
NtRp980
(dp981
g6
g1
(g7
g3
NtRp982
(dp983
g10
g1
(g11
g12
(dtRp984
sg14
g1
(g11
g12
(dtRp985
sg16
g1
(g11
g12
(dtRp986
sg18
g1
(g11
g12
(dtRp987
sg20
g1
(g11
g12
(dtRp988
sg22
g1
(g11
g12
(dtRp989
sbsg24
S'Cbl'
p990
sg26
g27
((lp991
g29
ag30
aS'sequence'
p992
ag32
ag33
aS'species'
p993
atRp994
sg37
(lp995
sg120
g967
sg121
S'RWLSTKDLYSRLELANLNQNVHAMFVMPLGMGNPMGDMFARLNNSFWLPPLSLEGPGTGWTLYAPLSHSGPSVDMAFHLTSSLLGAINFTNMRGPLYWTALLLLSLPVLAATLLDRNFNTFEGGDPLYHLFWFFGHPEVYMIPGFGSHSTYKKFGMYASIGLGFVWSHHMYVGLDDRAYFTSATMIAPTGIKFSWMATYGGRPMLAFLFLFTGGTGVLNASDAFHDTYYVVMAFSLGYYPYNLFWFMFGMPDAGWSSSYQLGPDESNE'
p996
sg123
F0.36785000000000001
sg124
g125
sg33
S'211'
p997
sg127
g1
(g128
g12
(dp998
g130
I4
sg131
g132
sg133
g134
sg135
g132
sg136
I01
sg34
g137
sg138
g134
sg139
I0
sg140
I0
sg141
I0
sg142
g134
sg35
g143
sg144
I0
stRp999
sg146
g147
sg148
F1
sg149
Nsg30
S'CblacA'
p1000
sbag1
(g2
g3
NtRp1001
(dp1002
g6
g1
(g7
g3
NtRp1003
(dp1004
g10
g1
(g11
g12
(dtRp1005
sg14
g1
(g11
g12
(dtRp1006
sg16
g1
(g11
g12
(dtRp1007
sg18
g1
(g11
g12
(dtRp1008
sg20
g1
(g11
g12
(dtRp1009
sg22
g1
(g11
g12
(dtRp1010
sbsg24
g25
sg26
g27
((lp1011
g33
ag32
ag29
ag30
atRp1012
sg37
(lp1013
g1
(g2
g3
NtRp1014
(dp1015
g6
g1
(g7
g3
NtRp1016
(dp1017
g10
g1
(g11
g12
(dtRp1018
sg14
g1
(g11
g12
(dtRp1019
sg16
g1
(g11
g12
(dtRp1020
sg18
g1
(g11
g12
(dtRp1021
sg20
g1
(g11
g12
(dtRp1022
sg22
g1
(g11
g12
(dtRp1023
sbsg24
g25
sg26
g27
((lp1024
g33
ag32
ag29
ag30
atRp1025
sg37
(lp1026
g1
(g2
g3
NtRp1027
(dp1028
g6
g1
(g7
g3
NtRp1029
(dp1030
g10
g1
(g11
g12
(dtRp1031
sg14
g1
(g11
g12
(dtRp1032
sg16
g1
(g11
g12
(dtRp1033
sg18
g1
(g11
g12
(dtRp1034
sg20
g1
(g11
g12
(dtRp1035
sg22
g1
(g11
g12
(dtRp1036
sbsg24
g25
sg26
g27
((lp1037
g33
ag32
ag29
ag30
atRp1038
sg37
(lp1039
g1
(g2
g3
NtRp1040
(dp1041
g6
g1
(g7
g3
NtRp1042
(dp1043
g10
g1
(g11
g12
(dtRp1044
sg14
g1
(g11
g12
(dtRp1045
sg16
g1
(g11
g12
(dtRp1046
sg18
g1
(g11
g12
(dtRp1047
sg20
g1
(g11
g12
(dtRp1048
sg22
g1
(g11
g12
(dtRp1049
sbsg24
g25
sg26
g27
((lp1050
g33
ag32
ag29
ag30
atRp1051
sg37
(lp1052
g1
(g2
g3
NtRp1053
(dp1054
g6
g1
(g7
g3
NtRp1055
(dp1056
g10
g1
(g11
g12
(dtRp1057
sg14
g1
(g11
g12
(dtRp1058
sg16
g1
(g11
g12
(dtRp1059
sg18
g1
(g11
g12
(dtRp1060
sg20
g1
(g11
g12
(dtRp1061
sg22
g1
(g11
g12
(dtRp1062
sbsg24
S'Lel'
p1063
sg26
g27
((lp1064
g29
ag30
aS'sequence'
p1065
ag32
ag33
aS'species'
p1066
atRp1067
sg37
(lp1068
sg120
g1040
sg121
S'RWLSTKDLYSRLELPGLDQNVHAMFVMPLGFGNPMGDMFARLNNSFWLPPLSLEGAGTGWTVYPPLSHSGPSVDLAFHLTSSLLGAINFTNMRGPLYWTALLLFSLPVLAGTLLDRNFNTFDGGDPLYHLFWFFGHPEVYIIPGFGSHSTYKKFGMYASIGLGFVWSHHMYVGLDDRAYFTSATMIAPTGIKFSWLATYGGRPMLAFLFLFTGGTGVLNASDAFHDTYYTVMAFSLGYYYYNLFWFMFGMPDAGWSSSYQLGPDESNE'
p1069
sg123
F0.18278
sg124
g125
sg33
S'151'
p1070
sg127
g1
(g128
g12
(dp1071
g130
I4
sg131
g132
sg133
g134
sg135
g132
sg136
I01
sg34
g137
sg138
g134
sg139
I0
sg140
I0
sg141
I0
sg142
g134
sg35
g143
sg144
I0
stRp1072
sg146
g147
sg148
F1
sg149
Nsg30
S'LelonA'
p1073
sbag1
(g2
g3
NtRp1074
(dp1075
g6
g1
(g7
g3
NtRp1076
(dp1077
g10
g1
(g11
g12
(dtRp1078
sg14
g1
(g11
g12
(dtRp1079
sg16
g1
(g11
g12
(dtRp1080
sg18
g1
(g11
g12
(dtRp1081
sg20
g1
(g11
g12
(dtRp1082
sg22
g1
(g11
g12
(dtRp1083
sbsg24
S'Cox'
p1084
sg26
g27
((lp1085
g29
ag30
aS'sequence'
p1086
ag32
ag33
aS'species'
p1087
atRp1088
sg37
(lp1089
sg120
g1040
sg121
S'RWLSTKDLYSRLELSGLDQNVHAMFVMPIGFGNPMGDMFARLNNSFWLPPLSLEGPGVGWTVYPPLSHSGPSVDLAFHLTSSLLGAINFTNMRGPLYWTALLLLSLPVLAGTLLDRNFNTFDGGDPLYHLFWFFGHPEVYMIPGFGSHATYKKFGMYASIGLGFVWSHHMYVGLDDRAYFTSATMIAPTGIKFSWLATYGGRPMLAFLFLFTGGTGILNASDAFHDTYYTVMAFSLGYLYYNIFWFMFGMPDAGWSSSYQLGPDESNE'
p1090
sg123
F0.17860000000000001
sg124
g125
sg33
S'166'
p1091
sg127
g1
(g128
g12
(dp1092
g130
I4
sg131
g132
sg133
g134
sg135
g132
sg136
I01
sg34
g137
sg138
g134
sg139
I0
sg140
I0
sg141
I0
sg142
g134
sg35
g143
sg144
I0
stRp1093
sg146
g147
sg148
F1
sg149
Nsg30
S'CoxycA'
p1094
sbasg120
g1027
sg123
F0.041480000000000003
sg124
g125
sg33
S'161'
p1095
sg127
g1
(g128
g12
(dp1096
g130
I6
sg131
g132
sg133
g134
sg135
g132
sg136
I01
sg34
g174
sg138
g134
sg139
I0
sg140
I0
sg141
I0
sg142
g134
sg35
g175
sg144
I0
stRp1097
sg146
g147
sg148
F0.98999999999999999
sg149
Nsg30
S'NoName'
p1098
sbag1
(g2
g3
NtRp1099
(dp1100
g6
g1
(g7
g3
NtRp1101
(dp1102
g10
g1
(g11
g12
(dtRp1103
sg14
g1
(g11
g12
(dtRp1104
sg16
g1
(g11
g12
(dtRp1105
sg18
g1
(g11
g12
(dtRp1106
sg20
g1
(g11
g12
(dtRp1107
sg22
g1
(g11
g12
(dtRp1108
sbsg24
g25
sg26
g27
((lp1109
g33
ag32
ag29
ag30
atRp1110
sg37
(lp1111
g1
(g2
g3
NtRp1112
(dp1113
g6
g1
(g7
g3
NtRp1114
(dp1115
g10
g1
(g11
g12
(dtRp1116
sg14
g1
(g11
g12
(dtRp1117
sg16
g1
(g11
g12
(dtRp1118
sg18
g1
(g11
g12
(dtRp1119
sg20
g1
(g11
g12
(dtRp1120
sg22
g1
(g11
g12
(dtRp1121
sbsg24
g25
sg26
g27
((lp1122
g33
ag32
ag29
ag30
atRp1123
sg37
(lp1124
g1
(g2
g3
NtRp1125
(dp1126
g6
g1
(g7
g3
NtRp1127
(dp1128
g10
g1
(g11
g12
(dtRp1129
sg14
g1
(g11
g12
(dtRp1130
sg16
g1
(g11
g12
(dtRp1131
sg18
g1
(g11
g12
(dtRp1132
sg20
g1
(g11
g12
(dtRp1133
sg22
g1
(g11
g12
(dtRp1134
sbsg24
g25
sg26
g27
((lp1135
g33
ag32
ag29
ag30
atRp1136
sg37
(lp1137
g1
(g2
g3
NtRp1138
(dp1139
g6
g1
(g7
g3
NtRp1140
(dp1141
g10
g1
(g11
g12
(dtRp1142
sg14
g1
(g11
g12
(dtRp1143
sg16
g1
(g11
g12
(dtRp1144
sg18
g1
(g11
g12
(dtRp1145
sg20
g1
(g11
g12
(dtRp1146
sg22
g1
(g11
g12
(dtRp1147
sbsg24
S'Cth'
p1148
sg26
g27
((lp1149
g29
ag30
aS'sequence'
p1150
ag32
ag33
aS'species'
p1151
atRp1152
sg37
(lp1153
sg120
g1125
sg121
S'RWLSTKDLYSRLELPGLNQNVHAMFVMPLGFGNPMGDMFARLNNSFWLPPLSLEGAGTGWTVYPPLSHSGPSVDLAFHLTSSLLGAINFTNMRGPLYWTALLLLSLPVLAGTLLDRNFNTFEGGDPLYHLFWFFGHPEVYIIPGFGSHSTYKKFGMYASIGLGFVWSHHMYVGLDDRAYFTSATMIAPTGIKFSWLATYGGRPMLAFLFLFTGGTGVLNASDAFHDTYYTVMAFSLGYYYYNLFWFMFGMPDAGWSSSYQLGPDESNE'
p1154
sg123
F0.010059999999999999
sg124
g125
sg33
S'164'
p1155
sg127
g1
(g128
g12
(dp1156
g130
I4
sg131
g132
sg133
g134
sg135
g132
sg136
I01
sg34
g137
sg138
g134
sg139
I0
sg140
I0
sg141
I0
sg142
g134
sg35
g143
sg144
I0
stRp1157
sg146
g147
sg148
F1
sg149
Nsg30
S'CtheaA'
p1158
sbag1
(g2
g3
NtRp1159
(dp1160
g6
g1
(g7
g3
NtRp1161
(dp1162
g10
g1
(g11
g12
(dtRp1163
sg14
g1
(g11
g12
(dtRp1164
sg16
g1
(g11
g12
(dtRp1165
sg18
g1
(g11
g12
(dtRp1166
sg20
g1
(g11
g12
(dtRp1167
sg22
g1
(g11
g12
(dtRp1168
sbsg24
g25
sg26
g27
((lp1169
g33
ag32
ag29
ag30
atRp1170
sg37
(lp1171
g1
(g2
g3
NtRp1172
(dp1173
g6
g1
(g7
g3
NtRp1174
(dp1175
g10
g1
(g11
g12
(dtRp1176
sg14
g1
(g11
g12
(dtRp1177
sg16
g1
(g11
g12
(dtRp1178
sg18
g1
(g11
g12
(dtRp1179
sg20
g1
(g11
g12
(dtRp1180
sg22
g1
(g11
g12
(dtRp1181
sbsg24
g25
sg26
g27
((lp1182
g33
ag32
ag29
ag30
atRp1183
sg37
(lp1184
g1
(g2
g3
NtRp1185
(dp1186
g6
g1
(g7
g3
NtRp1187
(dp1188
g10
g1
(g11
g12
(dtRp1189
sg14
g1
(g11
g12
(dtRp1190
sg16
g1
(g11
g12
(dtRp1191
sg18
g1
(g11
g12
(dtRp1192
sg20
g1
(g11
g12
(dtRp1193
sg22
g1
(g11
g12
(dtRp1194
sbsg24
g25
sg26
g27
((lp1195
g33
ag32
ag29
ag30
atRp1196
sg37
(lp1197
g1
(g2
g3
NtRp1198
(dp1199
g6
g1
(g7
g3
NtRp1200
(dp1201
g10
g1
(g11
g12
(dtRp1202
sg14
g1
(g11
g12
(dtRp1203
sg16
g1
(g11
g12
(dtRp1204
sg18
g1
(g11
g12
(dtRp1205
sg20
g1
(g11
g12
(dtRp1206
sg22
g1
(g11
g12
(dtRp1207
sbsg24
S'Cor'
p1208
sg26
g27
((lp1209
g29
ag30
aS'sequence'
p1210
ag32
ag33
aS'species'
p1211
atRp1212
sg37
(lp1213
sg120
g1185
sg121
S'RWLSTKDLYSRLELPGLNQNVHAMFVMPLGFGNPMGDMFARLNNSFWLPPLSLEGAGTGWTVYPPLSHSGPSVDLAFHLTSSLLGAINFTNMRGPLFWTALLLLSLPVLAGTLLDRNFNTFEGGDPLYHLFWFFGHPEVYIIPGFGSHSTYKKFGMYASIGLGFVWSHHMYVGLDDRAYFTSATMIAPTGIKFSWLATYGGRPMLAFLFLFTGGTGVLNASDAFHDTYYTVMAFSLGYYYYNLFWFMFGMPDAGWSSSYQLGPDESNE'
p1214
sg123
F0.00132
sg124
g125
sg33
S'145'
p1215
sg127
g1
(g128
g12
(dp1216
g130
I4
sg131
g132
sg133
g134
sg135
g132
sg136
I01
sg34
g137
sg138
g134
sg139
I0
sg140
I0
sg141
I0
sg142
g134
sg35
g143
sg144
I0
stRp1217
sg146
g147
sg148
F1
sg149
Nsg30
S'CorthC'
p1218
sbag1
(g2
g3
NtRp1219
(dp1220
g6
g1
(g7
g3
NtRp1221
(dp1222
g10
g1
(g11
g12
(dtRp1223
sg14
g1
(g11
g12
(dtRp1224
sg16
g1
(g11
g12
(dtRp1225
sg18
g1
(g11
g12
(dtRp1226
sg20
g1
(g11
g12
(dtRp1227
sg22
g1
(g11
g12
(dtRp1228
sbsg24
S'Cor'
p1229
sg26
g27
((lp1230
g29
ag30
aS'sequence'
p1231
ag32
ag33
aS'species'
p1232
atRp1233
sg37
(lp1234
sg120
g1185
sg121
S'RWLSTKDLYSRLELPGLNQNVHAMFVMPLGFGNPMGDMFARLNNSFWLPPLSLEGAGTGWTVYPPLSHSGPSVDLAFHLTSSLLGAINFTNMRGPLFWTALLLLSLPVLAGTLLDRNFNTFEGGDPLYHLFWFFGHPEVYIIPGFGSHSTYKKFGMYASIGLGFVWSHHMYVGLDDRAYFTSATMIAPTGIKFSWLATYGGRPMLAFLFLFTGGTGVLNASDAFHDTYYTVMAFSLGYYYYNLFWFMFGMPDAGWSSSYQLGPDESNE'
p1235
sg123
F0.00093000000000000005
sg124
g125
sg33
S'136'
p1236
sg127
g1
(g128
g12
(dp1237
g130
I4
sg131
g132
sg133
g134
sg135
g132
sg136
I01
sg34
g137
sg138
g134
sg139
I0
sg140
I0
sg141
I0
sg142
g134
sg35
g143
sg144
I0
stRp1238
sg146
g147
sg148
F1
sg149
Nsg30
S'CorthB'
p1239
sbasg120
g1172
sg123
F0.00052999999999999998
sg124
g125
sg33
S'128'
p1240
sg127
g1
(g128
g12
(dp1241
g130
I6
sg131
g132
sg133
g134
sg135
g132
sg136
I01
sg34
g174
sg138
g134
sg139
I0
sg140
I0
sg141
I0
sg142
g134
sg35
g175
sg144
I0
stRp1242
sg146
g147
sg148
F0.85999999999999999
sg149
Nsg30
S'NoName'
p1243
sbag1
(g2
g3
NtRp1244
(dp1245
g6
g1
(g7
g3
NtRp1246
(dp1247
g10
g1
(g11
g12
(dtRp1248
sg14
g1
(g11
g12
(dtRp1249
sg16
g1
(g11
g12
(dtRp1250
sg18
g1
(g11
g12
(dtRp1251
sg20
g1
(g11
g12
(dtRp1252
sg22
g1
(g11
g12
(dtRp1253
sbsg24
S'Cor'
p1254
sg26
g27
((lp1255
g29
ag30
aS'sequence'
p1256
ag32
ag33
aS'species'
p1257
atRp1258
sg37
(lp1259
sg120
g1172
sg121
S'RWLSTKDLYSRLELPGLNQNVHAMFVMPLGFGNPMGDMFARLNNSFWLPPLSLEGAGTGWTVYPPLSHSGPSVDLAFHLTSSLLGAINFTNMRGPLFWTALLLLSLPVLAGTLLDRNFNTFEGGDPLYHLFWFFGHPEVYIIPGFGSHSTYKKFGMYASIGLGFVWSHHMYVGLDDRAYFTSATMIAPTGIKFSWLATYGGRPMLAFLFLFTGGTGVLNASDAFHDTYYTVMAFSLGYYYYNLFWFMFGMPDAGWSSSYQLGPDESNE'
p1260
sg123
F0.0021099999999999999
sg124
g125
sg33
S'133'
p1261
sg127
g1
(g128
g12
(dp1262
g130
I4
sg131
g132
sg133
g134
sg135
g132
sg136
I01
sg34
g137
sg138
g134
sg139
I0
sg140
I0
sg141
I0
sg142
g134
sg35
g143
sg144
I0
stRp1263
sg146
g147
sg148
F1
sg149
Nsg30
S'CorthA'
p1264
sbasg120
g1159
sg123
F0.0031199999999999999
sg124
g125
sg33
S'138'
p1265
sg127
g1
(g128
g12
(dp1266
g130
I6
sg131
g132
sg133
g134
sg135
g132
sg136
I01
sg34
g174
sg138
g134
sg139
I0
sg140
I0
sg141
I0
sg142
g134
sg35
g175
sg144
I0
stRp1267
sg146
g147
sg148
F0.98999999999999999
sg149
Nsg30
S'NoName'
p1268
sbag1
(g2
g3
NtRp1269
(dp1270
g6
g1
(g7
g3
NtRp1271
(dp1272
g10
g1
(g11
g12
(dtRp1273
sg14
g1
(g11
g12
(dtRp1274
sg16
g1
(g11
g12
(dtRp1275
sg18
g1
(g11
g12
(dtRp1276
sg20
g1
(g11
g12
(dtRp1277
sg22
g1
(g11
g12
(dtRp1278
sbsg24
g25
sg26
g27
((lp1279
g33
ag32
ag29
ag30
atRp1280
sg37
(lp1281
g1
(g2
g3
NtRp1282
(dp1283
g6
g1
(g7
g3
NtRp1284
(dp1285
g10
g1
(g11
g12
(dtRp1286
sg14
g1
(g11
g12
(dtRp1287
sg16
g1
(g11
g12
(dtRp1288
sg18
g1
(g11
g12
(dtRp1289
sg20
g1
(g11
g12
(dtRp1290
sg22
g1
(g11
g12
(dtRp1291
sbsg24
g25
sg26
g27
((lp1292
g33
ag32
ag29
ag30
atRp1293
sg37
(lp1294
g1
(g2
g3
NtRp1295
(dp1296
g6
g1
(g7
g3
NtRp1297
(dp1298
g10
g1
(g11
g12
(dtRp1299
sg14
g1
(g11
g12
(dtRp1300
sg16
g1
(g11
g12
(dtRp1301
sg18
g1
(g11
g12
(dtRp1302
sg20
g1
(g11
g12
(dtRp1303
sg22
g1
(g11
g12
(dtRp1304
sbsg24
S'Cpa'
p1305
sg26
g27
((lp1306
g29
ag30
aS'sequence'
p1307
ag32
ag33
aS'species'
p1308
atRp1309
sg37
(lp1310
sg120
g1282
sg121
S'RWLSTKDLYSRLELPGLNQNVHAMFVMPLGFGNPMGDMFARLNNSFWLPPLSLEGAGTGWTVYPPLSHSGPSVDLAFHLTSSLLGAINFTNMRGPLFWTALLLLSLPVLAGTLLDRNFNTFEGGDPLYHLFWFFGHPEVYIIPGFGSHSTYKKFGMYASIGLGFVWSHHMYVGLDDRAYFTSATMIAPTSIKFSWLATYGGRTALAFIFLFTGGTGVLNSADPFHDSYYVVMAFSIGWLPYNLFWFMFGMNDAGWSSAYQLGPSGTNE'
p1311
sg123
F0.00012999999999999999
sg124
g125
sg33
S'208'
p1312
sg127
g1
(g128
g12
(dp1313
g130
I4
sg131
g132
sg133
g134
sg135
g132
sg136
I01
sg34
g137
sg138
g134
sg139
I0
sg140
I0
sg141
I0
sg142
g134
sg35
g143
sg144
I0
stRp1314
sg146
g147
sg148
F1
sg149
Nsg30
S'CparaD'
p1315
sbag1
(g2
g3
NtRp1316
(dp1317
g6
g1
(g7
g3
NtRp1318
(dp1319
g10
g1
(g11
g12
(dtRp1320
sg14
g1
(g11
g12
(dtRp1321
sg16
g1
(g11
g12
(dtRp1322
sg18
g1
(g11
g12
(dtRp1323
sg20
g1
(g11
g12
(dtRp1324
sg22
g1
(g11
g12
(dtRp1325
sbsg24
S'Cpa'
p1326
sg26
g27
((lp1327
g29
ag30
aS'sequence'
p1328
ag32
ag33
aS'species'
p1329
atRp1330
sg37
(lp1331
sg120
g1282
sg121
S'RWLSTKDLYSRLELPGLNQNVHAMFVMPLGFGNPMGDMFARLNNSFWLPPLSLEGAGTGWTVYPPLSHSGPSVDLAFHLTSSLLGAINFTNMRGPLFWTALLLLSLPVLAGTLLDRNFNTFEGGDPLYHLFWFFGHPEVYIIPGFGSHSTYKKFGMYASIGLGFVWSHHMYVGLDDRAYFTSATMIAPTGIKFSWLATYGGRPMLAFLFLFTGGTGVVNASDAFHDTYYVVMAFSLGYYYYNLFWFMFGMPDAGWSSSYSLGPDESNE'
p1332
sg123
F0.00012999999999999999
sg124
g125
sg33
S'214'
p1333
sg127
g1
(g128
g12
(dp1334
g130
I4
sg131
g132
sg133
g134
sg135
g132
sg136
I01
sg34
g137
sg138
g134
sg139
I0
sg140
I0
sg141
I0
sg142
g134
sg35
g143
sg144
I0
stRp1335
sg146
g147
sg148
F1
sg149
Nsg30
S'CparaB'
p1336
sbasg120
g1269
sg123
F0.00051000000000000004
sg124
g125
sg33
S'216'
p1337
sg127
g1
(g128
g12
(dp1338
g130
I6
sg131
g132
sg133
g134
sg135
g132
sg136
I01
sg34
g174
sg138
g134
sg139
I0
sg140
I0
sg141
I0
sg142
g134
sg35
g175
sg144
I0
stRp1339
sg146
g147
sg148
F0.98999999999999999
sg149
Nsg30
S'NoName'
p1340
sbag1
(g2
g3
NtRp1341
(dp1342
g6
g1
(g7
g3
NtRp1343
(dp1344
g10
g1
(g11
g12
(dtRp1345
sg14
g1
(g11
g12
(dtRp1346
sg16
g1
(g11
g12
(dtRp1347
sg18
g1
(g11
g12
(dtRp1348
sg20
g1
(g11
g12
(dtRp1349
sg22
g1
(g11
g12
(dtRp1350
sbsg24
S'Cpa'
p1351
sg26
g27
((lp1352
g29
ag30
aS'sequence'
p1353
ag32
ag33
aS'species'
p1354
atRp1355
sg37
(lp1356
sg120
g1269
sg121
S'RWLSTKDLYSRLELPGLNQNVHAMFVMPLGFGNPMGDMFARLNNSFWLPPLSLEGAGTGWTVYPPLSHSGPSVDLAFHLTSSLLGAINFTNMRGPLFWTALLLLSLPVLAGTLLDRNFNTFEGGDPLYHLFWFFGHPEVYIIPGFGSHSTYKKFGMYASIGLGFVWSHHMYVGLDDRAYFTSATMIAPTGIKFSWLATYGGRPMLAFLFLFTGGTGVVNASDAFHDTYYVVMAFSLGYYYYNLFWFMFGMPDAGWSSSYSLGPDESNE'
p1357
sg123
F0.00012
sg124
g125
sg33
S'222'
p1358
sg127
g1
(g128
g12
(dp1359
g130
I4
sg131
g132
sg133
g134
sg135
g132
sg136
I01
sg34
g137
sg138
g134
sg139
I0
sg140
I0
sg141
I0
sg142
g134
sg35
g143
sg144
I0
stRp1360
sg146
g147
sg148
F1
sg149
Nsg30
S'CparaC'
p1361
sbasg120
g1159
sg123
F1.0000000000000001e-05
sg124
g125
sg33
S'130'
p1362
sg127
g1
(g128
g12
(dp1363
g130
I6
sg131
g132
sg133
g134
sg135
g132
sg136
I01
sg34
g174
sg138
g134
sg139
I0
sg140
I0
sg141
I0
sg142
g134
sg35
g175
sg144
I0
stRp1364
sg146
g147
sg148
F1
sg149
Nsg30
S'NoName'
p1365
sbasg120
g1125
sg123
F0.0032599999999999999
sg124
g125
sg33
S'135'
p1366
sg127
g1
(g128
g12
(dp1367
g130
I6
sg131
g132
sg133
g134
sg135
g132
sg136
I01
sg34
g174
sg138
g134
sg139
I0
sg140
I0
sg141
I0
sg142
g134
sg35
g175
sg144
I0
stRp1368
sg146
g147
sg148
F0.97999999999999998
sg149
Nsg30
S'NoName'
p1369
sbasg120
g1112
sg123
F1.0000000000000001e-05
sg124
g125
sg33
S'155'
p1370
sg127
g1
(g128
g12
(dp1371
g130
I6
sg131
g132
sg133
g134
sg135
g132
sg136
I01
sg34
g174
sg138
g134
sg139
I0
sg140
I0
sg141
I0
sg142
g134
sg35
g175
sg144
I0
stRp1372
sg146
g147
sg148
F1
sg149
Nsg30
S'NoName'
p1373
sbag1
(g2
g3
NtRp1374
(dp1375
g6
g1
(g7
g3
NtRp1376
(dp1377
g10
g1
(g11
g12
(dtRp1378
sg14
g1
(g11
g12
(dtRp1379
sg16
g1
(g11
g12
(dtRp1380
sg18
g1
(g11
g12
(dtRp1381
sg20
g1
(g11
g12
(dtRp1382
sg22
g1
(g11
g12
(dtRp1383
sbsg24
g25
sg26
g27
((lp1384
g33
ag32
ag29
ag30
atRp1385
sg37
(lp1386
g1
(g2
g3
NtRp1387
(dp1388
g6
g1
(g7
g3
NtRp1389
(dp1390
g10
g1
(g11
g12
(dtRp1391
sg14
g1
(g11
g12
(dtRp1392
sg16
g1
(g11
g12
(dtRp1393
sg18
g1
(g11
g12
(dtRp1394
sg20
g1
(g11
g12
(dtRp1395
sg22
g1
(g11
g12
(dtRp1396
sbsg24
g25
sg26
g27
((lp1397
g33
ag32
ag29
ag30
atRp1398
sg37
(lp1399
g1
(g2
g3
NtRp1400
(dp1401
g6
g1
(g7
g3
NtRp1402
(dp1403
g10
g1
(g11
g12
(dtRp1404
sg14
g1
(g11
g12
(dtRp1405
sg16
g1
(g11
g12
(dtRp1406
sg18
g1
(g11
g12
(dtRp1407
sg20
g1
(g11
g12
(dtRp1408
sg22
g1
(g11
g12
(dtRp1409
sbsg24
g25
sg26
g27
((lp1410
g33
ag32
ag29
ag30
atRp1411
sg37
(lp1412
g1
(g2
g3
NtRp1413
(dp1414
g6
g1
(g7
g3
NtRp1415
(dp1416
g10
g1
(g11
g12
(dtRp1417
sg14
g1
(g11
g12
(dtRp1418
sg16
g1
(g11
g12
(dtRp1419
sg18
g1
(g11
g12
(dtRp1420
sg20
g1
(g11
g12
(dtRp1421
sg22
g1
(g11
g12
(dtRp1422
sbsg24
g25
sg26
g27
((lp1423
g33
ag32
ag29
ag30
atRp1424
sg37
(lp1425
g1
(g2
g3
NtRp1426
(dp1427
g6
g1
(g7
g3
NtRp1428
(dp1429
g10
g1
(g11
g12
(dtRp1430
sg14
g1
(g11
g12
(dtRp1431
sg16
g1
(g11
g12
(dtRp1432
sg18
g1
(g11
g12
(dtRp1433
sg20
g1
(g11
g12
(dtRp1434
sg22
g1
(g11
g12
(dtRp1435
sbsg24
g25
sg26
g27
((lp1436
g33
ag32
ag29
ag30
atRp1437
sg37
(lp1438
g1
(g2
g3
NtRp1439
(dp1440
g6
g1
(g7
g3
NtRp1441
(dp1442
g10
g1
(g11
g12
(dtRp1443
sg14
g1
(g11
g12
(dtRp1444
sg16
g1
(g11
g12
(dtRp1445
sg18
g1
(g11
g12
(dtRp1446
sg20
g1
(g11
g12
(dtRp1447
sg22
g1
(g11
g12
(dtRp1448
sbsg24
S'Cme'
p1449
sg26
g27
((lp1450
g29
ag30
aS'sequence'
p1451
ag32
ag33
aS'species'
p1452
atRp1453
sg37
(lp1454
sg120
g1426
sg121
S'RWLSTKDLYSRLELPGLNQNVHAMFVMPLGFGNPMGDMFARLNNSFWLPPLSLEGAGTGWTVYPPLSHSGPSVDLAFHLTSSLLGAINFTNMRGPLYWTALLLLSLPVLAGTLLDRNFNTFEGGDPLYHLFWFFGHPEVYIIPGFGSHSTYKKFGMYASIGLGFVWSHHMYVGLDDRAYFTSATMIAPTGIKFSWLATYGGRPMLAFLFLFTGGTGVLNASDAFHDTYYVVMAFSLGYYYYNLFWFMFGMPDAGWSSSYQLGPDESNE'
p1455
sg123
F0.00012999999999999999
sg124
g125
sg33
S'28'
p1456
sg127
g1
(g128
g12
(dp1457
g130
I4
sg131
g132
sg133
g134
sg135
g132
sg136
I01
sg34
g137
sg138
g134
sg139
I0
sg140
I0
sg141
I0
sg142
g134
sg35
g143
sg144
I0
stRp1458
sg146
g147
sg148
F1
sg149
Nsg30
S'CmetaF'
p1459
sbag1
(g2
g3
NtRp1460
(dp1461
g6
g1
(g7
g3
NtRp1462
(dp1463
g10
g1
(g11
g12
(dtRp1464
sg14
g1
(g11
g12
(dtRp1465
sg16
g1
(g11
g12
(dtRp1466
sg18
g1
(g11
g12
(dtRp1467
sg20
g1
(g11
g12
(dtRp1468
sg22
g1
(g11
g12
(dtRp1469
sbsg24
S'Cme'
p1470
sg26
g27
((lp1471
g29
ag30
aS'sequence'
p1472
ag32
ag33
aS'species'
p1473
atRp1474
sg37
(lp1475
sg120
g1426
sg121
S'RWLSTKDLYSRLELPGLNQNVHAMFVMPLGFGNPMGDMFARLNNSFWLPPLSLEGAGTGWTVYPPLSHSGPSVDLAFHLTSSLLGAINFTNMRGPLYWTALLLLSLPVLAGTLLDRNFNTFEGGDPLYHLFWFFGHPEVYIIPGFGSHSTYKKFGMYASIGLGFVWSHHMYVGLDDRAYFTSATMIAPTGIKFSWLATYGGRPMLAFLFLFTGGTGVLNASDAFHDTYYVVMAFSLGYYYYNLFWFMFGMPDAGWSSSYQLGPDESNE'
p1476
sg123
F0.00012
sg124
g125
sg33
S'62'
p1477
sg127
g1
(g128
g12
(dp1478
g130
I4
sg131
g132
sg133
g134
sg135
g132
sg136
I01
sg34
g137
sg138
g134
sg139
I0
sg140
I0
sg141
I0
sg142
g134
sg35
g143
sg144
I0
stRp1479
sg146
g147
sg148
F1
sg149
Nsg30
S'CmetaE'
p1480
sbasg120
g1413
sg123
F1.0000000000000001e-05
sg124
g125
sg33
S'134'
p1481
sg127
g1
(g128
g12
(dp1482
g130
I6
sg131
g132
sg133
g134
sg135
g132
sg136
I01
sg34
g174
sg138
g134
sg139
I0
sg140
I0
sg141
I0
sg142
g134
sg35
g175
sg144
I0
stRp1483
sg146
g147
sg148
F1
sg149
Nsg30
S'NoName'
p1484
sbag1
(g2
g3
NtRp1485
(dp1486
g6
g1
(g7
g3
NtRp1487
(dp1488
g10
g1
(g11
g12
(dtRp1489
sg14
g1
(g11
g12
(dtRp1490
sg16
g1
(g11
g12
(dtRp1491
sg18
g1
(g11
g12
(dtRp1492
sg20
g1
(g11
g12
(dtRp1493
sg22
g1
(g11
g12
(dtRp1494
sbsg24
S'Cme'
p1495
sg26
g27
((lp1496
g29
ag30
aS'sequence'
p1497
ag32
ag33
aS'species'
p1498
atRp1499
sg37
(lp1500
sg120
g1413
sg121
S'RWLSTKDLYSRLELPGLNQNVHAMFVMPLGFGNPMGDMFARLNNSFWLPPLSLEGAGTGWTVYPPLSHSGPSVDLAFHLTSSLLGAINFTNMRGPLYWTALLLLSLPVLAGTLLDRNFNTFEGGDPLYHLFWFFGHPEVYIIPGFGSHSTYKKFGMYASIGLGFVWSHHMYVGLDDRAYFTSATMIAPTGIKFSWLATYGGRPMLAFLFLFTGGTGVLNASDAFHDTYYVVMAFSLGYYYYNLFWFMFGMPDAGWSSSYQLGPDESNE'
p1501
sg123
F0.00020000000000000001
sg124
g125
sg33
S'69'
p1502
sg127
g1
(g128
g12
(dp1503
g130
I4
sg131
g132
sg133
g134
sg135
g132
sg136
I01
sg34
g137
sg138
g134
sg139
I0
sg140
I0
sg141
I0
sg142
g134
sg35
g143
sg144
I0
stRp1504
sg146
g147
sg148
F1
sg149
Nsg30
S'CmetaD'
p1505
sbasg120
g1400
sg123
F1.0000000000000001e-05
sg124
g125
sg33
S'180'
p1506
sg127
g1
(g128
g12
(dp1507
g130
I6
sg131
g132
sg133
g134
sg135
g132
sg136
I01
sg34
g174
sg138
g134
sg139
I0
sg140
I0
sg141
I0
sg142
g134
sg35
g175
sg144
I0
stRp1508
sg146
g147
sg148
F1
sg149
Nsg30
S'NoName'
p1509
sbag1
(g2
g3
NtRp1510
(dp1511
g6
g1
(g7
g3
NtRp1512
(dp1513
g10
g1
(g11
g12
(dtRp1514
sg14
g1
(g11
g12
(dtRp1515
sg16
g1
(g11
g12
(dtRp1516
sg18
g1
(g11
g12
(dtRp1517
sg20
g1
(g11
g12
(dtRp1518
sg22
g1
(g11
g12
(dtRp1519
sbsg24
S'Cme'
p1520
sg26
g27
((lp1521
g29
ag30
aS'sequence'
p1522
ag32
ag33
aS'species'
p1523
atRp1524
sg37
(lp1525
sg120
g1400
sg121
S'RWLSTKDLYSRLELPGLNQNVHAMFVMPLGFGNPMGDMFARLNNSFWLPPLSLEGAGTGWTVYPPLSHSGPSVDLAFHLTSSLLGAINFTNMRGPLYWTALLLLSLPVLAGTLLDRNFNTFEGGDPLYHLFWFFGHPEVYIIPGFGSHSTYKKFGMYASIGLGFVWSHHMYVGLDDRAYFTSATMIAPTGIKFSWLATYGGRPMLAFLFLFTGGTGVLNASDAFHDTYYVVMAFSLGYYYYNLFWFMFGMPDAGWSSSYQLGPDESNE'
p1526
sg123
F0.00052999999999999998
sg124
g125
sg33
S'2'
sg127
g1
(g128
g12
(dp1527
g130
I4
sg131
g132
sg133
g134
sg135
g132
sg136
I01
sg34
g137
sg138
g134
sg139
I0
sg140
I0
sg141
I0
sg142
g134
sg35
g143
sg144
I0
stRp1528
sg146
g147
sg148
F1
sg149
Nsg30
S'CmetaC'
p1529
sbasg120
g1387
sg123
F1.0000000000000001e-05
sg124
g125
sg33
S'219'
p1530
sg127
g1
(g128
g12
(dp1531
g130
I6
sg131
g132
sg133
g134
sg135
g132
sg136
I01
sg34
g174
sg138
g134
sg139
I0
sg140
I0
sg141
I0
sg142
g134
sg35
g175
sg144
I0
stRp1532
sg146
g147
sg148
F1
sg149
Nsg30
S'NoName'
p1533
sbag1
(g2
g3
NtRp1534
(dp1535
g6
g1
(g7
g3
NtRp1536
(dp1537
g10
g1
(g11
g12
(dtRp1538
sg14
g1
(g11
g12
(dtRp1539
sg16
g1
(g11
g12
(dtRp1540
sg18
g1
(g11
g12
(dtRp1541
sg20
g1
(g11
g12
(dtRp1542
sg22
g1
(g11
g12
(dtRp1543
sbsg24
S'Cme'
p1544
sg26
g27
((lp1545
g29
ag30
aS'sequence'
p1546
ag32
ag33
aS'species'
p1547
atRp1548
sg37
(lp1549
sg120
g1387
sg121
S'RWLSTKDLYSRLELPGLNQNVHAMFVMPLGFGNPMGDMFARLNNSFWLPPLSLEGAGTGWTVYPPLSHSGPSVDLAFHLTSSLLGAINFTNMRGPLYWTALLLLSLPVLAGTLLDRNFNTFEGGDPLYHLFWFFGHPEVYIIPGFGSHSTYKKFGMYASIGLGFVWSHHMYVGLDDRAYFTSATMIAPTGIKFSWLATYGGRPMLAFLFLFTGGTGVLNASDAFHDTYYVVMAFSLGYYYYNLFWFMFGMPDAGWSSSYQLGPDESNE'
p1550
sg123
F0.00012
sg124
g125
sg33
S'66'
p1551
sg127
g1
(g128
g12
(dp1552
g130
I4
sg131
g132
sg133
g134
sg135
g132
sg136
I01
sg34
g137
sg138
g134
sg139
I0
sg140
I0
sg141
I0
sg142
g134
sg35
g143
sg144
I0
stRp1553
sg146
g147
sg148
F1
sg149
Nsg30
S'CmetaB'
p1554
sbasg120
g1374
sg123
F1.0000000000000001e-05
sg124
g125
sg33
S'209'
p1555
sg127
g1
(g128
g12
(dp1556
g130
I6
sg131
g132
sg133
g134
sg135
g132
sg136
I01
sg34
g174
sg138
g134
sg139
I0
sg140
I0
sg141
I0
sg142
g134
sg35
g175
sg144
I0
stRp1557
sg146
g147
sg148
F1
sg149
Nsg30
S'NoName'
p1558
sbag1
(g2
g3
NtRp1559
(dp1560
g6
g1
(g7
g3
NtRp1561
(dp1562
g10
g1
(g11
g12
(dtRp1563
sg14
g1
(g11
g12
(dtRp1564
sg16
g1
(g11
g12
(dtRp1565
sg18
g1
(g11
g12
(dtRp1566
sg20
g1
(g11
g12
(dtRp1567
sg22
g1
(g11
g12
(dtRp1568
sbsg24
S'Cme'
p1569
sg26
g27
((lp1570
g29
ag30
aS'sequence'
p1571
ag32
ag33
aS'species'
p1572
atRp1573
sg37
(lp1574
sg120
g1374
sg121
S'RWLSTKDLYSRLELPGLNQNVHAMFVMPLGFGNPMGDMFARLNNSFWLPPLSLEGAGTGWTVYPPLSHSGPSVDLAFHLTSSLLGAINFTNMRGPLYWTALLLLSLPVLAGTLLDRNFNTFEGGDPLYHLFWFFGHPEVYIIPGFGSHSTYKKFGMYASIGLGFVWSHHMYVGLDDRAYFTSATMIAPTGIKFSWLATYGGRPMLAFLFLFTGGTGVLNASDAFHDTYYVVMAFSLGYYYYNLFWFMFGMPDAGWSSSYQLGPDESNE'
p1575
sg123
F0.00012999999999999999
sg124
g125
sg33
S'17'
p1576
sg127
g1
(g128
g12
(dp1577
g130
I4
sg131
g132
sg133
g134
sg135
g132
sg136
I01
sg34
g137
sg138
g134
sg139
I0
sg140
I0
sg141
I0
sg142
g134
sg35
g143
sg144
I0
stRp1578
sg146
g147
sg148
F1
sg149
Nsg30
S'CmetaA'
p1579
sbasg120
g1112
sg123
F0.020930000000000001
sg124
g125
sg33
S'205'
p1580
sg127
g1
(g128
g12
(dp1581
g130
I6
sg131
g132
sg133
g134
sg135
g132
sg136
I01
sg34
g174
sg138
g134
sg139
I0
sg140
I0
sg141
I0
sg142
g134
sg35
g175
sg144
I0
stRp1582
sg146
g147
sg148
F0.98999999999999999
sg149
Nsg30
S'NoName'
p1583
sbasg120
g1099
sg123
F0.045289999999999997
sg124
g125
sg33
S'159'
p1584
sg127
g1
(g128
g12
(dp1585
g130
I6
sg131
g132
sg133
g134
sg135
g132
sg136
I01
sg34
g174
sg138
g134
sg139
I0
sg140
I0
sg141
I0
sg142
g134
sg35
g175
sg144
I0
stRp1586
sg146
g147
sg148
F0.98999999999999999
sg149
Nsg30
S'NoName'
p1587
sbag1
(g2
g3
NtRp1588
(dp1589
g6
g1
(g7
g3
NtRp1590
(dp1591
g10
g1
(g11
g12
(dtRp1592
sg14
g1
(g11
g12
(dtRp1593
sg16
g1
(g11
g12
(dtRp1594
sg18
g1
(g11
g12
(dtRp1595
sg20
g1
(g11
g12
(dtRp1596
sg22
g1
(g11
g12
(dtRp1597
sbsg24
S'Cji'
p1598
sg26
g27
((lp1599
g29
ag30
aS'sequence'
p1600
ag32
ag33
aS'species'
p1601
atRp1602
sg37
(lp1603
sg120
g1099
sg121
S'RWLSTKDLYSRLELPGLNQNVHAMFVMPLGFGNPMGDMFARLNNSFWLPPLSLEGAGTGWTVYPPLSHSGPSVDLAFHLTSSLLGAINFTNMRGPMFWTALLLLSLPVLAGTLLDRNFNTFDGGDPLYHLFWFFGHPEVYIIPGFGSHSTYKKFGMYASIGLGFVWSHHMYVGLDDRAYFTSATMIAPTGIKFSWLATYGGRPMLAFLFLFTGGTGVLNASDAFHDTYYTVMAFSLGYYYYNLFWFMFGMPDAGWSSSYQLGPDESNE'
p1604
sg123
F0.013140000000000001
sg124
g125
sg33
S'72'
p1605
sg127
g1
(g128
g12
(dp1606
g130
I4
sg131
g132
sg133
g134
sg135
g132
sg136
I01
sg34
g137
sg138
g134
sg139
I0
sg140
I0
sg141
I0
sg142
g134
sg35
g143
sg144
I0
stRp1607
sg146
g147
sg148
F1
sg149
Nsg30
S'CjiufA'
p1608
sbasg120
g1027
sg123
F0.044909999999999999
sg124
g125
sg33
S'148'
p1609
sg127
g1
(g128
g12
(dp1610
g130
I6
sg131
g132
sg133
g134
sg135
g132
sg136
I01
sg34
g174
sg138
g134
sg139
I0
sg140
I0
sg141
I0
sg142
g134
sg35
g175
sg144
I0
stRp1611
sg146
g147
sg148
F0.98999999999999999
sg149
Nsg30
S'NoName'
p1612
sbasg120
g1014
sg123
F0.082199999999999995
sg124
g125
sg33
S'196'
p1613
sg127
g1
(g128
g12
(dp1614
g130
I6
sg131
g132
sg133
g134
sg135
g132
sg136
I01
sg34
g174
sg138
g134
sg139
I0
sg140
I0
sg141
I0
sg142
g134
sg35
g175
sg144
I0
stRp1615
sg146
g147
sg148
F0.98999999999999999
sg149
Nsg30
S'NoName'
p1616
sbag1
(g2
g3
NtRp1617
(dp1618
g6
g1
(g7
g3
NtRp1619
(dp1620
g10
g1
(g11
g12
(dtRp1621
sg14
g1
(g11
g12
(dtRp1622
sg16
g1
(g11
g12
(dtRp1623
sg18
g1
(g11
g12
(dtRp1624
sg20
g1
(g11
g12
(dtRp1625
sg22
g1
(g11
g12
(dtRp1626
sbsg24
g25
sg26
g27
((lp1627
g33
ag32
ag29
ag30
atRp1628
sg37
(lp1629
g1
(g2
g3
NtRp1630
(dp1631
g6
g1
(g7
g3
NtRp1632
(dp1633
g10
g1
(g11
g12
(dtRp1634
sg14
g1
(g11
g12
(dtRp1635
sg16
g1
(g11
g12
(dtRp1636
sg18
g1
(g11
g12
(dtRp1637
sg20
g1
(g11
g12
(dtRp1638
sg22
g1
(g11
g12
(dtRp1639
sbsg24
g25
sg26
g27
((lp1640
g33
ag32
ag29
ag30
atRp1641
sg37
(lp1642
g1
(g2
g3
NtRp1643
(dp1644
g6
g1
(g7
g3
NtRp1645
(dp1646
g10
g1
(g11
g12
(dtRp1647
sg14
g1
(g11
g12
(dtRp1648
sg16
g1
(g11
g12
(dtRp1649
sg18
g1
(g11
g12
(dtRp1650
sg20
g1
(g11
g12
(dtRp1651
sg22
g1
(g11
g12
(dtRp1652
sbsg24
S'Cco'
p1653
sg26
g27
((lp1654
g29
ag30
aS'sequence'
p1655
ag32
ag33
aS'species'
p1656
atRp1657
sg37
(lp1658
sg120
g1630
sg121
S'RWLSTKDLYSRMELPGLNQNVHAMFVMPLGFGNPMGDMFARLNNSFWLPPLSLEGAGTGWTLYAPLSHSGPSVDLAFHLTSSLLGAINFTNMRGPLFWTALLLLSLPVLAATLLDRNFNTFEGGDPLYHLFFVLMHPEVYIIPGFGSHSTYKKFGMYASMGLGFVWSHHMYVGLDDRAYFTSATMIAPTGIKFSWLATYGGRPMLAFLFLFTGGTGVLNASDAFHDTYYIKMAFSLGYYYYNMFWFMFGMPDAGWSSSYQLGPDESNE'
p1659
sg123
F0.057970000000000001
sg124
g125
sg33
S'15'
p1660
sg127
g1
(g128
g12
(dp1661
g130
I4
sg131
g132
sg133
g134
sg135
g132
sg136
I01
sg34
g137
sg138
g134
sg139
I0
sg140
I0
sg141
I0
sg142
g134
sg35
g143
sg144
I0
stRp1662
sg146
g147
sg148
F1
sg149
Nsg30
S'CcoryA'
p1663
sbag1
(g2
g3
NtRp1664
(dp1665
g6
g1
(g7
g3
NtRp1666
(dp1667
g10
g1
(g11
g12
(dtRp1668
sg14
g1
(g11
g12
(dtRp1669
sg16
g1
(g11
g12
(dtRp1670
sg18
g1
(g11
g12
(dtRp1671
sg20
g1
(g11
g12
(dtRp1672
sg22
g1
(g11
g12
(dtRp1673
sbsg24
S'Cch'
p1674
sg26
g27
((lp1675
g29
ag30
aS'sequence'
p1676
ag32
ag33
aS'species'
p1677
atRp1678
sg37
(lp1679
sg120
g1630
sg121
S'RWLSTKDLYSRMELPSLNQNVHAMFVMPLGFGNPMGDMFARLNNSFWLPPLSLEGAGTGWTLYAPLSHSGPSVDLAFHLTSSLLGAINFTNMRGPLFWTALLLLSLPVLAATLLDRNFNTFEGGDPLYHLFWFYMYKDYYIIPGFGSHSTYKKFGMYASIGLGFVWSHHMFVGLDDRAYFTSATMIAPTGIKFSWLATYGGRPMLAFLFLFTGGTGVLNASDAFHDTYYVVMAFSLGYYYYNLFWFMFGMPDAGWSSSYQLGPDESNE'
p1680
sg123
F0.052440000000000001
sg124
g125
sg33
S'37'
p1681
sg127
g1
(g128
g12
(dp1682
g130
I4
sg131
g132
sg133
g134
sg135
g132
sg136
I01
sg34
g137
sg138
g134
sg139
I0
sg140
I0
sg141
I0
sg142
g134
sg35
g143
sg144
I0
stRp1683
sg146
g147
sg148
F1
sg149
Nsg30
S'CchauA'
p1684
sbasg120
g1617
sg123
F0.16861999999999999
sg124
g125
sg33
S'19'
p1685
sg127
g1
(g128
g12
(dp1686
g130
I6
sg131
g132
sg133
g134
sg135
g132
sg136
I01
sg34
g174
sg138
g134
sg139
I0
sg140
I0
sg141
I0
sg142
g134
sg35
g175
sg144
I0
stRp1687
sg146
g147
sg148
F0.98999999999999999
sg149
Nsg30
S'NoName'
p1688
sbag1
(g2
g3
NtRp1689
(dp1690
g6
g1
(g7
g3
NtRp1691
(dp1692
g10
g1
(g11
g12
(dtRp1693
sg14
g1
(g11
g12
(dtRp1694
sg16
g1
(g11
g12
(dtRp1695
sg18
g1
(g11
g12
(dtRp1696
sg20
g1
(g11
g12
(dtRp1697
sg22
g1
(g11
g12
(dtRp1698
sbsg24
S'Cbo'
p1699
sg26
g27
((lp1700
g29
ag30
aS'sequence'
p1701
ag32
ag33
aS'species'
p1702
atRp1703
sg37
(lp1704
sg120
g1617
sg121
S'RWLSTKDLYSRMELPGLNQNVHAMFVMPLGFGNPMGDMFARLNNSFWLPPLSLEGAGTGWTVYPPLSHSGPSVDLAFHLTSSLLGAINFTNMRGPLFWTALLLLSLPVLAATLLDRNFNTFEGGDPLYHLFWFFGHPEVYIIPGFGSHSTYKKFGMYASIGLGFVWSHHMYVGLDDRAYFTSATMIAPTGIKFSWLATYGGRPMLAFLFLFTGGTGVLNASDAFHDTYYVVMAFSLAYYYYNLFWFMFGMPDAGWSSSYQLGPDESNE'
p1705
sg123
F0.20199
sg124
g125
sg33
S'21'
p1706
sg127
g1
(g128
g12
(dp1707
g130
I4
sg131
g132
sg133
g134
sg135
g132
sg136
I01
sg34
g137
sg138
g134
sg139
I0
sg140
I0
sg141
I0
sg142
g134
sg35
g143
sg144
I0
stRp1708
sg146
g147
sg148
F1
sg149
Nsg30
S'CbohiA'
p1709
sbasg120
g1014
sg123
F0.14915999999999999
sg124
g125
sg33
S'223'
p1710
sg127
g1
(g128
g12
(dp1711
g130
I6
sg131
g132
sg133
g134
sg135
g132
sg136
I01
sg34
g174
sg138
g134
sg139
I0
sg140
I0
sg141
I0
sg142
g134
sg35
g175
sg144
I0
stRp1712
sg146
g147
sg148
F0.98999999999999999
sg149
Nsg30
S'NoName'
p1713
sbasg120
g1001
sg123
F0.036799999999999999
sg124
g125
sg33
S'201'
p1714
sg127
g1
(g128
g12
(dp1715
g130
I6
sg131
g132
sg133
g134
sg135
g132
sg136
I01
sg34
g174
sg138
g134
sg139
I0
sg140
I0
sg141
I0
sg142
g134
sg35
g175
sg144
I0
stRp1716
sg146
g147
sg148
F0.98999999999999999
sg149
Nsg30
S'NoName'
p1717
sbag1
(g2
g3
NtRp1718
(dp1719
g6
g1
(g7
g3
NtRp1720
(dp1721
g10
g1
(g11
g12
(dtRp1722
sg14
g1
(g11
g12
(dtRp1723
sg16
g1
(g11
g12
(dtRp1724
sg18
g1
(g11
g12
(dtRp1725
sg20
g1
(g11
g12
(dtRp1726
sg22
g1
(g11
g12
(dtRp1727
sbsg24
g25
sg26
g27
((lp1728
g33
ag32
ag29
ag30
atRp1729
sg37
(lp1730
g1
(g2
g3
NtRp1731
(dp1732
g6
g1
(g7
g3
NtRp1733
(dp1734
g10
g1
(g11
g12
(dtRp1735
sg14
g1
(g11
g12
(dtRp1736
sg16
g1
(g11
g12
(dtRp1737
sg18
g1
(g11
g12
(dtRp1738
sg20
g1
(g11
g12
(dtRp1739
sg22
g1
(g11
g12
(dtRp1740
sbsg24
g25
sg26
g27
((lp1741
g33
ag32
ag29
ag30
atRp1742
sg37
(lp1743
g1
(g2
g3
NtRp1744
(dp1745
g6
g1
(g7
g3
NtRp1746
(dp1747
g10
g1
(g11
g12
(dtRp1748
sg14
g1
(g11
g12
(dtRp1749
sg16
g1
(g11
g12
(dtRp1750
sg18
g1
(g11
g12
(dtRp1751
sg20
g1
(g11
g12
(dtRp1752
sg22
g1
(g11
g12
(dtRp1753
sbsg24
S'Cma'
p1754
sg26
g27
((lp1755
g29
ag30
aS'sequence'
p1756
ag32
ag33
aS'species'
p1757
atRp1758
sg37
(lp1759
sg120
g1731
sg121
S'RWLSTKDLYSRLELPGLSQNVHAMFVMPLGFGNPLGDMFARLNNSFWLPPLSLEGAGTGWTVYPPLSHSGPSVDLAFHLTSSLLGAINFTNMRGPLYWTALLLLSLPVLAGTLLDRNFNTFEGGDPLYHLFWFFGHPEVYMIPGFGSHSTYKKFGMYASMGLGFVWSHHMYVGLDDRAYFTSATMIAPTGIKFSWLATYGGRPMLAFLFLFTGGTGVLNASDAFHDTYYVVMAFSLGYYSYNLYWFMFGMPDAGWSSSYQLGPDESNE'
p1760
sg123
F0.24277000000000001
sg124
g125
sg33
S'68'
p1761
sg127
g1
(g128
g12
(dp1762
g130
I4
sg131
g132
sg133
g134
sg135
g132
sg136
I01
sg34
g137
sg138
g134
sg139
I0
sg140
I0
sg141
I0
sg142
g134
sg35
g143
sg144
I0
stRp1763
sg146
g147
sg148
F1
sg149
Nsg30
S'CmaltA'
p1764
sbag1
(g2
g3
NtRp1765
(dp1766
g6
g1
(g7
g3
NtRp1767
(dp1768
g10
g1
(g11
g12
(dtRp1769
sg14
g1
(g11
g12
(dtRp1770
sg16
g1
(g11
g12
(dtRp1771
sg18
g1
(g11
g12
(dtRp1772
sg20
g1
(g11
g12
(dtRp1773
sg22
g1
(g11
g12
(dtRp1774
sbsg24
g25
sg26
g27
((lp1775
g33
ag32
ag29
ag30
atRp1776
sg37
(lp1777
g1
(g2
g3
NtRp1778
(dp1779
g6
g1
(g7
g3
NtRp1780
(dp1781
g10
g1
(g11
g12
(dtRp1782
sg14
g1
(g11
g12
(dtRp1783
sg16
g1
(g11
g12
(dtRp1784
sg18
g1
(g11
g12
(dtRp1785
sg20
g1
(g11
g12
(dtRp1786
sg22
g1
(g11
g12
(dtRp1787
sbsg24
g25
sg26
g27
((lp1788
g33
ag32
ag29
ag30
atRp1789
sg37
(lp1790
g1
(g2
g3
NtRp1791
(dp1792
g6
g1
(g7
g3
NtRp1793
(dp1794
g10
g1
(g11
g12
(dtRp1795
sg14
g1
(g11
g12
(dtRp1796
sg16
g1
(g11
g12
(dtRp1797
sg18
g1
(g11
g12
(dtRp1798
sg20
g1
(g11
g12
(dtRp1799
sg22
g1
(g11
g12
(dtRp1800
sbsg24
g25
sg26
g27
((lp1801
g33
ag32
ag29
ag30
atRp1802
sg37
(lp1803
g1
(g2
g3
NtRp1804
(dp1805
g6
g1
(g7
g3
NtRp1806
(dp1807
g10
g1
(g11
g12
(dtRp1808
sg14
g1
(g11
g12
(dtRp1809
sg16
g1
(g11
g12
(dtRp1810
sg18
g1
(g11
g12
(dtRp1811
sg20
g1
(g11
g12
(dtRp1812
sg22
g1
(g11
g12
(dtRp1813
sbsg24
g25
sg26
g27
((lp1814
g33
ag32
ag29
ag30
atRp1815
sg37
(lp1816
g1
(g2
g3
NtRp1817
(dp1818
g6
g1
(g7
g3
NtRp1819
(dp1820
g10
g1
(g11
g12
(dtRp1821
sg14
g1
(g11
g12
(dtRp1822
sg16
g1
(g11
g12
(dtRp1823
sg18
g1
(g11
g12
(dtRp1824
sg20
g1
(g11
g12
(dtRp1825
sg22
g1
(g11
g12
(dtRp1826
sbsg24
S'Ctr'
p1827
sg26
g27
((lp1828
g29
ag30
aS'sequence'
p1829
ag32
ag33
aS'species'
p1830
atRp1831
sg37
(lp1832
sg120
g1804
sg121
S'RWLSTKDLYSRLELPGLNQNVHAMFVMPLGFGNPMGDMFARLNNSFWLPPLSLEGAGTGWTVYPPLSHSGPSVDLAFHLTSSLLGAINFTNMRGPLFWTALLLLSLPVLAGTLLDRNFNTFEGGDPLYHLFWFFGHPEVYIIPGFGSHSTYKKFGMYASIGLGFVWSHHMYVGLDDRAYFTSATMIAPTGIKFSWLATYGGRPMLAFLFLFTGGTGVLNASDAFHDSYYVVMAFSLGYYPYNLYWFMFGMPDAGWSSSYQLGPDEANE'
p1833
sg123
F0.00064000000000000005
sg124
g125
sg33
S'44'
p1834
sg127
g1
(g128
g12
(dp1835
g130
I4
sg131
g132
sg133
g134
sg135
g132
sg136
I01
sg34
g137
sg138
g134
sg139
I0
sg140
I0
sg141
I0
sg142
g134
sg35
g143
sg144
I0
stRp1836
sg146
g147
sg148
F1
sg149
Nsg30
S'CtropB'
p1837
sbag1
(g2
g3
NtRp1838
(dp1839
g6
g1
(g7
g3
NtRp1840
(dp1841
g10
g1
(g11
g12
(dtRp1842
sg14
g1
(g11
g12
(dtRp1843
sg16
g1
(g11
g12
(dtRp1844
sg18
g1
(g11
g12
(dtRp1845
sg20
g1
(g11
g12
(dtRp1846
sg22
g1
(g11
g12
(dtRp1847
sbsg24
S'Ctr'
p1848
sg26
g27
((lp1849
g29
ag30
aS'sequence'
p1850
ag32
ag33
aS'species'
p1851
atRp1852
sg37
(lp1853
sg120
g1804
sg121
S'RWLSTKDLYSRLELPGLNQNVHAMFVMPLGFGNPMGDMFARLNNSFWLPPLSLEGAGTGWTVYPPLSHSGPSVDLAFHLTSSLLGAINFTNMRGPLFWTALLLLSLPVLAGTLLDRNFNTFEGGDPLYHLFWFFGHPEVYIIPGFGSHSTYKKFGMYASIGLGFVWSHHMYVGLDDRAYFTSATMIAPTGIKFSWLATYGGRPMLAFLFLFTGGTGVLNASDAFHDSYYVVMAFSLGYYPYNLYWFMFGMPDAGWSSSYQLGPDEANE'
p1854
sg123
F0.00040000000000000002
sg124
g125
sg33
S'54'
p1855
sg127
g1
(g128
g12
(dp1856
g130
I4
sg131
g132
sg133
g134
sg135
g132
sg136
I01
sg34
g137
sg138
g134
sg139
I0
sg140
I0
sg141
I0
sg142
g134
sg35
g143
sg144
I0
stRp1857
sg146
g147
sg148
F1
sg149
Nsg30
S'CtropA'
p1858
sbasg120
g1791
sg123
F0.032030000000000003
sg124
g125
sg33
S'5'
sg127
g1
(g128
g12
(dp1859
g130
I6
sg131
g132
sg133
g134
sg135
g132
sg136
I01
sg34
g174
sg138
g134
sg139
I0
sg140
I0
sg141
I0
sg142
g134
sg35
g175
sg144
I0
stRp1860
sg146
g147
sg148
F0.98999999999999999
sg149
Nsg30
S'NoName'
p1861
sbag1
(g2
g3
NtRp1862
(dp1863
g6
g1
(g7
g3
NtRp1864
(dp1865
g10
g1
(g11
g12
(dtRp1866
sg14
g1
(g11
g12
(dtRp1867
sg16
g1
(g11
g12
(dtRp1868
sg18
g1
(g11
g12
(dtRp1869
sg20
g1
(g11
g12
(dtRp1870
sg22
g1
(g11
g12
(dtRp1871
sbsg24
S'Cso'
p1872
sg26
g27
((lp1873
g29
ag30
aS'sequence'
p1874
ag32
ag33
aS'species'
p1875
atRp1876
sg37
(lp1877
sg120
g1791
sg121
S'RWLSTKDLYSRLELPGLNQNVHAMFVMPLGFGNPMGDMFARLNNSFWLPPLSLEGAGTGWTVYPPLSHSGPSVDLAFHLTSSLLGAMNFTNMRGPLFWTALLLLSLPVLAGTLLDRNFNTFEGGDPLYHLFWFFGHPEVYIIPGFGSHSTYKKFGMYASIGLGFVWSHHMYVGLDDRAYFTSATMIAPTGIKFSWLATYGGRPMLAFLFLFTGGTGVLNASDAFHDTYYVVMAFSLGYYPYNLYWFMFGMPDAGWSSSYQLGPDEANE'
p1878
sg123
F0.033649999999999999
sg124
g125
sg33
S'185'
p1879
sg127
g1
(g128
g12
(dp1880
g130
I4
sg131
g132
sg133
g134
sg135
g132
sg136
I01
sg34
g137
sg138
g134
sg139
I0
sg140
I0
sg141
I0
sg142
g134
sg35
g143
sg144
I0
stRp1881
sg146
g147
sg148
F1
sg149
Nsg30
S'CsojaA'
p1882
sbasg120
g1778
sg123
F0.019990000000000001
sg124
g125
sg33
S'4'
sg127
g1
(g128
g12
(dp1883
g130
I6
sg131
g132
sg133
g134
sg135
g132
sg136
I01
sg34
g174
sg138
g134
sg139
I0
sg140
I0
sg141
I0
sg142
g134
sg35
g175
sg144
I0
stRp1884
sg146
g147
sg148
F0.98999999999999999
sg149
Nsg30
S'NoName'
p1885
sbag1
(g2
g3
NtRp1886
(dp1887
g6
g1
(g7
g3
NtRp1888
(dp1889
g10
g1
(g11
g12
(dtRp1890
sg14
g1
(g11
g12
(dtRp1891
sg16
g1
(g11
g12
(dtRp1892
sg18
g1
(g11
g12
(dtRp1893
sg20
g1
(g11
g12
(dtRp1894
sg22
g1
(g11
g12
(dtRp1895
sbsg24
g25
sg26
g27
((lp1896
g33
ag32
ag29
ag30
atRp1897
sg37
(lp1898
g1
(g2
g3
NtRp1899
(dp1900
g6
g1
(g7
g3
NtRp1901
(dp1902
g10
g1
(g11
g12
(dtRp1903
sg14
g1
(g11
g12
(dtRp1904
sg16
g1
(g11
g12
(dtRp1905
sg18
g1
(g11
g12
(dtRp1906
sg20
g1
(g11
g12
(dtRp1907
sg22
g1
(g11
g12
(dtRp1908
sbsg24
S'Cte'
p1909
sg26
g27
((lp1910
g29
ag30
aS'sequence'
p1911
ag32
ag33
aS'species'
p1912
atRp1913
sg37
(lp1914
sg120
g1886
sg121
S'RWLSTKDLYSRLELPGLNQNVHAMFVMPLGFGNPMGDMFARLNNSFWLPPLSLEGAGTGWTVYPPLSHSGPSVDMAFHLTSSLLGAINFTNMRGPLFWTALLLLSLPVLAGTLLDRNFNTFEGGDPLYHLFWFFGHPEVYIIPGFGSHSTYKKFGMYASIGLGFVWSHHMFVGLDDRAYFTSATMMAPTGIKFSWLATYGGRPMLAFLFLFTGGTGVLNASDSMHDTYYVVMAFSLGYYPYNLYWFMFGMPDAGWSSSLQLGPDESNE'
p1915
sg123
F0.084209999999999993
sg124
g125
sg33
S'58'
p1916
sg127
g1
(g128
g12
(dp1917
g130
I4
sg131
g132
sg133
g134
sg135
g132
sg136
I01
sg34
g137
sg138
g134
sg139
I0
sg140
I0
sg141
I0
sg142
g134
sg35
g143
sg144
I0
stRp1918
sg146
g147
sg148
F1
sg149
Nsg30
S'CtetrA'
p1919
sbag1
(g2
g3
NtRp1920
(dp1921
g6
g1
(g7
g3
NtRp1922
(dp1923
g10
g1
(g11
g12
(dtRp1924
sg14
g1
(g11
g12
(dtRp1925
sg16
g1
(g11
g12
(dtRp1926
sg18
g1
(g11
g12
(dtRp1927
sg20
g1
(g11
g12
(dtRp1928
sg22
g1
(g11
g12
(dtRp1929
sbsg24
g25
sg26
g27
((lp1930
g33
ag32
ag29
ag30
atRp1931
sg37
(lp1932
g1
(g2
g3
NtRp1933
(dp1934
g6
g1
(g7
g3
NtRp1935
(dp1936
g10
g1
(g11
g12
(dtRp1937
sg14
g1
(g11
g12
(dtRp1938
sg16
g1
(g11
g12
(dtRp1939
sg18
g1
(g11
g12
(dtRp1940
sg20
g1
(g11
g12
(dtRp1941
sg22
g1
(g11
g12
(dtRp1942
sbsg24
g25
sg26
g27
((lp1943
g33
ag32
ag29
ag30
atRp1944
sg37
(lp1945
g1
(g2
g3
NtRp1946
(dp1947
g6
g1
(g7
g3
NtRp1948
(dp1949
g10
g1
(g11
g12
(dtRp1950
sg14
g1
(g11
g12
(dtRp1951
sg16
g1
(g11
g12
(dtRp1952
sg18
g1
(g11
g12
(dtRp1953
sg20
g1
(g11
g12
(dtRp1954
sg22
g1
(g11
g12
(dtRp1955
sbsg24
S'Cvi'
p1956
sg26
g27
((lp1957
g29
ag30
aS'sequence'
p1958
ag32
ag33
aS'species'
p1959
atRp1960
sg37
(lp1961
sg120
g1933
sg121
S'RWFSTKDLYSRLELPGLNQNVHAMFVMPLGFGNPMGDMFARLNNSFWLPPLSLEGAGTGWTVYPPLSHSGPSVDLAFHLTSSLLGAINFTNMRGPLFWTALLLLSLPVLAGTLLDRNFNTFDGGDPLYHLFWFFGHPEVYMIPGFGSHSTYKKFGMYASIGLGFVWSHHMYVGLDDRAYFTSATMIAPTGIKFSWLSTYGGRPTLAFLFLFTGGTGVLNASDSMHDTYYVVMAFSLGYYPYNLYWFMFGMPDSGWSSSFQLGPDESNE'
p1962
sg123
F0.03977
sg124
g125
sg33
S'34'
p1963
sg127
g1
(g128
g12
(dp1964
g130
I4
sg131
g132
sg133
g134
sg135
g132
sg136
I01
sg34
g137
sg138
g134
sg139
I0
sg140
I0
sg141
I0
sg142
g134
sg35
g143
sg144
I0
stRp1965
sg146
g147
sg148
F1
sg149
Nsg30
S'CviswA'
p1966
sbag1
(g2
g3
NtRp1967
(dp1968
g6
g1
(g7
g3
NtRp1969
(dp1970
g10
g1
(g11
g12
(dtRp1971
sg14
g1
(g11
g12
(dtRp1972
sg16
g1
(g11
g12
(dtRp1973
sg18
g1
(g11
g12
(dtRp1974
sg20
g1
(g11
g12
(dtRp1975
sg22
g1
(g11
g12
(dtRp1976
sbsg24
S'Csa'
p1977
sg26
g27
((lp1978
g29
ag30
aS'sequence'
p1979
ag32
ag33
aS'species'
p1980
atRp1981
sg37
(lp1982
sg120
g1933
sg121
S'RWFSTKDLYSRLELPGLNQNVHAMFVMPLGFGNPMGDMFARLNNSFWLPPLSLEGAGTGWTVYPPLSHSGPSVDLAFHLTSSLLGAINFTNMRGVLFWTALLLLSLPVLAGTLLDRNFNTFDGGDPLYHLFWFFGHPEVYIIPGFGSHSTFKKFGMYASIGLGFVWSHHMYVGLDDRAYFTSATMIAPTGIKFSWIATYGGRPTLAFLFLFTGGTGVLNASDSMHDTYYVVMAFSLGYYPYNLYWFMFGMPDSGWSSSYQLGPDEGNE'
p1983
sg123
F0.065189999999999998
sg124
g125
sg33
S'101'
p1984
sg127
g1
(g128
g12
(dp1985
g130
I4
sg131
g132
sg133
g134
sg135
g132
sg136
I01
sg34
g137
sg138
g134
sg139
I0
sg140
I0
sg141
I0
sg142
g134
sg35
g143
sg144
I0
stRp1986
sg146
g147
sg148
F1
sg149
Nsg30
S'CsaraA'
p1987
sbasg120
g1920
sg123
F0.029960000000000001
sg124
g125
sg33
S'36'
p1988
sg127
g1
(g128
g12
(dp1989
g130
I6
sg131
g132
sg133
g134
sg135
g132
sg136
I01
sg34
g174
sg138
g134
sg139
I0
sg140
I0
sg141
I0
sg142
g134
sg35
g175
sg144
I0
stRp1990
sg146
g147
sg148
F0.98999999999999999
sg149
Nsg30
S'NoName'
p1991
sbag1
(g2
g3
NtRp1992
(dp1993
g6
g1
(g7
g3
NtRp1994
(dp1995
g10
g1
(g11
g12
(dtRp1996
sg14
g1
(g11
g12
(dtRp1997
sg16
g1
(g11
g12
(dtRp1998
sg18
g1
(g11
g12
(dtRp1999
sg20
g1
(g11
g12
(dtRp2000
sg22
g1
(g11
g12
(dtRp2001
sbsg24
S'Cpr'
p2002
sg26
g27
((lp2003
g29
ag30
aS'sequence'
p2004
ag32
ag33
aS'species'
p2005
atRp2006
sg37
(lp2007
sg120
g1920
sg121
S'RWFSTKDEYSRLELPGLNQNVHAMFVMPLGFGNPMGDMFARLNNSFWLPPLSLEGAGTGWTVYPPLSHSGPSVDLAFHLTSSLLGAINFTNMRGPLFWTALLLLSLPVLTGTLLDRNFNTFDGGDPLYHLFWFFGHPEVYMIPGFGSHSTYKKFGMYASMGLGFVWSHHMFVGLDDRAYFTSATMMAPTGIKFSWLATYGGRPMLAFLFLFTGGTGVLNASDSMHDTYYVVMAFSLGYYPYNLYWFMFGMPDSGWSSSVQLGPDENNE'
p2008
sg123
F0.17724999999999999
sg124
g125
sg33
S'38'
p2009
sg127
g1
(g128
g12
(dp2010
g130
I4
sg131
g132
sg133
g134
sg135
g132
sg136
I01
sg34
g137
sg138
g134
sg139
I0
sg140
I0
sg141
I0
sg142
g134
sg35
g143
sg144
I0
stRp2011
sg146
g147
sg148
F1
sg149
Nsg30
S'CpracA'
p2012
sbasg120
g1886
sg123
F0.02281
sg124
g125
sg33
S'52'
p2013
sg127
g1
(g128
g12
(dp2014
g130
I6
sg131
g132
sg133
g134
sg135
g132
sg136
I01
sg34
g174
sg138
g134
sg139
I0
sg140
I0
sg141
I0
sg142
g134
sg35
g175
sg144
I0
stRp2015
sg146
g147
sg148
F0.98999999999999999
sg149
Nsg30
S'NoName'
p2016
sbasg120
g1778
sg123
F0.01154
sg124
g125
sg33
S'8'
sg127
g1
(g128
g12
(dp2017
g130
I6
sg131
g132
sg133
g134
sg135
g132
sg136
I01
sg34
g174
sg138
g134
sg139
I0
sg140
I0
sg141
I0
sg142
g134
sg35
g175
sg144
I0
stRp2018
sg146
g147
sg148
F0.98999999999999999
sg149
Nsg30
S'NoName'
p2019
sbasg120
g1765
sg123
F0.02138
sg124
g125
sg33
S'25'
p2020
sg127
g1
(g128
g12
(dp2021
g130
I6
sg131
g132
sg133
g134
sg135
g132
sg136
I01
sg34
g174
sg138
g134
sg139
I0
sg140
I0
sg141
I0
sg142
g134
sg35
g175
sg144
I0
stRp2022
sg146
g147
sg148
F0.98999999999999999
sg149
Nsg30
S'NoName'
p2023
sbag1
(g2
g3
NtRp2024
(dp2025
g6
g1
(g7
g3
NtRp2026
(dp2027
g10
g1
(g11
g12
(dtRp2028
sg14
g1
(g11
g12
(dtRp2029
sg16
g1
(g11
g12
(dtRp2030
sg18
g1
(g11
g12
(dtRp2031
sg20
g1
(g11
g12
(dtRp2032
sg22
g1
(g11
g12
(dtRp2033
sbsg24
g25
sg26
g27
((lp2034
g33
ag32
ag29
ag30
atRp2035
sg37
(lp2036
g1
(g2
g3
NtRp2037
(dp2038
g6
g1
(g7
g3
NtRp2039
(dp2040
g10
g1
(g11
g12
(dtRp2041
sg14
g1
(g11
g12
(dtRp2042
sg16
g1
(g11
g12
(dtRp2043
sg18
g1
(g11
g12
(dtRp2044
sg20
g1
(g11
g12
(dtRp2045
sg22
g1
(g11
g12
(dtRp2046
sbsg24
S'Cne'
p2047
sg26
g27
((lp2048
g29
ag30
aS'sequence'
p2049
ag32
ag33
aS'species'
p2050
atRp2051
sg37
(lp2052
sg120
g2024
sg121
S'RWLSTKDLYSRLELPGLNQNVHAMFVMPLGFGNPMGDMFARLNNSFWLPPLSLEGAGTGWTVYPPLSHSGPSVDLAFHLTSSLLGAINFTNMRGPLFWTALLLLSLPVLAGTLLDRNFNTFDGGDPLYHLFWFFGHPEVYIIPGFGSHSTYKKFGMYASIGLGFVWSHHMYVGLDDRAYFTSATMIAPTGIKFSWLATYGGRPMLAFLFLFTGGTGVLNASDAFHDTYYVVMAFSLGYYPYNLYWFMFGMPDSGWSSSYQLGPDESNE'
p2053
sg123
F0.04879
sg124
g125
sg33
S'91'
p2054
sg127
g1
(g128
g12
(dp2055
g130
I4
sg131
g132
sg133
g134
sg135
g132
sg136
I01
sg34
g137
sg138
g134
sg139
I0
sg140
I0
sg141
I0
sg142
g134
sg35
g143
sg144
I0
stRp2056
sg146
g147
sg148
F1
sg149
Nsg30
S'CneerA'
p2057
sbag1
(g2
g3
NtRp2058
(dp2059
g6
g1
(g7
g3
NtRp2060
(dp2061
g10
g1
(g11
g12
(dtRp2062
sg14
g1
(g11
g12
(dtRp2063
sg16
g1
(g11
g12
(dtRp2064
sg18
g1
(g11
g12
(dtRp2065
sg20
g1
(g11
g12
(dtRp2066
sg22
g1
(g11
g12
(dtRp2067
sbsg24
S'Cfr'
p2068
sg26
g27
((lp2069
g29
ag30
aS'sequence'
p2070
ag32
ag33
aS'species'
p2071
atRp2072
sg37
(lp2073
sg120
g2024
sg121
S'RWLSTKDLYSRLELPGLNQNVHAMFVMPLGFGNPMGDMFARLNNSFWLPPLSLEGAGTGWTVYPPLSHSGPSVDLAFHLTSSLLGAMNFTNMRGPLFWTALLLLSLPVLAGTLLDRNFNTFDGGDPLYHLFWFFGHPEVYIIPGFGSHSTYKKFGMYASIGLGFVWSHHMYVGLDDRAYFTSATMIAPTGIKFSWLSTYGGRPMLAFLFLFTGGTGVLNASDAFHDTYYVVMAFSLGYYPYNLYWFMFGMPDSGWSSSYQLGPDESNE'
p2074
sg123
F0.050279999999999998
sg124
g125
sg33
S'98'
p2075
sg127
g1
(g128
g12
(dp2076
g130
I4
sg131
g132
sg133
g134
sg135
g132
sg136
I01
sg34
g137
sg138
g134
sg139
I0
sg140
I0
sg141
I0
sg142
g134
sg35
g143
sg144
I0
stRp2077
sg146
g147
sg148
F1
sg149
Nsg30
S'CfrijA'
p2078
sbasg120
g1765
sg123
F0.11378000000000001
sg124
g125
sg33
S'80'
p2079
sg127
g1
(g128
g12
(dp2080
g130
I6
sg131
g132
sg133
g134
sg135
g132
sg136
I01
sg34
g174
sg138
g134
sg139
I0
sg140
I0
sg141
I0
sg142
g134
sg35
g175
sg144
I0
stRp2081
sg146
g147
sg148
F0.98999999999999999
sg149
Nsg30
S'NoName'
p2082
sbasg120
g1731
sg123
F0.076910000000000006
sg124
g125
sg33
S'27'
p2083
sg127
g1
(g128
g12
(dp2084
g130
I6
sg131
g132
sg133
g134
sg135
g132
sg136
I01
sg34
g174
sg138
g134
sg139
I0
sg140
I0
sg141
I0
sg142
g134
sg35
g175
sg144
I0
stRp2085
sg146
g147
sg148
F0.98999999999999999
sg149
Nsg30
S'NoName'
p2086
sbasg120
g1718
sg123
F0.022950000000000002
sg124
g125
sg33
S'146'
p2087
sg127
g1
(g128
g12
(dp2088
g130
I6
sg131
g132
sg133
g134
sg135
g132
sg136
I01
sg34
g174
sg138
g134
sg139
I0
sg140
I0
sg141
I0
sg142
g134
sg35
g175
sg144
I0
stRp2089
sg146
g147
sg148
F0.65000000000000002
sg149
Nsg30
S'NoName'
p2090
sbag1
(g2
g3
NtRp2091
(dp2092
g6
g1
(g7
g3
NtRp2093
(dp2094
g10
g1
(g11
g12
(dtRp2095
sg14
g1
(g11
g12
(dtRp2096
sg16
g1
(g11
g12
(dtRp2097
sg18
g1
(g11
g12
(dtRp2098
sg20
g1
(g11
g12
(dtRp2099
sg22
g1
(g11
g12
(dtRp2100
sbsg24
g25
sg26
g27
((lp2101
g33
ag32
ag29
ag30
atRp2102
sg37
(lp2103
g1
(g2
g3
NtRp2104
(dp2105
g6
g1
(g7
g3
NtRp2106
(dp2107
g10
g1
(g11
g12
(dtRp2108
sg14
g1
(g11
g12
(dtRp2109
sg16
g1
(g11
g12
(dtRp2110
sg18
g1
(g11
g12
(dtRp2111
sg20
g1
(g11
g12
(dtRp2112
sg22
g1
(g11
g12
(dtRp2113
sbsg24
g25
sg26
g27
((lp2114
g33
ag32
ag29
ag30
atRp2115
sg37
(lp2116
g1
(g2
g3
NtRp2117
(dp2118
g6
g1
(g7
g3
NtRp2119
(dp2120
g10
g1
(g11
g12
(dtRp2121
sg14
g1
(g11
g12
(dtRp2122
sg16
g1
(g11
g12
(dtRp2123
sg18
g1
(g11
g12
(dtRp2124
sg20
g1
(g11
g12
(dtRp2125
sg22
g1
(g11
g12
(dtRp2126
sbsg24
S'Cgi'
p2127
sg26
g27
((lp2128
g29
ag30
aS'sequence'
p2129
ag32
ag33
aS'species'
p2130
atRp2131
sg37
(lp2132
sg120
g2104
sg121
S'RWLSTKDLYSRLELAGLNQNVHAMFVMPLGFGNPMGDMFARLNNSFWLPPLSLEGAGTGWTVYPPLSHSGPSVDMAFHLTSSLLGAINFTNMRGPLFWTALLLLSLPVLAATLLDRNFNTFEGGDPLYHAFWFFGHPEVYIIPGFGSHSTYKKFGMYASIGLGFVWSHHMYVGLDDRAYFTSATMIAPTGIKFSWLATYGGRPMLAFLFLFTGGTGVLNASDAFHDTYYVVMAFSLGYYPYNLYWFMFGMPDAGWSSSYQLGPDESNE'
p2133
sg123
F0.22796
sg124
g125
sg33
S'99'
p2134
sg127
g1
(g128
g12
(dp2135
g130
I4
sg131
g132
sg133
g134
sg135
g132
sg136
I01
sg34
g137
sg138
g134
sg139
I0
sg140
I0
sg141
I0
sg142
g134
sg35
g143
sg144
I0
stRp2136
sg146
g147
sg148
F1
sg149
Nsg30
S'CgigaA'
p2137
sbag1
(g2
g3
NtRp2138
(dp2139
g6
g1
(g7
g3
NtRp2140
(dp2141
g10
g1
(g11
g12
(dtRp2142
sg14
g1
(g11
g12
(dtRp2143
sg16
g1
(g11
g12
(dtRp2144
sg18
g1
(g11
g12
(dtRp2145
sg20
g1
(g11
g12
(dtRp2146
sg22
g1
(g11
g12
(dtRp2147
sbsg24
S'Cbu'
p2148
sg26
g27
((lp2149
g29
ag30
aS'sequence'
p2150
ag32
ag33
aS'species'
p2151
atRp2152
sg37
(lp2153
sg120
g2104
sg121
S'RWLSTKDLYSRLELAGLNQNVHAMFVMPLGFGNPMGDMFARLNNSFWLPPLSLEGAGTGWTVYPPLSHSGPSVDLAFHLTSSLLGAINFTNMRGPLFWTALLLLSLPVLAGTLLDRNFNTFEGGDPLYHLFWFFGHPEVYIIPGFGSHGTYKKFGMYASIGLGFVWSHHMFVGLDDRAYFTSATMIAPTGIKFSWLATYGGRPMLAFLFLFTGGTGVLNASDAFHDTYYVVMAFSLAYYPYNLFWFMFGMPDAGWSSSYQLGPDESNE'
p2154
sg123
F0.26118000000000002
sg124
g125
sg33
S'47'
p2155
sg127
g1
(g128
g12
(dp2156
g130
I4
sg131
g132
sg133
g134
sg135
g132
sg136
I01
sg34
g137
sg138
g134
sg139
I0
sg140
I0
sg141
I0
sg142
g134
sg35
g143
sg144
I0
stRp2157
sg146
g147
sg148
F1
sg149
Nsg30
S'CbuenA'
p2158
sbasg120
g2091
sg123
F0.037260000000000001
sg124
g125
sg33
S'45'
p2159
sg127
g1
(g128
g12
(dp2160
g130
I6
sg131
g132
sg133
g134
sg135
g132
sg136
I01
sg34
g174
sg138
g134
sg139
I0
sg140
I0
sg141
I0
sg142
g134
sg35
g175
sg144
I0
stRp2161
sg146
g147
sg148
F0.98999999999999999
sg149
Nsg30
S'NoName'
p2162
sbag1
(g2
g3
NtRp2163
(dp2164
g6
g1
(g7
g3
NtRp2165
(dp2166
g10
g1
(g11
g12
(dtRp2167
sg14
g1
(g11
g12
(dtRp2168
sg16
g1
(g11
g12
(dtRp2169
sg18
g1
(g11
g12
(dtRp2170
sg20
g1
(g11
g12
(dtRp2171
sg22
g1
(g11
g12
(dtRp2172
sbsg24
g25
sg26
g27
((lp2173
g33
ag32
ag29
ag30
atRp2174
sg37
(lp2175
g1
(g2
g3
NtRp2176
(dp2177
g6
g1
(g7
g3
NtRp2178
(dp2179
g10
g1
(g11
g12
(dtRp2180
sg14
g1
(g11
g12
(dtRp2181
sg16
g1
(g11
g12
(dtRp2182
sg18
g1
(g11
g12
(dtRp2183
sg20
g1
(g11
g12
(dtRp2184
sg22
g1
(g11
g12
(dtRp2185
sbsg24
S'Cdu'
p2186
sg26
g27
((lp2187
g29
ag30
aS'sequence'
p2188
ag32
ag33
aS'species'
p2189
atRp2190
sg37
(lp2191
sg120
g2163
sg121
S'RWLSTKDLYSRLELPGLNQNVHAMFVMPLGFGNPMGDMFARLNNSFWLPPLSLEGAGTGWTVYPPLSHSGPSVDLAFHLTSSLLGAINFTNMRGPLYWTALLLLSLPVLAGTLLDRNFNTFEGGDPLYHLFWFFGHPEVYIIPGFGSHSTYKKFGMYASIGLGFVWSHHMYVGLDDRAYFTSATMIAPTGIKFSWLATYGGRPMLAFLFLFTGGTGVLNASDAFHDTYYVVMAFSLGYYPYNLYWFMFGMPDAGWSSSYQLGPDESNE'
p2192
sg123
F0.025069999999999999
sg124
g125
sg33
S'73'
p2193
sg127
g1
(g128
g12
(dp2194
g130
I4
sg131
g132
sg133
g134
sg135
g132
sg136
I01
sg34
g137
sg138
g134
sg139
I0
sg140
I0
sg141
I0
sg142
g134
sg35
g143
sg144
I0
stRp2195
sg146
g147
sg148
F1
sg149
Nsg30
S'CdublA'
p2196
sbag1
(g2
g3
NtRp2197
(dp2198
g6
g1
(g7
g3
NtRp2199
(dp2200
g10
g1
(g11
g12
(dtRp2201
sg14
g1
(g11
g12
(dtRp2202
sg16
g1
(g11
g12
(dtRp2203
sg18
g1
(g11
g12
(dtRp2204
sg20
g1
(g11
g12
(dtRp2205
sg22
g1
(g11
g12
(dtRp2206
sbsg24
g25
sg26
g27
((lp2207
g33
ag32
ag29
ag30
atRp2208
sg37
(lp2209
g1
(g2
g3
NtRp2210
(dp2211
g6
g1
(g7
g3
NtRp2212
(dp2213
g10
g1
(g11
g12
(dtRp2214
sg14
g1
(g11
g12
(dtRp2215
sg16
g1
(g11
g12
(dtRp2216
sg18
g1
(g11
g12
(dtRp2217
sg20
g1
(g11
g12
(dtRp2218
sg22
g1
(g11
g12
(dtRp2219
sbsg24
g25
sg26
g27
((lp2220
g33
ag32
ag29
ag30
atRp2221
sg37
(lp2222
g1
(g2
g3
NtRp2223
(dp2224
g6
g1
(g7
g3
NtRp2225
(dp2226
g10
g1
(g11
g12
(dtRp2227
sg14
g1
(g11
g12
(dtRp2228
sg16
g1
(g11
g12
(dtRp2229
sg18
g1
(g11
g12
(dtRp2230
sg20
g1
(g11
g12
(dtRp2231
sg22
g1
(g11
g12
(dtRp2232
sbsg24
g25
sg26
g27
((lp2233
g33
ag32
ag29
ag30
atRp2234
sg37
(lp2235
g1
(g2
g3
NtRp2236
(dp2237
g6
g1
(g7
g3
NtRp2238
(dp2239
g10
g1
(g11
g12
(dtRp2240
sg14
g1
(g11
g12
(dtRp2241
sg16
g1
(g11
g12
(dtRp2242
sg18
g1
(g11
g12
(dtRp2243
sg20
g1
(g11
g12
(dtRp2244
sg22
g1
(g11
g12
(dtRp2245
sbsg24
g25
sg26
g27
((lp2246
g33
ag32
ag29
ag30
atRp2247
sg37
(lp2248
g1
(g2
g3
NtRp2249
(dp2250
g6
g1
(g7
g3
NtRp2251
(dp2252
g10
g1
(g11
g12
(dtRp2253
sg14
g1
(g11
g12
(dtRp2254
sg16
g1
(g11
g12
(dtRp2255
sg18
g1
(g11
g12
(dtRp2256
sg20
g1
(g11
g12
(dtRp2257
sg22
g1
(g11
g12
(dtRp2258
sbsg24
S'Cal'
p2259
sg26
g27
((lp2260
g29
ag30
aS'sequence'
p2261
ag32
ag33
aS'species'
p2262
atRp2263
sg37
(lp2264
sg120
g2236
sg121
S'RWLSTKDLYSRLELPGLNQNVHAMFVMPLGFGNPMGDMFARLNNSFWLPPLSLEGAGTGWTVYPPLSHSGPSVDLAFHLTSSLLGAINFTNMRGPLFWTALLLLSLPVLAGTLLDRNFNTFEGGDPLYHLFWFFGHPEVYIIPGFGSHSTYKKFGMYASIGLGFVWSHHMYVGLDDRAYFTSATMIAPTGIKFSWLATYGGRPMLAFLFLFTGGTGVLNASDAFHDTYYVVMAFSLGYYPYNLYWFMFGMPDAGWSSSYQLGPDESNE'
p2265
sg123
F0.00025000000000000001
sg124
g125
sg33
S'20'
p2266
sg127
g1
(g128
g12
(dp2267
g130
I4
sg131
g132
sg133
g134
sg135
g132
sg136
I01
sg34
g137
sg138
g134
sg139
I0
sg140
I0
sg141
I0
sg142
g134
sg35
g143
sg144
I0
stRp2268
sg146
g147
sg148
F1
sg149
Nsg30
S'CalbiE'
p2269
sbag1
(g2
g3
NtRp2270
(dp2271
g6
g1
(g7
g3
NtRp2272
(dp2273
g10
g1
(g11
g12
(dtRp2274
sg14
g1
(g11
g12
(dtRp2275
sg16
g1
(g11
g12
(dtRp2276
sg18
g1
(g11
g12
(dtRp2277
sg20
g1
(g11
g12
(dtRp2278
sg22
g1
(g11
g12
(dtRp2279
sbsg24
S'Cal'
p2280
sg26
g27
((lp2281
g29
ag30
aS'sequence'
p2282
ag32
ag33
aS'species'
p2283
atRp2284
sg37
(lp2285
sg120
g2236
sg121
S'RWLSTKDLYSRLELPGLNQNVHAMFVMPLGFGNPMGDMFARLNNSFWLPPLSLEGAGTGWTVYPPLSHSGPSVDLAFHLTSSLLGAINFTNMRGPLFWTALLLLSLPVLAGTLLDRNFNTFEGGDPLYHLFWFFGHPEVYIIPGFGSHSTYKKFGMYASIGLGFVWSHHMYVGLDDRAYFTSATMIAPTGIKFSWLATYGGRPMLAFLFLFTGGTGVLNASDAFHDTYYVVMAFSLGYYPYNLYWFMFGMPDAGWSSSYQLGPDESNE'
p2286
sg123
F0.00050000000000000001
sg124
g125
sg33
S'29'
p2287
sg127
g1
(g128
g12
(dp2288
g130
I4
sg131
g132
sg133
g134
sg135
g132
sg136
I01
sg34
g137
sg138
g134
sg139
I0
sg140
I0
sg141
I0
sg142
g134
sg35
g143
sg144
I0
stRp2289
sg146
g147
sg148
F1
sg149
Nsg30
S'CalbiD'
p2290
sbasg120
g2223
sg123
F0.00051999999999999995
sg124
g125
sg33
S'131'
p2291
sg127
g1
(g128
g12
(dp2292
g130
I6
sg131
g132
sg133
g134
sg135
g132
sg136
I01
sg34
g174
sg138
g134
sg139
I0
sg140
I0
sg141
I0
sg142
g134
sg35
g175
sg144
I0
stRp2293
sg146
g147
sg148
F0.73999999999999999
sg149
Nsg30
S'NoName'
p2294
sbag1
(g2
g3
NtRp2295
(dp2296
g6
g1
(g7
g3
NtRp2297
(dp2298
g10
g1
(g11
g12
(dtRp2299
sg14
g1
(g11
g12
(dtRp2300
sg16
g1
(g11
g12
(dtRp2301
sg18
g1
(g11
g12
(dtRp2302
sg20
g1
(g11
g12
(dtRp2303
sg22
g1
(g11
g12
(dtRp2304
sbsg24
S'Cal'
p2305
sg26
g27
((lp2306
g29
ag30
aS'sequence'
p2307
ag32
ag33
aS'species'
p2308
atRp2309
sg37
(lp2310
sg120
g2223
sg121
S'RWLSTKDLYSRLELPGLNQNVHAMFVMPLGFGNPMGDMFARLNNSFWLPPLSLEGAGTGWTVYPPLSHSGPSVDLAFHLTSSLLGAINFTNMRGPLFWTALLLLSLPVLAGTLLDRNFNTFEGGDPLYHLFWFFGHPEVYIIPGFGSHSTYKKFGMYASIGLGFVWSHHMYVGLDDRAYFTSATMIAPTGIKFSWLATYGGRPMLAFLFLFTGGTGVLNASDAFHDTYYVVMAFSLGYYPYNLYWFMFGMPDAGWSSSYQLGPDESNE'
p2311
sg123
F0.00012
sg124
g125
sg33
S'39'
p2312
sg127
g1
(g128
g12
(dp2313
g130
I4
sg131
g132
sg133
g134
sg135
g132
sg136
I01
sg34
g137
sg138
g134
sg139
I0
sg140
I0
sg141
I0
sg142
g134
sg35
g143
sg144
I0
stRp2314
sg146
g147
sg148
F1
sg149
Nsg30
S'CalbiC'
p2315
sbasg120
g2210
sg123
F1.0000000000000001e-05
sg124
g125
sg33
S'104'
p2316
sg127
g1
(g128
g12
(dp2317
g130
I6
sg131
g132
sg133
g134
sg135
g132
sg136
I01
sg34
g174
sg138
g134
sg139
I0
sg140
I0
sg141
I0
sg142
g134
sg35
g175
sg144
I0
stRp2318
sg146
g147
sg148
F1
sg149
Nsg30
S'NoName'
p2319
sbag1
(g2
g3
NtRp2320
(dp2321
g6
g1
(g7
g3
NtRp2322
(dp2323
g10
g1
(g11
g12
(dtRp2324
sg14
g1
(g11
g12
(dtRp2325
sg16
g1
(g11
g12
(dtRp2326
sg18
g1
(g11
g12
(dtRp2327
sg20
g1
(g11
g12
(dtRp2328
sg22
g1
(g11
g12
(dtRp2329
sbsg24
S'Cal'
p2330
sg26
g27
((lp2331
g29
ag30
aS'sequence'
p2332
ag32
ag33
aS'species'
p2333
atRp2334
sg37
(lp2335
sg120
g2210
sg121
S'RWLSTKDLYSRLELPGLNQNVHAMFVMPLGFGNPMGDMFARLNNSFWLPPLSLEGAGTGWTVYPPLSHSGPSVDLAFHLTSSLLGAINFTNMRGPLFWTALLLLSLPVLAGTLLDRNFNTFEGGDPLYHLFWFFGHPEVYIIPGFGSHSTYKKFGMYASIGLGFVWSHHMYVGLDDRAYFTSATMIAPTGIKFSWLATYGGRPMLAFLFLFTGGTGVLNASDAFHDTYYVVMAFSLGYYPYNLYWFMFGMPDAGWSSSYQLGPDESNE'
p2336
sg123
F0.00016000000000000001
sg124
g125
sg33
S'154'
p2337
sg127
g1
(g128
g12
(dp2338
g130
I4
sg131
g132
sg133
g134
sg135
g132
sg136
I01
sg34
g137
sg138
g134
sg139
I0
sg140
I0
sg141
I0
sg142
g134
sg35
g143
sg144
I0
stRp2339
sg146
g147
sg148
F1
sg149
Nsg30
S'CalbiB'
p2340
sbasg120
g2197
sg123
F1.0000000000000001e-05
sg124
g125
sg33
S'92'
p2341
sg127
g1
(g128
g12
(dp2342
g130
I6
sg131
g132
sg133
g134
sg135
g132
sg136
I01
sg34
g174
sg138
g134
sg139
I0
sg140
I0
sg141
I0
sg142
g134
sg35
g175
sg144
I0
stRp2343
sg146
g147
sg148
F1
sg149
Nsg30
S'NoName'
p2344
sbag1
(g2
g3
NtRp2345
(dp2346
g6
g1
(g7
g3
NtRp2347
(dp2348
g10
g1
(g11
g12
(dtRp2349
sg14
g1
(g11
g12
(dtRp2350
sg16
g1
(g11
g12
(dtRp2351
sg18
g1
(g11
g12
(dtRp2352
sg20
g1
(g11
g12
(dtRp2353
sg22
g1
(g11
g12
(dtRp2354
sbsg24
S'Cal'
p2355
sg26
g27
((lp2356
g29
ag30
aS'sequence'
p2357
ag32
ag33
aS'species'
p2358
atRp2359
sg37
(lp2360
sg120
g2197
sg121
S'RWLSTKDLYSRLELPGLNQNVHAMFVMPLGFGNPMGDMFARLNNSFWLPPLSLEGAGTGWTVYPPLSHSGPSVDLAFHLTSSLLGAINFTNMRGPLFWTALLLLSLPVLAGTLLDRNFNTFEGGDPLYHLFWFFGHPEVYIIPGFGSHSTYKKFGMYASIGLGFVWSHHMYVGLDDRAYFTSATMIAPTGIKFSWLATYGGRPMLAFLFLFTGGTGVLNASDAFHDTYYVVMAFSLGYYPYNLYWFMFGMPDAGWSSSYQLGPDESNE'
p2361
sg123
F0.00013999999999999999
sg124
g125
sg33
S'212'
p2362
sg127
g1
(g128
g12
(dp2363
g130
I4
sg131
g132
sg133
g134
sg135
g132
sg136
I01
sg34
g137
sg138
g134
sg139
I0
sg140
I0
sg141
I0
sg142
g134
sg35
g143
sg144
I0
stRp2364
sg146
g147
sg148
F1
sg149
Nsg30
S'CalbiA'
p2365
sbasg120
g2163
sg123
F0.014959999999999999
sg124
g125
sg33
S'96'
p2366
sg127
g1
(g128
g12
(dp2367
g130
I6
sg131
g132
sg133
g134
sg135
g132
sg136
I01
sg34
g174
sg138
g134
sg139
I0
sg140
I0
sg141
I0
sg142
g134
sg35
g175
sg144
I0
stRp2368
sg146
g147
sg148
F0.98999999999999999
sg149
Nsg30
S'NoName'
p2369
sbasg120
g2091
sg123
F0.05287
sg124
g125
sg33
S'89'
p2370
sg127
g1
(g128
g12
(dp2371
g130
I6
sg131
g132
sg133
g134
sg135
g132
sg136
I01
sg34
g174
sg138
g134
sg139
I0
sg140
I0
sg141
I0
sg142
g134
sg35
g175
sg144
I0
stRp2372
sg146
g147
sg148
F0.98999999999999999
sg149
Nsg30
S'NoName'
p2373
sbasg120
g1718
sg123
F0.037499999999999999
sg124
g125
sg33
S'42'
p2374
sg127
g1
(g128
g12
(dp2375
g130
I6
sg131
g132
sg133
g134
sg135
g132
sg136
I01
sg34
g174
sg138
g134
sg139
I0
sg140
I0
sg141
I0
sg142
g134
sg35
g175
sg144
I0
stRp2376
sg146
g147
sg148
F0.98999999999999999
sg149
Nsg30
S'NoName'
p2377
sbasg120
g1001
sg123
F0.10766000000000001
sg124
g125
sg33
S'18'
p2378
sg127
g1
(g128
g12
(dp2379
g130
I6
sg131
g132
sg133
g134
sg135
g132
sg136
I01
sg34
g174
sg138
g134
sg139
I0
sg140
I0
sg141
I0
sg142
g134
sg35
g175
sg144
I0
stRp2380
sg146
g147
sg148
F0.98999999999999999
sg149
Nsg30
S'NoName'
p2381
sbasg120
g967
sg123
F0.093560000000000004
sg124
g125
sg33
S'195'
p2382
sg127
g1
(g128
g12
(dp2383
g130
I6
sg131
g132
sg133
g134
sg135
g132
sg136
I01
sg34
g174
sg138
g134
sg139
I0
sg140
I0
sg141
I0
sg142
g134
sg35
g175
sg144
I0
stRp2384
sg146
g147
sg148
F0.97999999999999998
sg149
Nsg30
S'NoName'
p2385
sbasg120
g954
sg123
F0.036760000000000001
sg124
g125
sg33
S'143'
p2386
sg127
g1
(g128
g12
(dp2387
g130
I6
sg131
g132
sg133
g134
sg135
g132
sg136
I01
sg34
g174
sg138
g134
sg139
I0
sg140
I0
sg141
I0
sg142
g134
sg35
g175
sg144
I0
stRp2388
sg146
g147
sg148
F0.97999999999999998
sg149
Nsg30
S'NoName'
p2389
sbag1
(g2
g3
NtRp2390
(dp2391
g6
g1
(g7
g3
NtRp2392
(dp2393
g10
g1
(g11
g12
(dtRp2394
sg14
g1
(g11
g12
(dtRp2395
sg16
g1
(g11
g12
(dtRp2396
sg18
g1
(g11
g12
(dtRp2397
sg20
g1
(g11
g12
(dtRp2398
sg22
g1
(g11
g12
(dtRp2399
sbsg24
g25
sg26
g27
((lp2400
g33
ag32
ag29
ag30
atRp2401
sg37
(lp2402
g1
(g2
g3
NtRp2403
(dp2404
g6
g1
(g7
g3
NtRp2405
(dp2406
g10
g1
(g11
g12
(dtRp2407
sg14
g1
(g11
g12
(dtRp2408
sg16
g1
(g11
g12
(dtRp2409
sg18
g1
(g11
g12
(dtRp2410
sg20
g1
(g11
g12
(dtRp2411
sg22
g1
(g11
g12
(dtRp2412
sbsg24
g25
sg26
g27
((lp2413
g33
ag32
ag29
ag30
atRp2414
sg37
(lp2415
g1
(g2
g3
NtRp2416
(dp2417
g6
g1
(g7
g3
NtRp2418
(dp2419
g10
g1
(g11
g12
(dtRp2420
sg14
g1
(g11
g12
(dtRp2421
sg16
g1
(g11
g12
(dtRp2422
sg18
g1
(g11
g12
(dtRp2423
sg20
g1
(g11
g12
(dtRp2424
sg22
g1
(g11
g12
(dtRp2425
sbsg24
S'Csu'
p2426
sg26
g27
((lp2427
g29
ag30
aS'sequence'
p2428
ag32
ag33
aS'species'
p2429
atRp2430
sg37
(lp2431
sg120
g2403
sg121
S'RWLSTKDLYSRMELPGLNQNVHAMFIMPLGLGNPLGDMFARLNNSFWLPPLSLEGAGTGWTVYPPLSHSGPSVDLAFHLTSSLLGAINFTNMRGPLYWTALLLLSLPVLAATLLDRNFNTFEGGDPLYHLFWFFGHPEVYIIPGFGSHSTYKKFGMYASIGLGFVWSHHMFVGLDDRAYFTSATMIAPTGVKFSWLATYGGRPMLAFLFLFTGGTGVINASDAFHDTYYIVMAFSLGFYPYNLFWFMFGMPDAGWSSAYQLGPDESNE'
p2432
sg123
F0.00012999999999999999
sg124
g125
sg33
S'187'
p2433
sg127
g1
(g128
g12
(dp2434
g130
I4
sg131
g132
sg133
g134
sg135
g132
sg136
I01
sg34
g137
sg138
g134
sg139
I0
sg140
I0
sg141
I0
sg142
g134
sg35
g143
sg144
I0
stRp2435
sg146
g147
sg148
F1
sg149
Nsg30
S'CsubhB'
p2436
sbag1
(g2
g3
NtRp2437
(dp2438
g6
g1
(g7
g3
NtRp2439
(dp2440
g10
g1
(g11
g12
(dtRp2441
sg14
g1
(g11
g12
(dtRp2442
sg16
g1
(g11
g12
(dtRp2443
sg18
g1
(g11
g12
(dtRp2444
sg20
g1
(g11
g12
(dtRp2445
sg22
g1
(g11
g12
(dtRp2446
sbsg24
S'Csu'
p2447
sg26
g27
((lp2448
g29
ag30
aS'sequence'
p2449
ag32
ag33
aS'species'
p2450
atRp2451
sg37
(lp2452
sg120
g2403
sg121
S'RWLSTKDLYSRMELPGLNQNVHAMFIMPLGLGNPLGDMFARLNNSFWLPPLSLEGAGTGWTVYPPLSHSGPSVDLAFHLTSSLLGAINFTNMRGPLYWTALLLLSLPVLAATLLDRNFNTFEGGDPLYHLFWFFGHPEVYIIPGFGSHSTYKKFGMYASIGLGFVWSHHMFVGLDDRAYFTSATMIAPTGVKFSWLATYGGRPMLAFLFLFTGGTGVINASDAFHDTYYIVMAFSLGFYPYNLFWFMFGMPDAGWSSAYQLGPDESNE'
p2453
sg123
F0.00013999999999999999
sg124
g125
sg33
S'174'
p2454
sg127
g1
(g128
g12
(dp2455
g130
I4
sg131
g132
sg133
g134
sg135
g132
sg136
I01
sg34
g137
sg138
g134
sg139
I0
sg140
I0
sg141
I0
sg142
g134
sg35
g143
sg144
I0
stRp2456
sg146
g147
sg148
F1
sg149
Nsg30
S'CsubhA'
p2457
sbasg120
g2390
sg123
F0.59348999999999996
sg124
g125
sg33
S'93'
p2458
sg127
g1
(g128
g12
(dp2459
g130
I6
sg131
g132
sg133
g134
sg135
g132
sg136
I01
sg34
g174
sg138
g134
sg139
I0
sg140
I0
sg141
I0
sg142
g134
sg35
g175
sg144
I0
stRp2460
sg146
g147
sg148
F1
sg149
Nsg30
S'NoName'
p2461
sbag1
(g2
g3
NtRp2462
(dp2463
g6
g1
(g7
g3
NtRp2464
(dp2465
g10
g1
(g11
g12
(dtRp2466
sg14
g1
(g11
g12
(dtRp2467
sg16
g1
(g11
g12
(dtRp2468
sg18
g1
(g11
g12
(dtRp2469
sg20
g1
(g11
g12
(dtRp2470
sg22
g1
(g11
g12
(dtRp2471
sbsg24
S'Cal'
p2472
sg26
g27
((lp2473
g29
ag30
aS'sequence'
p2474
ag32
ag33
aS'species'
p2475
atRp2476
sg37
(lp2477
sg120
g2390
sg121
S'RWLSTKDLYSRMELPGLNQNVHAMFVMPLGFGNPLGDMFARLNNSFWLPPLSLDGPGTGWTVYPPLSHSGASVDFAFHLTSSLLGAINFTNMRGPLFWTALLLLSLPVLVATLLDRNFNTFEGGDPLYHLFWFFGHPEVYMIPGFGSHSTYKKFGMYASIGLGFVWSHHMFVGLDDRAYFTSATMMAPTGIKFSWMATYGGYPMLAFLFLFTGGTGVINASDAFHDTYYIVMAFSLGYYPYNLFWFMFGMPDAGWSSAYQLGPDESNE'
p2478
sg123
F0.40044000000000002
sg124
g125
sg33
S'74'
p2479
sg127
g1
(g128
g12
(dp2480
g130
I4
sg131
g132
sg133
g134
sg135
g132
sg136
I01
sg34
g137
sg138
g134
sg139
I0
sg140
I0
sg141
I0
sg142
g134
sg35
g143
sg144
I0
stRp2481
sg146
g147
sg148
F1
sg149
Nsg30
S'CalaiA'
p2482
sbasg120
g954
sg123
F0.080810000000000007
sg124
g125
sg33
S'200'
p2483
sg127
g1
(g128
g12
(dp2484
g130
I6
sg131
g132
sg133
g134
sg135
g132
sg136
I01
sg34
g174
sg138
g134
sg139
I0
sg140
I0
sg141
I0
sg142
g134
sg35
g175
sg144
I0
stRp2485
sg146
g147
sg148
F0.98999999999999999
sg149
Nsg30
S'NoName'
p2486
sbasg120
g692
sg123
F0.075389999999999999
sg124
g125
sg33
S'142'
p2487
sg127
g1
(g128
g12
(dp2488
g130
I6
sg131
g132
sg133
g134
sg135
g132
sg136
I01
sg34
g174
sg138
g134
sg139
I0
sg140
I0
sg141
I0
sg142
g134
sg35
g175
sg144
I0
stRp2489
sg146
g147
sg148
F0.94999999999999996
sg149
Nsg30
S'NoName'
p2490
sbasg120
g679
sg123
F1.2542500000000001
sg124
g125
sg33
S'119'
p2491
sg127
g1
(g128
g12
(dp2492
g130
I6
sg131
g132
sg133
g134
sg135
g132
sg136
I01
sg34
g174
sg138
g134
sg139
I0
sg140
I0
sg141
I0
sg142
g134
sg35
g175
sg144
I0
stRp2493
sg146
g147
sg148
F0.97999999999999998
sg149
Nsg30
S'NoName'
p2494
sbag1
(g2
g3
NtRp2495
(dp2496
g6
g1
(g7
g3
NtRp2497
(dp2498
g10
g1
(g11
g12
(dtRp2499
sg14
g1
(g11
g12
(dtRp2500
sg16
g1
(g11
g12
(dtRp2501
sg18
g1
(g11
g12
(dtRp2502
sg20
g1
(g11
g12
(dtRp2503
sg22
g1
(g11
g12
(dtRp2504
sbsg24
g25
sg26
g27
((lp2505
g33
ag32
ag29
ag30
atRp2506
sg37
(lp2507
g1
(g2
g3
NtRp2508
(dp2509
g6
g1
(g7
g3
NtRp2510
(dp2511
g10
g1
(g11
g12
(dtRp2512
sg14
g1
(g11
g12
(dtRp2513
sg16
g1
(g11
g12
(dtRp2514
sg18
g1
(g11
g12
(dtRp2515
sg20
g1
(g11
g12
(dtRp2516
sg22
g1
(g11
g12
(dtRp2517
sbsg24
g25
sg26
g27
((lp2518
g33
ag32
ag29
ag30
atRp2519
sg37
(lp2520
g1
(g2
g3
NtRp2521
(dp2522
g6
g1
(g7
g3
NtRp2523
(dp2524
g10
g1
(g11
g12
(dtRp2525
sg14
g1
(g11
g12
(dtRp2526
sg16
g1
(g11
g12
(dtRp2527
sg18
g1
(g11
g12
(dtRp2528
sg20
g1
(g11
g12
(dtRp2529
sg22
g1
(g11
g12
(dtRp2530
sbsg24
S'Ppa'
p2531
sg26
g27
((lp2532
g29
ag30
aS'sequence'
p2533
ag32
ag33
aS'species'
p2534
atRp2535
sg37
(lp2536
sg120
g2508
sg121
S'RWLSTKDLYSRLELPGLNQNVHAMFVMPAGFGNPMGDMFARLNNSFWLPPLSLEGAGTGWTVYPPLAHSGPSVDLAFHLTSSLLGAMNFTNMRGPLFWTSLLLLSLPVLAGTLLDRNFNTFEGGDPLYHLFWFFGHPEVYIMPGFGSHSTYKKFGMYASIGLGLVWSHHMYVGLDDRAYFTSATMMAPTGMKFSWLATYGGRPMLAFLFLFTGGSGVLNASDAFHDTYYVILAFSLGYYPYNLFWFMFGMPDAGWSSSYQLGPDESND'
p2537
sg123
F0.16184999999999999
sg124
g125
sg33
S'126'
p2538
sg127
g1
(g128
g12
(dp2539
g130
I4
sg131
g132
sg133
g134
sg135
g132
sg136
I01
sg34
g137
sg138
g134
sg139
I0
sg140
I0
sg141
I0
sg142
g134
sg35
g143
sg144
I0
stRp2540
sg146
g147
sg148
F1
sg149
Nsg30
S'PpastA'
p2541
sbag1
(g2
g3
NtRp2542
(dp2543
g6
g1
(g7
g3
NtRp2544
(dp2545
g10
g1
(g11
g12
(dtRp2546
sg14
g1
(g11
g12
(dtRp2547
sg16
g1
(g11
g12
(dtRp2548
sg18
g1
(g11
g12
(dtRp2549
sg20
g1
(g11
g12
(dtRp2550
sg22
g1
(g11
g12
(dtRp2551
sbsg24
g25
sg26
g27
((lp2552
g33
ag32
ag29
ag30
atRp2553
sg37
(lp2554
g1
(g2
g3
NtRp2555
(dp2556
g6
g1
(g7
g3
NtRp2557
(dp2558
g10
g1
(g11
g12
(dtRp2559
sg14
g1
(g11
g12
(dtRp2560
sg16
g1
(g11
g12
(dtRp2561
sg18
g1
(g11
g12
(dtRp2562
sg20
g1
(g11
g12
(dtRp2563
sg22
g1
(g11
g12
(dtRp2564
sbsg24
S'Pta'
p2565
sg26
g27
((lp2566
g29
ag30
aS'sequence'
p2567
ag32
ag33
aS'species'
p2568
atRp2569
sg37
(lp2570
sg120
g2542
sg121
S'RWLSTKDLYSRLELPGLNQNVHAMFVMPAGFGNPMGDMFARLNNSFWLPPLSLEGAGTGWTVYPPLSHSGPSVDLAFHLTSSLLGGMNFTNMRGPLFWTSLLVLTLPVLAGTLLDRNFNTFEGGDPLYHLFWFFGHPEVYIIPGFGSHSAYKKFGMYASIGLGLVWSHHMYVGLDDRAYFTSATMIAPTGIKFSWLATYGGRPMLAFLFLFTGGSGVLNASDAFHDTYYVMLAFSLGYYPYNLFWFMFGMPDAGFSSSYQLGPDESNE'
p2571
sg123
F0.23080999999999999
sg124
g125
sg33
S'179'
p2572
sg127
g1
(g128
g12
(dp2573
g130
I4
sg131
g132
sg133
g134
sg135
g132
sg136
I01
sg34
g137
sg138
g134
sg139
I0
sg140
I0
sg141
I0
sg142
g134
sg35
g143
sg144
I0
stRp2574
sg146
g147
sg148
F1
sg149
Nsg30
S'PtannA'
p2575
sbag1
(g2
g3
NtRp2576
(dp2577
g6
g1
(g7
g3
NtRp2578
(dp2579
g10
g1
(g11
g12
(dtRp2580
sg14
g1
(g11
g12
(dtRp2581
sg16
g1
(g11
g12
(dtRp2582
sg18
g1
(g11
g12
(dtRp2583
sg20
g1
(g11
g12
(dtRp2584
sg22
g1
(g11
g12
(dtRp2585
sbsg24
g25
sg26
g27
((lp2586
g33
ag32
ag29
ag30
atRp2587
sg37
(lp2588
g1
(g2
g3
NtRp2589
(dp2590
g6
g1
(g7
g3
NtRp2591
(dp2592
g10
g1
(g11
g12
(dtRp2593
sg14
g1
(g11
g12
(dtRp2594
sg16
g1
(g11
g12
(dtRp2595
sg18
g1
(g11
g12
(dtRp2596
sg20
g1
(g11
g12
(dtRp2597
sg22
g1
(g11
g12
(dtRp2598
sbsg24
g25
sg26
g27
((lp2599
g33
ag32
ag29
ag30
atRp2600
sg37
(lp2601
g1
(g2
g3
NtRp2602
(dp2603
g6
g1
(g7
g3
NtRp2604
(dp2605
g10
g1
(g11
g12
(dtRp2606
sg14
g1
(g11
g12
(dtRp2607
sg16
g1
(g11
g12
(dtRp2608
sg18
g1
(g11
g12
(dtRp2609
sg20
g1
(g11
g12
(dtRp2610
sg22
g1
(g11
g12
(dtRp2611
sbsg24
S'Pkl'
p2612
sg26
g27
((lp2613
g29
ag30
aS'sequence'
p2614
ag32
ag33
aS'species'
p2615
atRp2616
sg37
(lp2617
sg120
g2589
sg121
S'RWLSTKDLYSRLELPGLNQNVHAMFMMPTGFGNPMGDMFARLNNSFWLPPLSLEGPGTGWTVYPPLSHSGPSVDLAFHLTSSLLGAMNFTNMRGPLFWTALLVMTLPVLAGTLLDRNFNTFEGGDPLYHLFWFFGHPEVYMMPGFGSHSTYKKFGMYASMGLGLVWSHHMYVGLDDRAYFTSATMMAPTGMKFSWLATYGGRPMLAFMFIFTGGSGVLNASDAFHDTYYVMLAFAMGYYPFNLFWFMFGMPDAGFSASYQLGPDESNE'
p2618
sg123
F0.12625
sg124
g125
sg33
S'118'
p2619
sg127
g1
(g128
g12
(dp2620
g130
I4
sg131
g132
sg133
g134
sg135
g132
sg136
I01
sg34
g137
sg138
g134
sg139
I0
sg140
I0
sg141
I0
sg142
g134
sg35
g143
sg144
I0
stRp2621
sg146
g147
sg148
F1
sg149
Nsg30
S'PkluyA'
p2622
sbag1
(g2
g3
NtRp2623
(dp2624
g6
g1
(g7
g3
NtRp2625
(dp2626
g10
g1
(g11
g12
(dtRp2627
sg14
g1
(g11
g12
(dtRp2628
sg16
g1
(g11
g12
(dtRp2629
sg18
g1
(g11
g12
(dtRp2630
sg20
g1
(g11
g12
(dtRp2631
sg22
g1
(g11
g12
(dtRp2632
sbsg24
S'Bcu'
p2633
sg26
g27
((lp2634
g29
ag30
aS'sequence'
p2635
ag32
ag33
aS'species'
p2636
atRp2637
sg37
(lp2638
sg120
g2589
sg121
S'RWLSTKDLYSRLELPGLDQNVHSMFMMPTGFGNPMGDMFARLNNAFWYPPLSLEGPGTGWTVYPPLSHSGPSMDLAFHLTSSMLSSMNFTNMRGPLFWTALLMMTLPVLAGTLLDRNFNTFEGGDPLYHLYWFFGHPEVYIIPVFGSHSNYKKFGMYASMGLGLVWSHHMYVGLDDRAYFTSATMIAPTGIKFSWLATYGGRPMLAFLFMFTGGSGVLNASDAFHDTYFVVLVYGVGYFPYNMFWFMFGMPDAGFSSAYQLGPDESNE'
p2639
sg123
F0.30854999999999999
sg124
g125
sg33
S'125'
p2640
sg127
g1
(g128
g12
(dp2641
g130
I4
sg131
g132
sg133
g134
sg135
g132
sg136
I01
sg34
g137
sg138
g134
sg139
I0
sg140
I0
sg141
I0
sg142
g134
sg35
g143
sg144
I0
stRp2642
sg146
g147
sg148
F1
sg149
Nsg30
S'BcustA'
p2643
sbasg120
g2576
sg123
F0.19120999999999999
sg124
g125
sg33
S'170'
p2644
sg127
g1
(g128
g12
(dp2645
g130
I6
sg131
g132
sg133
g134
sg135
g132
sg136
I01
sg34
g174
sg138
g134
sg139
I0
sg140
I0
sg141
I0
sg142
g134
sg35
g175
sg144
I0
stRp2646
sg146
g147
sg148
F0.98999999999999999
sg149
Nsg30
S'NoName'
p2647
sbag1
(g2
g3
NtRp2648
(dp2649
g6
g1
(g7
g3
NtRp2650
(dp2651
g10
g1
(g11
g12
(dtRp2652
sg14
g1
(g11
g12
(dtRp2653
sg16
g1
(g11
g12
(dtRp2654
sg18
g1
(g11
g12
(dtRp2655
sg20
g1
(g11
g12
(dtRp2656
sg22
g1
(g11
g12
(dtRp2657
sbsg24
S'Oan'
p2658
sg26
g27
((lp2659
g29
ag30
aS'sequence'
p2660
ag32
ag33
aS'species'
p2661
atRp2662
sg37
(lp2663
sg120
g2576
sg121
S'RWLSTKDLYSRLELPGLNQNAHAMFVMPAGFGNPMGDMFARLNNSFWLPPLSLEGAGTGWTVYPPLSHSGPSVDLAFHLTSSLLGAINFTNMRGPLFWTALLLLSLPVLAGTLLDRNFNTFEGGDPLYHLFWFFGHPEVYIIPGFGSHSTYKKFGMYASIGLGLVWSHHMYVGLDDRAYFTSATMIAPTGIKFSWIATYGGRPMLAFLFLFTGGSGVLNASDAFHDTYYVILAFSLGYYPYNLFWFMFGMPDAGYSSSYQLGPDESNE'
p2664
sg123
F0.025399999999999999
sg124
g125
sg33
S'220'
p2665
sg127
g1
(g128
g12
(dp2666
g130
I4
sg131
g132
sg133
g134
sg135
g132
sg136
I01
sg34
g137
sg138
g134
sg139
I0
sg140
I0
sg141
I0
sg142
g134
sg35
g143
sg144
I0
stRp2667
sg146
g147
sg148
F1
sg149
Nsg30
S'OanguA'
p2668
sbasg120
g2542
sg123
F0.33273999999999998
sg124
g125
sg33
S'33'
p2669
sg127
g1
(g128
g12
(dp2670
g130
I6
sg131
g132
sg133
g134
sg135
g132
sg136
I01
sg34
g174
sg138
g134
sg139
I0
sg140
I0
sg141
I0
sg142
g134
sg35
g175
sg144
I0
stRp2671
sg146
g147
sg148
F0.98999999999999999
sg149
Nsg30
S'NoName'
p2672
sbasg120
g2508
sg123
F0.054379999999999998
sg124
g125
sg33
S'168'
p2673
sg127
g1
(g128
g12
(dp2674
g130
I6
sg131
g132
sg133
g134
sg135
g132
sg136
I01
sg34
g174
sg138
g134
sg139
I0
sg140
I0
sg141
I0
sg142
g134
sg35
g175
sg144
I0
stRp2675
sg146
g147
sg148
F0.96999999999999997
sg149
Nsg30
S'NoName'
p2676
sbasg120
g2495
sg123
F0.76378000000000001
sg124
g125
sg33
S'48'
p2677
sg127
g1
(g128
g12
(dp2678
g130
I6
sg131
g132
sg133
g134
sg135
g132
sg136
I01
sg34
g174
sg138
g134
sg139
I0
sg140
I0
sg141
I0
sg142
g134
sg35
g175
sg144
I0
stRp2679
sg146
g147
sg148
F0.98999999999999999
sg149
Nsg30
S'NoName'
p2680
sbag1
(g2
g3
NtRp2681
(dp2682
g6
g1
(g7
g3
NtRp2683
(dp2684
g10
g1
(g11
g12
(dtRp2685
sg14
g1
(g11
g12
(dtRp2686
sg16
g1
(g11
g12
(dtRp2687
sg18
g1
(g11
g12
(dtRp2688
sg20
g1
(g11
g12
(dtRp2689
sg22
g1
(g11
g12
(dtRp2690
sbsg24
g25
sg26
g27
((lp2691
g33
ag32
ag29
ag30
atRp2692
sg37
(lp2693
g1
(g2
g3
NtRp2694
(dp2695
g6
g1
(g7
g3
NtRp2696
(dp2697
g10
g1
(g11
g12
(dtRp2698
sg14
g1
(g11
g12
(dtRp2699
sg16
g1
(g11
g12
(dtRp2700
sg18
g1
(g11
g12
(dtRp2701
sg20
g1
(g11
g12
(dtRp2702
sg22
g1
(g11
g12
(dtRp2703
sbsg24
g25
sg26
g27
((lp2704
g33
ag32
ag29
ag30
atRp2705
sg37
(lp2706
g1
(g2
g3
NtRp2707
(dp2708
g6
g1
(g7
g3
NtRp2709
(dp2710
g10
g1
(g11
g12
(dtRp2711
sg14
g1
(g11
g12
(dtRp2712
sg16
g1
(g11
g12
(dtRp2713
sg18
g1
(g11
g12
(dtRp2714
sg20
g1
(g11
g12
(dtRp2715
sg22
g1
(g11
g12
(dtRp2716
sbsg24
g25
sg26
g27
((lp2717
g33
ag32
ag29
ag30
atRp2718
sg37
(lp2719
g1
(g2
g3
NtRp2720
(dp2721
g6
g1
(g7
g3
NtRp2722
(dp2723
g10
g1
(g11
g12
(dtRp2724
sg14
g1
(g11
g12
(dtRp2725
sg16
g1
(g11
g12
(dtRp2726
sg18
g1
(g11
g12
(dtRp2727
sg20
g1
(g11
g12
(dtRp2728
sg22
g1
(g11
g12
(dtRp2729
sbsg24
g25
sg26
g27
((lp2730
g33
ag32
ag29
ag30
atRp2731
sg37
(lp2732
g1
(g2
g3
NtRp2733
(dp2734
g6
g1
(g7
g3
NtRp2735
(dp2736
g10
g1
(g11
g12
(dtRp2737
sg14
g1
(g11
g12
(dtRp2738
sg16
g1
(g11
g12
(dtRp2739
sg18
g1
(g11
g12
(dtRp2740
sg20
g1
(g11
g12
(dtRp2741
sg22
g1
(g11
g12
(dtRp2742
sbsg24
S'Cva'
p2743
sg26
g27
((lp2744
g29
ag30
aS'sequence'
p2745
ag32
ag33
aS'species'
p2746
atRp2747
sg37
(lp2748
sg120
g2720
sg121
S'RWLSTKDLYSRLELPGLNQNVHAMFVMPLGFGNPLGDMFARLNNSFWLPPLSLEGAGTGWTIYPPLSHSSPSVDLGFHLTSSLLGAINFTNMRGPLFWTAMLLLSLPVLAGTLLDRNFNTFEGGDPLYHLFWFFGHPEVYIIPGFGSHSTYKKFGMYASIALGFVWSHHMYVGLDDRAYFTSSTMIAPTGIKFSWLATYGGRPMLAFLFLFTGGTGVLNASDAFHDTYYVVMAFSLGYYPYNLFWFMFGMPDAGWSSSYQLGPDESNE'
p2749
sg123
F0.043270000000000003
sg124
g125
sg33
S'137'
p2750
sg127
g1
(g128
g12
(dp2751
g130
I4
sg131
g132
sg133
g134
sg135
g132
sg136
I01
sg34
g137
sg138
g134
sg139
I0
sg140
I0
sg141
I0
sg142
g134
sg35
g143
sg144
I0
stRp2752
sg146
g147
sg148
F1
sg149
Nsg30
S'CvartA'
p2753
sbag1
(g2
g3
NtRp2754
(dp2755
g6
g1
(g7
g3
NtRp2756
(dp2757
g10
g1
(g11
g12
(dtRp2758
sg14
g1
(g11
g12
(dtRp2759
sg16
g1
(g11
g12
(dtRp2760
sg18
g1
(g11
g12
(dtRp2761
sg20
g1
(g11
g12
(dtRp2762
sg22
g1
(g11
g12
(dtRp2763
sbsg24
g25
sg26
g27
((lp2764
g33
ag32
ag29
ag30
atRp2765
sg37
(lp2766
g1
(g2
g3
NtRp2767
(dp2768
g6
g1
(g7
g3
NtRp2769
(dp2770
g10
g1
(g11
g12
(dtRp2771
sg14
g1
(g11
g12
(dtRp2772
sg16
g1
(g11
g12
(dtRp2773
sg18
g1
(g11
g12
(dtRp2774
sg20
g1
(g11
g12
(dtRp2775
sg22
g1
(g11
g12
(dtRp2776
sbsg24
S'Csu'
p2777
sg26
g27
((lp2778
g29
ag30
aS'sequence'
p2779
ag32
ag33
aS'species'
p2780
atRp2781
sg37
(lp2782
sg120
g2754
sg121
S'RWLSTKDLYSRLELPGLNQNVHAMFVMPLGFGNPLGDMFARLNNSFWLPPLSLEGAGTGWTIYPPLSHSSPSVDLGFHLTSSMLGAINFTNMRGPLFWTAMLLLSLPVLAGTLLDRNFNTFEGGDPLYHLFWFFGHPEVYIIPGFGSHSTYKKFGMYASIALGFVWSHHMYVGLDDRAYFTSSTMIAPTGIKFSWLATYGGRPMLAFLFLFTGGTGVLNASDAFHDSYYY-MAFSLGYYPYNLFWFMFGMPDAGWSSSYQLGPDESNE'
p2783
sg123
F0.0043699999999999998
sg124
g125
sg33
S'90'
p2784
sg127
g1
(g128
g12
(dp2785
g130
I4
sg131
g132
sg133
g134
sg135
g132
sg136
I01
sg34
g137
sg138
g134
sg139
I0
sg140
I0
sg141
I0
sg142
g134
sg35
g143
sg144
I0
stRp2786
sg146
g147
sg148
F1
sg149
Nsg30
S'CsuavB'
p2787
sbag1
(g2
g3
NtRp2788
(dp2789
g6
g1
(g7
g3
NtRp2790
(dp2791
g10
g1
(g11
g12
(dtRp2792
sg14
g1
(g11
g12
(dtRp2793
sg16
g1
(g11
g12
(dtRp2794
sg18
g1
(g11
g12
(dtRp2795
sg20
g1
(g11
g12
(dtRp2796
sg22
g1
(g11
g12
(dtRp2797
sbsg24
S'Csu'
p2798
sg26
g27
((lp2799
g29
ag30
aS'sequence'
p2800
ag32
ag33
aS'species'
p2801
atRp2802
sg37
(lp2803
sg120
g2754
sg121
S'RWLSTKDLYSRLELPGLNQNVHAMFVMPLGFGNPLGDMFARLNNSFWLPPLSLEGAGTGWTIYPPLSHSSPSVDLGFHLTSSLLGAINFTNMRGPLFWTAMLLLSLPVLAGTLLDRNFNTFEGGDPLYHLFWFFGHPEVYIIPGFGSHSTYKKFGMYASIALGFVWSHHMYVGLDDRAYFTSSTMIAPTGIKFSWLATYGGRPMLAFLFLFTGGTGVLNASDAFHDTYYVVMAFSLGYYPYNLFWFMFGMPDAGWSSSYQLGPDESNE'
p2804
sg123
F0.0025999999999999999
sg124
g125
sg33
S'59'
p2805
sg127
g1
(g128
g12
(dp2806
g130
I4
sg131
g132
sg133
g134
sg135
g132
sg136
I01
sg34
g137
sg138
g134
sg139
I0
sg140
I0
sg141
I0
sg142
g134
sg35
g143
sg144
I0
stRp2807
sg146
g147
sg148
F1
sg149
Nsg30
S'CsuavA'
p2808
sbasg120
g2720
sg123
F0.016740000000000001
sg124
g125
sg33
S'203'
p2809
sg127
g1
(g128
g12
(dp2810
g130
I6
sg131
g132
sg133
g134
sg135
g132
sg136
I01
sg34
g174
sg138
g134
sg139
I0
sg140
I0
sg141
I0
sg142
g134
sg35
g175
sg144
I0
stRp2811
sg146
g147
sg148
F0.98999999999999999
sg149
Nsg30
S'NoName'
p2812
sbasg120
g2707
sg123
F0.01158
sg124
g125
sg33
S'108'
p2813
sg127
g1
(g128
g12
(dp2814
g130
I6
sg131
g132
sg133
g134
sg135
g132
sg136
I01
sg34
g174
sg138
g134
sg139
I0
sg140
I0
sg141
I0
sg142
g134
sg35
g175
sg144
I0
stRp2815
sg146
g147
sg148
F0.97999999999999998
sg149
Nsg30
S'NoName'
p2816
sbag1
(g2
g3
NtRp2817
(dp2818
g6
g1
(g7
g3
NtRp2819
(dp2820
g10
g1
(g11
g12
(dtRp2821
sg14
g1
(g11
g12
(dtRp2822
sg16
g1
(g11
g12
(dtRp2823
sg18
g1
(g11
g12
(dtRp2824
sg20
g1
(g11
g12
(dtRp2825
sg22
g1
(g11
g12
(dtRp2826
sbsg24
S'Cja'
p2827
sg26
g27
((lp2828
g29
ag30
aS'sequence'
p2829
ag32
ag33
aS'species'
p2830
atRp2831
sg37
(lp2832
sg120
g2707
sg121
S'RWLSTKDLYSRLELPGLNQNVHAMFVMPLGFGNPLGDMFARLNNSFWLPPLSLEGAGTGWTIYPPLAHSSPSVDLGFHLTSSLLGAINFTNMRGPLFWTAMLLLSLPVLAGTLLDRNFNTFEGGDPLYHLFWFFGHPEVYIIPGFGSHSTYKKFGMYASIALGFVWSHHMYVGLDDRAYFTSSTMIAPTGIKFSWLATYGGRPMLAFLFLFTGGTGVLNASDAFHDTYYVVMAFSLGYYPYNLFWFMFGMPDAGWSSSYQLGPDESNE'
p2833
sg123
F0.033799999999999997
sg124
g125
sg33
S'111'
p2834
sg127
g1
(g128
g12
(dp2835
g130
I4
sg131
g132
sg133
g134
sg135
g132
sg136
I01
sg34
g137
sg138
g134
sg139
I0
sg140
I0
sg141
I0
sg142
g134
sg35
g143
sg144
I0
stRp2836
sg146
g147
sg148
F1
sg149
Nsg30
S'CjadiA'
p2837
sbasg120
g2694
sg123
F0.10375
sg124
g125
sg33
S'177'
p2838
sg127
g1
(g128
g12
(dp2839
g130
I6
sg131
g132
sg133
g134
sg135
g132
sg136
I01
sg34
g174
sg138
g134
sg139
I0
sg140
I0
sg141
I0
sg142
g134
sg35
g175
sg144
I0
stRp2840
sg146
g147
sg148
F0.98999999999999999
sg149
Nsg30
S'NoName'
p2841
sbag1
(g2
g3
NtRp2842
(dp2843
g6
g1
(g7
g3
NtRp2844
(dp2845
g10
g1
(g11
g12
(dtRp2846
sg14
g1
(g11
g12
(dtRp2847
sg16
g1
(g11
g12
(dtRp2848
sg18
g1
(g11
g12
(dtRp2849
sg20
g1
(g11
g12
(dtRp2850
sg22
g1
(g11
g12
(dtRp2851
sbsg24
g25
sg26
g27
((lp2852
g33
ag32
ag29
ag30
atRp2853
sg37
(lp2854
g1
(g2
g3
NtRp2855
(dp2856
g6
g1
(g7
g3
NtRp2857
(dp2858
g10
g1
(g11
g12
(dtRp2859
sg14
g1
(g11
g12
(dtRp2860
sg16
g1
(g11
g12
(dtRp2861
sg18
g1
(g11
g12
(dtRp2862
sg20
g1
(g11
g12
(dtRp2863
sg22
g1
(g11
g12
(dtRp2864
sbsg24
g25
sg26
g27
((lp2865
g33
ag32
ag29
ag30
atRp2866
sg37
(lp2867
g1
(g2
g3
NtRp2868
(dp2869
g6
g1
(g7
g3
NtRp2870
(dp2871
g10
g1
(g11
g12
(dtRp2872
sg14
g1
(g11
g12
(dtRp2873
sg16
g1
(g11
g12
(dtRp2874
sg18
g1
(g11
g12
(dtRp2875
sg20
g1
(g11
g12
(dtRp2876
sg22
g1
(g11
g12
(dtRp2877
sbsg24
S'Wpi'
p2878
sg26
g27
((lp2879
g29
ag30
aS'sequence'
p2880
ag32
ag33
aS'species'
p2881
atRp2882
sg37
(lp2883
sg120
g2855
sg121
S'RWLSTKDLYSRLELPGLNQNVHAMFVMPLGFGNPLGDMFARLNNSFWLPPLSLEGAGTGWTIYPPLSHSSPSVDLGFHLTSSLLGAINFTNMRGPLFWTAMLLLSLPVLAGTLLDRNFNTFEGGDPLYHLFWFFGHPEVYIIPGFGSHSTYKKFGMYASIALGFVWSHHMYVGLDDRAYFTSSTMIAPTGIKFSWLATYGGRPMLAFLFLFTGGTGVLNASDAFHDTYYVVMAFSLGYYPYNLFWFMFGMPDAGWSSSFQLGPDESNE'
p2884
sg123
F0.051209999999999999
sg124
g125
sg33
S'221'
p2885
sg127
g1
(g128
g12
(dp2886
g130
I4
sg131
g132
sg133
g134
sg135
g132
sg136
I01
sg34
g137
sg138
g134
sg139
I0
sg140
I0
sg141
I0
sg142
g134
sg35
g143
sg144
I0
stRp2887
sg146
g147
sg148
F1
sg149
Nsg30
S'WpijpA'
p2888
sbag1
(g2
g3
NtRp2889
(dp2890
g6
g1
(g7
g3
NtRp2891
(dp2892
g10
g1
(g11
g12
(dtRp2893
sg14
g1
(g11
g12
(dtRp2894
sg16
g1
(g11
g12
(dtRp2895
sg18
g1
(g11
g12
(dtRp2896
sg20
g1
(g11
g12
(dtRp2897
sg22
g1
(g11
g12
(dtRp2898
sbsg24
S'Wmu'
p2899
sg26
g27
((lp2900
g29
ag30
aS'sequence'
p2901
ag32
ag33
aS'species'
p2902
atRp2903
sg37
(lp2904
sg120
g2855
sg121
S'RWLSTKDLYSRLELPGLNQNVHAMFVMPLGFGNPLGDMFARLNNSFWLPPLSLEGAGTGWTIYPPLAHSSPSVDLGFHLTSSLLGAINFTNMRGPLFWTAMLLLSLPVLAGTLLDRNFNTFEGGDPLYHLFWFFGHPEVYIIPGFGSHSTYKKFGMYASIALGFVWSHHMYVGLDDRAYFTSSTMIAPTGIKFSWLATYGGRPMLAFLFLFTGGTGVLNASDAFHDTYYVVMAFSLGYYPYNLFWFMFGMPDAGWSSSYQLGPDESNE'
p2905
sg123
F0.079170000000000004
sg124
g125
sg33
S'210'
p2906
sg127
g1
(g128
g12
(dp2907
g130
I4
sg131
g132
sg133
g134
sg135
g132
sg136
I01
sg34
g137
sg138
g134
sg139
I0
sg140
I0
sg141
I0
sg142
g134
sg35
g143
sg144
I0
stRp2908
sg146
g147
sg148
F1
sg149
Nsg30
S'WmucoA'
p2909
sbasg120
g2842
sg123
F0.14757000000000001
sg124
g125
sg33
S'144'
p2910
sg127
g1
(g128
g12
(dp2911
g130
I6
sg131
g132
sg133
g134
sg135
g132
sg136
I01
sg34
g174
sg138
g134
sg139
I0
sg140
I0
sg141
I0
sg142
g134
sg35
g175
sg144
I0
stRp2912
sg146
g147
sg148
F0.98999999999999999
sg149
Nsg30
S'NoName'
p2913
sbag1
(g2
g3
NtRp2914
(dp2915
g6
g1
(g7
g3
NtRp2916
(dp2917
g10
g1
(g11
g12
(dtRp2918
sg14
g1
(g11
g12
(dtRp2919
sg16
g1
(g11
g12
(dtRp2920
sg18
g1
(g11
g12
(dtRp2921
sg20
g1
(g11
g12
(dtRp2922
sg22
g1
(g11
g12
(dtRp2923
sbsg24
g25
sg26
g27
((lp2924
g33
ag32
ag29
ag30
atRp2925
sg37
(lp2926
g1
(g2
g3
NtRp2927
(dp2928
g6
g1
(g7
g3
NtRp2929
(dp2930
g10
g1
(g11
g12
(dtRp2931
sg14
g1
(g11
g12
(dtRp2932
sg16
g1
(g11
g12
(dtRp2933
sg18
g1
(g11
g12
(dtRp2934
sg20
g1
(g11
g12
(dtRp2935
sg22
g1
(g11
g12
(dtRp2936
sbsg24
S'Pca'
p2937
sg26
g27
((lp2938
g29
ag30
aS'sequence'
p2939
ag32
ag33
aS'species'
p2940
atRp2941
sg37
(lp2942
sg120
g2914
sg121
S'RWLSTKDLYSRLELPGLNQNVHAMFVMPLGFGNPLGDMFARLNNSFWLPPLSLEWAGTGWTIYPPLSHSSPSVDLGFHLTSSLLGAINFTNMRGPLFWTAMLLLSLPVLAGTLLDRNFNTFEGGDPLYHLFWFFGHPEVYIIPGFGSHSTYKKFGMYASIALGFVWSHHMYVGLDDRAYFTSSTMIAPTGIKFSWLATYGGRPMLAFLFLFTGGTGVLNASDAFHDTYYVVMAFSLGYYPFNLFWFMFGMPDAGWSSSYQLGPDESNE'
p2943
sg123
F0.10655000000000001
sg124
g125
sg33
S'75'
p2944
sg127
g1
(g128
g12
(dp2945
g130
I4
sg131
g132
sg133
g134
sg135
g132
sg136
I01
sg34
g137
sg138
g134
sg139
I0
sg140
I0
sg141
I0
sg142
g134
sg35
g143
sg144
I0
stRp2946
sg146
g147
sg148
F1
sg149
Nsg30
S'PcanaA'
p2947
sbag1
(g2
g3
NtRp2948
(dp2949
g6
g1
(g7
g3
NtRp2950
(dp2951
g10
g1
(g11
g12
(dtRp2952
sg14
g1
(g11
g12
(dtRp2953
sg16
g1
(g11
g12
(dtRp2954
sg18
g1
(g11
g12
(dtRp2955
sg20
g1
(g11
g12
(dtRp2956
sg22
g1
(g11
g12
(dtRp2957
sbsg24
g25
sg26
g27
((lp2958
g33
ag32
ag29
ag30
atRp2959
sg37
(lp2960
g1
(g2
g3
NtRp2961
(dp2962
g6
g1
(g7
g3
NtRp2963
(dp2964
g10
g1
(g11
g12
(dtRp2965
sg14
g1
(g11
g12
(dtRp2966
sg16
g1
(g11
g12
(dtRp2967
sg18
g1
(g11
g12
(dtRp2968
sg20
g1
(g11
g12
(dtRp2969
sg22
g1
(g11
g12
(dtRp2970
sbsg24
S'Cno'
p2971
sg26
g27
((lp2972
g29
ag30
aS'sequence'
p2973
ag32
ag33
aS'species'
p2974
atRp2975
sg37
(lp2976
sg120
g2948
sg121
S'RWLSTKDLYSRLELPGLNQNVHAMFVMPLGFGNPLGDMFARLNNSFWLPPLSLEGAGTGWTIYPPLSHSSPSVDLGFHLTSSLLGAMNFTNMRGPLFWTAMLLLSLPVLAGTLLDRNFNTFEGGDPLYHLFWFFGHPEVYMIPGFGSHSTYKKFGMYASMALGFVWSHHMYVGLDDRAYFTSSTMMAPTGMKFSWLATYGGRPMLAFLFLFTGGTGVLNASDAFHDTYYVVMAFSLGYYPYNLFWFMFGMPDAGWSSSYQLGPDESNE'
p2977
sg123
F0.059069999999999998
sg124
g125
sg33
S'121'
p2978
sg127
g1
(g128
g12
(dp2979
g130
I4
sg131
g132
sg133
g134
sg135
g132
sg136
I01
sg34
g137
sg138
g134
sg139
I0
sg140
I0
sg141
I0
sg142
g134
sg35
g143
sg144
I0
stRp2980
sg146
g147
sg148
F1
sg149
Nsg30
S'CnorvA'
p2981
sbag1
(g2
g3
NtRp2982
(dp2983
g6
g1
(g7
g3
NtRp2984
(dp2985
g10
g1
(g11
g12
(dtRp2986
sg14
g1
(g11
g12
(dtRp2987
sg16
g1
(g11
g12
(dtRp2988
sg18
g1
(g11
g12
(dtRp2989
sg20
g1
(g11
g12
(dtRp2990
sg22
g1
(g11
g12
(dtRp2991
sbsg24
S'Bca'
p2992
sg26
g27
((lp2993
g29
ag30
aS'sequence'
p2994
ag32
ag33
aS'species'
p2995
atRp2996
sg37
(lp2997
sg120
g2948
sg121
S'RWLSTKDLYSRLELPGLNQNVHAMFVMPLGFGNPLGDMFARLNNSFWLPPLSLEGAGTGWTIYPPLSHSSPSVDLGFHLTSSLLGAINFTNMRGPLFWTAMLLLSLPVLAGTLLDRNFNTFEGGDPLYHLFWFFGHPEVYIMPGFGSHSTYKKFGMYASIALGFVWSHHMYVGLDDRAYFTSSTMIAPTGIKFSWLATYGGRPMLAFLFLFTGGTGVLNASDAFHDTYYVVMAFSLGYYPYNLFWFMFGMPDAGWSSSYQLGPDESNE'
p2998
sg123
F0.031899999999999998
sg124
g125
sg33
S'71'
p2999
sg127
g1
(g128
g12
(dp3000
g130
I4
sg131
g132
sg133
g134
sg135
g132
sg136
I01
sg34
g137
sg138
g134
sg139
I0
sg140
I0
sg141
I0
sg142
g134
sg35
g143
sg144
I0
stRp3001
sg146
g147
sg148
F1
sg149
Nsg30
S'BcaliA'
p3002
sbasg120
g2914
sg123
F0.09486
sg124
g125
sg33
S'60'
p3003
sg127
g1
(g128
g12
(dp3004
g130
I6
sg131
g132
sg133
g134
sg135
g132
sg136
I01
sg34
g174
sg138
g134
sg139
I0
sg140
I0
sg141
I0
sg142
g134
sg35
g175
sg144
I0
stRp3005
sg146
g147
sg148
F0.97999999999999998
sg149
Nsg30
S'NoName'
p3006
sbasg120
g2842
sg123
F0.054690000000000003
sg124
g125
sg33
S'23'
p3007
sg127
g1
(g128
g12
(dp3008
g130
I6
sg131
g132
sg133
g134
sg135
g132
sg136
I01
sg34
g174
sg138
g134
sg139
I0
sg140
I0
sg141
I0
sg142
g134
sg35
g175
sg144
I0
stRp3009
sg146
g147
sg148
F0.96999999999999997
sg149
Nsg30
S'NoName'
p3010
sbasg120
g2694
sg123
F0.051860000000000003
sg124
g125
sg33
S'0'
sg127
g1
(g128
g12
(dp3011
g130
I6
sg131
g132
sg133
g134
sg135
g132
sg136
I01
sg34
g174
sg138
g134
sg139
I0
sg140
I0
sg141
I0
sg142
g134
sg35
g175
sg144
I0
stRp3012
sg146
g147
sg148
F0.96999999999999997
sg149
Nsg30
S'NoName'
p3013
sbasg120
g2681
sg123
F0.52095999999999998
sg124
g125
sg33
S'189'
p3014
sg127
g1
(g128
g12
(dp3015
g130
I6
sg131
g132
sg133
g134
sg135
g132
sg136
I01
sg34
g174
sg138
g134
sg139
I0
sg140
I0
sg141
I0
sg142
g134
sg35
g175
sg144
I0
stRp3016
sg146
g147
sg148
F0.98999999999999999
sg149
Nsg30
S'NoName'
p3017
sbag1
(g2
g3
NtRp3018
(dp3019
g6
g1
(g7
g3
NtRp3020
(dp3021
g10
g1
(g11
g12
(dtRp3022
sg14
g1
(g11
g12
(dtRp3023
sg16
g1
(g11
g12
(dtRp3024
sg18
g1
(g11
g12
(dtRp3025
sg20
g1
(g11
g12
(dtRp3026
sg22
g1
(g11
g12
(dtRp3027
sbsg24
g25
sg26
g27
((lp3028
g33
ag32
ag29
ag30
atRp3029
sg37
(lp3030
g1
(g2
g3
NtRp3031
(dp3032
g6
g1
(g7
g3
NtRp3033
(dp3034
g10
g1
(g11
g12
(dtRp3035
sg14
g1
(g11
g12
(dtRp3036
sg16
g1
(g11
g12
(dtRp3037
sg18
g1
(g11
g12
(dtRp3038
sg20
g1
(g11
g12
(dtRp3039
sg22
g1
(g11
g12
(dtRp3040
sbsg24
g25
sg26
g27
((lp3041
g33
ag32
ag29
ag30
atRp3042
sg37
(lp3043
g1
(g2
g3
NtRp3044
(dp3045
g6
g1
(g7
g3
NtRp3046
(dp3047
g10
g1
(g11
g12
(dtRp3048
sg14
g1
(g11
g12
(dtRp3049
sg16
g1
(g11
g12
(dtRp3050
sg18
g1
(g11
g12
(dtRp3051
sg20
g1
(g11
g12
(dtRp3052
sg22
g1
(g11
g12
(dtRp3053
sbsg24
g25
sg26
g27
((lp3054
g33
ag32
ag29
ag30
atRp3055
sg37
(lp3056
g1
(g2
g3
NtRp3057
(dp3058
g6
g1
(g7
g3
NtRp3059
(dp3060
g10
g1
(g11
g12
(dtRp3061
sg14
g1
(g11
g12
(dtRp3062
sg16
g1
(g11
g12
(dtRp3063
sg18
g1
(g11
g12
(dtRp3064
sg20
g1
(g11
g12
(dtRp3065
sg22
g1
(g11
g12
(dtRp3066
sbsg24
g25
sg26
g27
((lp3067
g33
ag32
ag29
ag30
atRp3068
sg37
(lp3069
g1
(g2
g3
NtRp3070
(dp3071
g6
g1
(g7
g3
NtRp3072
(dp3073
g10
g1
(g11
g12
(dtRp3074
sg14
g1
(g11
g12
(dtRp3075
sg16
g1
(g11
g12
(dtRp3076
sg18
g1
(g11
g12
(dtRp3077
sg20
g1
(g11
g12
(dtRp3078
sg22
g1
(g11
g12
(dtRp3079
sbsg24
g25
sg26
g27
((lp3080
g33
ag32
ag29
ag30
atRp3081
sg37
(lp3082
g1
(g2
g3
NtRp3083
(dp3084
g6
g1
(g7
g3
NtRp3085
(dp3086
g10
g1
(g11
g12
(dtRp3087
sg14
g1
(g11
g12
(dtRp3088
sg16
g1
(g11
g12
(dtRp3089
sg18
g1
(g11
g12
(dtRp3090
sg20
g1
(g11
g12
(dtRp3091
sg22
g1
(g11
g12
(dtRp3092
sbsg24
g25
sg26
g27
((lp3093
g33
ag32
ag29
ag30
atRp3094
sg37
(lp3095
g1
(g2
g3
NtRp3096
(dp3097
g6
g1
(g7
g3
NtRp3098
(dp3099
g10
g1
(g11
g12
(dtRp3100
sg14
g1
(g11
g12
(dtRp3101
sg16
g1
(g11
g12
(dtRp3102
sg18
g1
(g11
g12
(dtRp3103
sg20
g1
(g11
g12
(dtRp3104
sg22
g1
(g11
g12
(dtRp3105
sbsg24
S'Lkl'
p3106
sg26
g27
((lp3107
g29
ag30
aS'sequence'
p3108
ag32
ag33
aS'species'
p3109
atRp3110
sg37
(lp3111
sg120
g3083
sg121
S'RWLSTKDLYSRLELPGLNQNVHAMFVMPLGFGNPMGDMFARLNNSFWLPPLSLEGAGTGWTVYPPLSHSGPSVDLAFHLTSSLLGAINFTNMRGPLFWTALLLLSLPVLAGTLLDRNFNTFEGGDPLYHLFWFFGHPEVYIIPGFGSHSTYKKFGMYASIGLGFVWSHHMYVGLDDRAYFLSATMIAPTGIKFSWLATYGGRPMLAFLFLFTGGTGVLNASDAFHDLYYVVMAFSLGYYPYNLFWFMFGMPDAGWSSSYQLGPDESNE'
p3112
sg123
F0.00044999999999999999
sg124
g125
sg33
S'141'
p3113
sg127
g1
(g128
g12
(dp3114
g130
I4
sg131
g132
sg133
g134
sg135
g132
sg136
I01
sg34
g137
sg138
g134
sg139
I0
sg140
I0
sg141
I0
sg142
g134
sg35
g143
sg144
I0
stRp3115
sg146
g147
sg148
F1
sg149
Nsg30
S'LkluyE'
p3116
sbag1
(g2
g3
NtRp3117
(dp3118
g6
g1
(g7
g3
NtRp3119
(dp3120
g10
g1
(g11
g12
(dtRp3121
sg14
g1
(g11
g12
(dtRp3122
sg16
g1
(g11
g12
(dtRp3123
sg18
g1
(g11
g12
(dtRp3124
sg20
g1
(g11
g12
(dtRp3125
sg22
g1
(g11
g12
(dtRp3126
sbsg24
S'Lkl'
p3127
sg26
g27
((lp3128
g29
ag30
aS'sequence'
p3129
ag32
ag33
aS'species'
p3130
atRp3131
sg37
(lp3132
sg120
g3083
sg121
S'RWLSTKDLYSRLELPGLNQNVHAMFVMPLGFGNPMGDMFARLNNSFWLPPLSLEGAGTGWTVYPPLSHSGPSVDLAFHLTSSLLGAINFTNMRGPLFWTALLLLSLPVLAGTLLDRNFNTFEGGDPLYHLFWFFGHPEVYIIPGFGSHSTYKKFGMYASIGLGFVWSHHMYVGLDDRAYFLSATMIAPTGIKFSWLATYGGRPMLAFLFLFTGGTGVLNASDAFHDLYYVVMAFSLGYYPYNLFWFMFGMPDAGWSSSYQLGPDESNE'
p3133
sg123
F0.0077400000000000004
sg124
g125
sg33
S'207'
p3134
sg127
g1
(g128
g12
(dp3135
g130
I4
sg131
g132
sg133
g134
sg135
g132
sg136
I01
sg34
g137
sg138
g134
sg139
I0
sg140
I0
sg141
I0
sg142
g134
sg35
g143
sg144
I0
stRp3136
sg146
g147
sg148
F1
sg149
Nsg30
S'LkluyD'
p3137
sbasg120
g3070
sg123
F0.0017099999999999999
sg124
g125
sg33
S'41'
p3138
sg127
g1
(g128
g12
(dp3139
g130
I6
sg131
g132
sg133
g134
sg135
g132
sg136
I01
sg34
g174
sg138
g134
sg139
I0
sg140
I0
sg141
I0
sg142
g134
sg35
g175
sg144
I0
stRp3140
sg146
g147
sg148
F0.56000000000000005
sg149
Nsg30
S'NoName'
p3141
sbag1
(g2
g3
NtRp3142
(dp3143
g6
g1
(g7
g3
NtRp3144
(dp3145
g10
g1
(g11
g12
(dtRp3146
sg14
g1
(g11
g12
(dtRp3147
sg16
g1
(g11
g12
(dtRp3148
sg18
g1
(g11
g12
(dtRp3149
sg20
g1
(g11
g12
(dtRp3150
sg22
g1
(g11
g12
(dtRp3151
sbsg24
g25
sg26
g27
((lp3152
g33
ag32
ag29
ag30
atRp3153
sg37
(lp3154
g1
(g2
g3
NtRp3155
(dp3156
g6
g1
(g7
g3
NtRp3157
(dp3158
g10
g1
(g11
g12
(dtRp3159
sg14
g1
(g11
g12
(dtRp3160
sg16
g1
(g11
g12
(dtRp3161
sg18
g1
(g11
g12
(dtRp3162
sg20
g1
(g11
g12
(dtRp3163
sg22
g1
(g11
g12
(dtRp3164
sbsg24
g25
sg26
g27
((lp3165
g33
ag32
ag29
ag30
atRp3166
sg37
(lp3167
g1
(g2
g3
NtRp3168
(dp3169
g6
g1
(g7
g3
NtRp3170
(dp3171
g10
g1
(g11
g12
(dtRp3172
sg14
g1
(g11
g12
(dtRp3173
sg16
g1
(g11
g12
(dtRp3174
sg18
g1
(g11
g12
(dtRp3175
sg20
g1
(g11
g12
(dtRp3176
sg22
g1
(g11
g12
(dtRp3177
sbsg24
g25
sg26
g27
((lp3178
g33
ag32
ag29
ag30
atRp3179
sg37
(lp3180
g1
(g2
g3
NtRp3181
(dp3182
g6
g1
(g7
g3
NtRp3183
(dp3184
g10
g1
(g11
g12
(dtRp3185
sg14
g1
(g11
g12
(dtRp3186
sg16
g1
(g11
g12
(dtRp3187
sg18
g1
(g11
g12
(dtRp3188
sg20
g1
(g11
g12
(dtRp3189
sg22
g1
(g11
g12
(dtRp3190
sbsg24
S'Lkl'
p3191
sg26
g27
((lp3192
g29
ag30
aS'sequence'
p3193
ag32
ag33
aS'species'
p3194
atRp3195
sg37
(lp3196
sg120
g3168
sg121
S'RWLSTKDLYSRLELPGLNQNVHAMFVMPLGFGNPMGDMFARLNNSFWLPPLSLEGAGTGWTVYPPLSHSGPSVDLAFHLTSSLLGAINFTNMRGPLFWTALLLLSLPVLAGTLLDRNFNTFEGGDPLYHLFWFFGHPEVYIIPGFGSHSTYKKFGMYASIGLGFVWSHHMYVGLDDRAYFLSATMIAPTGIKFSWLATYGGRPMLAFLFLFTGGTGVLNASDAFHDLYYVVMAFSLGYYPYNLFWFMFGMPDAGWSSSYQLGPDESNE'
p3197
sg123
F0.00038999999999999999
sg124
g125
sg33
S'50'
p3198
sg127
g1
(g128
g12
(dp3199
g130
I4
sg131
g132
sg133
g134
sg135
g132
sg136
I01
sg34
g137
sg138
g134
sg139
I0
sg140
I0
sg141
I0
sg142
g134
sg35
g143
sg144
I0
stRp3200
sg146
g147
sg148
F1
sg149
Nsg30
S'LkluyF'
p3201
sbag1
(g2
g3
NtRp3202
(dp3203
g6
g1
(g7
g3
NtRp3204
(dp3205
g10
g1
(g11
g12
(dtRp3206
sg14
g1
(g11
g12
(dtRp3207
sg16
g1
(g11
g12
(dtRp3208
sg18
g1
(g11
g12
(dtRp3209
sg20
g1
(g11
g12
(dtRp3210
sg22
g1
(g11
g12
(dtRp3211
sbsg24
S'Lkl'
p3212
sg26
g27
((lp3213
g29
ag30
aS'sequence'
p3214
ag32
ag33
aS'species'
p3215
atRp3216
sg37
(lp3217
sg120
g3168
sg121
S'RWLSTKDLYSRLELPGLNQNVHAMFVMPLGFGNPMGDMFARLNNSFWLPPLSLEGAGTGWTVYPPLSHSGPSVDLAFHLTSSLLGAINFTNMRGPLFWTALLLLSLPVLAGTLLDRNFNTFEGGDPLYHLFWFFGHPEVYIIPGFGSHSTYKKFGMYASIGLGFVWSHHMYVGLDDRAYFLSATMIAPTGIKFSWLATYGGRPMLAFLFLFTGGTGVLNASDAFHDLYYVVMAFSLGYYPYNLFWFMFGMPDAGWSSSYQLGPDESNE'
p3218
sg123
F0.00038000000000000002
sg124
g125
sg33
S'116'
p3219
sg127
g1
(g128
g12
(dp3220
g130
I4
sg131
g132
sg133
g134
sg135
g132
sg136
I01
sg34
g137
sg138
g134
sg139
I0
sg140
I0
sg141
I0
sg142
g134
sg35
g143
sg144
I0
stRp3221
sg146
g147
sg148
F1
sg149
Nsg30
S'LkluyC'
p3222
sbasg120
g3155
sg123
F1.0000000000000001e-05
sg124
g125
sg33
S'149'
p3223
sg127
g1
(g128
g12
(dp3224
g130
I6
sg131
g132
sg133
g134
sg135
g132
sg136
I01
sg34
g174
sg138
g134
sg139
I0
sg140
I0
sg141
I0
sg142
g134
sg35
g175
sg144
I0
stRp3225
sg146
g147
sg148
F1
sg149
Nsg30
S'NoName'
p3226
sbag1
(g2
g3
NtRp3227
(dp3228
g6
g1
(g7
g3
NtRp3229
(dp3230
g10
g1
(g11
g12
(dtRp3231
sg14
g1
(g11
g12
(dtRp3232
sg16
g1
(g11
g12
(dtRp3233
sg18
g1
(g11
g12
(dtRp3234
sg20
g1
(g11
g12
(dtRp3235
sg22
g1
(g11
g12
(dtRp3236
sbsg24
S'Lkl'
p3237
sg26
g27
((lp3238
g29
ag30
aS'sequence'
p3239
ag32
ag33
aS'species'
p3240
atRp3241
sg37
(lp3242
sg120
g3155
sg121
S'RWLSTKDLYSRLELPGLNQNVHAMFVMPLGFGNPMGDMFARLNNSFWLPPLSLEGAGTGWTVYPPLSHSGPSVDLAFHLTSSLLGAINFTNMRGPLFWTALLLLSLPVLAGTLLDRNFNTFEGGDPLYHLFWFFGHPEVYIIPGFGSHSTYKKFGMYASIGLGFVWSHHMYVGLDDRAYFLSATMIAPTGIKFSWLATYGGRPMLAFLFLFTGGTGVLNASDAFHDLYYVVMAFSLGYYPYNLFWFMFGMPDAGWSSSYQLGPDESNE'
p3243
sg123
F0.00040999999999999999
sg124
g125
sg33
S'124'
p3244
sg127
g1
(g128
g12
(dp3245
g130
I4
sg131
g132
sg133
g134
sg135
g132
sg136
I01
sg34
g137
sg138
g134
sg139
I0
sg140
I0
sg141
I0
sg142
g134
sg35
g143
sg144
I0
stRp3246
sg146
g147
sg148
F1
sg149
Nsg30
S'LkluyB'
p3247
sbasg120
g3142
sg123
F1.0000000000000001e-05
sg124
g125
sg33
S'215'
p3248
sg127
g1
(g128
g12
(dp3249
g130
I6
sg131
g132
sg133
g134
sg135
g132
sg136
I01
sg34
g174
sg138
g134
sg139
I0
sg140
I0
sg141
I0
sg142
g134
sg35
g175
sg144
I0
stRp3250
sg146
g147
sg148
F1
sg149
Nsg30
S'NoName'
p3251
sbag1
(g2
g3
NtRp3252
(dp3253
g6
g1
(g7
g3
NtRp3254
(dp3255
g10
g1
(g11
g12
(dtRp3256
sg14
g1
(g11
g12
(dtRp3257
sg16
g1
(g11
g12
(dtRp3258
sg18
g1
(g11
g12
(dtRp3259
sg20
g1
(g11
g12
(dtRp3260
sg22
g1
(g11
g12
(dtRp3261
sbsg24
S'Lkl'
p3262
sg26
g27
((lp3263
g29
ag30
aS'sequence'
p3264
ag32
ag33
aS'species'
p3265
atRp3266
sg37
(lp3267
sg120
g3142
sg121
S'RWLSTKDLYSRLELPGLNQNVHAMFVMPLGFGNPMGDMFARLNNSFWLPPLSLEGAGTGWTVYPPLSHSGPSVDLAFHLTSSLLGAINFTNMRGPLFWTALLLLSLPVLAGTLLDRNFNTFEGGDPLYHLFWFFGHPEVYIIPGFGSHSTYKKFGMYASIGLGFVWSHHMYVGLDDRAYFLSATMIAPTGIKFSWLATYGGRPMLAFLFLFTGGTGVLNASDAFHDLYYVVMAFSLGYYPYNLFWFMFGMPDAGWSSSYQLGPDESNE'
p3268
sg123
F0.00040999999999999999
sg124
g125
sg33
S'103'
p3269
sg127
g1
(g128
g12
(dp3270
g130
I4
sg131
g132
sg133
g134
sg135
g132
sg136
I01
sg34
g137
sg138
g134
sg139
I0
sg140
I0
sg141
I0
sg142
g134
sg35
g143
sg144
I0
stRp3271
sg146
g147
sg148
F1
sg149
Nsg30
S'LkluyA'
p3272
sbasg120
g3070
sg123
F0.0035300000000000002
sg124
g125
sg33
S'183'
p3273
sg127
g1
(g128
g12
(dp3274
g130
I6
sg131
g132
sg133
g134
sg135
g132
sg136
I01
sg34
g174
sg138
g134
sg139
I0
sg140
I0
sg141
I0
sg142
g134
sg35
g175
sg144
I0
stRp3275
sg146
g147
sg148
F0.91000000000000003
sg149
Nsg30
S'NoName'
p3276
sbasg120
g3057
sg123
F0.054280000000000002
sg124
g125
sg33
S'9'
sg127
g1
(g128
g12
(dp3277
g130
I6
sg131
g132
sg133
g134
sg135
g132
sg136
I01
sg34
g174
sg138
g134
sg139
I0
sg140
I0
sg141
I0
sg142
g134
sg35
g175
sg144
I0
stRp3278
sg146
g147
sg148
F0.98999999999999999
sg149
Nsg30
S'NoName'
p3279
sbag1
(g2
g3
NtRp3280
(dp3281
g6
g1
(g7
g3
NtRp3282
(dp3283
g10
g1
(g11
g12
(dtRp3284
sg14
g1
(g11
g12
(dtRp3285
sg16
g1
(g11
g12
(dtRp3286
sg18
g1
(g11
g12
(dtRp3287
sg20
g1
(g11
g12
(dtRp3288
sg22
g1
(g11
g12
(dtRp3289
sbsg24
g25
sg26
g27
((lp3290
g33
ag32
ag29
ag30
atRp3291
sg37
(lp3292
g1
(g2
g3
NtRp3293
(dp3294
g6
g1
(g7
g3
NtRp3295
(dp3296
g10
g1
(g11
g12
(dtRp3297
sg14
g1
(g11
g12
(dtRp3298
sg16
g1
(g11
g12
(dtRp3299
sg18
g1
(g11
g12
(dtRp3300
sg20
g1
(g11
g12
(dtRp3301
sg22
g1
(g11
g12
(dtRp3302
sbsg24
S'Lan'
p3303
sg26
g27
((lp3304
g29
ag30
aS'sequence'
p3305
ag32
ag33
aS'species'
p3306
atRp3307
sg37
(lp3308
sg120
g3280
sg121
S'RWLSTKDLYSRLELPGLNQNVHAMFVMPLGFGNPMGDMFARLNNSFWLPPLSLEGAGTGWTLYPPLSHSGPSVDLAFHLTSSLLGAINFTNMRGPLFWTALLLLSLPVLAGTVLDRNFNTFEGGDPLYHLFWFFGHPEVYIIPGFGSHSTYKKFGMYASIGLGFVWSHHMYVGLDDRAYFTSATMIAPTGIKFSWLALYGGRPMLAFLFLFTGGTGVLNASDAFHDTYYVVMAFSLGYYPYNLFWFMFGMPDAGWSSSYQLGPDESNE'
p3309
sg123
F0.10922999999999999
sg124
g125
sg33
S'206'
p3310
sg127
g1
(g128
g12
(dp3311
g130
I4
sg131
g132
sg133
g134
sg135
g132
sg136
I01
sg34
g137
sg138
g134
sg139
I0
sg140
I0
sg141
I0
sg142
g134
sg35
g143
sg144
I0
stRp3312
sg146
g147
sg148
F1
sg149
Nsg30
S'LanspA'
p3313
sbag1
(g2
g3
NtRp3314
(dp3315
g6
g1
(g7
g3
NtRp3316
(dp3317
g10
g1
(g11
g12
(dtRp3318
sg14
g1
(g11
g12
(dtRp3319
sg16
g1
(g11
g12
(dtRp3320
sg18
g1
(g11
g12
(dtRp3321
sg20
g1
(g11
g12
(dtRp3322
sg22
g1
(g11
g12
(dtRp3323
sbsg24
g25
sg26
g27
((lp3324
g33
ag32
ag29
ag30
atRp3325
sg37
(lp3326
g1
(g2
g3
NtRp3327
(dp3328
g6
g1
(g7
g3
NtRp3329
(dp3330
g10
g1
(g11
g12
(dtRp3331
sg14
g1
(g11
g12
(dtRp3332
sg16
g1
(g11
g12
(dtRp3333
sg18
g1
(g11
g12
(dtRp3334
sg20
g1
(g11
g12
(dtRp3335
sg22
g1
(g11
g12
(dtRp3336
sbsg24
g25
sg26
g27
((lp3337
g33
ag32
ag29
ag30
atRp3338
sg37
(lp3339
g1
(g2
g3
NtRp3340
(dp3341
g6
g1
(g7
g3
NtRp3342
(dp3343
g10
g1
(g11
g12
(dtRp3344
sg14
g1
(g11
g12
(dtRp3345
sg16
g1
(g11
g12
(dtRp3346
sg18
g1
(g11
g12
(dtRp3347
sg20
g1
(g11
g12
(dtRp3348
sg22
g1
(g11
g12
(dtRp3349
sbsg24
S'Lno'
p3350
sg26
g27
((lp3351
g29
ag30
aS'sequence'
p3352
ag32
ag33
aS'species'
p3353
atRp3354
sg37
(lp3355
sg120
g3327
sg121
S'RWLSTKDLYSRLELPGLNQNVHAMFVMPLGFGNPMGDMFARLNNSFWLPPLSLEGAGTGWTIYPPLSHSGPSVDLAFHLTSSLLGAINFTNMRGPLFWTALLLLSLPVLAGTILDRNFNTFEGGDPLYHLFWFFGHPEVYIIPGFGSHSTYKKFGMYASIGLGFVWSHHMYVGLDDRAYFTSALMIAPTGIKFSWLALYGGRPMLAFLFLFTGGTGVLNASDAFHDTYYVVMAFSLGYYPYNLFWFMFGMPDAGWSSSYQLGPDESNE'
p3356
sg123
F0.0075199999999999998
sg124
g125
sg33
S'57'
p3357
sg127
g1
(g128
g12
(dp3358
g130
I4
sg131
g132
sg133
g134
sg135
g132
sg136
I01
sg34
g137
sg138
g134
sg139
I0
sg140
I0
sg141
I0
sg142
g134
sg35
g143
sg144
I0
stRp3359
sg146
g147
sg148
F1
sg149
Nsg30
S'LnothA'
p3360
sbag1
(g2
g3
NtRp3361
(dp3362
g6
g1
(g7
g3
NtRp3363
(dp3364
g10
g1
(g11
g12
(dtRp3365
sg14
g1
(g11
g12
(dtRp3366
sg16
g1
(g11
g12
(dtRp3367
sg18
g1
(g11
g12
(dtRp3368
sg20
g1
(g11
g12
(dtRp3369
sg22
g1
(g11
g12
(dtRp3370
sbsg24
g25
sg26
g27
((lp3371
g33
ag32
ag29
ag30
atRp3372
sg37
(lp3373
g1
(g2
g3
NtRp3374
(dp3375
g6
g1
(g7
g3
NtRp3376
(dp3377
g10
g1
(g11
g12
(dtRp3378
sg14
g1
(g11
g12
(dtRp3379
sg16
g1
(g11
g12
(dtRp3380
sg18
g1
(g11
g12
(dtRp3381
sg20
g1
(g11
g12
(dtRp3382
sg22
g1
(g11
g12
(dtRp3383
sbsg24
S'Lda'
p3384
sg26
g27
((lp3385
g29
ag30
aS'sequence'
p3386
ag32
ag33
aS'species'
p3387
atRp3388
sg37
(lp3389
sg120
g3361
sg121
S'RWLSTKDLYSRLELPGLNQNVHAMFVMPLGFGNPMGDMFARLNNSFWLPPLSLEGAGTGWTVYPPLSHSGPSVDLAFHLTSSLLGAINFTNMRGPLFWTALLLLSLPVLAGTILDRNFNTFEGGDPLYHLFWFFGHPEVYIIPGFGSHSTYKKFGMYASIGLGFVWSHHMYVGLDDRAYFTSATMIAPTGIKFSWLALYGGRPMLAFLFLFTGGTGVLNASDAFHDTYYVVMAFSLGYYPYNLFWFMFGMPDAGWSSSYQLGPDESNE'
p3390
sg123
F0.023539999999999998
sg124
g125
sg33
S'114'
p3391
sg127
g1
(g128
g12
(dp3392
g130
I4
sg131
g132
sg133
g134
sg135
g132
sg136
I01
sg34
g137
sg138
g134
sg139
I0
sg140
I0
sg141
I0
sg142
g134
sg35
g143
sg144
I0
stRp3393
sg146
g147
sg148
F1
sg149
Nsg30
S'LdasiA'
p3394
sbag1
(g2
g3
NtRp3395
(dp3396
g6
g1
(g7
g3
NtRp3397
(dp3398
g10
g1
(g11
g12
(dtRp3399
sg14
g1
(g11
g12
(dtRp3400
sg16
g1
(g11
g12
(dtRp3401
sg18
g1
(g11
g12
(dtRp3402
sg20
g1
(g11
g12
(dtRp3403
sg22
g1
(g11
g12
(dtRp3404
sbsg24
g25
sg26
g27
((lp3405
g33
ag32
ag29
ag30
atRp3406
sg37
(lp3407
g1
(g2
g3
NtRp3408
(dp3409
g6
g1
(g7
g3
NtRp3410
(dp3411
g10
g1
(g11
g12
(dtRp3412
sg14
g1
(g11
g12
(dtRp3413
sg16
g1
(g11
g12
(dtRp3414
sg18
g1
(g11
g12
(dtRp3415
sg20
g1
(g11
g12
(dtRp3416
sg22
g1
(g11
g12
(dtRp3417
sbsg24
S'Lme'
p3418
sg26
g27
((lp3419
g29
ag30
aS'sequence'
p3420
ag32
ag33
aS'species'
p3421
atRp3422
sg37
(lp3423
sg120
g3395
sg121
S'RWLSTKDLYSRLELPGLNQNVHAMFVMPLGFGNPMGDMFARLNNSFWLPPLSLEGAGTGWTVYPPLSHSGPSVDLAFHLTSSLLGAINFTNMRGPLFWTALLLLSLPVLAGTILDRNFNTFEGGDPLYHLFWFFGHPEVYIIPGFGSHSTYKKFGMYASIGLGFVWSHHMYVGLDDRAYFTSATMIAPTGIKFSWLALYGGRPMLAFLFLFTGGTGVLNASDAFHDTYYVVMAFSLGYYPYNLFWFMFGMPDAGWSSSYQLGPDESNE'
p3424
sg123
F0.0050299999999999997
sg124
g125
sg33
S'31'
p3425
sg127
g1
(g128
g12
(dp3426
g130
I4
sg131
g132
sg133
g134
sg135
g132
sg136
I01
sg34
g137
sg138
g134
sg139
I0
sg140
I0
sg141
I0
sg142
g134
sg35
g143
sg144
I0
stRp3427
sg146
g147
sg148
F1
sg149
Nsg30
S'LmeyeA'
p3428
sbag1
(g2
g3
NtRp3429
(dp3430
g6
g1
(g7
g3
NtRp3431
(dp3432
g10
g1
(g11
g12
(dtRp3433
sg14
g1
(g11
g12
(dtRp3434
sg16
g1
(g11
g12
(dtRp3435
sg18
g1
(g11
g12
(dtRp3436
sg20
g1
(g11
g12
(dtRp3437
sg22
g1
(g11
g12
(dtRp3438
sbsg24
S'Lan'
p3439
sg26
g27
((lp3440
g29
ag30
aS'sequence'
p3441
ag32
ag33
aS'species'
p3442
atRp3443
sg37
(lp3444
sg120
g3395
sg121
S'RWLSTKDLYSRLELPGLNQNVHAMFVMPLGFGNPMGDMFARLNNSFWLPPLSLEGAGTGWTVYPPLSHSGPSVDLAFHLTSSLLGAINFTNMRGPLFWTALLLLSLPVLAGTILDRNFNTFEGGDPLYHLFWFFGHPEVYIIPGFGSHSTYKKFGMYASIGLGFVWSHHMYVGLDDRAYFTSALMIAPTGIKFSWLALYGGRPMLAFLFLFTGGTGVLNASDAFHDTYYVVMAFSLGYYPYNLFWFMFGMPDAGWSSSYQLGPDESNE'
p3445
sg123
F0.012290000000000001
sg124
g125
sg33
S'117'
p3446
sg127
g1
(g128
g12
(dp3447
g130
I4
sg131
g132
sg133
g134
sg135
g132
sg136
I01
sg34
g137
sg138
g134
sg139
I0
sg140
I0
sg141
I0
sg142
g134
sg35
g143
sg144
I0
stRp3448
sg146
g147
sg148
F1
sg149
Nsg30
S'LanspB'
p3449
sbasg120
g3361
sg123
F0.012070000000000001
sg124
g125
sg33
S'190'
p3450
sg127
g1
(g128
g12
(dp3451
g130
I6
sg131
g132
sg133
g134
sg135
g132
sg136
I01
sg34
g174
sg138
g134
sg139
I0
sg140
I0
sg141
I0
sg142
g134
sg35
g175
sg144
I0
stRp3452
sg146
g147
sg148
F0.98999999999999999
sg149
Nsg30
S'NoName'
p3453
sbasg120
g3327
sg123
F0.0088199999999999997
sg124
g125
sg33
S'6'
sg127
g1
(g128
g12
(dp3454
g130
I6
sg131
g132
sg133
g134
sg135
g132
sg136
I01
sg34
g174
sg138
g134
sg139
I0
sg140
I0
sg141
I0
sg142
g134
sg35
g175
sg144
I0
stRp3455
sg146
g147
sg148
F0.95999999999999996
sg149
Nsg30
S'NoName'
p3456
sbasg120
g3314
sg123
F0.016570000000000001
sg124
g125
sg33
S'120'
p3457
sg127
g1
(g128
g12
(dp3458
g130
I6
sg131
g132
sg133
g134
sg135
g132
sg136
I01
sg34
g174
sg138
g134
sg139
I0
sg140
I0
sg141
I0
sg142
g134
sg35
g175
sg144
I0
stRp3459
sg146
g147
sg148
F0.94999999999999996
sg149
Nsg30
S'NoName'
p3460
sbag1
(g2
g3
NtRp3461
(dp3462
g6
g1
(g7
g3
NtRp3463
(dp3464
g10
g1
(g11
g12
(dtRp3465
sg14
g1
(g11
g12
(dtRp3466
sg16
g1
(g11
g12
(dtRp3467
sg18
g1
(g11
g12
(dtRp3468
sg20
g1
(g11
g12
(dtRp3469
sg22
g1
(g11
g12
(dtRp3470
sbsg24
S'Kth'
p3471
sg26
g27
((lp3472
g29
ag30
aS'sequence'
p3473
ag32
ag33
aS'species'
p3474
atRp3475
sg37
(lp3476
sg120
g3314
sg121
S'RWLSTKDLYSRLELPGLNQNVHAMFVMPLGFGNPMGDMFARLNNSFWLPPLSLEGAGTGWTVYPPLSHSGPSVDLAFHLTSSLLGAINFTNMRGPLFWTALLLLSLPVLAGTILDRNFNTFEGGDPLYHLFWFFGHPEVYIIPGFGSHSTYKKFGMYASIGLGFVWSHHMYVGLDDRAYFTSATMIAPTGIKFSWLALYGGRPMLAFLFLFTGGTGVLNASDAFHDTYYVVMAFSLGYYPYNLFWFMFGMPDAGWSSSYQLGPDESNE'
p3477
sg123
F0.021499999999999998
sg124
g125
sg33
S'224'
p3478
sg127
g1
(g128
g12
(dp3479
g130
I4
sg131
g132
sg133
g134
sg135
g132
sg136
I01
sg34
g137
sg138
g134
sg139
I0
sg140
I0
sg141
I0
sg142
g134
sg35
g143
sg144
I0
stRp3480
sg146
g147
sg148
F1
sg149
Nsg30
S'KtherA'
p3481
sbasg120
g3280
sg123
F0.033250000000000002
sg124
g125
sg33
S'86'
p3482
sg127
g1
(g128
g12
(dp3483
g130
I6
sg131
g132
sg133
g134
sg135
g132
sg136
I01
sg34
g174
sg138
g134
sg139
I0
sg140
I0
sg141
I0
sg142
g134
sg35
g175
sg144
I0
stRp3484
sg146
g147
sg148
F0.93999999999999995
sg149
Nsg30
S'NoName'
p3485
sbasg120
g3057
sg123
F0.038859999999999999
sg124
g125
sg33
S'85'
p3486
sg127
g1
(g128
g12
(dp3487
g130
I6
sg131
g132
sg133
g134
sg135
g132
sg136
I01
sg34
g174
sg138
g134
sg139
I0
sg140
I0
sg141
I0
sg142
g134
sg35
g175
sg144
I0
stRp3488
sg146
g147
sg148
F0.92000000000000004
sg149
Nsg30
S'NoName'
p3489
sbasg120
g3044
sg123
F0.050380000000000001
sg124
g125
sg33
S'163'
p3490
sg127
g1
(g128
g12
(dp3491
g130
I6
sg131
g132
sg133
g134
sg135
g132
sg136
I01
sg34
g174
sg138
g134
sg139
I0
sg140
I0
sg141
I0
sg142
g134
sg35
g175
sg144
I0
stRp3492
sg146
g147
sg148
F0.89000000000000001
sg149
Nsg30
S'NoName'
p3493
sbag1
(g2
g3
NtRp3494
(dp3495
g6
g1
(g7
g3
NtRp3496
(dp3497
g10
g1
(g11
g12
(dtRp3498
sg14
g1
(g11
g12
(dtRp3499
sg16
g1
(g11
g12
(dtRp3500
sg18
g1
(g11
g12
(dtRp3501
sg20
g1
(g11
g12
(dtRp3502
sg22
g1
(g11
g12
(dtRp3503
sbsg24
g25
sg26
g27
((lp3504
g33
ag32
ag29
ag30
atRp3505
sg37
(lp3506
g1
(g2
g3
NtRp3507
(dp3508
g6
g1
(g7
g3
NtRp3509
(dp3510
g10
g1
(g11
g12
(dtRp3511
sg14
g1
(g11
g12
(dtRp3512
sg16
g1
(g11
g12
(dtRp3513
sg18
g1
(g11
g12
(dtRp3514
sg20
g1
(g11
g12
(dtRp3515
sg22
g1
(g11
g12
(dtRp3516
sbsg24
S'Kma'
p3517
sg26
g27
((lp3518
g29
ag30
aS'sequence'
p3519
ag32
ag33
aS'species'
p3520
atRp3521
sg37
(lp3522
sg120
g3494
sg121
S'RWLSTKDLYSRLELPGLNQNVHAMFVMPLGFGNPMGDMFARLNNSFWLPPLSLEGAGTGWTVYPPLSHSGPSVDLAFHLTSSLLGAINFTNMRGPLFWTALLLLSLPVLAGTLLDRNFNTFEGGDPLYHLFWFFGHPEVYIIPGFGSHSTYKKFGMYASIGLGFVWSHHMYVGLDDRAYFTSATMIAPTGIKFSWLATYGGRPMLAFLFLFTGGTGVLNASDAFHDTYYVVMAFSLGYYPYNLFWFMFGMPDAGWSSSYQLGPDESNE'
p3523
sg123
F0.04018
sg124
g125
sg33
S'43'
p3524
sg127
g1
(g128
g12
(dp3525
g130
I4
sg131
g132
sg133
g134
sg135
g132
sg136
I01
sg34
g137
sg138
g134
sg139
I0
sg140
I0
sg141
I0
sg142
g134
sg35
g143
sg144
I0
stRp3526
sg146
g147
sg148
F1
sg149
Nsg30
S'KmarxA'
p3527
sbag1
(g2
g3
NtRp3528
(dp3529
g6
g1
(g7
g3
NtRp3530
(dp3531
g10
g1
(g11
g12
(dtRp3532
sg14
g1
(g11
g12
(dtRp3533
sg16
g1
(g11
g12
(dtRp3534
sg18
g1
(g11
g12
(dtRp3535
sg20
g1
(g11
g12
(dtRp3536
sg22
g1
(g11
g12
(dtRp3537
sbsg24
S'Kla'
p3538
sg26
g27
((lp3539
g29
ag30
aS'sequence'
p3540
ag32
ag33
aS'species'
p3541
atRp3542
sg37
(lp3543
sg120
g3494
sg121
S'RWLSTKDLYSRLELPGLNQNVHAMFVMPLGFGNPLGDMFARLNNSFWLPPLSLEGAGTGWTVYPPLSHSGPSVDLAFHLTSSLLGAINFTNMRGPLFWTALLLLSLPVLAGTLLDRNFNTFEGGDPLYHLFWFFGHPEVYIIPGFGSHSTYKKFGMYASIGLGFVWSHHMYVGLDDRAYFTSATMIAPTGIKFSWLATYGGRPMLAFLFLFTGGTGVLNASDAFHDTYYVVMAFSLGYYPYNLFWFMFGMPDAGWSSSYQLGPDESNE'
p3544
sg123
F0.043529999999999999
sg124
g125
sg33
S'10'
p3545
sg127
g1
(g128
g12
(dp3546
g130
I4
sg131
g132
sg133
g134
sg135
g132
sg136
I01
sg34
g137
sg138
g134
sg139
I0
sg140
I0
sg141
I0
sg142
g134
sg35
g143
sg144
I0
stRp3547
sg146
g147
sg148
F1
sg149
Nsg30
S'KlactA'
p3548
sbasg120
g3044
sg123
F0.13938999999999999
sg124
g125
sg33
S'106'
p3549
sg127
g1
(g128
g12
(dp3550
g130
I6
sg131
g132
sg133
g134
sg135
g132
sg136
I01
sg34
g174
sg138
g134
sg139
I0
sg140
I0
sg141
I0
sg142
g134
sg35
g175
sg144
I0
stRp3551
sg146
g147
sg148
F0.98999999999999999
sg149
Nsg30
S'NoName'
p3552
sbasg120
g3031
sg123
F1.0000000000000001e-05
sg124
g125
sg33
S'167'
p3553
sg127
g1
(g128
g12
(dp3554
g130
I6
sg131
g132
sg133
g134
sg135
g132
sg136
I01
sg34
g174
sg138
g134
sg139
I0
sg140
I0
sg141
I0
sg142
g134
sg35
g175
sg144
I0
stRp3555
sg146
g147
sg148
F1
sg149
Nsg30
S'NoName'
p3556
sbag1
(g2
g3
NtRp3557
(dp3558
g6
g1
(g7
g3
NtRp3559
(dp3560
g10
g1
(g11
g12
(dtRp3561
sg14
g1
(g11
g12
(dtRp3562
sg16
g1
(g11
g12
(dtRp3563
sg18
g1
(g11
g12
(dtRp3564
sg20
g1
(g11
g12
(dtRp3565
sg22
g1
(g11
g12
(dtRp3566
sbsg24
g25
sg26
g27
((lp3567
g33
ag32
ag29
ag30
atRp3568
sg37
(lp3569
g1
(g2
g3
NtRp3570
(dp3571
g6
g1
(g7
g3
NtRp3572
(dp3573
g10
g1
(g11
g12
(dtRp3574
sg14
g1
(g11
g12
(dtRp3575
sg16
g1
(g11
g12
(dtRp3576
sg18
g1
(g11
g12
(dtRp3577
sg20
g1
(g11
g12
(dtRp3578
sg22
g1
(g11
g12
(dtRp3579
sbsg24
S'Huv'
p3580
sg26
g27
((lp3581
g29
ag30
aS'sequence'
p3582
ag32
ag33
aS'species'
p3583
atRp3584
sg37
(lp3585
sg120
g3557
sg121
S'-MITTKDLYSRLELSGINHNSHAMFIMPIGFGNPAGDMFPRLNNSFWLVPVSLEGAGTGWTVYYPLSHSSVSVDLVFHCLSSLLGAINFTNFL-SLFWLALLLLSLPVLVGTLLDRNFNLYEGGDPLYHLFWFFGHPEVYIIPAFGSMSAYSKFGMYASIGLGFVWVHHMFVGLDDRAYFTSATMIAPLGIKFSWLALIGGRPVLAFLVLFLGGTGVLNASDAFHDTYYVVLAFGIGYYPYNLFVVMYGMSDSAWTASVQLGTDLLPE'
p3586
sg123
F3.9441199999999998
sg124
g125
sg33
S'202'
p3587
sg127
g1
(g128
g12
(dp3588
g130
I4
sg131
g132
sg133
g134
sg135
g132
sg136
I01
sg34
g137
sg138
g134
sg139
I0
sg140
I0
sg141
I0
sg142
g134
sg35
g143
sg144
I0
stRp3589
sg146
g147
sg148
F1
sg149
Nsg30
S'HuvarA'
p3590
sbag1
(g2
g3
NtRp3591
(dp3592
g6
g1
(g7
g3
NtRp3593
(dp3594
g10
g1
(g11
g12
(dtRp3595
sg14
g1
(g11
g12
(dtRp3596
sg16
g1
(g11
g12
(dtRp3597
sg18
g1
(g11
g12
(dtRp3598
sg20
g1
(g11
g12
(dtRp3599
sg22
g1
(g11
g12
(dtRp3600
sbsg24
g25
sg26
g27
((lp3601
g33
ag32
ag29
ag30
atRp3602
sg37
(lp3603
g1
(g2
g3
NtRp3604
(dp3605
g6
g1
(g7
g3
NtRp3606
(dp3607
g10
g1
(g11
g12
(dtRp3608
sg14
g1
(g11
g12
(dtRp3609
sg16
g1
(g11
g12
(dtRp3610
sg18
g1
(g11
g12
(dtRp3611
sg20
g1
(g11
g12
(dtRp3612
sg22
g1
(g11
g12
(dtRp3613
sbsg24
g25
sg26
g27
((lp3614
g33
ag32
ag29
ag30
atRp3615
sg37
(lp3616
g1
(g2
g3
NtRp3617
(dp3618
g6
g1
(g7
g3
NtRp3619
(dp3620
g10
g1
(g11
g12
(dtRp3621
sg14
g1
(g11
g12
(dtRp3622
sg16
g1
(g11
g12
(dtRp3623
sg18
g1
(g11
g12
(dtRp3624
sg20
g1
(g11
g12
(dtRp3625
sg22
g1
(g11
g12
(dtRp3626
sbsg24
g25
sg26
g27
((lp3627
g33
ag32
ag29
ag30
atRp3628
sg37
(lp3629
g1
(g2
g3
NtRp3630
(dp3631
g6
g1
(g7
g3
NtRp3632
(dp3633
g10
g1
(g11
g12
(dtRp3634
sg14
g1
(g11
g12
(dtRp3635
sg16
g1
(g11
g12
(dtRp3636
sg18
g1
(g11
g12
(dtRp3637
sg20
g1
(g11
g12
(dtRp3638
sg22
g1
(g11
g12
(dtRp3639
sbsg24
S'Sse'
p3640
sg26
g27
((lp3641
g29
ag30
aS'sequence'
p3642
ag32
ag33
aS'species'
p3643
atRp3644
sg37
(lp3645
sg120
g3617
sg121
S'RWLSTKDMYSRMELPGLNQNVHAMFAMPLGFGNPMGDMFPRINSGFWLPMLSLEGAGTGWTVYPPLSHSGPSVDLAFHLTSSLLGAINFTNMRGPLFWTALLLLSLPVLAGTLLDRNFNTFEGGDPFYHAFWFFGHPEVYIIPGFGSHSTYKKFGMYASIGLGFVWSHHMYVGLDDRAYFTSATMIAPTGIKFSWLALYGGRPMMAFLFLFTGGTGVLNASDAFHDTYYVVMAFSLGYYPYNLFWFMFGMPDAGWSSSYQIGPDESNE'
p3646
sg123
F0.29805999999999999
sg124
g125
sg33
S'63'
p3647
sg127
g1
(g128
g12
(dp3648
g130
I4
sg131
g132
sg133
g134
sg135
g132
sg136
I01
sg34
g137
sg138
g134
sg139
I0
sg140
I0
sg141
I0
sg142
g134
sg35
g143
sg144
I0
stRp3649
sg146
g147
sg148
F1
sg149
Nsg30
S'SservA'
p3650
sbag1
(g2
g3
NtRp3651
(dp3652
g6
g1
(g7
g3
NtRp3653
(dp3654
g10
g1
(g11
g12
(dtRp3655
sg14
g1
(g11
g12
(dtRp3656
sg16
g1
(g11
g12
(dtRp3657
sg18
g1
(g11
g12
(dtRp3658
sg20
g1
(g11
g12
(dtRp3659
sg22
g1
(g11
g12
(dtRp3660
sbsg24
S'Sca'
p3661
sg26
g27
((lp3662
g29
ag30
aS'sequence'
p3663
ag32
ag33
aS'species'
p3664
atRp3665
sg37
(lp3666
sg120
g3617
sg121
S'RWLSTKDLYSRLELPGLNQNVHAMFVMPLGFGNPMGDTFPRINNGFWLPMLSLEGAGTGWTVYPPLAHSGPSVDLAFHMTSSLLGAINFTNMRGPLFWTALLLLTLPVLAGTLLDRNFNTFEGGDPLYHLFWFFGHPEVYIIPGFGSHSTYKKFGMYASIGLGLVWSHHMYVGLDDRAYFTSATMIAPTGIKFSWLATYGGRPMLAFLFLFTGGTGVLNASDAFHDLYYVVMAFSLGYYPYNLFWFMFGMPDAGWSASYQLGPDESNE'
p3667
sg123
F0.30890000000000001
sg124
g125
sg33
S'46'
p3668
sg127
g1
(g128
g12
(dp3669
g130
I4
sg131
g132
sg133
g134
sg135
g132
sg136
I01
sg34
g137
sg138
g134
sg139
I0
sg140
I0
sg141
I0
sg142
g134
sg35
g143
sg144
I0
stRp3670
sg146
g147
sg148
F1
sg149
Nsg30
S'ScastA'
p3671
sbasg120
g3604
sg123
F0.072319999999999995
sg124
g125
sg33
S'160'
p3672
sg127
g1
(g128
g12
(dp3673
g130
I6
sg131
g132
sg133
g134
sg135
g132
sg136
I01
sg34
g174
sg138
g134
sg139
I0
sg140
I0
sg141
I0
sg142
g134
sg35
g175
sg144
I0
stRp3674
sg146
g147
sg148
F0.98999999999999999
sg149
Nsg30
S'NoName'
p3675
sbag1
(g2
g3
NtRp3676
(dp3677
g6
g1
(g7
g3
NtRp3678
(dp3679
g10
g1
(g11
g12
(dtRp3680
sg14
g1
(g11
g12
(dtRp3681
sg16
g1
(g11
g12
(dtRp3682
sg18
g1
(g11
g12
(dtRp3683
sg20
g1
(g11
g12
(dtRp3684
sg22
g1
(g11
g12
(dtRp3685
sbsg24
g25
sg26
g27
((lp3686
g33
ag32
ag29
ag30
atRp3687
sg37
(lp3688
g1
(g2
g3
NtRp3689
(dp3690
g6
g1
(g7
g3
NtRp3691
(dp3692
g10
g1
(g11
g12
(dtRp3693
sg14
g1
(g11
g12
(dtRp3694
sg16
g1
(g11
g12
(dtRp3695
sg18
g1
(g11
g12
(dtRp3696
sg20
g1
(g11
g12
(dtRp3697
sg22
g1
(g11
g12
(dtRp3698
sbsg24
S'Spa'
p3699
sg26
g27
((lp3700
g29
ag30
aS'sequence'
p3701
ag32
ag33
aS'species'
p3702
atRp3703
sg37
(lp3704
sg120
g3676
sg121
S'RWLSTKDLYSRLELPGLNQNVHAMFVMPLGFGNPMGDTFPRINNAFWLPMLSLEGAGTGWTVYPPLSHSGPSVDLAFHLTSSLLGAINFTNMRGPLFWTALLLLSLPVLAGTLLDRNFNTFEGGDPLYHLFWFFGHPEVYIIPGFGSHSTYKKFGMYASIGLGFVWSHHMYVGLDDRAYFLSATMIAPTGIKFSWLATYGGRPMLAFLFLFTGGTGVLNASDAFHDTYYVVMAFSLGYYPYNLFWFMFGMPDAGWSSSYQLGPDESNE'
p3705
sg123
F0.029780000000000001
sg124
g125
sg33
S'218'
p3706
sg127
g1
(g128
g12
(dp3707
g130
I4
sg131
g132
sg133
g134
sg135
g132
sg136
I01
sg34
g137
sg138
g134
sg139
I0
sg140
I0
sg141
I0
sg142
g134
sg35
g143
sg144
I0
stRp3708
sg146
g147
sg148
F1
sg149
Nsg30
S'SpastA'
p3709
sbag1
(g2
g3
NtRp3710
(dp3711
g6
g1
(g7
g3
NtRp3712
(dp3713
g10
g1
(g11
g12
(dtRp3714
sg14
g1
(g11
g12
(dtRp3715
sg16
g1
(g11
g12
(dtRp3716
sg18
g1
(g11
g12
(dtRp3717
sg20
g1
(g11
g12
(dtRp3718
sg22
g1
(g11
g12
(dtRp3719
sbsg24
g25
sg26
g27
((lp3720
g33
ag32
ag29
ag30
atRp3721
sg37
(lp3722
g1
(g2
g3
NtRp3723
(dp3724
g6
g1
(g7
g3
NtRp3725
(dp3726
g10
g1
(g11
g12
(dtRp3727
sg14
g1
(g11
g12
(dtRp3728
sg16
g1
(g11
g12
(dtRp3729
sg18
g1
(g11
g12
(dtRp3730
sg20
g1
(g11
g12
(dtRp3731
sg22
g1
(g11
g12
(dtRp3732
sbsg24
g25
sg26
g27
((lp3733
g33
ag32
ag29
ag30
atRp3734
sg37
(lp3735
g1
(g2
g3
NtRp3736
(dp3737
g6
g1
(g7
g3
NtRp3738
(dp3739
g10
g1
(g11
g12
(dtRp3740
sg14
g1
(g11
g12
(dtRp3741
sg16
g1
(g11
g12
(dtRp3742
sg18
g1
(g11
g12
(dtRp3743
sg20
g1
(g11
g12
(dtRp3744
sg22
g1
(g11
g12
(dtRp3745
sbsg24
S'Sce'
p3746
sg26
g27
((lp3747
g29
ag30
aS'sequence'
p3748
ag32
ag33
aS'species'
p3749
atRp3750
sg37
(lp3751
sg120
g3723
sg121
S'RWLSTKDLYSRLELPGLNQNVHAMFVMPLGFGNPMGDTFPRINNAFWLPMLSLEGAGTGWTVYPPLSHSGPSVDLAFHLTSSLLGAINFTNMRGPLFWTALLLLSLPVLAGTLLDRNFNTFEGGDPLYHLFWFFGHPEVYIIPGFGSHSTYKKFGMYASIGLGFVWSHHMYVGLDDRAYFLSALMIAPTGIKFSWLALYGGRPMLAFLFLFTGGTGVLNASDAFHDTYYVVMAFSLGYYPYNLFWFMFGMPDAGWSSSYQLGPDESNE'
p3752
sg123
F0.0038700000000000002
sg124
g125
sg33
S'95'
p3753
sg127
g1
(g128
g12
(dp3754
g130
I4
sg131
g132
sg133
g134
sg135
g132
sg136
I01
sg34
g137
sg138
g134
sg139
I0
sg140
I0
sg141
I0
sg142
g134
sg35
g143
sg144
I0
stRp3755
sg146
g147
sg148
F1
sg149
Nsg30
S'ScereD'
p3756
sbag1
(g2
g3
NtRp3757
(dp3758
g6
g1
(g7
g3
NtRp3759
(dp3760
g10
g1
(g11
g12
(dtRp3761
sg14
g1
(g11
g12
(dtRp3762
sg16
g1
(g11
g12
(dtRp3763
sg18
g1
(g11
g12
(dtRp3764
sg20
g1
(g11
g12
(dtRp3765
sg22
g1
(g11
g12
(dtRp3766
sbsg24
g25
sg26
g27
((lp3767
g33
ag32
ag29
ag30
atRp3768
sg37
(lp3769
g1
(g2
g3
NtRp3770
(dp3771
g6
g1
(g7
g3
NtRp3772
(dp3773
g10
g1
(g11
g12
(dtRp3774
sg14
g1
(g11
g12
(dtRp3775
sg16
g1
(g11
g12
(dtRp3776
sg18
g1
(g11
g12
(dtRp3777
sg20
g1
(g11
g12
(dtRp3778
sg22
g1
(g11
g12
(dtRp3779
sbsg24
S'Sce'
p3780
sg26
g27
((lp3781
g29
ag30
aS'sequence'
p3782
ag32
ag33
aS'species'
p3783
atRp3784
sg37
(lp3785
sg120
g3757
sg121
S'RWLSTKDLYSRLELPGLNQNVHAMFVMPLGFGNPMGDTFPRINNAFWLPMLSLEGAGTGWTVYPPLSHSGPSVDLAFHLTSSLLGAINFTNMRGPLFWTALLLLSLPVLAGTLLDRNFNTFEGGDPLYHLFWFFGHPEVYIIPGFGSHSTYKKFGMYASIGLGFVWSHHMYVGLDDRAYFLSALMIAPTGIKFSWLALYGGRPMLAFLFLFTGGTGVLNASDAFHDTYYVVMAFSLGYYPYNLFWFMFGMPDAGWSSSYQLGPDESNE'
p3786
sg123
F0.0075900000000000004
sg124
g125
sg33
S'158'
p3787
sg127
g1
(g128
g12
(dp3788
g130
I4
sg131
g132
sg133
g134
sg135
g132
sg136
I01
sg34
g137
sg138
g134
sg139
I0
sg140
I0
sg141
I0
sg142
g134
sg35
g143
sg144
I0
stRp3789
sg146
g147
sg148
F1
sg149
Nsg30
S'ScereE'
p3790
sbag1
(g2
g3
NtRp3791
(dp3792
g6
g1
(g7
g3
NtRp3793
(dp3794
g10
g1
(g11
g12
(dtRp3795
sg14
g1
(g11
g12
(dtRp3796
sg16
g1
(g11
g12
(dtRp3797
sg18
g1
(g11
g12
(dtRp3798
sg20
g1
(g11
g12
(dtRp3799
sg22
g1
(g11
g12
(dtRp3800
sbsg24
g25
sg26
g27
((lp3801
g33
ag32
ag29
ag30
atRp3802
sg37
(lp3803
g1
(g2
g3
NtRp3804
(dp3805
g6
g1
(g7
g3
NtRp3806
(dp3807
g10
g1
(g11
g12
(dtRp3808
sg14
g1
(g11
g12
(dtRp3809
sg16
g1
(g11
g12
(dtRp3810
sg18
g1
(g11
g12
(dtRp3811
sg20
g1
(g11
g12
(dtRp3812
sg22
g1
(g11
g12
(dtRp3813
sbsg24
S'Sce'
p3814
sg26
g27
((lp3815
g29
ag30
aS'sequence'
p3816
ag32
ag33
aS'species'
p3817
atRp3818
sg37
(lp3819
sg120
g3791
sg121
S'RWLSTKDLYSRLELPGLNQNVHAMFVMPLGFGNPMGDTFPRINNAFWLPMLSLEGAGTGWTVYPPLSHSGPSVDLAFHLTSSLLGAINFTNMRGPLFWTALLLLSLPVLAGTLLDRNFNTFEGGDPLYHLFWFFGHPEVYIIPGFGSHSTYKKFGMYASIGLGFVWSHHMYVGLDDRAYFLSALMIAPTGIKFSWLALHGGRPMLAFLFLFTGGTGVLNASDAFHDTYYVVMAFSLGYYPYNLFWFMFGMPDAGWSSSYQLGPDESNE'
p3820
sg123
F0.0053899999999999998
sg124
g125
sg33
S'100'
p3821
sg127
g1
(g128
g12
(dp3822
g130
I4
sg131
g132
sg133
g134
sg135
g132
sg136
I01
sg34
g137
sg138
g134
sg139
I0
sg140
I0
sg141
I0
sg142
g134
sg35
g143
sg144
I0
stRp3823
sg146
g147
sg148
F1
sg149
Nsg30
S'ScereC'
p3824
sbag1
(g2
g3
NtRp3825
(dp3826
g6
g1
(g7
g3
NtRp3827
(dp3828
g10
g1
(g11
g12
(dtRp3829
sg14
g1
(g11
g12
(dtRp3830
sg16
g1
(g11
g12
(dtRp3831
sg18
g1
(g11
g12
(dtRp3832
sg20
g1
(g11
g12
(dtRp3833
sg22
g1
(g11
g12
(dtRp3834
sbsg24
S'Sce'
p3835
sg26
g27
((lp3836
g29
ag30
aS'sequence'
p3837
ag32
ag33
aS'species'
p3838
atRp3839
sg37
(lp3840
sg120
g3791
sg121
S'RWLSTKDLYSRLELPGLNQNVHAMFVMPLGFGNPMGDTFPRINNAFWLPMLSLEGAGTGWTVYPPLSHSGPSVDLAFHLTSSLLGAINFTNMRGPLFWTALLLLSLPVLAGTLLDRNFNTFEGGDPLYHLFWFFGHPEVYIIPGFGSHSTYKKFGMYASIGLGFVWSHHMYVGLDDRAYFLSALMIAPTGIKFSWLALYGGRPMLAFLFLFTGGTGVLNASDAFHDTYYVVMAFSLGYYPYNLFWFMFGMPDAGWSSSYQLGPDESNE'
p3841
sg123
F0.0066400000000000001
sg124
g125
sg33
S'53'
p3842
sg127
g1
(g128
g12
(dp3843
g130
I4
sg131
g132
sg133
g134
sg135
g132
sg136
I01
sg34
g137
sg138
g134
sg139
I0
sg140
I0
sg141
I0
sg142
g134
sg35
g143
sg144
I0
stRp3844
sg146
g147
sg148
F1
sg149
Nsg30
S'ScereA'
p3845
sbasg120
g3757
sg123
F0.00596
sg124
g125
sg33
S'56'
p3846
sg127
g1
(g128
g12
(dp3847
g130
I6
sg131
g132
sg133
g134
sg135
g132
sg136
I01
sg34
g174
sg138
g134
sg139
I0
sg140
I0
sg141
I0
sg142
g134
sg35
g175
sg144
I0
stRp3848
sg146
g147
sg148
F0.98999999999999999
sg149
Nsg30
S'NoName'
p3849
sbasg120
g3723
sg123
F0.0050600000000000003
sg124
g125
sg33
S'3'
sg127
g1
(g128
g12
(dp3850
g130
I6
sg131
g132
sg133
g134
sg135
g132
sg136
I01
sg34
g174
sg138
g134
sg139
I0
sg140
I0
sg141
I0
sg142
g134
sg35
g175
sg144
I0
stRp3851
sg146
g147
sg148
F0.66000000000000003
sg149
Nsg30
S'NoName'
p3852
sbasg120
g3710
sg123
F0.017850000000000001
sg124
g125
sg33
S'55'
p3853
sg127
g1
(g128
g12
(dp3854
g130
I6
sg131
g132
sg133
g134
sg135
g132
sg136
I01
sg34
g174
sg138
g134
sg139
I0
sg140
I0
sg141
I0
sg142
g134
sg35
g175
sg144
I0
stRp3855
sg146
g147
sg148
F0.89000000000000001
sg149
Nsg30
S'NoName'
p3856
sbag1
(g2
g3
NtRp3857
(dp3858
g6
g1
(g7
g3
NtRp3859
(dp3860
g10
g1
(g11
g12
(dtRp3861
sg14
g1
(g11
g12
(dtRp3862
sg16
g1
(g11
g12
(dtRp3863
sg18
g1
(g11
g12
(dtRp3864
sg20
g1
(g11
g12
(dtRp3865
sg22
g1
(g11
g12
(dtRp3866
sbsg24
S'Sar'
p3867
sg26
g27
((lp3868
g29
ag30
aS'sequence'
p3869
ag32
ag33
aS'species'
p3870
atRp3871
sg37
(lp3872
sg120
g3710
sg121
S'RWLSTKDLYSRLELPGLNQNVHAMFVMPLGFGNPMGDTFPRINNAFWLPMLSLEGAGTGWTVYPPLSHSGPSVDLAFHLTSSLLGAINFTNMRGPLFWTALLLLSLPVLAGTLLDRNFNTFEGGDPLYHLFWFFGHPEVYIIPGFGSHSTYKKFGMYASIGLGFVWSHHMYVGLDDRAYFLSALMIAPTGIKFSWLALYGGRPMLAFLFLFTGGTGVLNASDAFHDTYYVVMAFSLGYYPYNLFWFMFGMPDAGWSSSYQLGPDESNE'
p3873
sg123
F0.047230000000000001
sg124
g125
sg33
S'172'
p3874
sg127
g1
(g128
g12
(dp3875
g130
I4
sg131
g132
sg133
g134
sg135
g132
sg136
I01
sg34
g137
sg138
g134
sg139
I0
sg140
I0
sg141
I0
sg142
g134
sg35
g143
sg144
I0
stRp3876
sg146
g147
sg148
F1
sg149
Nsg30
S'SarboA'
p3877
sbasg120
g3676
sg123
F0.023619999999999999
sg124
g125
sg33
S'127'
p3878
sg127
g1
(g128
g12
(dp3879
g130
I6
sg131
g132
sg133
g134
sg135
g132
sg136
I01
sg34
g174
sg138
g134
sg139
I0
sg140
I0
sg141
I0
sg142
g134
sg35
g175
sg144
I0
stRp3880
sg146
g147
sg148
F0.92000000000000004
sg149
Nsg30
S'NoName'
p3881
sbasg120
g3604
sg123
F0.18547
sg124
g125
sg33
S'13'
p3882
sg127
g1
(g128
g12
(dp3883
g130
I6
sg131
g132
sg133
g134
sg135
g132
sg136
I01
sg34
g174
sg138
g134
sg139
I0
sg140
I0
sg141
I0
sg142
g134
sg35
g175
sg144
I0
stRp3884
sg146
g147
sg148
F0.98999999999999999
sg149
Nsg30
S'NoName'
p3885
sbasg120
g3591
sg123
F0.03594
sg124
g125
sg33
S'51'
p3886
sg127
g1
(g128
g12
(dp3887
g130
I6
sg131
g132
sg133
g134
sg135
g132
sg136
I01
sg34
g174
sg138
g134
sg139
I0
sg140
I0
sg141
I0
sg142
g134
sg35
g175
sg144
I0
stRp3888
sg146
g147
sg148
F0.98999999999999999
sg149
Nsg30
S'NoName'
p3889
sbag1
(g2
g3
NtRp3890
(dp3891
g6
g1
(g7
g3
NtRp3892
(dp3893
g10
g1
(g11
g12
(dtRp3894
sg14
g1
(g11
g12
(dtRp3895
sg16
g1
(g11
g12
(dtRp3896
sg18
g1
(g11
g12
(dtRp3897
sg20
g1
(g11
g12
(dtRp3898
sg22
g1
(g11
g12
(dtRp3899
sbsg24
g25
sg26
g27
((lp3900
g33
ag32
ag29
ag30
atRp3901
sg37
(lp3902
g1
(g2
g3
NtRp3903
(dp3904
g6
g1
(g7
g3
NtRp3905
(dp3906
g10
g1
(g11
g12
(dtRp3907
sg14
g1
(g11
g12
(dtRp3908
sg16
g1
(g11
g12
(dtRp3909
sg18
g1
(g11
g12
(dtRp3910
sg20
g1
(g11
g12
(dtRp3911
sg22
g1
(g11
g12
(dtRp3912
sbsg24
g25
sg26
g27
((lp3913
g33
ag32
ag29
ag30
atRp3914
sg37
(lp3915
g1
(g2
g3
NtRp3916
(dp3917
g6
g1
(g7
g3
NtRp3918
(dp3919
g10
g1
(g11
g12
(dtRp3920
sg14
g1
(g11
g12
(dtRp3921
sg16
g1
(g11
g12
(dtRp3922
sg18
g1
(g11
g12
(dtRp3923
sg20
g1
(g11
g12
(dtRp3924
sg22
g1
(g11
g12
(dtRp3925
sbsg24
S'Nde'
p3926
sg26
g27
((lp3927
g29
ag30
aS'sequence'
p3928
ag32
ag33
aS'species'
p3929
atRp3930
sg37
(lp3931
sg120
g3903
sg121
S'RWLSTKDLYSRLELPGLNQNVHAMFVMPLGFGNPMGDMFPRLNNGFWIVPLSLEGAGTGWTVYPPLSHSGPSVDLAFHMTSSLLGAINFTNMRGPLFWTALLLLSLPVFAGTLLDRNFNTFEGGDPLYHLFWFFGHPEVYIIPGFGSHSTYKKFGMYASIGLGFVWSHHMYVGLDDRAYFTSATMIAPTGIKFSWLATYGGRPMLAFLFLFTGGTGVLNASDAFHDTYYVVMAFSTGYYPYNLFWFMFGMPDAGWSSSYQFGPDESNE'
p3932
sg123
F0.063509999999999997
sg124
g125
sg33
S'35'
p3933
sg127
g1
(g128
g12
(dp3934
g130
I4
sg131
g132
sg133
g134
sg135
g132
sg136
I01
sg34
g137
sg138
g134
sg139
I0
sg140
I0
sg141
I0
sg142
g134
sg35
g143
sg144
I0
stRp3935
sg146
g147
sg148
F1
sg149
Nsg30
S'NdelpA'
p3936
sbag1
(g2
g3
NtRp3937
(dp3938
g6
g1
(g7
g3
NtRp3939
(dp3940
g10
g1
(g11
g12
(dtRp3941
sg14
g1
(g11
g12
(dtRp3942
sg16
g1
(g11
g12
(dtRp3943
sg18
g1
(g11
g12
(dtRp3944
sg20
g1
(g11
g12
(dtRp3945
sg22
g1
(g11
g12
(dtRp3946
sbsg24
S'Cgl'
p3947
sg26
g27
((lp3948
g29
ag30
aS'sequence'
p3949
ag32
ag33
aS'species'
p3950
atRp3951
sg37
(lp3952
sg120
g3903
sg121
S'RWLSTKDLYSRLELPGLNQNVHAMFVMPLGFGNPMGDMFPRLNNGFWIVPLSLEGAGTGWTVYPPLSHSGPSVDLAFHLTSSLLGSINFTNMRGPLFWTALLLLSLPVLAGTLLDRNFNTFEGGDPLYHLFWFFGHPEVYIIPGFGSHSTYKKFGMYASIGLGFVWSHHMYVGLDDRAYFTSATMIAPTGIKFSWLATYGGRPMLAFLFLFTGGTGVLNASDAFHDTYYVVMAFSTGYYPYNLFWFMFGMPDAGWSSSYQFGPDESNE'
p3953
sg123
F0.03882
sg124
g125
sg33
S'32'
p3954
sg127
g1
(g128
g12
(dp3955
g130
I4
sg131
g132
sg133
g134
sg135
g132
sg136
I01
sg34
g137
sg138
g134
sg139
I0
sg140
I0
sg141
I0
sg142
g134
sg35
g143
sg144
I0
stRp3956
sg146
g147
sg148
F1
sg149
Nsg30
S'CglabA'
p3957
sbasg120
g3890
sg123
F0.16661999999999999
sg124
g125
sg33
S'1'
sg127
g1
(g128
g12
(dp3958
g130
I6
sg131
g132
sg133
g134
sg135
g132
sg136
I01
sg34
g174
sg138
g134
sg139
I0
sg140
I0
sg141
I0
sg142
g134
sg35
g175
sg144
I0
stRp3959
sg146
g147
sg148
F0.98999999999999999
sg149
Nsg30
S'NoName'
p3960
sbag1
(g2
g3
NtRp3961
(dp3962
g6
g1
(g7
g3
NtRp3963
(dp3964
g10
g1
(g11
g12
(dtRp3965
sg14
g1
(g11
g12
(dtRp3966
sg16
g1
(g11
g12
(dtRp3967
sg18
g1
(g11
g12
(dtRp3968
sg20
g1
(g11
g12
(dtRp3969
sg22
g1
(g11
g12
(dtRp3970
sbsg24
g25
sg26
g27
((lp3971
g33
ag32
ag29
ag30
atRp3972
sg37
(lp3973
g1
(g2
g3
NtRp3974
(dp3975
g6
g1
(g7
g3
NtRp3976
(dp3977
g10
g1
(g11
g12
(dtRp3978
sg14
g1
(g11
g12
(dtRp3979
sg16
g1
(g11
g12
(dtRp3980
sg18
g1
(g11
g12
(dtRp3981
sg20
g1
(g11
g12
(dtRp3982
sg22
g1
(g11
g12
(dtRp3983
sbsg24
S'Nba'
p3984
sg26
g27
((lp3985
g29
ag30
aS'sequence'
p3986
ag32
ag33
aS'species'
p3987
atRp3988
sg37
(lp3989
sg120
g3961
sg121
S'RWLSTKDLYSRMELPGLNQNVHAMFVMPLGFGNPMGDMFPRLNNGFWMPALSLEGAGTGWTVYPPLSHSGPSVDLAFHLSSSLLGAINFTNMRGPLFWTALLLFSLPVFAGTLLDRNFNTFEGGDPLYHLFWFFGHPEVYIIPGFGSHSTYKKFGMYASIGLGFVWSHHMYVGLDDRAYFTSATMIAPTGIKFSWLALYGGRPMLAFLFLFTGGTGVLNASDAFHDTYYVVMAFSVAYYPYNLFWFMFGMPDAGWSSSYQLGPDESNE'
p3990
sg123
F0.29926999999999998
sg124
g125
sg33
S'132'
p3991
sg127
g1
(g128
g12
(dp3992
g130
I4
sg131
g132
sg133
g134
sg135
g132
sg136
I01
sg34
g137
sg138
g134
sg139
I0
sg140
I0
sg141
I0
sg142
g134
sg35
g143
sg144
I0
stRp3993
sg146
g147
sg148
F1
sg149
Nsg30
S'NbaciA'
p3994
sbag1
(g2
g3
NtRp3995
(dp3996
g6
g1
(g7
g3
NtRp3997
(dp3998
g10
g1
(g11
g12
(dtRp3999
sg14
g1
(g11
g12
(dtRp4000
sg16
g1
(g11
g12
(dtRp4001
sg18
g1
(g11
g12
(dtRp4002
sg20
g1
(g11
g12
(dtRp4003
sg22
g1
(g11
g12
(dtRp4004
sbsg24
S'Cca'
p4005
sg26
g27
((lp4006
g29
ag30
aS'sequence'
p4007
ag32
ag33
aS'species'
p4008
atRp4009
sg37
(lp4010
sg120
g3961
sg121
S'RWLSTKDLYSRLELPGLNQNVHAMFVMPLGIGNPMGDTFPRLNNGFWLPPLSLEGAGTGWTVYPPLSHSGPSVDLAFHLTSSLLGAINFTNMRGPLFWTALLLFSLPVFAGTLLDRNFNTFEGGDPLYHVFWFFGHPEVYIIPGFGSHSTYKKFGMYASIGLGFVWSHHMYVGLDDRAYFTSALMIAPTGIKFSWLATFGGRPMLAFLFLFTGGTGVLNASDAFHDTYYVVMAFSLGYYPYNLFWFMFGMPDAGWSSSYQLGPDESNE'
p4011
sg123
F0.26266
sg124
g125
sg33
S'165'
p4012
sg127
g1
(g128
g12
(dp4013
g130
I4
sg131
g132
sg133
g134
sg135
g132
sg136
I01
sg34
g137
sg138
g134
sg139
I0
sg140
I0
sg141
I0
sg142
g134
sg35
g143
sg144
I0
stRp4014
sg146
g147
sg148
F1
sg149
Nsg30
S'CcastA'
p4015
sbasg120
g3890
sg123
F0.15296999999999999
sg124
g125
sg33
S'194'
p4016
sg127
g1
(g128
g12
(dp4017
g130
I6
sg131
g132
sg133
g134
sg135
g132
sg136
I01
sg34
g174
sg138
g134
sg139
I0
sg140
I0
sg141
I0
sg142
g134
sg35
g175
sg144
I0
stRp4018
sg146
g147
sg148
F0.98999999999999999
sg149
Nsg30
S'NoName'
p4019
sbasg120
g3591
sg123
F0.042560000000000001
sg124
g125
sg33
S'76'
p4020
sg127
g1
(g128
g12
(dp4021
g130
I6
sg131
g132
sg133
g134
sg135
g132
sg136
I01
sg34
g174
sg138
g134
sg139
I0
sg140
I0
sg141
I0
sg142
g134
sg35
g175
sg144
I0
stRp4022
sg146
g147
sg148
F0.84999999999999998
sg149
Nsg30
S'NoName'
p4023
sbasg120
g3557
sg123
F0.094020000000000006
sg124
g125
sg33
S'65'
p4024
sg127
g1
(g128
g12
(dp4025
g130
I6
sg131
g132
sg133
g134
sg135
g132
sg136
I01
sg34
g174
sg138
g134
sg139
I0
sg140
I0
sg141
I0
sg142
g134
sg35
g175
sg144
I0
stRp4026
sg146
g147
sg148
F0.55000000000000004
sg149
Nsg30
S'NoName'
p4027
sbasg120
g3031
sg123
F0.11952
sg124
g125
sg33
S'49'
p4028
sg127
g1
(g128
g12
(dp4029
g130
I6
sg131
g132
sg133
g134
sg135
g132
sg136
I01
sg34
g174
sg138
g134
sg139
I0
sg140
I0
sg141
I0
sg142
g134
sg35
g175
sg144
I0
stRp4030
sg146
g147
sg148
F0.69999999999999996
sg149
Nsg30
S'NoName'
p4031
sbasg120
g3018
sg123
F0.029839999999999998
sg124
g125
sg33
S'102'
p4032
sg127
g1
(g128
g12
(dp4033
g130
I6
sg131
g132
sg133
g134
sg135
g132
sg136
I01
sg34
g174
sg138
g134
sg139
I0
sg140
I0
sg141
I0
sg142
g134
sg35
g175
sg144
I0
stRp4034
sg146
g147
sg148
F0.82999999999999996
sg149
Nsg30
S'NoName'
p4035
sbag1
(g2
g3
NtRp4036
(dp4037
g6
g1
(g7
g3
NtRp4038
(dp4039
g10
g1
(g11
g12
(dtRp4040
sg14
g1
(g11
g12
(dtRp4041
sg16
g1
(g11
g12
(dtRp4042
sg18
g1
(g11
g12
(dtRp4043
sg20
g1
(g11
g12
(dtRp4044
sg22
g1
(g11
g12
(dtRp4045
sbsg24
g25
sg26
g27
((lp4046
g33
ag32
ag29
ag30
atRp4047
sg37
(lp4048
g1
(g2
g3
NtRp4049
(dp4050
g6
g1
(g7
g3
NtRp4051
(dp4052
g10
g1
(g11
g12
(dtRp4053
sg14
g1
(g11
g12
(dtRp4054
sg16
g1
(g11
g12
(dtRp4055
sg18
g1
(g11
g12
(dtRp4056
sg20
g1
(g11
g12
(dtRp4057
sg22
g1
(g11
g12
(dtRp4058
sbsg24
S'Aac'
p4059
sg26
g27
((lp4060
g29
ag30
aS'sequence'
p4061
ag32
ag33
aS'species'
p4062
atRp4063
sg37
(lp4064
sg120
g4036
sg121
S'RWLSTKDLYSRMELPGLQQNVHLMFVMPLGFGNPMGDMFARLNNSFWLPPLSMEGLGTGWTVYPPLAHSGASVDLAFHLTSSLLGLINFTNMRGPLFWTAMLLMSLPVLAGTLLDRNFNTFEGGDPLYHLFWFFGHPEVYIIPLFGSHSTYKKFGMYASIGLGFVWSHHMYVGLDDRAYFTSLTMILPTSIKFSWLLTYGGRPMLAFLFLFTGGTGVLNLSDLFHDTYYVVLAFSMGYYPYNLFWFMFGMPDLGWSSSYQLGPDESNE'
p4065
sg123
F0.028920000000000001
sg124
g125
sg33
S'129'
p4066
sg127
g1
(g128
g12
(dp4067
g130
I4
sg131
g132
sg133
g134
sg135
g132
sg136
I01
sg34
g137
sg138
g134
sg139
I0
sg140
I0
sg141
I0
sg142
g134
sg35
g143
sg144
I0
stRp4068
sg146
g147
sg148
F1
sg149
Nsg30
S'AacerA'
p4069
sbag1
(g2
g3
NtRp4070
(dp4071
g6
g1
(g7
g3
NtRp4072
(dp4073
g10
g1
(g11
g12
(dtRp4074
sg14
g1
(g11
g12
(dtRp4075
sg16
g1
(g11
g12
(dtRp4076
sg18
g1
(g11
g12
(dtRp4077
sg20
g1
(g11
g12
(dtRp4078
sg22
g1
(g11
g12
(dtRp4079
sbsg24
g25
sg26
g27
((lp4080
g33
ag32
ag29
ag30
atRp4081
sg37
(lp4082
g1
(g2
g3
NtRp4083
(dp4084
g6
g1
(g7
g3
NtRp4085
(dp4086
g10
g1
(g11
g12
(dtRp4087
sg14
g1
(g11
g12
(dtRp4088
sg16
g1
(g11
g12
(dtRp4089
sg18
g1
(g11
g12
(dtRp4090
sg20
g1
(g11
g12
(dtRp4091
sg22
g1
(g11
g12
(dtRp4092
sbsg24
S'Ago'
p4093
sg26
g27
((lp4094
g29
ag30
aS'sequence'
p4095
ag32
ag33
aS'species'
p4096
atRp4097
sg37
(lp4098
sg120
g4070
sg121
S'RWLSTKDLYSRMELPGLQQNVHLMFVMPLGFGNPMGDMFARLNNSFWLPPLSMEGLGTGWTVYPPLSHSGASVDLAFHLTSSLLGLINFTNMRGPLFWTAMLLMSLPVLAGTLLDRNFNTFEGGDPLYHLFWFFGHPEVYIIPLFGSHSTYKKFGMYLSISLGFVWSHHMYVGLDDRAYFTSATMILPTSIKFSWLLTYGGRPMLLFLFLFTGGTGVLNLSDAFHDTYYVVLAFSMGYYPYNLFWFMFGMPDLGWSSSYQLGPDESNE'
p4099
sg123
F0.00088000000000000003
sg124
g125
sg33
S'213'
p4100
sg127
g1
(g128
g12
(dp4101
g130
I4
sg131
g132
sg133
g134
sg135
g132
sg136
I01
sg34
g137
sg138
g134
sg139
I0
sg140
I0
sg141
I0
sg142
g134
sg35
g143
sg144
I0
stRp4102
sg146
g147
sg148
F1
sg149
Nsg30
S'AgossB'
p4103
sbag1
(g2
g3
NtRp4104
(dp4105
g6
g1
(g7
g3
NtRp4106
(dp4107
g10
g1
(g11
g12
(dtRp4108
sg14
g1
(g11
g12
(dtRp4109
sg16
g1
(g11
g12
(dtRp4110
sg18
g1
(g11
g12
(dtRp4111
sg20
g1
(g11
g12
(dtRp4112
sg22
g1
(g11
g12
(dtRp4113
sbsg24
S'Ago'
p4114
sg26
g27
((lp4115
g29
ag30
aS'sequence'
p4116
ag32
ag33
aS'species'
p4117
atRp4118
sg37
(lp4119
sg120
g4070
sg121
S'RWLSTKDLYSRMELPGLQQNVHLMFVMPLGFGNPMGDMFARLNNSFWLPPLSMEGLGTGWTVYPPLSHSGASVDLAFHLTSSLLGLINFTNMRGPLFWTAMLLMSLPVLAGTLLDRNFNTFEGGDPLYHLFWFFGHPEVYIIPLFGSHSTYKKFGMYLSISLGFVWSHHMYVGLDDRAYFTSATMILPTSIKFSWLLTYGGRPMLLFLFLFTGGTGVLNLSDAFHDTYYVVLAFSMGYYPYNLFWFMFGMPDLGWSSSYQLGPDESNE'
p4120
sg123
F0.0023999999999999998
sg124
g125
sg33
S'150'
p4121
sg127
g1
(g128
g12
(dp4122
g130
I4
sg131
g132
sg133
g134
sg135
g132
sg136
I01
sg34
g137
sg138
g134
sg139
I0
sg140
I0
sg141
I0
sg142
g134
sg35
g143
sg144
I0
stRp4123
sg146
g147
sg148
F1
sg149
Nsg30
S'AgossA'
p4124
sbasg120
g4036
sg123
F0.075329999999999994
sg124
g125
sg33
S'12'
p4125
sg127
g1
(g128
g12
(dp4126
g130
I6
sg131
g132
sg133
g134
sg135
g132
sg136
I01
sg34
g174
sg138
g134
sg139
I0
sg140
I0
sg141
I0
sg142
g134
sg35
g175
sg144
I0
stRp4127
sg146
g147
sg148
F0.98999999999999999
sg149
Nsg30
S'NoName'
p4128
sbasg120
g3018
sg123
F0.56830999999999998
sg124
g125
sg33
S'88'
p4129
sg127
g1
(g128
g12
(dp4130
g130
I6
sg131
g132
sg133
g134
sg135
g132
sg136
I01
sg34
g174
sg138
g134
sg139
I0
sg140
I0
sg141
I0
sg142
g134
sg35
g175
sg144
I0
stRp4131
sg146
g147
sg148
F0.98999999999999999
sg149
Nsg30
S'NoName'
p4132
sbasg120
g2681
sg123
F0.14305999999999999
sg124
g125
sg33
S'188'
p4133
sg127
g1
(g128
g12
(dp4134
g130
I6
sg131
g132
sg133
g134
sg135
g132
sg136
I01
sg34
g174
sg138
g134
sg139
I0
sg140
I0
sg141
I0
sg142
g134
sg35
g175
sg144
I0
stRp4135
sg146
g147
sg148
F0.96999999999999997
sg149
Nsg30
S'NoName'
p4136
sbasg120
g2495
sg123
F0.26834000000000002
sg124
g125
sg33
S'26'
p4137
sg127
g1
(g128
g12
(dp4138
g130
I6
sg131
g132
sg133
g134
sg135
g132
sg136
I01
sg34
g174
sg138
g134
sg139
I0
sg140
I0
sg141
I0
sg142
g134
sg35
g175
sg144
I0
stRp4139
sg146
g147
sg148
F0.97999999999999998
sg149
Nsg30
S'NoName'
p4140
sbasg120
g679
sg123
F0.062890000000000001
sg124
g125
sg33
S'157'
p4141
sg127
g1
(g128
g12
(dp4142
g130
I6
sg131
g132
sg133
g134
sg135
g132
sg136
I01
sg34
g174
sg138
g134
sg139
I0
sg140
I0
sg141
I0
sg142
g134
sg35
g175
sg144
I0
stRp4143
sg146
g147
sg148
F0.67000000000000004
sg149
Nsg30
S'NoName'
p4144
sbasg120
g265
sg123
F0.52025999999999994
sg124
g125
sg33
S'182'
p4145
sg127
g1
(g128
g12
(dp4146
g130
I6
sg131
g132
sg133
g134
sg135
g132
sg136
I01
sg34
g174
sg138
g134
sg139
I0
sg140
I0
sg141
I0
sg142
g134
sg35
g175
sg144
I0
stRp4147
sg146
g147
sg148
F0.97999999999999998
sg149
Nsg30
S'NoName'
p4148
sbasg120
g52
sg123
F0.11274000000000001
sg124
g125
sg33
S'11'
p4149
sg127
g1
(g128
g12
(dp4150
g130
I6
sg131
g132
sg133
g134
sg135
g132
sg136
I01
sg34
g174
sg138
g134
sg139
I0
sg140
I0
sg141
I0
sg142
g134
sg35
g175
sg144
I0
stRp4151
sg146
g147
sg148
F0.88
sg149
Nsg30
S'NoName'
p4152
sbasg120
g39
sg123
F0.33485999999999999
sg124
g125
sg33
S'84'
p4153
sg127
g1
(g128
g12
(dp4154
g130
I6
sg131
g132
sg133
g134
sg135
g132
sg136
I01
sg34
g174
sg138
g134
sg139
I0
sg140
I0
sg141
I0
sg142
g134
sg35
g175
sg144
I0
stRp4155
sg146
g147
sg148
F0.95999999999999996
sg149
Nsg30
S'NoName'
p4156
sbag1
(g2
g3
NtRp4157
(dp4158
g6
g1
(g7
g3
NtRp4159
(dp4160
g10
g1
(g11
g12
(dtRp4161
sg14
g1
(g11
g12
(dtRp4162
sg16
g1
(g11
g12
(dtRp4163
sg18
g1
(g11
g12
(dtRp4164
sg20
g1
(g11
g12
(dtRp4165
sg22
g1
(g11
g12
(dtRp4166
sbsg24
S'Lst'
p4167
sg26
g27
((lp4168
g29
ag30
aS'sequence'
p4169
ag32
ag33
aS'species'
p4170
atRp4171
sg37
(lp4172
sg120
g39
sg121
S'RWLSTKDLYSRMELPGLNHNVHAMFVMPLGFGNPLGDMFPRLNNSFWLPPLSFEGAGTGWTVYPPLSHSGASVDLAFHLSSSMLGAMNFTNMRGPLFWTALLLLSLPVLGATLLDRNFNTFEGGDPLYHLFWFFGHPEVYIIPGFGSHCTYEKFGMYASMGLGFVWSHHMFVGLDERAYFTAATMIAPTGMKFSWLATYGGTPMVAFLFLFTGGTGVLNASDAFHDTYYVVMAFALGYYPYKYFWFMFGMPDAGWSSAIQLGPQATKE'
p4173
sg123
F1.13117
sg124
g125
sg33
S'153'
p4174
sg127
g1
(g128
g12
(dp4175
g130
I4
sg131
g132
sg133
g134
sg135
g132
sg136
I01
sg34
g137
sg138
g134
sg139
I0
sg140
I0
sg141
I0
sg142
g134
sg35
g143
sg144
I0
stRp4176
sg146
g147
sg148
F1
sg149
Nsg30
S'LstarA'
p4177
sbasg120
g4
sg123
F0.46844999999999998
sg124
g125
sg33
S'87'
p4178
sg127
g1
(g128
g12
(dp4179
g130
I6
sg131
g132
sg133
g134
sg135
g132
sg136
I01
sg34
g174
sg138
g134
sg139
I0
sg140
I0
sg141
I0
sg142
g134
sg35
g175
sg144
I0
stRp4180
sg146
g147
sg148
F1
sg149
Nsg30
S'NoName'
p4181
sbag1
(g2
g3
NtRp4182
(dp4183
g6
g1
(g7
g3
NtRp4184
(dp4185
g10
g1
(g11
g12
(dtRp4186
sg14
g1
(g11
g12
(dtRp4187
sg16
g1
(g11
g12
(dtRp4188
sg18
g1
(g11
g12
(dtRp4189
sg20
g1
(g11
g12
(dtRp4190
sg22
g1
(g11
g12
(dtRp4191
sbsg24
g25
sg26
g27
((lp4192
g33
ag32
ag29
ag30
atRp4193
sg37
(lp4194
g1
(g2
g3
NtRp4195
(dp4196
g6
g1
(g7
g3
NtRp4197
(dp4198
g10
g1
(g11
g12
(dtRp4199
sg14
g1
(g11
g12
(dtRp4200
sg16
g1
(g11
g12
(dtRp4201
sg18
g1
(g11
g12
(dtRp4202
sg20
g1
(g11
g12
(dtRp4203
sg22
g1
(g11
g12
(dtRp4204
sbsg24
S'Sja'
p4205
sg26
g27
((lp4206
g29
ag30
aS'sequence'
p4207
ag32
ag33
aS'species'
p4208
atRp4209
sg37
(lp4210
sg120
g4182
sg121
S'RWLSTKDLYSRLELPGLNQNVHGMFILPLGFGNPLGDVYPRMNNSFWLPPLSLEGPGVGWTMYYPLSHSGLSVDLLMQLTSSTLGSINLTNMRGPLFWTSLLVLTLPVLGGILLDRNWNTFAGGDPLYHLFWFFGHPEVYIIPAFGSHSTFHKFGMYASIALGCVWSHHLYVGLDDRAYFTAATMIAPTGIKFSWLATSGGEPMLVFLILFTGGTGVLNSVDAFHDTYFVVMAMGLAYFPYNMFWFQFNYPDAGWSSSYQFNPNDSNE'
p4211
sg123
F1.0686599999999999
sg124
g125
sg33
S'64'
p4212
sg127
g1
(g128
g12
(dp4213
g130
I4
sg131
g132
sg133
g134
sg135
g132
sg136
I01
sg34
g137
sg138
g134
sg139
I0
sg140
I0
sg141
I0
sg142
g134
sg35
g143
sg144
I0
stRp4214
sg146
g147
sg148
F1
sg149
Nsg30
S'SjapoA'
p4215
sbag1
(g2
g3
NtRp4216
(dp4217
g6
g1
(g7
g3
NtRp4218
(dp4219
g10
g1
(g11
g12
(dtRp4220
sg14
g1
(g11
g12
(dtRp4221
sg16
g1
(g11
g12
(dtRp4222
sg18
g1
(g11
g12
(dtRp4223
sg20
g1
(g11
g12
(dtRp4224
sg22
g1
(g11
g12
(dtRp4225
sbsg24
g25
sg26
g27
((lp4226
g33
ag32
ag29
ag30
atRp4227
sg37
(lp4228
g1
(g2
g3
NtRp4229
(dp4230
g6
g1
(g7
g3
NtRp4231
(dp4232
g10
g1
(g11
g12
(dtRp4233
sg14
g1
(g11
g12
(dtRp4234
sg16
g1
(g11
g12
(dtRp4235
sg18
g1
(g11
g12
(dtRp4236
sg20
g1
(g11
g12
(dtRp4237
sg22
g1
(g11
g12
(dtRp4238
sbsg24
S'Spo'
p4239
sg26
g27
((lp4240
g29
ag30
aS'sequence'
p4241
ag32
ag33
aS'species'
p4242
atRp4243
sg37
(lp4244
sg120
g4216
sg121
S'RWMSTKDLYSRMELPGLNQNVHGMFIIPLGFGNPMGDVYPRVNNTFWLPPLSLEGPGGGWTVYPPLSHSGPAIDLALQLTSSTLGSVNLTNMRGPLFWTSLLLLTLPVLGGFLFDRNLNTFAGGDPLYHLFWFFGHPEVYIIPAFGSHPSLHKFGMWASIALGLVWSHHLFVGLDDRAYFSAATMIAPTGIKFSWLATTGGQPMLAFLILFTGGTGVLNSVDAFHDTYFVVMAFGLAY-PYNLFWFQFGMPEAGWSSSYQFNPSDDNE'
p4245
sg123
F0.12372
sg124
g125
sg33
S'139'
p4246
sg127
g1
(g128
g12
(dp4247
g130
I4
sg131
g132
sg133
g134
sg135
g132
sg136
I01
sg34
g137
sg138
g134
sg139
I0
sg140
I0
sg141
I0
sg142
g134
sg35
g143
sg144
I0
stRp4248
sg146
g147
sg148
F1
sg149
Nsg30
S'SpombA'
p4249
sbag1
(g2
g3
NtRp4250
(dp4251
g6
g1
(g7
g3
NtRp4252
(dp4253
g10
g1
(g11
g12
(dtRp4254
sg14
g1
(g11
g12
(dtRp4255
sg16
g1
(g11
g12
(dtRp4256
sg18
g1
(g11
g12
(dtRp4257
sg20
g1
(g11
g12
(dtRp4258
sg22
g1
(g11
g12
(dtRp4259
sbsg24
g25
sg26
g27
((lp4260
g33
ag32
ag29
ag30
atRp4261
sg37
(lp4262
g1
(g2
g3
NtRp4263
(dp4264
g6
g1
(g7
g3
NtRp4265
(dp4266
g10
g1
(g11
g12
(dtRp4267
sg14
g1
(g11
g12
(dtRp4268
sg16
g1
(g11
g12
(dtRp4269
sg18
g1
(g11
g12
(dtRp4270
sg20
g1
(g11
g12
(dtRp4271
sg22
g1
(g11
g12
(dtRp4272
sbsg24
S'Soc'
p4273
sg26
g27
((lp4274
g29
ag30
aS'sequence'
p4275
ag32
ag33
aS'species'
p4276
atRp4277
sg37
(lp4278
sg120
g4250
sg121
S'RWLSTKDLYSRMELPGLNQNVHGMFIIPLGFGNPMGDVYPRVNNTFWLPPLSLEGPGTGWTVYPPLSHSGPAVDLALQLTSSTLGSLNLTNMRGPLFWTSLLLLTLPVLGGFLFDRNLNTFAGGDPLYHLFWFFGHPEVYIIPAFGSHSTLNKFGMCASIALGLVWSHHLFVGLDDRAYFSAATMIAPTGIKFSWLATTGGQPMLAFLILFTGGTGVLNSVDAFHDTYFVVMAFGLAYFPYNLFWFQFGMPDAGWSSSYQYNPSDDNE'
p4279
sg123
F0.03637
sg124
g125
sg33
S'162'
p4280
sg127
g1
(g128
g12
(dp4281
g130
I4
sg131
g132
sg133
g134
sg135
g132
sg136
I01
sg34
g137
sg138
g134
sg139
I0
sg140
I0
sg141
I0
sg142
g134
sg35
g143
sg144
I0
stRp4282
sg146
g147
sg148
F1
sg149
Nsg30
S'SoctoA'
p4283
sbag1
(g2
g3
NtRp4284
(dp4285
g6
g1
(g7
g3
NtRp4286
(dp4287
g10
g1
(g11
g12
(dtRp4288
sg14
g1
(g11
g12
(dtRp4289
sg16
g1
(g11
g12
(dtRp4290
sg18
g1
(g11
g12
(dtRp4291
sg20
g1
(g11
g12
(dtRp4292
sg22
g1
(g11
g12
(dtRp4293
sbsg24
S'Scr'
p4294
sg26
g27
((lp4295
g29
ag30
aS'sequence'
p4296
ag32
ag33
aS'species'
p4297
atRp4298
sg37
(lp4299
sg120
g4250
sg121
S'RWLSTKDLYSRMELPGLNQNVHGMFIIPLGFGNPMGDVYPRVNNTYWLPPLSLEGPGTGWTVYPPLSHSGPSVDLALQLTSSTLGSLNLTNMRGPLFWTSLLLLTLPVLGGFLFDRNLNTFAGGDPLYHLFWFFGHPEVYIIPAFGSHPTLNKFGMCASIALGLVWSHHLFVGLDDRAYFSAATMIAPTGIKFSWLATTGGQPMLAFLILFTGGTGVLNSVDAFHDTYFVVMAFGLAYFPYNLFWFQFGMPDAGWSSSYQYNPSDDNE'
p4300
sg123
F0.036740000000000002
sg124
g125
sg33
S'198'
p4301
sg127
g1
(g128
g12
(dp4302
g130
I4
sg131
g132
sg133
g134
sg135
g132
sg136
I01
sg34
g137
sg138
g134
sg139
I0
sg140
I0
sg141
I0
sg142
g134
sg35
g143
sg144
I0
stRp4303
sg146
g147
sg148
F1
sg149
Nsg30
S'ScryoA'
p4304
sbasg120
g4216
sg123
F0.18453
sg124
g125
sg33
S'81'
p4305
sg127
g1
(g128
g12
(dp4306
g130
I6
sg131
g132
sg133
g134
sg135
g132
sg136
I01
sg34
g174
sg138
g134
sg139
I0
sg140
I0
sg141
I0
sg142
g134
sg35
g175
sg144
I0
stRp4307
sg146
g147
sg148
F0.98999999999999999
sg149
Nsg30
S'NoName'
p4308
sbasg120
g4182
sg123
F0.73307
sg124
g125
sg33
S'16'
p4309
sg127
g1
(g128
g12
(dp4310
g130
I6
sg131
g132
sg133
g134
sg135
g132
sg136
I01
sg34
g174
sg138
g134
sg139
I0
sg140
I0
sg141
I0
sg142
g134
sg35
g175
sg144
I0
stRp4311
sg146
g147
sg148
F0.98999999999999999
sg149
Nsg30
S'NoName'
p4312
sbasg120
g4
sg123
F1.7741899999999999
sg124
g125
sg33
S'217'
p4313
sg127
g1
(g128
g12
(dp4314
g130
I6
sg131
g132
sg133
g134
sg135
g132
sg136
I01
sg34
g174
sg138
g134
sg139
I0
sg140
I0
sg141
I0
sg142
g134
sg35
g175
sg144
I0
stRp4315
sg146
g147
sg148
F1
sg149
Nsg30
S'NoName'
p4316
sbasg31
S'8'
sg120
Nsg123
F0
sg124
g125
sg33
S'105'
p4317
sg34
S'sphere'
p4318
sg127
g1
(g128
g12
(dp4319
g130
I6
sg131
g132
sg133
g134
sg135
g132
sg136
I01
sg34
g174
sg138
g134
sg139
I0
sg140
I0
sg141
I0
sg142
g134
sg35
g175
sg144
I0
stRp4320
sg146
g147
sg148
F1
sg149
Nsg35
S'#833DB4'
p4321
sg30
g125
sb.