ccopy_reg
_reconstructor
p1
(cete2.phylo.phylotree
PhyloNode
p2
c__builtin__
object
p3
NtRp4
(dp5
S'_faces'
p6
g1
(cete2.treeview.main
_FaceAreas
p7
g3
NtRp8
(dp9
S'branch-top'
p10
g1
(cete2.treeview.main
FaceContainer
p11
c__builtin__
dict
p12
(dtRp13
sS'float'
p14
g1
(g11
g12
(dtRp15
sS'branch-bottom'
p16
g1
(g11
g12
(dtRp17
sS'aligned'
p18
g1
(g11
g12
(dtRp19
sS'branch-right'
p20
g1
(g11
g12
(dtRp21
sS'float-behind'
p22
g1
(g11
g12
(dtRp23
sbsS'_species'
p24
S'Unknown'
p25
sS'features'
p26
c__builtin__
set
p27
((lp28
S'dist'
p29
aS'name'
p30
aS'bsize'
p31
aS'support'
p32
aS'_nid'
p33
aS'shape'
p34
aS'fgcolor'
p35
atRp36
sS'_children'
p37
(lp38
g1
(g2
g3
NtRp39
(dp40
g6
g1
(g7
g3
NtRp41
(dp42
g10
g1
(g11
g12
(dtRp43
sg14
g1
(g11
g12
(dtRp44
sg16
g1
(g11
g12
(dtRp45
sg18
g1
(g11
g12
(dtRp46
sg20
g1
(g11
g12
(dtRp47
sg22
g1
(g11
g12
(dtRp48
sbsg24
g25
sg26
g27
((lp49
g33
ag32
ag29
ag30
atRp50
sg37
(lp51
g1
(g2
g3
NtRp52
(dp53
g6
g1
(g7
g3
NtRp54
(dp55
g10
g1
(g11
g12
(dtRp56
sg14
g1
(g11
g12
(dtRp57
sg16
g1
(g11
g12
(dtRp58
sg18
g1
(g11
g12
(dtRp59
sg20
g1
(g11
g12
(dtRp60
sg22
g1
(g11
g12
(dtRp61
sbsg24
g25
sg26
g27
((lp62
g33
ag32
ag29
ag30
atRp63
sg37
(lp64
g1
(g2
g3
NtRp65
(dp66
g6
g1
(g7
g3
NtRp67
(dp68
g10
g1
(g11
g12
(dtRp69
sg14
g1
(g11
g12
(dtRp70
sg16
g1
(g11
g12
(dtRp71
sg18
g1
(g11
g12
(dtRp72
sg20
g1
(g11
g12
(dtRp73
sg22
g1
(g11
g12
(dtRp74
sbsg24
g25
sg26
g27
((lp75
g33
ag32
ag29
ag30
atRp76
sg37
(lp77
g1
(g2
g3
NtRp78
(dp79
g6
g1
(g7
g3
NtRp80
(dp81
g10
g1
(g11
g12
(dtRp82
sg14
g1
(g11
g12
(dtRp83
sg16
g1
(g11
g12
(dtRp84
sg18
g1
(g11
g12
(dtRp85
sg20
g1
(g11
g12
(dtRp86
sg22
g1
(g11
g12
(dtRp87
sbsg24
g25
sg26
g27
((lp88
g33
ag32
ag29
ag30
atRp89
sg37
(lp90
g1
(g2
g3
NtRp91
(dp92
g6
g1
(g7
g3
NtRp93
(dp94
g10
g1
(g11
g12
(dtRp95
sg14
g1
(g11
g12
(dtRp96
sg16
g1
(g11
g12
(dtRp97
sg18
g1
(g11
g12
(dtRp98
sg20
g1
(g11
g12
(dtRp99
sg22
g1
(g11
g12
(dtRp100
sbsg24
g25
sg26
g27
((lp101
g33
ag32
ag29
ag30
atRp102
sg37
(lp103
g1
(g2
g3
NtRp104
(dp105
g6
g1
(g7
g3
NtRp106
(dp107
g10
g1
(g11
g12
(dtRp108
sg14
g1
(g11
g12
(dtRp109
sg16
g1
(g11
g12
(dtRp110
sg18
g1
(g11
g12
(dtRp111
sg20
g1
(g11
g12
(dtRp112
sg22
g1
(g11
g12
(dtRp113
sbsg24
S'Yli'
p114
sg26
g27
((lp115
g29
ag30
aS'sequence'
p116
ag32
ag33
aS'species'
p117
atRp118
sg37
(lp119
sS'_up'
p120
g91
sS'sequence'
p121
S'RWLSTKDLYSRLELTGLNQNVHAMFVMPLGFGNPMGDMFARLNNSFWLVPLSLEGAGTGWTVYFPLAHSGPAVDLAFHLSSSLLGAINFTNMRGPLFWTALLLLSLPVLAGTGIDRNFNTFEGGDALYHLFWFFGHPEVYIIPGFGSHSAISKFGMYASIGLGFVWSHHMFVGLDDRAYFTSATMIAPTSIKFSWLATYGGRTALAFIFLFTGGTGVLNSADPFHDSYYVVHFHYVLSMGAFSIGWYLWPGLYNLFWFNFPMHFLGGMPRRNYPDAGWNSGSAYQLGPSGTNEPH'
p122
sS'_dist'
p123
F0.00011
sS'_name'
p124
S'NoName'
p125
sg33
S'201'
p126
sS'_img_style'
p127
g1
(cete2.treeview.main
NodeStyle
p128
g12
(dp129
S'size'
p130
I4
sS'hz_line_color'
p131
S'#000000'
p132
sS'faces_bgcolor'
p133
S'#FFFFFF'
p134
sS'vt_line_color'
p135
g132
sS'draw_descendants'
p136
I01
sg34
S'square'
p137
sS'bgcolor'
p138
g134
sS'hz_line_type'
p139
I0
sS'vt_line_width'
p140
I0
sS'vt_line_type'
p141
I0
sS'node_bgcolor'
p142
g134
sg35
S'#000000'
p143
sS'hz_line_width'
p144
I0
stRp145
sS'_speciesFunction'
p146
cete2.phylo.phylotree
_parse_species
p147
sS'_support'
p148
F1
sS'_temp_faces'
p149
Nsg30
S'YlipoB'
p150
sbag1
(g2
g3
NtRp151
(dp152
g6
g1
(g7
g3
NtRp153
(dp154
g10
g1
(g11
g12
(dtRp155
sg14
g1
(g11
g12
(dtRp156
sg16
g1
(g11
g12
(dtRp157
sg18
g1
(g11
g12
(dtRp158
sg20
g1
(g11
g12
(dtRp159
sg22
g1
(g11
g12
(dtRp160
sbsg24
S'Yli'
p161
sg26
g27
((lp162
g29
ag30
aS'sequence'
p163
ag32
ag33
aS'species'
p164
atRp165
sg37
(lp166
sg120
g91
sg121
S'RWLSTKDLYSRLELTGLNQNVHAMFVMPLGFGNPMGDMFARLNNSFWLVPLSLEGAGTGWTVYFPLAHSGPAVDLAFHLSSSLLGAINFTNMRGPLFWTALLLLSLPVLAGTGIDRNFNTFEGGDALYHLFWFFGHPEVYIIPGFGSHSAISKFGMYASIGLGFVWSHHMFVGLDDRAYFTSATMIAPTSIKFSWLATYGGRTALAFIFLFTGGTGVLNSADPFHDSYYVVHFHYVLSMGAFSIGWYLWPGLYNLFWFNFPMHFLGGMPRRNYPDAGWNSGSAYQLGPSGTNEPH'
p167
sg123
F0.00048000000000000001
sg124
g125
sg33
S'205'
p168
sg127
g1
(g128
g12
(dp169
g130
I4
sg131
g132
sg133
g134
sg135
g132
sg136
I01
sg34
g137
sg138
g134
sg139
I0
sg140
I0
sg141
I0
sg142
g134
sg35
g143
sg144
I0
stRp170
sg146
g147
sg148
F1
sg149
Nsg30
S'YlipoA'
p171
sbasg120
g78
sg123
F0.02656
sg124
g125
sg33
S'204'
p172
sg127
g1
(g128
g12
(dp173
g130
I6
sg131
g132
sg133
g134
sg135
g132
sg136
I01
sg34
S'circle'
p174
sg138
g134
sg139
I0
sg140
I0
sg141
I0
sg142
g134
sg35
S'#0030c1'
p175
sg144
I0
stRp176
sg146
g147
sg148
F1
sg149
Nsg30
S'NoName'
p177
sbag1
(g2
g3
NtRp178
(dp179
g6
g1
(g7
g3
NtRp180
(dp181
g10
g1
(g11
g12
(dtRp182
sg14
g1
(g11
g12
(dtRp183
sg16
g1
(g11
g12
(dtRp184
sg18
g1
(g11
g12
(dtRp185
sg20
g1
(g11
g12
(dtRp186
sg22
g1
(g11
g12
(dtRp187
sbsg24
g25
sg26
g27
((lp188
g33
ag32
ag29
ag30
atRp189
sg37
(lp190
g1
(g2
g3
NtRp191
(dp192
g6
g1
(g7
g3
NtRp193
(dp194
g10
g1
(g11
g12
(dtRp195
sg14
g1
(g11
g12
(dtRp196
sg16
g1
(g11
g12
(dtRp197
sg18
g1
(g11
g12
(dtRp198
sg20
g1
(g11
g12
(dtRp199
sg22
g1
(g11
g12
(dtRp200
sbsg24
S'Cga'
p201
sg26
g27
((lp202
g29
ag30
aS'sequence'
p203
ag32
ag33
aS'species'
p204
atRp205
sg37
(lp206
sg120
g178
sg121
S'RWLSTKDLYSRLELTGLNQNVHAMFVMPLGFGNPMGDMFARLNNSFWLVPLSLEGAGTGWTVYFPLAHSGPAVDLAFHLSSSLLGAINFTNMRGPLFWTALLLLSLPVLAGTGIDRNFNTFEGGDALYHLFWFFGHPEVYIIPGFGSHSAISKFGMYASIGLGFVWSHHMFVGLDDRAYFTSATMIAPTSIKFSWLSTYGGRTALAFIFLFTGGTGVLNSADPFHDSYYVVHFHYVLSMGAFSIGWYLWPGLYNLFWFNFPMHFLGGMPRRNYPDAGWNSGSAYQLGPSGTNEPH'
p207
sg123
F0.016299999999999999
sg124
g125
sg33
S'209'
p208
sg127
g1
(g128
g12
(dp209
g130
I4
sg131
g132
sg133
g134
sg135
g132
sg136
I01
sg34
g137
sg138
g134
sg139
I0
sg140
I0
sg141
I0
sg142
g134
sg35
g143
sg144
I0
stRp210
sg146
g147
sg148
F1
sg149
Nsg30
S'CgallA'
p211
sbag1
(g2
g3
NtRp212
(dp213
g6
g1
(g7
g3
NtRp214
(dp215
g10
g1
(g11
g12
(dtRp216
sg14
g1
(g11
g12
(dtRp217
sg16
g1
(g11
g12
(dtRp218
sg18
g1
(g11
g12
(dtRp219
sg20
g1
(g11
g12
(dtRp220
sg22
g1
(g11
g12
(dtRp221
sbsg24
S'Cde'
p222
sg26
g27
((lp223
g29
ag30
aS'sequence'
p224
ag32
ag33
aS'species'
p225
atRp226
sg37
(lp227
sg120
g178
sg121
S'RWLSTKDLYSRLELTGLNQNVHAMFVMPLGFGNPMGDMFARLNNSFWLVPLSLEGAGTGWTVYFPLAHSGPAVDLAFHLSSSLLGAINFTNMRGPLFWTALLLLSLPVLAGTGIDRNFNTFEGGDALYHLFFFNGHPEVYIIPGFGSHSAISKFGMYASIGLGFVWSHHMFVGLDDRAYFTSATMIAPTSIKFSWLATYGGRTALAFIFLFTGGTGVLNSADPFHDSYYVVHFHYVLSMGAFSIGWYLWPGLYNLFWFNFPMHFLGGMPRRNYPDAGWNSGSAYQLGPSGTNEPH'
p228
sg123
F0.018610000000000002
sg124
g125
sg33
S'211'
p229
sg127
g1
(g128
g12
(dp230
g130
I4
sg131
g132
sg133
g134
sg135
g132
sg136
I01
sg34
g137
sg138
g134
sg139
I0
sg140
I0
sg141
I0
sg142
g134
sg35
g143
sg144
I0
stRp231
sg146
g147
sg148
F1
sg149
Nsg30
S'CdefoA'
p232
sbasg120
g78
sg123
F0.00282
sg124
g125
sg33
S'200'
p233
sg127
g1
(g128
g12
(dp234
g130
I6
sg131
g132
sg133
g134
sg135
g132
sg136
I01
sg34
g174
sg138
g134
sg139
I0
sg140
I0
sg141
I0
sg142
g134
sg35
g175
sg144
I0
stRp235
sg146
g147
sg148
F0.96999999999999997
sg149
Nsg30
S'NoName'
p236
sbasg120
g65
sg123
F0.00479
sg124
g125
sg33
S'207'
p237
sg127
g1
(g128
g12
(dp238
g130
I6
sg131
g132
sg133
g134
sg135
g132
sg136
I01
sg34
g174
sg138
g134
sg139
I0
sg140
I0
sg141
I0
sg142
g134
sg35
g175
sg144
I0
stRp239
sg146
g147
sg148
F0.80000000000000004
sg149
Nsg30
S'NoName'
p240
sbag1
(g2
g3
NtRp241
(dp242
g6
g1
(g7
g3
NtRp243
(dp244
g10
g1
(g11
g12
(dtRp245
sg14
g1
(g11
g12
(dtRp246
sg16
g1
(g11
g12
(dtRp247
sg18
g1
(g11
g12
(dtRp248
sg20
g1
(g11
g12
(dtRp249
sg22
g1
(g11
g12
(dtRp250
sbsg24
S'Cal'
p251
sg26
g27
((lp252
g29
ag30
aS'sequence'
p253
ag32
ag33
aS'species'
p254
atRp255
sg37
(lp256
sg120
g65
sg121
S'RWLSTKDLYSRLELTGLNQNVHAMFVMPLGFGNPMGDMFARLNNSFWLVPMSLEGAGTGWTVYFPLAHSGPAVDLAFHLASSLLGAINFTNMRGPLFWTALLLLSLPVLAGTGIDRNFNTFEGGDALYHLFWFFGHPEVYIIPGFGSHSAISKFGMYASIGLGFVWSHHMFVGLDDRAYFTSATMIAPTSIKFSWLATYGGRTALAFIFLFTGGTGVLNSADPFHDSYYVVHFHYVLSMGAFSIGWYLWPGLYNLFWFNFPMHFLGGMPRRNYPDAGWNSGSAYQLGPSGTNEPH'
p257
sg123
F0.035970000000000002
sg124
g125
sg33
S'212'
p258
sg127
g1
(g128
g12
(dp259
g130
I4
sg131
g132
sg133
g134
sg135
g132
sg136
I01
sg34
g137
sg138
g134
sg139
I0
sg140
I0
sg141
I0
sg142
g134
sg35
g143
sg144
I0
stRp260
sg146
g147
sg148
F1
sg149
Nsg30
S'CalimA'
p261
sbasg120
g52
sg123
F1.1444799999999999
sg124
g125
sg33
S'197'
p262
sg127
g1
(g128
g12
(dp263
g130
I6
sg131
g132
sg133
g134
sg135
g132
sg136
I01
sg34
g174
sg138
g134
sg139
I0
sg140
I0
sg141
I0
sg142
g134
sg35
g175
sg144
I0
stRp264
sg146
g147
sg148
F0.97999999999999998
sg149
Nsg30
S'NoName'
p265
sbag1
(g2
g3
NtRp266
(dp267
g6
g1
(g7
g3
NtRp268
(dp269
g10
g1
(g11
g12
(dtRp270
sg14
g1
(g11
g12
(dtRp271
sg16
g1
(g11
g12
(dtRp272
sg18
g1
(g11
g12
(dtRp273
sg20
g1
(g11
g12
(dtRp274
sg22
g1
(g11
g12
(dtRp275
sbsg24
g25
sg26
g27
((lp276
g33
ag32
ag29
ag30
atRp277
sg37
(lp278
g1
(g2
g3
NtRp279
(dp280
g6
g1
(g7
g3
NtRp281
(dp282
g10
g1
(g11
g12
(dtRp283
sg14
g1
(g11
g12
(dtRp284
sg16
g1
(g11
g12
(dtRp285
sg18
g1
(g11
g12
(dtRp286
sg20
g1
(g11
g12
(dtRp287
sg22
g1
(g11
g12
(dtRp288
sbsg24
g25
sg26
g27
((lp289
g33
ag32
ag29
ag30
atRp290
sg37
(lp291
g1
(g2
g3
NtRp292
(dp293
g6
g1
(g7
g3
NtRp294
(dp295
g10
g1
(g11
g12
(dtRp296
sg14
g1
(g11
g12
(dtRp297
sg16
g1
(g11
g12
(dtRp298
sg18
g1
(g11
g12
(dtRp299
sg20
g1
(g11
g12
(dtRp300
sg22
g1
(g11
g12
(dtRp301
sbsg24
g25
sg26
g27
((lp302
g33
ag32
ag29
ag30
atRp303
sg37
(lp304
g1
(g2
g3
NtRp305
(dp306
g6
g1
(g7
g3
NtRp307
(dp308
g10
g1
(g11
g12
(dtRp309
sg14
g1
(g11
g12
(dtRp310
sg16
g1
(g11
g12
(dtRp311
sg18
g1
(g11
g12
(dtRp312
sg20
g1
(g11
g12
(dtRp313
sg22
g1
(g11
g12
(dtRp314
sbsg24
g25
sg26
g27
((lp315
g33
ag32
ag29
ag30
atRp316
sg37
(lp317
g1
(g2
g3
NtRp318
(dp319
g6
g1
(g7
g3
NtRp320
(dp321
g10
g1
(g11
g12
(dtRp322
sg14
g1
(g11
g12
(dtRp323
sg16
g1
(g11
g12
(dtRp324
sg18
g1
(g11
g12
(dtRp325
sg20
g1
(g11
g12
(dtRp326
sg22
g1
(g11
g12
(dtRp327
sbsg24
S'Mst'
p328
sg26
g27
((lp329
g29
ag30
aS'sequence'
p330
ag32
ag33
aS'species'
p331
atRp332
sg37
(lp333
sg120
g305
sg121
S'RWLSTKDLYSRLELPTLNQNVHAMFVMPSGFGNPMGDMLARLNNSFWLVPVSLEGAGTGWTVYPPLSHSGASVDLVFHMSSSLLGAINFTNMRGTLFWTALLLLSLPVLSGTLLDRNFNTFEGGDPLYHLFWFFGHPEVYIIPGFGSHSTYKKFGMYASMGLGFVWSHHMYVGLDDRAYFTSATMMAPTGVKFSWLATYGGRPFLAFMFLFTGGTGVLNASDAFHDTYYVVHFHYVLSLGAFSLGYYFWPGLYNLFMFNFPLHFLGGMPRRPYPDAGWNSGSSYQLGPDESNEPH'
p334
sg123
F0.087190000000000004
sg124
g125
sg33
S'181'
p335
sg127
g1
(g128
g12
(dp336
g130
I4
sg131
g132
sg133
g134
sg135
g132
sg136
I01
sg34
g137
sg138
g134
sg139
I0
sg140
I0
sg141
I0
sg142
g134
sg35
g143
sg144
I0
stRp337
sg146
g147
sg148
F1
sg149
Nsg30
S'MstarA'
p338
sbag1
(g2
g3
NtRp339
(dp340
g6
g1
(g7
g3
NtRp341
(dp342
g10
g1
(g11
g12
(dtRp343
sg14
g1
(g11
g12
(dtRp344
sg16
g1
(g11
g12
(dtRp345
sg18
g1
(g11
g12
(dtRp346
sg20
g1
(g11
g12
(dtRp347
sg22
g1
(g11
g12
(dtRp348
sbsg24
S'Min'
p349
sg26
g27
((lp350
g29
ag30
aS'sequence'
p351
ag32
ag33
aS'species'
p352
atRp353
sg37
(lp354
sg120
g305
sg121
S'RWLSTKDLYSRLELPTLNQNVHAMFVMPAGFGNPMGDMLARLNNSFWLVPVSLEGAGTGWTVYPPLSHSGPSVDLVFHISSSLLGSMNFTNMRGTLFWTSLLLLSLPVLSGTLLDRNFNTFEGGDPLYHLFYKMMLFSMYMMPGFGSHSAYKKFGMYASIGLGFVWSHHMYVGLDDRAYFTSATMIAPTGVKFSWLATYGGRPFLAFMFLFTGGTGVLNASDAFHDTYYVVHFHYVLSLGAFSLGYYFWPGLYNLFTFNFPLHFLGGMPRRPYPDAGWNSGSSYQLGPDESNEPH'
p355
sg123
F0.040719999999999999
sg124
g125
sg33
S'185'
p356
sg127
g1
(g128
g12
(dp357
g130
I4
sg131
g132
sg133
g134
sg135
g132
sg136
I01
sg34
g137
sg138
g134
sg139
I0
sg140
I0
sg141
I0
sg142
g134
sg35
g143
sg144
I0
stRp358
sg146
g147
sg148
F1
sg149
Nsg30
S'MingeA'
p359
sbasg120
g292
sg123
F0.037420000000000002
sg124
g125
sg33
S'183'
p360
sg127
g1
(g128
g12
(dp361
g130
I6
sg131
g132
sg133
g134
sg135
g132
sg136
I01
sg34
g174
sg138
g134
sg139
I0
sg140
I0
sg141
I0
sg142
g134
sg35
g175
sg144
I0
stRp362
sg146
g147
sg148
F0.98999999999999999
sg149
Nsg30
S'NoName'
p363
sbag1
(g2
g3
NtRp364
(dp365
g6
g1
(g7
g3
NtRp366
(dp367
g10
g1
(g11
g12
(dtRp368
sg14
g1
(g11
g12
(dtRp369
sg16
g1
(g11
g12
(dtRp370
sg18
g1
(g11
g12
(dtRp371
sg20
g1
(g11
g12
(dtRp372
sg22
g1
(g11
g12
(dtRp373
sbsg24
g25
sg26
g27
((lp374
g33
ag32
ag29
ag30
atRp375
sg37
(lp376
g1
(g2
g3
NtRp377
(dp378
g6
g1
(g7
g3
NtRp379
(dp380
g10
g1
(g11
g12
(dtRp381
sg14
g1
(g11
g12
(dtRp382
sg16
g1
(g11
g12
(dtRp383
sg18
g1
(g11
g12
(dtRp384
sg20
g1
(g11
g12
(dtRp385
sg22
g1
(g11
g12
(dtRp386
sbsg24
g25
sg26
g27
((lp387
g33
ag32
ag29
ag30
atRp388
sg37
(lp389
g1
(g2
g3
NtRp390
(dp391
g6
g1
(g7
g3
NtRp392
(dp393
g10
g1
(g11
g12
(dtRp394
sg14
g1
(g11
g12
(dtRp395
sg16
g1
(g11
g12
(dtRp396
sg18
g1
(g11
g12
(dtRp397
sg20
g1
(g11
g12
(dtRp398
sg22
g1
(g11
g12
(dtRp399
sbsg24
S'Mte'
p400
sg26
g27
((lp401
g29
ag30
aS'sequence'
p402
ag32
ag33
aS'species'
p403
atRp404
sg37
(lp405
sg120
g377
sg121
S'RWLSTKDLYSRLELPTLNQNVHAMFVMPAGFGNPMGDMLARLNNSFWLVPLSLEGAGTGWTVYPPLSHSGPSVDMVFHISSSLLGAINFTNMRGTLFWTALLLLSLPVLSGTLLDRNFNTFEGGDPLYHLFWFFGHPEVYIIPGFGSHSAYKKFGMYASIGLGFVWSHHMYVGLDDRAYFTSATMIAPTGVKFSWLATYGGRPFLAFIFLFTGGTGVLNASDAFHDTYYVVHFHYVLSLGAFSLGYYFWPGLYNLFYFNFPMHALGGMPRRPYPDAGWNSGSSYQLGPDESNEPH'
p406
sg123
F0.042599999999999999
sg124
g125
sg33
S'190'
p407
sg127
g1
(g128
g12
(dp408
g130
I4
sg131
g132
sg133
g134
sg135
g132
sg136
I01
sg34
g137
sg138
g134
sg139
I0
sg140
I0
sg141
I0
sg142
g134
sg35
g143
sg144
I0
stRp409
sg146
g147
sg148
F1
sg149
Nsg30
S'MtetrA'
p410
sbag1
(g2
g3
NtRp411
(dp412
g6
g1
(g7
g3
NtRp413
(dp414
g10
g1
(g11
g12
(dtRp415
sg14
g1
(g11
g12
(dtRp416
sg16
g1
(g11
g12
(dtRp417
sg18
g1
(g11
g12
(dtRp418
sg20
g1
(g11
g12
(dtRp419
sg22
g1
(g11
g12
(dtRp420
sbsg24
g25
sg26
g27
((lp421
g33
ag32
ag29
ag30
atRp422
sg37
(lp423
g1
(g2
g3
NtRp424
(dp425
g6
g1
(g7
g3
NtRp426
(dp427
g10
g1
(g11
g12
(dtRp428
sg14
g1
(g11
g12
(dtRp429
sg16
g1
(g11
g12
(dtRp430
sg18
g1
(g11
g12
(dtRp431
sg20
g1
(g11
g12
(dtRp432
sg22
g1
(g11
g12
(dtRp433
sbsg24
S'Mma'
p434
sg26
g27
((lp435
g29
ag30
aS'sequence'
p436
ag32
ag33
aS'species'
p437
atRp438
sg37
(lp439
sg120
g411
sg121
S'RWLSTKDLYSRLELPTLNQNVHAMFVMPAGFGNPMGDMLARLNNSFWLVPLSLEGPGTGWTVYPPLSHSGPSVDMVFHISSSLLGAINFTNMRGTLFWTALLLLSLPVLSGTLLDRNFNTFEGGDPLYHLFWFFGHPEVYIIPGFGSHSAYKKFGMYASIGLGFVWSHHMYVGLDDRAYFTSATMIAPTGVKFSWLATYGGRPFLAFIFLFTGGTGVLNASDAFHDSYYVVHFHYVLSLGAFSLGYYFWPGLYNLFFFNFPMHALGGMPRRPYPDAGWNSGSSYQLGPDESNEPH'
p440
sg123
F0.00055000000000000003
sg124
g125
sg33
S'29'
p441
sg127
g1
(g128
g12
(dp442
g130
I4
sg131
g132
sg133
g134
sg135
g132
sg136
I01
sg34
g137
sg138
g134
sg139
I0
sg140
I0
sg141
I0
sg142
g134
sg35
g143
sg144
I0
stRp443
sg146
g147
sg148
F1
sg149
Nsg30
S'MmagnB'
p444
sbag1
(g2
g3
NtRp445
(dp446
g6
g1
(g7
g3
NtRp447
(dp448
g10
g1
(g11
g12
(dtRp449
sg14
g1
(g11
g12
(dtRp450
sg16
g1
(g11
g12
(dtRp451
sg18
g1
(g11
g12
(dtRp452
sg20
g1
(g11
g12
(dtRp453
sg22
g1
(g11
g12
(dtRp454
sbsg24
S'Mma'
p455
sg26
g27
((lp456
g29
ag30
aS'sequence'
p457
ag32
ag33
aS'species'
p458
atRp459
sg37
(lp460
sg120
g411
sg121
S'RWLSTKDLYSRLELPTLNQNVHAMFVMPAGFGNPMGDMLARLNNSFWLVPLSLEGPGTGWTVYPPLSHSGPSVDMVFHISSSLLGAINFTNMRGTLFWTALLLLSLPVLSGTLLDRNFNTFEGGDPLYHLFWFFGHPEVYIIPGFGSHSAYKKFGMYASIGLGFVWSHHMYVGLDDRAYFTSATMIAPTGVKFSWLATYGGRPFLAFIFLFTGGTGVLNASDAFHDSYYVVHFHYVLSLGAFSLGYYFWPGLYNLFFFNFPMHALGGMPRRPYPDAGWNSGSSYQLGPDESNEPH'
p461
sg123
F0.00088000000000000003
sg124
g125
sg33
S'40'
p462
sg127
g1
(g128
g12
(dp463
g130
I4
sg131
g132
sg133
g134
sg135
g132
sg136
I01
sg34
g137
sg138
g134
sg139
I0
sg140
I0
sg141
I0
sg142
g134
sg35
g143
sg144
I0
stRp464
sg146
g147
sg148
F1
sg149
Nsg30
S'MmagnA'
p465
sbasg120
g377
sg123
F0.011140000000000001
sg124
g125
sg33
S'189'
p466
sg127
g1
(g128
g12
(dp467
g130
I6
sg131
g132
sg133
g134
sg135
g132
sg136
I01
sg34
g174
sg138
g134
sg139
I0
sg140
I0
sg141
I0
sg142
g134
sg35
g175
sg144
I0
stRp468
sg146
g147
sg148
F0.98999999999999999
sg149
Nsg30
S'NoName'
p469
sbasg120
g364
sg123
F0.11189
sg124
g125
sg33
S'194'
p470
sg127
g1
(g128
g12
(dp471
g130
I6
sg131
g132
sg133
g134
sg135
g132
sg136
I01
sg34
g174
sg138
g134
sg139
I0
sg140
I0
sg141
I0
sg142
g134
sg35
g175
sg144
I0
stRp472
sg146
g147
sg148
F0.98999999999999999
sg149
Nsg30
S'NoName'
p473
sbag1
(g2
g3
NtRp474
(dp475
g6
g1
(g7
g3
NtRp476
(dp477
g10
g1
(g11
g12
(dtRp478
sg14
g1
(g11
g12
(dtRp479
sg16
g1
(g11
g12
(dtRp480
sg18
g1
(g11
g12
(dtRp481
sg20
g1
(g11
g12
(dtRp482
sg22
g1
(g11
g12
(dtRp483
sbsg24
g25
sg26
g27
((lp484
g33
ag32
ag29
ag30
atRp485
sg37
(lp486
g1
(g2
g3
NtRp487
(dp488
g6
g1
(g7
g3
NtRp489
(dp490
g10
g1
(g11
g12
(dtRp491
sg14
g1
(g11
g12
(dtRp492
sg16
g1
(g11
g12
(dtRp493
sg18
g1
(g11
g12
(dtRp494
sg20
g1
(g11
g12
(dtRp495
sg22
g1
(g11
g12
(dtRp496
sbsg24
S'Scl'
p497
sg26
g27
((lp498
g29
ag30
aS'sequence'
p499
ag32
ag33
aS'species'
p500
atRp501
sg37
(lp502
sg120
g474
sg121
S'RWLSTKDLYSRLELPTLNQNVHAMFVMPAGFGNPMGDMLARLNNSFWLVPLSLEGPGTGWTVYPPLSHSGPSVDMVFHMSSSLLGAINFTNMRGTLFWTALLLLSLPVLAGTLLDRNFNTFEGGDPLYHLFWFFGHPEVYMIPGFGSHSTYKKFGMYASMGLGFVWSHHMYVGLDDRAYFTAATMIAPTGVKFSWLATYGGRPFLTFMFLFTGGTGVLNASDAFHDTYYVVHFHYVLSLGAFSLGYYFWPGLYNLFMFNFPLHFLGGMPRRPYPDAGWNSGSSYQLGPDESNEPH'
p503
sg123
F0.020899999999999998
sg124
g125
sg33
S'31'
p504
sg127
g1
(g128
g12
(dp505
g130
I4
sg131
g132
sg133
g134
sg135
g132
sg136
I01
sg34
g137
sg138
g134
sg139
I0
sg140
I0
sg141
I0
sg142
g134
sg35
g143
sg144
I0
stRp506
sg146
g147
sg148
F1
sg149
Nsg30
S'SclavA'
p507
sbag1
(g2
g3
NtRp508
(dp509
g6
g1
(g7
g3
NtRp510
(dp511
g10
g1
(g11
g12
(dtRp512
sg14
g1
(g11
g12
(dtRp513
sg16
g1
(g11
g12
(dtRp514
sg18
g1
(g11
g12
(dtRp515
sg20
g1
(g11
g12
(dtRp516
sg22
g1
(g11
g12
(dtRp517
sbsg24
S'Msp'
p518
sg26
g27
((lp519
g29
ag30
aS'sequence'
p520
ag32
ag33
aS'species'
p521
atRp522
sg37
(lp523
sg120
g474
sg121
S'RWLSTKDLYSRLELPTLNQNVHAMFVMPAGFGNPMGDMLARLNNSFWLVPLSLEGPGTGWTVYPPLSHSGPSVDMVFHMSSSLLGAMNFTNMRGTLFWTALLLLSLPVLAGTLLDRNFNTFEGGDPLYHLFWFFGHPEVYMIPGFGSHSTYKKFGMYASMGLGFVWSHHMYVGLDDRAYFTAATMIAPTGVKFSWLATYGGRPFLTFMFLFTGGTGVLNASDAFHDTYYVVHFHYVLSLGAFSLGYYFWPGLYNLFMFNFPLHFLGGMPRRPYPDAGWNSGSSYQLGPDESNEPH'
p524
sg123
F0.13538
sg124
g125
sg33
S'32'
p525
sg127
g1
(g128
g12
(dp526
g130
I4
sg131
g132
sg133
g134
sg135
g132
sg136
I01
sg34
g137
sg138
g134
sg139
I0
sg140
I0
sg141
I0
sg142
g134
sg35
g143
sg144
I0
stRp527
sg146
g147
sg148
F1
sg149
Nsg30
S'MspicA'
p528
sbasg120
g364
sg123
F0.10536
sg124
g125
sg33
S'193'
p529
sg127
g1
(g128
g12
(dp530
g130
I6
sg131
g132
sg133
g134
sg135
g132
sg136
I01
sg34
g174
sg138
g134
sg139
I0
sg140
I0
sg141
I0
sg142
g134
sg35
g175
sg144
I0
stRp531
sg146
g147
sg148
F0.98999999999999999
sg149
Nsg30
S'NoName'
p532
sbasg120
g292
sg123
F0.03209
sg124
g125
sg33
S'179'
p533
sg127
g1
(g128
g12
(dp534
g130
I6
sg131
g132
sg133
g134
sg135
g132
sg136
I01
sg34
g174
sg138
g134
sg139
I0
sg140
I0
sg141
I0
sg142
g134
sg35
g175
sg144
I0
stRp535
sg146
g147
sg148
F0.98999999999999999
sg149
Nsg30
S'NoName'
p536
sbasg120
g279
sg123
F0.32869999999999999
sg124
g125
sg33
S'187'
p537
sg127
g1
(g128
g12
(dp538
g130
I6
sg131
g132
sg133
g134
sg135
g132
sg136
I01
sg34
g174
sg138
g134
sg139
I0
sg140
I0
sg141
I0
sg142
g134
sg35
g175
sg144
I0
stRp539
sg146
g147
sg148
F0.98999999999999999
sg149
Nsg30
S'NoName'
p540
sbag1
(g2
g3
NtRp541
(dp542
g6
g1
(g7
g3
NtRp543
(dp544
g10
g1
(g11
g12
(dtRp545
sg14
g1
(g11
g12
(dtRp546
sg16
g1
(g11
g12
(dtRp547
sg18
g1
(g11
g12
(dtRp548
sg20
g1
(g11
g12
(dtRp549
sg22
g1
(g11
g12
(dtRp550
sbsg24
g25
sg26
g27
((lp551
g33
ag32
ag29
ag30
atRp552
sg37
(lp553
g1
(g2
g3
NtRp554
(dp555
g6
g1
(g7
g3
NtRp556
(dp557
g10
g1
(g11
g12
(dtRp558
sg14
g1
(g11
g12
(dtRp559
sg16
g1
(g11
g12
(dtRp560
sg18
g1
(g11
g12
(dtRp561
sg20
g1
(g11
g12
(dtRp562
sg22
g1
(g11
g12
(dtRp563
sbsg24
g25
sg26
g27
((lp564
g33
ag32
ag29
ag30
atRp565
sg37
(lp566
g1
(g2
g3
NtRp567
(dp568
g6
g1
(g7
g3
NtRp569
(dp570
g10
g1
(g11
g12
(dtRp571
sg14
g1
(g11
g12
(dtRp572
sg16
g1
(g11
g12
(dtRp573
sg18
g1
(g11
g12
(dtRp574
sg20
g1
(g11
g12
(dtRp575
sg22
g1
(g11
g12
(dtRp576
sbsg24
S'Cze'
p577
sg26
g27
((lp578
g29
ag30
aS'sequence'
p579
ag32
ag33
aS'species'
p580
atRp581
sg37
(lp582
sg120
g554
sg121
S'SWLSTQNLYSRIELPNLNQNVHAMFVMPTGLANPQGDTFPRMNNAFVLLPMSLDGPGSGWTLYPPLTHSGSSMDMAFHLSSSIFGAINLTNMRGPLFWTALMMLALPVLAGTLLDRNFNTFVGGDPLYHIFWFFGHPEVYIIPVFGSQQVYKKFGMYASIGLGFVWSHHMFVGLDDRAYFSGASLIAPTGSKFSWLATYGGRPLLAFMVLFTGGTGVMNSSDMFHDTYYVVHFHYVLSLGVFGVAYYFWPGLYNLFWFNFPLHFLGGLPRRPYPDAGWNSGSSYQFGPDESNEPH'
p583
sg123
F1.5682799999999999
sg124
g125
sg33
S'41'
p584
sg127
g1
(g128
g12
(dp585
g130
I4
sg131
g132
sg133
g134
sg135
g132
sg136
I01
sg34
g137
sg138
g134
sg139
I0
sg140
I0
sg141
I0
sg142
g134
sg35
g143
sg144
I0
stRp586
sg146
g147
sg148
F1
sg149
Nsg30
S'CzempA'
p587
sbag1
(g2
g3
NtRp588
(dp589
g6
g1
(g7
g3
NtRp590
(dp591
g10
g1
(g11
g12
(dtRp592
sg14
g1
(g11
g12
(dtRp593
sg16
g1
(g11
g12
(dtRp594
sg18
g1
(g11
g12
(dtRp595
sg20
g1
(g11
g12
(dtRp596
sg22
g1
(g11
g12
(dtRp597
sbsg24
g25
sg26
g27
((lp598
g33
ag32
ag29
ag30
atRp599
sg37
(lp600
g1
(g2
g3
NtRp601
(dp602
g6
g1
(g7
g3
NtRp603
(dp604
g10
g1
(g11
g12
(dtRp605
sg14
g1
(g11
g12
(dtRp606
sg16
g1
(g11
g12
(dtRp607
sg18
g1
(g11
g12
(dtRp608
sg20
g1
(g11
g12
(dtRp609
sg22
g1
(g11
g12
(dtRp610
sbsg24
S'Csa'
p611
sg26
g27
((lp612
g29
ag30
aS'sequence'
p613
ag32
ag33
aS'species'
p614
atRp615
sg37
(lp616
sg120
g588
sg121
S'----------RLELPNLNQNVHAMFVMPSGFGNPMGDMLARLNNSFWLVPLSLDGPGTGWTMYPPLSHSGASVDLVFHISSSLLGAMNFTNMRGTLFWTALLLLSLPVLSGTLLDRNFNTFEGGDMLYHMFWFFGHPEVYMMPGFGSQSVYKKFGMYASMGLGFVWSHHMFVGLDDRAYFTAATLMAPTGVKFSWLASYGGRPLLAFMFLFTGGTGVLNASDAFHDTYYVVHFHYVLSLGAFSLGYYFWPGLYNLFWFNFPQHFLGAMPRRPYPDAGWNSGSSYQMGPDFSNEPH'
p617
sg123
F0.65920000000000001
sg124
g125
sg33
S'45'
p618
sg127
g1
(g128
g12
(dp619
g130
I4
sg131
g132
sg133
g134
sg135
g132
sg136
I01
sg34
g137
sg138
g134
sg139
I0
sg140
I0
sg141
I0
sg142
g134
sg35
g143
sg144
I0
stRp620
sg146
g147
sg148
F1
sg149
Nsg30
S'CsantA'
p621
sbag1
(g2
g3
NtRp622
(dp623
g6
g1
(g7
g3
NtRp624
(dp625
g10
g1
(g11
g12
(dtRp626
sg14
g1
(g11
g12
(dtRp627
sg16
g1
(g11
g12
(dtRp628
sg18
g1
(g11
g12
(dtRp629
sg20
g1
(g11
g12
(dtRp630
sg22
g1
(g11
g12
(dtRp631
sbsg24
S'Csa'
p632
sg26
g27
((lp633
g29
ag30
aS'sequence'
p634
ag32
ag33
aS'species'
p635
atRp636
sg37
(lp637
sg120
g588
sg121
S'RWLSTKDLYSRLELPAMSQNVHAMFVMPSGFANPMGDTLPRVNNAAILMPMSLEGPGTGWTVYPPLSHSGVSVDLVFHISSSLAGAMNLTNMRGPLFWTALLLLSLPVLAGTLIDRNFNTFDGGDVLYHLFWFFGHPEVYIIPGFGSESRYNKFGMYASIGLGFVWSHHMYVGLDDRSYFTAATLIAPTGVKFSWMATFGGRPFLTFLALFTGGTGVLNASDAFHDTYYVVHFHYVLSLGAFSMGYYYWPGLYNLFWFNFPQHFLGGQPRRSYPDAGWNSGSSYQLGPDESNEPH'
p638
sg123
F1.3581099999999999
sg124
g125
sg33
S'113'
p639
sg127
g1
(g128
g12
(dp640
g130
I4
sg131
g132
sg133
g134
sg135
g132
sg136
I01
sg34
g137
sg138
g134
sg139
I0
sg140
I0
sg141
I0
sg142
g134
sg35
g143
sg144
I0
stRp641
sg146
g147
sg148
F1
sg149
Nsg30
S'CsalmA'
p642
sbasg120
g554
sg123
F0.19968
sg124
g125
sg33
S'48'
p643
sg127
g1
(g128
g12
(dp644
g130
I6
sg131
g132
sg133
g134
sg135
g132
sg136
I01
sg34
g174
sg138
g134
sg139
I0
sg140
I0
sg141
I0
sg142
g134
sg35
g175
sg144
I0
stRp645
sg146
g147
sg148
F0.97999999999999998
sg149
Nsg30
S'NoName'
p646
sbasg120
g541
sg123
F0.14363999999999999
sg124
g125
sg33
S'37'
p647
sg127
g1
(g128
g12
(dp648
g130
I6
sg131
g132
sg133
g134
sg135
g132
sg136
I01
sg34
g174
sg138
g134
sg139
I0
sg140
I0
sg141
I0
sg142
g134
sg35
g175
sg144
I0
stRp649
sg146
g147
sg148
F0.93000000000000005
sg149
Nsg30
S'NoName'
p650
sbag1
(g2
g3
NtRp651
(dp652
g6
g1
(g7
g3
NtRp653
(dp654
g10
g1
(g11
g12
(dtRp655
sg14
g1
(g11
g12
(dtRp656
sg16
g1
(g11
g12
(dtRp657
sg18
g1
(g11
g12
(dtRp658
sg20
g1
(g11
g12
(dtRp659
sg22
g1
(g11
g12
(dtRp660
sbsg24
S'Bar'
p661
sg26
g27
((lp662
g29
ag30
aS'sequence'
p663
ag32
ag33
aS'species'
p664
atRp665
sg37
(lp666
sg120
g541
sg121
S'RWLSTKDLYSRLELPNLNQNSHAMFVMPTGFGNPMGDMLSRLNNSFWLVPLSLEGPGTGWTVYPPLSHSGPSVDLVFHVSSSLLGAMNFTNMRGTLFWTVLLLLALPVLAGTLLDRNFNTFEGGDPLYHMFWFFGHPEVYIIPGFGSQAVYNKFGMYASIGLGFVWSHHMYVGMDDRAYFTAATLIAPTGVKFSWLASYGGRPLLTFIGLFTGGTGVLNAADAFHDSYYVVHFHYVLSLGAFSLGYYFWPGLYNLFWFNFPQHFLGSMPRRPYPDAGWNSGSSVQLGPDVNNEPH'
p667
sg123
F0.74575000000000002
sg124
g125
sg33
S'93'
p668
sg127
g1
(g128
g12
(dp669
g130
I4
sg131
g132
sg133
g134
sg135
g132
sg136
I01
sg34
g137
sg138
g134
sg139
I0
sg140
I0
sg141
I0
sg142
g134
sg35
g143
sg144
I0
stRp670
sg146
g147
sg148
F1
sg149
Nsg30
S'BarxA'
p671
sbasg120
g279
sg123
F0.25233
sg124
g125
sg33
S'35'
p672
sg127
g1
(g128
g12
(dp673
g130
I6
sg131
g132
sg133
g134
sg135
g132
sg136
I01
sg34
g174
sg138
g134
sg139
I0
sg140
I0
sg141
I0
sg142
g134
sg35
g175
sg144
I0
stRp674
sg146
g147
sg148
F0.97999999999999998
sg149
Nsg30
S'NoName'
p675
sbasg120
g266
sg123
F0.42224
sg124
g125
sg33
S'177'
p676
sg127
g1
(g128
g12
(dp677
g130
I6
sg131
g132
sg133
g134
sg135
g132
sg136
I01
sg34
g174
sg138
g134
sg139
I0
sg140
I0
sg141
I0
sg142
g134
sg35
g175
sg144
I0
stRp678
sg146
g147
sg148
F0.97999999999999998
sg149
Nsg30
S'NoName'
p679
sbag1
(g2
g3
NtRp680
(dp681
g6
g1
(g7
g3
NtRp682
(dp683
g10
g1
(g11
g12
(dtRp684
sg14
g1
(g11
g12
(dtRp685
sg16
g1
(g11
g12
(dtRp686
sg18
g1
(g11
g12
(dtRp687
sg20
g1
(g11
g12
(dtRp688
sg22
g1
(g11
g12
(dtRp689
sbsg24
g25
sg26
g27
((lp690
g33
ag32
ag29
ag30
atRp691
sg37
(lp692
g1
(g2
g3
NtRp693
(dp694
g6
g1
(g7
g3
NtRp695
(dp696
g10
g1
(g11
g12
(dtRp697
sg14
g1
(g11
g12
(dtRp698
sg16
g1
(g11
g12
(dtRp699
sg18
g1
(g11
g12
(dtRp700
sg20
g1
(g11
g12
(dtRp701
sg22
g1
(g11
g12
(dtRp702
sbsg24
g25
sg26
g27
((lp703
g33
ag32
ag29
ag30
atRp704
sg37
(lp705
g1
(g2
g3
NtRp706
(dp707
g6
g1
(g7
g3
NtRp708
(dp709
g10
g1
(g11
g12
(dtRp710
sg14
g1
(g11
g12
(dtRp711
sg16
g1
(g11
g12
(dtRp712
sg18
g1
(g11
g12
(dtRp713
sg20
g1
(g11
g12
(dtRp714
sg22
g1
(g11
g12
(dtRp715
sbsg24
g25
sg26
g27
((lp716
g33
ag32
ag29
ag30
atRp717
sg37
(lp718
g1
(g2
g3
NtRp719
(dp720
g6
g1
(g7
g3
NtRp721
(dp722
g10
g1
(g11
g12
(dtRp723
sg14
g1
(g11
g12
(dtRp724
sg16
g1
(g11
g12
(dtRp725
sg18
g1
(g11
g12
(dtRp726
sg20
g1
(g11
g12
(dtRp727
sg22
g1
(g11
g12
(dtRp728
sbsg24
g25
sg26
g27
((lp729
g33
ag32
ag29
ag30
atRp730
sg37
(lp731
g1
(g2
g3
NtRp732
(dp733
g6
g1
(g7
g3
NtRp734
(dp735
g10
g1
(g11
g12
(dtRp736
sg14
g1
(g11
g12
(dtRp737
sg16
g1
(g11
g12
(dtRp738
sg18
g1
(g11
g12
(dtRp739
sg20
g1
(g11
g12
(dtRp740
sg22
g1
(g11
g12
(dtRp741
sbsg24
S'Mfa'
p742
sg26
g27
((lp743
g29
ag30
aS'sequence'
p744
ag32
ag33
aS'species'
p745
atRp746
sg37
(lp747
sg120
g719
sg121
S'RWLSTKDLYSRLELGNLNQNVHAMFVMPLGFGNPLGDMFARLNNSFWLPPLSLEGAGTGWTVYPPLSHSGPSVDLAFHLTSSLLGAINFTNMRGPLFWTALLLLSLPVLAGTLLDRNFNTFEGGDPLYHLFWFFGHPEVYIIPGFGSHSTYKKFGMYASIGLGFVWSHHMYVGLDDRAYFTSATMIAPTGIKFSWLATYGGRPMLAFLFLFTGGTGVLNASDAFHDTYFVVHFHYVLSMGAFSLAYYYWPGLYNLFWFNFPMHFLGGMPRRPYPDAGWNSGSSYQMGPDESNEPH'
p748
sg123
F0.14163999999999999
sg124
g125
sg33
S'99'
p749
sg127
g1
(g128
g12
(dp750
g130
I4
sg131
g132
sg133
g134
sg135
g132
sg136
I01
sg34
g137
sg138
g134
sg139
I0
sg140
I0
sg141
I0
sg142
g134
sg35
g143
sg144
I0
stRp751
sg146
g147
sg148
F1
sg149
Nsg30
S'MfariB'
p752
sbag1
(g2
g3
NtRp753
(dp754
g6
g1
(g7
g3
NtRp755
(dp756
g10
g1
(g11
g12
(dtRp757
sg14
g1
(g11
g12
(dtRp758
sg16
g1
(g11
g12
(dtRp759
sg18
g1
(g11
g12
(dtRp760
sg20
g1
(g11
g12
(dtRp761
sg22
g1
(g11
g12
(dtRp762
sbsg24
S'Csa'
p763
sg26
g27
((lp764
g29
ag30
aS'sequence'
p765
ag32
ag33
aS'species'
p766
atRp767
sg37
(lp768
sg120
g719
sg121
S'RWLSTKDLYSRLELGNFNQNVHAMFVMPLGFGNPLGDMFARLNNSFWLPPLSLEGAGTGWTVYPPLSHSGPSVDLAFHLTSSLLGAINFTNMRGPLFWTALLLLSLPVLAATLLDRNFNTFEGGDPLYHLFWFFGHPEVYIIPGFGSHSTYKKFGMYASMGLGFVWSHHMYVGLDDRAYFTSATMIAPTGMKFSWLATYGGRPMLAFLFLFTGGTGVLNASDAFHDTYYVVHFHYVLSMGAFSLAYYYWPGLYNWFWFNFPMHFLGGMPRRPYPDAGWNSGSSYQMGPDESNEPH'
p769
sg123
F0.069970000000000004
sg124
g125
sg33
S'109'
p770
sg127
g1
(g128
g12
(dp771
g130
I4
sg131
g132
sg133
g134
sg135
g132
sg136
I01
sg34
g137
sg138
g134
sg139
I0
sg140
I0
sg141
I0
sg142
g134
sg35
g143
sg144
I0
stRp772
sg146
g147
sg148
F1
sg149
Nsg30
S'CsakeA'
p773
sbasg120
g706
sg123
F0.048980000000000003
sg124
g125
sg33
S'94'
p774
sg127
g1
(g128
g12
(dp775
g130
I6
sg131
g132
sg133
g134
sg135
g132
sg136
I01
sg34
g174
sg138
g134
sg139
I0
sg140
I0
sg141
I0
sg142
g134
sg35
g175
sg144
I0
stRp776
sg146
g147
sg148
F0.98999999999999999
sg149
Nsg30
S'NoName'
p777
sbag1
(g2
g3
NtRp778
(dp779
g6
g1
(g7
g3
NtRp780
(dp781
g10
g1
(g11
g12
(dtRp782
sg14
g1
(g11
g12
(dtRp783
sg16
g1
(g11
g12
(dtRp784
sg18
g1
(g11
g12
(dtRp785
sg20
g1
(g11
g12
(dtRp786
sg22
g1
(g11
g12
(dtRp787
sbsg24
g25
sg26
g27
((lp788
g33
ag32
ag29
ag30
atRp789
sg37
(lp790
g1
(g2
g3
NtRp791
(dp792
g6
g1
(g7
g3
NtRp793
(dp794
g10
g1
(g11
g12
(dtRp795
sg14
g1
(g11
g12
(dtRp796
sg16
g1
(g11
g12
(dtRp797
sg18
g1
(g11
g12
(dtRp798
sg20
g1
(g11
g12
(dtRp799
sg22
g1
(g11
g12
(dtRp800
sbsg24
g25
sg26
g27
((lp801
g33
ag32
ag29
ag30
atRp802
sg37
(lp803
g1
(g2
g3
NtRp804
(dp805
g6
g1
(g7
g3
NtRp806
(dp807
g10
g1
(g11
g12
(dtRp808
sg14
g1
(g11
g12
(dtRp809
sg16
g1
(g11
g12
(dtRp810
sg18
g1
(g11
g12
(dtRp811
sg20
g1
(g11
g12
(dtRp812
sg22
g1
(g11
g12
(dtRp813
sbsg24
S'Mfa'
p814
sg26
g27
((lp815
g29
ag30
aS'sequence'
p816
ag32
ag33
aS'species'
p817
atRp818
sg37
(lp819
sg120
g791
sg121
S'RWLSTKDLYSRAELGNFNHNVHAMFVMPLGFGNPMGDMFARLNNSFWLPPLSLEGAGTGWTVYPPLSHSGPSVDLAFHLTSSLLGAMNFTNMRGPLFWTALLLLSLPVLAGTLLDRNFNTFEGGDPLYHLFWFFGHPEVYIIPGFGSHSTYKKFGMYASMGLGFVWSHHMYVGLDDRAYFTSATMMAPTGIKFSWLATYGGRPMLAFLFLFTGGTGVLNASDAFHDTYYMYHFHYVLSMGAFSLGYYYWPGLYNWFWFNFPMHFLGGMPRRPYPDAGWNSGSSKQLGPDESNEPH'
p820
sg123
F0.29086000000000001
sg124
g125
sg33
S'108'
p821
sg127
g1
(g128
g12
(dp822
g130
I4
sg131
g132
sg133
g134
sg135
g132
sg136
I01
sg34
g137
sg138
g134
sg139
I0
sg140
I0
sg141
I0
sg142
g134
sg35
g143
sg144
I0
stRp823
sg146
g147
sg148
F1
sg149
Nsg30
S'MfariA'
p824
sbag1
(g2
g3
NtRp825
(dp826
g6
g1
(g7
g3
NtRp827
(dp828
g10
g1
(g11
g12
(dtRp829
sg14
g1
(g11
g12
(dtRp830
sg16
g1
(g11
g12
(dtRp831
sg18
g1
(g11
g12
(dtRp832
sg20
g1
(g11
g12
(dtRp833
sg22
g1
(g11
g12
(dtRp834
sbsg24
S'Dha'
p835
sg26
g27
((lp836
g29
ag30
aS'sequence'
p837
ag32
ag33
aS'species'
p838
atRp839
sg37
(lp840
sg120
g791
sg121
S'RWLSTKDLYSRMELGNFNQNVHAMFIMPWGFGNPLGDMFARLNNSFWLPPLSLEGAGTGWTLYPPLSHSGPSVDLAFHLTSSLLGAMNFTNMRGPLFWTALLLLSLPVLAATLLDRNFNTFEGGDPLYHLFWFFGHPEVYIMPGFGSHSTYKKFGMYASIGLGFVWSHHMFVGLDDRAYFTSATMIAPTGIKFSWLATYGGRPMLAFLFLFTGGTGVLNASDAFHDTYYVVHFHYVLSMGAFSLAYYYWPGLYNLFWFNFPMHFLGGMPRRPYPDAGWNSGSSKQLGPDESNDPH'
p841
sg123
F0.11043
sg124
g125
sg33
S'73'
p842
sg127
g1
(g128
g12
(dp843
g130
I4
sg131
g132
sg133
g134
sg135
g132
sg136
I01
sg34
g137
sg138
g134
sg139
I0
sg140
I0
sg141
I0
sg142
g134
sg35
g143
sg144
I0
stRp844
sg146
g147
sg148
F1
sg149
Nsg30
S'DhansA'
p845
sbasg120
g778
sg123
F0.046699999999999998
sg124
g125
sg33
S'103'
p846
sg127
g1
(g128
g12
(dp847
g130
I6
sg131
g132
sg133
g134
sg135
g132
sg136
I01
sg34
g174
sg138
g134
sg139
I0
sg140
I0
sg141
I0
sg142
g134
sg35
g175
sg144
I0
stRp848
sg146
g147
sg148
F0.65000000000000002
sg149
Nsg30
S'NoName'
p849
sbag1
(g2
g3
NtRp850
(dp851
g6
g1
(g7
g3
NtRp852
(dp853
g10
g1
(g11
g12
(dtRp854
sg14
g1
(g11
g12
(dtRp855
sg16
g1
(g11
g12
(dtRp856
sg18
g1
(g11
g12
(dtRp857
sg20
g1
(g11
g12
(dtRp858
sg22
g1
(g11
g12
(dtRp859
sbsg24
g25
sg26
g27
((lp860
g33
ag32
ag29
ag30
atRp861
sg37
(lp862
g1
(g2
g3
NtRp863
(dp864
g6
g1
(g7
g3
NtRp865
(dp866
g10
g1
(g11
g12
(dtRp867
sg14
g1
(g11
g12
(dtRp868
sg16
g1
(g11
g12
(dtRp869
sg18
g1
(g11
g12
(dtRp870
sg20
g1
(g11
g12
(dtRp871
sg22
g1
(g11
g12
(dtRp872
sbsg24
S'Clu'
p873
sg26
g27
((lp874
g29
ag30
aS'sequence'
p875
ag32
ag33
aS'species'
p876
atRp877
sg37
(lp878
sg120
g850
sg121
S'RWLSTKDLYSRLELPDLNQNVHAMFVMPLGFGNPMGDMFARLNNSFWLPPLSLEGAGTGWTVYPPLSHSGPSVDLAFHLTSSLLGAINFTNMRGPLFWTALLLLSLPVLAGTLLDRNFNTFEGGDPLYHLFWFFGHPEVYMMPGFGSHSTYKKFGMYASMGLGFVWSHHMYVGLDDRAYFTSATMMAPTGMKFSWLATYGGRPMLAFLFLFTGGTGVLNASDAFHDTYYVVHFHYVLSMGAFSLGYYYWPGLYNWFWFNFPMHFLGGMPRRPYPDAGWNSGSSRQLGPDESNEPH'
p879
sg123
F0.037310000000000003
sg124
g125
sg33
S'78'
p880
sg127
g1
(g128
g12
(dp881
g130
I4
sg131
g132
sg133
g134
sg135
g132
sg136
I01
sg34
g137
sg138
g134
sg139
I0
sg140
I0
sg141
I0
sg142
g134
sg35
g143
sg144
I0
stRp882
sg146
g147
sg148
F1
sg149
Nsg30
S'ClusiA'
p883
sbag1
(g2
g3
NtRp884
(dp885
g6
g1
(g7
g3
NtRp886
(dp887
g10
g1
(g11
g12
(dtRp888
sg14
g1
(g11
g12
(dtRp889
sg16
g1
(g11
g12
(dtRp890
sg18
g1
(g11
g12
(dtRp891
sg20
g1
(g11
g12
(dtRp892
sg22
g1
(g11
g12
(dtRp893
sbsg24
g25
sg26
g27
((lp894
g33
ag32
ag29
ag30
atRp895
sg37
(lp896
g1
(g2
g3
NtRp897
(dp898
g6
g1
(g7
g3
NtRp899
(dp900
g10
g1
(g11
g12
(dtRp901
sg14
g1
(g11
g12
(dtRp902
sg16
g1
(g11
g12
(dtRp903
sg18
g1
(g11
g12
(dtRp904
sg20
g1
(g11
g12
(dtRp905
sg22
g1
(g11
g12
(dtRp906
sbsg24
S'Mgu'
p907
sg26
g27
((lp908
g29
ag30
aS'sequence'
p909
ag32
ag33
aS'species'
p910
atRp911
sg37
(lp912
sg120
g884
sg121
S'---------------------------------------------------------------------------------------------------------------------------------------------------------------------------------------------------------------------------------------HFHYVLSMGAFSLGYYYWPGLYNWFWFNFPMHFLGGMPRRPYPDAGWNSGSSKQLGPDESNEPH'
p913
sg123
F0.0044999999999999997
sg124
g125
sg33
S'76'
p914
sg127
g1
(g128
g12
(dp915
g130
I4
sg131
g132
sg133
g134
sg135
g132
sg136
I01
sg34
g137
sg138
g134
sg139
I0
sg140
I0
sg141
I0
sg142
g134
sg35
g143
sg144
I0
stRp916
sg146
g147
sg148
F1
sg149
Nsg30
S'MguilB'
p917
sbag1
(g2
g3
NtRp918
(dp919
g6
g1
(g7
g3
NtRp920
(dp921
g10
g1
(g11
g12
(dtRp922
sg14
g1
(g11
g12
(dtRp923
sg16
g1
(g11
g12
(dtRp924
sg18
g1
(g11
g12
(dtRp925
sg20
g1
(g11
g12
(dtRp926
sg22
g1
(g11
g12
(dtRp927
sbsg24
S'Mgu'
p928
sg26
g27
((lp929
g29
ag30
aS'sequence'
p930
ag32
ag33
aS'species'
p931
atRp932
sg37
(lp933
sg120
g884
sg121
S'RWLSTKDLYSRMELGNFNQNVHAMFVMPIGFGNPMGDMFARLNNSFWLPPLSLEGAGTGWTVYPPLSHSGPSVDMAFHLTSSLLGAMNFTNMRGPLFWTALLLLSLPVLAGTLLDRNFNTFEGGDPLYHLFWFFGHPEVYMMPGFGSHSTYKKFGMYASIGLGFVWSHHMYVGLDDRAYFTSATMMAPTGMKFSWLSTYGGRPMLAFLFLFTGGTGVLNASDAFHDTYYVVHFHYVLSMGAFSLGYYYWPGLYNWFWFNFPMHFLGGMPRRPYPDAGWNSGSSKQLGPDESNEPH'
p934
sg123
F0.0020100000000000001
sg124
g125
sg33
S'79'
p935
sg127
g1
(g128
g12
(dp936
g130
I4
sg131
g132
sg133
g134
sg135
g132
sg136
I01
sg34
g137
sg138
g134
sg139
I0
sg140
I0
sg141
I0
sg142
g134
sg35
g143
sg144
I0
stRp937
sg146
g147
sg148
F1
sg149
Nsg30
S'MguilA'
p938
sbasg120
g850
sg123
F0.25231999999999999
sg124
g125
sg33
S'82'
p939
sg127
g1
(g128
g12
(dp940
g130
I6
sg131
g132
sg133
g134
sg135
g132
sg136
I01
sg34
g174
sg138
g134
sg139
I0
sg140
I0
sg141
I0
sg142
g134
sg35
g175
sg144
I0
stRp941
sg146
g147
sg148
F0.98999999999999999
sg149
Nsg30
S'NoName'
p942
sbasg120
g778
sg123
F0.090679999999999997
sg124
g125
sg33
S'106'
p943
sg127
g1
(g128
g12
(dp944
g130
I6
sg131
g132
sg133
g134
sg135
g132
sg136
I01
sg34
g174
sg138
g134
sg139
I0
sg140
I0
sg141
I0
sg142
g134
sg35
g175
sg144
I0
stRp945
sg146
g147
sg148
F0.98999999999999999
sg149
Nsg30
S'NoName'
p946
sbasg120
g706
sg123
F0.032190000000000003
sg124
g125
sg33
S'96'
p947
sg127
g1
(g128
g12
(dp948
g130
I6
sg131
g132
sg133
g134
sg135
g132
sg136
I01
sg34
g174
sg138
g134
sg139
I0
sg140
I0
sg141
I0
sg142
g134
sg35
g175
sg144
I0
stRp949
sg146
g147
sg148
F0.64000000000000001
sg149
Nsg30
S'NoName'
p950
sbasg120
g693
sg123
F0.12181
sg124
g125
sg33
S'97'
p951
sg127
g1
(g128
g12
(dp952
g130
I6
sg131
g132
sg133
g134
sg135
g132
sg136
I01
sg34
g174
sg138
g134
sg139
I0
sg140
I0
sg141
I0
sg142
g134
sg35
g175
sg144
I0
stRp953
sg146
g147
sg148
F0.98999999999999999
sg149
Nsg30
S'NoName'
p954
sbag1
(g2
g3
NtRp955
(dp956
g6
g1
(g7
g3
NtRp957
(dp958
g10
g1
(g11
g12
(dtRp959
sg14
g1
(g11
g12
(dtRp960
sg16
g1
(g11
g12
(dtRp961
sg18
g1
(g11
g12
(dtRp962
sg20
g1
(g11
g12
(dtRp963
sg22
g1
(g11
g12
(dtRp964
sbsg24
g25
sg26
g27
((lp965
g33
ag32
ag29
ag30
atRp966
sg37
(lp967
g1
(g2
g3
NtRp968
(dp969
g6
g1
(g7
g3
NtRp970
(dp971
g10
g1
(g11
g12
(dtRp972
sg14
g1
(g11
g12
(dtRp973
sg16
g1
(g11
g12
(dtRp974
sg18
g1
(g11
g12
(dtRp975
sg20
g1
(g11
g12
(dtRp976
sg22
g1
(g11
g12
(dtRp977
sbsg24
g25
sg26
g27
((lp978
g33
ag32
ag29
ag30
atRp979
sg37
(lp980
g1
(g2
g3
NtRp981
(dp982
g6
g1
(g7
g3
NtRp983
(dp984
g10
g1
(g11
g12
(dtRp985
sg14
g1
(g11
g12
(dtRp986
sg16
g1
(g11
g12
(dtRp987
sg18
g1
(g11
g12
(dtRp988
sg20
g1
(g11
g12
(dtRp989
sg22
g1
(g11
g12
(dtRp990
sbsg24
S'Cbl'
p991
sg26
g27
((lp992
g29
ag30
aS'sequence'
p993
ag32
ag33
aS'species'
p994
atRp995
sg37
(lp996
sg120
g968
sg121
S'RWLSTKDLYSRLELANLNQNVHAMFVMPLGMGNPMGDMFARLNNSFWLPPLSLEGPGTGWTLYAPLSHSGPSVDMAFHLTSSLLGAINFTNMRGPLYWTALLLLSLPVLAATLLDRNFNTFEGGDPLYHLFWFFGHPEVYMIPGFGSHSTYKKFGMYASIGLGFVWSHHMYVGLDDRAYFTSATMIAPTGIKFSWMATYGGRPMLAFLFLFTGGTGVLNASDAFHDTYYVVHFHYVLSMGAFSLGYYYWPGLYNLFWFNFPMHFLGGMPRRPYPDAGWNSGSSYQLGPDESNEPH'
p997
sg123
F0.36785000000000001
sg124
g125
sg33
S'85'
p998
sg127
g1
(g128
g12
(dp999
g130
I4
sg131
g132
sg133
g134
sg135
g132
sg136
I01
sg34
g137
sg138
g134
sg139
I0
sg140
I0
sg141
I0
sg142
g134
sg35
g143
sg144
I0
stRp1000
sg146
g147
sg148
F1
sg149
Nsg30
S'CblacA'
p1001
sbag1
(g2
g3
NtRp1002
(dp1003
g6
g1
(g7
g3
NtRp1004
(dp1005
g10
g1
(g11
g12
(dtRp1006
sg14
g1
(g11
g12
(dtRp1007
sg16
g1
(g11
g12
(dtRp1008
sg18
g1
(g11
g12
(dtRp1009
sg20
g1
(g11
g12
(dtRp1010
sg22
g1
(g11
g12
(dtRp1011
sbsg24
g25
sg26
g27
((lp1012
g33
ag32
ag29
ag30
atRp1013
sg37
(lp1014
g1
(g2
g3
NtRp1015
(dp1016
g6
g1
(g7
g3
NtRp1017
(dp1018
g10
g1
(g11
g12
(dtRp1019
sg14
g1
(g11
g12
(dtRp1020
sg16
g1
(g11
g12
(dtRp1021
sg18
g1
(g11
g12
(dtRp1022
sg20
g1
(g11
g12
(dtRp1023
sg22
g1
(g11
g12
(dtRp1024
sbsg24
g25
sg26
g27
((lp1025
g33
ag32
ag29
ag30
atRp1026
sg37
(lp1027
g1
(g2
g3
NtRp1028
(dp1029
g6
g1
(g7
g3
NtRp1030
(dp1031
g10
g1
(g11
g12
(dtRp1032
sg14
g1
(g11
g12
(dtRp1033
sg16
g1
(g11
g12
(dtRp1034
sg18
g1
(g11
g12
(dtRp1035
sg20
g1
(g11
g12
(dtRp1036
sg22
g1
(g11
g12
(dtRp1037
sbsg24
g25
sg26
g27
((lp1038
g33
ag32
ag29
ag30
atRp1039
sg37
(lp1040
g1
(g2
g3
NtRp1041
(dp1042
g6
g1
(g7
g3
NtRp1043
(dp1044
g10
g1
(g11
g12
(dtRp1045
sg14
g1
(g11
g12
(dtRp1046
sg16
g1
(g11
g12
(dtRp1047
sg18
g1
(g11
g12
(dtRp1048
sg20
g1
(g11
g12
(dtRp1049
sg22
g1
(g11
g12
(dtRp1050
sbsg24
g25
sg26
g27
((lp1051
g33
ag32
ag29
ag30
atRp1052
sg37
(lp1053
g1
(g2
g3
NtRp1054
(dp1055
g6
g1
(g7
g3
NtRp1056
(dp1057
g10
g1
(g11
g12
(dtRp1058
sg14
g1
(g11
g12
(dtRp1059
sg16
g1
(g11
g12
(dtRp1060
sg18
g1
(g11
g12
(dtRp1061
sg20
g1
(g11
g12
(dtRp1062
sg22
g1
(g11
g12
(dtRp1063
sbsg24
S'Lel'
p1064
sg26
g27
((lp1065
g29
ag30
aS'sequence'
p1066
ag32
ag33
aS'species'
p1067
atRp1068
sg37
(lp1069
sg120
g1041
sg121
S'RWLSTKDLYSRLELPGLDQNVHAMFVMPLGFGNPMGDMFARLNNSFWLPPLSLEGAGTGWTVYPPLSHSGPSVDLAFHLTSSLLGAINFTNMRGPLYWTALLLFSLPVLAGTLLDRNFNTFDGGDPLYHLFWFFGHPEVYIIPGFGSHSTYKKFGMYASIGLGFVWSHHMYVGLDDRAYFTSATMIAPTGIKFSWLATYGGRPMLAFLFLFTGGTGVLNASDAFHDTYYTVHFHYVLSMGAFSLGYYYWYGLYNLFWFNFPMHFLGGMPRRPYPDAGWNSGSSYQLGPDESNEPH'
p1070
sg123
F0.18278
sg124
g125
sg33
S'77'
p1071
sg127
g1
(g128
g12
(dp1072
g130
I4
sg131
g132
sg133
g134
sg135
g132
sg136
I01
sg34
g137
sg138
g134
sg139
I0
sg140
I0
sg141
I0
sg142
g134
sg35
g143
sg144
I0
stRp1073
sg146
g147
sg148
F1
sg149
Nsg30
S'LelonA'
p1074
sbag1
(g2
g3
NtRp1075
(dp1076
g6
g1
(g7
g3
NtRp1077
(dp1078
g10
g1
(g11
g12
(dtRp1079
sg14
g1
(g11
g12
(dtRp1080
sg16
g1
(g11
g12
(dtRp1081
sg18
g1
(g11
g12
(dtRp1082
sg20
g1
(g11
g12
(dtRp1083
sg22
g1
(g11
g12
(dtRp1084
sbsg24
S'Cox'
p1085
sg26
g27
((lp1086
g29
ag30
aS'sequence'
p1087
ag32
ag33
aS'species'
p1088
atRp1089
sg37
(lp1090
sg120
g1041
sg121
S'RWLSTKDLYSRLELSGLDQNVHAMFVMPIGFGNPMGDMFARLNNSFWLPPLSLEGPGVGWTVYPPLSHSGPSVDLAFHLTSSLLGAINFTNMRGPLYWTALLLLSLPVLAGTLLDRNFNTFDGGDPLYHLFWFFGHPEVYMIPGFGSHATYKKFGMYASIGLGFVWSHHMYVGLDDRAYFTSATMIAPTGIKFSWLATYGGRPMLAFLFLFTGGTGILNASDAFHDTYYTVHFHYVLSMGAFSLGYYLWYGLYNIFWFNFPMHFLGGMPRRPYPDAGWNSGSSYQLGPDESNEPH'
p1091
sg123
F0.17860000000000001
sg124
g125
sg33
S'15'
p1092
sg127
g1
(g128
g12
(dp1093
g130
I4
sg131
g132
sg133
g134
sg135
g132
sg136
I01
sg34
g137
sg138
g134
sg139
I0
sg140
I0
sg141
I0
sg142
g134
sg35
g143
sg144
I0
stRp1094
sg146
g147
sg148
F1
sg149
Nsg30
S'CoxycA'
p1095
sbasg120
g1028
sg123
F0.041480000000000003
sg124
g125
sg33
S'19'
p1096
sg127
g1
(g128
g12
(dp1097
g130
I6
sg131
g132
sg133
g134
sg135
g132
sg136
I01
sg34
g174
sg138
g134
sg139
I0
sg140
I0
sg141
I0
sg142
g134
sg35
g175
sg144
I0
stRp1098
sg146
g147
sg148
F0.98999999999999999
sg149
Nsg30
S'NoName'
p1099
sbag1
(g2
g3
NtRp1100
(dp1101
g6
g1
(g7
g3
NtRp1102
(dp1103
g10
g1
(g11
g12
(dtRp1104
sg14
g1
(g11
g12
(dtRp1105
sg16
g1
(g11
g12
(dtRp1106
sg18
g1
(g11
g12
(dtRp1107
sg20
g1
(g11
g12
(dtRp1108
sg22
g1
(g11
g12
(dtRp1109
sbsg24
g25
sg26
g27
((lp1110
g33
ag32
ag29
ag30
atRp1111
sg37
(lp1112
g1
(g2
g3
NtRp1113
(dp1114
g6
g1
(g7
g3
NtRp1115
(dp1116
g10
g1
(g11
g12
(dtRp1117
sg14
g1
(g11
g12
(dtRp1118
sg16
g1
(g11
g12
(dtRp1119
sg18
g1
(g11
g12
(dtRp1120
sg20
g1
(g11
g12
(dtRp1121
sg22
g1
(g11
g12
(dtRp1122
sbsg24
g25
sg26
g27
((lp1123
g33
ag32
ag29
ag30
atRp1124
sg37
(lp1125
g1
(g2
g3
NtRp1126
(dp1127
g6
g1
(g7
g3
NtRp1128
(dp1129
g10
g1
(g11
g12
(dtRp1130
sg14
g1
(g11
g12
(dtRp1131
sg16
g1
(g11
g12
(dtRp1132
sg18
g1
(g11
g12
(dtRp1133
sg20
g1
(g11
g12
(dtRp1134
sg22
g1
(g11
g12
(dtRp1135
sbsg24
g25
sg26
g27
((lp1136
g33
ag32
ag29
ag30
atRp1137
sg37
(lp1138
g1
(g2
g3
NtRp1139
(dp1140
g6
g1
(g7
g3
NtRp1141
(dp1142
g10
g1
(g11
g12
(dtRp1143
sg14
g1
(g11
g12
(dtRp1144
sg16
g1
(g11
g12
(dtRp1145
sg18
g1
(g11
g12
(dtRp1146
sg20
g1
(g11
g12
(dtRp1147
sg22
g1
(g11
g12
(dtRp1148
sbsg24
S'Cth'
p1149
sg26
g27
((lp1150
g29
ag30
aS'sequence'
p1151
ag32
ag33
aS'species'
p1152
atRp1153
sg37
(lp1154
sg120
g1126
sg121
S'RWLSTKDLYSRLELPGLNQNVHAMFVMPLGFGNPMGDMFARLNNSFWLPPLSLEGAGTGWTVYPPLSHSGPSVDLAFHLTSSLLGAINFTNMRGPLYWTALLLLSLPVLAGTLLDRNFNTFEGGDPLYHLFWFFGHPEVYIIPGFGSHSTYKKFGMYASIGLGFVWSHHMYVGLDDRAYFTSATMIAPTGIKFSWLATYGGRPMLAFLFLFTGGTGVLNASDAFHDTYYTVHFHYVLSMGAFSLGYYYWYGLYNLFWFNFPMHFLGGMPRRPYPDAGWNSGSSYQLGPDESNEPH'
p1155
sg123
F0.010059999999999999
sg124
g125
sg33
S'23'
p1156
sg127
g1
(g128
g12
(dp1157
g130
I4
sg131
g132
sg133
g134
sg135
g132
sg136
I01
sg34
g137
sg138
g134
sg139
I0
sg140
I0
sg141
I0
sg142
g134
sg35
g143
sg144
I0
stRp1158
sg146
g147
sg148
F1
sg149
Nsg30
S'CtheaA'
p1159
sbag1
(g2
g3
NtRp1160
(dp1161
g6
g1
(g7
g3
NtRp1162
(dp1163
g10
g1
(g11
g12
(dtRp1164
sg14
g1
(g11
g12
(dtRp1165
sg16
g1
(g11
g12
(dtRp1166
sg18
g1
(g11
g12
(dtRp1167
sg20
g1
(g11
g12
(dtRp1168
sg22
g1
(g11
g12
(dtRp1169
sbsg24
g25
sg26
g27
((lp1170
g33
ag32
ag29
ag30
atRp1171
sg37
(lp1172
g1
(g2
g3
NtRp1173
(dp1174
g6
g1
(g7
g3
NtRp1175
(dp1176
g10
g1
(g11
g12
(dtRp1177
sg14
g1
(g11
g12
(dtRp1178
sg16
g1
(g11
g12
(dtRp1179
sg18
g1
(g11
g12
(dtRp1180
sg20
g1
(g11
g12
(dtRp1181
sg22
g1
(g11
g12
(dtRp1182
sbsg24
g25
sg26
g27
((lp1183
g33
ag32
ag29
ag30
atRp1184
sg37
(lp1185
g1
(g2
g3
NtRp1186
(dp1187
g6
g1
(g7
g3
NtRp1188
(dp1189
g10
g1
(g11
g12
(dtRp1190
sg14
g1
(g11
g12
(dtRp1191
sg16
g1
(g11
g12
(dtRp1192
sg18
g1
(g11
g12
(dtRp1193
sg20
g1
(g11
g12
(dtRp1194
sg22
g1
(g11
g12
(dtRp1195
sbsg24
g25
sg26
g27
((lp1196
g33
ag32
ag29
ag30
atRp1197
sg37
(lp1198
g1
(g2
g3
NtRp1199
(dp1200
g6
g1
(g7
g3
NtRp1201
(dp1202
g10
g1
(g11
g12
(dtRp1203
sg14
g1
(g11
g12
(dtRp1204
sg16
g1
(g11
g12
(dtRp1205
sg18
g1
(g11
g12
(dtRp1206
sg20
g1
(g11
g12
(dtRp1207
sg22
g1
(g11
g12
(dtRp1208
sbsg24
S'Cor'
p1209
sg26
g27
((lp1210
g29
ag30
aS'sequence'
p1211
ag32
ag33
aS'species'
p1212
atRp1213
sg37
(lp1214
sg120
g1186
sg121
S'RWLSTKDLYSRLELPGLNQNVHAMFVMPLGFGNPMGDMFARLNNSFWLPPLSLEGAGTGWTVYPPLSHSGPSVDLAFHLTSSLLGAINFTNMRGPLFWTALLLLSLPVLAGTLLDRNFNTFEGGDPLYHLFWFFGHPEVYIIPGFGSHSTYKKFGMYASIGLGFVWSHHMYVGLDDRAYFTSATMIAPTGIKFSWLATYGGRPMLAFLFLFTGGTGVLNASDAFHDTYYTVHFHYVLSMGAFSLGYYYWYGLYNLFWFNFPMHFLGGMPRRPYPDAGWNSGSSYQLGPDESNEPH'
p1215
sg123
F0.00132
sg124
g125
sg33
S'2'
sg127
g1
(g128
g12
(dp1216
g130
I4
sg131
g132
sg133
g134
sg135
g132
sg136
I01
sg34
g137
sg138
g134
sg139
I0
sg140
I0
sg141
I0
sg142
g134
sg35
g143
sg144
I0
stRp1217
sg146
g147
sg148
F1
sg149
Nsg30
S'CorthC'
p1218
sbag1
(g2
g3
NtRp1219
(dp1220
g6
g1
(g7
g3
NtRp1221
(dp1222
g10
g1
(g11
g12
(dtRp1223
sg14
g1
(g11
g12
(dtRp1224
sg16
g1
(g11
g12
(dtRp1225
sg18
g1
(g11
g12
(dtRp1226
sg20
g1
(g11
g12
(dtRp1227
sg22
g1
(g11
g12
(dtRp1228
sbsg24
S'Cor'
p1229
sg26
g27
((lp1230
g29
ag30
aS'sequence'
p1231
ag32
ag33
aS'species'
p1232
atRp1233
sg37
(lp1234
sg120
g1186
sg121
S'RWLSTKDLYSRLELPGLNQNVHAMFVMPLGFGNPMGDMFARLNNSFWLPPLSLEGAGTGWTVYPPLSHSGPSVDLAFHLTSSLLGAINFTNMRGPLFWTALLLLSLPVLAGTLLDRNFNTFEGGDPLYHLFWFFGHPEVYIIPGFGSHSTYKKFGMYASIGLGFVWSHHMYVGLDDRAYFTSATMIAPTGIKFSWLATYGGRPMLAFLFLFTGGTGVLNASDAFHDTYYTVHFHYVLSMGAFSLGYYYWYGLYNLFWFNFPMHFLGGMPRRPYPDAGWNSGSSYQLGPDESNEPH'
p1235
sg123
F0.00093000000000000005
sg124
g125
sg33
S'52'
p1236
sg127
g1
(g128
g12
(dp1237
g130
I4
sg131
g132
sg133
g134
sg135
g132
sg136
I01
sg34
g137
sg138
g134
sg139
I0
sg140
I0
sg141
I0
sg142
g134
sg35
g143
sg144
I0
stRp1238
sg146
g147
sg148
F1
sg149
Nsg30
S'CorthB'
p1239
sbasg120
g1173
sg123
F0.00052999999999999998
sg124
g125
sg33
S'4'
sg127
g1
(g128
g12
(dp1240
g130
I6
sg131
g132
sg133
g134
sg135
g132
sg136
I01
sg34
g174
sg138
g134
sg139
I0
sg140
I0
sg141
I0
sg142
g134
sg35
g175
sg144
I0
stRp1241
sg146
g147
sg148
F0.85999999999999999
sg149
Nsg30
S'NoName'
p1242
sbag1
(g2
g3
NtRp1243
(dp1244
g6
g1
(g7
g3
NtRp1245
(dp1246
g10
g1
(g11
g12
(dtRp1247
sg14
g1
(g11
g12
(dtRp1248
sg16
g1
(g11
g12
(dtRp1249
sg18
g1
(g11
g12
(dtRp1250
sg20
g1
(g11
g12
(dtRp1251
sg22
g1
(g11
g12
(dtRp1252
sbsg24
S'Cor'
p1253
sg26
g27
((lp1254
g29
ag30
aS'sequence'
p1255
ag32
ag33
aS'species'
p1256
atRp1257
sg37
(lp1258
sg120
g1173
sg121
S'RWLSTKDLYSRLELPGLNQNVHAMFVMPLGFGNPMGDMFARLNNSFWLPPLSLEGAGTGWTVYPPLSHSGPSVDLAFHLTSSLLGAINFTNMRGPLFWTALLLLSLPVLAGTLLDRNFNTFEGGDPLYHLFWFFGHPEVYIIPGFGSHSTYKKFGMYASIGLGFVWSHHMYVGLDDRAYFTSATMIAPTGIKFSWLATYGGRPMLAFLFLFTGGTGVLNASDAFHDTYYTVHFHYVLSMGAFSLGYYYWYGLYNLFWFNFPMHFLGGMPRRPYPDAGWNSGSSYQLGPDESNEPH'
p1259
sg123
F0.0021099999999999999
sg124
g125
sg33
S'59'
p1260
sg127
g1
(g128
g12
(dp1261
g130
I4
sg131
g132
sg133
g134
sg135
g132
sg136
I01
sg34
g137
sg138
g134
sg139
I0
sg140
I0
sg141
I0
sg142
g134
sg35
g143
sg144
I0
stRp1262
sg146
g147
sg148
F1
sg149
Nsg30
S'CorthA'
p1263
sbasg120
g1160
sg123
F0.0031199999999999999
sg124
g125
sg33
S'25'
p1264
sg127
g1
(g128
g12
(dp1265
g130
I6
sg131
g132
sg133
g134
sg135
g132
sg136
I01
sg34
g174
sg138
g134
sg139
I0
sg140
I0
sg141
I0
sg142
g134
sg35
g175
sg144
I0
stRp1266
sg146
g147
sg148
F0.98999999999999999
sg149
Nsg30
S'NoName'
p1267
sbag1
(g2
g3
NtRp1268
(dp1269
g6
g1
(g7
g3
NtRp1270
(dp1271
g10
g1
(g11
g12
(dtRp1272
sg14
g1
(g11
g12
(dtRp1273
sg16
g1
(g11
g12
(dtRp1274
sg18
g1
(g11
g12
(dtRp1275
sg20
g1
(g11
g12
(dtRp1276
sg22
g1
(g11
g12
(dtRp1277
sbsg24
g25
sg26
g27
((lp1278
g33
ag32
ag29
ag30
atRp1279
sg37
(lp1280
g1
(g2
g3
NtRp1281
(dp1282
g6
g1
(g7
g3
NtRp1283
(dp1284
g10
g1
(g11
g12
(dtRp1285
sg14
g1
(g11
g12
(dtRp1286
sg16
g1
(g11
g12
(dtRp1287
sg18
g1
(g11
g12
(dtRp1288
sg20
g1
(g11
g12
(dtRp1289
sg22
g1
(g11
g12
(dtRp1290
sbsg24
g25
sg26
g27
((lp1291
g33
ag32
ag29
ag30
atRp1292
sg37
(lp1293
g1
(g2
g3
NtRp1294
(dp1295
g6
g1
(g7
g3
NtRp1296
(dp1297
g10
g1
(g11
g12
(dtRp1298
sg14
g1
(g11
g12
(dtRp1299
sg16
g1
(g11
g12
(dtRp1300
sg18
g1
(g11
g12
(dtRp1301
sg20
g1
(g11
g12
(dtRp1302
sg22
g1
(g11
g12
(dtRp1303
sbsg24
S'Cpa'
p1304
sg26
g27
((lp1305
g29
ag30
aS'sequence'
p1306
ag32
ag33
aS'species'
p1307
atRp1308
sg37
(lp1309
sg120
g1281
sg121
S'RWLSTKDLYSRLELPGLNQNVHAMFVMPLGFGNPMGDMFARLNNSFWLPPLSLEGAGTGWTVYPPLSHSGPSVDLAFHLTSSLLGAINFTNMRGPLFWTALLLLSLPVLAGTLLDRNFNTFEGGDPLYHLFWFFGHPEVYIIPGFGSHSTYKKFGMYASIGLGFVWSHHMYVGLDDRAYFTSATMIAPTSIKFSWLATYGGRTALAFIFLFTGGTGVLNSADPFHDSYYVVHFHYVLSMGAFSIGWYLWPGLYNLFWFNFPMHFLGGMPRRNYPDAGWNSGSAYQLGPSGTNEPH'
p1310
sg123
F0.00012999999999999999
sg124
g125
sg33
S'56'
p1311
sg127
g1
(g128
g12
(dp1312
g130
I4
sg131
g132
sg133
g134
sg135
g132
sg136
I01
sg34
g137
sg138
g134
sg139
I0
sg140
I0
sg141
I0
sg142
g134
sg35
g143
sg144
I0
stRp1313
sg146
g147
sg148
F1
sg149
Nsg30
S'CparaD'
p1314
sbag1
(g2
g3
NtRp1315
(dp1316
g6
g1
(g7
g3
NtRp1317
(dp1318
g10
g1
(g11
g12
(dtRp1319
sg14
g1
(g11
g12
(dtRp1320
sg16
g1
(g11
g12
(dtRp1321
sg18
g1
(g11
g12
(dtRp1322
sg20
g1
(g11
g12
(dtRp1323
sg22
g1
(g11
g12
(dtRp1324
sbsg24
S'Cpa'
p1325
sg26
g27
((lp1326
g29
ag30
aS'sequence'
p1327
ag32
ag33
aS'species'
p1328
atRp1329
sg37
(lp1330
sg120
g1281
sg121
S'RWLSTKDLYSRLELPGLNQNVHAMFVMPLGFGNPMGDMFARLNNSFWLPPLSLEGAGTGWTVYPPLSHSGPSVDLAFHLTSSLLGAINFTNMRGPLFWTALLLLSLPVLAGTLLDRNFNTFEGGDPLYHLFWFFGHPEVYIIPGFGSHSTYKKFGMYASIGLGFVWSHHMYVGLDDRAYFTSATMIAPTGIKFSWLATYGGRPMLAFLFLFTGGTGVVNASDAFHDTYYVVHFHYVLSMGAFSLGYYYWYGLYNLFWFNFPMHFLGGMPRRPYPDAGWNSGSSYSLGPDESNEPH'
p1331
sg123
F0.00012999999999999999
sg124
g125
sg33
S'58'
p1332
sg127
g1
(g128
g12
(dp1333
g130
I4
sg131
g132
sg133
g134
sg135
g132
sg136
I01
sg34
g137
sg138
g134
sg139
I0
sg140
I0
sg141
I0
sg142
g134
sg35
g143
sg144
I0
stRp1334
sg146
g147
sg148
F1
sg149
Nsg30
S'CparaB'
p1335
sbasg120
g1268
sg123
F0.00051000000000000004
sg124
g125
sg33
S'57'
p1336
sg127
g1
(g128
g12
(dp1337
g130
I6
sg131
g132
sg133
g134
sg135
g132
sg136
I01
sg34
g174
sg138
g134
sg139
I0
sg140
I0
sg141
I0
sg142
g134
sg35
g175
sg144
I0
stRp1338
sg146
g147
sg148
F0.98999999999999999
sg149
Nsg30
S'NoName'
p1339
sbag1
(g2
g3
NtRp1340
(dp1341
g6
g1
(g7
g3
NtRp1342
(dp1343
g10
g1
(g11
g12
(dtRp1344
sg14
g1
(g11
g12
(dtRp1345
sg16
g1
(g11
g12
(dtRp1346
sg18
g1
(g11
g12
(dtRp1347
sg20
g1
(g11
g12
(dtRp1348
sg22
g1
(g11
g12
(dtRp1349
sbsg24
S'Cpa'
p1350
sg26
g27
((lp1351
g29
ag30
aS'sequence'
p1352
ag32
ag33
aS'species'
p1353
atRp1354
sg37
(lp1355
sg120
g1268
sg121
S'RWLSTKDLYSRLELPGLNQNVHAMFVMPLGFGNPMGDMFARLNNSFWLPPLSLEGAGTGWTVYPPLSHSGPSVDLAFHLTSSLLGAINFTNMRGPLFWTALLLLSLPVLAGTLLDRNFNTFEGGDPLYHLFWFFGHPEVYIIPGFGSHSTYKKFGMYASIGLGFVWSHHMYVGLDDRAYFTSATMIAPTGIKFSWLATYGGRPMLAFLFLFTGGTGVVNASDAFHDTYYVVHFHYVLSMGAFSLGYYYWYGLYNLFWFNFPMHFLGGMPRRPYPDAGWNSGSSYSLGPDESNEPH'
p1356
sg123
F0.00012
sg124
g125
sg33
S'65'
p1357
sg127
g1
(g128
g12
(dp1358
g130
I4
sg131
g132
sg133
g134
sg135
g132
sg136
I01
sg34
g137
sg138
g134
sg139
I0
sg140
I0
sg141
I0
sg142
g134
sg35
g143
sg144
I0
stRp1359
sg146
g147
sg148
F1
sg149
Nsg30
S'CparaC'
p1360
sbasg120
g1160
sg123
F1.0000000000000001e-05
sg124
g125
sg33
S'1'
sg127
g1
(g128
g12
(dp1361
g130
I6
sg131
g132
sg133
g134
sg135
g132
sg136
I01
sg34
g174
sg138
g134
sg139
I0
sg140
I0
sg141
I0
sg142
g134
sg35
g175
sg144
I0
stRp1362
sg146
g147
sg148
F1
sg149
Nsg30
S'NoName'
p1363
sbasg120
g1126
sg123
F0.0032599999999999999
sg124
g125
sg33
S'21'
p1364
sg127
g1
(g128
g12
(dp1365
g130
I6
sg131
g132
sg133
g134
sg135
g132
sg136
I01
sg34
g174
sg138
g134
sg139
I0
sg140
I0
sg141
I0
sg142
g134
sg35
g175
sg144
I0
stRp1366
sg146
g147
sg148
F0.97999999999999998
sg149
Nsg30
S'NoName'
p1367
sbasg120
g1113
sg123
F1.0000000000000001e-05
sg124
g125
sg33
S'26'
p1368
sg127
g1
(g128
g12
(dp1369
g130
I6
sg131
g132
sg133
g134
sg135
g132
sg136
I01
sg34
g174
sg138
g134
sg139
I0
sg140
I0
sg141
I0
sg142
g134
sg35
g175
sg144
I0
stRp1370
sg146
g147
sg148
F1
sg149
Nsg30
S'NoName'
p1371
sbag1
(g2
g3
NtRp1372
(dp1373
g6
g1
(g7
g3
NtRp1374
(dp1375
g10
g1
(g11
g12
(dtRp1376
sg14
g1
(g11
g12
(dtRp1377
sg16
g1
(g11
g12
(dtRp1378
sg18
g1
(g11
g12
(dtRp1379
sg20
g1
(g11
g12
(dtRp1380
sg22
g1
(g11
g12
(dtRp1381
sbsg24
g25
sg26
g27
((lp1382
g33
ag32
ag29
ag30
atRp1383
sg37
(lp1384
g1
(g2
g3
NtRp1385
(dp1386
g6
g1
(g7
g3
NtRp1387
(dp1388
g10
g1
(g11
g12
(dtRp1389
sg14
g1
(g11
g12
(dtRp1390
sg16
g1
(g11
g12
(dtRp1391
sg18
g1
(g11
g12
(dtRp1392
sg20
g1
(g11
g12
(dtRp1393
sg22
g1
(g11
g12
(dtRp1394
sbsg24
g25
sg26
g27
((lp1395
g33
ag32
ag29
ag30
atRp1396
sg37
(lp1397
g1
(g2
g3
NtRp1398
(dp1399
g6
g1
(g7
g3
NtRp1400
(dp1401
g10
g1
(g11
g12
(dtRp1402
sg14
g1
(g11
g12
(dtRp1403
sg16
g1
(g11
g12
(dtRp1404
sg18
g1
(g11
g12
(dtRp1405
sg20
g1
(g11
g12
(dtRp1406
sg22
g1
(g11
g12
(dtRp1407
sbsg24
g25
sg26
g27
((lp1408
g33
ag32
ag29
ag30
atRp1409
sg37
(lp1410
g1
(g2
g3
NtRp1411
(dp1412
g6
g1
(g7
g3
NtRp1413
(dp1414
g10
g1
(g11
g12
(dtRp1415
sg14
g1
(g11
g12
(dtRp1416
sg16
g1
(g11
g12
(dtRp1417
sg18
g1
(g11
g12
(dtRp1418
sg20
g1
(g11
g12
(dtRp1419
sg22
g1
(g11
g12
(dtRp1420
sbsg24
g25
sg26
g27
((lp1421
g33
ag32
ag29
ag30
atRp1422
sg37
(lp1423
g1
(g2
g3
NtRp1424
(dp1425
g6
g1
(g7
g3
NtRp1426
(dp1427
g10
g1
(g11
g12
(dtRp1428
sg14
g1
(g11
g12
(dtRp1429
sg16
g1
(g11
g12
(dtRp1430
sg18
g1
(g11
g12
(dtRp1431
sg20
g1
(g11
g12
(dtRp1432
sg22
g1
(g11
g12
(dtRp1433
sbsg24
g25
sg26
g27
((lp1434
g33
ag32
ag29
ag30
atRp1435
sg37
(lp1436
g1
(g2
g3
NtRp1437
(dp1438
g6
g1
(g7
g3
NtRp1439
(dp1440
g10
g1
(g11
g12
(dtRp1441
sg14
g1
(g11
g12
(dtRp1442
sg16
g1
(g11
g12
(dtRp1443
sg18
g1
(g11
g12
(dtRp1444
sg20
g1
(g11
g12
(dtRp1445
sg22
g1
(g11
g12
(dtRp1446
sbsg24
S'Cme'
p1447
sg26
g27
((lp1448
g29
ag30
aS'sequence'
p1449
ag32
ag33
aS'species'
p1450
atRp1451
sg37
(lp1452
sg120
g1424
sg121
S'RWLSTKDLYSRLELPGLNQNVHAMFVMPLGFGNPMGDMFARLNNSFWLPPLSLEGAGTGWTVYPPLSHSGPSVDLAFHLTSSLLGAINFTNMRGPLYWTALLLLSLPVLAGTLLDRNFNTFEGGDPLYHLFWFFGHPEVYIIPGFGSHSTYKKFGMYASIGLGFVWSHHMYVGLDDRAYFTSATMIAPTGIKFSWLATYGGRPMLAFLFLFTGGTGVLNASDAFHDTYYVVHFHYVLSMGAFSLGYYYWYGLYNLFWFNFPMHFLGGMPRRPYPDAGWNSGSSYQLGPDESNEPH'
p1453
sg123
F0.00012999999999999999
sg124
g125
sg33
S'24'
p1454
sg127
g1
(g128
g12
(dp1455
g130
I4
sg131
g132
sg133
g134
sg135
g132
sg136
I01
sg34
g137
sg138
g134
sg139
I0
sg140
I0
sg141
I0
sg142
g134
sg35
g143
sg144
I0
stRp1456
sg146
g147
sg148
F1
sg149
Nsg30
S'CmetaF'
p1457
sbag1
(g2
g3
NtRp1458
(dp1459
g6
g1
(g7
g3
NtRp1460
(dp1461
g10
g1
(g11
g12
(dtRp1462
sg14
g1
(g11
g12
(dtRp1463
sg16
g1
(g11
g12
(dtRp1464
sg18
g1
(g11
g12
(dtRp1465
sg20
g1
(g11
g12
(dtRp1466
sg22
g1
(g11
g12
(dtRp1467
sbsg24
S'Cme'
p1468
sg26
g27
((lp1469
g29
ag30
aS'sequence'
p1470
ag32
ag33
aS'species'
p1471
atRp1472
sg37
(lp1473
sg120
g1424
sg121
S'RWLSTKDLYSRLELPGLNQNVHAMFVMPLGFGNPMGDMFARLNNSFWLPPLSLEGAGTGWTVYPPLSHSGPSVDLAFHLTSSLLGAINFTNMRGPLYWTALLLLSLPVLAGTLLDRNFNTFEGGDPLYHLFWFFGHPEVYIIPGFGSHSTYKKFGMYASIGLGFVWSHHMYVGLDDRAYFTSATMIAPTGIKFSWLATYGGRPMLAFLFLFTGGTGVLNASDAFHDTYYVVHFHYVLSMGAFSLGYYYWYGLYNLFWFNFPMHFLGGMPRRPYPDAGWNSGSSYQLGPDESNEPH'
p1474
sg123
F0.00012
sg124
g125
sg33
S'12'
p1475
sg127
g1
(g128
g12
(dp1476
g130
I4
sg131
g132
sg133
g134
sg135
g132
sg136
I01
sg34
g137
sg138
g134
sg139
I0
sg140
I0
sg141
I0
sg142
g134
sg35
g143
sg144
I0
stRp1477
sg146
g147
sg148
F1
sg149
Nsg30
S'CmetaE'
p1478
sbasg120
g1411
sg123
F1.0000000000000001e-05
sg124
g125
sg33
S'33'
p1479
sg127
g1
(g128
g12
(dp1480
g130
I6
sg131
g132
sg133
g134
sg135
g132
sg136
I01
sg34
g174
sg138
g134
sg139
I0
sg140
I0
sg141
I0
sg142
g134
sg35
g175
sg144
I0
stRp1481
sg146
g147
sg148
F1
sg149
Nsg30
S'NoName'
p1482
sbag1
(g2
g3
NtRp1483
(dp1484
g6
g1
(g7
g3
NtRp1485
(dp1486
g10
g1
(g11
g12
(dtRp1487
sg14
g1
(g11
g12
(dtRp1488
sg16
g1
(g11
g12
(dtRp1489
sg18
g1
(g11
g12
(dtRp1490
sg20
g1
(g11
g12
(dtRp1491
sg22
g1
(g11
g12
(dtRp1492
sbsg24
S'Cme'
p1493
sg26
g27
((lp1494
g29
ag30
aS'sequence'
p1495
ag32
ag33
aS'species'
p1496
atRp1497
sg37
(lp1498
sg120
g1411
sg121
S'RWLSTKDLYSRLELPGLNQNVHAMFVMPLGFGNPMGDMFARLNNSFWLPPLSLEGAGTGWTVYPPLSHSGPSVDLAFHLTSSLLGAINFTNMRGPLYWTALLLLSLPVLAGTLLDRNFNTFEGGDPLYHLFWFFGHPEVYIIPGFGSHSTYKKFGMYASIGLGFVWSHHMYVGLDDRAYFTSATMIAPTGIKFSWLATYGGRPMLAFLFLFTGGTGVLNASDAFHDTYYVVHFHYVLSMGAFSLGYYYWYGLYNLFWFNFPMHFLGGMPRRPYPDAGWNSGSSYQLGPDESNEPH'
p1499
sg123
F0.00020000000000000001
sg124
g125
sg33
S'7'
sg127
g1
(g128
g12
(dp1500
g130
I4
sg131
g132
sg133
g134
sg135
g132
sg136
I01
sg34
g137
sg138
g134
sg139
I0
sg140
I0
sg141
I0
sg142
g134
sg35
g143
sg144
I0
stRp1501
sg146
g147
sg148
F1
sg149
Nsg30
S'CmetaD'
p1502
sbasg120
g1398
sg123
F1.0000000000000001e-05
sg124
g125
sg33
S'64'
p1503
sg127
g1
(g128
g12
(dp1504
g130
I6
sg131
g132
sg133
g134
sg135
g132
sg136
I01
sg34
g174
sg138
g134
sg139
I0
sg140
I0
sg141
I0
sg142
g134
sg35
g175
sg144
I0
stRp1505
sg146
g147
sg148
F1
sg149
Nsg30
S'NoName'
p1506
sbag1
(g2
g3
NtRp1507
(dp1508
g6
g1
(g7
g3
NtRp1509
(dp1510
g10
g1
(g11
g12
(dtRp1511
sg14
g1
(g11
g12
(dtRp1512
sg16
g1
(g11
g12
(dtRp1513
sg18
g1
(g11
g12
(dtRp1514
sg20
g1
(g11
g12
(dtRp1515
sg22
g1
(g11
g12
(dtRp1516
sbsg24
S'Cme'
p1517
sg26
g27
((lp1518
g29
ag30
aS'sequence'
p1519
ag32
ag33
aS'species'
p1520
atRp1521
sg37
(lp1522
sg120
g1398
sg121
S'RWLSTKDLYSRLELPGLNQNVHAMFVMPLGFGNPMGDMFARLNNSFWLPPLSLEGAGTGWTVYPPLSHSGPSVDLAFHLTSSLLGAINFTNMRGPLYWTALLLLSLPVLAGTLLDRNFNTFEGGDPLYHLFWFFGHPEVYIIPGFGSHSTYKKFGMYASIGLGFVWSHHMYVGLDDRAYFTSATMIAPTGIKFSWLATYGGRPMLAFLFLFTGGTGVLNASDAFHDTYYVVHFHYVLSMGAFSLGYYYWYGLYNLFWFNFPMHFLGGMPRRPYPDAGWNSGSSYQLGPDESNEPH'
p1523
sg123
F0.00052999999999999998
sg124
g125
sg33
S'8'
sg127
g1
(g128
g12
(dp1524
g130
I4
sg131
g132
sg133
g134
sg135
g132
sg136
I01
sg34
g137
sg138
g134
sg139
I0
sg140
I0
sg141
I0
sg142
g134
sg35
g143
sg144
I0
stRp1525
sg146
g147
sg148
F1
sg149
Nsg30
S'CmetaC'
p1526
sbasg120
g1385
sg123
F1.0000000000000001e-05
sg124
g125
sg33
S'62'
p1527
sg127
g1
(g128
g12
(dp1528
g130
I6
sg131
g132
sg133
g134
sg135
g132
sg136
I01
sg34
g174
sg138
g134
sg139
I0
sg140
I0
sg141
I0
sg142
g134
sg35
g175
sg144
I0
stRp1529
sg146
g147
sg148
F1
sg149
Nsg30
S'NoName'
p1530
sbag1
(g2
g3
NtRp1531
(dp1532
g6
g1
(g7
g3
NtRp1533
(dp1534
g10
g1
(g11
g12
(dtRp1535
sg14
g1
(g11
g12
(dtRp1536
sg16
g1
(g11
g12
(dtRp1537
sg18
g1
(g11
g12
(dtRp1538
sg20
g1
(g11
g12
(dtRp1539
sg22
g1
(g11
g12
(dtRp1540
sbsg24
S'Cme'
p1541
sg26
g27
((lp1542
g29
ag30
aS'sequence'
p1543
ag32
ag33
aS'species'
p1544
atRp1545
sg37
(lp1546
sg120
g1385
sg121
S'RWLSTKDLYSRLELPGLNQNVHAMFVMPLGFGNPMGDMFARLNNSFWLPPLSLEGAGTGWTVYPPLSHSGPSVDLAFHLTSSLLGAINFTNMRGPLYWTALLLLSLPVLAGTLLDRNFNTFEGGDPLYHLFWFFGHPEVYIIPGFGSHSTYKKFGMYASIGLGFVWSHHMYVGLDDRAYFTSATMIAPTGIKFSWLATYGGRPMLAFLFLFTGGTGVLNASDAFHDTYYVVHFHYVLSMGAFSLGYYYWYGLYNLFWFNFPMHFLGGMPRRPYPDAGWNSGSSYQLGPDESNEPH'
p1547
sg123
F0.00012
sg124
g125
sg33
S'67'
p1548
sg127
g1
(g128
g12
(dp1549
g130
I4
sg131
g132
sg133
g134
sg135
g132
sg136
I01
sg34
g137
sg138
g134
sg139
I0
sg140
I0
sg141
I0
sg142
g134
sg35
g143
sg144
I0
stRp1550
sg146
g147
sg148
F1
sg149
Nsg30
S'CmetaB'
p1551
sbasg120
g1372
sg123
F1.0000000000000001e-05
sg124
g125
sg33
S'61'
p1552
sg127
g1
(g128
g12
(dp1553
g130
I6
sg131
g132
sg133
g134
sg135
g132
sg136
I01
sg34
g174
sg138
g134
sg139
I0
sg140
I0
sg141
I0
sg142
g134
sg35
g175
sg144
I0
stRp1554
sg146
g147
sg148
F1
sg149
Nsg30
S'NoName'
p1555
sbag1
(g2
g3
NtRp1556
(dp1557
g6
g1
(g7
g3
NtRp1558
(dp1559
g10
g1
(g11
g12
(dtRp1560
sg14
g1
(g11
g12
(dtRp1561
sg16
g1
(g11
g12
(dtRp1562
sg18
g1
(g11
g12
(dtRp1563
sg20
g1
(g11
g12
(dtRp1564
sg22
g1
(g11
g12
(dtRp1565
sbsg24
S'Cme'
p1566
sg26
g27
((lp1567
g29
ag30
aS'sequence'
p1568
ag32
ag33
aS'species'
p1569
atRp1570
sg37
(lp1571
sg120
g1372
sg121
S'RWLSTKDLYSRLELPGLNQNVHAMFVMPLGFGNPMGDMFARLNNSFWLPPLSLEGAGTGWTVYPPLSHSGPSVDLAFHLTSSLLGAINFTNMRGPLYWTALLLLSLPVLAGTLLDRNFNTFEGGDPLYHLFWFFGHPEVYIIPGFGSHSTYKKFGMYASIGLGFVWSHHMYVGLDDRAYFTSATMIAPTGIKFSWLATYGGRPMLAFLFLFTGGTGVLNASDAFHDTYYVVHFHYVLSMGAFSLGYYYWYGLYNLFWFNFPMHFLGGMPRRPYPDAGWNSGSSYQLGPDESNEPH'
p1572
sg123
F0.00012999999999999999
sg124
g125
sg33
S'155'
p1573
sg127
g1
(g128
g12
(dp1574
g130
I4
sg131
g132
sg133
g134
sg135
g132
sg136
I01
sg34
g137
sg138
g134
sg139
I0
sg140
I0
sg141
I0
sg142
g134
sg35
g143
sg144
I0
stRp1575
sg146
g147
sg148
F1
sg149
Nsg30
S'CmetaA'
p1576
sbasg120
g1113
sg123
F0.020930000000000001
sg124
g125
sg33
S'54'
p1577
sg127
g1
(g128
g12
(dp1578
g130
I6
sg131
g132
sg133
g134
sg135
g132
sg136
I01
sg34
g174
sg138
g134
sg139
I0
sg140
I0
sg141
I0
sg142
g134
sg35
g175
sg144
I0
stRp1579
sg146
g147
sg148
F0.98999999999999999
sg149
Nsg30
S'NoName'
p1580
sbasg120
g1100
sg123
F0.045289999999999997
sg124
g125
sg33
S'18'
p1581
sg127
g1
(g128
g12
(dp1582
g130
I6
sg131
g132
sg133
g134
sg135
g132
sg136
I01
sg34
g174
sg138
g134
sg139
I0
sg140
I0
sg141
I0
sg142
g134
sg35
g175
sg144
I0
stRp1583
sg146
g147
sg148
F0.98999999999999999
sg149
Nsg30
S'NoName'
p1584
sbag1
(g2
g3
NtRp1585
(dp1586
g6
g1
(g7
g3
NtRp1587
(dp1588
g10
g1
(g11
g12
(dtRp1589
sg14
g1
(g11
g12
(dtRp1590
sg16
g1
(g11
g12
(dtRp1591
sg18
g1
(g11
g12
(dtRp1592
sg20
g1
(g11
g12
(dtRp1593
sg22
g1
(g11
g12
(dtRp1594
sbsg24
S'Cji'
p1595
sg26
g27
((lp1596
g29
ag30
aS'sequence'
p1597
ag32
ag33
aS'species'
p1598
atRp1599
sg37
(lp1600
sg120
g1100
sg121
S'RWLSTKDLYSRLELPGLNQNVHAMFVMPLGFGNPMGDMFARLNNSFWLPPLSLEGAGTGWTVYPPLSHSGPSVDLAFHLTSSLLGAINFTNMRGPMFWTALLLLSLPVLAGTLLDRNFNTFDGGDPLYHLFWFFGHPEVYIIPGFGSHSTYKKFGMYASIGLGFVWSHHMYVGLDDRAYFTSATMIAPTGIKFSWLATYGGRPMLAFLFLFTGGTGVLNASDAFHDTYYTVHFHYVLSMGAFSLGYYYWYGLYNLFWFNFPMHFLGGMPRRPYPDAGWNSGSSYQLGPDESNEPH'
p1601
sg123
F0.013140000000000001
sg124
g125
sg33
S'86'
p1602
sg127
g1
(g128
g12
(dp1603
g130
I4
sg131
g132
sg133
g134
sg135
g132
sg136
I01
sg34
g137
sg138
g134
sg139
I0
sg140
I0
sg141
I0
sg142
g134
sg35
g143
sg144
I0
stRp1604
sg146
g147
sg148
F1
sg149
Nsg30
S'CjiufA'
p1605
sbasg120
g1028
sg123
F0.044909999999999999
sg124
g125
sg33
S'16'
p1606
sg127
g1
(g128
g12
(dp1607
g130
I6
sg131
g132
sg133
g134
sg135
g132
sg136
I01
sg34
g174
sg138
g134
sg139
I0
sg140
I0
sg141
I0
sg142
g134
sg35
g175
sg144
I0
stRp1608
sg146
g147
sg148
F0.98999999999999999
sg149
Nsg30
S'NoName'
p1609
sbasg120
g1015
sg123
F0.082199999999999995
sg124
g125
sg33
S'10'
p1610
sg127
g1
(g128
g12
(dp1611
g130
I6
sg131
g132
sg133
g134
sg135
g132
sg136
I01
sg34
g174
sg138
g134
sg139
I0
sg140
I0
sg141
I0
sg142
g134
sg35
g175
sg144
I0
stRp1612
sg146
g147
sg148
F0.98999999999999999
sg149
Nsg30
S'NoName'
p1613
sbag1
(g2
g3
NtRp1614
(dp1615
g6
g1
(g7
g3
NtRp1616
(dp1617
g10
g1
(g11
g12
(dtRp1618
sg14
g1
(g11
g12
(dtRp1619
sg16
g1
(g11
g12
(dtRp1620
sg18
g1
(g11
g12
(dtRp1621
sg20
g1
(g11
g12
(dtRp1622
sg22
g1
(g11
g12
(dtRp1623
sbsg24
g25
sg26
g27
((lp1624
g33
ag32
ag29
ag30
atRp1625
sg37
(lp1626
g1
(g2
g3
NtRp1627
(dp1628
g6
g1
(g7
g3
NtRp1629
(dp1630
g10
g1
(g11
g12
(dtRp1631
sg14
g1
(g11
g12
(dtRp1632
sg16
g1
(g11
g12
(dtRp1633
sg18
g1
(g11
g12
(dtRp1634
sg20
g1
(g11
g12
(dtRp1635
sg22
g1
(g11
g12
(dtRp1636
sbsg24
g25
sg26
g27
((lp1637
g33
ag32
ag29
ag30
atRp1638
sg37
(lp1639
g1
(g2
g3
NtRp1640
(dp1641
g6
g1
(g7
g3
NtRp1642
(dp1643
g10
g1
(g11
g12
(dtRp1644
sg14
g1
(g11
g12
(dtRp1645
sg16
g1
(g11
g12
(dtRp1646
sg18
g1
(g11
g12
(dtRp1647
sg20
g1
(g11
g12
(dtRp1648
sg22
g1
(g11
g12
(dtRp1649
sbsg24
S'Cco'
p1650
sg26
g27
((lp1651
g29
ag30
aS'sequence'
p1652
ag32
ag33
aS'species'
p1653
atRp1654
sg37
(lp1655
sg120
g1627
sg121
S'RWLSTKDLYSRMELPGLNQNVHAMFVMPLGFGNPMGDMFARLNNSFWLPPLSLEGAGTGWTLYAPLSHSGPSVDLAFHLTSSLLGAINFTNMRGPLFWTALLLLSLPVLAATLLDRNFNTFEGGDPLYHLFFVLMHPEVYIIPGFGSHSTYKKFGMYASMGLGFVWSHHMYVGLDDRAYFTSATMIAPTGIKFSWLATYGGRPMLAFLFLFTGGTGVLNASDAFHDTYYIKHFHYVLSMGAFSLGYYYWYGLYNMFWFNFPMHFLGGMPRRPYPDAGWNSGSSYQLGPDESNEPH'
p1656
sg123
F0.057970000000000001
sg124
g125
sg33
S'39'
p1657
sg127
g1
(g128
g12
(dp1658
g130
I4
sg131
g132
sg133
g134
sg135
g132
sg136
I01
sg34
g137
sg138
g134
sg139
I0
sg140
I0
sg141
I0
sg142
g134
sg35
g143
sg144
I0
stRp1659
sg146
g147
sg148
F1
sg149
Nsg30
S'CcoryA'
p1660
sbag1
(g2
g3
NtRp1661
(dp1662
g6
g1
(g7
g3
NtRp1663
(dp1664
g10
g1
(g11
g12
(dtRp1665
sg14
g1
(g11
g12
(dtRp1666
sg16
g1
(g11
g12
(dtRp1667
sg18
g1
(g11
g12
(dtRp1668
sg20
g1
(g11
g12
(dtRp1669
sg22
g1
(g11
g12
(dtRp1670
sbsg24
S'Cch'
p1671
sg26
g27
((lp1672
g29
ag30
aS'sequence'
p1673
ag32
ag33
aS'species'
p1674
atRp1675
sg37
(lp1676
sg120
g1627
sg121
S'RWLSTKDLYSRMELPSLNQNVHAMFVMPLGFGNPMGDMFARLNNSFWLPPLSLEGAGTGWTLYAPLSHSGPSVDLAFHLTSSLLGAINFTNMRGPLFWTALLLLSLPVLAATLLDRNFNTFEGGDPLYHLFWFYMYKDYYIIPGFGSHSTYKKFGMYASIGLGFVWSHHMFVGLDDRAYFTSATMIAPTGIKFSWLATYGGRPMLAFLFLFTGGTGVLNASDAFHDTYYVVHFHYVLSMGAFSLGYYYWYGLYNLFWFNFPMHFLGGMPRRPYPDAGWNSGSSYQLGPDESNEPH'
p1677
sg123
F0.052440000000000001
sg124
g125
sg33
S'60'
p1678
sg127
g1
(g128
g12
(dp1679
g130
I4
sg131
g132
sg133
g134
sg135
g132
sg136
I01
sg34
g137
sg138
g134
sg139
I0
sg140
I0
sg141
I0
sg142
g134
sg35
g143
sg144
I0
stRp1680
sg146
g147
sg148
F1
sg149
Nsg30
S'CchauA'
p1681
sbasg120
g1614
sg123
F0.16861999999999999
sg124
g125
sg33
S'51'
p1682
sg127
g1
(g128
g12
(dp1683
g130
I6
sg131
g132
sg133
g134
sg135
g132
sg136
I01
sg34
g174
sg138
g134
sg139
I0
sg140
I0
sg141
I0
sg142
g134
sg35
g175
sg144
I0
stRp1684
sg146
g147
sg148
F0.98999999999999999
sg149
Nsg30
S'NoName'
p1685
sbag1
(g2
g3
NtRp1686
(dp1687
g6
g1
(g7
g3
NtRp1688
(dp1689
g10
g1
(g11
g12
(dtRp1690
sg14
g1
(g11
g12
(dtRp1691
sg16
g1
(g11
g12
(dtRp1692
sg18
g1
(g11
g12
(dtRp1693
sg20
g1
(g11
g12
(dtRp1694
sg22
g1
(g11
g12
(dtRp1695
sbsg24
S'Cbo'
p1696
sg26
g27
((lp1697
g29
ag30
aS'sequence'
p1698
ag32
ag33
aS'species'
p1699
atRp1700
sg37
(lp1701
sg120
g1614
sg121
S'RWLSTKDLYSRMELPGLNQNVHAMFVMPLGFGNPMGDMFARLNNSFWLPPLSLEGAGTGWTVYPPLSHSGPSVDLAFHLTSSLLGAINFTNMRGPLFWTALLLLSLPVLAATLLDRNFNTFEGGDPLYHLFWFFGHPEVYIIPGFGSHSTYKKFGMYASIGLGFVWSHHMYVGLDDRAYFTSATMIAPTGIKFSWLATYGGRPMLAFLFLFTGGTGVLNASDAFHDTYYVVHFHYVLSMGAFSLAYYYWYGLYNLFWFNFPMHFLGGMPRRPYPDAGWNSGSSYQLGPDESNEPH'
p1702
sg123
F0.20199
sg124
g125
sg33
S'114'
p1703
sg127
g1
(g128
g12
(dp1704
g130
I4
sg131
g132
sg133
g134
sg135
g132
sg136
I01
sg34
g137
sg138
g134
sg139
I0
sg140
I0
sg141
I0
sg142
g134
sg35
g143
sg144
I0
stRp1705
sg146
g147
sg148
F1
sg149
Nsg30
S'CbohiA'
p1706
sbasg120
g1015
sg123
F0.14915999999999999
sg124
g125
sg33
S'13'
p1707
sg127
g1
(g128
g12
(dp1708
g130
I6
sg131
g132
sg133
g134
sg135
g132
sg136
I01
sg34
g174
sg138
g134
sg139
I0
sg140
I0
sg141
I0
sg142
g134
sg35
g175
sg144
I0
stRp1709
sg146
g147
sg148
F0.98999999999999999
sg149
Nsg30
S'NoName'
p1710
sbasg120
g1002
sg123
F0.036799999999999999
sg124
g125
sg33
S'71'
p1711
sg127
g1
(g128
g12
(dp1712
g130
I6
sg131
g132
sg133
g134
sg135
g132
sg136
I01
sg34
g174
sg138
g134
sg139
I0
sg140
I0
sg141
I0
sg142
g134
sg35
g175
sg144
I0
stRp1713
sg146
g147
sg148
F0.98999999999999999
sg149
Nsg30
S'NoName'
p1714
sbag1
(g2
g3
NtRp1715
(dp1716
g6
g1
(g7
g3
NtRp1717
(dp1718
g10
g1
(g11
g12
(dtRp1719
sg14
g1
(g11
g12
(dtRp1720
sg16
g1
(g11
g12
(dtRp1721
sg18
g1
(g11
g12
(dtRp1722
sg20
g1
(g11
g12
(dtRp1723
sg22
g1
(g11
g12
(dtRp1724
sbsg24
g25
sg26
g27
((lp1725
g33
ag32
ag29
ag30
atRp1726
sg37
(lp1727
g1
(g2
g3
NtRp1728
(dp1729
g6
g1
(g7
g3
NtRp1730
(dp1731
g10
g1
(g11
g12
(dtRp1732
sg14
g1
(g11
g12
(dtRp1733
sg16
g1
(g11
g12
(dtRp1734
sg18
g1
(g11
g12
(dtRp1735
sg20
g1
(g11
g12
(dtRp1736
sg22
g1
(g11
g12
(dtRp1737
sbsg24
g25
sg26
g27
((lp1738
g33
ag32
ag29
ag30
atRp1739
sg37
(lp1740
g1
(g2
g3
NtRp1741
(dp1742
g6
g1
(g7
g3
NtRp1743
(dp1744
g10
g1
(g11
g12
(dtRp1745
sg14
g1
(g11
g12
(dtRp1746
sg16
g1
(g11
g12
(dtRp1747
sg18
g1
(g11
g12
(dtRp1748
sg20
g1
(g11
g12
(dtRp1749
sg22
g1
(g11
g12
(dtRp1750
sbsg24
S'Cma'
p1751
sg26
g27
((lp1752
g29
ag30
aS'sequence'
p1753
ag32
ag33
aS'species'
p1754
atRp1755
sg37
(lp1756
sg120
g1728
sg121
S'RWLSTKDLYSRLELPGLSQNVHAMFVMPLGFGNPLGDMFARLNNSFWLPPLSLEGAGTGWTVYPPLSHSGPSVDLAFHLTSSLLGAINFTNMRGPLYWTALLLLSLPVLAGTLLDRNFNTFEGGDPLYHLFWFFGHPEVYMIPGFGSHSTYKKFGMYASMGLGFVWSHHMYVGLDDRAYFTSATMIAPTGIKFSWLATYGGRPMLAFLFLFTGGTGVLNASDAFHDTYYVVHFHYVLSMGAFSLGYYYWSGLYNLYWFNFPMHFLGGMPRRPYPDAGWNSGSSYQLGPDESNEPH'
p1757
sg123
F0.24277000000000001
sg124
g125
sg33
S'102'
p1758
sg127
g1
(g128
g12
(dp1759
g130
I4
sg131
g132
sg133
g134
sg135
g132
sg136
I01
sg34
g137
sg138
g134
sg139
I0
sg140
I0
sg141
I0
sg142
g134
sg35
g143
sg144
I0
stRp1760
sg146
g147
sg148
F1
sg149
Nsg30
S'CmaltA'
p1761
sbag1
(g2
g3
NtRp1762
(dp1763
g6
g1
(g7
g3
NtRp1764
(dp1765
g10
g1
(g11
g12
(dtRp1766
sg14
g1
(g11
g12
(dtRp1767
sg16
g1
(g11
g12
(dtRp1768
sg18
g1
(g11
g12
(dtRp1769
sg20
g1
(g11
g12
(dtRp1770
sg22
g1
(g11
g12
(dtRp1771
sbsg24
g25
sg26
g27
((lp1772
g33
ag32
ag29
ag30
atRp1773
sg37
(lp1774
g1
(g2
g3
NtRp1775
(dp1776
g6
g1
(g7
g3
NtRp1777
(dp1778
g10
g1
(g11
g12
(dtRp1779
sg14
g1
(g11
g12
(dtRp1780
sg16
g1
(g11
g12
(dtRp1781
sg18
g1
(g11
g12
(dtRp1782
sg20
g1
(g11
g12
(dtRp1783
sg22
g1
(g11
g12
(dtRp1784
sbsg24
g25
sg26
g27
((lp1785
g33
ag32
ag29
ag30
atRp1786
sg37
(lp1787
g1
(g2
g3
NtRp1788
(dp1789
g6
g1
(g7
g3
NtRp1790
(dp1791
g10
g1
(g11
g12
(dtRp1792
sg14
g1
(g11
g12
(dtRp1793
sg16
g1
(g11
g12
(dtRp1794
sg18
g1
(g11
g12
(dtRp1795
sg20
g1
(g11
g12
(dtRp1796
sg22
g1
(g11
g12
(dtRp1797
sbsg24
g25
sg26
g27
((lp1798
g33
ag32
ag29
ag30
atRp1799
sg37
(lp1800
g1
(g2
g3
NtRp1801
(dp1802
g6
g1
(g7
g3
NtRp1803
(dp1804
g10
g1
(g11
g12
(dtRp1805
sg14
g1
(g11
g12
(dtRp1806
sg16
g1
(g11
g12
(dtRp1807
sg18
g1
(g11
g12
(dtRp1808
sg20
g1
(g11
g12
(dtRp1809
sg22
g1
(g11
g12
(dtRp1810
sbsg24
g25
sg26
g27
((lp1811
g33
ag32
ag29
ag30
atRp1812
sg37
(lp1813
g1
(g2
g3
NtRp1814
(dp1815
g6
g1
(g7
g3
NtRp1816
(dp1817
g10
g1
(g11
g12
(dtRp1818
sg14
g1
(g11
g12
(dtRp1819
sg16
g1
(g11
g12
(dtRp1820
sg18
g1
(g11
g12
(dtRp1821
sg20
g1
(g11
g12
(dtRp1822
sg22
g1
(g11
g12
(dtRp1823
sbsg24
S'Ctr'
p1824
sg26
g27
((lp1825
g29
ag30
aS'sequence'
p1826
ag32
ag33
aS'species'
p1827
atRp1828
sg37
(lp1829
sg120
g1801
sg121
S'RWLSTKDLYSRLELPGLNQNVHAMFVMPLGFGNPMGDMFARLNNSFWLPPLSLEGAGTGWTVYPPLSHSGPSVDLAFHLTSSLLGAINFTNMRGPLFWTALLLLSLPVLAGTLLDRNFNTFEGGDPLYHLFWFFGHPEVYIIPGFGSHSTYKKFGMYASIGLGFVWSHHMYVGLDDRAYFTSATMIAPTGIKFSWLATYGGRPMLAFLFLFTGGTGVLNASDAFHDSYYVVHFHYVLSMGAFSLGYYYWPGLYNLYWFNFPMHFLGGMPRRPYPDAGWNSGSSYQLGPDEANEPH'
p1830
sg123
F0.00064000000000000005
sg124
g125
sg33
S'30'
p1831
sg127
g1
(g128
g12
(dp1832
g130
I4
sg131
g132
sg133
g134
sg135
g132
sg136
I01
sg34
g137
sg138
g134
sg139
I0
sg140
I0
sg141
I0
sg142
g134
sg35
g143
sg144
I0
stRp1833
sg146
g147
sg148
F1
sg149
Nsg30
S'CtropB'
p1834
sbag1
(g2
g3
NtRp1835
(dp1836
g6
g1
(g7
g3
NtRp1837
(dp1838
g10
g1
(g11
g12
(dtRp1839
sg14
g1
(g11
g12
(dtRp1840
sg16
g1
(g11
g12
(dtRp1841
sg18
g1
(g11
g12
(dtRp1842
sg20
g1
(g11
g12
(dtRp1843
sg22
g1
(g11
g12
(dtRp1844
sbsg24
S'Ctr'
p1845
sg26
g27
((lp1846
g29
ag30
aS'sequence'
p1847
ag32
ag33
aS'species'
p1848
atRp1849
sg37
(lp1850
sg120
g1801
sg121
S'RWLSTKDLYSRLELPGLNQNVHAMFVMPLGFGNPMGDMFARLNNSFWLPPLSLEGAGTGWTVYPPLSHSGPSVDLAFHLTSSLLGAINFTNMRGPLFWTALLLLSLPVLAGTLLDRNFNTFEGGDPLYHLFWFFGHPEVYIIPGFGSHSTYKKFGMYASIGLGFVWSHHMYVGLDDRAYFTSATMIAPTGIKFSWLATYGGRPMLAFLFLFTGGTGVLNASDAFHDSYYVVHFHYVLSMGAFSLGYYYWPGLYNLYWFNFPMHFLGGMPRRPYPDAGWNSGSSYQLGPDEANEPH'
p1851
sg123
F0.00040000000000000002
sg124
g125
sg33
S'55'
p1852
sg127
g1
(g128
g12
(dp1853
g130
I4
sg131
g132
sg133
g134
sg135
g132
sg136
I01
sg34
g137
sg138
g134
sg139
I0
sg140
I0
sg141
I0
sg142
g134
sg35
g143
sg144
I0
stRp1854
sg146
g147
sg148
F1
sg149
Nsg30
S'CtropA'
p1855
sbasg120
g1788
sg123
F0.032030000000000003
sg124
g125
sg33
S'42'
p1856
sg127
g1
(g128
g12
(dp1857
g130
I6
sg131
g132
sg133
g134
sg135
g132
sg136
I01
sg34
g174
sg138
g134
sg139
I0
sg140
I0
sg141
I0
sg142
g134
sg35
g175
sg144
I0
stRp1858
sg146
g147
sg148
F0.98999999999999999
sg149
Nsg30
S'NoName'
p1859
sbag1
(g2
g3
NtRp1860
(dp1861
g6
g1
(g7
g3
NtRp1862
(dp1863
g10
g1
(g11
g12
(dtRp1864
sg14
g1
(g11
g12
(dtRp1865
sg16
g1
(g11
g12
(dtRp1866
sg18
g1
(g11
g12
(dtRp1867
sg20
g1
(g11
g12
(dtRp1868
sg22
g1
(g11
g12
(dtRp1869
sbsg24
S'Cso'
p1870
sg26
g27
((lp1871
g29
ag30
aS'sequence'
p1872
ag32
ag33
aS'species'
p1873
atRp1874
sg37
(lp1875
sg120
g1788
sg121
S'RWLSTKDLYSRLELPGLNQNVHAMFVMPLGFGNPMGDMFARLNNSFWLPPLSLEGAGTGWTVYPPLSHSGPSVDLAFHLTSSLLGAMNFTNMRGPLFWTALLLLSLPVLAGTLLDRNFNTFEGGDPLYHLFWFFGHPEVYIIPGFGSHSTYKKFGMYASIGLGFVWSHHMYVGLDDRAYFTSATMIAPTGIKFSWLATYGGRPMLAFLFLFTGGTGVLNASDAFHDTYYVVHFHYVLSMGAFSLGYYYWPGLYNLYWFNFPMHFLGGMPRRPYPDAGWNSGSSYQLGPDEANEPH'
p1876
sg123
F0.033649999999999999
sg124
g125
sg33
S'107'
p1877
sg127
g1
(g128
g12
(dp1878
g130
I4
sg131
g132
sg133
g134
sg135
g132
sg136
I01
sg34
g137
sg138
g134
sg139
I0
sg140
I0
sg141
I0
sg142
g134
sg35
g143
sg144
I0
stRp1879
sg146
g147
sg148
F1
sg149
Nsg30
S'CsojaA'
p1880
sbasg120
g1775
sg123
F0.019990000000000001
sg124
g125
sg33
S'50'
p1881
sg127
g1
(g128
g12
(dp1882
g130
I6
sg131
g132
sg133
g134
sg135
g132
sg136
I01
sg34
g174
sg138
g134
sg139
I0
sg140
I0
sg141
I0
sg142
g134
sg35
g175
sg144
I0
stRp1883
sg146
g147
sg148
F0.98999999999999999
sg149
Nsg30
S'NoName'
p1884
sbag1
(g2
g3
NtRp1885
(dp1886
g6
g1
(g7
g3
NtRp1887
(dp1888
g10
g1
(g11
g12
(dtRp1889
sg14
g1
(g11
g12
(dtRp1890
sg16
g1
(g11
g12
(dtRp1891
sg18
g1
(g11
g12
(dtRp1892
sg20
g1
(g11
g12
(dtRp1893
sg22
g1
(g11
g12
(dtRp1894
sbsg24
g25
sg26
g27
((lp1895
g33
ag32
ag29
ag30
atRp1896
sg37
(lp1897
g1
(g2
g3
NtRp1898
(dp1899
g6
g1
(g7
g3
NtRp1900
(dp1901
g10
g1
(g11
g12
(dtRp1902
sg14
g1
(g11
g12
(dtRp1903
sg16
g1
(g11
g12
(dtRp1904
sg18
g1
(g11
g12
(dtRp1905
sg20
g1
(g11
g12
(dtRp1906
sg22
g1
(g11
g12
(dtRp1907
sbsg24
S'Cte'
p1908
sg26
g27
((lp1909
g29
ag30
aS'sequence'
p1910
ag32
ag33
aS'species'
p1911
atRp1912
sg37
(lp1913
sg120
g1885
sg121
S'RWLSTKDLYSRLELPGLNQNVHAMFVMPLGFGNPMGDMFARLNNSFWLPPLSLEGAGTGWTVYPPLSHSGPSVDMAFHLTSSLLGAINFTNMRGPLFWTALLLLSLPVLAGTLLDRNFNTFEGGDPLYHLFWFFGHPEVYIIPGFGSHSTYKKFGMYASIGLGFVWSHHMFVGLDDRAYFTSATMMAPTGIKFSWLATYGGRPMLAFLFLFTGGTGVLNASDSMHDTYYVVHFHYVLSMGAFSLGYYYWPGLYNLYWFNFPMHFLGGMPRRPYPDAGWNSGSSLQLGPDESNEPH'
p1914
sg123
F0.084209999999999993
sg124
g125
sg33
S'84'
p1915
sg127
g1
(g128
g12
(dp1916
g130
I4
sg131
g132
sg133
g134
sg135
g132
sg136
I01
sg34
g137
sg138
g134
sg139
I0
sg140
I0
sg141
I0
sg142
g134
sg35
g143
sg144
I0
stRp1917
sg146
g147
sg148
F1
sg149
Nsg30
S'CtetrA'
p1918
sbag1
(g2
g3
NtRp1919
(dp1920
g6
g1
(g7
g3
NtRp1921
(dp1922
g10
g1
(g11
g12
(dtRp1923
sg14
g1
(g11
g12
(dtRp1924
sg16
g1
(g11
g12
(dtRp1925
sg18
g1
(g11
g12
(dtRp1926
sg20
g1
(g11
g12
(dtRp1927
sg22
g1
(g11
g12
(dtRp1928
sbsg24
g25
sg26
g27
((lp1929
g33
ag32
ag29
ag30
atRp1930
sg37
(lp1931
g1
(g2
g3
NtRp1932
(dp1933
g6
g1
(g7
g3
NtRp1934
(dp1935
g10
g1
(g11
g12
(dtRp1936
sg14
g1
(g11
g12
(dtRp1937
sg16
g1
(g11
g12
(dtRp1938
sg18
g1
(g11
g12
(dtRp1939
sg20
g1
(g11
g12
(dtRp1940
sg22
g1
(g11
g12
(dtRp1941
sbsg24
g25
sg26
g27
((lp1942
g33
ag32
ag29
ag30
atRp1943
sg37
(lp1944
g1
(g2
g3
NtRp1945
(dp1946
g6
g1
(g7
g3
NtRp1947
(dp1948
g10
g1
(g11
g12
(dtRp1949
sg14
g1
(g11
g12
(dtRp1950
sg16
g1
(g11
g12
(dtRp1951
sg18
g1
(g11
g12
(dtRp1952
sg20
g1
(g11
g12
(dtRp1953
sg22
g1
(g11
g12
(dtRp1954
sbsg24
S'Cvi'
p1955
sg26
g27
((lp1956
g29
ag30
aS'sequence'
p1957
ag32
ag33
aS'species'
p1958
atRp1959
sg37
(lp1960
sg120
g1932
sg121
S'RWFSTKDLYSRLELPGLNQNVHAMFVMPLGFGNPMGDMFARLNNSFWLPPLSLEGAGTGWTVYPPLSHSGPSVDLAFHLTSSLLGAINFTNMRGPLFWTALLLLSLPVLAGTLLDRNFNTFDGGDPLYHLFWFFGHPEVYMIPGFGSHSTYKKFGMYASIGLGFVWSHHMYVGLDDRAYFTSATMIAPTGIKFSWLSTYGGRPTLAFLFLFTGGTGVLNASDSMHDTYYVVHFHYVLSMGAFSLGYYYWPGLYNLYWFNFPMHFLGGMPRRPYPDSGWNSGSSFQLGPDESNEPH'
p1961
sg123
F0.03977
sg124
g125
sg33
S'69'
p1962
sg127
g1
(g128
g12
(dp1963
g130
I4
sg131
g132
sg133
g134
sg135
g132
sg136
I01
sg34
g137
sg138
g134
sg139
I0
sg140
I0
sg141
I0
sg142
g134
sg35
g143
sg144
I0
stRp1964
sg146
g147
sg148
F1
sg149
Nsg30
S'CviswA'
p1965
sbag1
(g2
g3
NtRp1966
(dp1967
g6
g1
(g7
g3
NtRp1968
(dp1969
g10
g1
(g11
g12
(dtRp1970
sg14
g1
(g11
g12
(dtRp1971
sg16
g1
(g11
g12
(dtRp1972
sg18
g1
(g11
g12
(dtRp1973
sg20
g1
(g11
g12
(dtRp1974
sg22
g1
(g11
g12
(dtRp1975
sbsg24
S'Csa'
p1976
sg26
g27
((lp1977
g29
ag30
aS'sequence'
p1978
ag32
ag33
aS'species'
p1979
atRp1980
sg37
(lp1981
sg120
g1932
sg121
S'RWFSTKDLYSRLELPGLNQNVHAMFVMPLGFGNPMGDMFARLNNSFWLPPLSLEGAGTGWTVYPPLSHSGPSVDLAFHLTSSLLGAINFTNMRGVLFWTALLLLSLPVLAGTLLDRNFNTFDGGDPLYHLFWFFGHPEVYIIPGFGSHSTFKKFGMYASIGLGFVWSHHMYVGLDDRAYFTSATMIAPTGIKFSWIATYGGRPTLAFLFLFTGGTGVLNASDSMHDTYYVVHFHYVLSMGAFSLGYYYWPGLYNLYWFNFPMHFLGGMPRRPYPDSGWNSGSSYQLGPDEGNEPH'
p1982
sg123
F0.065189999999999998
sg124
g125
sg33
S'154'
p1983
sg127
g1
(g128
g12
(dp1984
g130
I4
sg131
g132
sg133
g134
sg135
g132
sg136
I01
sg34
g137
sg138
g134
sg139
I0
sg140
I0
sg141
I0
sg142
g134
sg35
g143
sg144
I0
stRp1985
sg146
g147
sg148
F1
sg149
Nsg30
S'CsaraA'
p1986
sbasg120
g1919
sg123
F0.029960000000000001
sg124
g125
sg33
S'95'
p1987
sg127
g1
(g128
g12
(dp1988
g130
I6
sg131
g132
sg133
g134
sg135
g132
sg136
I01
sg34
g174
sg138
g134
sg139
I0
sg140
I0
sg141
I0
sg142
g134
sg35
g175
sg144
I0
stRp1989
sg146
g147
sg148
F0.98999999999999999
sg149
Nsg30
S'NoName'
p1990
sbag1
(g2
g3
NtRp1991
(dp1992
g6
g1
(g7
g3
NtRp1993
(dp1994
g10
g1
(g11
g12
(dtRp1995
sg14
g1
(g11
g12
(dtRp1996
sg16
g1
(g11
g12
(dtRp1997
sg18
g1
(g11
g12
(dtRp1998
sg20
g1
(g11
g12
(dtRp1999
sg22
g1
(g11
g12
(dtRp2000
sbsg24
S'Cpr'
p2001
sg26
g27
((lp2002
g29
ag30
aS'sequence'
p2003
ag32
ag33
aS'species'
p2004
atRp2005
sg37
(lp2006
sg120
g1919
sg121
S'RWFSTKDEYSRLELPGLNQNVHAMFVMPLGFGNPMGDMFARLNNSFWLPPLSLEGAGTGWTVYPPLSHSGPSVDLAFHLTSSLLGAINFTNMRGPLFWTALLLLSLPVLTGTLLDRNFNTFDGGDPLYHLFWFFGHPEVYMIPGFGSHSTYKKFGMYASMGLGFVWSHHMFVGLDDRAYFTSATMMAPTGIKFSWLATYGGRPMLAFLFLFTGGTGVLNASDSMHDTYYVVHFHYVLSMGAFSLGYYYWPGLYNLYWFNFPMHFLGGMPRRPYPDSGWNSGSSVQLGPDENNEPH'
p2007
sg123
F0.17724999999999999
sg124
g125
sg33
S'132'
p2008
sg127
g1
(g128
g12
(dp2009
g130
I4
sg131
g132
sg133
g134
sg135
g132
sg136
I01
sg34
g137
sg138
g134
sg139
I0
sg140
I0
sg141
I0
sg142
g134
sg35
g143
sg144
I0
stRp2010
sg146
g147
sg148
F1
sg149
Nsg30
S'CpracA'
p2011
sbasg120
g1885
sg123
F0.02281
sg124
g125
sg33
S'74'
p2012
sg127
g1
(g128
g12
(dp2013
g130
I6
sg131
g132
sg133
g134
sg135
g132
sg136
I01
sg34
g174
sg138
g134
sg139
I0
sg140
I0
sg141
I0
sg142
g134
sg35
g175
sg144
I0
stRp2014
sg146
g147
sg148
F0.98999999999999999
sg149
Nsg30
S'NoName'
p2015
sbasg120
g1775
sg123
F0.01154
sg124
g125
sg33
S'20'
p2016
sg127
g1
(g128
g12
(dp2017
g130
I6
sg131
g132
sg133
g134
sg135
g132
sg136
I01
sg34
g174
sg138
g134
sg139
I0
sg140
I0
sg141
I0
sg142
g134
sg35
g175
sg144
I0
stRp2018
sg146
g147
sg148
F0.98999999999999999
sg149
Nsg30
S'NoName'
p2019
sbasg120
g1762
sg123
F0.02138
sg124
g125
sg33
S'9'
sg127
g1
(g128
g12
(dp2020
g130
I6
sg131
g132
sg133
g134
sg135
g132
sg136
I01
sg34
g174
sg138
g134
sg139
I0
sg140
I0
sg141
I0
sg142
g134
sg35
g175
sg144
I0
stRp2021
sg146
g147
sg148
F0.98999999999999999
sg149
Nsg30
S'NoName'
p2022
sbag1
(g2
g3
NtRp2023
(dp2024
g6
g1
(g7
g3
NtRp2025
(dp2026
g10
g1
(g11
g12
(dtRp2027
sg14
g1
(g11
g12
(dtRp2028
sg16
g1
(g11
g12
(dtRp2029
sg18
g1
(g11
g12
(dtRp2030
sg20
g1
(g11
g12
(dtRp2031
sg22
g1
(g11
g12
(dtRp2032
sbsg24
g25
sg26
g27
((lp2033
g33
ag32
ag29
ag30
atRp2034
sg37
(lp2035
g1
(g2
g3
NtRp2036
(dp2037
g6
g1
(g7
g3
NtRp2038
(dp2039
g10
g1
(g11
g12
(dtRp2040
sg14
g1
(g11
g12
(dtRp2041
sg16
g1
(g11
g12
(dtRp2042
sg18
g1
(g11
g12
(dtRp2043
sg20
g1
(g11
g12
(dtRp2044
sg22
g1
(g11
g12
(dtRp2045
sbsg24
S'Cne'
p2046
sg26
g27
((lp2047
g29
ag30
aS'sequence'
p2048
ag32
ag33
aS'species'
p2049
atRp2050
sg37
(lp2051
sg120
g2023
sg121
S'RWLSTKDLYSRLELPGLNQNVHAMFVMPLGFGNPMGDMFARLNNSFWLPPLSLEGAGTGWTVYPPLSHSGPSVDLAFHLTSSLLGAINFTNMRGPLFWTALLLLSLPVLAGTLLDRNFNTFDGGDPLYHLFWFFGHPEVYIIPGFGSHSTYKKFGMYASIGLGFVWSHHMYVGLDDRAYFTSATMIAPTGIKFSWLATYGGRPMLAFLFLFTGGTGVLNASDAFHDTYYVVHFHYVLSMGAFSLGYYYWPGLYNLYWFNFPMHFLGGMPRRPYPDSGWNSGSSYQLGPDESNEPH'
p2052
sg123
F0.04879
sg124
g125
sg33
S'163'
p2053
sg127
g1
(g128
g12
(dp2054
g130
I4
sg131
g132
sg133
g134
sg135
g132
sg136
I01
sg34
g137
sg138
g134
sg139
I0
sg140
I0
sg141
I0
sg142
g134
sg35
g143
sg144
I0
stRp2055
sg146
g147
sg148
F1
sg149
Nsg30
S'CneerA'
p2056
sbag1
(g2
g3
NtRp2057
(dp2058
g6
g1
(g7
g3
NtRp2059
(dp2060
g10
g1
(g11
g12
(dtRp2061
sg14
g1
(g11
g12
(dtRp2062
sg16
g1
(g11
g12
(dtRp2063
sg18
g1
(g11
g12
(dtRp2064
sg20
g1
(g11
g12
(dtRp2065
sg22
g1
(g11
g12
(dtRp2066
sbsg24
S'Cfr'
p2067
sg26
g27
((lp2068
g29
ag30
aS'sequence'
p2069
ag32
ag33
aS'species'
p2070
atRp2071
sg37
(lp2072
sg120
g2023
sg121
S'RWLSTKDLYSRLELPGLNQNVHAMFVMPLGFGNPMGDMFARLNNSFWLPPLSLEGAGTGWTVYPPLSHSGPSVDLAFHLTSSLLGAMNFTNMRGPLFWTALLLLSLPVLAGTLLDRNFNTFDGGDPLYHLFWFFGHPEVYIIPGFGSHSTYKKFGMYASIGLGFVWSHHMYVGLDDRAYFTSATMIAPTGIKFSWLSTYGGRPMLAFLFLFTGGTGVLNASDAFHDTYYVVHFHYVLSMGAFSLGYYYWPGLYNLYWFNFPMHFLGGMPRRPYPDSGWNSGSSYQLGPDESNEPH'
p2073
sg123
F0.050279999999999998
sg124
g125
sg33
S'221'
p2074
sg127
g1
(g128
g12
(dp2075
g130
I4
sg131
g132
sg133
g134
sg135
g132
sg136
I01
sg34
g137
sg138
g134
sg139
I0
sg140
I0
sg141
I0
sg142
g134
sg35
g143
sg144
I0
stRp2076
sg146
g147
sg148
F1
sg149
Nsg30
S'CfrijA'
p2077
sbasg120
g1762
sg123
F0.11378000000000001
sg124
g125
sg33
S'121'
p2078
sg127
g1
(g128
g12
(dp2079
g130
I6
sg131
g132
sg133
g134
sg135
g132
sg136
I01
sg34
g174
sg138
g134
sg139
I0
sg140
I0
sg141
I0
sg142
g134
sg35
g175
sg144
I0
stRp2080
sg146
g147
sg148
F0.98999999999999999
sg149
Nsg30
S'NoName'
p2081
sbasg120
g1728
sg123
F0.076910000000000006
sg124
g125
sg33
S'91'
p2082
sg127
g1
(g128
g12
(dp2083
g130
I6
sg131
g132
sg133
g134
sg135
g132
sg136
I01
sg34
g174
sg138
g134
sg139
I0
sg140
I0
sg141
I0
sg142
g134
sg35
g175
sg144
I0
stRp2084
sg146
g147
sg148
F0.98999999999999999
sg149
Nsg30
S'NoName'
p2085
sbasg120
g1715
sg123
F0.022950000000000002
sg124
g125
sg33
S'80'
p2086
sg127
g1
(g128
g12
(dp2087
g130
I6
sg131
g132
sg133
g134
sg135
g132
sg136
I01
sg34
g174
sg138
g134
sg139
I0
sg140
I0
sg141
I0
sg142
g134
sg35
g175
sg144
I0
stRp2088
sg146
g147
sg148
F0.65000000000000002
sg149
Nsg30
S'NoName'
p2089
sbag1
(g2
g3
NtRp2090
(dp2091
g6
g1
(g7
g3
NtRp2092
(dp2093
g10
g1
(g11
g12
(dtRp2094
sg14
g1
(g11
g12
(dtRp2095
sg16
g1
(g11
g12
(dtRp2096
sg18
g1
(g11
g12
(dtRp2097
sg20
g1
(g11
g12
(dtRp2098
sg22
g1
(g11
g12
(dtRp2099
sbsg24
g25
sg26
g27
((lp2100
g33
ag32
ag29
ag30
atRp2101
sg37
(lp2102
g1
(g2
g3
NtRp2103
(dp2104
g6
g1
(g7
g3
NtRp2105
(dp2106
g10
g1
(g11
g12
(dtRp2107
sg14
g1
(g11
g12
(dtRp2108
sg16
g1
(g11
g12
(dtRp2109
sg18
g1
(g11
g12
(dtRp2110
sg20
g1
(g11
g12
(dtRp2111
sg22
g1
(g11
g12
(dtRp2112
sbsg24
g25
sg26
g27
((lp2113
g33
ag32
ag29
ag30
atRp2114
sg37
(lp2115
g1
(g2
g3
NtRp2116
(dp2117
g6
g1
(g7
g3
NtRp2118
(dp2119
g10
g1
(g11
g12
(dtRp2120
sg14
g1
(g11
g12
(dtRp2121
sg16
g1
(g11
g12
(dtRp2122
sg18
g1
(g11
g12
(dtRp2123
sg20
g1
(g11
g12
(dtRp2124
sg22
g1
(g11
g12
(dtRp2125
sbsg24
S'Cgi'
p2126
sg26
g27
((lp2127
g29
ag30
aS'sequence'
p2128
ag32
ag33
aS'species'
p2129
atRp2130
sg37
(lp2131
sg120
g2103
sg121
S'RWLSTKDLYSRLELAGLNQNVHAMFVMPLGFGNPMGDMFARLNNSFWLPPLSLEGAGTGWTVYPPLSHSGPSVDMAFHLTSSLLGAINFTNMRGPLFWTALLLLSLPVLAATLLDRNFNTFEGGDPLYHAFWFFGHPEVYIIPGFGSHSTYKKFGMYASIGLGFVWSHHMYVGLDDRAYFTSATMIAPTGIKFSWLATYGGRPMLAFLFLFTGGTGVLNASDAFHDTYYVVHFHYVLSMGAFSLGYYYWPGLYNLYWFNFPMHFLGGMPRRPYPDAGWNSGSSYQLGPDESNEPH'
p2132
sg123
F0.22796
sg124
g125
sg33
S'210'
p2133
sg127
g1
(g128
g12
(dp2134
g130
I4
sg131
g132
sg133
g134
sg135
g132
sg136
I01
sg34
g137
sg138
g134
sg139
I0
sg140
I0
sg141
I0
sg142
g134
sg35
g143
sg144
I0
stRp2135
sg146
g147
sg148
F1
sg149
Nsg30
S'CgigaA'
p2136
sbag1
(g2
g3
NtRp2137
(dp2138
g6
g1
(g7
g3
NtRp2139
(dp2140
g10
g1
(g11
g12
(dtRp2141
sg14
g1
(g11
g12
(dtRp2142
sg16
g1
(g11
g12
(dtRp2143
sg18
g1
(g11
g12
(dtRp2144
sg20
g1
(g11
g12
(dtRp2145
sg22
g1
(g11
g12
(dtRp2146
sbsg24
S'Cbu'
p2147
sg26
g27
((lp2148
g29
ag30
aS'sequence'
p2149
ag32
ag33
aS'species'
p2150
atRp2151
sg37
(lp2152
sg120
g2103
sg121
S'RWLSTKDLYSRLELAGLNQNVHAMFVMPLGFGNPMGDMFARLNNSFWLPPLSLEGAGTGWTVYPPLSHSGPSVDLAFHLTSSLLGAINFTNMRGPLFWTALLLLSLPVLAGTLLDRNFNTFEGGDPLYHLFWFFGHPEVYIIPGFGSHGTYKKFGMYASIGLGFVWSHHMFVGLDDRAYFTSATMIAPTGIKFSWLATYGGRPMLAFLFLFTGGTGVLNASDAFHDTYYVVHFHYVLSMGAFSLAYYYWPGLYNLFWFNFPMHFLGGMPRRPYPDAGWNSGSSYQLGPDESNEPH'
p2153
sg123
F0.26118000000000002
sg124
g125
sg33
S'111'
p2154
sg127
g1
(g128
g12
(dp2155
g130
I4
sg131
g132
sg133
g134
sg135
g132
sg136
I01
sg34
g137
sg138
g134
sg139
I0
sg140
I0
sg141
I0
sg142
g134
sg35
g143
sg144
I0
stRp2156
sg146
g147
sg148
F1
sg149
Nsg30
S'CbuenA'
p2157
sbasg120
g2090
sg123
F0.037260000000000001
sg124
g125
sg33
S'70'
p2158
sg127
g1
(g128
g12
(dp2159
g130
I6
sg131
g132
sg133
g134
sg135
g132
sg136
I01
sg34
g174
sg138
g134
sg139
I0
sg140
I0
sg141
I0
sg142
g134
sg35
g175
sg144
I0
stRp2160
sg146
g147
sg148
F0.98999999999999999
sg149
Nsg30
S'NoName'
p2161
sbag1
(g2
g3
NtRp2162
(dp2163
g6
g1
(g7
g3
NtRp2164
(dp2165
g10
g1
(g11
g12
(dtRp2166
sg14
g1
(g11
g12
(dtRp2167
sg16
g1
(g11
g12
(dtRp2168
sg18
g1
(g11
g12
(dtRp2169
sg20
g1
(g11
g12
(dtRp2170
sg22
g1
(g11
g12
(dtRp2171
sbsg24
g25
sg26
g27
((lp2172
g33
ag32
ag29
ag30
atRp2173
sg37
(lp2174
g1
(g2
g3
NtRp2175
(dp2176
g6
g1
(g7
g3
NtRp2177
(dp2178
g10
g1
(g11
g12
(dtRp2179
sg14
g1
(g11
g12
(dtRp2180
sg16
g1
(g11
g12
(dtRp2181
sg18
g1
(g11
g12
(dtRp2182
sg20
g1
(g11
g12
(dtRp2183
sg22
g1
(g11
g12
(dtRp2184
sbsg24
S'Cdu'
p2185
sg26
g27
((lp2186
g29
ag30
aS'sequence'
p2187
ag32
ag33
aS'species'
p2188
atRp2189
sg37
(lp2190
sg120
g2162
sg121
S'RWLSTKDLYSRLELPGLNQNVHAMFVMPLGFGNPMGDMFARLNNSFWLPPLSLEGAGTGWTVYPPLSHSGPSVDLAFHLTSSLLGAINFTNMRGPLYWTALLLLSLPVLAGTLLDRNFNTFEGGDPLYHLFWFFGHPEVYIIPGFGSHSTYKKFGMYASIGLGFVWSHHMYVGLDDRAYFTSATMIAPTGIKFSWLATYGGRPMLAFLFLFTGGTGVLNASDAFHDTYYVVHFHYVLSMGAFSLGYYYWPGLYNLYWFNFPMHFLGGMPRRPYPDAGWNSGSSYQLGPDESNEPH'
p2191
sg123
F0.025069999999999999
sg124
g125
sg33
S'134'
p2192
sg127
g1
(g128
g12
(dp2193
g130
I4
sg131
g132
sg133
g134
sg135
g132
sg136
I01
sg34
g137
sg138
g134
sg139
I0
sg140
I0
sg141
I0
sg142
g134
sg35
g143
sg144
I0
stRp2194
sg146
g147
sg148
F1
sg149
Nsg30
S'CdublA'
p2195
sbag1
(g2
g3
NtRp2196
(dp2197
g6
g1
(g7
g3
NtRp2198
(dp2199
g10
g1
(g11
g12
(dtRp2200
sg14
g1
(g11
g12
(dtRp2201
sg16
g1
(g11
g12
(dtRp2202
sg18
g1
(g11
g12
(dtRp2203
sg20
g1
(g11
g12
(dtRp2204
sg22
g1
(g11
g12
(dtRp2205
sbsg24
g25
sg26
g27
((lp2206
g33
ag32
ag29
ag30
atRp2207
sg37
(lp2208
g1
(g2
g3
NtRp2209
(dp2210
g6
g1
(g7
g3
NtRp2211
(dp2212
g10
g1
(g11
g12
(dtRp2213
sg14
g1
(g11
g12
(dtRp2214
sg16
g1
(g11
g12
(dtRp2215
sg18
g1
(g11
g12
(dtRp2216
sg20
g1
(g11
g12
(dtRp2217
sg22
g1
(g11
g12
(dtRp2218
sbsg24
g25
sg26
g27
((lp2219
g33
ag32
ag29
ag30
atRp2220
sg37
(lp2221
g1
(g2
g3
NtRp2222
(dp2223
g6
g1
(g7
g3
NtRp2224
(dp2225
g10
g1
(g11
g12
(dtRp2226
sg14
g1
(g11
g12
(dtRp2227
sg16
g1
(g11
g12
(dtRp2228
sg18
g1
(g11
g12
(dtRp2229
sg20
g1
(g11
g12
(dtRp2230
sg22
g1
(g11
g12
(dtRp2231
sbsg24
g25
sg26
g27
((lp2232
g33
ag32
ag29
ag30
atRp2233
sg37
(lp2234
g1
(g2
g3
NtRp2235
(dp2236
g6
g1
(g7
g3
NtRp2237
(dp2238
g10
g1
(g11
g12
(dtRp2239
sg14
g1
(g11
g12
(dtRp2240
sg16
g1
(g11
g12
(dtRp2241
sg18
g1
(g11
g12
(dtRp2242
sg20
g1
(g11
g12
(dtRp2243
sg22
g1
(g11
g12
(dtRp2244
sbsg24
g25
sg26
g27
((lp2245
g33
ag32
ag29
ag30
atRp2246
sg37
(lp2247
g1
(g2
g3
NtRp2248
(dp2249
g6
g1
(g7
g3
NtRp2250
(dp2251
g10
g1
(g11
g12
(dtRp2252
sg14
g1
(g11
g12
(dtRp2253
sg16
g1
(g11
g12
(dtRp2254
sg18
g1
(g11
g12
(dtRp2255
sg20
g1
(g11
g12
(dtRp2256
sg22
g1
(g11
g12
(dtRp2257
sbsg24
S'Cal'
p2258
sg26
g27
((lp2259
g29
ag30
aS'sequence'
p2260
ag32
ag33
aS'species'
p2261
atRp2262
sg37
(lp2263
sg120
g2235
sg121
S'RWLSTKDLYSRLELPGLNQNVHAMFVMPLGFGNPMGDMFARLNNSFWLPPLSLEGAGTGWTVYPPLSHSGPSVDLAFHLTSSLLGAINFTNMRGPLFWTALLLLSLPVLAGTLLDRNFNTFEGGDPLYHLFWFFGHPEVYIIPGFGSHSTYKKFGMYASIGLGFVWSHHMYVGLDDRAYFTSATMIAPTGIKFSWLATYGGRPMLAFLFLFTGGTGVLNASDAFHDTYYVVHFHYVLSMGAFSLGYYYWPGLYNLYWFNFPMHFLGGMPRRPYPDAGWNSGSSYQLGPDESNEPH'
p2264
sg123
F0.00025000000000000001
sg124
g125
sg33
S'28'
p2265
sg127
g1
(g128
g12
(dp2266
g130
I4
sg131
g132
sg133
g134
sg135
g132
sg136
I01
sg34
g137
sg138
g134
sg139
I0
sg140
I0
sg141
I0
sg142
g134
sg35
g143
sg144
I0
stRp2267
sg146
g147
sg148
F1
sg149
Nsg30
S'CalbiE'
p2268
sbag1
(g2
g3
NtRp2269
(dp2270
g6
g1
(g7
g3
NtRp2271
(dp2272
g10
g1
(g11
g12
(dtRp2273
sg14
g1
(g11
g12
(dtRp2274
sg16
g1
(g11
g12
(dtRp2275
sg18
g1
(g11
g12
(dtRp2276
sg20
g1
(g11
g12
(dtRp2277
sg22
g1
(g11
g12
(dtRp2278
sbsg24
S'Cal'
p2279
sg26
g27
((lp2280
g29
ag30
aS'sequence'
p2281
ag32
ag33
aS'species'
p2282
atRp2283
sg37
(lp2284
sg120
g2235
sg121
S'RWLSTKDLYSRLELPGLNQNVHAMFVMPLGFGNPMGDMFARLNNSFWLPPLSLEGAGTGWTVYPPLSHSGPSVDLAFHLTSSLLGAINFTNMRGPLFWTALLLLSLPVLAGTLLDRNFNTFEGGDPLYHLFWFFGHPEVYIIPGFGSHSTYKKFGMYASIGLGFVWSHHMYVGLDDRAYFTSATMIAPTGIKFSWLATYGGRPMLAFLFLFTGGTGVLNASDAFHDTYYVVHFHYVLSMGAFSLGYYYWPGLYNLYWFNFPMHFLGGMPRRPYPDAGWNSGSSYQLGPDESNEPH'
p2285
sg123
F0.00050000000000000001
sg124
g125
sg33
S'180'
p2286
sg127
g1
(g128
g12
(dp2287
g130
I4
sg131
g132
sg133
g134
sg135
g132
sg136
I01
sg34
g137
sg138
g134
sg139
I0
sg140
I0
sg141
I0
sg142
g134
sg35
g143
sg144
I0
stRp2288
sg146
g147
sg148
F1
sg149
Nsg30
S'CalbiD'
p2289
sbasg120
g2222
sg123
F0.00051999999999999995
sg124
g125
sg33
S'147'
p2290
sg127
g1
(g128
g12
(dp2291
g130
I6
sg131
g132
sg133
g134
sg135
g132
sg136
I01
sg34
g174
sg138
g134
sg139
I0
sg140
I0
sg141
I0
sg142
g134
sg35
g175
sg144
I0
stRp2292
sg146
g147
sg148
F0.73999999999999999
sg149
Nsg30
S'NoName'
p2293
sbag1
(g2
g3
NtRp2294
(dp2295
g6
g1
(g7
g3
NtRp2296
(dp2297
g10
g1
(g11
g12
(dtRp2298
sg14
g1
(g11
g12
(dtRp2299
sg16
g1
(g11
g12
(dtRp2300
sg18
g1
(g11
g12
(dtRp2301
sg20
g1
(g11
g12
(dtRp2302
sg22
g1
(g11
g12
(dtRp2303
sbsg24
S'Cal'
p2304
sg26
g27
((lp2305
g29
ag30
aS'sequence'
p2306
ag32
ag33
aS'species'
p2307
atRp2308
sg37
(lp2309
sg120
g2222
sg121
S'RWLSTKDLYSRLELPGLNQNVHAMFVMPLGFGNPMGDMFARLNNSFWLPPLSLEGAGTGWTVYPPLSHSGPSVDLAFHLTSSLLGAINFTNMRGPLFWTALLLLSLPVLAGTLLDRNFNTFEGGDPLYHLFWFFGHPEVYIIPGFGSHSTYKKFGMYASIGLGFVWSHHMYVGLDDRAYFTSATMIAPTGIKFSWLATYGGRPMLAFLFLFTGGTGVLNASDAFHDTYYVVHFHYVLSMGAFSLGYYYWPGLYNLYWFNFPMHFLGGMPRRPYPDAGWNSGSSYQLGPDESNEPH'
p2310
sg123
F0.00012
sg124
g125
sg33
S'191'
p2311
sg127
g1
(g128
g12
(dp2312
g130
I4
sg131
g132
sg133
g134
sg135
g132
sg136
I01
sg34
g137
sg138
g134
sg139
I0
sg140
I0
sg141
I0
sg142
g134
sg35
g143
sg144
I0
stRp2313
sg146
g147
sg148
F1
sg149
Nsg30
S'CalbiC'
p2314
sbasg120
g2209
sg123
F1.0000000000000001e-05
sg124
g125
sg33
S'124'
p2315
sg127
g1
(g128
g12
(dp2316
g130
I6
sg131
g132
sg133
g134
sg135
g132
sg136
I01
sg34
g174
sg138
g134
sg139
I0
sg140
I0
sg141
I0
sg142
g134
sg35
g175
sg144
I0
stRp2317
sg146
g147
sg148
F1
sg149
Nsg30
S'NoName'
p2318
sbag1
(g2
g3
NtRp2319
(dp2320
g6
g1
(g7
g3
NtRp2321
(dp2322
g10
g1
(g11
g12
(dtRp2323
sg14
g1
(g11
g12
(dtRp2324
sg16
g1
(g11
g12
(dtRp2325
sg18
g1
(g11
g12
(dtRp2326
sg20
g1
(g11
g12
(dtRp2327
sg22
g1
(g11
g12
(dtRp2328
sbsg24
S'Cal'
p2329
sg26
g27
((lp2330
g29
ag30
aS'sequence'
p2331
ag32
ag33
aS'species'
p2332
atRp2333
sg37
(lp2334
sg120
g2209
sg121
S'RWLSTKDLYSRLELPGLNQNVHAMFVMPLGFGNPMGDMFARLNNSFWLPPLSLEGAGTGWTVYPPLSHSGPSVDLAFHLTSSLLGAINFTNMRGPLFWTALLLLSLPVLAGTLLDRNFNTFEGGDPLYHLFWFFGHPEVYIIPGFGSHSTYKKFGMYASIGLGFVWSHHMYVGLDDRAYFTSATMIAPTGIKFSWLATYGGRPMLAFLFLFTGGTGVLNASDAFHDTYYVVHFHYVLSMGAFSLGYYYWPGLYNLYWFNFPMHFLGGMPRRPYPDAGWNSGSSYQLGPDESNEPH'
p2335
sg123
F0.00016000000000000001
sg124
g125
sg33
S'128'
p2336
sg127
g1
(g128
g12
(dp2337
g130
I4
sg131
g132
sg133
g134
sg135
g132
sg136
I01
sg34
g137
sg138
g134
sg139
I0
sg140
I0
sg141
I0
sg142
g134
sg35
g143
sg144
I0
stRp2338
sg146
g147
sg148
F1
sg149
Nsg30
S'CalbiB'
p2339
sbasg120
g2196
sg123
F1.0000000000000001e-05
sg124
g125
sg33
S'117'
p2340
sg127
g1
(g128
g12
(dp2341
g130
I6
sg131
g132
sg133
g134
sg135
g132
sg136
I01
sg34
g174
sg138
g134
sg139
I0
sg140
I0
sg141
I0
sg142
g134
sg35
g175
sg144
I0
stRp2342
sg146
g147
sg148
F1
sg149
Nsg30
S'NoName'
p2343
sbag1
(g2
g3
NtRp2344
(dp2345
g6
g1
(g7
g3
NtRp2346
(dp2347
g10
g1
(g11
g12
(dtRp2348
sg14
g1
(g11
g12
(dtRp2349
sg16
g1
(g11
g12
(dtRp2350
sg18
g1
(g11
g12
(dtRp2351
sg20
g1
(g11
g12
(dtRp2352
sg22
g1
(g11
g12
(dtRp2353
sbsg24
S'Cal'
p2354
sg26
g27
((lp2355
g29
ag30
aS'sequence'
p2356
ag32
ag33
aS'species'
p2357
atRp2358
sg37
(lp2359
sg120
g2196
sg121
S'RWLSTKDLYSRLELPGLNQNVHAMFVMPLGFGNPMGDMFARLNNSFWLPPLSLEGAGTGWTVYPPLSHSGPSVDLAFHLTSSLLGAINFTNMRGPLFWTALLLLSLPVLAGTLLDRNFNTFEGGDPLYHLFWFFGHPEVYIIPGFGSHSTYKKFGMYASIGLGFVWSHHMYVGLDDRAYFTSATMIAPTGIKFSWLATYGGRPMLAFLFLFTGGTGVLNASDAFHDTYYVVHFHYVLSMGAFSLGYYYWPGLYNLYWFNFPMHFLGGMPRRPYPDAGWNSGSSYQLGPDESNEPH'
p2360
sg123
F0.00013999999999999999
sg124
g125
sg33
S'184'
p2361
sg127
g1
(g128
g12
(dp2362
g130
I4
sg131
g132
sg133
g134
sg135
g132
sg136
I01
sg34
g137
sg138
g134
sg139
I0
sg140
I0
sg141
I0
sg142
g134
sg35
g143
sg144
I0
stRp2363
sg146
g147
sg148
F1
sg149
Nsg30
S'CalbiA'
p2364
sbasg120
g2162
sg123
F0.014959999999999999
sg124
g125
sg33
S'158'
p2365
sg127
g1
(g128
g12
(dp2366
g130
I6
sg131
g132
sg133
g134
sg135
g132
sg136
I01
sg34
g174
sg138
g134
sg139
I0
sg140
I0
sg141
I0
sg142
g134
sg35
g175
sg144
I0
stRp2367
sg146
g147
sg148
F0.98999999999999999
sg149
Nsg30
S'NoName'
p2368
sbasg120
g2090
sg123
F0.05287
sg124
g125
sg33
S'72'
p2369
sg127
g1
(g128
g12
(dp2370
g130
I6
sg131
g132
sg133
g134
sg135
g132
sg136
I01
sg34
g174
sg138
g134
sg139
I0
sg140
I0
sg141
I0
sg142
g134
sg35
g175
sg144
I0
stRp2371
sg146
g147
sg148
F0.98999999999999999
sg149
Nsg30
S'NoName'
p2372
sbasg120
g1715
sg123
F0.037499999999999999
sg124
g125
sg33
S'142'
p2373
sg127
g1
(g128
g12
(dp2374
g130
I6
sg131
g132
sg133
g134
sg135
g132
sg136
I01
sg34
g174
sg138
g134
sg139
I0
sg140
I0
sg141
I0
sg142
g134
sg35
g175
sg144
I0
stRp2375
sg146
g147
sg148
F0.98999999999999999
sg149
Nsg30
S'NoName'
p2376
sbasg120
g1002
sg123
F0.10766000000000001
sg124
g125
sg33
S'27'
p2377
sg127
g1
(g128
g12
(dp2378
g130
I6
sg131
g132
sg133
g134
sg135
g132
sg136
I01
sg34
g174
sg138
g134
sg139
I0
sg140
I0
sg141
I0
sg142
g134
sg35
g175
sg144
I0
stRp2379
sg146
g147
sg148
F0.98999999999999999
sg149
Nsg30
S'NoName'
p2380
sbasg120
g968
sg123
F0.093560000000000004
sg124
g125
sg33
S'83'
p2381
sg127
g1
(g128
g12
(dp2382
g130
I6
sg131
g132
sg133
g134
sg135
g132
sg136
I01
sg34
g174
sg138
g134
sg139
I0
sg140
I0
sg141
I0
sg142
g134
sg35
g175
sg144
I0
stRp2383
sg146
g147
sg148
F0.97999999999999998
sg149
Nsg30
S'NoName'
p2384
sbasg120
g955
sg123
F0.036760000000000001
sg124
g125
sg33
S'89'
p2385
sg127
g1
(g128
g12
(dp2386
g130
I6
sg131
g132
sg133
g134
sg135
g132
sg136
I01
sg34
g174
sg138
g134
sg139
I0
sg140
I0
sg141
I0
sg142
g134
sg35
g175
sg144
I0
stRp2387
sg146
g147
sg148
F0.97999999999999998
sg149
Nsg30
S'NoName'
p2388
sbag1
(g2
g3
NtRp2389
(dp2390
g6
g1
(g7
g3
NtRp2391
(dp2392
g10
g1
(g11
g12
(dtRp2393
sg14
g1
(g11
g12
(dtRp2394
sg16
g1
(g11
g12
(dtRp2395
sg18
g1
(g11
g12
(dtRp2396
sg20
g1
(g11
g12
(dtRp2397
sg22
g1
(g11
g12
(dtRp2398
sbsg24
g25
sg26
g27
((lp2399
g33
ag32
ag29
ag30
atRp2400
sg37
(lp2401
g1
(g2
g3
NtRp2402
(dp2403
g6
g1
(g7
g3
NtRp2404
(dp2405
g10
g1
(g11
g12
(dtRp2406
sg14
g1
(g11
g12
(dtRp2407
sg16
g1
(g11
g12
(dtRp2408
sg18
g1
(g11
g12
(dtRp2409
sg20
g1
(g11
g12
(dtRp2410
sg22
g1
(g11
g12
(dtRp2411
sbsg24
g25
sg26
g27
((lp2412
g33
ag32
ag29
ag30
atRp2413
sg37
(lp2414
g1
(g2
g3
NtRp2415
(dp2416
g6
g1
(g7
g3
NtRp2417
(dp2418
g10
g1
(g11
g12
(dtRp2419
sg14
g1
(g11
g12
(dtRp2420
sg16
g1
(g11
g12
(dtRp2421
sg18
g1
(g11
g12
(dtRp2422
sg20
g1
(g11
g12
(dtRp2423
sg22
g1
(g11
g12
(dtRp2424
sbsg24
S'Csu'
p2425
sg26
g27
((lp2426
g29
ag30
aS'sequence'
p2427
ag32
ag33
aS'species'
p2428
atRp2429
sg37
(lp2430
sg120
g2402
sg121
S'RWLSTKDLYSRMELPGLNQNVHAMFIMPLGLGNPLGDMFARLNNSFWLPPLSLEGAGTGWTVYPPLSHSGPSVDLAFHLTSSLLGAINFTNMRGPLYWTALLLLSLPVLAATLLDRNFNTFEGGDPLYHLFWFFGHPEVYIIPGFGSHSTYKKFGMYASIGLGFVWSHHMFVGLDDRAYFTSATMIAPTGVKFSWLATYGGRPMLAFLFLFTGGTGVINASDAFHDTYYIVHFHYVLSMGAFSLGFYYWPGLYNLFWFNFPMHFLGGMPRRPYPDAGWNSGSAYQLGPDESNEPH'
p2431
sg123
F0.00012999999999999999
sg124
g125
sg33
S'150'
p2432
sg127
g1
(g128
g12
(dp2433
g130
I4
sg131
g132
sg133
g134
sg135
g132
sg136
I01
sg34
g137
sg138
g134
sg139
I0
sg140
I0
sg141
I0
sg142
g134
sg35
g143
sg144
I0
stRp2434
sg146
g147
sg148
F1
sg149
Nsg30
S'CsubhB'
p2435
sbag1
(g2
g3
NtRp2436
(dp2437
g6
g1
(g7
g3
NtRp2438
(dp2439
g10
g1
(g11
g12
(dtRp2440
sg14
g1
(g11
g12
(dtRp2441
sg16
g1
(g11
g12
(dtRp2442
sg18
g1
(g11
g12
(dtRp2443
sg20
g1
(g11
g12
(dtRp2444
sg22
g1
(g11
g12
(dtRp2445
sbsg24
S'Csu'
p2446
sg26
g27
((lp2447
g29
ag30
aS'sequence'
p2448
ag32
ag33
aS'species'
p2449
atRp2450
sg37
(lp2451
sg120
g2402
sg121
S'RWLSTKDLYSRMELPGLNQNVHAMFIMPLGLGNPLGDMFARLNNSFWLPPLSLEGAGTGWTVYPPLSHSGPSVDLAFHLTSSLLGAINFTNMRGPLYWTALLLLSLPVLAATLLDRNFNTFEGGDPLYHLFWFFGHPEVYIIPGFGSHSTYKKFGMYASIGLGFVWSHHMFVGLDDRAYFTSATMIAPTGVKFSWLATYGGRPMLAFLFLFTGGTGVINASDAFHDTYYIVHFHYVLSMGAFSLGFYYWPGLYNLFWFNFPMHFLGGMPRRPYPDAGWNSGSAYQLGPDESNEPH'
p2452
sg123
F0.00013999999999999999
sg124
g125
sg33
S'172'
p2453
sg127
g1
(g128
g12
(dp2454
g130
I4
sg131
g132
sg133
g134
sg135
g132
sg136
I01
sg34
g137
sg138
g134
sg139
I0
sg140
I0
sg141
I0
sg142
g134
sg35
g143
sg144
I0
stRp2455
sg146
g147
sg148
F1
sg149
Nsg30
S'CsubhA'
p2456
sbasg120
g2389
sg123
F0.59348999999999996
sg124
g125
sg33
S'160'
p2457
sg127
g1
(g128
g12
(dp2458
g130
I6
sg131
g132
sg133
g134
sg135
g132
sg136
I01
sg34
g174
sg138
g134
sg139
I0
sg140
I0
sg141
I0
sg142
g134
sg35
g175
sg144
I0
stRp2459
sg146
g147
sg148
F1
sg149
Nsg30
S'NoName'
p2460
sbag1
(g2
g3
NtRp2461
(dp2462
g6
g1
(g7
g3
NtRp2463
(dp2464
g10
g1
(g11
g12
(dtRp2465
sg14
g1
(g11
g12
(dtRp2466
sg16
g1
(g11
g12
(dtRp2467
sg18
g1
(g11
g12
(dtRp2468
sg20
g1
(g11
g12
(dtRp2469
sg22
g1
(g11
g12
(dtRp2470
sbsg24
S'Cal'
p2471
sg26
g27
((lp2472
g29
ag30
aS'sequence'
p2473
ag32
ag33
aS'species'
p2474
atRp2475
sg37
(lp2476
sg120
g2389
sg121
S'RWLSTKDLYSRMELPGLNQNVHAMFVMPLGFGNPLGDMFARLNNSFWLPPLSLDGPGTGWTVYPPLSHSGASVDFAFHLTSSLLGAINFTNMRGPLFWTALLLLSLPVLVATLLDRNFNTFEGGDPLYHLFWFFGHPEVYMIPGFGSHSTYKKFGMYASIGLGFVWSHHMFVGLDDRAYFTSATMMAPTGIKFSWMATYGGYPMLAFLFLFTGGTGVINASDAFHDTYYIVHFHYVLSMGAFSLGYYYWPGLYNLFWFNFPMHFLGGMPRRPYPDAGWNSGSAYQLGPDESNEPH'
p2477
sg123
F0.40044000000000002
sg124
g125
sg33
S'195'
p2478
sg127
g1
(g128
g12
(dp2479
g130
I4
sg131
g132
sg133
g134
sg135
g132
sg136
I01
sg34
g137
sg138
g134
sg139
I0
sg140
I0
sg141
I0
sg142
g134
sg35
g143
sg144
I0
stRp2480
sg146
g147
sg148
F1
sg149
Nsg30
S'CalaiA'
p2481
sbasg120
g955
sg123
F0.080810000000000007
sg124
g125
sg33
S'203'
p2482
sg127
g1
(g128
g12
(dp2483
g130
I6
sg131
g132
sg133
g134
sg135
g132
sg136
I01
sg34
g174
sg138
g134
sg139
I0
sg140
I0
sg141
I0
sg142
g134
sg35
g175
sg144
I0
stRp2484
sg146
g147
sg148
F0.98999999999999999
sg149
Nsg30
S'NoName'
p2485
sbasg120
g693
sg123
F0.075389999999999999
sg124
g125
sg33
S'75'
p2486
sg127
g1
(g128
g12
(dp2487
g130
I6
sg131
g132
sg133
g134
sg135
g132
sg136
I01
sg34
g174
sg138
g134
sg139
I0
sg140
I0
sg141
I0
sg142
g134
sg35
g175
sg144
I0
stRp2488
sg146
g147
sg148
F0.94999999999999996
sg149
Nsg30
S'NoName'
p2489
sbasg120
g680
sg123
F1.2542500000000001
sg124
g125
sg33
S'101'
p2490
sg127
g1
(g128
g12
(dp2491
g130
I6
sg131
g132
sg133
g134
sg135
g132
sg136
I01
sg34
g174
sg138
g134
sg139
I0
sg140
I0
sg141
I0
sg142
g134
sg35
g175
sg144
I0
stRp2492
sg146
g147
sg148
F0.97999999999999998
sg149
Nsg30
S'NoName'
p2493
sbag1
(g2
g3
NtRp2494
(dp2495
g6
g1
(g7
g3
NtRp2496
(dp2497
g10
g1
(g11
g12
(dtRp2498
sg14
g1
(g11
g12
(dtRp2499
sg16
g1
(g11
g12
(dtRp2500
sg18
g1
(g11
g12
(dtRp2501
sg20
g1
(g11
g12
(dtRp2502
sg22
g1
(g11
g12
(dtRp2503
sbsg24
g25
sg26
g27
((lp2504
g33
ag32
ag29
ag30
atRp2505
sg37
(lp2506
g1
(g2
g3
NtRp2507
(dp2508
g6
g1
(g7
g3
NtRp2509
(dp2510
g10
g1
(g11
g12
(dtRp2511
sg14
g1
(g11
g12
(dtRp2512
sg16
g1
(g11
g12
(dtRp2513
sg18
g1
(g11
g12
(dtRp2514
sg20
g1
(g11
g12
(dtRp2515
sg22
g1
(g11
g12
(dtRp2516
sbsg24
g25
sg26
g27
((lp2517
g33
ag32
ag29
ag30
atRp2518
sg37
(lp2519
g1
(g2
g3
NtRp2520
(dp2521
g6
g1
(g7
g3
NtRp2522
(dp2523
g10
g1
(g11
g12
(dtRp2524
sg14
g1
(g11
g12
(dtRp2525
sg16
g1
(g11
g12
(dtRp2526
sg18
g1
(g11
g12
(dtRp2527
sg20
g1
(g11
g12
(dtRp2528
sg22
g1
(g11
g12
(dtRp2529
sbsg24
S'Ppa'
p2530
sg26
g27
((lp2531
g29
ag30
aS'sequence'
p2532
ag32
ag33
aS'species'
p2533
atRp2534
sg37
(lp2535
sg120
g2507
sg121
S'RWLSTKDLYSRLELPGLNQNVHAMFVMPAGFGNPMGDMFARLNNSFWLPPLSLEGAGTGWTVYPPLAHSGPSVDLAFHLTSSLLGAMNFTNMRGPLFWTSLLLLSLPVLAGTLLDRNFNTFEGGDPLYHLFWFFGHPEVYIMPGFGSHSTYKKFGMYASIGLGLVWSHHMYVGLDDRAYFTSATMMAPTGMKFSWLATYGGRPMLAFLFLFTGGSGVLNASDAFHDTYYVIHFHYVLSLGAFSLGYYYWPGLYNLFWFNFPMHFLGGMPRRPYPDAGWNSGSSYQLGPDESNDPH'
p2536
sg123
F0.16184999999999999
sg124
g125
sg33
S'53'
p2537
sg127
g1
(g128
g12
(dp2538
g130
I4
sg131
g132
sg133
g134
sg135
g132
sg136
I01
sg34
g137
sg138
g134
sg139
I0
sg140
I0
sg141
I0
sg142
g134
sg35
g143
sg144
I0
stRp2539
sg146
g147
sg148
F1
sg149
Nsg30
S'PpastA'
p2540
sbag1
(g2
g3
NtRp2541
(dp2542
g6
g1
(g7
g3
NtRp2543
(dp2544
g10
g1
(g11
g12
(dtRp2545
sg14
g1
(g11
g12
(dtRp2546
sg16
g1
(g11
g12
(dtRp2547
sg18
g1
(g11
g12
(dtRp2548
sg20
g1
(g11
g12
(dtRp2549
sg22
g1
(g11
g12
(dtRp2550
sbsg24
g25
sg26
g27
((lp2551
g33
ag32
ag29
ag30
atRp2552
sg37
(lp2553
g1
(g2
g3
NtRp2554
(dp2555
g6
g1
(g7
g3
NtRp2556
(dp2557
g10
g1
(g11
g12
(dtRp2558
sg14
g1
(g11
g12
(dtRp2559
sg16
g1
(g11
g12
(dtRp2560
sg18
g1
(g11
g12
(dtRp2561
sg20
g1
(g11
g12
(dtRp2562
sg22
g1
(g11
g12
(dtRp2563
sbsg24
S'Pta'
p2564
sg26
g27
((lp2565
g29
ag30
aS'sequence'
p2566
ag32
ag33
aS'species'
p2567
atRp2568
sg37
(lp2569
sg120
g2541
sg121
S'RWLSTKDLYSRLELPGLNQNVHAMFVMPAGFGNPMGDMFARLNNSFWLPPLSLEGAGTGWTVYPPLSHSGPSVDLAFHLTSSLLGGMNFTNMRGPLFWTSLLVLTLPVLAGTLLDRNFNTFEGGDPLYHLFWFFGHPEVYIIPGFGSHSAYKKFGMYASIGLGLVWSHHMYVGLDDRAYFTSATMIAPTGIKFSWLATYGGRPMLAFLFLFTGGSGVLNASDAFHDTYYVMHFHYVLSLGAFSLGYYYWPGLYNLFWFNFPMHFLGGMPRRPYPDAGFNSGSSYQLGPDESNEPH'
p2570
sg123
F0.23080999999999999
sg124
g125
sg33
S'208'
p2571
sg127
g1
(g128
g12
(dp2572
g130
I4
sg131
g132
sg133
g134
sg135
g132
sg136
I01
sg34
g137
sg138
g134
sg139
I0
sg140
I0
sg141
I0
sg142
g134
sg35
g143
sg144
I0
stRp2573
sg146
g147
sg148
F1
sg149
Nsg30
S'PtannA'
p2574
sbag1
(g2
g3
NtRp2575
(dp2576
g6
g1
(g7
g3
NtRp2577
(dp2578
g10
g1
(g11
g12
(dtRp2579
sg14
g1
(g11
g12
(dtRp2580
sg16
g1
(g11
g12
(dtRp2581
sg18
g1
(g11
g12
(dtRp2582
sg20
g1
(g11
g12
(dtRp2583
sg22
g1
(g11
g12
(dtRp2584
sbsg24
g25
sg26
g27
((lp2585
g33
ag32
ag29
ag30
atRp2586
sg37
(lp2587
g1
(g2
g3
NtRp2588
(dp2589
g6
g1
(g7
g3
NtRp2590
(dp2591
g10
g1
(g11
g12
(dtRp2592
sg14
g1
(g11
g12
(dtRp2593
sg16
g1
(g11
g12
(dtRp2594
sg18
g1
(g11
g12
(dtRp2595
sg20
g1
(g11
g12
(dtRp2596
sg22
g1
(g11
g12
(dtRp2597
sbsg24
g25
sg26
g27
((lp2598
g33
ag32
ag29
ag30
atRp2599
sg37
(lp2600
g1
(g2
g3
NtRp2601
(dp2602
g6
g1
(g7
g3
NtRp2603
(dp2604
g10
g1
(g11
g12
(dtRp2605
sg14
g1
(g11
g12
(dtRp2606
sg16
g1
(g11
g12
(dtRp2607
sg18
g1
(g11
g12
(dtRp2608
sg20
g1
(g11
g12
(dtRp2609
sg22
g1
(g11
g12
(dtRp2610
sbsg24
S'Pkl'
p2611
sg26
g27
((lp2612
g29
ag30
aS'sequence'
p2613
ag32
ag33
aS'species'
p2614
atRp2615
sg37
(lp2616
sg120
g2588
sg121
S'RWLSTKDLYSRLELPGLNQNVHAMFMMPTGFGNPMGDMFARLNNSFWLPPLSLEGPGTGWTVYPPLSHSGPSVDLAFHLTSSLLGAMNFTNMRGPLFWTALLVMTLPVLAGTLLDRNFNTFEGGDPLYHLFWFFGHPEVYMMPGFGSHSTYKKFGMYASMGLGLVWSHHMYVGLDDRAYFTSATMMAPTGMKFSWLATYGGRPMLAFMFIFTGGSGVLNASDAFHDTYYVMHFHYVLSLGAFAMGYYYWPGLFNLFWFNFPMHFLGGMPRRPYPDAGFNSGASYQLGPDESNEPH'
p2617
sg123
F0.12625
sg124
g125
sg33
S'36'
p2618
sg127
g1
(g128
g12
(dp2619
g130
I4
sg131
g132
sg133
g134
sg135
g132
sg136
I01
sg34
g137
sg138
g134
sg139
I0
sg140
I0
sg141
I0
sg142
g134
sg35
g143
sg144
I0
stRp2620
sg146
g147
sg148
F1
sg149
Nsg30
S'PkluyA'
p2621
sbag1
(g2
g3
NtRp2622
(dp2623
g6
g1
(g7
g3
NtRp2624
(dp2625
g10
g1
(g11
g12
(dtRp2626
sg14
g1
(g11
g12
(dtRp2627
sg16
g1
(g11
g12
(dtRp2628
sg18
g1
(g11
g12
(dtRp2629
sg20
g1
(g11
g12
(dtRp2630
sg22
g1
(g11
g12
(dtRp2631
sbsg24
S'Bcu'
p2632
sg26
g27
((lp2633
g29
ag30
aS'sequence'
p2634
ag32
ag33
aS'species'
p2635
atRp2636
sg37
(lp2637
sg120
g2588
sg121
S'RWLSTKDLYSRLELPGLDQNVHSMFMMPTGFGNPMGDMFARLNNAFWYPPLSLEGPGTGWTVYPPLSHSGPSMDLAFHLTSSMLSSMNFTNMRGPLFWTALLMMTLPVLAGTLLDRNFNTFEGGDPLYHLYWFFGHPEVYIIPVFGSHSNYKKFGMYASMGLGLVWSHHMYVGLDDRAYFTSATMIAPTGIKFSWLATYGGRPMLAFLFMFTGGSGVLNASDAFHDTYFVVHFHYVLSLGVYGVGYYFWPGLYNMFWFNFPMHFLGGMPRRPYPDAGFNSGSAYQLGPDESNEPH'
p2638
sg123
F0.30854999999999999
sg124
g125
sg33
S'136'
p2639
sg127
g1
(g128
g12
(dp2640
g130
I4
sg131
g132
sg133
g134
sg135
g132
sg136
I01
sg34
g137
sg138
g134
sg139
I0
sg140
I0
sg141
I0
sg142
g134
sg35
g143
sg144
I0
stRp2641
sg146
g147
sg148
F1
sg149
Nsg30
S'BcustA'
p2642
sbasg120
g2575
sg123
F0.19120999999999999
sg124
g125
sg33
S'105'
p2643
sg127
g1
(g128
g12
(dp2644
g130
I6
sg131
g132
sg133
g134
sg135
g132
sg136
I01
sg34
g174
sg138
g134
sg139
I0
sg140
I0
sg141
I0
sg142
g134
sg35
g175
sg144
I0
stRp2645
sg146
g147
sg148
F0.98999999999999999
sg149
Nsg30
S'NoName'
p2646
sbag1
(g2
g3
NtRp2647
(dp2648
g6
g1
(g7
g3
NtRp2649
(dp2650
g10
g1
(g11
g12
(dtRp2651
sg14
g1
(g11
g12
(dtRp2652
sg16
g1
(g11
g12
(dtRp2653
sg18
g1
(g11
g12
(dtRp2654
sg20
g1
(g11
g12
(dtRp2655
sg22
g1
(g11
g12
(dtRp2656
sbsg24
S'Oan'
p2657
sg26
g27
((lp2658
g29
ag30
aS'sequence'
p2659
ag32
ag33
aS'species'
p2660
atRp2661
sg37
(lp2662
sg120
g2575
sg121
S'RWLSTKDLYSRLELPGLNQNAHAMFVMPAGFGNPMGDMFARLNNSFWLPPLSLEGAGTGWTVYPPLSHSGPSVDLAFHLTSSLLGAINFTNMRGPLFWTALLLLSLPVLAGTLLDRNFNTFEGGDPLYHLFWFFGHPEVYIIPGFGSHSTYKKFGMYASIGLGLVWSHHMYVGLDDRAYFTSATMIAPTGIKFSWIATYGGRPMLAFLFLFTGGSGVLNASDAFHDTYYVIHFHYVLSLGAFSLGYYYWPGLYNLFWFNFPMHFLGGMPRRPYPDAGYNSGSSYQLGPDESNEPH'
p2663
sg123
F0.025399999999999999
sg124
g125
sg33
S'206'
p2664
sg127
g1
(g128
g12
(dp2665
g130
I4
sg131
g132
sg133
g134
sg135
g132
sg136
I01
sg34
g137
sg138
g134
sg139
I0
sg140
I0
sg141
I0
sg142
g134
sg35
g143
sg144
I0
stRp2666
sg146
g147
sg148
F1
sg149
Nsg30
S'OanguA'
p2667
sbasg120
g2541
sg123
F0.33273999999999998
sg124
g125
sg33
S'90'
p2668
sg127
g1
(g128
g12
(dp2669
g130
I6
sg131
g132
sg133
g134
sg135
g132
sg136
I01
sg34
g174
sg138
g134
sg139
I0
sg140
I0
sg141
I0
sg142
g134
sg35
g175
sg144
I0
stRp2670
sg146
g147
sg148
F0.98999999999999999
sg149
Nsg30
S'NoName'
p2671
sbasg120
g2507
sg123
F0.054379999999999998
sg124
g125
sg33
S'218'
p2672
sg127
g1
(g128
g12
(dp2673
g130
I6
sg131
g132
sg133
g134
sg135
g132
sg136
I01
sg34
g174
sg138
g134
sg139
I0
sg140
I0
sg141
I0
sg142
g134
sg35
g175
sg144
I0
stRp2674
sg146
g147
sg148
F0.96999999999999997
sg149
Nsg30
S'NoName'
p2675
sbasg120
g2494
sg123
F0.76378000000000001
sg124
g125
sg33
S'112'
p2676
sg127
g1
(g128
g12
(dp2677
g130
I6
sg131
g132
sg133
g134
sg135
g132
sg136
I01
sg34
g174
sg138
g134
sg139
I0
sg140
I0
sg141
I0
sg142
g134
sg35
g175
sg144
I0
stRp2678
sg146
g147
sg148
F0.98999999999999999
sg149
Nsg30
S'NoName'
p2679
sbag1
(g2
g3
NtRp2680
(dp2681
g6
g1
(g7
g3
NtRp2682
(dp2683
g10
g1
(g11
g12
(dtRp2684
sg14
g1
(g11
g12
(dtRp2685
sg16
g1
(g11
g12
(dtRp2686
sg18
g1
(g11
g12
(dtRp2687
sg20
g1
(g11
g12
(dtRp2688
sg22
g1
(g11
g12
(dtRp2689
sbsg24
g25
sg26
g27
((lp2690
g33
ag32
ag29
ag30
atRp2691
sg37
(lp2692
g1
(g2
g3
NtRp2693
(dp2694
g6
g1
(g7
g3
NtRp2695
(dp2696
g10
g1
(g11
g12
(dtRp2697
sg14
g1
(g11
g12
(dtRp2698
sg16
g1
(g11
g12
(dtRp2699
sg18
g1
(g11
g12
(dtRp2700
sg20
g1
(g11
g12
(dtRp2701
sg22
g1
(g11
g12
(dtRp2702
sbsg24
g25
sg26
g27
((lp2703
g33
ag32
ag29
ag30
atRp2704
sg37
(lp2705
g1
(g2
g3
NtRp2706
(dp2707
g6
g1
(g7
g3
NtRp2708
(dp2709
g10
g1
(g11
g12
(dtRp2710
sg14
g1
(g11
g12
(dtRp2711
sg16
g1
(g11
g12
(dtRp2712
sg18
g1
(g11
g12
(dtRp2713
sg20
g1
(g11
g12
(dtRp2714
sg22
g1
(g11
g12
(dtRp2715
sbsg24
g25
sg26
g27
((lp2716
g33
ag32
ag29
ag30
atRp2717
sg37
(lp2718
g1
(g2
g3
NtRp2719
(dp2720
g6
g1
(g7
g3
NtRp2721
(dp2722
g10
g1
(g11
g12
(dtRp2723
sg14
g1
(g11
g12
(dtRp2724
sg16
g1
(g11
g12
(dtRp2725
sg18
g1
(g11
g12
(dtRp2726
sg20
g1
(g11
g12
(dtRp2727
sg22
g1
(g11
g12
(dtRp2728
sbsg24
g25
sg26
g27
((lp2729
g33
ag32
ag29
ag30
atRp2730
sg37
(lp2731
g1
(g2
g3
NtRp2732
(dp2733
g6
g1
(g7
g3
NtRp2734
(dp2735
g10
g1
(g11
g12
(dtRp2736
sg14
g1
(g11
g12
(dtRp2737
sg16
g1
(g11
g12
(dtRp2738
sg18
g1
(g11
g12
(dtRp2739
sg20
g1
(g11
g12
(dtRp2740
sg22
g1
(g11
g12
(dtRp2741
sbsg24
S'Cva'
p2742
sg26
g27
((lp2743
g29
ag30
aS'sequence'
p2744
ag32
ag33
aS'species'
p2745
atRp2746
sg37
(lp2747
sg120
g2719
sg121
S'RWLSTKDLYSRLELPGLNQNVHAMFVMPLGFGNPLGDMFARLNNSFWLPPLSLEGAGTGWTIYPPLSHSSPSVDLGFHLTSSLLGAINFTNMRGPLFWTAMLLLSLPVLAGTLLDRNFNTFEGGDPLYHLFWFFGHPEVYIIPGFGSHSTYKKFGMYASIALGFVWSHHMYVGLDDRAYFTSSTMIAPTGIKFSWLATYGGRPMLAFLFLFTGGTGVLNASDAFHDTYYVVHFHYVLSMGAFSLGYYYWPGLYNLFWFNFPMHFLGGMPRRPYPDAGWNSGSSYQLGPDESNEPH'
p2748
sg123
F0.043270000000000003
sg124
g125
sg33
S'196'
p2749
sg127
g1
(g128
g12
(dp2750
g130
I4
sg131
g132
sg133
g134
sg135
g132
sg136
I01
sg34
g137
sg138
g134
sg139
I0
sg140
I0
sg141
I0
sg142
g134
sg35
g143
sg144
I0
stRp2751
sg146
g147
sg148
F1
sg149
Nsg30
S'CvartA'
p2752
sbag1
(g2
g3
NtRp2753
(dp2754
g6
g1
(g7
g3
NtRp2755
(dp2756
g10
g1
(g11
g12
(dtRp2757
sg14
g1
(g11
g12
(dtRp2758
sg16
g1
(g11
g12
(dtRp2759
sg18
g1
(g11
g12
(dtRp2760
sg20
g1
(g11
g12
(dtRp2761
sg22
g1
(g11
g12
(dtRp2762
sbsg24
g25
sg26
g27
((lp2763
g33
ag32
ag29
ag30
atRp2764
sg37
(lp2765
g1
(g2
g3
NtRp2766
(dp2767
g6
g1
(g7
g3
NtRp2768
(dp2769
g10
g1
(g11
g12
(dtRp2770
sg14
g1
(g11
g12
(dtRp2771
sg16
g1
(g11
g12
(dtRp2772
sg18
g1
(g11
g12
(dtRp2773
sg20
g1
(g11
g12
(dtRp2774
sg22
g1
(g11
g12
(dtRp2775
sbsg24
S'Csu'
p2776
sg26
g27
((lp2777
g29
ag30
aS'sequence'
p2778
ag32
ag33
aS'species'
p2779
atRp2780
sg37
(lp2781
sg120
g2753
sg121
S'RWLSTKDLYSRLELPGLNQNVHAMFVMPLGFGNPLGDMFARLNNSFWLPPLSLEGAGTGWTIYPPLSHSSPSVDLGFHLTSSMLGAINFTNMRGPLFWTAMLLLSLPVLAGTLLDRNFNTFEGGDPLYHLFWFFGHPEVYIIPGFGSHSTYKKFGMYASIALGFVWSHHMYVGLDDRAYFTSSTMIAPTGIKFSWLATYGGRPMLAFLFLFTGGTGVLNASDAFHDSYYY-HFHYVLSMGAFSLGYYYWPGLYNLFWFNFPMHFLGGMPRRPYPDAGWNSGSSYQLGPDESNEPH'
p2782
sg123
F0.0043699999999999998
sg124
g125
sg33
S'126'
p2783
sg127
g1
(g128
g12
(dp2784
g130
I4
sg131
g132
sg133
g134
sg135
g132
sg136
I01
sg34
g137
sg138
g134
sg139
I0
sg140
I0
sg141
I0
sg142
g134
sg35
g143
sg144
I0
stRp2785
sg146
g147
sg148
F1
sg149
Nsg30
S'CsuavB'
p2786
sbag1
(g2
g3
NtRp2787
(dp2788
g6
g1
(g7
g3
NtRp2789
(dp2790
g10
g1
(g11
g12
(dtRp2791
sg14
g1
(g11
g12
(dtRp2792
sg16
g1
(g11
g12
(dtRp2793
sg18
g1
(g11
g12
(dtRp2794
sg20
g1
(g11
g12
(dtRp2795
sg22
g1
(g11
g12
(dtRp2796
sbsg24
S'Csu'
p2797
sg26
g27
((lp2798
g29
ag30
aS'sequence'
p2799
ag32
ag33
aS'species'
p2800
atRp2801
sg37
(lp2802
sg120
g2753
sg121
S'RWLSTKDLYSRLELPGLNQNVHAMFVMPLGFGNPLGDMFARLNNSFWLPPLSLEGAGTGWTIYPPLSHSSPSVDLGFHLTSSLLGAINFTNMRGPLFWTAMLLLSLPVLAGTLLDRNFNTFEGGDPLYHLFWFFGHPEVYIIPGFGSHSTYKKFGMYASIALGFVWSHHMYVGLDDRAYFTSSTMIAPTGIKFSWLATYGGRPMLAFLFLFTGGTGVLNASDAFHDTYYVVHFHYVLSMGAFSLGYYYWPGLYNLFWFNFPMHFLGGMPRRPYPDAGWNSGSSYQLGPDESNEPH'
p2803
sg123
F0.0025999999999999999
sg124
g125
sg33
S'165'
p2804
sg127
g1
(g128
g12
(dp2805
g130
I4
sg131
g132
sg133
g134
sg135
g132
sg136
I01
sg34
g137
sg138
g134
sg139
I0
sg140
I0
sg141
I0
sg142
g134
sg35
g143
sg144
I0
stRp2806
sg146
g147
sg148
F1
sg149
Nsg30
S'CsuavA'
p2807
sbasg120
g2719
sg123
F0.016740000000000001
sg124
g125
sg33
S'186'
p2808
sg127
g1
(g128
g12
(dp2809
g130
I6
sg131
g132
sg133
g134
sg135
g132
sg136
I01
sg34
g174
sg138
g134
sg139
I0
sg140
I0
sg141
I0
sg142
g134
sg35
g175
sg144
I0
stRp2810
sg146
g147
sg148
F0.98999999999999999
sg149
Nsg30
S'NoName'
p2811
sbasg120
g2706
sg123
F0.01158
sg124
g125
sg33
S'182'
p2812
sg127
g1
(g128
g12
(dp2813
g130
I6
sg131
g132
sg133
g134
sg135
g132
sg136
I01
sg34
g174
sg138
g134
sg139
I0
sg140
I0
sg141
I0
sg142
g134
sg35
g175
sg144
I0
stRp2814
sg146
g147
sg148
F0.97999999999999998
sg149
Nsg30
S'NoName'
p2815
sbag1
(g2
g3
NtRp2816
(dp2817
g6
g1
(g7
g3
NtRp2818
(dp2819
g10
g1
(g11
g12
(dtRp2820
sg14
g1
(g11
g12
(dtRp2821
sg16
g1
(g11
g12
(dtRp2822
sg18
g1
(g11
g12
(dtRp2823
sg20
g1
(g11
g12
(dtRp2824
sg22
g1
(g11
g12
(dtRp2825
sbsg24
S'Cja'
p2826
sg26
g27
((lp2827
g29
ag30
aS'sequence'
p2828
ag32
ag33
aS'species'
p2829
atRp2830
sg37
(lp2831
sg120
g2706
sg121
S'RWLSTKDLYSRLELPGLNQNVHAMFVMPLGFGNPLGDMFARLNNSFWLPPLSLEGAGTGWTIYPPLAHSSPSVDLGFHLTSSLLGAINFTNMRGPLFWTAMLLLSLPVLAGTLLDRNFNTFEGGDPLYHLFWFFGHPEVYIIPGFGSHSTYKKFGMYASIALGFVWSHHMYVGLDDRAYFTSSTMIAPTGIKFSWLATYGGRPMLAFLFLFTGGTGVLNASDAFHDTYYVVHFHYVLSMGAFSLGYYYWPGLYNLFWFNFPMHFLGGMPRRPYPDAGWNSGSSYQLGPDESNEPH'
p2832
sg123
F0.033799999999999997
sg124
g125
sg33
S'11'
p2833
sg127
g1
(g128
g12
(dp2834
g130
I4
sg131
g132
sg133
g134
sg135
g132
sg136
I01
sg34
g137
sg138
g134
sg139
I0
sg140
I0
sg141
I0
sg142
g134
sg35
g143
sg144
I0
stRp2835
sg146
g147
sg148
F1
sg149
Nsg30
S'CjadiA'
p2836
sbasg120
g2693
sg123
F0.10375
sg124
g125
sg33
S'139'
p2837
sg127
g1
(g128
g12
(dp2838
g130
I6
sg131
g132
sg133
g134
sg135
g132
sg136
I01
sg34
g174
sg138
g134
sg139
I0
sg140
I0
sg141
I0
sg142
g134
sg35
g175
sg144
I0
stRp2839
sg146
g147
sg148
F0.98999999999999999
sg149
Nsg30
S'NoName'
p2840
sbag1
(g2
g3
NtRp2841
(dp2842
g6
g1
(g7
g3
NtRp2843
(dp2844
g10
g1
(g11
g12
(dtRp2845
sg14
g1
(g11
g12
(dtRp2846
sg16
g1
(g11
g12
(dtRp2847
sg18
g1
(g11
g12
(dtRp2848
sg20
g1
(g11
g12
(dtRp2849
sg22
g1
(g11
g12
(dtRp2850
sbsg24
g25
sg26
g27
((lp2851
g33
ag32
ag29
ag30
atRp2852
sg37
(lp2853
g1
(g2
g3
NtRp2854
(dp2855
g6
g1
(g7
g3
NtRp2856
(dp2857
g10
g1
(g11
g12
(dtRp2858
sg14
g1
(g11
g12
(dtRp2859
sg16
g1
(g11
g12
(dtRp2860
sg18
g1
(g11
g12
(dtRp2861
sg20
g1
(g11
g12
(dtRp2862
sg22
g1
(g11
g12
(dtRp2863
sbsg24
g25
sg26
g27
((lp2864
g33
ag32
ag29
ag30
atRp2865
sg37
(lp2866
g1
(g2
g3
NtRp2867
(dp2868
g6
g1
(g7
g3
NtRp2869
(dp2870
g10
g1
(g11
g12
(dtRp2871
sg14
g1
(g11
g12
(dtRp2872
sg16
g1
(g11
g12
(dtRp2873
sg18
g1
(g11
g12
(dtRp2874
sg20
g1
(g11
g12
(dtRp2875
sg22
g1
(g11
g12
(dtRp2876
sbsg24
S'Wpi'
p2877
sg26
g27
((lp2878
g29
ag30
aS'sequence'
p2879
ag32
ag33
aS'species'
p2880
atRp2881
sg37
(lp2882
sg120
g2854
sg121
S'RWLSTKDLYSRLELPGLNQNVHAMFVMPLGFGNPLGDMFARLNNSFWLPPLSLEGAGTGWTIYPPLSHSSPSVDLGFHLTSSLLGAINFTNMRGPLFWTAMLLLSLPVLAGTLLDRNFNTFEGGDPLYHLFWFFGHPEVYIIPGFGSHSTYKKFGMYASIALGFVWSHHMYVGLDDRAYFTSSTMIAPTGIKFSWLATYGGRPMLAFLFLFTGGTGVLNASDAFHDTYYVVHFHYVLSMGAFSLGYYYWPGLYNLFWFNFPMHFLGGMPRRPYPDAGWNSGSSFQLGPDESNEPH'
p2883
sg123
F0.051209999999999999
sg124
g125
sg33
S'14'
p2884
sg127
g1
(g128
g12
(dp2885
g130
I4
sg131
g132
sg133
g134
sg135
g132
sg136
I01
sg34
g137
sg138
g134
sg139
I0
sg140
I0
sg141
I0
sg142
g134
sg35
g143
sg144
I0
stRp2886
sg146
g147
sg148
F1
sg149
Nsg30
S'WpijpA'
p2887
sbag1
(g2
g3
NtRp2888
(dp2889
g6
g1
(g7
g3
NtRp2890
(dp2891
g10
g1
(g11
g12
(dtRp2892
sg14
g1
(g11
g12
(dtRp2893
sg16
g1
(g11
g12
(dtRp2894
sg18
g1
(g11
g12
(dtRp2895
sg20
g1
(g11
g12
(dtRp2896
sg22
g1
(g11
g12
(dtRp2897
sbsg24
S'Wmu'
p2898
sg26
g27
((lp2899
g29
ag30
aS'sequence'
p2900
ag32
ag33
aS'species'
p2901
atRp2902
sg37
(lp2903
sg120
g2854
sg121
S'RWLSTKDLYSRLELPGLNQNVHAMFVMPLGFGNPLGDMFARLNNSFWLPPLSLEGAGTGWTIYPPLAHSSPSVDLGFHLTSSLLGAINFTNMRGPLFWTAMLLLSLPVLAGTLLDRNFNTFEGGDPLYHLFWFFGHPEVYIIPGFGSHSTYKKFGMYASIALGFVWSHHMYVGLDDRAYFTSSTMIAPTGIKFSWLATYGGRPMLAFLFLFTGGTGVLNASDAFHDTYYVVHFHYVLSMGAFSLGYYYWPGLYNLFWFNFPMHFLGGMPRRPYPDAGWNSGSSYQLGPDESNEPH'
p2904
sg123
F0.079170000000000004
sg124
g125
sg33
S'176'
p2905
sg127
g1
(g128
g12
(dp2906
g130
I4
sg131
g132
sg133
g134
sg135
g132
sg136
I01
sg34
g137
sg138
g134
sg139
I0
sg140
I0
sg141
I0
sg142
g134
sg35
g143
sg144
I0
stRp2907
sg146
g147
sg148
F1
sg149
Nsg30
S'WmucoA'
p2908
sbasg120
g2841
sg123
F0.14757000000000001
sg124
g125
sg33
S'92'
p2909
sg127
g1
(g128
g12
(dp2910
g130
I6
sg131
g132
sg133
g134
sg135
g132
sg136
I01
sg34
g174
sg138
g134
sg139
I0
sg140
I0
sg141
I0
sg142
g134
sg35
g175
sg144
I0
stRp2911
sg146
g147
sg148
F0.98999999999999999
sg149
Nsg30
S'NoName'
p2912
sbag1
(g2
g3
NtRp2913
(dp2914
g6
g1
(g7
g3
NtRp2915
(dp2916
g10
g1
(g11
g12
(dtRp2917
sg14
g1
(g11
g12
(dtRp2918
sg16
g1
(g11
g12
(dtRp2919
sg18
g1
(g11
g12
(dtRp2920
sg20
g1
(g11
g12
(dtRp2921
sg22
g1
(g11
g12
(dtRp2922
sbsg24
g25
sg26
g27
((lp2923
g33
ag32
ag29
ag30
atRp2924
sg37
(lp2925
g1
(g2
g3
NtRp2926
(dp2927
g6
g1
(g7
g3
NtRp2928
(dp2929
g10
g1
(g11
g12
(dtRp2930
sg14
g1
(g11
g12
(dtRp2931
sg16
g1
(g11
g12
(dtRp2932
sg18
g1
(g11
g12
(dtRp2933
sg20
g1
(g11
g12
(dtRp2934
sg22
g1
(g11
g12
(dtRp2935
sbsg24
S'Pca'
p2936
sg26
g27
((lp2937
g29
ag30
aS'sequence'
p2938
ag32
ag33
aS'species'
p2939
atRp2940
sg37
(lp2941
sg120
g2913
sg121
S'RWLSTKDLYSRLELPGLNQNVHAMFVMPLGFGNPLGDMFARLNNSFWLPPLSLEWAGTGWTIYPPLSHSSPSVDLGFHLTSSLLGAINFTNMRGPLFWTAMLLLSLPVLAGTLLDRNFNTFEGGDPLYHLFWFFGHPEVYIIPGFGSHSTYKKFGMYASIALGFVWSHHMYVGLDDRAYFTSSTMIAPTGIKFSWLATYGGRPMLAFLFLFTGGTGVLNASDAFHDTYYVVHFHYVLSMGAFSLGYYYWPGLFNLFWFNFPMHFLGGMPRRPYPDAGWNSGSSYQLGPDESNEPH'
p2942
sg123
F0.10655000000000001
sg124
g125
sg33
S'68'
p2943
sg127
g1
(g128
g12
(dp2944
g130
I4
sg131
g132
sg133
g134
sg135
g132
sg136
I01
sg34
g137
sg138
g134
sg139
I0
sg140
I0
sg141
I0
sg142
g134
sg35
g143
sg144
I0
stRp2945
sg146
g147
sg148
F1
sg149
Nsg30
S'PcanaA'
p2946
sbag1
(g2
g3
NtRp2947
(dp2948
g6
g1
(g7
g3
NtRp2949
(dp2950
g10
g1
(g11
g12
(dtRp2951
sg14
g1
(g11
g12
(dtRp2952
sg16
g1
(g11
g12
(dtRp2953
sg18
g1
(g11
g12
(dtRp2954
sg20
g1
(g11
g12
(dtRp2955
sg22
g1
(g11
g12
(dtRp2956
sbsg24
g25
sg26
g27
((lp2957
g33
ag32
ag29
ag30
atRp2958
sg37
(lp2959
g1
(g2
g3
NtRp2960
(dp2961
g6
g1
(g7
g3
NtRp2962
(dp2963
g10
g1
(g11
g12
(dtRp2964
sg14
g1
(g11
g12
(dtRp2965
sg16
g1
(g11
g12
(dtRp2966
sg18
g1
(g11
g12
(dtRp2967
sg20
g1
(g11
g12
(dtRp2968
sg22
g1
(g11
g12
(dtRp2969
sbsg24
S'Cno'
p2970
sg26
g27
((lp2971
g29
ag30
aS'sequence'
p2972
ag32
ag33
aS'species'
p2973
atRp2974
sg37
(lp2975
sg120
g2947
sg121
S'RWLSTKDLYSRLELPGLNQNVHAMFVMPLGFGNPLGDMFARLNNSFWLPPLSLEGAGTGWTIYPPLSHSSPSVDLGFHLTSSLLGAMNFTNMRGPLFWTAMLLLSLPVLAGTLLDRNFNTFEGGDPLYHLFWFFGHPEVYMIPGFGSHSTYKKFGMYASMALGFVWSHHMYVGLDDRAYFTSSTMMAPTGMKFSWLATYGGRPMLAFLFLFTGGTGVLNASDAFHDTYYVVHFHYVLSMGAFSLGYYYWPGLYNLFWFNFPMHFLGGMPRRPYPDAGWNSGSSYQLGPDESNEPH'
p2976
sg123
F0.059069999999999998
sg124
g125
sg33
S'0'
sg127
g1
(g128
g12
(dp2977
g130
I4
sg131
g132
sg133
g134
sg135
g132
sg136
I01
sg34
g137
sg138
g134
sg139
I0
sg140
I0
sg141
I0
sg142
g134
sg35
g143
sg144
I0
stRp2978
sg146
g147
sg148
F1
sg149
Nsg30
S'CnorvA'
p2979
sbag1
(g2
g3
NtRp2980
(dp2981
g6
g1
(g7
g3
NtRp2982
(dp2983
g10
g1
(g11
g12
(dtRp2984
sg14
g1
(g11
g12
(dtRp2985
sg16
g1
(g11
g12
(dtRp2986
sg18
g1
(g11
g12
(dtRp2987
sg20
g1
(g11
g12
(dtRp2988
sg22
g1
(g11
g12
(dtRp2989
sbsg24
S'Bca'
p2990
sg26
g27
((lp2991
g29
ag30
aS'sequence'
p2992
ag32
ag33
aS'species'
p2993
atRp2994
sg37
(lp2995
sg120
g2947
sg121
S'RWLSTKDLYSRLELPGLNQNVHAMFVMPLGFGNPLGDMFARLNNSFWLPPLSLEGAGTGWTIYPPLSHSSPSVDLGFHLTSSLLGAINFTNMRGPLFWTAMLLLSLPVLAGTLLDRNFNTFEGGDPLYHLFWFFGHPEVYIMPGFGSHSTYKKFGMYASIALGFVWSHHMYVGLDDRAYFTSSTMIAPTGIKFSWLATYGGRPMLAFLFLFTGGTGVLNASDAFHDTYYVVHFHYVLSMGAFSLGYYYWPGLYNLFWFNFPMHFLGGMPRRPYPDAGWNSGSSYQLGPDESNEPH'
p2996
sg123
F0.031899999999999998
sg124
g125
sg33
S'219'
p2997
sg127
g1
(g128
g12
(dp2998
g130
I4
sg131
g132
sg133
g134
sg135
g132
sg136
I01
sg34
g137
sg138
g134
sg139
I0
sg140
I0
sg141
I0
sg142
g134
sg35
g143
sg144
I0
stRp2999
sg146
g147
sg148
F1
sg149
Nsg30
S'BcaliA'
p3000
sbasg120
g2913
sg123
F0.09486
sg124
g125
sg33
S'168'
p3001
sg127
g1
(g128
g12
(dp3002
g130
I6
sg131
g132
sg133
g134
sg135
g132
sg136
I01
sg34
g174
sg138
g134
sg139
I0
sg140
I0
sg141
I0
sg142
g134
sg35
g175
sg144
I0
stRp3003
sg146
g147
sg148
F0.97999999999999998
sg149
Nsg30
S'NoName'
p3004
sbasg120
g2841
sg123
F0.054690000000000003
sg124
g125
sg33
S'116'
p3005
sg127
g1
(g128
g12
(dp3006
g130
I6
sg131
g132
sg133
g134
sg135
g132
sg136
I01
sg34
g174
sg138
g134
sg139
I0
sg140
I0
sg141
I0
sg142
g134
sg35
g175
sg144
I0
stRp3007
sg146
g147
sg148
F0.96999999999999997
sg149
Nsg30
S'NoName'
p3008
sbasg120
g2693
sg123
F0.051860000000000003
sg124
g125
sg33
S'144'
p3009
sg127
g1
(g128
g12
(dp3010
g130
I6
sg131
g132
sg133
g134
sg135
g132
sg136
I01
sg34
g174
sg138
g134
sg139
I0
sg140
I0
sg141
I0
sg142
g134
sg35
g175
sg144
I0
stRp3011
sg146
g147
sg148
F0.96999999999999997
sg149
Nsg30
S'NoName'
p3012
sbasg120
g2680
sg123
F0.52095999999999998
sg124
g125
sg33
S'22'
p3013
sg127
g1
(g128
g12
(dp3014
g130
I6
sg131
g132
sg133
g134
sg135
g132
sg136
I01
sg34
g174
sg138
g134
sg139
I0
sg140
I0
sg141
I0
sg142
g134
sg35
g175
sg144
I0
stRp3015
sg146
g147
sg148
F0.98999999999999999
sg149
Nsg30
S'NoName'
p3016
sbag1
(g2
g3
NtRp3017
(dp3018
g6
g1
(g7
g3
NtRp3019
(dp3020
g10
g1
(g11
g12
(dtRp3021
sg14
g1
(g11
g12
(dtRp3022
sg16
g1
(g11
g12
(dtRp3023
sg18
g1
(g11
g12
(dtRp3024
sg20
g1
(g11
g12
(dtRp3025
sg22
g1
(g11
g12
(dtRp3026
sbsg24
g25
sg26
g27
((lp3027
g33
ag32
ag29
ag30
atRp3028
sg37
(lp3029
g1
(g2
g3
NtRp3030
(dp3031
g6
g1
(g7
g3
NtRp3032
(dp3033
g10
g1
(g11
g12
(dtRp3034
sg14
g1
(g11
g12
(dtRp3035
sg16
g1
(g11
g12
(dtRp3036
sg18
g1
(g11
g12
(dtRp3037
sg20
g1
(g11
g12
(dtRp3038
sg22
g1
(g11
g12
(dtRp3039
sbsg24
g25
sg26
g27
((lp3040
g33
ag32
ag29
ag30
atRp3041
sg37
(lp3042
g1
(g2
g3
NtRp3043
(dp3044
g6
g1
(g7
g3
NtRp3045
(dp3046
g10
g1
(g11
g12
(dtRp3047
sg14
g1
(g11
g12
(dtRp3048
sg16
g1
(g11
g12
(dtRp3049
sg18
g1
(g11
g12
(dtRp3050
sg20
g1
(g11
g12
(dtRp3051
sg22
g1
(g11
g12
(dtRp3052
sbsg24
g25
sg26
g27
((lp3053
g33
ag32
ag29
ag30
atRp3054
sg37
(lp3055
g1
(g2
g3
NtRp3056
(dp3057
g6
g1
(g7
g3
NtRp3058
(dp3059
g10
g1
(g11
g12
(dtRp3060
sg14
g1
(g11
g12
(dtRp3061
sg16
g1
(g11
g12
(dtRp3062
sg18
g1
(g11
g12
(dtRp3063
sg20
g1
(g11
g12
(dtRp3064
sg22
g1
(g11
g12
(dtRp3065
sbsg24
g25
sg26
g27
((lp3066
g33
ag32
ag29
ag30
atRp3067
sg37
(lp3068
g1
(g2
g3
NtRp3069
(dp3070
g6
g1
(g7
g3
NtRp3071
(dp3072
g10
g1
(g11
g12
(dtRp3073
sg14
g1
(g11
g12
(dtRp3074
sg16
g1
(g11
g12
(dtRp3075
sg18
g1
(g11
g12
(dtRp3076
sg20
g1
(g11
g12
(dtRp3077
sg22
g1
(g11
g12
(dtRp3078
sbsg24
g25
sg26
g27
((lp3079
g33
ag32
ag29
ag30
atRp3080
sg37
(lp3081
g1
(g2
g3
NtRp3082
(dp3083
g6
g1
(g7
g3
NtRp3084
(dp3085
g10
g1
(g11
g12
(dtRp3086
sg14
g1
(g11
g12
(dtRp3087
sg16
g1
(g11
g12
(dtRp3088
sg18
g1
(g11
g12
(dtRp3089
sg20
g1
(g11
g12
(dtRp3090
sg22
g1
(g11
g12
(dtRp3091
sbsg24
g25
sg26
g27
((lp3092
g33
ag32
ag29
ag30
atRp3093
sg37
(lp3094
g1
(g2
g3
NtRp3095
(dp3096
g6
g1
(g7
g3
NtRp3097
(dp3098
g10
g1
(g11
g12
(dtRp3099
sg14
g1
(g11
g12
(dtRp3100
sg16
g1
(g11
g12
(dtRp3101
sg18
g1
(g11
g12
(dtRp3102
sg20
g1
(g11
g12
(dtRp3103
sg22
g1
(g11
g12
(dtRp3104
sbsg24
S'Lkl'
p3105
sg26
g27
((lp3106
g29
ag30
aS'sequence'
p3107
ag32
ag33
aS'species'
p3108
atRp3109
sg37
(lp3110
sg120
g3082
sg121
S'RWLSTKDLYSRLELPGLNQNVHAMFVMPLGFGNPMGDMFARLNNSFWLPPLSLEGAGTGWTVYPPLSHSGPSVDLAFHLTSSLLGAINFTNMRGPLFWTALLLLSLPVLAGTLLDRNFNTFEGGDPLYHLFWFFGHPEVYIIPGFGSHSTYKKFGMYASIGLGFVWSHHMYVGLDDRAYFLSATMIAPTGIKFSWLATYGGRPMLAFLFLFTGGTGVLNASDAFHDLYYVVHFHYVLSMGAFSLGYYYWPGLYNLFWFNFPMHFLGGMPRRPYPDAGWNSGSSYQLGPDESNEPH'
p3111
sg123
F0.00044999999999999999
sg124
g125
sg33
S'3'
sg127
g1
(g128
g12
(dp3112
g130
I4
sg131
g132
sg133
g134
sg135
g132
sg136
I01
sg34
g137
sg138
g134
sg139
I0
sg140
I0
sg141
I0
sg142
g134
sg35
g143
sg144
I0
stRp3113
sg146
g147
sg148
F1
sg149
Nsg30
S'LkluyE'
p3114
sbag1
(g2
g3
NtRp3115
(dp3116
g6
g1
(g7
g3
NtRp3117
(dp3118
g10
g1
(g11
g12
(dtRp3119
sg14
g1
(g11
g12
(dtRp3120
sg16
g1
(g11
g12
(dtRp3121
sg18
g1
(g11
g12
(dtRp3122
sg20
g1
(g11
g12
(dtRp3123
sg22
g1
(g11
g12
(dtRp3124
sbsg24
S'Lkl'
p3125
sg26
g27
((lp3126
g29
ag30
aS'sequence'
p3127
ag32
ag33
aS'species'
p3128
atRp3129
sg37
(lp3130
sg120
g3082
sg121
S'RWLSTKDLYSRLELPGLNQNVHAMFVMPLGFGNPMGDMFARLNNSFWLPPLSLEGAGTGWTVYPPLSHSGPSVDLAFHLTSSLLGAINFTNMRGPLFWTALLLLSLPVLAGTLLDRNFNTFEGGDPLYHLFWFFGHPEVYIIPGFGSHSTYKKFGMYASIGLGFVWSHHMYVGLDDRAYFLSATMIAPTGIKFSWLATYGGRPMLAFLFLFTGGTGVLNASDAFHDLYYVVHFHYVLSMGAFSLGYYYWPGLYNLFWFNFPMHFLGGMPRRPYPDAGWNSGSSYQLGPDESNEPH'
p3131
sg123
F0.0077400000000000004
sg124
g125
sg33
S'119'
p3132
sg127
g1
(g128
g12
(dp3133
g130
I4
sg131
g132
sg133
g134
sg135
g132
sg136
I01
sg34
g137
sg138
g134
sg139
I0
sg140
I0
sg141
I0
sg142
g134
sg35
g143
sg144
I0
stRp3134
sg146
g147
sg148
F1
sg149
Nsg30
S'LkluyD'
p3135
sbasg120
g3069
sg123
F0.0017099999999999999
sg124
g125
sg33
S'120'
p3136
sg127
g1
(g128
g12
(dp3137
g130
I6
sg131
g132
sg133
g134
sg135
g132
sg136
I01
sg34
g174
sg138
g134
sg139
I0
sg140
I0
sg141
I0
sg142
g134
sg35
g175
sg144
I0
stRp3138
sg146
g147
sg148
F0.56000000000000005
sg149
Nsg30
S'NoName'
p3139
sbag1
(g2
g3
NtRp3140
(dp3141
g6
g1
(g7
g3
NtRp3142
(dp3143
g10
g1
(g11
g12
(dtRp3144
sg14
g1
(g11
g12
(dtRp3145
sg16
g1
(g11
g12
(dtRp3146
sg18
g1
(g11
g12
(dtRp3147
sg20
g1
(g11
g12
(dtRp3148
sg22
g1
(g11
g12
(dtRp3149
sbsg24
g25
sg26
g27
((lp3150
g33
ag32
ag29
ag30
atRp3151
sg37
(lp3152
g1
(g2
g3
NtRp3153
(dp3154
g6
g1
(g7
g3
NtRp3155
(dp3156
g10
g1
(g11
g12
(dtRp3157
sg14
g1
(g11
g12
(dtRp3158
sg16
g1
(g11
g12
(dtRp3159
sg18
g1
(g11
g12
(dtRp3160
sg20
g1
(g11
g12
(dtRp3161
sg22
g1
(g11
g12
(dtRp3162
sbsg24
g25
sg26
g27
((lp3163
g33
ag32
ag29
ag30
atRp3164
sg37
(lp3165
g1
(g2
g3
NtRp3166
(dp3167
g6
g1
(g7
g3
NtRp3168
(dp3169
g10
g1
(g11
g12
(dtRp3170
sg14
g1
(g11
g12
(dtRp3171
sg16
g1
(g11
g12
(dtRp3172
sg18
g1
(g11
g12
(dtRp3173
sg20
g1
(g11
g12
(dtRp3174
sg22
g1
(g11
g12
(dtRp3175
sbsg24
g25
sg26
g27
((lp3176
g33
ag32
ag29
ag30
atRp3177
sg37
(lp3178
g1
(g2
g3
NtRp3179
(dp3180
g6
g1
(g7
g3
NtRp3181
(dp3182
g10
g1
(g11
g12
(dtRp3183
sg14
g1
(g11
g12
(dtRp3184
sg16
g1
(g11
g12
(dtRp3185
sg18
g1
(g11
g12
(dtRp3186
sg20
g1
(g11
g12
(dtRp3187
sg22
g1
(g11
g12
(dtRp3188
sbsg24
S'Lkl'
p3189
sg26
g27
((lp3190
g29
ag30
aS'sequence'
p3191
ag32
ag33
aS'species'
p3192
atRp3193
sg37
(lp3194
sg120
g3166
sg121
S'RWLSTKDLYSRLELPGLNQNVHAMFVMPLGFGNPMGDMFARLNNSFWLPPLSLEGAGTGWTVYPPLSHSGPSVDLAFHLTSSLLGAINFTNMRGPLFWTALLLLSLPVLAGTLLDRNFNTFEGGDPLYHLFWFFGHPEVYIIPGFGSHSTYKKFGMYASIGLGFVWSHHMYVGLDDRAYFLSATMIAPTGIKFSWLATYGGRPMLAFLFLFTGGTGVLNASDAFHDLYYVVHFHYVLSMGAFSLGYYYWPGLYNLFWFNFPMHFLGGMPRRPYPDAGWNSGSSYQLGPDESNEPH'
p3195
sg123
F0.00038999999999999999
sg124
g125
sg33
S'214'
p3196
sg127
g1
(g128
g12
(dp3197
g130
I4
sg131
g132
sg133
g134
sg135
g132
sg136
I01
sg34
g137
sg138
g134
sg139
I0
sg140
I0
sg141
I0
sg142
g134
sg35
g143
sg144
I0
stRp3198
sg146
g147
sg148
F1
sg149
Nsg30
S'LkluyF'
p3199
sbag1
(g2
g3
NtRp3200
(dp3201
g6
g1
(g7
g3
NtRp3202
(dp3203
g10
g1
(g11
g12
(dtRp3204
sg14
g1
(g11
g12
(dtRp3205
sg16
g1
(g11
g12
(dtRp3206
sg18
g1
(g11
g12
(dtRp3207
sg20
g1
(g11
g12
(dtRp3208
sg22
g1
(g11
g12
(dtRp3209
sbsg24
S'Lkl'
p3210
sg26
g27
((lp3211
g29
ag30
aS'sequence'
p3212
ag32
ag33
aS'species'
p3213
atRp3214
sg37
(lp3215
sg120
g3166
sg121
S'RWLSTKDLYSRLELPGLNQNVHAMFVMPLGFGNPMGDMFARLNNSFWLPPLSLEGAGTGWTVYPPLSHSGPSVDLAFHLTSSLLGAINFTNMRGPLFWTALLLLSLPVLAGTLLDRNFNTFEGGDPLYHLFWFFGHPEVYIIPGFGSHSTYKKFGMYASIGLGFVWSHHMYVGLDDRAYFLSATMIAPTGIKFSWLATYGGRPMLAFLFLFTGGTGVLNASDAFHDLYYVVHFHYVLSMGAFSLGYYYWPGLYNLFWFNFPMHFLGGMPRRPYPDAGWNSGSSYQLGPDESNEPH'
p3216
sg123
F0.00038000000000000002
sg124
g125
sg33
S'110'
p3217
sg127
g1
(g128
g12
(dp3218
g130
I4
sg131
g132
sg133
g134
sg135
g132
sg136
I01
sg34
g137
sg138
g134
sg139
I0
sg140
I0
sg141
I0
sg142
g134
sg35
g143
sg144
I0
stRp3219
sg146
g147
sg148
F1
sg149
Nsg30
S'LkluyC'
p3220
sbasg120
g3153
sg123
F1.0000000000000001e-05
sg124
g125
sg33
S'224'
p3221
sg127
g1
(g128
g12
(dp3222
g130
I6
sg131
g132
sg133
g134
sg135
g132
sg136
I01
sg34
g174
sg138
g134
sg139
I0
sg140
I0
sg141
I0
sg142
g134
sg35
g175
sg144
I0
stRp3223
sg146
g147
sg148
F1
sg149
Nsg30
S'NoName'
p3224
sbag1
(g2
g3
NtRp3225
(dp3226
g6
g1
(g7
g3
NtRp3227
(dp3228
g10
g1
(g11
g12
(dtRp3229
sg14
g1
(g11
g12
(dtRp3230
sg16
g1
(g11
g12
(dtRp3231
sg18
g1
(g11
g12
(dtRp3232
sg20
g1
(g11
g12
(dtRp3233
sg22
g1
(g11
g12
(dtRp3234
sbsg24
S'Lkl'
p3235
sg26
g27
((lp3236
g29
ag30
aS'sequence'
p3237
ag32
ag33
aS'species'
p3238
atRp3239
sg37
(lp3240
sg120
g3153
sg121
S'RWLSTKDLYSRLELPGLNQNVHAMFVMPLGFGNPMGDMFARLNNSFWLPPLSLEGAGTGWTVYPPLSHSGPSVDLAFHLTSSLLGAINFTNMRGPLFWTALLLLSLPVLAGTLLDRNFNTFEGGDPLYHLFWFFGHPEVYIIPGFGSHSTYKKFGMYASIGLGFVWSHHMYVGLDDRAYFLSATMIAPTGIKFSWLATYGGRPMLAFLFLFTGGTGVLNASDAFHDLYYVVHFHYVLSMGAFSLGYYYWPGLYNLFWFNFPMHFLGGMPRRPYPDAGWNSGSSYQLGPDESNEPH'
p3241
sg123
F0.00040999999999999999
sg124
g125
sg33
S'63'
p3242
sg127
g1
(g128
g12
(dp3243
g130
I4
sg131
g132
sg133
g134
sg135
g132
sg136
I01
sg34
g137
sg138
g134
sg139
I0
sg140
I0
sg141
I0
sg142
g134
sg35
g143
sg144
I0
stRp3244
sg146
g147
sg148
F1
sg149
Nsg30
S'LkluyB'
p3245
sbasg120
g3140
sg123
F1.0000000000000001e-05
sg124
g125
sg33
S'157'
p3246
sg127
g1
(g128
g12
(dp3247
g130
I6
sg131
g132
sg133
g134
sg135
g132
sg136
I01
sg34
g174
sg138
g134
sg139
I0
sg140
I0
sg141
I0
sg142
g134
sg35
g175
sg144
I0
stRp3248
sg146
g147
sg148
F1
sg149
Nsg30
S'NoName'
p3249
sbag1
(g2
g3
NtRp3250
(dp3251
g6
g1
(g7
g3
NtRp3252
(dp3253
g10
g1
(g11
g12
(dtRp3254
sg14
g1
(g11
g12
(dtRp3255
sg16
g1
(g11
g12
(dtRp3256
sg18
g1
(g11
g12
(dtRp3257
sg20
g1
(g11
g12
(dtRp3258
sg22
g1
(g11
g12
(dtRp3259
sbsg24
S'Lkl'
p3260
sg26
g27
((lp3261
g29
ag30
aS'sequence'
p3262
ag32
ag33
aS'species'
p3263
atRp3264
sg37
(lp3265
sg120
g3140
sg121
S'RWLSTKDLYSRLELPGLNQNVHAMFVMPLGFGNPMGDMFARLNNSFWLPPLSLEGAGTGWTVYPPLSHSGPSVDLAFHLTSSLLGAINFTNMRGPLFWTALLLLSLPVLAGTLLDRNFNTFEGGDPLYHLFWFFGHPEVYIIPGFGSHSTYKKFGMYASIGLGFVWSHHMYVGLDDRAYFLSATMIAPTGIKFSWLATYGGRPMLAFLFLFTGGTGVLNASDAFHDLYYVVHFHYVLSMGAFSLGYYYWPGLYNLFWFNFPMHFLGGMPRRPYPDAGWNSGSSYQLGPDESNEPH'
p3266
sg123
F0.00040999999999999999
sg124
g125
sg33
S'192'
p3267
sg127
g1
(g128
g12
(dp3268
g130
I4
sg131
g132
sg133
g134
sg135
g132
sg136
I01
sg34
g137
sg138
g134
sg139
I0
sg140
I0
sg141
I0
sg142
g134
sg35
g143
sg144
I0
stRp3269
sg146
g147
sg148
F1
sg149
Nsg30
S'LkluyA'
p3270
sbasg120
g3069
sg123
F0.0035300000000000002
sg124
g125
sg33
S'174'
p3271
sg127
g1
(g128
g12
(dp3272
g130
I6
sg131
g132
sg133
g134
sg135
g132
sg136
I01
sg34
g174
sg138
g134
sg139
I0
sg140
I0
sg141
I0
sg142
g134
sg35
g175
sg144
I0
stRp3273
sg146
g147
sg148
F0.91000000000000003
sg149
Nsg30
S'NoName'
p3274
sbasg120
g3056
sg123
F0.054280000000000002
sg124
g125
sg33
S'46'
p3275
sg127
g1
(g128
g12
(dp3276
g130
I6
sg131
g132
sg133
g134
sg135
g132
sg136
I01
sg34
g174
sg138
g134
sg139
I0
sg140
I0
sg141
I0
sg142
g134
sg35
g175
sg144
I0
stRp3277
sg146
g147
sg148
F0.98999999999999999
sg149
Nsg30
S'NoName'
p3278
sbag1
(g2
g3
NtRp3279
(dp3280
g6
g1
(g7
g3
NtRp3281
(dp3282
g10
g1
(g11
g12
(dtRp3283
sg14
g1
(g11
g12
(dtRp3284
sg16
g1
(g11
g12
(dtRp3285
sg18
g1
(g11
g12
(dtRp3286
sg20
g1
(g11
g12
(dtRp3287
sg22
g1
(g11
g12
(dtRp3288
sbsg24
g25
sg26
g27
((lp3289
g33
ag32
ag29
ag30
atRp3290
sg37
(lp3291
g1
(g2
g3
NtRp3292
(dp3293
g6
g1
(g7
g3
NtRp3294
(dp3295
g10
g1
(g11
g12
(dtRp3296
sg14
g1
(g11
g12
(dtRp3297
sg16
g1
(g11
g12
(dtRp3298
sg18
g1
(g11
g12
(dtRp3299
sg20
g1
(g11
g12
(dtRp3300
sg22
g1
(g11
g12
(dtRp3301
sbsg24
S'Lan'
p3302
sg26
g27
((lp3303
g29
ag30
aS'sequence'
p3304
ag32
ag33
aS'species'
p3305
atRp3306
sg37
(lp3307
sg120
g3279
sg121
S'RWLSTKDLYSRLELPGLNQNVHAMFVMPLGFGNPMGDMFARLNNSFWLPPLSLEGAGTGWTLYPPLSHSGPSVDLAFHLTSSLLGAINFTNMRGPLFWTALLLLSLPVLAGTVLDRNFNTFEGGDPLYHLFWFFGHPEVYIIPGFGSHSTYKKFGMYASIGLGFVWSHHMYVGLDDRAYFTSATMIAPTGIKFSWLALYGGRPMLAFLFLFTGGTGVLNASDAFHDTYYVVHFHYVLSMGAFSLGYYYWPGLYNLFWFNFPMHFLGGMPRRPYPDAGWNSGSSYQLGPDESNEPH'
p3308
sg123
F0.10922999999999999
sg124
g125
sg33
S'47'
p3309
sg127
g1
(g128
g12
(dp3310
g130
I4
sg131
g132
sg133
g134
sg135
g132
sg136
I01
sg34
g137
sg138
g134
sg139
I0
sg140
I0
sg141
I0
sg142
g134
sg35
g143
sg144
I0
stRp3311
sg146
g147
sg148
F1
sg149
Nsg30
S'LanspA'
p3312
sbag1
(g2
g3
NtRp3313
(dp3314
g6
g1
(g7
g3
NtRp3315
(dp3316
g10
g1
(g11
g12
(dtRp3317
sg14
g1
(g11
g12
(dtRp3318
sg16
g1
(g11
g12
(dtRp3319
sg18
g1
(g11
g12
(dtRp3320
sg20
g1
(g11
g12
(dtRp3321
sg22
g1
(g11
g12
(dtRp3322
sbsg24
g25
sg26
g27
((lp3323
g33
ag32
ag29
ag30
atRp3324
sg37
(lp3325
g1
(g2
g3
NtRp3326
(dp3327
g6
g1
(g7
g3
NtRp3328
(dp3329
g10
g1
(g11
g12
(dtRp3330
sg14
g1
(g11
g12
(dtRp3331
sg16
g1
(g11
g12
(dtRp3332
sg18
g1
(g11
g12
(dtRp3333
sg20
g1
(g11
g12
(dtRp3334
sg22
g1
(g11
g12
(dtRp3335
sbsg24
g25
sg26
g27
((lp3336
g33
ag32
ag29
ag30
atRp3337
sg37
(lp3338
g1
(g2
g3
NtRp3339
(dp3340
g6
g1
(g7
g3
NtRp3341
(dp3342
g10
g1
(g11
g12
(dtRp3343
sg14
g1
(g11
g12
(dtRp3344
sg16
g1
(g11
g12
(dtRp3345
sg18
g1
(g11
g12
(dtRp3346
sg20
g1
(g11
g12
(dtRp3347
sg22
g1
(g11
g12
(dtRp3348
sbsg24
S'Lno'
p3349
sg26
g27
((lp3350
g29
ag30
aS'sequence'
p3351
ag32
ag33
aS'species'
p3352
atRp3353
sg37
(lp3354
sg120
g3326
sg121
S'RWLSTKDLYSRLELPGLNQNVHAMFVMPLGFGNPMGDMFARLNNSFWLPPLSLEGAGTGWTIYPPLSHSGPSVDLAFHLTSSLLGAINFTNMRGPLFWTALLLLSLPVLAGTILDRNFNTFEGGDPLYHLFWFFGHPEVYIIPGFGSHSTYKKFGMYASIGLGFVWSHHMYVGLDDRAYFTSALMIAPTGIKFSWLALYGGRPMLAFLFLFTGGTGVLNASDAFHDTYYVVHFHYVLSMGAFSLGYYYWPGLYNLFWFNFPMHFLGGMPRRPYPDAGWNSGSSYQLGPDESNEPH'
p3355
sg123
F0.0075199999999999998
sg124
g125
sg33
S'146'
p3356
sg127
g1
(g128
g12
(dp3357
g130
I4
sg131
g132
sg133
g134
sg135
g132
sg136
I01
sg34
g137
sg138
g134
sg139
I0
sg140
I0
sg141
I0
sg142
g134
sg35
g143
sg144
I0
stRp3358
sg146
g147
sg148
F1
sg149
Nsg30
S'LnothA'
p3359
sbag1
(g2
g3
NtRp3360
(dp3361
g6
g1
(g7
g3
NtRp3362
(dp3363
g10
g1
(g11
g12
(dtRp3364
sg14
g1
(g11
g12
(dtRp3365
sg16
g1
(g11
g12
(dtRp3366
sg18
g1
(g11
g12
(dtRp3367
sg20
g1
(g11
g12
(dtRp3368
sg22
g1
(g11
g12
(dtRp3369
sbsg24
g25
sg26
g27
((lp3370
g33
ag32
ag29
ag30
atRp3371
sg37
(lp3372
g1
(g2
g3
NtRp3373
(dp3374
g6
g1
(g7
g3
NtRp3375
(dp3376
g10
g1
(g11
g12
(dtRp3377
sg14
g1
(g11
g12
(dtRp3378
sg16
g1
(g11
g12
(dtRp3379
sg18
g1
(g11
g12
(dtRp3380
sg20
g1
(g11
g12
(dtRp3381
sg22
g1
(g11
g12
(dtRp3382
sbsg24
S'Lda'
p3383
sg26
g27
((lp3384
g29
ag30
aS'sequence'
p3385
ag32
ag33
aS'species'
p3386
atRp3387
sg37
(lp3388
sg120
g3360
sg121
S'RWLSTKDLYSRLELPGLNQNVHAMFVMPLGFGNPMGDMFARLNNSFWLPPLSLEGAGTGWTVYPPLSHSGPSVDLAFHLTSSLLGAINFTNMRGPLFWTALLLLSLPVLAGTILDRNFNTFEGGDPLYHLFWFFGHPEVYIIPGFGSHSTYKKFGMYASIGLGFVWSHHMYVGLDDRAYFTSATMIAPTGIKFSWLALYGGRPMLAFLFLFTGGTGVLNASDAFHDTYYVVHFHYVLSMGAFSLGYYYWPGLYNLFWFNFPMHFLGGMPRRPYPDAGWNSGSSYQLGPDESNEPH'
p3389
sg123
F0.023539999999999998
sg124
g125
sg33
S'98'
p3390
sg127
g1
(g128
g12
(dp3391
g130
I4
sg131
g132
sg133
g134
sg135
g132
sg136
I01
sg34
g137
sg138
g134
sg139
I0
sg140
I0
sg141
I0
sg142
g134
sg35
g143
sg144
I0
stRp3392
sg146
g147
sg148
F1
sg149
Nsg30
S'LdasiA'
p3393
sbag1
(g2
g3
NtRp3394
(dp3395
g6
g1
(g7
g3
NtRp3396
(dp3397
g10
g1
(g11
g12
(dtRp3398
sg14
g1
(g11
g12
(dtRp3399
sg16
g1
(g11
g12
(dtRp3400
sg18
g1
(g11
g12
(dtRp3401
sg20
g1
(g11
g12
(dtRp3402
sg22
g1
(g11
g12
(dtRp3403
sbsg24
g25
sg26
g27
((lp3404
g33
ag32
ag29
ag30
atRp3405
sg37
(lp3406
g1
(g2
g3
NtRp3407
(dp3408
g6
g1
(g7
g3
NtRp3409
(dp3410
g10
g1
(g11
g12
(dtRp3411
sg14
g1
(g11
g12
(dtRp3412
sg16
g1
(g11
g12
(dtRp3413
sg18
g1
(g11
g12
(dtRp3414
sg20
g1
(g11
g12
(dtRp3415
sg22
g1
(g11
g12
(dtRp3416
sbsg24
S'Lme'
p3417
sg26
g27
((lp3418
g29
ag30
aS'sequence'
p3419
ag32
ag33
aS'species'
p3420
atRp3421
sg37
(lp3422
sg120
g3394
sg121
S'RWLSTKDLYSRLELPGLNQNVHAMFVMPLGFGNPMGDMFARLNNSFWLPPLSLEGAGTGWTVYPPLSHSGPSVDLAFHLTSSLLGAINFTNMRGPLFWTALLLLSLPVLAGTILDRNFNTFEGGDPLYHLFWFFGHPEVYIIPGFGSHSTYKKFGMYASIGLGFVWSHHMYVGLDDRAYFTSATMIAPTGIKFSWLALYGGRPMLAFLFLFTGGTGVLNASDAFHDTYYVVHFHYVLSMGAFSLGYYYWPGLYNLFWFNFPMHFLGGMPRRPYPDAGWNSGSSYQLGPDESNEPH'
p3423
sg123
F0.0050299999999999997
sg124
g125
sg33
S'167'
p3424
sg127
g1
(g128
g12
(dp3425
g130
I4
sg131
g132
sg133
g134
sg135
g132
sg136
I01
sg34
g137
sg138
g134
sg139
I0
sg140
I0
sg141
I0
sg142
g134
sg35
g143
sg144
I0
stRp3426
sg146
g147
sg148
F1
sg149
Nsg30
S'LmeyeA'
p3427
sbag1
(g2
g3
NtRp3428
(dp3429
g6
g1
(g7
g3
NtRp3430
(dp3431
g10
g1
(g11
g12
(dtRp3432
sg14
g1
(g11
g12
(dtRp3433
sg16
g1
(g11
g12
(dtRp3434
sg18
g1
(g11
g12
(dtRp3435
sg20
g1
(g11
g12
(dtRp3436
sg22
g1
(g11
g12
(dtRp3437
sbsg24
S'Lan'
p3438
sg26
g27
((lp3439
g29
ag30
aS'sequence'
p3440
ag32
ag33
aS'species'
p3441
atRp3442
sg37
(lp3443
sg120
g3394
sg121
S'RWLSTKDLYSRLELPGLNQNVHAMFVMPLGFGNPMGDMFARLNNSFWLPPLSLEGAGTGWTVYPPLSHSGPSVDLAFHLTSSLLGAINFTNMRGPLFWTALLLLSLPVLAGTILDRNFNTFEGGDPLYHLFWFFGHPEVYIIPGFGSHSTYKKFGMYASIGLGFVWSHHMYVGLDDRAYFTSALMIAPTGIKFSWLALYGGRPMLAFLFLFTGGTGVLNASDAFHDTYYVVHFHYVLSMGAFSLGYYYWPGLYNLFWFNFPMHFLGGMPRRPYPDAGWNSGSSYQLGPDESNEPH'
p3444
sg123
F0.012290000000000001
sg124
g125
sg33
S'213'
p3445
sg127
g1
(g128
g12
(dp3446
g130
I4
sg131
g132
sg133
g134
sg135
g132
sg136
I01
sg34
g137
sg138
g134
sg139
I0
sg140
I0
sg141
I0
sg142
g134
sg35
g143
sg144
I0
stRp3447
sg146
g147
sg148
F1
sg149
Nsg30
S'LanspB'
p3448
sbasg120
g3360
sg123
F0.012070000000000001
sg124
g125
sg33
S'87'
p3449
sg127
g1
(g128
g12
(dp3450
g130
I6
sg131
g132
sg133
g134
sg135
g132
sg136
I01
sg34
g174
sg138
g134
sg139
I0
sg140
I0
sg141
I0
sg142
g134
sg35
g175
sg144
I0
stRp3451
sg146
g147
sg148
F0.98999999999999999
sg149
Nsg30
S'NoName'
p3452
sbasg120
g3326
sg123
F0.0088199999999999997
sg124
g125
sg33
S'199'
p3453
sg127
g1
(g128
g12
(dp3454
g130
I6
sg131
g132
sg133
g134
sg135
g132
sg136
I01
sg34
g174
sg138
g134
sg139
I0
sg140
I0
sg141
I0
sg142
g134
sg35
g175
sg144
I0
stRp3455
sg146
g147
sg148
F0.95999999999999996
sg149
Nsg30
S'NoName'
p3456
sbasg120
g3313
sg123
F0.016570000000000001
sg124
g125
sg33
S'217'
p3457
sg127
g1
(g128
g12
(dp3458
g130
I6
sg131
g132
sg133
g134
sg135
g132
sg136
I01
sg34
g174
sg138
g134
sg139
I0
sg140
I0
sg141
I0
sg142
g134
sg35
g175
sg144
I0
stRp3459
sg146
g147
sg148
F0.94999999999999996
sg149
Nsg30
S'NoName'
p3460
sbag1
(g2
g3
NtRp3461
(dp3462
g6
g1
(g7
g3
NtRp3463
(dp3464
g10
g1
(g11
g12
(dtRp3465
sg14
g1
(g11
g12
(dtRp3466
sg16
g1
(g11
g12
(dtRp3467
sg18
g1
(g11
g12
(dtRp3468
sg20
g1
(g11
g12
(dtRp3469
sg22
g1
(g11
g12
(dtRp3470
sbsg24
S'Kth'
p3471
sg26
g27
((lp3472
g29
ag30
aS'sequence'
p3473
ag32
ag33
aS'species'
p3474
atRp3475
sg37
(lp3476
sg120
g3313
sg121
S'RWLSTKDLYSRLELPGLNQNVHAMFVMPLGFGNPMGDMFARLNNSFWLPPLSLEGAGTGWTVYPPLSHSGPSVDLAFHLTSSLLGAINFTNMRGPLFWTALLLLSLPVLAGTILDRNFNTFEGGDPLYHLFWFFGHPEVYIIPGFGSHSTYKKFGMYASIGLGFVWSHHMYVGLDDRAYFTSATMIAPTGIKFSWLALYGGRPMLAFLFLFTGGTGVLNASDAFHDTYYVVHFHYVLSMGAFSLGYYYWPGLYNLFWFNFPMHFLGGMPRRPYPDAGWNSGSSYQLGPDESNEPH'
p3477
sg123
F0.021499999999999998
sg124
g125
sg33
S'130'
p3478
sg127
g1
(g128
g12
(dp3479
g130
I4
sg131
g132
sg133
g134
sg135
g132
sg136
I01
sg34
g137
sg138
g134
sg139
I0
sg140
I0
sg141
I0
sg142
g134
sg35
g143
sg144
I0
stRp3480
sg146
g147
sg148
F1
sg149
Nsg30
S'KtherA'
p3481
sbasg120
g3279
sg123
F0.033250000000000002
sg124
g125
sg33
S'6'
sg127
g1
(g128
g12
(dp3482
g130
I6
sg131
g132
sg133
g134
sg135
g132
sg136
I01
sg34
g174
sg138
g134
sg139
I0
sg140
I0
sg141
I0
sg142
g134
sg35
g175
sg144
I0
stRp3483
sg146
g147
sg148
F0.93999999999999995
sg149
Nsg30
S'NoName'
p3484
sbasg120
g3056
sg123
F0.038859999999999999
sg124
g125
sg33
S'171'
p3485
sg127
g1
(g128
g12
(dp3486
g130
I6
sg131
g132
sg133
g134
sg135
g132
sg136
I01
sg34
g174
sg138
g134
sg139
I0
sg140
I0
sg141
I0
sg142
g134
sg35
g175
sg144
I0
stRp3487
sg146
g147
sg148
F0.92000000000000004
sg149
Nsg30
S'NoName'
p3488
sbasg120
g3043
sg123
F0.050380000000000001
sg124
g125
sg33
S'178'
p3489
sg127
g1
(g128
g12
(dp3490
g130
I6
sg131
g132
sg133
g134
sg135
g132
sg136
I01
sg34
g174
sg138
g134
sg139
I0
sg140
I0
sg141
I0
sg142
g134
sg35
g175
sg144
I0
stRp3491
sg146
g147
sg148
F0.89000000000000001
sg149
Nsg30
S'NoName'
p3492
sbag1
(g2
g3
NtRp3493
(dp3494
g6
g1
(g7
g3
NtRp3495
(dp3496
g10
g1
(g11
g12
(dtRp3497
sg14
g1
(g11
g12
(dtRp3498
sg16
g1
(g11
g12
(dtRp3499
sg18
g1
(g11
g12
(dtRp3500
sg20
g1
(g11
g12
(dtRp3501
sg22
g1
(g11
g12
(dtRp3502
sbsg24
g25
sg26
g27
((lp3503
g33
ag32
ag29
ag30
atRp3504
sg37
(lp3505
g1
(g2
g3
NtRp3506
(dp3507
g6
g1
(g7
g3
NtRp3508
(dp3509
g10
g1
(g11
g12
(dtRp3510
sg14
g1
(g11
g12
(dtRp3511
sg16
g1
(g11
g12
(dtRp3512
sg18
g1
(g11
g12
(dtRp3513
sg20
g1
(g11
g12
(dtRp3514
sg22
g1
(g11
g12
(dtRp3515
sbsg24
S'Kma'
p3516
sg26
g27
((lp3517
g29
ag30
aS'sequence'
p3518
ag32
ag33
aS'species'
p3519
atRp3520
sg37
(lp3521
sg120
g3493
sg121
S'RWLSTKDLYSRLELPGLNQNVHAMFVMPLGFGNPMGDMFARLNNSFWLPPLSLEGAGTGWTVYPPLSHSGPSVDLAFHLTSSLLGAINFTNMRGPLFWTALLLLSLPVLAGTLLDRNFNTFEGGDPLYHLFWFFGHPEVYIIPGFGSHSTYKKFGMYASIGLGFVWSHHMYVGLDDRAYFTSATMIAPTGIKFSWLATYGGRPMLAFLFLFTGGTGVLNASDAFHDTYYVVHFHYVLSMGAFSLGYYYWPGLYNLFWFNFPMHFLGGMPRRPYPDAGWNSGSSYQLGPDESNEPH'
p3522
sg123
F0.04018
sg124
g125
sg33
S'5'
sg127
g1
(g128
g12
(dp3523
g130
I4
sg131
g132
sg133
g134
sg135
g132
sg136
I01
sg34
g137
sg138
g134
sg139
I0
sg140
I0
sg141
I0
sg142
g134
sg35
g143
sg144
I0
stRp3524
sg146
g147
sg148
F1
sg149
Nsg30
S'KmarxA'
p3525
sbag1
(g2
g3
NtRp3526
(dp3527
g6
g1
(g7
g3
NtRp3528
(dp3529
g10
g1
(g11
g12
(dtRp3530
sg14
g1
(g11
g12
(dtRp3531
sg16
g1
(g11
g12
(dtRp3532
sg18
g1
(g11
g12
(dtRp3533
sg20
g1
(g11
g12
(dtRp3534
sg22
g1
(g11
g12
(dtRp3535
sbsg24
S'Kla'
p3536
sg26
g27
((lp3537
g29
ag30
aS'sequence'
p3538
ag32
ag33
aS'species'
p3539
atRp3540
sg37
(lp3541
sg120
g3493
sg121
S'RWLSTKDLYSRLELPGLNQNVHAMFVMPLGFGNPLGDMFARLNNSFWLPPLSLEGAGTGWTVYPPLSHSGPSVDLAFHLTSSLLGAINFTNMRGPLFWTALLLLSLPVLAGTLLDRNFNTFEGGDPLYHLFWFFGHPEVYIIPGFGSHSTYKKFGMYASIGLGFVWSHHMYVGLDDRAYFTSATMIAPTGIKFSWLATYGGRPMLAFLFLFTGGTGVLNASDAFHDTYYVVHFHYVLSMGAFSLGYYYWPGLYNLFWFNFPMHFLGGMPRRPYPDAGWNSGSSYQLGPDESNEPH'
p3542
sg123
F0.043529999999999999
sg124
g125
sg33
S'115'
p3543
sg127
g1
(g128
g12
(dp3544
g130
I4
sg131
g132
sg133
g134
sg135
g132
sg136
I01
sg34
g137
sg138
g134
sg139
I0
sg140
I0
sg141
I0
sg142
g134
sg35
g143
sg144
I0
stRp3545
sg146
g147
sg148
F1
sg149
Nsg30
S'KlactA'
p3546
sbasg120
g3043
sg123
F0.13938999999999999
sg124
g125
sg33
S'131'
p3547
sg127
g1
(g128
g12
(dp3548
g130
I6
sg131
g132
sg133
g134
sg135
g132
sg136
I01
sg34
g174
sg138
g134
sg139
I0
sg140
I0
sg141
I0
sg142
g134
sg35
g175
sg144
I0
stRp3549
sg146
g147
sg148
F0.98999999999999999
sg149
Nsg30
S'NoName'
p3550
sbasg120
g3030
sg123
F1.0000000000000001e-05
sg124
g125
sg33
S'198'
p3551
sg127
g1
(g128
g12
(dp3552
g130
I6
sg131
g132
sg133
g134
sg135
g132
sg136
I01
sg34
g174
sg138
g134
sg139
I0
sg140
I0
sg141
I0
sg142
g134
sg35
g175
sg144
I0
stRp3553
sg146
g147
sg148
F1
sg149
Nsg30
S'NoName'
p3554
sbag1
(g2
g3
NtRp3555
(dp3556
g6
g1
(g7
g3
NtRp3557
(dp3558
g10
g1
(g11
g12
(dtRp3559
sg14
g1
(g11
g12
(dtRp3560
sg16
g1
(g11
g12
(dtRp3561
sg18
g1
(g11
g12
(dtRp3562
sg20
g1
(g11
g12
(dtRp3563
sg22
g1
(g11
g12
(dtRp3564
sbsg24
g25
sg26
g27
((lp3565
g33
ag32
ag29
ag30
atRp3566
sg37
(lp3567
g1
(g2
g3
NtRp3568
(dp3569
g6
g1
(g7
g3
NtRp3570
(dp3571
g10
g1
(g11
g12
(dtRp3572
sg14
g1
(g11
g12
(dtRp3573
sg16
g1
(g11
g12
(dtRp3574
sg18
g1
(g11
g12
(dtRp3575
sg20
g1
(g11
g12
(dtRp3576
sg22
g1
(g11
g12
(dtRp3577
sbsg24
S'Huv'
p3578
sg26
g27
((lp3579
g29
ag30
aS'sequence'
p3580
ag32
ag33
aS'species'
p3581
atRp3582
sg37
(lp3583
sg120
g3555
sg121
S'-MITTKDLYSRLELSGINHNSHAMFIMPIGFGNPAGDMFPRLNNSFWLVPVSLEGAGTGWTVYYPLSHSSVSVDLVFHCLSSLLGAINFTNFL-SLFWLALLLLSLPVLVGTLLDRNFNLYEGGDPLYHLFWFFGHPEVYIIPAFGSMSAYSKFGMYASIGLGFVWVHHMFVGLDDRAYFTSATMIAPLGIKFSWLALIGGRPVLAFLVLFLGGTGVLNASDAFHDTYYVVHFHYVLSLGAFGIGYYYWPGLYNLFVVNFPMHYLGGMPRRSYPDSAWNTGASVQLGTDLLPEPH'
p3584
sg123
F3.9441199999999998
sg124
g125
sg33
S'122'
p3585
sg127
g1
(g128
g12
(dp3586
g130
I4
sg131
g132
sg133
g134
sg135
g132
sg136
I01
sg34
g137
sg138
g134
sg139
I0
sg140
I0
sg141
I0
sg142
g134
sg35
g143
sg144
I0
stRp3587
sg146
g147
sg148
F1
sg149
Nsg30
S'HuvarA'
p3588
sbag1
(g2
g3
NtRp3589
(dp3590
g6
g1
(g7
g3
NtRp3591
(dp3592
g10
g1
(g11
g12
(dtRp3593
sg14
g1
(g11
g12
(dtRp3594
sg16
g1
(g11
g12
(dtRp3595
sg18
g1
(g11
g12
(dtRp3596
sg20
g1
(g11
g12
(dtRp3597
sg22
g1
(g11
g12
(dtRp3598
sbsg24
g25
sg26
g27
((lp3599
g33
ag32
ag29
ag30
atRp3600
sg37
(lp3601
g1
(g2
g3
NtRp3602
(dp3603
g6
g1
(g7
g3
NtRp3604
(dp3605
g10
g1
(g11
g12
(dtRp3606
sg14
g1
(g11
g12
(dtRp3607
sg16
g1
(g11
g12
(dtRp3608
sg18
g1
(g11
g12
(dtRp3609
sg20
g1
(g11
g12
(dtRp3610
sg22
g1
(g11
g12
(dtRp3611
sbsg24
g25
sg26
g27
((lp3612
g33
ag32
ag29
ag30
atRp3613
sg37
(lp3614
g1
(g2
g3
NtRp3615
(dp3616
g6
g1
(g7
g3
NtRp3617
(dp3618
g10
g1
(g11
g12
(dtRp3619
sg14
g1
(g11
g12
(dtRp3620
sg16
g1
(g11
g12
(dtRp3621
sg18
g1
(g11
g12
(dtRp3622
sg20
g1
(g11
g12
(dtRp3623
sg22
g1
(g11
g12
(dtRp3624
sbsg24
g25
sg26
g27
((lp3625
g33
ag32
ag29
ag30
atRp3626
sg37
(lp3627
g1
(g2
g3
NtRp3628
(dp3629
g6
g1
(g7
g3
NtRp3630
(dp3631
g10
g1
(g11
g12
(dtRp3632
sg14
g1
(g11
g12
(dtRp3633
sg16
g1
(g11
g12
(dtRp3634
sg18
g1
(g11
g12
(dtRp3635
sg20
g1
(g11
g12
(dtRp3636
sg22
g1
(g11
g12
(dtRp3637
sbsg24
S'Sse'
p3638
sg26
g27
((lp3639
g29
ag30
aS'sequence'
p3640
ag32
ag33
aS'species'
p3641
atRp3642
sg37
(lp3643
sg120
g3615
sg121
S'RWLSTKDMYSRMELPGLNQNVHAMFAMPLGFGNPMGDMFPRINSGFWLPMLSLEGAGTGWTVYPPLSHSGPSVDLAFHLTSSLLGAINFTNMRGPLFWTALLLLSLPVLAGTLLDRNFNTFEGGDPFYHAFWFFGHPEVYIIPGFGSHSTYKKFGMYASIGLGFVWSHHMYVGLDDRAYFTSATMIAPTGIKFSWLALYGGRPMMAFLFLFTGGTGVLNASDAFHDTYYVVHFHYVLSMGAFSLGYYYWPGLYNLFWFNFPMHFLGGMPRRPYPDAGWNSGSSYQIGPDESNEPH'
p3644
sg123
F0.29805999999999999
sg124
g125
sg33
S'161'
p3645
sg127
g1
(g128
g12
(dp3646
g130
I4
sg131
g132
sg133
g134
sg135
g132
sg136
I01
sg34
g137
sg138
g134
sg139
I0
sg140
I0
sg141
I0
sg142
g134
sg35
g143
sg144
I0
stRp3647
sg146
g147
sg148
F1
sg149
Nsg30
S'SservA'
p3648
sbag1
(g2
g3
NtRp3649
(dp3650
g6
g1
(g7
g3
NtRp3651
(dp3652
g10
g1
(g11
g12
(dtRp3653
sg14
g1
(g11
g12
(dtRp3654
sg16
g1
(g11
g12
(dtRp3655
sg18
g1
(g11
g12
(dtRp3656
sg20
g1
(g11
g12
(dtRp3657
sg22
g1
(g11
g12
(dtRp3658
sbsg24
S'Sca'
p3659
sg26
g27
((lp3660
g29
ag30
aS'sequence'
p3661
ag32
ag33
aS'species'
p3662
atRp3663
sg37
(lp3664
sg120
g3615
sg121
S'RWLSTKDLYSRLELPGLNQNVHAMFVMPLGFGNPMGDTFPRINNGFWLPMLSLEGAGTGWTVYPPLAHSGPSVDLAFHMTSSLLGAINFTNMRGPLFWTALLLLTLPVLAGTLLDRNFNTFEGGDPLYHLFWFFGHPEVYIIPGFGSHSTYKKFGMYASIGLGLVWSHHMYVGLDDRAYFTSATMIAPTGIKFSWLATYGGRPMLAFLFLFTGGTGVLNASDAFHDLYYVVHFHYVLSMGAFSLGYYYWPGLYNLFWFNFPMHFLGGMPRRPYPDAGWNSGASYQLGPDESNEPH'
p3665
sg123
F0.30890000000000001
sg124
g125
sg33
S'104'
p3666
sg127
g1
(g128
g12
(dp3667
g130
I4
sg131
g132
sg133
g134
sg135
g132
sg136
I01
sg34
g137
sg138
g134
sg139
I0
sg140
I0
sg141
I0
sg142
g134
sg35
g143
sg144
I0
stRp3668
sg146
g147
sg148
F1
sg149
Nsg30
S'ScastA'
p3669
sbasg120
g3602
sg123
F0.072319999999999995
sg124
g125
sg33
S'145'
p3670
sg127
g1
(g128
g12
(dp3671
g130
I6
sg131
g132
sg133
g134
sg135
g132
sg136
I01
sg34
g174
sg138
g134
sg139
I0
sg140
I0
sg141
I0
sg142
g134
sg35
g175
sg144
I0
stRp3672
sg146
g147
sg148
F0.98999999999999999
sg149
Nsg30
S'NoName'
p3673
sbag1
(g2
g3
NtRp3674
(dp3675
g6
g1
(g7
g3
NtRp3676
(dp3677
g10
g1
(g11
g12
(dtRp3678
sg14
g1
(g11
g12
(dtRp3679
sg16
g1
(g11
g12
(dtRp3680
sg18
g1
(g11
g12
(dtRp3681
sg20
g1
(g11
g12
(dtRp3682
sg22
g1
(g11
g12
(dtRp3683
sbsg24
g25
sg26
g27
((lp3684
g33
ag32
ag29
ag30
atRp3685
sg37
(lp3686
g1
(g2
g3
NtRp3687
(dp3688
g6
g1
(g7
g3
NtRp3689
(dp3690
g10
g1
(g11
g12
(dtRp3691
sg14
g1
(g11
g12
(dtRp3692
sg16
g1
(g11
g12
(dtRp3693
sg18
g1
(g11
g12
(dtRp3694
sg20
g1
(g11
g12
(dtRp3695
sg22
g1
(g11
g12
(dtRp3696
sbsg24
S'Spa'
p3697
sg26
g27
((lp3698
g29
ag30
aS'sequence'
p3699
ag32
ag33
aS'species'
p3700
atRp3701
sg37
(lp3702
sg120
g3674
sg121
S'RWLSTKDLYSRLELPGLNQNVHAMFVMPLGFGNPMGDTFPRINNAFWLPMLSLEGAGTGWTVYPPLSHSGPSVDLAFHLTSSLLGAINFTNMRGPLFWTALLLLSLPVLAGTLLDRNFNTFEGGDPLYHLFWFFGHPEVYIIPGFGSHSTYKKFGMYASIGLGFVWSHHMYVGLDDRAYFLSATMIAPTGIKFSWLATYGGRPMLAFLFLFTGGTGVLNASDAFHDTYYVVHFHYVLSMGAFSLGYYYWPGLYNLFWFNFPMHFLGGMPRRPYPDAGWNSGSSYQLGPDESNEPH'
p3703
sg123
F0.029780000000000001
sg124
g125
sg33
S'162'
p3704
sg127
g1
(g128
g12
(dp3705
g130
I4
sg131
g132
sg133
g134
sg135
g132
sg136
I01
sg34
g137
sg138
g134
sg139
I0
sg140
I0
sg141
I0
sg142
g134
sg35
g143
sg144
I0
stRp3706
sg146
g147
sg148
F1
sg149
Nsg30
S'SpastA'
p3707
sbag1
(g2
g3
NtRp3708
(dp3709
g6
g1
(g7
g3
NtRp3710
(dp3711
g10
g1
(g11
g12
(dtRp3712
sg14
g1
(g11
g12
(dtRp3713
sg16
g1
(g11
g12
(dtRp3714
sg18
g1
(g11
g12
(dtRp3715
sg20
g1
(g11
g12
(dtRp3716
sg22
g1
(g11
g12
(dtRp3717
sbsg24
g25
sg26
g27
((lp3718
g33
ag32
ag29
ag30
atRp3719
sg37
(lp3720
g1
(g2
g3
NtRp3721
(dp3722
g6
g1
(g7
g3
NtRp3723
(dp3724
g10
g1
(g11
g12
(dtRp3725
sg14
g1
(g11
g12
(dtRp3726
sg16
g1
(g11
g12
(dtRp3727
sg18
g1
(g11
g12
(dtRp3728
sg20
g1
(g11
g12
(dtRp3729
sg22
g1
(g11
g12
(dtRp3730
sbsg24
g25
sg26
g27
((lp3731
g33
ag32
ag29
ag30
atRp3732
sg37
(lp3733
g1
(g2
g3
NtRp3734
(dp3735
g6
g1
(g7
g3
NtRp3736
(dp3737
g10
g1
(g11
g12
(dtRp3738
sg14
g1
(g11
g12
(dtRp3739
sg16
g1
(g11
g12
(dtRp3740
sg18
g1
(g11
g12
(dtRp3741
sg20
g1
(g11
g12
(dtRp3742
sg22
g1
(g11
g12
(dtRp3743
sbsg24
S'Sce'
p3744
sg26
g27
((lp3745
g29
ag30
aS'sequence'
p3746
ag32
ag33
aS'species'
p3747
atRp3748
sg37
(lp3749
sg120
g3721
sg121
S'RWLSTKDLYSRLELPGLNQNVHAMFVMPLGFGNPMGDTFPRINNAFWLPMLSLEGAGTGWTVYPPLSHSGPSVDLAFHLTSSLLGAINFTNMRGPLFWTALLLLSLPVLAGTLLDRNFNTFEGGDPLYHLFWFFGHPEVYIIPGFGSHSTYKKFGMYASIGLGFVWSHHMYVGLDDRAYFLSALMIAPTGIKFSWLALYGGRPMLAFLFLFTGGTGVLNASDAFHDTYYVVHFHYVLSMGAFSLGYYYWPGLYNLFWFNFPMHFLGGMPRRPYPDAGWNSGSSYQLGPDESNEPH'
p3750
sg123
F0.0038700000000000002
sg124
g125
sg33
S'164'
p3751
sg127
g1
(g128
g12
(dp3752
g130
I4
sg131
g132
sg133
g134
sg135
g132
sg136
I01
sg34
g137
sg138
g134
sg139
I0
sg140
I0
sg141
I0
sg142
g134
sg35
g143
sg144
I0
stRp3753
sg146
g147
sg148
F1
sg149
Nsg30
S'ScereD'
p3754
sbag1
(g2
g3
NtRp3755
(dp3756
g6
g1
(g7
g3
NtRp3757
(dp3758
g10
g1
(g11
g12
(dtRp3759
sg14
g1
(g11
g12
(dtRp3760
sg16
g1
(g11
g12
(dtRp3761
sg18
g1
(g11
g12
(dtRp3762
sg20
g1
(g11
g12
(dtRp3763
sg22
g1
(g11
g12
(dtRp3764
sbsg24
g25
sg26
g27
((lp3765
g33
ag32
ag29
ag30
atRp3766
sg37
(lp3767
g1
(g2
g3
NtRp3768
(dp3769
g6
g1
(g7
g3
NtRp3770
(dp3771
g10
g1
(g11
g12
(dtRp3772
sg14
g1
(g11
g12
(dtRp3773
sg16
g1
(g11
g12
(dtRp3774
sg18
g1
(g11
g12
(dtRp3775
sg20
g1
(g11
g12
(dtRp3776
sg22
g1
(g11
g12
(dtRp3777
sbsg24
S'Sce'
p3778
sg26
g27
((lp3779
g29
ag30
aS'sequence'
p3780
ag32
ag33
aS'species'
p3781
atRp3782
sg37
(lp3783
sg120
g3755
sg121
S'RWLSTKDLYSRLELPGLNQNVHAMFVMPLGFGNPMGDTFPRINNAFWLPMLSLEGAGTGWTVYPPLSHSGPSVDLAFHLTSSLLGAINFTNMRGPLFWTALLLLSLPVLAGTLLDRNFNTFEGGDPLYHLFWFFGHPEVYIIPGFGSHSTYKKFGMYASIGLGFVWSHHMYVGLDDRAYFLSALMIAPTGIKFSWLALYGGRPMLAFLFLFTGGTGVLNASDAFHDTYYVVHFHYVLSMGAFSLGYYYWPGLYNLFWFNFPMHFLGGMPRRPYPDAGWNSGSSYQLGPDESNEPH'
p3784
sg123
F0.0075900000000000004
sg124
g125
sg33
S'170'
p3785
sg127
g1
(g128
g12
(dp3786
g130
I4
sg131
g132
sg133
g134
sg135
g132
sg136
I01
sg34
g137
sg138
g134
sg139
I0
sg140
I0
sg141
I0
sg142
g134
sg35
g143
sg144
I0
stRp3787
sg146
g147
sg148
F1
sg149
Nsg30
S'ScereE'
p3788
sbag1
(g2
g3
NtRp3789
(dp3790
g6
g1
(g7
g3
NtRp3791
(dp3792
g10
g1
(g11
g12
(dtRp3793
sg14
g1
(g11
g12
(dtRp3794
sg16
g1
(g11
g12
(dtRp3795
sg18
g1
(g11
g12
(dtRp3796
sg20
g1
(g11
g12
(dtRp3797
sg22
g1
(g11
g12
(dtRp3798
sbsg24
g25
sg26
g27
((lp3799
g33
ag32
ag29
ag30
atRp3800
sg37
(lp3801
g1
(g2
g3
NtRp3802
(dp3803
g6
g1
(g7
g3
NtRp3804
(dp3805
g10
g1
(g11
g12
(dtRp3806
sg14
g1
(g11
g12
(dtRp3807
sg16
g1
(g11
g12
(dtRp3808
sg18
g1
(g11
g12
(dtRp3809
sg20
g1
(g11
g12
(dtRp3810
sg22
g1
(g11
g12
(dtRp3811
sbsg24
S'Sce'
p3812
sg26
g27
((lp3813
g29
ag30
aS'sequence'
p3814
ag32
ag33
aS'species'
p3815
atRp3816
sg37
(lp3817
sg120
g3789
sg121
S'RWLSTKDLYSRLELPGLNQNVHAMFVMPLGFGNPMGDTFPRINNAFWLPMLSLEGAGTGWTVYPPLSHSGPSVDLAFHLTSSLLGAINFTNMRGPLFWTALLLLSLPVLAGTLLDRNFNTFEGGDPLYHLFWFFGHPEVYIIPGFGSHSTYKKFGMYASIGLGFVWSHHMYVGLDDRAYFLSALMIAPTGIKFSWLALHGGRPMLAFLFLFTGGTGVLNASDAFHDTYYVVHFHYVLSMGAFSLGYYYWPGLYNLFWFNFPMHFLGGMPRRPYPDAGWNSGSSYQLGPDESNEPH'
p3818
sg123
F0.0053899999999999998
sg124
g125
sg33
S'175'
p3819
sg127
g1
(g128
g12
(dp3820
g130
I4
sg131
g132
sg133
g134
sg135
g132
sg136
I01
sg34
g137
sg138
g134
sg139
I0
sg140
I0
sg141
I0
sg142
g134
sg35
g143
sg144
I0
stRp3821
sg146
g147
sg148
F1
sg149
Nsg30
S'ScereC'
p3822
sbag1
(g2
g3
NtRp3823
(dp3824
g6
g1
(g7
g3
NtRp3825
(dp3826
g10
g1
(g11
g12
(dtRp3827
sg14
g1
(g11
g12
(dtRp3828
sg16
g1
(g11
g12
(dtRp3829
sg18
g1
(g11
g12
(dtRp3830
sg20
g1
(g11
g12
(dtRp3831
sg22
g1
(g11
g12
(dtRp3832
sbsg24
S'Sce'
p3833
sg26
g27
((lp3834
g29
ag30
aS'sequence'
p3835
ag32
ag33
aS'species'
p3836
atRp3837
sg37
(lp3838
sg120
g3789
sg121
S'RWLSTKDLYSRLELPGLNQNVHAMFVMPLGFGNPMGDTFPRINNAFWLPMLSLEGAGTGWTVYPPLSHSGPSVDLAFHLTSSLLGAINFTNMRGPLFWTALLLLSLPVLAGTLLDRNFNTFEGGDPLYHLFWFFGHPEVYIIPGFGSHSTYKKFGMYASIGLGFVWSHHMYVGLDDRAYFLSALMIAPTGIKFSWLALYGGRPMLAFLFLFTGGTGVLNASDAFHDTYYVVHFHYVLSMGAFSLGYYYWPGLYNLFWFNFPMHFLGGMPRRPYPDAGWNSGSSYQLGPDESNEPH'
p3839
sg123
F0.0066400000000000001
sg124
g125
sg33
S'34'
p3840
sg127
g1
(g128
g12
(dp3841
g130
I4
sg131
g132
sg133
g134
sg135
g132
sg136
I01
sg34
g137
sg138
g134
sg139
I0
sg140
I0
sg141
I0
sg142
g134
sg35
g143
sg144
I0
stRp3842
sg146
g147
sg148
F1
sg149
Nsg30
S'ScereA'
p3843
sbasg120
g3755
sg123
F0.00596
sg124
g125
sg33
S'166'
p3844
sg127
g1
(g128
g12
(dp3845
g130
I6
sg131
g132
sg133
g134
sg135
g132
sg136
I01
sg34
g174
sg138
g134
sg139
I0
sg140
I0
sg141
I0
sg142
g134
sg35
g175
sg144
I0
stRp3846
sg146
g147
sg148
F0.98999999999999999
sg149
Nsg30
S'NoName'
p3847
sbasg120
g3721
sg123
F0.0050600000000000003
sg124
g125
sg33
S'169'
p3848
sg127
g1
(g128
g12
(dp3849
g130
I6
sg131
g132
sg133
g134
sg135
g132
sg136
I01
sg34
g174
sg138
g134
sg139
I0
sg140
I0
sg141
I0
sg142
g134
sg35
g175
sg144
I0
stRp3850
sg146
g147
sg148
F0.66000000000000003
sg149
Nsg30
S'NoName'
p3851
sbasg120
g3708
sg123
F0.017850000000000001
sg124
g125
sg33
S'173'
p3852
sg127
g1
(g128
g12
(dp3853
g130
I6
sg131
g132
sg133
g134
sg135
g132
sg136
I01
sg34
g174
sg138
g134
sg139
I0
sg140
I0
sg141
I0
sg142
g134
sg35
g175
sg144
I0
stRp3854
sg146
g147
sg148
F0.89000000000000001
sg149
Nsg30
S'NoName'
p3855
sbag1
(g2
g3
NtRp3856
(dp3857
g6
g1
(g7
g3
NtRp3858
(dp3859
g10
g1
(g11
g12
(dtRp3860
sg14
g1
(g11
g12
(dtRp3861
sg16
g1
(g11
g12
(dtRp3862
sg18
g1
(g11
g12
(dtRp3863
sg20
g1
(g11
g12
(dtRp3864
sg22
g1
(g11
g12
(dtRp3865
sbsg24
S'Sar'
p3866
sg26
g27
((lp3867
g29
ag30
aS'sequence'
p3868
ag32
ag33
aS'species'
p3869
atRp3870
sg37
(lp3871
sg120
g3708
sg121
S'RWLSTKDLYSRLELPGLNQNVHAMFVMPLGFGNPMGDTFPRINNAFWLPMLSLEGAGTGWTVYPPLSHSGPSVDLAFHLTSSLLGAINFTNMRGPLFWTALLLLSLPVLAGTLLDRNFNTFEGGDPLYHLFWFFGHPEVYIIPGFGSHSTYKKFGMYASIGLGFVWSHHMYVGLDDRAYFLSALMIAPTGIKFSWLALYGGRPMLAFLFLFTGGTGVLNASDAFHDTYYVVHFHYVLSMGAFSLGYYYWPGLYNLFWFNFPMHFLGGMPRRPYPDAGWNSGSSYQLGPDESNEPH'
p3872
sg123
F0.047230000000000001
sg124
g125
sg33
S'88'
p3873
sg127
g1
(g128
g12
(dp3874
g130
I4
sg131
g132
sg133
g134
sg135
g132
sg136
I01
sg34
g137
sg138
g134
sg139
I0
sg140
I0
sg141
I0
sg142
g134
sg35
g143
sg144
I0
stRp3875
sg146
g147
sg148
F1
sg149
Nsg30
S'SarboA'
p3876
sbasg120
g3674
sg123
F0.023619999999999999
sg124
g125
sg33
S'49'
p3877
sg127
g1
(g128
g12
(dp3878
g130
I6
sg131
g132
sg133
g134
sg135
g132
sg136
I01
sg34
g174
sg138
g134
sg139
I0
sg140
I0
sg141
I0
sg142
g134
sg35
g175
sg144
I0
stRp3879
sg146
g147
sg148
F0.92000000000000004
sg149
Nsg30
S'NoName'
p3880
sbasg120
g3602
sg123
F0.18547
sg124
g125
sg33
S'100'
p3881
sg127
g1
(g128
g12
(dp3882
g130
I6
sg131
g132
sg133
g134
sg135
g132
sg136
I01
sg34
g174
sg138
g134
sg139
I0
sg140
I0
sg141
I0
sg142
g134
sg35
g175
sg144
I0
stRp3883
sg146
g147
sg148
F0.98999999999999999
sg149
Nsg30
S'NoName'
p3884
sbasg120
g3589
sg123
F0.03594
sg124
g125
sg33
S'43'
p3885
sg127
g1
(g128
g12
(dp3886
g130
I6
sg131
g132
sg133
g134
sg135
g132
sg136
I01
sg34
g174
sg138
g134
sg139
I0
sg140
I0
sg141
I0
sg142
g134
sg35
g175
sg144
I0
stRp3887
sg146
g147
sg148
F0.98999999999999999
sg149
Nsg30
S'NoName'
p3888
sbag1
(g2
g3
NtRp3889
(dp3890
g6
g1
(g7
g3
NtRp3891
(dp3892
g10
g1
(g11
g12
(dtRp3893
sg14
g1
(g11
g12
(dtRp3894
sg16
g1
(g11
g12
(dtRp3895
sg18
g1
(g11
g12
(dtRp3896
sg20
g1
(g11
g12
(dtRp3897
sg22
g1
(g11
g12
(dtRp3898
sbsg24
g25
sg26
g27
((lp3899
g33
ag32
ag29
ag30
atRp3900
sg37
(lp3901
g1
(g2
g3
NtRp3902
(dp3903
g6
g1
(g7
g3
NtRp3904
(dp3905
g10
g1
(g11
g12
(dtRp3906
sg14
g1
(g11
g12
(dtRp3907
sg16
g1
(g11
g12
(dtRp3908
sg18
g1
(g11
g12
(dtRp3909
sg20
g1
(g11
g12
(dtRp3910
sg22
g1
(g11
g12
(dtRp3911
sbsg24
g25
sg26
g27
((lp3912
g33
ag32
ag29
ag30
atRp3913
sg37
(lp3914
g1
(g2
g3
NtRp3915
(dp3916
g6
g1
(g7
g3
NtRp3917
(dp3918
g10
g1
(g11
g12
(dtRp3919
sg14
g1
(g11
g12
(dtRp3920
sg16
g1
(g11
g12
(dtRp3921
sg18
g1
(g11
g12
(dtRp3922
sg20
g1
(g11
g12
(dtRp3923
sg22
g1
(g11
g12
(dtRp3924
sbsg24
S'Nde'
p3925
sg26
g27
((lp3926
g29
ag30
aS'sequence'
p3927
ag32
ag33
aS'species'
p3928
atRp3929
sg37
(lp3930
sg120
g3902
sg121
S'RWLSTKDLYSRLELPGLNQNVHAMFVMPLGFGNPMGDMFPRLNNGFWIVPLSLEGAGTGWTVYPPLSHSGPSVDLAFHMTSSLLGAINFTNMRGPLFWTALLLLSLPVFAGTLLDRNFNTFEGGDPLYHLFWFFGHPEVYIIPGFGSHSTYKKFGMYASIGLGFVWSHHMYVGLDDRAYFTSATMIAPTGIKFSWLATYGGRPMLAFLFLFTGGTGVLNASDAFHDTYYVVHFHYVLSMGAFSTGYYYWPGLYNLFWFNFPMHFLGGMPRRPYPDAGWNSGSSYQFGPDESNEPH'
p3931
sg123
F0.063509999999999997
sg124
g125
sg33
S'148'
p3932
sg127
g1
(g128
g12
(dp3933
g130
I4
sg131
g132
sg133
g134
sg135
g132
sg136
I01
sg34
g137
sg138
g134
sg139
I0
sg140
I0
sg141
I0
sg142
g134
sg35
g143
sg144
I0
stRp3934
sg146
g147
sg148
F1
sg149
Nsg30
S'NdelpA'
p3935
sbag1
(g2
g3
NtRp3936
(dp3937
g6
g1
(g7
g3
NtRp3938
(dp3939
g10
g1
(g11
g12
(dtRp3940
sg14
g1
(g11
g12
(dtRp3941
sg16
g1
(g11
g12
(dtRp3942
sg18
g1
(g11
g12
(dtRp3943
sg20
g1
(g11
g12
(dtRp3944
sg22
g1
(g11
g12
(dtRp3945
sbsg24
S'Cgl'
p3946
sg26
g27
((lp3947
g29
ag30
aS'sequence'
p3948
ag32
ag33
aS'species'
p3949
atRp3950
sg37
(lp3951
sg120
g3902
sg121
S'RWLSTKDLYSRLELPGLNQNVHAMFVMPLGFGNPMGDMFPRLNNGFWIVPLSLEGAGTGWTVYPPLSHSGPSVDLAFHLTSSLLGSINFTNMRGPLFWTALLLLSLPVLAGTLLDRNFNTFEGGDPLYHLFWFFGHPEVYIIPGFGSHSTYKKFGMYASIGLGFVWSHHMYVGLDDRAYFTSATMIAPTGIKFSWLATYGGRPMLAFLFLFTGGTGVLNASDAFHDTYYVVHFHYVLSMGAFSTGYYYWPGLYNLFWFNFPMHFLGGMPRRPYPDAGWNSGSSYQFGPDESNEPH'
p3952
sg123
F0.03882
sg124
g125
sg33
S'143'
p3953
sg127
g1
(g128
g12
(dp3954
g130
I4
sg131
g132
sg133
g134
sg135
g132
sg136
I01
sg34
g137
sg138
g134
sg139
I0
sg140
I0
sg141
I0
sg142
g134
sg35
g143
sg144
I0
stRp3955
sg146
g147
sg148
F1
sg149
Nsg30
S'CglabA'
p3956
sbasg120
g3889
sg123
F0.16661999999999999
sg124
g125
sg33
S'141'
p3957
sg127
g1
(g128
g12
(dp3958
g130
I6
sg131
g132
sg133
g134
sg135
g132
sg136
I01
sg34
g174
sg138
g134
sg139
I0
sg140
I0
sg141
I0
sg142
g134
sg35
g175
sg144
I0
stRp3959
sg146
g147
sg148
F0.98999999999999999
sg149
Nsg30
S'NoName'
p3960
sbag1
(g2
g3
NtRp3961
(dp3962
g6
g1
(g7
g3
NtRp3963
(dp3964
g10
g1
(g11
g12
(dtRp3965
sg14
g1
(g11
g12
(dtRp3966
sg16
g1
(g11
g12
(dtRp3967
sg18
g1
(g11
g12
(dtRp3968
sg20
g1
(g11
g12
(dtRp3969
sg22
g1
(g11
g12
(dtRp3970
sbsg24
g25
sg26
g27
((lp3971
g33
ag32
ag29
ag30
atRp3972
sg37
(lp3973
g1
(g2
g3
NtRp3974
(dp3975
g6
g1
(g7
g3
NtRp3976
(dp3977
g10
g1
(g11
g12
(dtRp3978
sg14
g1
(g11
g12
(dtRp3979
sg16
g1
(g11
g12
(dtRp3980
sg18
g1
(g11
g12
(dtRp3981
sg20
g1
(g11
g12
(dtRp3982
sg22
g1
(g11
g12
(dtRp3983
sbsg24
S'Nba'
p3984
sg26
g27
((lp3985
g29
ag30
aS'sequence'
p3986
ag32
ag33
aS'species'
p3987
atRp3988
sg37
(lp3989
sg120
g3961
sg121
S'RWLSTKDLYSRMELPGLNQNVHAMFVMPLGFGNPMGDMFPRLNNGFWMPALSLEGAGTGWTVYPPLSHSGPSVDLAFHLSSSLLGAINFTNMRGPLFWTALLLFSLPVFAGTLLDRNFNTFEGGDPLYHLFWFFGHPEVYIIPGFGSHSTYKKFGMYASIGLGFVWSHHMYVGLDDRAYFTSATMIAPTGIKFSWLALYGGRPMLAFLFLFTGGTGVLNASDAFHDTYYVVHFHYVLSMGAFSVAYYYWPGLYNLFWFNFPMHFLGGMPRRPYPDAGWNSGSSYQLGPDESNEPH'
p3990
sg123
F0.29926999999999998
sg124
g125
sg33
S'149'
p3991
sg127
g1
(g128
g12
(dp3992
g130
I4
sg131
g132
sg133
g134
sg135
g132
sg136
I01
sg34
g137
sg138
g134
sg139
I0
sg140
I0
sg141
I0
sg142
g134
sg35
g143
sg144
I0
stRp3993
sg146
g147
sg148
F1
sg149
Nsg30
S'NbaciA'
p3994
sbag1
(g2
g3
NtRp3995
(dp3996
g6
g1
(g7
g3
NtRp3997
(dp3998
g10
g1
(g11
g12
(dtRp3999
sg14
g1
(g11
g12
(dtRp4000
sg16
g1
(g11
g12
(dtRp4001
sg18
g1
(g11
g12
(dtRp4002
sg20
g1
(g11
g12
(dtRp4003
sg22
g1
(g11
g12
(dtRp4004
sbsg24
S'Cca'
p4005
sg26
g27
((lp4006
g29
ag30
aS'sequence'
p4007
ag32
ag33
aS'species'
p4008
atRp4009
sg37
(lp4010
sg120
g3961
sg121
S'RWLSTKDLYSRLELPGLNQNVHAMFVMPLGIGNPMGDTFPRLNNGFWLPPLSLEGAGTGWTVYPPLSHSGPSVDLAFHLTSSLLGAINFTNMRGPLFWTALLLFSLPVFAGTLLDRNFNTFEGGDPLYHVFWFFGHPEVYIIPGFGSHSTYKKFGMYASIGLGFVWSHHMYVGLDDRAYFTSALMIAPTGIKFSWLATFGGRPMLAFLFLFTGGTGVLNASDAFHDTYYVVHFHYVLSMGAFSLGYYYWPGLYNLFWFNFPMHFLGGMPRRPYPDAGWNSGSSYQLGPDESNEPH'
p4011
sg123
F0.26266
sg124
g125
sg33
S'159'
p4012
sg127
g1
(g128
g12
(dp4013
g130
I4
sg131
g132
sg133
g134
sg135
g132
sg136
I01
sg34
g137
sg138
g134
sg139
I0
sg140
I0
sg141
I0
sg142
g134
sg35
g143
sg144
I0
stRp4014
sg146
g147
sg148
F1
sg149
Nsg30
S'CcastA'
p4015
sbasg120
g3889
sg123
F0.15296999999999999
sg124
g125
sg33
S'151'
p4016
sg127
g1
(g128
g12
(dp4017
g130
I6
sg131
g132
sg133
g134
sg135
g132
sg136
I01
sg34
g174
sg138
g134
sg139
I0
sg140
I0
sg141
I0
sg142
g134
sg35
g175
sg144
I0
stRp4018
sg146
g147
sg148
F0.98999999999999999
sg149
Nsg30
S'NoName'
p4019
sbasg120
g3589
sg123
F0.042560000000000001
sg124
g125
sg33
S'135'
p4020
sg127
g1
(g128
g12
(dp4021
g130
I6
sg131
g132
sg133
g134
sg135
g132
sg136
I01
sg34
g174
sg138
g134
sg139
I0
sg140
I0
sg141
I0
sg142
g134
sg35
g175
sg144
I0
stRp4022
sg146
g147
sg148
F0.84999999999999998
sg149
Nsg30
S'NoName'
p4023
sbasg120
g3555
sg123
F0.094020000000000006
sg124
g125
sg33
S'81'
p4024
sg127
g1
(g128
g12
(dp4025
g130
I6
sg131
g132
sg133
g134
sg135
g132
sg136
I01
sg34
g174
sg138
g134
sg139
I0
sg140
I0
sg141
I0
sg142
g134
sg35
g175
sg144
I0
stRp4026
sg146
g147
sg148
F0.55000000000000004
sg149
Nsg30
S'NoName'
p4027
sbasg120
g3030
sg123
F0.11952
sg124
g125
sg33
S'66'
p4028
sg127
g1
(g128
g12
(dp4029
g130
I6
sg131
g132
sg133
g134
sg135
g132
sg136
I01
sg34
g174
sg138
g134
sg139
I0
sg140
I0
sg141
I0
sg142
g134
sg35
g175
sg144
I0
stRp4030
sg146
g147
sg148
F0.69999999999999996
sg149
Nsg30
S'NoName'
p4031
sbasg120
g3017
sg123
F0.029839999999999998
sg124
g125
sg33
S'188'
p4032
sg127
g1
(g128
g12
(dp4033
g130
I6
sg131
g132
sg133
g134
sg135
g132
sg136
I01
sg34
g174
sg138
g134
sg139
I0
sg140
I0
sg141
I0
sg142
g134
sg35
g175
sg144
I0
stRp4034
sg146
g147
sg148
F0.82999999999999996
sg149
Nsg30
S'NoName'
p4035
sbag1
(g2
g3
NtRp4036
(dp4037
g6
g1
(g7
g3
NtRp4038
(dp4039
g10
g1
(g11
g12
(dtRp4040
sg14
g1
(g11
g12
(dtRp4041
sg16
g1
(g11
g12
(dtRp4042
sg18
g1
(g11
g12
(dtRp4043
sg20
g1
(g11
g12
(dtRp4044
sg22
g1
(g11
g12
(dtRp4045
sbsg24
g25
sg26
g27
((lp4046
g33
ag32
ag29
ag30
atRp4047
sg37
(lp4048
g1
(g2
g3
NtRp4049
(dp4050
g6
g1
(g7
g3
NtRp4051
(dp4052
g10
g1
(g11
g12
(dtRp4053
sg14
g1
(g11
g12
(dtRp4054
sg16
g1
(g11
g12
(dtRp4055
sg18
g1
(g11
g12
(dtRp4056
sg20
g1
(g11
g12
(dtRp4057
sg22
g1
(g11
g12
(dtRp4058
sbsg24
S'Aac'
p4059
sg26
g27
((lp4060
g29
ag30
aS'sequence'
p4061
ag32
ag33
aS'species'
p4062
atRp4063
sg37
(lp4064
sg120
g4036
sg121
S'RWLSTKDLYSRMELPGLQQNVHLMFVMPLGFGNPMGDMFARLNNSFWLPPLSMEGLGTGWTVYPPLAHSGASVDLAFHLTSSLLGLINFTNMRGPLFWTAMLLMSLPVLAGTLLDRNFNTFEGGDPLYHLFWFFGHPEVYIIPLFGSHSTYKKFGMYASIGLGFVWSHHMYVGLDDRAYFTSLTMILPTSIKFSWLLTYGGRPMLAFLFLFTGGTGVLNLSDLFHDTYYVVHFHYVLSLGAFSMGYYYWPGLYNLFWFNFPMHFLGGMPRRPYPDLGWNSGSSYQLGPDESNEPH'
p4065
sg123
F0.028920000000000001
sg124
g125
sg33
S'202'
p4066
sg127
g1
(g128
g12
(dp4067
g130
I4
sg131
g132
sg133
g134
sg135
g132
sg136
I01
sg34
g137
sg138
g134
sg139
I0
sg140
I0
sg141
I0
sg142
g134
sg35
g143
sg144
I0
stRp4068
sg146
g147
sg148
F1
sg149
Nsg30
S'AacerA'
p4069
sbag1
(g2
g3
NtRp4070
(dp4071
g6
g1
(g7
g3
NtRp4072
(dp4073
g10
g1
(g11
g12
(dtRp4074
sg14
g1
(g11
g12
(dtRp4075
sg16
g1
(g11
g12
(dtRp4076
sg18
g1
(g11
g12
(dtRp4077
sg20
g1
(g11
g12
(dtRp4078
sg22
g1
(g11
g12
(dtRp4079
sbsg24
g25
sg26
g27
((lp4080
g33
ag32
ag29
ag30
atRp4081
sg37
(lp4082
g1
(g2
g3
NtRp4083
(dp4084
g6
g1
(g7
g3
NtRp4085
(dp4086
g10
g1
(g11
g12
(dtRp4087
sg14
g1
(g11
g12
(dtRp4088
sg16
g1
(g11
g12
(dtRp4089
sg18
g1
(g11
g12
(dtRp4090
sg20
g1
(g11
g12
(dtRp4091
sg22
g1
(g11
g12
(dtRp4092
sbsg24
S'Ago'
p4093
sg26
g27
((lp4094
g29
ag30
aS'sequence'
p4095
ag32
ag33
aS'species'
p4096
atRp4097
sg37
(lp4098
sg120
g4070
sg121
S'RWLSTKDLYSRMELPGLQQNVHLMFVMPLGFGNPMGDMFARLNNSFWLPPLSMEGLGTGWTVYPPLSHSGASVDLAFHLTSSLLGLINFTNMRGPLFWTAMLLMSLPVLAGTLLDRNFNTFEGGDPLYHLFWFFGHPEVYIIPLFGSHSTYKKFGMYLSISLGFVWSHHMYVGLDDRAYFTSATMILPTSIKFSWLLTYGGRPMLLFLFLFTGGTGVLNLSDAFHDTYYVVHFHYVLSLGAFSMGYYYWPGLYNLFWFNFPMHFLGGMPRRPYPDLGWNSGSSYQLGPDESNEPH'
p4099
sg123
F0.00088000000000000003
sg124
g125
sg33
S'215'
p4100
sg127
g1
(g128
g12
(dp4101
g130
I4
sg131
g132
sg133
g134
sg135
g132
sg136
I01
sg34
g137
sg138
g134
sg139
I0
sg140
I0
sg141
I0
sg142
g134
sg35
g143
sg144
I0
stRp4102
sg146
g147
sg148
F1
sg149
Nsg30
S'AgossB'
p4103
sbag1
(g2
g3
NtRp4104
(dp4105
g6
g1
(g7
g3
NtRp4106
(dp4107
g10
g1
(g11
g12
(dtRp4108
sg14
g1
(g11
g12
(dtRp4109
sg16
g1
(g11
g12
(dtRp4110
sg18
g1
(g11
g12
(dtRp4111
sg20
g1
(g11
g12
(dtRp4112
sg22
g1
(g11
g12
(dtRp4113
sbsg24
S'Ago'
p4114
sg26
g27
((lp4115
g29
ag30
aS'sequence'
p4116
ag32
ag33
aS'species'
p4117
atRp4118
sg37
(lp4119
sg120
g4070
sg121
S'RWLSTKDLYSRMELPGLQQNVHLMFVMPLGFGNPMGDMFARLNNSFWLPPLSMEGLGTGWTVYPPLSHSGASVDLAFHLTSSLLGLINFTNMRGPLFWTAMLLMSLPVLAGTLLDRNFNTFEGGDPLYHLFWFFGHPEVYIIPLFGSHSTYKKFGMYLSISLGFVWSHHMYVGLDDRAYFTSATMILPTSIKFSWLLTYGGRPMLLFLFLFTGGTGVLNLSDAFHDTYYVVHFHYVLSLGAFSMGYYYWPGLYNLFWFNFPMHFLGGMPRRPYPDLGWNSGSSYQLGPDESNEPH'
p4120
sg123
F0.0023999999999999998
sg124
g125
sg33
S'140'
p4121
sg127
g1
(g128
g12
(dp4122
g130
I4
sg131
g132
sg133
g134
sg135
g132
sg136
I01
sg34
g137
sg138
g134
sg139
I0
sg140
I0
sg141
I0
sg142
g134
sg35
g143
sg144
I0
stRp4123
sg146
g147
sg148
F1
sg149
Nsg30
S'AgossA'
p4124
sbasg120
g4036
sg123
F0.075329999999999994
sg124
g125
sg33
S'153'
p4125
sg127
g1
(g128
g12
(dp4126
g130
I6
sg131
g132
sg133
g134
sg135
g132
sg136
I01
sg34
g174
sg138
g134
sg139
I0
sg140
I0
sg141
I0
sg142
g134
sg35
g175
sg144
I0
stRp4127
sg146
g147
sg148
F0.98999999999999999
sg149
Nsg30
S'NoName'
p4128
sbasg120
g3017
sg123
F0.56830999999999998
sg124
g125
sg33
S'38'
p4129
sg127
g1
(g128
g12
(dp4130
g130
I6
sg131
g132
sg133
g134
sg135
g132
sg136
I01
sg34
g174
sg138
g134
sg139
I0
sg140
I0
sg141
I0
sg142
g134
sg35
g175
sg144
I0
stRp4131
sg146
g147
sg148
F0.98999999999999999
sg149
Nsg30
S'NoName'
p4132
sbasg120
g2680
sg123
F0.14305999999999999
sg124
g125
sg33
S'118'
p4133
sg127
g1
(g128
g12
(dp4134
g130
I6
sg131
g132
sg133
g134
sg135
g132
sg136
I01
sg34
g174
sg138
g134
sg139
I0
sg140
I0
sg141
I0
sg142
g134
sg35
g175
sg144
I0
stRp4135
sg146
g147
sg148
F0.96999999999999997
sg149
Nsg30
S'NoName'
p4136
sbasg120
g2494
sg123
F0.26834000000000002
sg124
g125
sg33
S'152'
p4137
sg127
g1
(g128
g12
(dp4138
g130
I6
sg131
g132
sg133
g134
sg135
g132
sg136
I01
sg34
g174
sg138
g134
sg139
I0
sg140
I0
sg141
I0
sg142
g134
sg35
g175
sg144
I0
stRp4139
sg146
g147
sg148
F0.97999999999999998
sg149
Nsg30
S'NoName'
p4140
sbasg120
g680
sg123
F0.062890000000000001
sg124
g125
sg33
S'138'
p4141
sg127
g1
(g128
g12
(dp4142
g130
I6
sg131
g132
sg133
g134
sg135
g132
sg136
I01
sg34
g174
sg138
g134
sg139
I0
sg140
I0
sg141
I0
sg142
g134
sg35
g175
sg144
I0
stRp4143
sg146
g147
sg148
F0.67000000000000004
sg149
Nsg30
S'NoName'
p4144
sbasg120
g266
sg123
F0.52025999999999994
sg124
g125
sg33
S'44'
p4145
sg127
g1
(g128
g12
(dp4146
g130
I6
sg131
g132
sg133
g134
sg135
g132
sg136
I01
sg34
g174
sg138
g134
sg139
I0
sg140
I0
sg141
I0
sg142
g134
sg35
g175
sg144
I0
stRp4147
sg146
g147
sg148
F0.97999999999999998
sg149
Nsg30
S'NoName'
p4148
sbasg120
g52
sg123
F0.11274000000000001
sg124
g125
sg33
S'216'
p4149
sg127
g1
(g128
g12
(dp4150
g130
I6
sg131
g132
sg133
g134
sg135
g132
sg136
I01
sg34
g174
sg138
g134
sg139
I0
sg140
I0
sg141
I0
sg142
g134
sg35
g175
sg144
I0
stRp4151
sg146
g147
sg148
F0.88
sg149
Nsg30
S'NoName'
p4152
sbasg120
g39
sg123
F0.33485999999999999
sg124
g125
sg33
S'222'
p4153
sg127
g1
(g128
g12
(dp4154
g130
I6
sg131
g132
sg133
g134
sg135
g132
sg136
I01
sg34
g174
sg138
g134
sg139
I0
sg140
I0
sg141
I0
sg142
g134
sg35
g175
sg144
I0
stRp4155
sg146
g147
sg148
F0.95999999999999996
sg149
Nsg30
S'NoName'
p4156
sbag1
(g2
g3
NtRp4157
(dp4158
g6
g1
(g7
g3
NtRp4159
(dp4160
g10
g1
(g11
g12
(dtRp4161
sg14
g1
(g11
g12
(dtRp4162
sg16
g1
(g11
g12
(dtRp4163
sg18
g1
(g11
g12
(dtRp4164
sg20
g1
(g11
g12
(dtRp4165
sg22
g1
(g11
g12
(dtRp4166
sbsg24
S'Lst'
p4167
sg26
g27
((lp4168
g29
ag30
aS'sequence'
p4169
ag32
ag33
aS'species'
p4170
atRp4171
sg37
(lp4172
sg120
g39
sg121
S'RWLSTKDLYSRMELPGLNHNVHAMFVMPLGFGNPLGDMFPRLNNSFWLPPLSFEGAGTGWTVYPPLSHSGASVDLAFHLSSSMLGAMNFTNMRGPLFWTALLLLSLPVLGATLLDRNFNTFEGGDPLYHLFWFFGHPEVYIIPGFGSHCTYEKFGMYASMGLGFVWSHHMFVGLDERAYFTAATMIAPTGMKFSWLATYGGTPMVAFLFLFTGGTGVLNASDAFHDTYYVVHFHYVLSMGAFALGYYYWPGLYKYFWFNFPMHFLGGMPRRPYPDAGWNSGSAIQLGPQATKEPH'
p4173
sg123
F1.13117
sg124
g125
sg33
S'127'
p4174
sg127
g1
(g128
g12
(dp4175
g130
I4
sg131
g132
sg133
g134
sg135
g132
sg136
I01
sg34
g137
sg138
g134
sg139
I0
sg140
I0
sg141
I0
sg142
g134
sg35
g143
sg144
I0
stRp4176
sg146
g147
sg148
F1
sg149
Nsg30
S'LstarA'
p4177
sbasg120
g4
sg123
F0.46844999999999998
sg124
g125
sg33
S'220'
p4178
sg127
g1
(g128
g12
(dp4179
g130
I6
sg131
g132
sg133
g134
sg135
g132
sg136
I01
sg34
g174
sg138
g134
sg139
I0
sg140
I0
sg141
I0
sg142
g134
sg35
g175
sg144
I0
stRp4180
sg146
g147
sg148
F1
sg149
Nsg30
S'NoName'
p4181
sbag1
(g2
g3
NtRp4182
(dp4183
g6
g1
(g7
g3
NtRp4184
(dp4185
g10
g1
(g11
g12
(dtRp4186
sg14
g1
(g11
g12
(dtRp4187
sg16
g1
(g11
g12
(dtRp4188
sg18
g1
(g11
g12
(dtRp4189
sg20
g1
(g11
g12
(dtRp4190
sg22
g1
(g11
g12
(dtRp4191
sbsg24
g25
sg26
g27
((lp4192
g33
ag32
ag29
ag30
atRp4193
sg37
(lp4194
g1
(g2
g3
NtRp4195
(dp4196
g6
g1
(g7
g3
NtRp4197
(dp4198
g10
g1
(g11
g12
(dtRp4199
sg14
g1
(g11
g12
(dtRp4200
sg16
g1
(g11
g12
(dtRp4201
sg18
g1
(g11
g12
(dtRp4202
sg20
g1
(g11
g12
(dtRp4203
sg22
g1
(g11
g12
(dtRp4204
sbsg24
S'Sja'
p4205
sg26
g27
((lp4206
g29
ag30
aS'sequence'
p4207
ag32
ag33
aS'species'
p4208
atRp4209
sg37
(lp4210
sg120
g4182
sg121
S'RWLSTKDLYSRLELPGLNQNVHGMFILPLGFGNPLGDVYPRMNNSFWLPPLSLEGPGVGWTMYYPLSHSGLSVDLLMQLTSSTLGSINLTNMRGPLFWTSLLVLTLPVLGGILLDRNWNTFAGGDPLYHLFWFFGHPEVYIIPAFGSHSTFHKFGMYASIALGCVWSHHLYVGLDDRAYFTAATMIAPTGIKFSWLATSGGEPMLVFLILFTGGTGVLNSVDAFHDTYFVVHFHYVLSMGAMGLAYYFWPGLYNMFWFNFPQHFLGNYPRRPYPDAGWNSGSSYQFNPNDSNEPH'
p4211
sg123
F1.0686599999999999
sg124
g125
sg33
S'125'
p4212
sg127
g1
(g128
g12
(dp4213
g130
I4
sg131
g132
sg133
g134
sg135
g132
sg136
I01
sg34
g137
sg138
g134
sg139
I0
sg140
I0
sg141
I0
sg142
g134
sg35
g143
sg144
I0
stRp4214
sg146
g147
sg148
F1
sg149
Nsg30
S'SjapoA'
p4215
sbag1
(g2
g3
NtRp4216
(dp4217
g6
g1
(g7
g3
NtRp4218
(dp4219
g10
g1
(g11
g12
(dtRp4220
sg14
g1
(g11
g12
(dtRp4221
sg16
g1
(g11
g12
(dtRp4222
sg18
g1
(g11
g12
(dtRp4223
sg20
g1
(g11
g12
(dtRp4224
sg22
g1
(g11
g12
(dtRp4225
sbsg24
g25
sg26
g27
((lp4226
g33
ag32
ag29
ag30
atRp4227
sg37
(lp4228
g1
(g2
g3
NtRp4229
(dp4230
g6
g1
(g7
g3
NtRp4231
(dp4232
g10
g1
(g11
g12
(dtRp4233
sg14
g1
(g11
g12
(dtRp4234
sg16
g1
(g11
g12
(dtRp4235
sg18
g1
(g11
g12
(dtRp4236
sg20
g1
(g11
g12
(dtRp4237
sg22
g1
(g11
g12
(dtRp4238
sbsg24
S'Spo'
p4239
sg26
g27
((lp4240
g29
ag30
aS'sequence'
p4241
ag32
ag33
aS'species'
p4242
atRp4243
sg37
(lp4244
sg120
g4216
sg121
S'RWMSTKDLYSRMELPGLNQNVHGMFIIPLGFGNPMGDVYPRVNNTFWLPPLSLEGPGGGWTVYPPLSHSGPAIDLALQLTSSTLGSVNLTNMRGPLFWTSLLLLTLPVLGGFLFDRNLNTFAGGDPLYHLFWFFGHPEVYIIPAFGSHPSLHKFGMWASIALGLVWSHHLFVGLDDRAYFSAATMIAPTGIKFSWLATTGGQPMLAFLILFTGGTGVLNSVDAFHDTYFVVHFHYVLSMGAFGLAYY-WPGLYNLFWFNFPQHFLGGMPRRPYPEAGWNSGSSYQFNPSDDNEPH'
p4245
sg123
F0.12372
sg124
g125
sg33
S'137'
p4246
sg127
g1
(g128
g12
(dp4247
g130
I4
sg131
g132
sg133
g134
sg135
g132
sg136
I01
sg34
g137
sg138
g134
sg139
I0
sg140
I0
sg141
I0
sg142
g134
sg35
g143
sg144
I0
stRp4248
sg146
g147
sg148
F1
sg149
Nsg30
S'SpombA'
p4249
sbag1
(g2
g3
NtRp4250
(dp4251
g6
g1
(g7
g3
NtRp4252
(dp4253
g10
g1
(g11
g12
(dtRp4254
sg14
g1
(g11
g12
(dtRp4255
sg16
g1
(g11
g12
(dtRp4256
sg18
g1
(g11
g12
(dtRp4257
sg20
g1
(g11
g12
(dtRp4258
sg22
g1
(g11
g12
(dtRp4259
sbsg24
g25
sg26
g27
((lp4260
g33
ag32
ag29
ag30
atRp4261
sg37
(lp4262
g1
(g2
g3
NtRp4263
(dp4264
g6
g1
(g7
g3
NtRp4265
(dp4266
g10
g1
(g11
g12
(dtRp4267
sg14
g1
(g11
g12
(dtRp4268
sg16
g1
(g11
g12
(dtRp4269
sg18
g1
(g11
g12
(dtRp4270
sg20
g1
(g11
g12
(dtRp4271
sg22
g1
(g11
g12
(dtRp4272
sbsg24
S'Soc'
p4273
sg26
g27
((lp4274
g29
ag30
aS'sequence'
p4275
ag32
ag33
aS'species'
p4276
atRp4277
sg37
(lp4278
sg120
g4250
sg121
S'RWLSTKDLYSRMELPGLNQNVHGMFIIPLGFGNPMGDVYPRVNNTFWLPPLSLEGPGTGWTVYPPLSHSGPAVDLALQLTSSTLGSLNLTNMRGPLFWTSLLLLTLPVLGGFLFDRNLNTFAGGDPLYHLFWFFGHPEVYIIPAFGSHSTLNKFGMCASIALGLVWSHHLFVGLDDRAYFSAATMIAPTGIKFSWLATTGGQPMLAFLILFTGGTGVLNSVDAFHDTYFVVHFHYVLSMGAFGLAYYFWPGLYNLFWFNFPQHFLGGMPRRPYPDAGWNSGSSYQYNPSDDNEPH'
p4279
sg123
F0.03637
sg124
g125
sg33
S'133'
p4280
sg127
g1
(g128
g12
(dp4281
g130
I4
sg131
g132
sg133
g134
sg135
g132
sg136
I01
sg34
g137
sg138
g134
sg139
I0
sg140
I0
sg141
I0
sg142
g134
sg35
g143
sg144
I0
stRp4282
sg146
g147
sg148
F1
sg149
Nsg30
S'SoctoA'
p4283
sbag1
(g2
g3
NtRp4284
(dp4285
g6
g1
(g7
g3
NtRp4286
(dp4287
g10
g1
(g11
g12
(dtRp4288
sg14
g1
(g11
g12
(dtRp4289
sg16
g1
(g11
g12
(dtRp4290
sg18
g1
(g11
g12
(dtRp4291
sg20
g1
(g11
g12
(dtRp4292
sg22
g1
(g11
g12
(dtRp4293
sbsg24
S'Scr'
p4294
sg26
g27
((lp4295
g29
ag30
aS'sequence'
p4296
ag32
ag33
aS'species'
p4297
atRp4298
sg37
(lp4299
sg120
g4250
sg121
S'RWLSTKDLYSRMELPGLNQNVHGMFIIPLGFGNPMGDVYPRVNNTYWLPPLSLEGPGTGWTVYPPLSHSGPSVDLALQLTSSTLGSLNLTNMRGPLFWTSLLLLTLPVLGGFLFDRNLNTFAGGDPLYHLFWFFGHPEVYIIPAFGSHPTLNKFGMCASIALGLVWSHHLFVGLDDRAYFSAATMIAPTGIKFSWLATTGGQPMLAFLILFTGGTGVLNSVDAFHDTYFVVHFHYVLSMGAFGLAYYFWPGLYNLFWFNFPQHFLGGMPRRPYPDAGWNSGSSYQYNPSDDNEPH'
p4300
sg123
F0.036740000000000002
sg124
g125
sg33
S'223'
p4301
sg127
g1
(g128
g12
(dp4302
g130
I4
sg131
g132
sg133
g134
sg135
g132
sg136
I01
sg34
g137
sg138
g134
sg139
I0
sg140
I0
sg141
I0
sg142
g134
sg35
g143
sg144
I0
stRp4303
sg146
g147
sg148
F1
sg149
Nsg30
S'ScryoA'
p4304
sbasg120
g4216
sg123
F0.18453
sg124
g125
sg33
S'129'
p4305
sg127
g1
(g128
g12
(dp4306
g130
I6
sg131
g132
sg133
g134
sg135
g132
sg136
I01
sg34
g174
sg138
g134
sg139
I0
sg140
I0
sg141
I0
sg142
g134
sg35
g175
sg144
I0
stRp4307
sg146
g147
sg148
F0.98999999999999999
sg149
Nsg30
S'NoName'
p4308
sbasg120
g4182
sg123
F0.73307
sg124
g125
sg33
S'123'
p4309
sg127
g1
(g128
g12
(dp4310
g130
I6
sg131
g132
sg133
g134
sg135
g132
sg136
I01
sg34
g174
sg138
g134
sg139
I0
sg140
I0
sg141
I0
sg142
g134
sg35
g175
sg144
I0
stRp4311
sg146
g147
sg148
F0.98999999999999999
sg149
Nsg30
S'NoName'
p4312
sbasg120
g4
sg123
F1.7741899999999999
sg124
g125
sg33
S'156'
p4313
sg127
g1
(g128
g12
(dp4314
g130
I6
sg131
g132
sg133
g134
sg135
g132
sg136
I01
sg34
g174
sg138
g134
sg139
I0
sg140
I0
sg141
I0
sg142
g134
sg35
g175
sg144
I0
stRp4315
sg146
g147
sg148
F1
sg149
Nsg30
S'NoName'
p4316
sbasg31
S'8'
sg120
Nsg123
F0
sg124
g125
sg33
S'17'
p4317
sg34
S'sphere'
p4318
sg127
g1
(g128
g12
(dp4319
g130
I6
sg131
g132
sg133
g134
sg135
g132
sg136
I01
sg34
g174
sg138
g134
sg139
I0
sg140
I0
sg141
I0
sg142
g134
sg35
g175
sg144
I0
stRp4320
sg146
g147
sg148
F1
sg149
Nsg35
S'#833DB4'
p4321
sg30
g125
sb.