ccopy_reg
_reconstructor
p1
(cete2.phylo.phylotree
PhyloNode
p2
c__builtin__
object
p3
NtRp4
(dp5
S'_faces'
p6
g1
(cete2.treeview.main
_FaceAreas
p7
g3
NtRp8
(dp9
S'branch-top'
p10
g1
(cete2.treeview.main
FaceContainer
p11
c__builtin__
dict
p12
(dtRp13
sS'float'
p14
g1
(g11
g12
(dtRp15
sS'branch-bottom'
p16
g1
(g11
g12
(dtRp17
sS'aligned'
p18
g1
(g11
g12
(dtRp19
sS'branch-right'
p20
g1
(g11
g12
(dtRp21
sS'float-behind'
p22
g1
(g11
g12
(dtRp23
sbsS'_species'
p24
S'Unknown'
p25
sS'features'
p26
c__builtin__
set
p27
((lp28
S'dist'
p29
aS'name'
p30
aS'bsize'
p31
aS'support'
p32
aS'_nid'
p33
aS'shape'
p34
aS'fgcolor'
p35
atRp36
sS'_children'
p37
(lp38
g1
(g2
g3
NtRp39
(dp40
g6
g1
(g7
g3
NtRp41
(dp42
g10
g1
(g11
g12
(dtRp43
sg14
g1
(g11
g12
(dtRp44
sg16
g1
(g11
g12
(dtRp45
sg18
g1
(g11
g12
(dtRp46
sg20
g1
(g11
g12
(dtRp47
sg22
g1
(g11
g12
(dtRp48
sbsg24
g25
sg26
g27
((lp49
g33
ag32
ag29
ag30
atRp50
sg37
(lp51
g1
(g2
g3
NtRp52
(dp53
g6
g1
(g7
g3
NtRp54
(dp55
g10
g1
(g11
g12
(dtRp56
sg14
g1
(g11
g12
(dtRp57
sg16
g1
(g11
g12
(dtRp58
sg18
g1
(g11
g12
(dtRp59
sg20
g1
(g11
g12
(dtRp60
sg22
g1
(g11
g12
(dtRp61
sbsg24
g25
sg26
g27
((lp62
g33
ag32
ag29
ag30
atRp63
sg37
(lp64
g1
(g2
g3
NtRp65
(dp66
g6
g1
(g7
g3
NtRp67
(dp68
g10
g1
(g11
g12
(dtRp69
sg14
g1
(g11
g12
(dtRp70
sg16
g1
(g11
g12
(dtRp71
sg18
g1
(g11
g12
(dtRp72
sg20
g1
(g11
g12
(dtRp73
sg22
g1
(g11
g12
(dtRp74
sbsg24
g25
sg26
g27
((lp75
g33
ag32
ag29
ag30
atRp76
sg37
(lp77
g1
(g2
g3
NtRp78
(dp79
g6
g1
(g7
g3
NtRp80
(dp81
g10
g1
(g11
g12
(dtRp82
sg14
g1
(g11
g12
(dtRp83
sg16
g1
(g11
g12
(dtRp84
sg18
g1
(g11
g12
(dtRp85
sg20
g1
(g11
g12
(dtRp86
sg22
g1
(g11
g12
(dtRp87
sbsg24
g25
sg26
g27
((lp88
g33
ag32
ag29
ag30
atRp89
sg37
(lp90
g1
(g2
g3
NtRp91
(dp92
g6
g1
(g7
g3
NtRp93
(dp94
g10
g1
(g11
g12
(dtRp95
sg14
g1
(g11
g12
(dtRp96
sg16
g1
(g11
g12
(dtRp97
sg18
g1
(g11
g12
(dtRp98
sg20
g1
(g11
g12
(dtRp99
sg22
g1
(g11
g12
(dtRp100
sbsg24
g25
sg26
g27
((lp101
g33
ag32
ag29
ag30
atRp102
sg37
(lp103
g1
(g2
g3
NtRp104
(dp105
g6
g1
(g7
g3
NtRp106
(dp107
g10
g1
(g11
g12
(dtRp108
sg14
g1
(g11
g12
(dtRp109
sg16
g1
(g11
g12
(dtRp110
sg18
g1
(g11
g12
(dtRp111
sg20
g1
(g11
g12
(dtRp112
sg22
g1
(g11
g12
(dtRp113
sbsg24
S'Yli'
p114
sg26
g27
((lp115
g29
ag30
aS'sequence'
p116
ag32
ag33
aS'species'
p117
atRp118
sg37
(lp119
sS'_up'
p120
g91
sS'sequence'
p121
S'RWLSTKDLYSRLELTGLNQNVHAMFVMPLGFGNPMGDMFARLNNSFWLVPLSLEGAGTGWTVYFPLAHSGPAVDLAFHLSSSLLGAINFTNMRGPLFWTALLLLSLPVLAGTGIDRNFNTFEGGDALYHLFWFFGHPEVYIIPGFGSHSAISKFGMYASIGLGFVWSHHMFVGLDDRAYFTSATMIAPTSIKFSWLATYGGRTALAFIFLFTGGTGVLNSADPFHDSYYVVMAFSIGWLPYNLFWFMFGMNDAGWSSAYQLGPSGTNE'
p122
sS'_dist'
p123
F0.00011
sS'_name'
p124
S'NoName'
p125
sg33
S'13'
p126
sS'_img_style'
p127
g1
(cete2.treeview.main
NodeStyle
p128
g12
(dp129
S'size'
p130
I4
sS'hz_line_color'
p131
S'#000000'
p132
sS'faces_bgcolor'
p133
S'#FFFFFF'
p134
sS'vt_line_color'
p135
g132
sS'draw_descendants'
p136
I01
sg34
S'square'
p137
sS'bgcolor'
p138
g134
sS'hz_line_type'
p139
I0
sS'vt_line_width'
p140
I0
sS'vt_line_type'
p141
I0
sS'node_bgcolor'
p142
g134
sg35
g132
sS'hz_line_width'
p143
I0
stRp144
sS'_speciesFunction'
p145
cete2.phylo.phylotree
_parse_species
p146
sS'_support'
p147
F1
sS'_temp_faces'
p148
Nsg30
S'YlipoB'
p149
sbag1
(g2
g3
NtRp150
(dp151
g6
g1
(g7
g3
NtRp152
(dp153
g10
g1
(g11
g12
(dtRp154
sg14
g1
(g11
g12
(dtRp155
sg16
g1
(g11
g12
(dtRp156
sg18
g1
(g11
g12
(dtRp157
sg20
g1
(g11
g12
(dtRp158
sg22
g1
(g11
g12
(dtRp159
sbsg24
S'Yli'
p160
sg26
g27
((lp161
g29
ag30
aS'sequence'
p162
ag32
ag33
aS'species'
p163
atRp164
sg37
(lp165
sg120
g91
sg121
S'RWLSTKDLYSRLELTGLNQNVHAMFVMPLGFGNPMGDMFARLNNSFWLVPLSLEGAGTGWTVYFPLAHSGPAVDLAFHLSSSLLGAINFTNMRGPLFWTALLLLSLPVLAGTGIDRNFNTFEGGDALYHLFWFFGHPEVYIIPGFGSHSAISKFGMYASIGLGFVWSHHMFVGLDDRAYFTSATMIAPTSIKFSWLATYGGRTALAFIFLFTGGTGVLNSADPFHDSYYVVMAFSIGWLPYNLFWFMFGMNDAGWSSAYQLGPSGTNE'
p166
sg123
F0.00048000000000000001
sg124
g125
sg33
S'9'
sg127
g1
(g128
g12
(dp167
g130
I4
sg131
g132
sg133
g134
sg135
g132
sg136
I01
sg34
g137
sg138
g134
sg139
I0
sg140
I0
sg141
I0
sg142
g134
sg35
g132
sg143
I0
stRp168
sg145
g146
sg147
F1
sg148
Nsg30
S'YlipoA'
p169
sbasg120
g78
sg123
F0.02656
sg124
g125
sg33
S'12'
p170
sg127
g1
(g128
g12
(dp171
g130
I8
sg131
g132
sg133
g134
sg135
g132
sg136
I01
sg34
S'sphere'
p172
sg138
g134
sg139
I0
sg140
I0
sg141
I0
sg142
g134
sg35
g132
sg143
I0
stRp173
sg145
g146
sg147
F1
sg148
Nsg30
S'NoName'
p174
sbag1
(g2
g3
NtRp175
(dp176
g6
g1
(g7
g3
NtRp177
(dp178
g10
g1
(g11
g12
(dtRp179
sg14
g1
(g11
g12
(dtRp180
sg16
g1
(g11
g12
(dtRp181
sg18
g1
(g11
g12
(dtRp182
sg20
g1
(g11
g12
(dtRp183
sg22
g1
(g11
g12
(dtRp184
sbsg24
g25
sg26
g27
((lp185
g33
ag32
ag29
ag30
atRp186
sg37
(lp187
g1
(g2
g3
NtRp188
(dp189
g6
g1
(g7
g3
NtRp190
(dp191
g10
g1
(g11
g12
(dtRp192
sg14
g1
(g11
g12
(dtRp193
sg16
g1
(g11
g12
(dtRp194
sg18
g1
(g11
g12
(dtRp195
sg20
g1
(g11
g12
(dtRp196
sg22
g1
(g11
g12
(dtRp197
sbsg24
S'Cga'
p198
sg26
g27
((lp199
g29
ag30
aS'sequence'
p200
ag32
ag33
aS'species'
p201
atRp202
sg37
(lp203
sg120
g175
sg121
S'RWLSTKDLYSRLELTGLNQNVHAMFVMPLGFGNPMGDMFARLNNSFWLVPLSLEGAGTGWTVYFPLAHSGPAVDLAFHLSSSLLGAINFTNMRGPLFWTALLLLSLPVLAGTGIDRNFNTFEGGDALYHLFWFFGHPEVYIIPGFGSHSAISKFGMYASIGLGFVWSHHMFVGLDDRAYFTSATMIAPTSIKFSWLSTYGGRTALAFIFLFTGGTGVLNSADPFHDSYYVVMAFSIGWLPYNLFWFMFGMNDAGWSSAYQLGPSGTNE'
p204
sg123
F0.016299999999999999
sg124
g125
sg33
S'53'
p205
sg127
g1
(g128
g12
(dp206
g130
I4
sg131
g132
sg133
g134
sg135
g132
sg136
I01
sg34
g137
sg138
g134
sg139
I0
sg140
I0
sg141
I0
sg142
g134
sg35
g132
sg143
I0
stRp207
sg145
g146
sg147
F1
sg148
Nsg30
S'CgallA'
p208
sbag1
(g2
g3
NtRp209
(dp210
g6
g1
(g7
g3
NtRp211
(dp212
g10
g1
(g11
g12
(dtRp213
sg14
g1
(g11
g12
(dtRp214
sg16
g1
(g11
g12
(dtRp215
sg18
g1
(g11
g12
(dtRp216
sg20
g1
(g11
g12
(dtRp217
sg22
g1
(g11
g12
(dtRp218
sbsg24
S'Cde'
p219
sg26
g27
((lp220
g29
ag30
aS'sequence'
p221
ag32
ag33
aS'species'
p222
atRp223
sg37
(lp224
sg120
g175
sg121
S'RWLSTKDLYSRLELTGLNQNVHAMFVMPLGFGNPMGDMFARLNNSFWLVPLSLEGAGTGWTVYFPLAHSGPAVDLAFHLSSSLLGAINFTNMRGPLFWTALLLLSLPVLAGTGIDRNFNTFEGGDALYHLFFFNGHPEVYIIPGFGSHSAISKFGMYASIGLGFVWSHHMFVGLDDRAYFTSATMIAPTSIKFSWLATYGGRTALAFIFLFTGGTGVLNSADPFHDSYYVVMAFSIGWLPYNLFWFMFGMNDAGWSSAYQLGPSGTNE'
p225
sg123
F0.018610000000000002
sg124
g125
sg33
S'55'
p226
sg127
g1
(g128
g12
(dp227
g130
I4
sg131
g132
sg133
g134
sg135
g132
sg136
I01
sg34
g137
sg138
g134
sg139
I0
sg140
I0
sg141
I0
sg142
g134
sg35
g132
sg143
I0
stRp228
sg145
g146
sg147
F1
sg148
Nsg30
S'CdefoA'
p229
sbasg120
g78
sg123
F0.00282
sg124
g125
sg33
S'17'
p230
sg127
g1
(g128
g12
(dp231
g130
I8
sg131
g132
sg133
g134
sg135
g132
sg136
I01
sg34
g172
sg138
g134
sg139
I0
sg140
I0
sg141
I0
sg142
g134
sg35
g132
sg143
I0
stRp232
sg145
g146
sg147
F0.96999999999999997
sg148
Nsg30
S'NoName'
p233
sbasg120
g65
sg123
F0.00479
sg124
g125
sg33
S'45'
p234
sg127
g1
(g128
g12
(dp235
g130
I8
sg131
g132
sg133
g134
sg135
g132
sg136
I01
sg34
g172
sg138
g134
sg139
I0
sg140
I0
sg141
I0
sg142
g134
sg35
g132
sg143
I0
stRp236
sg145
g146
sg147
F0.80000000000000004
sg148
Nsg30
S'NoName'
p237
sbag1
(g2
g3
NtRp238
(dp239
g6
g1
(g7
g3
NtRp240
(dp241
g10
g1
(g11
g12
(dtRp242
sg14
g1
(g11
g12
(dtRp243
sg16
g1
(g11
g12
(dtRp244
sg18
g1
(g11
g12
(dtRp245
sg20
g1
(g11
g12
(dtRp246
sg22
g1
(g11
g12
(dtRp247
sbsg24
S'Cal'
p248
sg26
g27
((lp249
g29
ag30
aS'sequence'
p250
ag32
ag33
aS'species'
p251
atRp252
sg37
(lp253
sg120
g65
sg121
S'RWLSTKDLYSRLELTGLNQNVHAMFVMPLGFGNPMGDMFARLNNSFWLVPMSLEGAGTGWTVYFPLAHSGPAVDLAFHLASSLLGAINFTNMRGPLFWTALLLLSLPVLAGTGIDRNFNTFEGGDALYHLFWFFGHPEVYIIPGFGSHSAISKFGMYASIGLGFVWSHHMFVGLDDRAYFTSATMIAPTSIKFSWLATYGGRTALAFIFLFTGGTGVLNSADPFHDSYYVVMAFSIGWLPYNLFWFMFGMNDAGWSSAYQLGPSGTNE'
p254
sg123
F0.035970000000000002
sg124
g125
sg33
S'50'
p255
sg127
g1
(g128
g12
(dp256
g130
I4
sg131
g132
sg133
g134
sg135
g132
sg136
I01
sg34
g137
sg138
g134
sg139
I0
sg140
I0
sg141
I0
sg142
g134
sg35
g132
sg143
I0
stRp257
sg145
g146
sg147
F1
sg148
Nsg30
S'CalimA'
p258
sbasg120
g52
sg123
F1.1444799999999999
sg124
g125
sg33
S'41'
p259
sg127
g1
(g128
g12
(dp260
g130
I8
sg131
g132
sg133
g134
sg135
g132
sg136
I01
sg34
g172
sg138
g134
sg139
I0
sg140
I0
sg141
I0
sg142
g134
sg35
g132
sg143
I0
stRp261
sg145
g146
sg147
F0.97999999999999998
sg148
Nsg30
S'NoName'
p262
sbag1
(g2
g3
NtRp263
(dp264
g6
g1
(g7
g3
NtRp265
(dp266
g10
g1
(g11
g12
(dtRp267
sg14
g1
(g11
g12
(dtRp268
sg16
g1
(g11
g12
(dtRp269
sg18
g1
(g11
g12
(dtRp270
sg20
g1
(g11
g12
(dtRp271
sg22
g1
(g11
g12
(dtRp272
sbsg24
g25
sg26
g27
((lp273
g33
ag32
ag29
ag30
atRp274
sg37
(lp275
g1
(g2
g3
NtRp276
(dp277
g6
g1
(g7
g3
NtRp278
(dp279
g10
g1
(g11
g12
(dtRp280
sg14
g1
(g11
g12
(dtRp281
sg16
g1
(g11
g12
(dtRp282
sg18
g1
(g11
g12
(dtRp283
sg20
g1
(g11
g12
(dtRp284
sg22
g1
(g11
g12
(dtRp285
sbsg24
g25
sg26
g27
((lp286
g33
ag32
ag29
ag30
atRp287
sg37
(lp288
g1
(g2
g3
NtRp289
(dp290
g6
g1
(g7
g3
NtRp291
(dp292
g10
g1
(g11
g12
(dtRp293
sg14
g1
(g11
g12
(dtRp294
sg16
g1
(g11
g12
(dtRp295
sg18
g1
(g11
g12
(dtRp296
sg20
g1
(g11
g12
(dtRp297
sg22
g1
(g11
g12
(dtRp298
sbsg24
g25
sg26
g27
((lp299
g33
ag32
ag29
ag30
atRp300
sg37
(lp301
g1
(g2
g3
NtRp302
(dp303
g6
g1
(g7
g3
NtRp304
(dp305
g10
g1
(g11
g12
(dtRp306
sg14
g1
(g11
g12
(dtRp307
sg16
g1
(g11
g12
(dtRp308
sg18
g1
(g11
g12
(dtRp309
sg20
g1
(g11
g12
(dtRp310
sg22
g1
(g11
g12
(dtRp311
sbsg24
g25
sg26
g27
((lp312
g33
ag32
ag29
ag30
atRp313
sg37
(lp314
g1
(g2
g3
NtRp315
(dp316
g6
g1
(g7
g3
NtRp317
(dp318
g10
g1
(g11
g12
(dtRp319
sg14
g1
(g11
g12
(dtRp320
sg16
g1
(g11
g12
(dtRp321
sg18
g1
(g11
g12
(dtRp322
sg20
g1
(g11
g12
(dtRp323
sg22
g1
(g11
g12
(dtRp324
sbsg24
S'Mst'
p325
sg26
g27
((lp326
g29
ag30
aS'sequence'
p327
ag32
ag33
aS'species'
p328
atRp329
sg37
(lp330
sg120
g302
sg121
S'RWLSTKDLYSRLELPTLNQNVHAMFVMPSGFGNPMGDMLARLNNSFWLVPVSLEGAGTGWTVYPPLSHSGASVDLVFHMSSSLLGAINFTNMRGTLFWTALLLLSLPVLSGTLLDRNFNTFEGGDPLYHLFWFFGHPEVYIIPGFGSHSTYKKFGMYASMGLGFVWSHHMYVGLDDRAYFTSATMMAPTGVKFSWLATYGGRPFLAFMFLFTGGTGVLNASDAFHDTYYVVLAFSLGYFPYNLFMFLFGMPDAGWSSSYQLGPDESNE'
p331
sg123
F0.087190000000000004
sg124
g125
sg33
S'66'
p332
sg127
g1
(g128
g12
(dp333
g130
I4
sg131
g132
sg133
g134
sg135
g132
sg136
I01
sg34
g137
sg138
g134
sg139
I0
sg140
I0
sg141
I0
sg142
g134
sg35
g132
sg143
I0
stRp334
sg145
g146
sg147
F1
sg148
Nsg30
S'MstarA'
p335
sbag1
(g2
g3
NtRp336
(dp337
g6
g1
(g7
g3
NtRp338
(dp339
g10
g1
(g11
g12
(dtRp340
sg14
g1
(g11
g12
(dtRp341
sg16
g1
(g11
g12
(dtRp342
sg18
g1
(g11
g12
(dtRp343
sg20
g1
(g11
g12
(dtRp344
sg22
g1
(g11
g12
(dtRp345
sbsg24
S'Min'
p346
sg26
g27
((lp347
g29
ag30
aS'sequence'
p348
ag32
ag33
aS'species'
p349
atRp350
sg37
(lp351
sg120
g302
sg121
S'RWLSTKDLYSRLELPTLNQNVHAMFVMPAGFGNPMGDMLARLNNSFWLVPVSLEGAGTGWTVYPPLSHSGPSVDLVFHISSSLLGSMNFTNMRGTLFWTSLLLLSLPVLSGTLLDRNFNTFEGGDPLYHLFYKMMLFSMYMMPGFGSHSAYKKFGMYASIGLGFVWSHHMYVGLDDRAYFTSATMIAPTGVKFSWLATYGGRPFLAFMFLFTGGTGVLNASDAFHDTYYVVLAFSLGYFPYNLFTFLFGMPDAGWSSSYQLGPDESNE'
p352
sg123
F0.040719999999999999
sg124
g125
sg33
S'59'
p353
sg127
g1
(g128
g12
(dp354
g130
I4
sg131
g132
sg133
g134
sg135
g132
sg136
I01
sg34
g137
sg138
g134
sg139
I0
sg140
I0
sg141
I0
sg142
g134
sg35
g132
sg143
I0
stRp355
sg145
g146
sg147
F1
sg148
Nsg30
S'MingeA'
p356
sbasg120
g289
sg123
F0.037420000000000002
sg124
g125
sg33
S'62'
p357
sg127
g1
(g128
g12
(dp358
g130
I8
sg131
g132
sg133
g134
sg135
g132
sg136
I01
sg34
g172
sg138
g134
sg139
I0
sg140
I0
sg141
I0
sg142
g134
sg35
g132
sg143
I0
stRp359
sg145
g146
sg147
F0.98999999999999999
sg148
Nsg30
S'NoName'
p360
sbag1
(g2
g3
NtRp361
(dp362
g6
g1
(g7
g3
NtRp363
(dp364
g10
g1
(g11
g12
(dtRp365
sg14
g1
(g11
g12
(dtRp366
sg16
g1
(g11
g12
(dtRp367
sg18
g1
(g11
g12
(dtRp368
sg20
g1
(g11
g12
(dtRp369
sg22
g1
(g11
g12
(dtRp370
sbsg24
g25
sg26
g27
((lp371
g33
ag32
ag29
ag30
atRp372
sg37
(lp373
g1
(g2
g3
NtRp374
(dp375
g6
g1
(g7
g3
NtRp376
(dp377
g10
g1
(g11
g12
(dtRp378
sg14
g1
(g11
g12
(dtRp379
sg16
g1
(g11
g12
(dtRp380
sg18
g1
(g11
g12
(dtRp381
sg20
g1
(g11
g12
(dtRp382
sg22
g1
(g11
g12
(dtRp383
sbsg24
g25
sg26
g27
((lp384
g33
ag32
ag29
ag30
atRp385
sg37
(lp386
g1
(g2
g3
NtRp387
(dp388
g6
g1
(g7
g3
NtRp389
(dp390
g10
g1
(g11
g12
(dtRp391
sg14
g1
(g11
g12
(dtRp392
sg16
g1
(g11
g12
(dtRp393
sg18
g1
(g11
g12
(dtRp394
sg20
g1
(g11
g12
(dtRp395
sg22
g1
(g11
g12
(dtRp396
sbsg24
S'Mte'
p397
sg26
g27
((lp398
g29
ag30
aS'sequence'
p399
ag32
ag33
aS'species'
p400
atRp401
sg37
(lp402
sg120
g374
sg121
S'RWLSTKDLYSRLELPTLNQNVHAMFVMPAGFGNPMGDMLARLNNSFWLVPLSLEGAGTGWTVYPPLSHSGPSVDMVFHISSSLLGAINFTNMRGTLFWTALLLLSLPVLSGTLLDRNFNTFEGGDPLYHLFWFFGHPEVYIIPGFGSHSAYKKFGMYASIGLGFVWSHHMYVGLDDRAYFTSATMIAPTGVKFSWLATYGGRPFLAFIFLFTGGTGVLNASDAFHDTYYVVLAFSLGYFPYNLFYFMAGMPDAGWSSSYQLGPDESNE'
p403
sg123
F0.042599999999999999
sg124
g125
sg33
S'108'
p404
sg127
g1
(g128
g12
(dp405
g130
I4
sg131
g132
sg133
g134
sg135
g132
sg136
I01
sg34
g137
sg138
g134
sg139
I0
sg140
I0
sg141
I0
sg142
g134
sg35
g132
sg143
I0
stRp406
sg145
g146
sg147
F1
sg148
Nsg30
S'MtetrA'
p407
sbag1
(g2
g3
NtRp408
(dp409
g6
g1
(g7
g3
NtRp410
(dp411
g10
g1
(g11
g12
(dtRp412
sg14
g1
(g11
g12
(dtRp413
sg16
g1
(g11
g12
(dtRp414
sg18
g1
(g11
g12
(dtRp415
sg20
g1
(g11
g12
(dtRp416
sg22
g1
(g11
g12
(dtRp417
sbsg24
g25
sg26
g27
((lp418
g33
ag32
ag29
ag30
atRp419
sg37
(lp420
g1
(g2
g3
NtRp421
(dp422
g6
g1
(g7
g3
NtRp423
(dp424
g10
g1
(g11
g12
(dtRp425
sg14
g1
(g11
g12
(dtRp426
sg16
g1
(g11
g12
(dtRp427
sg18
g1
(g11
g12
(dtRp428
sg20
g1
(g11
g12
(dtRp429
sg22
g1
(g11
g12
(dtRp430
sbsg24
S'Mma'
p431
sg26
g27
((lp432
g29
ag30
aS'sequence'
p433
ag32
ag33
aS'species'
p434
atRp435
sg37
(lp436
sg120
g408
sg121
S'RWLSTKDLYSRLELPTLNQNVHAMFVMPAGFGNPMGDMLARLNNSFWLVPLSLEGPGTGWTVYPPLSHSGPSVDMVFHISSSLLGAINFTNMRGTLFWTALLLLSLPVLSGTLLDRNFNTFEGGDPLYHLFWFFGHPEVYIIPGFGSHSAYKKFGMYASIGLGFVWSHHMYVGLDDRAYFTSATMIAPTGVKFSWLATYGGRPFLAFIFLFTGGTGVLNASDAFHDSYYVVLAFSLGYFPYNLFFFMAGMPDAGWSSSYQLGPDESNE'
p437
sg123
F0.00055000000000000003
sg124
g125
sg33
S'106'
p438
sg127
g1
(g128
g12
(dp439
g130
I4
sg131
g132
sg133
g134
sg135
g132
sg136
I01
sg34
g137
sg138
g134
sg139
I0
sg140
I0
sg141
I0
sg142
g134
sg35
g132
sg143
I0
stRp440
sg145
g146
sg147
F1
sg148
Nsg30
S'MmagnB'
p441
sbag1
(g2
g3
NtRp442
(dp443
g6
g1
(g7
g3
NtRp444
(dp445
g10
g1
(g11
g12
(dtRp446
sg14
g1
(g11
g12
(dtRp447
sg16
g1
(g11
g12
(dtRp448
sg18
g1
(g11
g12
(dtRp449
sg20
g1
(g11
g12
(dtRp450
sg22
g1
(g11
g12
(dtRp451
sbsg24
S'Mma'
p452
sg26
g27
((lp453
g29
ag30
aS'sequence'
p454
ag32
ag33
aS'species'
p455
atRp456
sg37
(lp457
sg120
g408
sg121
S'RWLSTKDLYSRLELPTLNQNVHAMFVMPAGFGNPMGDMLARLNNSFWLVPLSLEGPGTGWTVYPPLSHSGPSVDMVFHISSSLLGAINFTNMRGTLFWTALLLLSLPVLSGTLLDRNFNTFEGGDPLYHLFWFFGHPEVYIIPGFGSHSAYKKFGMYASIGLGFVWSHHMYVGLDDRAYFTSATMIAPTGVKFSWLATYGGRPFLAFIFLFTGGTGVLNASDAFHDSYYVVLAFSLGYFPYNLFFFMAGMPDAGWSSSYQLGPDESNE'
p458
sg123
F0.00088000000000000003
sg124
g125
sg33
S'1'
sg127
g1
(g128
g12
(dp459
g130
I4
sg131
g132
sg133
g134
sg135
g132
sg136
I01
sg34
g137
sg138
g134
sg139
I0
sg140
I0
sg141
I0
sg142
g134
sg35
g132
sg143
I0
stRp460
sg145
g146
sg147
F1
sg148
Nsg30
S'MmagnA'
p461
sbasg120
g374
sg123
F0.011140000000000001
sg124
g125
sg33
S'0'
sg127
g1
(g128
g12
(dp462
g130
I8
sg131
g132
sg133
g134
sg135
g132
sg136
I01
sg34
g172
sg138
g134
sg139
I0
sg140
I0
sg141
I0
sg142
g134
sg35
g132
sg143
I0
stRp463
sg145
g146
sg147
F0.98999999999999999
sg148
Nsg30
S'NoName'
p464
sbasg120
g361
sg123
F0.11189
sg124
g125
sg33
S'109'
p465
sg127
g1
(g128
g12
(dp466
g130
I8
sg131
g132
sg133
g134
sg135
g132
sg136
I01
sg34
g172
sg138
g134
sg139
I0
sg140
I0
sg141
I0
sg142
g134
sg35
g132
sg143
I0
stRp467
sg145
g146
sg147
F0.98999999999999999
sg148
Nsg30
S'NoName'
p468
sbag1
(g2
g3
NtRp469
(dp470
g6
g1
(g7
g3
NtRp471
(dp472
g10
g1
(g11
g12
(dtRp473
sg14
g1
(g11
g12
(dtRp474
sg16
g1
(g11
g12
(dtRp475
sg18
g1
(g11
g12
(dtRp476
sg20
g1
(g11
g12
(dtRp477
sg22
g1
(g11
g12
(dtRp478
sbsg24
g25
sg26
g27
((lp479
g33
ag32
ag29
ag30
atRp480
sg37
(lp481
g1
(g2
g3
NtRp482
(dp483
g6
g1
(g7
g3
NtRp484
(dp485
g10
g1
(g11
g12
(dtRp486
sg14
g1
(g11
g12
(dtRp487
sg16
g1
(g11
g12
(dtRp488
sg18
g1
(g11
g12
(dtRp489
sg20
g1
(g11
g12
(dtRp490
sg22
g1
(g11
g12
(dtRp491
sbsg24
S'Scl'
p492
sg26
g27
((lp493
g29
ag30
aS'sequence'
p494
ag32
ag33
aS'species'
p495
atRp496
sg37
(lp497
sg120
g469
sg121
S'RWLSTKDLYSRLELPTLNQNVHAMFVMPAGFGNPMGDMLARLNNSFWLVPLSLEGPGTGWTVYPPLSHSGPSVDMVFHMSSSLLGAINFTNMRGTLFWTALLLLSLPVLAGTLLDRNFNTFEGGDPLYHLFWFFGHPEVYMIPGFGSHSTYKKFGMYASMGLGFVWSHHMYVGLDDRAYFTAATMIAPTGVKFSWLATYGGRPFLTFMFLFTGGTGVLNASDAFHDTYYVVLAFSLGYFPYNLFMFLFGMPDAGWSSSYQLGPDESNE'
p498
sg123
F0.020899999999999998
sg124
g125
sg33
S'30'
p499
sg127
g1
(g128
g12
(dp500
g130
I4
sg131
g132
sg133
g134
sg135
g132
sg136
I01
sg34
g137
sg138
g134
sg139
I0
sg140
I0
sg141
I0
sg142
g134
sg35
g132
sg143
I0
stRp501
sg145
g146
sg147
F1
sg148
Nsg30
S'SclavA'
p502
sbag1
(g2
g3
NtRp503
(dp504
g6
g1
(g7
g3
NtRp505
(dp506
g10
g1
(g11
g12
(dtRp507
sg14
g1
(g11
g12
(dtRp508
sg16
g1
(g11
g12
(dtRp509
sg18
g1
(g11
g12
(dtRp510
sg20
g1
(g11
g12
(dtRp511
sg22
g1
(g11
g12
(dtRp512
sbsg24
S'Msp'
p513
sg26
g27
((lp514
g29
ag30
aS'sequence'
p515
ag32
ag33
aS'species'
p516
atRp517
sg37
(lp518
sg120
g469
sg121
S'RWLSTKDLYSRLELPTLNQNVHAMFVMPAGFGNPMGDMLARLNNSFWLVPLSLEGPGTGWTVYPPLSHSGPSVDMVFHMSSSLLGAMNFTNMRGTLFWTALLLLSLPVLAGTLLDRNFNTFEGGDPLYHLFWFFGHPEVYMIPGFGSHSTYKKFGMYASMGLGFVWSHHMYVGLDDRAYFTAATMIAPTGVKFSWLATYGGRPFLTFMFLFTGGTGVLNASDAFHDTYYVVLAFSLGYFPYNLFMFLFGMPDAGWSSSYQLGPDESNE'
p519
sg123
F0.13538
sg124
g125
sg33
S'39'
p520
sg127
g1
(g128
g12
(dp521
g130
I4
sg131
g132
sg133
g134
sg135
g132
sg136
I01
sg34
g137
sg138
g134
sg139
I0
sg140
I0
sg141
I0
sg142
g134
sg35
g132
sg143
I0
stRp522
sg145
g146
sg147
F1
sg148
Nsg30
S'MspicA'
p523
sbasg120
g361
sg123
F0.10536
sg124
g125
sg33
S'105'
p524
sg127
g1
(g128
g12
(dp525
g130
I8
sg131
g132
sg133
g134
sg135
g132
sg136
I01
sg34
g172
sg138
g134
sg139
I0
sg140
I0
sg141
I0
sg142
g134
sg35
g132
sg143
I0
stRp526
sg145
g146
sg147
F0.98999999999999999
sg148
Nsg30
S'NoName'
p527
sbasg120
g289
sg123
F0.03209
sg124
g125
sg33
S'56'
p528
sg127
g1
(g128
g12
(dp529
g130
I8
sg131
g132
sg133
g134
sg135
g132
sg136
I01
sg34
g172
sg138
g134
sg139
I0
sg140
I0
sg141
I0
sg142
g134
sg35
g132
sg143
I0
stRp530
sg145
g146
sg147
F0.98999999999999999
sg148
Nsg30
S'NoName'
p531
sbasg120
g276
sg123
F0.32869999999999999
sg124
g125
sg33
S'52'
p532
sg127
g1
(g128
g12
(dp533
g130
I8
sg131
g132
sg133
g134
sg135
g132
sg136
I01
sg34
g172
sg138
g134
sg139
I0
sg140
I0
sg141
I0
sg142
g134
sg35
g132
sg143
I0
stRp534
sg145
g146
sg147
F0.98999999999999999
sg148
Nsg30
S'NoName'
p535
sbag1
(g2
g3
NtRp536
(dp537
g6
g1
(g7
g3
NtRp538
(dp539
g10
g1
(g11
g12
(dtRp540
sg14
g1
(g11
g12
(dtRp541
sg16
g1
(g11
g12
(dtRp542
sg18
g1
(g11
g12
(dtRp543
sg20
g1
(g11
g12
(dtRp544
sg22
g1
(g11
g12
(dtRp545
sbsg24
g25
sg26
g27
((lp546
g33
ag32
ag29
ag30
atRp547
sg37
(lp548
g1
(g2
g3
NtRp549
(dp550
g6
g1
(g7
g3
NtRp551
(dp552
g10
g1
(g11
g12
(dtRp553
sg14
g1
(g11
g12
(dtRp554
sg16
g1
(g11
g12
(dtRp555
sg18
g1
(g11
g12
(dtRp556
sg20
g1
(g11
g12
(dtRp557
sg22
g1
(g11
g12
(dtRp558
sbsg24
g25
sg26
g27
((lp559
g33
ag32
ag29
ag30
atRp560
sg37
(lp561
g1
(g2
g3
NtRp562
(dp563
g6
g1
(g7
g3
NtRp564
(dp565
g10
g1
(g11
g12
(dtRp566
sg14
g1
(g11
g12
(dtRp567
sg16
g1
(g11
g12
(dtRp568
sg18
g1
(g11
g12
(dtRp569
sg20
g1
(g11
g12
(dtRp570
sg22
g1
(g11
g12
(dtRp571
sbsg24
S'Cze'
p572
sg26
g27
((lp573
g29
ag30
aS'sequence'
p574
ag32
ag33
aS'species'
p575
atRp576
sg37
(lp577
sg120
g549
sg121
S'SWLSTQNLYSRIELPNLNQNVHAMFVMPTGLANPQGDTFPRMNNAFVLLPMSLDGPGSGWTLYPPLTHSGSSMDMAFHLSSSIFGAINLTNMRGPLFWTALMMLALPVLAGTLLDRNFNTFVGGDPLYHIFWFFGHPEVYIIPVFGSQQVYKKFGMYASIGLGFVWSHHMFVGLDDRAYFSGASLIAPTGSKFSWLATYGGRPLLAFMVLFTGGTGVMNSSDMFHDTYYVVLVFGVAYFPYNLFWFLFGLPDAGWSSSYQFGPDESNE'
p578
sg123
F1.5682799999999999
sg124
g125
sg33
S'92'
p579
sg127
g1
(g128
g12
(dp580
g130
I4
sg131
g132
sg133
g134
sg135
g132
sg136
I01
sg34
g137
sg138
g134
sg139
I0
sg140
I0
sg141
I0
sg142
g134
sg35
g132
sg143
I0
stRp581
sg145
g146
sg147
F1
sg148
Nsg30
S'CzempA'
p582
sbag1
(g2
g3
NtRp583
(dp584
g6
g1
(g7
g3
NtRp585
(dp586
g10
g1
(g11
g12
(dtRp587
sg14
g1
(g11
g12
(dtRp588
sg16
g1
(g11
g12
(dtRp589
sg18
g1
(g11
g12
(dtRp590
sg20
g1
(g11
g12
(dtRp591
sg22
g1
(g11
g12
(dtRp592
sbsg24
g25
sg26
g27
((lp593
g33
ag32
ag29
ag30
atRp594
sg37
(lp595
g1
(g2
g3
NtRp596
(dp597
g6
g1
(g7
g3
NtRp598
(dp599
g10
g1
(g11
g12
(dtRp600
sg14
g1
(g11
g12
(dtRp601
sg16
g1
(g11
g12
(dtRp602
sg18
g1
(g11
g12
(dtRp603
sg20
g1
(g11
g12
(dtRp604
sg22
g1
(g11
g12
(dtRp605
sbsg24
S'Csa'
p606
sg26
g27
((lp607
g29
ag30
aS'sequence'
p608
ag32
ag33
aS'species'
p609
atRp610
sg37
(lp611
sg120
g583
sg121
S'----------RLELPNLNQNVHAMFVMPSGFGNPMGDMLARLNNSFWLVPLSLDGPGTGWTMYPPLSHSGASVDLVFHISSSLLGAMNFTNMRGTLFWTALLLLSLPVLSGTLLDRNFNTFEGGDMLYHMFWFFGHPEVYMMPGFGSQSVYKKFGMYASMGLGFVWSHHMFVGLDDRAYFTAATLMAPTGVKFSWLASYGGRPLLAFMFLFTGGTGVLNASDAFHDTYYVVLAFSLGYFPYNLFWFQFAMPDAGWSSSYQMGPDFSNE'
p612
sg123
F0.65920000000000001
sg124
g125
sg33
S'98'
p613
sg127
g1
(g128
g12
(dp614
g130
I4
sg131
g132
sg133
g134
sg135
g132
sg136
I01
sg34
g137
sg138
g134
sg139
I0
sg140
I0
sg141
I0
sg142
g134
sg35
g132
sg143
I0
stRp615
sg145
g146
sg147
F1
sg148
Nsg30
S'CsantA'
p616
sbag1
(g2
g3
NtRp617
(dp618
g6
g1
(g7
g3
NtRp619
(dp620
g10
g1
(g11
g12
(dtRp621
sg14
g1
(g11
g12
(dtRp622
sg16
g1
(g11
g12
(dtRp623
sg18
g1
(g11
g12
(dtRp624
sg20
g1
(g11
g12
(dtRp625
sg22
g1
(g11
g12
(dtRp626
sbsg24
S'Csa'
p627
sg26
g27
((lp628
g29
ag30
aS'sequence'
p629
ag32
ag33
aS'species'
p630
atRp631
sg37
(lp632
sg120
g583
sg121
S'RWLSTKDLYSRLELPAMSQNVHAMFVMPSGFANPMGDTLPRVNNAAILMPMSLEGPGTGWTVYPPLSHSGVSVDLVFHISSSLAGAMNLTNMRGPLFWTALLLLSLPVLAGTLIDRNFNTFDGGDVLYHLFWFFGHPEVYIIPGFGSESRYNKFGMYASIGLGFVWSHHMYVGLDDRSYFTAATLIAPTGVKFSWMATFGGRPFLTFLALFTGGTGVLNASDAFHDTYYVVLAFSMGYYPYNLFWFQFGQSDAGWSSSYQLGPDESNE'
p633
sg123
F1.3581099999999999
sg124
g125
sg33
S'183'
p634
sg127
g1
(g128
g12
(dp635
g130
I4
sg131
g132
sg133
g134
sg135
g132
sg136
I01
sg34
g137
sg138
g134
sg139
I0
sg140
I0
sg141
I0
sg142
g134
sg35
g132
sg143
I0
stRp636
sg145
g146
sg147
F1
sg148
Nsg30
S'CsalmA'
p637
sbasg120
g549
sg123
F0.19968
sg124
g125
sg33
S'94'
p638
sg127
g1
(g128
g12
(dp639
g130
I8
sg131
g132
sg133
g134
sg135
g132
sg136
I01
sg34
g172
sg138
g134
sg139
I0
sg140
I0
sg141
I0
sg142
g134
sg35
g132
sg143
I0
stRp640
sg145
g146
sg147
F0.97999999999999998
sg148
Nsg30
S'NoName'
p641
sbasg120
g536
sg123
F0.14363999999999999
sg124
g125
sg33
S'36'
p642
sg127
g1
(g128
g12
(dp643
g130
I8
sg131
g132
sg133
g134
sg135
g132
sg136
I01
sg34
g172
sg138
g134
sg139
I0
sg140
I0
sg141
I0
sg142
g134
sg35
g132
sg143
I0
stRp644
sg145
g146
sg147
F0.93000000000000005
sg148
Nsg30
S'NoName'
p645
sbag1
(g2
g3
NtRp646
(dp647
g6
g1
(g7
g3
NtRp648
(dp649
g10
g1
(g11
g12
(dtRp650
sg14
g1
(g11
g12
(dtRp651
sg16
g1
(g11
g12
(dtRp652
sg18
g1
(g11
g12
(dtRp653
sg20
g1
(g11
g12
(dtRp654
sg22
g1
(g11
g12
(dtRp655
sbsg24
S'Bar'
p656
sg26
g27
((lp657
g29
ag30
aS'sequence'
p658
ag32
ag33
aS'species'
p659
atRp660
sg37
(lp661
sg120
g536
sg121
S'RWLSTKDLYSRLELPNLNQNSHAMFVMPTGFGNPMGDMLSRLNNSFWLVPLSLEGPGTGWTVYPPLSHSGPSVDLVFHVSSSLLGAMNFTNMRGTLFWTVLLLLALPVLAGTLLDRNFNTFEGGDPLYHMFWFFGHPEVYIIPGFGSQAVYNKFGMYASIGLGFVWSHHMYVGMDDRAYFTAATLIAPTGVKFSWLASYGGRPLLTFIGLFTGGTGVLNAADAFHDSYYVVLAFSLGYFPYNLFWFQFSMPDAGWSSSVQLGPDVNNE'
p662
sg123
F0.74575000000000002
sg124
g125
sg33
S'195'
p663
sg127
g1
(g128
g12
(dp664
g130
I4
sg131
g132
sg133
g134
sg135
g132
sg136
I01
sg34
g137
sg138
g134
sg139
I0
sg140
I0
sg141
I0
sg142
g134
sg35
g132
sg143
I0
stRp665
sg145
g146
sg147
F1
sg148
Nsg30
S'BarxA'
p666
sbasg120
g276
sg123
F0.25233
sg124
g125
sg33
S'32'
p667
sg127
g1
(g128
g12
(dp668
g130
I8
sg131
g132
sg133
g134
sg135
g132
sg136
I01
sg34
g172
sg138
g134
sg139
I0
sg140
I0
sg141
I0
sg142
g134
sg35
g132
sg143
I0
stRp669
sg145
g146
sg147
F0.97999999999999998
sg148
Nsg30
S'NoName'
p670
sbasg120
g263
sg123
F0.42224
sg124
g125
sg33
S'58'
p671
sg127
g1
(g128
g12
(dp672
g130
I8
sg131
g132
sg133
g134
sg135
g132
sg136
I01
sg34
g172
sg138
g134
sg139
I0
sg140
I0
sg141
I0
sg142
g134
sg35
g132
sg143
I0
stRp673
sg145
g146
sg147
F0.97999999999999998
sg148
Nsg30
S'NoName'
p674
sbag1
(g2
g3
NtRp675
(dp676
g6
g1
(g7
g3
NtRp677
(dp678
g10
g1
(g11
g12
(dtRp679
sg14
g1
(g11
g12
(dtRp680
sg16
g1
(g11
g12
(dtRp681
sg18
g1
(g11
g12
(dtRp682
sg20
g1
(g11
g12
(dtRp683
sg22
g1
(g11
g12
(dtRp684
sbsg24
g25
sg26
g27
((lp685
g33
ag32
ag29
ag30
atRp686
sg37
(lp687
g1
(g2
g3
NtRp688
(dp689
g6
g1
(g7
g3
NtRp690
(dp691
g10
g1
(g11
g12
(dtRp692
sg14
g1
(g11
g12
(dtRp693
sg16
g1
(g11
g12
(dtRp694
sg18
g1
(g11
g12
(dtRp695
sg20
g1
(g11
g12
(dtRp696
sg22
g1
(g11
g12
(dtRp697
sbsg24
g25
sg26
g27
((lp698
g33
ag32
ag29
ag30
atRp699
sg37
(lp700
g1
(g2
g3
NtRp701
(dp702
g6
g1
(g7
g3
NtRp703
(dp704
g10
g1
(g11
g12
(dtRp705
sg14
g1
(g11
g12
(dtRp706
sg16
g1
(g11
g12
(dtRp707
sg18
g1
(g11
g12
(dtRp708
sg20
g1
(g11
g12
(dtRp709
sg22
g1
(g11
g12
(dtRp710
sbsg24
g25
sg26
g27
((lp711
g33
ag32
ag29
ag30
atRp712
sg37
(lp713
g1
(g2
g3
NtRp714
(dp715
g6
g1
(g7
g3
NtRp716
(dp717
g10
g1
(g11
g12
(dtRp718
sg14
g1
(g11
g12
(dtRp719
sg16
g1
(g11
g12
(dtRp720
sg18
g1
(g11
g12
(dtRp721
sg20
g1
(g11
g12
(dtRp722
sg22
g1
(g11
g12
(dtRp723
sbsg24
g25
sg26
g27
((lp724
g33
ag32
ag29
ag30
atRp725
sg37
(lp726
g1
(g2
g3
NtRp727
(dp728
g6
g1
(g7
g3
NtRp729
(dp730
g10
g1
(g11
g12
(dtRp731
sg14
g1
(g11
g12
(dtRp732
sg16
g1
(g11
g12
(dtRp733
sg18
g1
(g11
g12
(dtRp734
sg20
g1
(g11
g12
(dtRp735
sg22
g1
(g11
g12
(dtRp736
sbsg24
S'Mfa'
p737
sg26
g27
((lp738
g29
ag30
aS'sequence'
p739
ag32
ag33
aS'species'
p740
atRp741
sg37
(lp742
sg120
g714
sg121
S'RWLSTKDLYSRLELGNLNQNVHAMFVMPLGFGNPLGDMFARLNNSFWLPPLSLEGAGTGWTVYPPLSHSGPSVDLAFHLTSSLLGAINFTNMRGPLFWTALLLLSLPVLAGTLLDRNFNTFEGGDPLYHLFWFFGHPEVYIIPGFGSHSTYKKFGMYASIGLGFVWSHHMYVGLDDRAYFTSATMIAPTGIKFSWLATYGGRPMLAFLFLFTGGTGVLNASDAFHDTYFVVMAFSLAYYPYNLFWFMFGMPDAGWSSSYQMGPDESNE'
p743
sg123
F0.14163999999999999
sg124
g125
sg33
S'202'
p744
sg127
g1
(g128
g12
(dp745
g130
I4
sg131
g132
sg133
g134
sg135
g132
sg136
I01
sg34
g137
sg138
g134
sg139
I0
sg140
I0
sg141
I0
sg142
g134
sg35
g132
sg143
I0
stRp746
sg145
g146
sg147
F1
sg148
Nsg30
S'MfariB'
p747
sbag1
(g2
g3
NtRp748
(dp749
g6
g1
(g7
g3
NtRp750
(dp751
g10
g1
(g11
g12
(dtRp752
sg14
g1
(g11
g12
(dtRp753
sg16
g1
(g11
g12
(dtRp754
sg18
g1
(g11
g12
(dtRp755
sg20
g1
(g11
g12
(dtRp756
sg22
g1
(g11
g12
(dtRp757
sbsg24
S'Csa'
p758
sg26
g27
((lp759
g29
ag30
aS'sequence'
p760
ag32
ag33
aS'species'
p761
atRp762
sg37
(lp763
sg120
g714
sg121
S'RWLSTKDLYSRLELGNFNQNVHAMFVMPLGFGNPLGDMFARLNNSFWLPPLSLEGAGTGWTVYPPLSHSGPSVDLAFHLTSSLLGAINFTNMRGPLFWTALLLLSLPVLAATLLDRNFNTFEGGDPLYHLFWFFGHPEVYIIPGFGSHSTYKKFGMYASMGLGFVWSHHMYVGLDDRAYFTSATMIAPTGMKFSWLATYGGRPMLAFLFLFTGGTGVLNASDAFHDTYYVVMAFSLAYYPYNWFWFMFGMPDAGWSSSYQMGPDESNE'
p764
sg123
F0.069970000000000004
sg124
g125
sg33
S'196'
p765
sg127
g1
(g128
g12
(dp766
g130
I4
sg131
g132
sg133
g134
sg135
g132
sg136
I01
sg34
g137
sg138
g134
sg139
I0
sg140
I0
sg141
I0
sg142
g134
sg35
g132
sg143
I0
stRp767
sg145
g146
sg147
F1
sg148
Nsg30
S'CsakeA'
p768
sbasg120
g701
sg123
F0.048980000000000003
sg124
g125
sg33
S'188'
p769
sg127
g1
(g128
g12
(dp770
g130
I8
sg131
g132
sg133
g134
sg135
g132
sg136
I01
sg34
g172
sg138
g134
sg139
I0
sg140
I0
sg141
I0
sg142
g134
sg35
g132
sg143
I0
stRp771
sg145
g146
sg147
F0.98999999999999999
sg148
Nsg30
S'NoName'
p772
sbag1
(g2
g3
NtRp773
(dp774
g6
g1
(g7
g3
NtRp775
(dp776
g10
g1
(g11
g12
(dtRp777
sg14
g1
(g11
g12
(dtRp778
sg16
g1
(g11
g12
(dtRp779
sg18
g1
(g11
g12
(dtRp780
sg20
g1
(g11
g12
(dtRp781
sg22
g1
(g11
g12
(dtRp782
sbsg24
g25
sg26
g27
((lp783
g33
ag32
ag29
ag30
atRp784
sg37
(lp785
g1
(g2
g3
NtRp786
(dp787
g6
g1
(g7
g3
NtRp788
(dp789
g10
g1
(g11
g12
(dtRp790
sg14
g1
(g11
g12
(dtRp791
sg16
g1
(g11
g12
(dtRp792
sg18
g1
(g11
g12
(dtRp793
sg20
g1
(g11
g12
(dtRp794
sg22
g1
(g11
g12
(dtRp795
sbsg24
g25
sg26
g27
((lp796
g33
ag32
ag29
ag30
atRp797
sg37
(lp798
g1
(g2
g3
NtRp799
(dp800
g6
g1
(g7
g3
NtRp801
(dp802
g10
g1
(g11
g12
(dtRp803
sg14
g1
(g11
g12
(dtRp804
sg16
g1
(g11
g12
(dtRp805
sg18
g1
(g11
g12
(dtRp806
sg20
g1
(g11
g12
(dtRp807
sg22
g1
(g11
g12
(dtRp808
sbsg24
S'Mfa'
p809
sg26
g27
((lp810
g29
ag30
aS'sequence'
p811
ag32
ag33
aS'species'
p812
atRp813
sg37
(lp814
sg120
g786
sg121
S'RWLSTKDLYSRAELGNFNHNVHAMFVMPLGFGNPMGDMFARLNNSFWLPPLSLEGAGTGWTVYPPLSHSGPSVDLAFHLTSSLLGAMNFTNMRGPLFWTALLLLSLPVLAGTLLDRNFNTFEGGDPLYHLFWFFGHPEVYIIPGFGSHSTYKKFGMYASMGLGFVWSHHMYVGLDDRAYFTSATMMAPTGIKFSWLATYGGRPMLAFLFLFTGGTGVLNASDAFHDTYYMYMAFSLGYYPYNWFWFMFGMPDAGWSSSKQLGPDESNE'
p815
sg123
F0.29086000000000001
sg124
g125
sg33
S'116'
p816
sg127
g1
(g128
g12
(dp817
g130
I4
sg131
g132
sg133
g134
sg135
g132
sg136
I01
sg34
g137
sg138
g134
sg139
I0
sg140
I0
sg141
I0
sg142
g134
sg35
g132
sg143
I0
stRp818
sg145
g146
sg147
F1
sg148
Nsg30
S'MfariA'
p819
sbag1
(g2
g3
NtRp820
(dp821
g6
g1
(g7
g3
NtRp822
(dp823
g10
g1
(g11
g12
(dtRp824
sg14
g1
(g11
g12
(dtRp825
sg16
g1
(g11
g12
(dtRp826
sg18
g1
(g11
g12
(dtRp827
sg20
g1
(g11
g12
(dtRp828
sg22
g1
(g11
g12
(dtRp829
sbsg24
S'Dha'
p830
sg26
g27
((lp831
g29
ag30
aS'sequence'
p832
ag32
ag33
aS'species'
p833
atRp834
sg37
(lp835
sg120
g786
sg121
S'RWLSTKDLYSRMELGNFNQNVHAMFIMPWGFGNPLGDMFARLNNSFWLPPLSLEGAGTGWTLYPPLSHSGPSVDLAFHLTSSLLGAMNFTNMRGPLFWTALLLLSLPVLAATLLDRNFNTFEGGDPLYHLFWFFGHPEVYIMPGFGSHSTYKKFGMYASIGLGFVWSHHMFVGLDDRAYFTSATMIAPTGIKFSWLATYGGRPMLAFLFLFTGGTGVLNASDAFHDTYYVVMAFSLAYYPYNLFWFMFGMPDAGWSSSKQLGPDESND'
p836
sg123
F0.11043
sg124
g125
sg33
S'113'
p837
sg127
g1
(g128
g12
(dp838
g130
I4
sg131
g132
sg133
g134
sg135
g132
sg136
I01
sg34
g137
sg138
g134
sg139
I0
sg140
I0
sg141
I0
sg142
g134
sg35
g132
sg143
I0
stRp839
sg145
g146
sg147
F1
sg148
Nsg30
S'DhansA'
p840
sbasg120
g773
sg123
F0.046699999999999998
sg124
g125
sg33
S'198'
p841
sg127
g1
(g128
g12
(dp842
g130
I8
sg131
g132
sg133
g134
sg135
g132
sg136
I01
sg34
g172
sg138
g134
sg139
I0
sg140
I0
sg141
I0
sg142
g134
sg35
g132
sg143
I0
stRp843
sg145
g146
sg147
F0.65000000000000002
sg148
Nsg30
S'NoName'
p844
sbag1
(g2
g3
NtRp845
(dp846
g6
g1
(g7
g3
NtRp847
(dp848
g10
g1
(g11
g12
(dtRp849
sg14
g1
(g11
g12
(dtRp850
sg16
g1
(g11
g12
(dtRp851
sg18
g1
(g11
g12
(dtRp852
sg20
g1
(g11
g12
(dtRp853
sg22
g1
(g11
g12
(dtRp854
sbsg24
g25
sg26
g27
((lp855
g33
ag32
ag29
ag30
atRp856
sg37
(lp857
g1
(g2
g3
NtRp858
(dp859
g6
g1
(g7
g3
NtRp860
(dp861
g10
g1
(g11
g12
(dtRp862
sg14
g1
(g11
g12
(dtRp863
sg16
g1
(g11
g12
(dtRp864
sg18
g1
(g11
g12
(dtRp865
sg20
g1
(g11
g12
(dtRp866
sg22
g1
(g11
g12
(dtRp867
sbsg24
S'Clu'
p868
sg26
g27
((lp869
g29
ag30
aS'sequence'
p870
ag32
ag33
aS'species'
p871
atRp872
sg37
(lp873
sg120
g845
sg121
S'RWLSTKDLYSRLELPDLNQNVHAMFVMPLGFGNPMGDMFARLNNSFWLPPLSLEGAGTGWTVYPPLSHSGPSVDLAFHLTSSLLGAINFTNMRGPLFWTALLLLSLPVLAGTLLDRNFNTFEGGDPLYHLFWFFGHPEVYMMPGFGSHSTYKKFGMYASMGLGFVWSHHMYVGLDDRAYFTSATMMAPTGMKFSWLATYGGRPMLAFLFLFTGGTGVLNASDAFHDTYYVVMAFSLGYYPYNWFWFMFGMPDAGWSSSRQLGPDESNE'
p874
sg123
F0.037310000000000003
sg124
g125
sg33
S'114'
p875
sg127
g1
(g128
g12
(dp876
g130
I4
sg131
g132
sg133
g134
sg135
g132
sg136
I01
sg34
g137
sg138
g134
sg139
I0
sg140
I0
sg141
I0
sg142
g134
sg35
g132
sg143
I0
stRp877
sg145
g146
sg147
F1
sg148
Nsg30
S'ClusiA'
p878
sbag1
(g2
g3
NtRp879
(dp880
g6
g1
(g7
g3
NtRp881
(dp882
g10
g1
(g11
g12
(dtRp883
sg14
g1
(g11
g12
(dtRp884
sg16
g1
(g11
g12
(dtRp885
sg18
g1
(g11
g12
(dtRp886
sg20
g1
(g11
g12
(dtRp887
sg22
g1
(g11
g12
(dtRp888
sbsg24
g25
sg26
g27
((lp889
g33
ag32
ag29
ag30
atRp890
sg37
(lp891
g1
(g2
g3
NtRp892
(dp893
g6
g1
(g7
g3
NtRp894
(dp895
g10
g1
(g11
g12
(dtRp896
sg14
g1
(g11
g12
(dtRp897
sg16
g1
(g11
g12
(dtRp898
sg18
g1
(g11
g12
(dtRp899
sg20
g1
(g11
g12
(dtRp900
sg22
g1
(g11
g12
(dtRp901
sbsg24
S'Mgu'
p902
sg26
g27
((lp903
g29
ag30
aS'sequence'
p904
ag32
ag33
aS'species'
p905
atRp906
sg37
(lp907
sg120
g879
sg121
S'---------------------------------------------------------------------------------------------------------------------------------------------------------------------------------------------------------------------------------------MAFSLGYYPYNWFWFMFGMPDAGWSSSKQLGPDESNE'
p908
sg123
F0.0044999999999999997
sg124
g125
sg33
S'119'
p909
sg127
g1
(g128
g12
(dp910
g130
I4
sg131
g132
sg133
g134
sg135
g132
sg136
I01
sg34
g137
sg138
g134
sg139
I0
sg140
I0
sg141
I0
sg142
g134
sg35
g132
sg143
I0
stRp911
sg145
g146
sg147
F1
sg148
Nsg30
S'MguilB'
p912
sbag1
(g2
g3
NtRp913
(dp914
g6
g1
(g7
g3
NtRp915
(dp916
g10
g1
(g11
g12
(dtRp917
sg14
g1
(g11
g12
(dtRp918
sg16
g1
(g11
g12
(dtRp919
sg18
g1
(g11
g12
(dtRp920
sg20
g1
(g11
g12
(dtRp921
sg22
g1
(g11
g12
(dtRp922
sbsg24
S'Mgu'
p923
sg26
g27
((lp924
g29
ag30
aS'sequence'
p925
ag32
ag33
aS'species'
p926
atRp927
sg37
(lp928
sg120
g879
sg121
S'RWLSTKDLYSRMELGNFNQNVHAMFVMPIGFGNPMGDMFARLNNSFWLPPLSLEGAGTGWTVYPPLSHSGPSVDMAFHLTSSLLGAMNFTNMRGPLFWTALLLLSLPVLAGTLLDRNFNTFEGGDPLYHLFWFFGHPEVYMMPGFGSHSTYKKFGMYASIGLGFVWSHHMYVGLDDRAYFTSATMMAPTGMKFSWLSTYGGRPMLAFLFLFTGGTGVLNASDAFHDTYYVVMAFSLGYYPYNWFWFMFGMPDAGWSSSKQLGPDESNE'
p929
sg123
F0.0020100000000000001
sg124
g125
sg33
S'121'
p930
sg127
g1
(g128
g12
(dp931
g130
I4
sg131
g132
sg133
g134
sg135
g132
sg136
I01
sg34
g137
sg138
g134
sg139
I0
sg140
I0
sg141
I0
sg142
g134
sg35
g132
sg143
I0
stRp932
sg145
g146
sg147
F1
sg148
Nsg30
S'MguilA'
p933
sbasg120
g845
sg123
F0.25231999999999999
sg124
g125
sg33
S'111'
p934
sg127
g1
(g128
g12
(dp935
g130
I8
sg131
g132
sg133
g134
sg135
g132
sg136
I01
sg34
g172
sg138
g134
sg139
I0
sg140
I0
sg141
I0
sg142
g134
sg35
g132
sg143
I0
stRp936
sg145
g146
sg147
F0.98999999999999999
sg148
Nsg30
S'NoName'
p937
sbasg120
g773
sg123
F0.090679999999999997
sg124
g125
sg33
S'200'
p938
sg127
g1
(g128
g12
(dp939
g130
I8
sg131
g132
sg133
g134
sg135
g132
sg136
I01
sg34
g172
sg138
g134
sg139
I0
sg140
I0
sg141
I0
sg142
g134
sg35
g132
sg143
I0
stRp940
sg145
g146
sg147
F0.98999999999999999
sg148
Nsg30
S'NoName'
p941
sbasg120
g701
sg123
F0.032190000000000003
sg124
g125
sg33
S'192'
p942
sg127
g1
(g128
g12
(dp943
g130
I8
sg131
g132
sg133
g134
sg135
g132
sg136
I01
sg34
g172
sg138
g134
sg139
I0
sg140
I0
sg141
I0
sg142
g134
sg35
g132
sg143
I0
stRp944
sg145
g146
sg147
F0.64000000000000001
sg148
Nsg30
S'NoName'
p945
sbasg120
g688
sg123
F0.12181
sg124
g125
sg33
S'187'
p946
sg127
g1
(g128
g12
(dp947
g130
I8
sg131
g132
sg133
g134
sg135
g132
sg136
I01
sg34
g172
sg138
g134
sg139
I0
sg140
I0
sg141
I0
sg142
g134
sg35
g132
sg143
I0
stRp948
sg145
g146
sg147
F0.98999999999999999
sg148
Nsg30
S'NoName'
p949
sbag1
(g2
g3
NtRp950
(dp951
g6
g1
(g7
g3
NtRp952
(dp953
g10
g1
(g11
g12
(dtRp954
sg14
g1
(g11
g12
(dtRp955
sg16
g1
(g11
g12
(dtRp956
sg18
g1
(g11
g12
(dtRp957
sg20
g1
(g11
g12
(dtRp958
sg22
g1
(g11
g12
(dtRp959
sbsg24
g25
sg26
g27
((lp960
g33
ag32
ag29
ag30
atRp961
sg37
(lp962
g1
(g2
g3
NtRp963
(dp964
g6
g1
(g7
g3
NtRp965
(dp966
g10
g1
(g11
g12
(dtRp967
sg14
g1
(g11
g12
(dtRp968
sg16
g1
(g11
g12
(dtRp969
sg18
g1
(g11
g12
(dtRp970
sg20
g1
(g11
g12
(dtRp971
sg22
g1
(g11
g12
(dtRp972
sbsg24
g25
sg26
g27
((lp973
g33
ag32
ag29
ag30
atRp974
sg37
(lp975
g1
(g2
g3
NtRp976
(dp977
g6
g1
(g7
g3
NtRp978
(dp979
g10
g1
(g11
g12
(dtRp980
sg14
g1
(g11
g12
(dtRp981
sg16
g1
(g11
g12
(dtRp982
sg18
g1
(g11
g12
(dtRp983
sg20
g1
(g11
g12
(dtRp984
sg22
g1
(g11
g12
(dtRp985
sbsg24
S'Cbl'
p986
sg26
g27
((lp987
g29
ag30
aS'sequence'
p988
ag32
ag33
aS'species'
p989
atRp990
sg37
(lp991
sg120
g963
sg121
S'RWLSTKDLYSRLELANLNQNVHAMFVMPLGMGNPMGDMFARLNNSFWLPPLSLEGPGTGWTLYAPLSHSGPSVDMAFHLTSSLLGAINFTNMRGPLYWTALLLLSLPVLAATLLDRNFNTFEGGDPLYHLFWFFGHPEVYMIPGFGSHSTYKKFGMYASIGLGFVWSHHMYVGLDDRAYFTSATMIAPTGIKFSWMATYGGRPMLAFLFLFTGGTGVLNASDAFHDTYYVVMAFSLGYYPYNLFWFMFGMPDAGWSSSYQLGPDESNE'
p992
sg123
F0.36785000000000001
sg124
g125
sg33
S'215'
p993
sg127
g1
(g128
g12
(dp994
g130
I4
sg131
g132
sg133
g134
sg135
g132
sg136
I01
sg34
g137
sg138
g134
sg139
I0
sg140
I0
sg141
I0
sg142
g134
sg35
g132
sg143
I0
stRp995
sg145
g146
sg147
F1
sg148
Nsg30
S'CblacA'
p996
sbag1
(g2
g3
NtRp997
(dp998
g6
g1
(g7
g3
NtRp999
(dp1000
g10
g1
(g11
g12
(dtRp1001
sg14
g1
(g11
g12
(dtRp1002
sg16
g1
(g11
g12
(dtRp1003
sg18
g1
(g11
g12
(dtRp1004
sg20
g1
(g11
g12
(dtRp1005
sg22
g1
(g11
g12
(dtRp1006
sbsg24
g25
sg26
g27
((lp1007
g33
ag32
ag29
ag30
atRp1008
sg37
(lp1009
g1
(g2
g3
NtRp1010
(dp1011
g6
g1
(g7
g3
NtRp1012
(dp1013
g10
g1
(g11
g12
(dtRp1014
sg14
g1
(g11
g12
(dtRp1015
sg16
g1
(g11
g12
(dtRp1016
sg18
g1
(g11
g12
(dtRp1017
sg20
g1
(g11
g12
(dtRp1018
sg22
g1
(g11
g12
(dtRp1019
sbsg24
g25
sg26
g27
((lp1020
g33
ag32
ag29
ag30
atRp1021
sg37
(lp1022
g1
(g2
g3
NtRp1023
(dp1024
g6
g1
(g7
g3
NtRp1025
(dp1026
g10
g1
(g11
g12
(dtRp1027
sg14
g1
(g11
g12
(dtRp1028
sg16
g1
(g11
g12
(dtRp1029
sg18
g1
(g11
g12
(dtRp1030
sg20
g1
(g11
g12
(dtRp1031
sg22
g1
(g11
g12
(dtRp1032
sbsg24
g25
sg26
g27
((lp1033
g33
ag32
ag29
ag30
atRp1034
sg37
(lp1035
g1
(g2
g3
NtRp1036
(dp1037
g6
g1
(g7
g3
NtRp1038
(dp1039
g10
g1
(g11
g12
(dtRp1040
sg14
g1
(g11
g12
(dtRp1041
sg16
g1
(g11
g12
(dtRp1042
sg18
g1
(g11
g12
(dtRp1043
sg20
g1
(g11
g12
(dtRp1044
sg22
g1
(g11
g12
(dtRp1045
sbsg24
g25
sg26
g27
((lp1046
g33
ag32
ag29
ag30
atRp1047
sg37
(lp1048
g1
(g2
g3
NtRp1049
(dp1050
g6
g1
(g7
g3
NtRp1051
(dp1052
g10
g1
(g11
g12
(dtRp1053
sg14
g1
(g11
g12
(dtRp1054
sg16
g1
(g11
g12
(dtRp1055
sg18
g1
(g11
g12
(dtRp1056
sg20
g1
(g11
g12
(dtRp1057
sg22
g1
(g11
g12
(dtRp1058
sbsg24
S'Lel'
p1059
sg26
g27
((lp1060
g29
ag30
aS'sequence'
p1061
ag32
ag33
aS'species'
p1062
atRp1063
sg37
(lp1064
sg120
g1036
sg121
S'RWLSTKDLYSRLELPGLDQNVHAMFVMPLGFGNPMGDMFARLNNSFWLPPLSLEGAGTGWTVYPPLSHSGPSVDLAFHLTSSLLGAINFTNMRGPLYWTALLLFSLPVLAGTLLDRNFNTFDGGDPLYHLFWFFGHPEVYIIPGFGSHSTYKKFGMYASIGLGFVWSHHMYVGLDDRAYFTSATMIAPTGIKFSWLATYGGRPMLAFLFLFTGGTGVLNASDAFHDTYYTVMAFSLGYYYYNLFWFMFGMPDAGWSSSYQLGPDESNE'
p1065
sg123
F0.18278
sg124
g125
sg33
S'222'
p1066
sg127
g1
(g128
g12
(dp1067
g130
I4
sg131
g132
sg133
g134
sg135
g132
sg136
I01
sg34
g137
sg138
g134
sg139
I0
sg140
I0
sg141
I0
sg142
g134
sg35
g132
sg143
I0
stRp1068
sg145
g146
sg147
F1
sg148
Nsg30
S'LelonA'
p1069
sbag1
(g2
g3
NtRp1070
(dp1071
g6
g1
(g7
g3
NtRp1072
(dp1073
g10
g1
(g11
g12
(dtRp1074
sg14
g1
(g11
g12
(dtRp1075
sg16
g1
(g11
g12
(dtRp1076
sg18
g1
(g11
g12
(dtRp1077
sg20
g1
(g11
g12
(dtRp1078
sg22
g1
(g11
g12
(dtRp1079
sbsg24
S'Cox'
p1080
sg26
g27
((lp1081
g29
ag30
aS'sequence'
p1082
ag32
ag33
aS'species'
p1083
atRp1084
sg37
(lp1085
sg120
g1036
sg121
S'RWLSTKDLYSRLELSGLDQNVHAMFVMPIGFGNPMGDMFARLNNSFWLPPLSLEGPGVGWTVYPPLSHSGPSVDLAFHLTSSLLGAINFTNMRGPLYWTALLLLSLPVLAGTLLDRNFNTFDGGDPLYHLFWFFGHPEVYMIPGFGSHATYKKFGMYASIGLGFVWSHHMYVGLDDRAYFTSATMIAPTGIKFSWLATYGGRPMLAFLFLFTGGTGILNASDAFHDTYYTVMAFSLGYLYYNIFWFMFGMPDAGWSSSYQLGPDESNE'
p1086
sg123
F0.17860000000000001
sg124
g125
sg33
S'218'
p1087
sg127
g1
(g128
g12
(dp1088
g130
I4
sg131
g132
sg133
g134
sg135
g132
sg136
I01
sg34
g137
sg138
g134
sg139
I0
sg140
I0
sg141
I0
sg142
g134
sg35
g132
sg143
I0
stRp1089
sg145
g146
sg147
F1
sg148
Nsg30
S'CoxycA'
p1090
sbasg120
g1023
sg123
F0.041480000000000003
sg124
g125
sg33
S'210'
p1091
sg127
g1
(g128
g12
(dp1092
g130
I8
sg131
g132
sg133
g134
sg135
g132
sg136
I01
sg34
g172
sg138
g134
sg139
I0
sg140
I0
sg141
I0
sg142
g134
sg35
g132
sg143
I0
stRp1093
sg145
g146
sg147
F0.98999999999999999
sg148
Nsg30
S'NoName'
p1094
sbag1
(g2
g3
NtRp1095
(dp1096
g6
g1
(g7
g3
NtRp1097
(dp1098
g10
g1
(g11
g12
(dtRp1099
sg14
g1
(g11
g12
(dtRp1100
sg16
g1
(g11
g12
(dtRp1101
sg18
g1
(g11
g12
(dtRp1102
sg20
g1
(g11
g12
(dtRp1103
sg22
g1
(g11
g12
(dtRp1104
sbsg24
g25
sg26
g27
((lp1105
g33
ag32
ag29
ag30
atRp1106
sg37
(lp1107
g1
(g2
g3
NtRp1108
(dp1109
g6
g1
(g7
g3
NtRp1110
(dp1111
g10
g1
(g11
g12
(dtRp1112
sg14
g1
(g11
g12
(dtRp1113
sg16
g1
(g11
g12
(dtRp1114
sg18
g1
(g11
g12
(dtRp1115
sg20
g1
(g11
g12
(dtRp1116
sg22
g1
(g11
g12
(dtRp1117
sbsg24
g25
sg26
g27
((lp1118
g33
ag32
ag29
ag30
atRp1119
sg37
(lp1120
g1
(g2
g3
NtRp1121
(dp1122
g6
g1
(g7
g3
NtRp1123
(dp1124
g10
g1
(g11
g12
(dtRp1125
sg14
g1
(g11
g12
(dtRp1126
sg16
g1
(g11
g12
(dtRp1127
sg18
g1
(g11
g12
(dtRp1128
sg20
g1
(g11
g12
(dtRp1129
sg22
g1
(g11
g12
(dtRp1130
sbsg24
g25
sg26
g27
((lp1131
g33
ag32
ag29
ag30
atRp1132
sg37
(lp1133
g1
(g2
g3
NtRp1134
(dp1135
g6
g1
(g7
g3
NtRp1136
(dp1137
g10
g1
(g11
g12
(dtRp1138
sg14
g1
(g11
g12
(dtRp1139
sg16
g1
(g11
g12
(dtRp1140
sg18
g1
(g11
g12
(dtRp1141
sg20
g1
(g11
g12
(dtRp1142
sg22
g1
(g11
g12
(dtRp1143
sbsg24
S'Cth'
p1144
sg26
g27
((lp1145
g29
ag30
aS'sequence'
p1146
ag32
ag33
aS'species'
p1147
atRp1148
sg37
(lp1149
sg120
g1121
sg121
S'RWLSTKDLYSRLELPGLNQNVHAMFVMPLGFGNPMGDMFARLNNSFWLPPLSLEGAGTGWTVYPPLSHSGPSVDLAFHLTSSLLGAINFTNMRGPLYWTALLLLSLPVLAGTLLDRNFNTFEGGDPLYHLFWFFGHPEVYIIPGFGSHSTYKKFGMYASIGLGFVWSHHMYVGLDDRAYFTSATMIAPTGIKFSWLATYGGRPMLAFLFLFTGGTGVLNASDAFHDTYYTVMAFSLGYYYYNLFWFMFGMPDAGWSSSYQLGPDESNE'
p1150
sg123
F0.010059999999999999
sg124
g125
sg33
S'173'
p1151
sg127
g1
(g128
g12
(dp1152
g130
I4
sg131
g132
sg133
g134
sg135
g132
sg136
I01
sg34
g137
sg138
g134
sg139
I0
sg140
I0
sg141
I0
sg142
g134
sg35
g132
sg143
I0
stRp1153
sg145
g146
sg147
F1
sg148
Nsg30
S'CtheaA'
p1154
sbag1
(g2
g3
NtRp1155
(dp1156
g6
g1
(g7
g3
NtRp1157
(dp1158
g10
g1
(g11
g12
(dtRp1159
sg14
g1
(g11
g12
(dtRp1160
sg16
g1
(g11
g12
(dtRp1161
sg18
g1
(g11
g12
(dtRp1162
sg20
g1
(g11
g12
(dtRp1163
sg22
g1
(g11
g12
(dtRp1164
sbsg24
g25
sg26
g27
((lp1165
g33
ag32
ag29
ag30
atRp1166
sg37
(lp1167
g1
(g2
g3
NtRp1168
(dp1169
g6
g1
(g7
g3
NtRp1170
(dp1171
g10
g1
(g11
g12
(dtRp1172
sg14
g1
(g11
g12
(dtRp1173
sg16
g1
(g11
g12
(dtRp1174
sg18
g1
(g11
g12
(dtRp1175
sg20
g1
(g11
g12
(dtRp1176
sg22
g1
(g11
g12
(dtRp1177
sbsg24
g25
sg26
g27
((lp1178
g33
ag32
ag29
ag30
atRp1179
sg37
(lp1180
g1
(g2
g3
NtRp1181
(dp1182
g6
g1
(g7
g3
NtRp1183
(dp1184
g10
g1
(g11
g12
(dtRp1185
sg14
g1
(g11
g12
(dtRp1186
sg16
g1
(g11
g12
(dtRp1187
sg18
g1
(g11
g12
(dtRp1188
sg20
g1
(g11
g12
(dtRp1189
sg22
g1
(g11
g12
(dtRp1190
sbsg24
g25
sg26
g27
((lp1191
g33
ag32
ag29
ag30
atRp1192
sg37
(lp1193
g1
(g2
g3
NtRp1194
(dp1195
g6
g1
(g7
g3
NtRp1196
(dp1197
g10
g1
(g11
g12
(dtRp1198
sg14
g1
(g11
g12
(dtRp1199
sg16
g1
(g11
g12
(dtRp1200
sg18
g1
(g11
g12
(dtRp1201
sg20
g1
(g11
g12
(dtRp1202
sg22
g1
(g11
g12
(dtRp1203
sbsg24
S'Cor'
p1204
sg26
g27
((lp1205
g29
ag30
aS'sequence'
p1206
ag32
ag33
aS'species'
p1207
atRp1208
sg37
(lp1209
sg120
g1181
sg121
S'RWLSTKDLYSRLELPGLNQNVHAMFVMPLGFGNPMGDMFARLNNSFWLPPLSLEGAGTGWTVYPPLSHSGPSVDLAFHLTSSLLGAINFTNMRGPLFWTALLLLSLPVLAGTLLDRNFNTFEGGDPLYHLFWFFGHPEVYIIPGFGSHSTYKKFGMYASIGLGFVWSHHMYVGLDDRAYFTSATMIAPTGIKFSWLATYGGRPMLAFLFLFTGGTGVLNASDAFHDTYYTVMAFSLGYYYYNLFWFMFGMPDAGWSSSYQLGPDESNE'
p1210
sg123
F0.00132
sg124
g125
sg33
S'171'
p1211
sg127
g1
(g128
g12
(dp1212
g130
I4
sg131
g132
sg133
g134
sg135
g132
sg136
I01
sg34
g137
sg138
g134
sg139
I0
sg140
I0
sg141
I0
sg142
g134
sg35
g132
sg143
I0
stRp1213
sg145
g146
sg147
F1
sg148
Nsg30
S'CorthC'
p1214
sbag1
(g2
g3
NtRp1215
(dp1216
g6
g1
(g7
g3
NtRp1217
(dp1218
g10
g1
(g11
g12
(dtRp1219
sg14
g1
(g11
g12
(dtRp1220
sg16
g1
(g11
g12
(dtRp1221
sg18
g1
(g11
g12
(dtRp1222
sg20
g1
(g11
g12
(dtRp1223
sg22
g1
(g11
g12
(dtRp1224
sbsg24
S'Cor'
p1225
sg26
g27
((lp1226
g29
ag30
aS'sequence'
p1227
ag32
ag33
aS'species'
p1228
atRp1229
sg37
(lp1230
sg120
g1181
sg121
S'RWLSTKDLYSRLELPGLNQNVHAMFVMPLGFGNPMGDMFARLNNSFWLPPLSLEGAGTGWTVYPPLSHSGPSVDLAFHLTSSLLGAINFTNMRGPLFWTALLLLSLPVLAGTLLDRNFNTFEGGDPLYHLFWFFGHPEVYIIPGFGSHSTYKKFGMYASIGLGFVWSHHMYVGLDDRAYFTSATMIAPTGIKFSWLATYGGRPMLAFLFLFTGGTGVLNASDAFHDTYYTVMAFSLGYYYYNLFWFMFGMPDAGWSSSYQLGPDESNE'
p1231
sg123
F0.00093000000000000005
sg124
g125
sg33
S'179'
p1232
sg127
g1
(g128
g12
(dp1233
g130
I4
sg131
g132
sg133
g134
sg135
g132
sg136
I01
sg34
g137
sg138
g134
sg139
I0
sg140
I0
sg141
I0
sg142
g134
sg35
g132
sg143
I0
stRp1234
sg145
g146
sg147
F1
sg148
Nsg30
S'CorthB'
p1235
sbasg120
g1168
sg123
F0.00052999999999999998
sg124
g125
sg33
S'164'
p1236
sg127
g1
(g128
g12
(dp1237
g130
I8
sg131
g132
sg133
g134
sg135
g132
sg136
I01
sg34
g172
sg138
g134
sg139
I0
sg140
I0
sg141
I0
sg142
g134
sg35
g132
sg143
I0
stRp1238
sg145
g146
sg147
F0.85999999999999999
sg148
Nsg30
S'NoName'
p1239
sbag1
(g2
g3
NtRp1240
(dp1241
g6
g1
(g7
g3
NtRp1242
(dp1243
g10
g1
(g11
g12
(dtRp1244
sg14
g1
(g11
g12
(dtRp1245
sg16
g1
(g11
g12
(dtRp1246
sg18
g1
(g11
g12
(dtRp1247
sg20
g1
(g11
g12
(dtRp1248
sg22
g1
(g11
g12
(dtRp1249
sbsg24
S'Cor'
p1250
sg26
g27
((lp1251
g29
ag30
aS'sequence'
p1252
ag32
ag33
aS'species'
p1253
atRp1254
sg37
(lp1255
sg120
g1168
sg121
S'RWLSTKDLYSRLELPGLNQNVHAMFVMPLGFGNPMGDMFARLNNSFWLPPLSLEGAGTGWTVYPPLSHSGPSVDLAFHLTSSLLGAINFTNMRGPLFWTALLLLSLPVLAGTLLDRNFNTFEGGDPLYHLFWFFGHPEVYIIPGFGSHSTYKKFGMYASIGLGFVWSHHMYVGLDDRAYFTSATMIAPTGIKFSWLATYGGRPMLAFLFLFTGGTGVLNASDAFHDTYYTVMAFSLGYYYYNLFWFMFGMPDAGWSSSYQLGPDESNE'
p1256
sg123
F0.0021099999999999999
sg124
g125
sg33
S'175'
p1257
sg127
g1
(g128
g12
(dp1258
g130
I4
sg131
g132
sg133
g134
sg135
g132
sg136
I01
sg34
g137
sg138
g134
sg139
I0
sg140
I0
sg141
I0
sg142
g134
sg35
g132
sg143
I0
stRp1259
sg145
g146
sg147
F1
sg148
Nsg30
S'CorthA'
p1260
sbasg120
g1155
sg123
F0.0031199999999999999
sg124
g125
sg33
S'168'
p1261
sg127
g1
(g128
g12
(dp1262
g130
I8
sg131
g132
sg133
g134
sg135
g132
sg136
I01
sg34
g172
sg138
g134
sg139
I0
sg140
I0
sg141
I0
sg142
g134
sg35
g132
sg143
I0
stRp1263
sg145
g146
sg147
F0.98999999999999999
sg148
Nsg30
S'NoName'
p1264
sbag1
(g2
g3
NtRp1265
(dp1266
g6
g1
(g7
g3
NtRp1267
(dp1268
g10
g1
(g11
g12
(dtRp1269
sg14
g1
(g11
g12
(dtRp1270
sg16
g1
(g11
g12
(dtRp1271
sg18
g1
(g11
g12
(dtRp1272
sg20
g1
(g11
g12
(dtRp1273
sg22
g1
(g11
g12
(dtRp1274
sbsg24
g25
sg26
g27
((lp1275
g33
ag32
ag29
ag30
atRp1276
sg37
(lp1277
g1
(g2
g3
NtRp1278
(dp1279
g6
g1
(g7
g3
NtRp1280
(dp1281
g10
g1
(g11
g12
(dtRp1282
sg14
g1
(g11
g12
(dtRp1283
sg16
g1
(g11
g12
(dtRp1284
sg18
g1
(g11
g12
(dtRp1285
sg20
g1
(g11
g12
(dtRp1286
sg22
g1
(g11
g12
(dtRp1287
sbsg24
g25
sg26
g27
((lp1288
g33
ag32
ag29
ag30
atRp1289
sg37
(lp1290
g1
(g2
g3
NtRp1291
(dp1292
g6
g1
(g7
g3
NtRp1293
(dp1294
g10
g1
(g11
g12
(dtRp1295
sg14
g1
(g11
g12
(dtRp1296
sg16
g1
(g11
g12
(dtRp1297
sg18
g1
(g11
g12
(dtRp1298
sg20
g1
(g11
g12
(dtRp1299
sg22
g1
(g11
g12
(dtRp1300
sbsg24
S'Cpa'
p1301
sg26
g27
((lp1302
g29
ag30
aS'sequence'
p1303
ag32
ag33
aS'species'
p1304
atRp1305
sg37
(lp1306
sg120
g1278
sg121
S'RWLSTKDLYSRLELPGLNQNVHAMFVMPLGFGNPMGDMFARLNNSFWLPPLSLEGAGTGWTVYPPLSHSGPSVDLAFHLTSSLLGAINFTNMRGPLFWTALLLLSLPVLAGTLLDRNFNTFEGGDPLYHLFWFFGHPEVYIIPGFGSHSTYKKFGMYASIGLGFVWSHHMYVGLDDRAYFTSATMIAPTSIKFSWLATYGGRTALAFIFLFTGGTGVLNSADPFHDSYYVVMAFSIGWLPYNLFWFMFGMNDAGWSSAYQLGPSGTNE'
p1307
sg123
F0.00012999999999999999
sg124
g125
sg33
S'128'
p1308
sg127
g1
(g128
g12
(dp1309
g130
I4
sg131
g132
sg133
g134
sg135
g132
sg136
I01
sg34
g137
sg138
g134
sg139
I0
sg140
I0
sg141
I0
sg142
g134
sg35
g132
sg143
I0
stRp1310
sg145
g146
sg147
F1
sg148
Nsg30
S'CparaD'
p1311
sbag1
(g2
g3
NtRp1312
(dp1313
g6
g1
(g7
g3
NtRp1314
(dp1315
g10
g1
(g11
g12
(dtRp1316
sg14
g1
(g11
g12
(dtRp1317
sg16
g1
(g11
g12
(dtRp1318
sg18
g1
(g11
g12
(dtRp1319
sg20
g1
(g11
g12
(dtRp1320
sg22
g1
(g11
g12
(dtRp1321
sbsg24
S'Cpa'
p1322
sg26
g27
((lp1323
g29
ag30
aS'sequence'
p1324
ag32
ag33
aS'species'
p1325
atRp1326
sg37
(lp1327
sg120
g1278
sg121
S'RWLSTKDLYSRLELPGLNQNVHAMFVMPLGFGNPMGDMFARLNNSFWLPPLSLEGAGTGWTVYPPLSHSGPSVDLAFHLTSSLLGAINFTNMRGPLFWTALLLLSLPVLAGTLLDRNFNTFEGGDPLYHLFWFFGHPEVYIIPGFGSHSTYKKFGMYASIGLGFVWSHHMYVGLDDRAYFTSATMIAPTGIKFSWLATYGGRPMLAFLFLFTGGTGVVNASDAFHDTYYVVMAFSLGYYYYNLFWFMFGMPDAGWSSSYSLGPDESNE'
p1328
sg123
F0.00012999999999999999
sg124
g125
sg33
S'136'
p1329
sg127
g1
(g128
g12
(dp1330
g130
I4
sg131
g132
sg133
g134
sg135
g132
sg136
I01
sg34
g137
sg138
g134
sg139
I0
sg140
I0
sg141
I0
sg142
g134
sg35
g132
sg143
I0
stRp1331
sg145
g146
sg147
F1
sg148
Nsg30
S'CparaB'
p1332
sbasg120
g1265
sg123
F0.00051000000000000004
sg124
g125
sg33
S'176'
p1333
sg127
g1
(g128
g12
(dp1334
g130
I8
sg131
g132
sg133
g134
sg135
g132
sg136
I01
sg34
g172
sg138
g134
sg139
I0
sg140
I0
sg141
I0
sg142
g134
sg35
g132
sg143
I0
stRp1335
sg145
g146
sg147
F0.98999999999999999
sg148
Nsg30
S'NoName'
p1336
sbag1
(g2
g3
NtRp1337
(dp1338
g6
g1
(g7
g3
NtRp1339
(dp1340
g10
g1
(g11
g12
(dtRp1341
sg14
g1
(g11
g12
(dtRp1342
sg16
g1
(g11
g12
(dtRp1343
sg18
g1
(g11
g12
(dtRp1344
sg20
g1
(g11
g12
(dtRp1345
sg22
g1
(g11
g12
(dtRp1346
sbsg24
S'Cpa'
p1347
sg26
g27
((lp1348
g29
ag30
aS'sequence'
p1349
ag32
ag33
aS'species'
p1350
atRp1351
sg37
(lp1352
sg120
g1265
sg121
S'RWLSTKDLYSRLELPGLNQNVHAMFVMPLGFGNPMGDMFARLNNSFWLPPLSLEGAGTGWTVYPPLSHSGPSVDLAFHLTSSLLGAINFTNMRGPLFWTALLLLSLPVLAGTLLDRNFNTFEGGDPLYHLFWFFGHPEVYIIPGFGSHSTYKKFGMYASIGLGFVWSHHMYVGLDDRAYFTSATMIAPTGIKFSWLATYGGRPMLAFLFLFTGGTGVVNASDAFHDTYYVVMAFSLGYYYYNLFWFMFGMPDAGWSSSYSLGPDESNE'
p1353
sg123
F0.00012
sg124
g125
sg33
S'133'
p1354
sg127
g1
(g128
g12
(dp1355
g130
I4
sg131
g132
sg133
g134
sg135
g132
sg136
I01
sg34
g137
sg138
g134
sg139
I0
sg140
I0
sg141
I0
sg142
g134
sg35
g132
sg143
I0
stRp1356
sg145
g146
sg147
F1
sg148
Nsg30
S'CparaC'
p1357
sbasg120
g1155
sg123
F1.0000000000000001e-05
sg124
g125
sg33
S'166'
p1358
sg127
g1
(g128
g12
(dp1359
g130
I8
sg131
g132
sg133
g134
sg135
g132
sg136
I01
sg34
g172
sg138
g134
sg139
I0
sg140
I0
sg141
I0
sg142
g134
sg35
g132
sg143
I0
stRp1360
sg145
g146
sg147
F1
sg148
Nsg30
S'NoName'
p1361
sbasg120
g1121
sg123
F0.0032599999999999999
sg124
g125
sg33
S'163'
p1362
sg127
g1
(g128
g12
(dp1363
g130
I8
sg131
g132
sg133
g134
sg135
g132
sg136
I01
sg34
g172
sg138
g134
sg139
I0
sg140
I0
sg141
I0
sg142
g134
sg35
g132
sg143
I0
stRp1364
sg145
g146
sg147
F0.97999999999999998
sg148
Nsg30
S'NoName'
p1365
sbasg120
g1108
sg123
F1.0000000000000001e-05
sg124
g125
sg33
S'221'
p1366
sg127
g1
(g128
g12
(dp1367
g130
I8
sg131
g132
sg133
g134
sg135
g132
sg136
I01
sg34
g172
sg138
g134
sg139
I0
sg140
I0
sg141
I0
sg142
g134
sg35
g132
sg143
I0
stRp1368
sg145
g146
sg147
F1
sg148
Nsg30
S'NoName'
p1369
sbag1
(g2
g3
NtRp1370
(dp1371
g6
g1
(g7
g3
NtRp1372
(dp1373
g10
g1
(g11
g12
(dtRp1374
sg14
g1
(g11
g12
(dtRp1375
sg16
g1
(g11
g12
(dtRp1376
sg18
g1
(g11
g12
(dtRp1377
sg20
g1
(g11
g12
(dtRp1378
sg22
g1
(g11
g12
(dtRp1379
sbsg24
g25
sg26
g27
((lp1380
g33
ag32
ag29
ag30
atRp1381
sg37
(lp1382
g1
(g2
g3
NtRp1383
(dp1384
g6
g1
(g7
g3
NtRp1385
(dp1386
g10
g1
(g11
g12
(dtRp1387
sg14
g1
(g11
g12
(dtRp1388
sg16
g1
(g11
g12
(dtRp1389
sg18
g1
(g11
g12
(dtRp1390
sg20
g1
(g11
g12
(dtRp1391
sg22
g1
(g11
g12
(dtRp1392
sbsg24
g25
sg26
g27
((lp1393
g33
ag32
ag29
ag30
atRp1394
sg37
(lp1395
g1
(g2
g3
NtRp1396
(dp1397
g6
g1
(g7
g3
NtRp1398
(dp1399
g10
g1
(g11
g12
(dtRp1400
sg14
g1
(g11
g12
(dtRp1401
sg16
g1
(g11
g12
(dtRp1402
sg18
g1
(g11
g12
(dtRp1403
sg20
g1
(g11
g12
(dtRp1404
sg22
g1
(g11
g12
(dtRp1405
sbsg24
g25
sg26
g27
((lp1406
g33
ag32
ag29
ag30
atRp1407
sg37
(lp1408
g1
(g2
g3
NtRp1409
(dp1410
g6
g1
(g7
g3
NtRp1411
(dp1412
g10
g1
(g11
g12
(dtRp1413
sg14
g1
(g11
g12
(dtRp1414
sg16
g1
(g11
g12
(dtRp1415
sg18
g1
(g11
g12
(dtRp1416
sg20
g1
(g11
g12
(dtRp1417
sg22
g1
(g11
g12
(dtRp1418
sbsg24
g25
sg26
g27
((lp1419
g33
ag32
ag29
ag30
atRp1420
sg37
(lp1421
g1
(g2
g3
NtRp1422
(dp1423
g6
g1
(g7
g3
NtRp1424
(dp1425
g10
g1
(g11
g12
(dtRp1426
sg14
g1
(g11
g12
(dtRp1427
sg16
g1
(g11
g12
(dtRp1428
sg18
g1
(g11
g12
(dtRp1429
sg20
g1
(g11
g12
(dtRp1430
sg22
g1
(g11
g12
(dtRp1431
sbsg24
g25
sg26
g27
((lp1432
g33
ag32
ag29
ag30
atRp1433
sg37
(lp1434
g1
(g2
g3
NtRp1435
(dp1436
g6
g1
(g7
g3
NtRp1437
(dp1438
g10
g1
(g11
g12
(dtRp1439
sg14
g1
(g11
g12
(dtRp1440
sg16
g1
(g11
g12
(dtRp1441
sg18
g1
(g11
g12
(dtRp1442
sg20
g1
(g11
g12
(dtRp1443
sg22
g1
(g11
g12
(dtRp1444
sbsg24
S'Cme'
p1445
sg26
g27
((lp1446
g29
ag30
aS'sequence'
p1447
ag32
ag33
aS'species'
p1448
atRp1449
sg37
(lp1450
sg120
g1422
sg121
S'RWLSTKDLYSRLELPGLNQNVHAMFVMPLGFGNPMGDMFARLNNSFWLPPLSLEGAGTGWTVYPPLSHSGPSVDLAFHLTSSLLGAINFTNMRGPLYWTALLLLSLPVLAGTLLDRNFNTFEGGDPLYHLFWFFGHPEVYIIPGFGSHSTYKKFGMYASIGLGFVWSHHMYVGLDDRAYFTSATMIAPTGIKFSWLATYGGRPMLAFLFLFTGGTGVLNASDAFHDTYYVVMAFSLGYYYYNLFWFMFGMPDAGWSSSYQLGPDESNE'
p1451
sg123
F0.00012999999999999999
sg124
g125
sg33
S'139'
p1452
sg127
g1
(g128
g12
(dp1453
g130
I4
sg131
g132
sg133
g134
sg135
g132
sg136
I01
sg34
g137
sg138
g134
sg139
I0
sg140
I0
sg141
I0
sg142
g134
sg35
g132
sg143
I0
stRp1454
sg145
g146
sg147
F1
sg148
Nsg30
S'CmetaF'
p1455
sbag1
(g2
g3
NtRp1456
(dp1457
g6
g1
(g7
g3
NtRp1458
(dp1459
g10
g1
(g11
g12
(dtRp1460
sg14
g1
(g11
g12
(dtRp1461
sg16
g1
(g11
g12
(dtRp1462
sg18
g1
(g11
g12
(dtRp1463
sg20
g1
(g11
g12
(dtRp1464
sg22
g1
(g11
g12
(dtRp1465
sbsg24
S'Cme'
p1466
sg26
g27
((lp1467
g29
ag30
aS'sequence'
p1468
ag32
ag33
aS'species'
p1469
atRp1470
sg37
(lp1471
sg120
g1422
sg121
S'RWLSTKDLYSRLELPGLNQNVHAMFVMPLGFGNPMGDMFARLNNSFWLPPLSLEGAGTGWTVYPPLSHSGPSVDLAFHLTSSLLGAINFTNMRGPLYWTALLLLSLPVLAGTLLDRNFNTFEGGDPLYHLFWFFGHPEVYIIPGFGSHSTYKKFGMYASIGLGFVWSHHMYVGLDDRAYFTSATMIAPTGIKFSWLATYGGRPMLAFLFLFTGGTGVLNASDAFHDTYYVVMAFSLGYYYYNLFWFMFGMPDAGWSSSYQLGPDESNE'
p1472
sg123
F0.00012
sg124
g125
sg33
S'141'
p1473
sg127
g1
(g128
g12
(dp1474
g130
I4
sg131
g132
sg133
g134
sg135
g132
sg136
I01
sg34
g137
sg138
g134
sg139
I0
sg140
I0
sg141
I0
sg142
g134
sg35
g132
sg143
I0
stRp1475
sg145
g146
sg147
F1
sg148
Nsg30
S'CmetaE'
p1476
sbasg120
g1409
sg123
F1.0000000000000001e-05
sg124
g125
sg33
S'142'
p1477
sg127
g1
(g128
g12
(dp1478
g130
I8
sg131
g132
sg133
g134
sg135
g132
sg136
I01
sg34
g172
sg138
g134
sg139
I0
sg140
I0
sg141
I0
sg142
g134
sg35
g132
sg143
I0
stRp1479
sg145
g146
sg147
F1
sg148
Nsg30
S'NoName'
p1480
sbag1
(g2
g3
NtRp1481
(dp1482
g6
g1
(g7
g3
NtRp1483
(dp1484
g10
g1
(g11
g12
(dtRp1485
sg14
g1
(g11
g12
(dtRp1486
sg16
g1
(g11
g12
(dtRp1487
sg18
g1
(g11
g12
(dtRp1488
sg20
g1
(g11
g12
(dtRp1489
sg22
g1
(g11
g12
(dtRp1490
sbsg24
S'Cme'
p1491
sg26
g27
((lp1492
g29
ag30
aS'sequence'
p1493
ag32
ag33
aS'species'
p1494
atRp1495
sg37
(lp1496
sg120
g1409
sg121
S'RWLSTKDLYSRLELPGLNQNVHAMFVMPLGFGNPMGDMFARLNNSFWLPPLSLEGAGTGWTVYPPLSHSGPSVDLAFHLTSSLLGAINFTNMRGPLYWTALLLLSLPVLAGTLLDRNFNTFEGGDPLYHLFWFFGHPEVYIIPGFGSHSTYKKFGMYASIGLGFVWSHHMYVGLDDRAYFTSATMIAPTGIKFSWLATYGGRPMLAFLFLFTGGTGVLNASDAFHDTYYVVMAFSLGYYYYNLFWFMFGMPDAGWSSSYQLGPDESNE'
p1497
sg123
F0.00020000000000000001
sg124
g125
sg33
S'145'
p1498
sg127
g1
(g128
g12
(dp1499
g130
I4
sg131
g132
sg133
g134
sg135
g132
sg136
I01
sg34
g137
sg138
g134
sg139
I0
sg140
I0
sg141
I0
sg142
g134
sg35
g132
sg143
I0
stRp1500
sg145
g146
sg147
F1
sg148
Nsg30
S'CmetaD'
p1501
sbasg120
g1396
sg123
F1.0000000000000001e-05
sg124
g125
sg33
S'135'
p1502
sg127
g1
(g128
g12
(dp1503
g130
I8
sg131
g132
sg133
g134
sg135
g132
sg136
I01
sg34
g172
sg138
g134
sg139
I0
sg140
I0
sg141
I0
sg142
g134
sg35
g132
sg143
I0
stRp1504
sg145
g146
sg147
F1
sg148
Nsg30
S'NoName'
p1505
sbag1
(g2
g3
NtRp1506
(dp1507
g6
g1
(g7
g3
NtRp1508
(dp1509
g10
g1
(g11
g12
(dtRp1510
sg14
g1
(g11
g12
(dtRp1511
sg16
g1
(g11
g12
(dtRp1512
sg18
g1
(g11
g12
(dtRp1513
sg20
g1
(g11
g12
(dtRp1514
sg22
g1
(g11
g12
(dtRp1515
sbsg24
S'Cme'
p1516
sg26
g27
((lp1517
g29
ag30
aS'sequence'
p1518
ag32
ag33
aS'species'
p1519
atRp1520
sg37
(lp1521
sg120
g1396
sg121
S'RWLSTKDLYSRLELPGLNQNVHAMFVMPLGFGNPMGDMFARLNNSFWLPPLSLEGAGTGWTVYPPLSHSGPSVDLAFHLTSSLLGAINFTNMRGPLYWTALLLLSLPVLAGTLLDRNFNTFEGGDPLYHLFWFFGHPEVYIIPGFGSHSTYKKFGMYASIGLGFVWSHHMYVGLDDRAYFTSATMIAPTGIKFSWLATYGGRPMLAFLFLFTGGTGVLNASDAFHDTYYVVMAFSLGYYYYNLFWFMFGMPDAGWSSSYQLGPDESNE'
p1522
sg123
F0.00052999999999999998
sg124
g125
sg33
S'154'
p1523
sg127
g1
(g128
g12
(dp1524
g130
I4
sg131
g132
sg133
g134
sg135
g132
sg136
I01
sg34
g137
sg138
g134
sg139
I0
sg140
I0
sg141
I0
sg142
g134
sg35
g132
sg143
I0
stRp1525
sg145
g146
sg147
F1
sg148
Nsg30
S'CmetaC'
p1526
sbasg120
g1383
sg123
F1.0000000000000001e-05
sg124
g125
sg33
S'131'
p1527
sg127
g1
(g128
g12
(dp1528
g130
I8
sg131
g132
sg133
g134
sg135
g132
sg136
I01
sg34
g172
sg138
g134
sg139
I0
sg140
I0
sg141
I0
sg142
g134
sg35
g132
sg143
I0
stRp1529
sg145
g146
sg147
F1
sg148
Nsg30
S'NoName'
p1530
sbag1
(g2
g3
NtRp1531
(dp1532
g6
g1
(g7
g3
NtRp1533
(dp1534
g10
g1
(g11
g12
(dtRp1535
sg14
g1
(g11
g12
(dtRp1536
sg16
g1
(g11
g12
(dtRp1537
sg18
g1
(g11
g12
(dtRp1538
sg20
g1
(g11
g12
(dtRp1539
sg22
g1
(g11
g12
(dtRp1540
sbsg24
S'Cme'
p1541
sg26
g27
((lp1542
g29
ag30
aS'sequence'
p1543
ag32
ag33
aS'species'
p1544
atRp1545
sg37
(lp1546
sg120
g1383
sg121
S'RWLSTKDLYSRLELPGLNQNVHAMFVMPLGFGNPMGDMFARLNNSFWLPPLSLEGAGTGWTVYPPLSHSGPSVDLAFHLTSSLLGAINFTNMRGPLYWTALLLLSLPVLAGTLLDRNFNTFEGGDPLYHLFWFFGHPEVYIIPGFGSHSTYKKFGMYASIGLGFVWSHHMYVGLDDRAYFTSATMIAPTGIKFSWLATYGGRPMLAFLFLFTGGTGVLNASDAFHDTYYVVMAFSLGYYYYNLFWFMFGMPDAGWSSSYQLGPDESNE'
p1547
sg123
F0.00012
sg124
g125
sg33
S'151'
p1548
sg127
g1
(g128
g12
(dp1549
g130
I4
sg131
g132
sg133
g134
sg135
g132
sg136
I01
sg34
g137
sg138
g134
sg139
I0
sg140
I0
sg141
I0
sg142
g134
sg35
g132
sg143
I0
stRp1550
sg145
g146
sg147
F1
sg148
Nsg30
S'CmetaB'
p1551
sbasg120
g1370
sg123
F1.0000000000000001e-05
sg124
g125
sg33
S'129'
p1552
sg127
g1
(g128
g12
(dp1553
g130
I8
sg131
g132
sg133
g134
sg135
g132
sg136
I01
sg34
g172
sg138
g134
sg139
I0
sg140
I0
sg141
I0
sg142
g134
sg35
g132
sg143
I0
stRp1554
sg145
g146
sg147
F1
sg148
Nsg30
S'NoName'
p1555
sbag1
(g2
g3
NtRp1556
(dp1557
g6
g1
(g7
g3
NtRp1558
(dp1559
g10
g1
(g11
g12
(dtRp1560
sg14
g1
(g11
g12
(dtRp1561
sg16
g1
(g11
g12
(dtRp1562
sg18
g1
(g11
g12
(dtRp1563
sg20
g1
(g11
g12
(dtRp1564
sg22
g1
(g11
g12
(dtRp1565
sbsg24
S'Cme'
p1566
sg26
g27
((lp1567
g29
ag30
aS'sequence'
p1568
ag32
ag33
aS'species'
p1569
atRp1570
sg37
(lp1571
sg120
g1370
sg121
S'RWLSTKDLYSRLELPGLNQNVHAMFVMPLGFGNPMGDMFARLNNSFWLPPLSLEGAGTGWTVYPPLSHSGPSVDLAFHLTSSLLGAINFTNMRGPLYWTALLLLSLPVLAGTLLDRNFNTFEGGDPLYHLFWFFGHPEVYIIPGFGSHSTYKKFGMYASIGLGFVWSHHMYVGLDDRAYFTSATMIAPTGIKFSWLATYGGRPMLAFLFLFTGGTGVLNASDAFHDTYYVVMAFSLGYYYYNLFWFMFGMPDAGWSSSYQLGPDESNE'
p1572
sg123
F0.00012999999999999999
sg124
g125
sg33
S'147'
p1573
sg127
g1
(g128
g12
(dp1574
g130
I4
sg131
g132
sg133
g134
sg135
g132
sg136
I01
sg34
g137
sg138
g134
sg139
I0
sg140
I0
sg141
I0
sg142
g134
sg35
g132
sg143
I0
stRp1575
sg145
g146
sg147
F1
sg148
Nsg30
S'CmetaA'
p1576
sbasg120
g1108
sg123
F0.020930000000000001
sg124
g125
sg33
S'178'
p1577
sg127
g1
(g128
g12
(dp1578
g130
I8
sg131
g132
sg133
g134
sg135
g132
sg136
I01
sg34
g172
sg138
g134
sg139
I0
sg140
I0
sg141
I0
sg142
g134
sg35
g132
sg143
I0
stRp1579
sg145
g146
sg147
F0.98999999999999999
sg148
Nsg30
S'NoName'
p1580
sbasg120
g1095
sg123
F0.045289999999999997
sg124
g125
sg33
S'219'
p1581
sg127
g1
(g128
g12
(dp1582
g130
I8
sg131
g132
sg133
g134
sg135
g132
sg136
I01
sg34
g172
sg138
g134
sg139
I0
sg140
I0
sg141
I0
sg142
g134
sg35
g132
sg143
I0
stRp1583
sg145
g146
sg147
F0.98999999999999999
sg148
Nsg30
S'NoName'
p1584
sbag1
(g2
g3
NtRp1585
(dp1586
g6
g1
(g7
g3
NtRp1587
(dp1588
g10
g1
(g11
g12
(dtRp1589
sg14
g1
(g11
g12
(dtRp1590
sg16
g1
(g11
g12
(dtRp1591
sg18
g1
(g11
g12
(dtRp1592
sg20
g1
(g11
g12
(dtRp1593
sg22
g1
(g11
g12
(dtRp1594
sbsg24
S'Cji'
p1595
sg26
g27
((lp1596
g29
ag30
aS'sequence'
p1597
ag32
ag33
aS'species'
p1598
atRp1599
sg37
(lp1600
sg120
g1095
sg121
S'RWLSTKDLYSRLELPGLNQNVHAMFVMPLGFGNPMGDMFARLNNSFWLPPLSLEGAGTGWTVYPPLSHSGPSVDLAFHLTSSLLGAINFTNMRGPMFWTALLLLSLPVLAGTLLDRNFNTFDGGDPLYHLFWFFGHPEVYIIPGFGSHSTYKKFGMYASIGLGFVWSHHMYVGLDDRAYFTSATMIAPTGIKFSWLATYGGRPMLAFLFLFTGGTGVLNASDAFHDTYYTVMAFSLGYYYYNLFWFMFGMPDAGWSSSYQLGPDESNE'
p1601
sg123
F0.013140000000000001
sg124
g125
sg33
S'148'
p1602
sg127
g1
(g128
g12
(dp1603
g130
I4
sg131
g132
sg133
g134
sg135
g132
sg136
I01
sg34
g137
sg138
g134
sg139
I0
sg140
I0
sg141
I0
sg142
g134
sg35
g132
sg143
I0
stRp1604
sg145
g146
sg147
F1
sg148
Nsg30
S'CjiufA'
p1605
sbasg120
g1023
sg123
F0.044909999999999999
sg124
g125
sg33
S'213'
p1606
sg127
g1
(g128
g12
(dp1607
g130
I8
sg131
g132
sg133
g134
sg135
g132
sg136
I01
sg34
g172
sg138
g134
sg139
I0
sg140
I0
sg141
I0
sg142
g134
sg35
g132
sg143
I0
stRp1608
sg145
g146
sg147
F0.98999999999999999
sg148
Nsg30
S'NoName'
p1609
sbasg120
g1010
sg123
F0.082199999999999995
sg124
g125
sg33
S'207'
p1610
sg127
g1
(g128
g12
(dp1611
g130
I8
sg131
g132
sg133
g134
sg135
g132
sg136
I01
sg34
g172
sg138
g134
sg139
I0
sg140
I0
sg141
I0
sg142
g134
sg35
g132
sg143
I0
stRp1612
sg145
g146
sg147
F0.98999999999999999
sg148
Nsg30
S'NoName'
p1613
sbag1
(g2
g3
NtRp1614
(dp1615
g6
g1
(g7
g3
NtRp1616
(dp1617
g10
g1
(g11
g12
(dtRp1618
sg14
g1
(g11
g12
(dtRp1619
sg16
g1
(g11
g12
(dtRp1620
sg18
g1
(g11
g12
(dtRp1621
sg20
g1
(g11
g12
(dtRp1622
sg22
g1
(g11
g12
(dtRp1623
sbsg24
g25
sg26
g27
((lp1624
g33
ag32
ag29
ag30
atRp1625
sg37
(lp1626
g1
(g2
g3
NtRp1627
(dp1628
g6
g1
(g7
g3
NtRp1629
(dp1630
g10
g1
(g11
g12
(dtRp1631
sg14
g1
(g11
g12
(dtRp1632
sg16
g1
(g11
g12
(dtRp1633
sg18
g1
(g11
g12
(dtRp1634
sg20
g1
(g11
g12
(dtRp1635
sg22
g1
(g11
g12
(dtRp1636
sbsg24
g25
sg26
g27
((lp1637
g33
ag32
ag29
ag30
atRp1638
sg37
(lp1639
g1
(g2
g3
NtRp1640
(dp1641
g6
g1
(g7
g3
NtRp1642
(dp1643
g10
g1
(g11
g12
(dtRp1644
sg14
g1
(g11
g12
(dtRp1645
sg16
g1
(g11
g12
(dtRp1646
sg18
g1
(g11
g12
(dtRp1647
sg20
g1
(g11
g12
(dtRp1648
sg22
g1
(g11
g12
(dtRp1649
sbsg24
S'Cco'
p1650
sg26
g27
((lp1651
g29
ag30
aS'sequence'
p1652
ag32
ag33
aS'species'
p1653
atRp1654
sg37
(lp1655
sg120
g1627
sg121
S'RWLSTKDLYSRMELPGLNQNVHAMFVMPLGFGNPMGDMFARLNNSFWLPPLSLEGAGTGWTLYAPLSHSGPSVDLAFHLTSSLLGAINFTNMRGPLFWTALLLLSLPVLAATLLDRNFNTFEGGDPLYHLFFVLMHPEVYIIPGFGSHSTYKKFGMYASMGLGFVWSHHMYVGLDDRAYFTSATMIAPTGIKFSWLATYGGRPMLAFLFLFTGGTGVLNASDAFHDTYYIKMAFSLGYYYYNMFWFMFGMPDAGWSSSYQLGPDESNE'
p1656
sg123
F0.057970000000000001
sg124
g125
sg33
S'155'
p1657
sg127
g1
(g128
g12
(dp1658
g130
I4
sg131
g132
sg133
g134
sg135
g132
sg136
I01
sg34
g137
sg138
g134
sg139
I0
sg140
I0
sg141
I0
sg142
g134
sg35
g132
sg143
I0
stRp1659
sg145
g146
sg147
F1
sg148
Nsg30
S'CcoryA'
p1660
sbag1
(g2
g3
NtRp1661
(dp1662
g6
g1
(g7
g3
NtRp1663
(dp1664
g10
g1
(g11
g12
(dtRp1665
sg14
g1
(g11
g12
(dtRp1666
sg16
g1
(g11
g12
(dtRp1667
sg18
g1
(g11
g12
(dtRp1668
sg20
g1
(g11
g12
(dtRp1669
sg22
g1
(g11
g12
(dtRp1670
sbsg24
S'Cch'
p1671
sg26
g27
((lp1672
g29
ag30
aS'sequence'
p1673
ag32
ag33
aS'species'
p1674
atRp1675
sg37
(lp1676
sg120
g1627
sg121
S'RWLSTKDLYSRMELPSLNQNVHAMFVMPLGFGNPMGDMFARLNNSFWLPPLSLEGAGTGWTLYAPLSHSGPSVDLAFHLTSSLLGAINFTNMRGPLFWTALLLLSLPVLAATLLDRNFNTFEGGDPLYHLFWFYMYKDYYIIPGFGSHSTYKKFGMYASIGLGFVWSHHMFVGLDDRAYFTSATMIAPTGIKFSWLATYGGRPMLAFLFLFTGGTGVLNASDAFHDTYYVVMAFSLGYYYYNLFWFMFGMPDAGWSSSYQLGPDESNE'
p1677
sg123
F0.052440000000000001
sg124
g125
sg33
S'157'
p1678
sg127
g1
(g128
g12
(dp1679
g130
I4
sg131
g132
sg133
g134
sg135
g132
sg136
I01
sg34
g137
sg138
g134
sg139
I0
sg140
I0
sg141
I0
sg142
g134
sg35
g132
sg143
I0
stRp1680
sg145
g146
sg147
F1
sg148
Nsg30
S'CchauA'
p1681
sbasg120
g1614
sg123
F0.16861999999999999
sg124
g125
sg33
S'152'
p1682
sg127
g1
(g128
g12
(dp1683
g130
I8
sg131
g132
sg133
g134
sg135
g132
sg136
I01
sg34
g172
sg138
g134
sg139
I0
sg140
I0
sg141
I0
sg142
g134
sg35
g132
sg143
I0
stRp1684
sg145
g146
sg147
F0.98999999999999999
sg148
Nsg30
S'NoName'
p1685
sbag1
(g2
g3
NtRp1686
(dp1687
g6
g1
(g7
g3
NtRp1688
(dp1689
g10
g1
(g11
g12
(dtRp1690
sg14
g1
(g11
g12
(dtRp1691
sg16
g1
(g11
g12
(dtRp1692
sg18
g1
(g11
g12
(dtRp1693
sg20
g1
(g11
g12
(dtRp1694
sg22
g1
(g11
g12
(dtRp1695
sbsg24
S'Cbo'
p1696
sg26
g27
((lp1697
g29
ag30
aS'sequence'
p1698
ag32
ag33
aS'species'
p1699
atRp1700
sg37
(lp1701
sg120
g1614
sg121
S'RWLSTKDLYSRMELPGLNQNVHAMFVMPLGFGNPMGDMFARLNNSFWLPPLSLEGAGTGWTVYPPLSHSGPSVDLAFHLTSSLLGAINFTNMRGPLFWTALLLLSLPVLAATLLDRNFNTFEGGDPLYHLFWFFGHPEVYIIPGFGSHSTYKKFGMYASIGLGFVWSHHMYVGLDDRAYFTSATMIAPTGIKFSWLATYGGRPMLAFLFLFTGGTGVLNASDAFHDTYYVVMAFSLAYYYYNLFWFMFGMPDAGWSSSYQLGPDESNE'
p1702
sg123
F0.20199
sg124
g125
sg33
S'158'
p1703
sg127
g1
(g128
g12
(dp1704
g130
I4
sg131
g132
sg133
g134
sg135
g132
sg136
I01
sg34
g137
sg138
g134
sg139
I0
sg140
I0
sg141
I0
sg142
g134
sg35
g132
sg143
I0
stRp1705
sg145
g146
sg147
F1
sg148
Nsg30
S'CbohiA'
p1706
sbasg120
g1010
sg123
F0.14915999999999999
sg124
g125
sg33
S'138'
p1707
sg127
g1
(g128
g12
(dp1708
g130
I8
sg131
g132
sg133
g134
sg135
g132
sg136
I01
sg34
g172
sg138
g134
sg139
I0
sg140
I0
sg141
I0
sg142
g134
sg35
g132
sg143
I0
stRp1709
sg145
g146
sg147
F0.98999999999999999
sg148
Nsg30
S'NoName'
p1710
sbasg120
g997
sg123
F0.036799999999999999
sg124
g125
sg33
S'211'
p1711
sg127
g1
(g128
g12
(dp1712
g130
I8
sg131
g132
sg133
g134
sg135
g132
sg136
I01
sg34
g172
sg138
g134
sg139
I0
sg140
I0
sg141
I0
sg142
g134
sg35
g132
sg143
I0
stRp1713
sg145
g146
sg147
F0.98999999999999999
sg148
Nsg30
S'NoName'
p1714
sbag1
(g2
g3
NtRp1715
(dp1716
g6
g1
(g7
g3
NtRp1717
(dp1718
g10
g1
(g11
g12
(dtRp1719
sg14
g1
(g11
g12
(dtRp1720
sg16
g1
(g11
g12
(dtRp1721
sg18
g1
(g11
g12
(dtRp1722
sg20
g1
(g11
g12
(dtRp1723
sg22
g1
(g11
g12
(dtRp1724
sbsg24
g25
sg26
g27
((lp1725
g33
ag32
ag29
ag30
atRp1726
sg37
(lp1727
g1
(g2
g3
NtRp1728
(dp1729
g6
g1
(g7
g3
NtRp1730
(dp1731
g10
g1
(g11
g12
(dtRp1732
sg14
g1
(g11
g12
(dtRp1733
sg16
g1
(g11
g12
(dtRp1734
sg18
g1
(g11
g12
(dtRp1735
sg20
g1
(g11
g12
(dtRp1736
sg22
g1
(g11
g12
(dtRp1737
sbsg24
g25
sg26
g27
((lp1738
g33
ag32
ag29
ag30
atRp1739
sg37
(lp1740
g1
(g2
g3
NtRp1741
(dp1742
g6
g1
(g7
g3
NtRp1743
(dp1744
g10
g1
(g11
g12
(dtRp1745
sg14
g1
(g11
g12
(dtRp1746
sg16
g1
(g11
g12
(dtRp1747
sg18
g1
(g11
g12
(dtRp1748
sg20
g1
(g11
g12
(dtRp1749
sg22
g1
(g11
g12
(dtRp1750
sbsg24
S'Cma'
p1751
sg26
g27
((lp1752
g29
ag30
aS'sequence'
p1753
ag32
ag33
aS'species'
p1754
atRp1755
sg37
(lp1756
sg120
g1728
sg121
S'RWLSTKDLYSRLELPGLSQNVHAMFVMPLGFGNPLGDMFARLNNSFWLPPLSLEGAGTGWTVYPPLSHSGPSVDLAFHLTSSLLGAINFTNMRGPLYWTALLLLSLPVLAGTLLDRNFNTFEGGDPLYHLFWFFGHPEVYMIPGFGSHSTYKKFGMYASMGLGFVWSHHMYVGLDDRAYFTSATMIAPTGIKFSWLATYGGRPMLAFLFLFTGGTGVLNASDAFHDTYYVVMAFSLGYYSYNLYWFMFGMPDAGWSSSYQLGPDESNE'
p1757
sg123
F0.24277000000000001
sg124
g125
sg33
S'132'
p1758
sg127
g1
(g128
g12
(dp1759
g130
I4
sg131
g132
sg133
g134
sg135
g132
sg136
I01
sg34
g137
sg138
g134
sg139
I0
sg140
I0
sg141
I0
sg142
g134
sg35
g132
sg143
I0
stRp1760
sg145
g146
sg147
F1
sg148
Nsg30
S'CmaltA'
p1761
sbag1
(g2
g3
NtRp1762
(dp1763
g6
g1
(g7
g3
NtRp1764
(dp1765
g10
g1
(g11
g12
(dtRp1766
sg14
g1
(g11
g12
(dtRp1767
sg16
g1
(g11
g12
(dtRp1768
sg18
g1
(g11
g12
(dtRp1769
sg20
g1
(g11
g12
(dtRp1770
sg22
g1
(g11
g12
(dtRp1771
sbsg24
g25
sg26
g27
((lp1772
g33
ag32
ag29
ag30
atRp1773
sg37
(lp1774
g1
(g2
g3
NtRp1775
(dp1776
g6
g1
(g7
g3
NtRp1777
(dp1778
g10
g1
(g11
g12
(dtRp1779
sg14
g1
(g11
g12
(dtRp1780
sg16
g1
(g11
g12
(dtRp1781
sg18
g1
(g11
g12
(dtRp1782
sg20
g1
(g11
g12
(dtRp1783
sg22
g1
(g11
g12
(dtRp1784
sbsg24
g25
sg26
g27
((lp1785
g33
ag32
ag29
ag30
atRp1786
sg37
(lp1787
g1
(g2
g3
NtRp1788
(dp1789
g6
g1
(g7
g3
NtRp1790
(dp1791
g10
g1
(g11
g12
(dtRp1792
sg14
g1
(g11
g12
(dtRp1793
sg16
g1
(g11
g12
(dtRp1794
sg18
g1
(g11
g12
(dtRp1795
sg20
g1
(g11
g12
(dtRp1796
sg22
g1
(g11
g12
(dtRp1797
sbsg24
g25
sg26
g27
((lp1798
g33
ag32
ag29
ag30
atRp1799
sg37
(lp1800
g1
(g2
g3
NtRp1801
(dp1802
g6
g1
(g7
g3
NtRp1803
(dp1804
g10
g1
(g11
g12
(dtRp1805
sg14
g1
(g11
g12
(dtRp1806
sg16
g1
(g11
g12
(dtRp1807
sg18
g1
(g11
g12
(dtRp1808
sg20
g1
(g11
g12
(dtRp1809
sg22
g1
(g11
g12
(dtRp1810
sbsg24
g25
sg26
g27
((lp1811
g33
ag32
ag29
ag30
atRp1812
sg37
(lp1813
g1
(g2
g3
NtRp1814
(dp1815
g6
g1
(g7
g3
NtRp1816
(dp1817
g10
g1
(g11
g12
(dtRp1818
sg14
g1
(g11
g12
(dtRp1819
sg16
g1
(g11
g12
(dtRp1820
sg18
g1
(g11
g12
(dtRp1821
sg20
g1
(g11
g12
(dtRp1822
sg22
g1
(g11
g12
(dtRp1823
sbsg24
S'Ctr'
p1824
sg26
g27
((lp1825
g29
ag30
aS'sequence'
p1826
ag32
ag33
aS'species'
p1827
atRp1828
sg37
(lp1829
sg120
g1801
sg121
S'RWLSTKDLYSRLELPGLNQNVHAMFVMPLGFGNPMGDMFARLNNSFWLPPLSLEGAGTGWTVYPPLSHSGPSVDLAFHLTSSLLGAINFTNMRGPLFWTALLLLSLPVLAGTLLDRNFNTFEGGDPLYHLFWFFGHPEVYIIPGFGSHSTYKKFGMYASIGLGFVWSHHMYVGLDDRAYFTSATMIAPTGIKFSWLATYGGRPMLAFLFLFTGGTGVLNASDAFHDSYYVVMAFSLGYYPYNLYWFMFGMPDAGWSSSYQLGPDEANE'
p1830
sg123
F0.00064000000000000005
sg124
g125
sg33
S'63'
p1831
sg127
g1
(g128
g12
(dp1832
g130
I4
sg131
g132
sg133
g134
sg135
g132
sg136
I01
sg34
g137
sg138
g134
sg139
I0
sg140
I0
sg141
I0
sg142
g134
sg35
g132
sg143
I0
stRp1833
sg145
g146
sg147
F1
sg148
Nsg30
S'CtropB'
p1834
sbag1
(g2
g3
NtRp1835
(dp1836
g6
g1
(g7
g3
NtRp1837
(dp1838
g10
g1
(g11
g12
(dtRp1839
sg14
g1
(g11
g12
(dtRp1840
sg16
g1
(g11
g12
(dtRp1841
sg18
g1
(g11
g12
(dtRp1842
sg20
g1
(g11
g12
(dtRp1843
sg22
g1
(g11
g12
(dtRp1844
sbsg24
S'Ctr'
p1845
sg26
g27
((lp1846
g29
ag30
aS'sequence'
p1847
ag32
ag33
aS'species'
p1848
atRp1849
sg37
(lp1850
sg120
g1801
sg121
S'RWLSTKDLYSRLELPGLNQNVHAMFVMPLGFGNPMGDMFARLNNSFWLPPLSLEGAGTGWTVYPPLSHSGPSVDLAFHLTSSLLGAINFTNMRGPLFWTALLLLSLPVLAGTLLDRNFNTFEGGDPLYHLFWFFGHPEVYIIPGFGSHSTYKKFGMYASIGLGFVWSHHMYVGLDDRAYFTSATMIAPTGIKFSWLATYGGRPMLAFLFLFTGGTGVLNASDAFHDSYYVVMAFSLGYYPYNLYWFMFGMPDAGWSSSYQLGPDEANE'
p1851
sg123
F0.00040000000000000002
sg124
g125
sg33
S'123'
p1852
sg127
g1
(g128
g12
(dp1853
g130
I4
sg131
g132
sg133
g134
sg135
g132
sg136
I01
sg34
g137
sg138
g134
sg139
I0
sg140
I0
sg141
I0
sg142
g134
sg35
g132
sg143
I0
stRp1854
sg145
g146
sg147
F1
sg148
Nsg30
S'CtropA'
p1855
sbasg120
g1788
sg123
F0.032030000000000003
sg124
g125
sg33
S'112'
p1856
sg127
g1
(g128
g12
(dp1857
g130
I8
sg131
g132
sg133
g134
sg135
g132
sg136
I01
sg34
g172
sg138
g134
sg139
I0
sg140
I0
sg141
I0
sg142
g134
sg35
g132
sg143
I0
stRp1858
sg145
g146
sg147
F0.98999999999999999
sg148
Nsg30
S'NoName'
p1859
sbag1
(g2
g3
NtRp1860
(dp1861
g6
g1
(g7
g3
NtRp1862
(dp1863
g10
g1
(g11
g12
(dtRp1864
sg14
g1
(g11
g12
(dtRp1865
sg16
g1
(g11
g12
(dtRp1866
sg18
g1
(g11
g12
(dtRp1867
sg20
g1
(g11
g12
(dtRp1868
sg22
g1
(g11
g12
(dtRp1869
sbsg24
S'Cso'
p1870
sg26
g27
((lp1871
g29
ag30
aS'sequence'
p1872
ag32
ag33
aS'species'
p1873
atRp1874
sg37
(lp1875
sg120
g1788
sg121
S'RWLSTKDLYSRLELPGLNQNVHAMFVMPLGFGNPMGDMFARLNNSFWLPPLSLEGAGTGWTVYPPLSHSGPSVDLAFHLTSSLLGAMNFTNMRGPLFWTALLLLSLPVLAGTLLDRNFNTFEGGDPLYHLFWFFGHPEVYIIPGFGSHSTYKKFGMYASIGLGFVWSHHMYVGLDDRAYFTSATMIAPTGIKFSWLATYGGRPMLAFLFLFTGGTGVLNASDAFHDTYYVVMAFSLGYYPYNLYWFMFGMPDAGWSSSYQLGPDEANE'
p1876
sg123
F0.033649999999999999
sg124
g125
sg33
S'134'
p1877
sg127
g1
(g128
g12
(dp1878
g130
I4
sg131
g132
sg133
g134
sg135
g132
sg136
I01
sg34
g137
sg138
g134
sg139
I0
sg140
I0
sg141
I0
sg142
g134
sg35
g132
sg143
I0
stRp1879
sg145
g146
sg147
F1
sg148
Nsg30
S'CsojaA'
p1880
sbasg120
g1775
sg123
F0.019990000000000001
sg124
g125
sg33
S'15'
p1881
sg127
g1
(g128
g12
(dp1882
g130
I8
sg131
g132
sg133
g134
sg135
g132
sg136
I01
sg34
g172
sg138
g134
sg139
I0
sg140
I0
sg141
I0
sg142
g134
sg35
g132
sg143
I0
stRp1883
sg145
g146
sg147
F0.98999999999999999
sg148
Nsg30
S'NoName'
p1884
sbag1
(g2
g3
NtRp1885
(dp1886
g6
g1
(g7
g3
NtRp1887
(dp1888
g10
g1
(g11
g12
(dtRp1889
sg14
g1
(g11
g12
(dtRp1890
sg16
g1
(g11
g12
(dtRp1891
sg18
g1
(g11
g12
(dtRp1892
sg20
g1
(g11
g12
(dtRp1893
sg22
g1
(g11
g12
(dtRp1894
sbsg24
g25
sg26
g27
((lp1895
g33
ag32
ag29
ag30
atRp1896
sg37
(lp1897
g1
(g2
g3
NtRp1898
(dp1899
g6
g1
(g7
g3
NtRp1900
(dp1901
g10
g1
(g11
g12
(dtRp1902
sg14
g1
(g11
g12
(dtRp1903
sg16
g1
(g11
g12
(dtRp1904
sg18
g1
(g11
g12
(dtRp1905
sg20
g1
(g11
g12
(dtRp1906
sg22
g1
(g11
g12
(dtRp1907
sbsg24
S'Cte'
p1908
sg26
g27
((lp1909
g29
ag30
aS'sequence'
p1910
ag32
ag33
aS'species'
p1911
atRp1912
sg37
(lp1913
sg120
g1885
sg121
S'RWLSTKDLYSRLELPGLNQNVHAMFVMPLGFGNPMGDMFARLNNSFWLPPLSLEGAGTGWTVYPPLSHSGPSVDMAFHLTSSLLGAINFTNMRGPLFWTALLLLSLPVLAGTLLDRNFNTFEGGDPLYHLFWFFGHPEVYIIPGFGSHSTYKKFGMYASIGLGFVWSHHMFVGLDDRAYFTSATMMAPTGIKFSWLATYGGRPMLAFLFLFTGGTGVLNASDSMHDTYYVVMAFSLGYYPYNLYWFMFGMPDAGWSSSLQLGPDESNE'
p1914
sg123
F0.084209999999999993
sg124
g125
sg33
S'91'
p1915
sg127
g1
(g128
g12
(dp1916
g130
I4
sg131
g132
sg133
g134
sg135
g132
sg136
I01
sg34
g137
sg138
g134
sg139
I0
sg140
I0
sg141
I0
sg142
g134
sg35
g132
sg143
I0
stRp1917
sg145
g146
sg147
F1
sg148
Nsg30
S'CtetrA'
p1918
sbag1
(g2
g3
NtRp1919
(dp1920
g6
g1
(g7
g3
NtRp1921
(dp1922
g10
g1
(g11
g12
(dtRp1923
sg14
g1
(g11
g12
(dtRp1924
sg16
g1
(g11
g12
(dtRp1925
sg18
g1
(g11
g12
(dtRp1926
sg20
g1
(g11
g12
(dtRp1927
sg22
g1
(g11
g12
(dtRp1928
sbsg24
g25
sg26
g27
((lp1929
g33
ag32
ag29
ag30
atRp1930
sg37
(lp1931
g1
(g2
g3
NtRp1932
(dp1933
g6
g1
(g7
g3
NtRp1934
(dp1935
g10
g1
(g11
g12
(dtRp1936
sg14
g1
(g11
g12
(dtRp1937
sg16
g1
(g11
g12
(dtRp1938
sg18
g1
(g11
g12
(dtRp1939
sg20
g1
(g11
g12
(dtRp1940
sg22
g1
(g11
g12
(dtRp1941
sbsg24
g25
sg26
g27
((lp1942
g33
ag32
ag29
ag30
atRp1943
sg37
(lp1944
g1
(g2
g3
NtRp1945
(dp1946
g6
g1
(g7
g3
NtRp1947
(dp1948
g10
g1
(g11
g12
(dtRp1949
sg14
g1
(g11
g12
(dtRp1950
sg16
g1
(g11
g12
(dtRp1951
sg18
g1
(g11
g12
(dtRp1952
sg20
g1
(g11
g12
(dtRp1953
sg22
g1
(g11
g12
(dtRp1954
sbsg24
S'Cvi'
p1955
sg26
g27
((lp1956
g29
ag30
aS'sequence'
p1957
ag32
ag33
aS'species'
p1958
atRp1959
sg37
(lp1960
sg120
g1932
sg121
S'RWFSTKDLYSRLELPGLNQNVHAMFVMPLGFGNPMGDMFARLNNSFWLPPLSLEGAGTGWTVYPPLSHSGPSVDLAFHLTSSLLGAINFTNMRGPLFWTALLLLSLPVLAGTLLDRNFNTFDGGDPLYHLFWFFGHPEVYMIPGFGSHSTYKKFGMYASIGLGFVWSHHMYVGLDDRAYFTSATMIAPTGIKFSWLSTYGGRPTLAFLFLFTGGTGVLNASDSMHDTYYVVMAFSLGYYPYNLYWFMFGMPDSGWSSSFQLGPDESNE'
p1961
sg123
F0.03977
sg124
g125
sg33
S'104'
p1962
sg127
g1
(g128
g12
(dp1963
g130
I4
sg131
g132
sg133
g134
sg135
g132
sg136
I01
sg34
g137
sg138
g134
sg139
I0
sg140
I0
sg141
I0
sg142
g134
sg35
g132
sg143
I0
stRp1964
sg145
g146
sg147
F1
sg148
Nsg30
S'CviswA'
p1965
sbag1
(g2
g3
NtRp1966
(dp1967
g6
g1
(g7
g3
NtRp1968
(dp1969
g10
g1
(g11
g12
(dtRp1970
sg14
g1
(g11
g12
(dtRp1971
sg16
g1
(g11
g12
(dtRp1972
sg18
g1
(g11
g12
(dtRp1973
sg20
g1
(g11
g12
(dtRp1974
sg22
g1
(g11
g12
(dtRp1975
sbsg24
S'Csa'
p1976
sg26
g27
((lp1977
g29
ag30
aS'sequence'
p1978
ag32
ag33
aS'species'
p1979
atRp1980
sg37
(lp1981
sg120
g1932
sg121
S'RWFSTKDLYSRLELPGLNQNVHAMFVMPLGFGNPMGDMFARLNNSFWLPPLSLEGAGTGWTVYPPLSHSGPSVDLAFHLTSSLLGAINFTNMRGVLFWTALLLLSLPVLAGTLLDRNFNTFDGGDPLYHLFWFFGHPEVYIIPGFGSHSTFKKFGMYASIGLGFVWSHHMYVGLDDRAYFTSATMIAPTGIKFSWIATYGGRPTLAFLFLFTGGTGVLNASDSMHDTYYVVMAFSLGYYPYNLYWFMFGMPDSGWSSSYQLGPDEGNE'
p1982
sg123
F0.065189999999999998
sg124
g125
sg33
S'51'
p1983
sg127
g1
(g128
g12
(dp1984
g130
I4
sg131
g132
sg133
g134
sg135
g132
sg136
I01
sg34
g137
sg138
g134
sg139
I0
sg140
I0
sg141
I0
sg142
g134
sg35
g132
sg143
I0
stRp1985
sg145
g146
sg147
F1
sg148
Nsg30
S'CsaraA'
p1986
sbasg120
g1919
sg123
F0.029960000000000001
sg124
g125
sg33
S'19'
p1987
sg127
g1
(g128
g12
(dp1988
g130
I8
sg131
g132
sg133
g134
sg135
g132
sg136
I01
sg34
g172
sg138
g134
sg139
I0
sg140
I0
sg141
I0
sg142
g134
sg35
g132
sg143
I0
stRp1989
sg145
g146
sg147
F0.98999999999999999
sg148
Nsg30
S'NoName'
p1990
sbag1
(g2
g3
NtRp1991
(dp1992
g6
g1
(g7
g3
NtRp1993
(dp1994
g10
g1
(g11
g12
(dtRp1995
sg14
g1
(g11
g12
(dtRp1996
sg16
g1
(g11
g12
(dtRp1997
sg18
g1
(g11
g12
(dtRp1998
sg20
g1
(g11
g12
(dtRp1999
sg22
g1
(g11
g12
(dtRp2000
sbsg24
S'Cpr'
p2001
sg26
g27
((lp2002
g29
ag30
aS'sequence'
p2003
ag32
ag33
aS'species'
p2004
atRp2005
sg37
(lp2006
sg120
g1919
sg121
S'RWFSTKDEYSRLELPGLNQNVHAMFVMPLGFGNPMGDMFARLNNSFWLPPLSLEGAGTGWTVYPPLSHSGPSVDLAFHLTSSLLGAINFTNMRGPLFWTALLLLSLPVLTGTLLDRNFNTFDGGDPLYHLFWFFGHPEVYMIPGFGSHSTYKKFGMYASMGLGFVWSHHMFVGLDDRAYFTSATMMAPTGIKFSWLATYGGRPMLAFLFLFTGGTGVLNASDSMHDTYYVVMAFSLGYYPYNLYWFMFGMPDSGWSSSVQLGPDENNE'
p2007
sg123
F0.17724999999999999
sg124
g125
sg33
S'78'
p2008
sg127
g1
(g128
g12
(dp2009
g130
I4
sg131
g132
sg133
g134
sg135
g132
sg136
I01
sg34
g137
sg138
g134
sg139
I0
sg140
I0
sg141
I0
sg142
g134
sg35
g132
sg143
I0
stRp2010
sg145
g146
sg147
F1
sg148
Nsg30
S'CpracA'
p2011
sbasg120
g1885
sg123
F0.02281
sg124
g125
sg33
S'72'
p2012
sg127
g1
(g128
g12
(dp2013
g130
I8
sg131
g132
sg133
g134
sg135
g132
sg136
I01
sg34
g172
sg138
g134
sg139
I0
sg140
I0
sg141
I0
sg142
g134
sg35
g132
sg143
I0
stRp2014
sg145
g146
sg147
F0.98999999999999999
sg148
Nsg30
S'NoName'
p2015
sbasg120
g1775
sg123
F0.01154
sg124
g125
sg33
S'74'
p2016
sg127
g1
(g128
g12
(dp2017
g130
I8
sg131
g132
sg133
g134
sg135
g132
sg136
I01
sg34
g172
sg138
g134
sg139
I0
sg140
I0
sg141
I0
sg142
g134
sg35
g132
sg143
I0
stRp2018
sg145
g146
sg147
F0.98999999999999999
sg148
Nsg30
S'NoName'
p2019
sbasg120
g1762
sg123
F0.02138
sg124
g125
sg33
S'95'
p2020
sg127
g1
(g128
g12
(dp2021
g130
I8
sg131
g132
sg133
g134
sg135
g132
sg136
I01
sg34
g172
sg138
g134
sg139
I0
sg140
I0
sg141
I0
sg142
g134
sg35
g132
sg143
I0
stRp2022
sg145
g146
sg147
F0.98999999999999999
sg148
Nsg30
S'NoName'
p2023
sbag1
(g2
g3
NtRp2024
(dp2025
g6
g1
(g7
g3
NtRp2026
(dp2027
g10
g1
(g11
g12
(dtRp2028
sg14
g1
(g11
g12
(dtRp2029
sg16
g1
(g11
g12
(dtRp2030
sg18
g1
(g11
g12
(dtRp2031
sg20
g1
(g11
g12
(dtRp2032
sg22
g1
(g11
g12
(dtRp2033
sbsg24
g25
sg26
g27
((lp2034
g33
ag32
ag29
ag30
atRp2035
sg37
(lp2036
g1
(g2
g3
NtRp2037
(dp2038
g6
g1
(g7
g3
NtRp2039
(dp2040
g10
g1
(g11
g12
(dtRp2041
sg14
g1
(g11
g12
(dtRp2042
sg16
g1
(g11
g12
(dtRp2043
sg18
g1
(g11
g12
(dtRp2044
sg20
g1
(g11
g12
(dtRp2045
sg22
g1
(g11
g12
(dtRp2046
sbsg24
S'Cne'
p2047
sg26
g27
((lp2048
g29
ag30
aS'sequence'
p2049
ag32
ag33
aS'species'
p2050
atRp2051
sg37
(lp2052
sg120
g2024
sg121
S'RWLSTKDLYSRLELPGLNQNVHAMFVMPLGFGNPMGDMFARLNNSFWLPPLSLEGAGTGWTVYPPLSHSGPSVDLAFHLTSSLLGAINFTNMRGPLFWTALLLLSLPVLAGTLLDRNFNTFDGGDPLYHLFWFFGHPEVYIIPGFGSHSTYKKFGMYASIGLGFVWSHHMYVGLDDRAYFTSATMIAPTGIKFSWLATYGGRPMLAFLFLFTGGTGVLNASDAFHDTYYVVMAFSLGYYPYNLYWFMFGMPDSGWSSSYQLGPDESNE'
p2053
sg123
F0.04879
sg124
g125
sg33
S'60'
p2054
sg127
g1
(g128
g12
(dp2055
g130
I4
sg131
g132
sg133
g134
sg135
g132
sg136
I01
sg34
g137
sg138
g134
sg139
I0
sg140
I0
sg141
I0
sg142
g134
sg35
g132
sg143
I0
stRp2056
sg145
g146
sg147
F1
sg148
Nsg30
S'CneerA'
p2057
sbag1
(g2
g3
NtRp2058
(dp2059
g6
g1
(g7
g3
NtRp2060
(dp2061
g10
g1
(g11
g12
(dtRp2062
sg14
g1
(g11
g12
(dtRp2063
sg16
g1
(g11
g12
(dtRp2064
sg18
g1
(g11
g12
(dtRp2065
sg20
g1
(g11
g12
(dtRp2066
sg22
g1
(g11
g12
(dtRp2067
sbsg24
S'Cfr'
p2068
sg26
g27
((lp2069
g29
ag30
aS'sequence'
p2070
ag32
ag33
aS'species'
p2071
atRp2072
sg37
(lp2073
sg120
g2024
sg121
S'RWLSTKDLYSRLELPGLNQNVHAMFVMPLGFGNPMGDMFARLNNSFWLPPLSLEGAGTGWTVYPPLSHSGPSVDLAFHLTSSLLGAMNFTNMRGPLFWTALLLLSLPVLAGTLLDRNFNTFDGGDPLYHLFWFFGHPEVYIIPGFGSHSTYKKFGMYASIGLGFVWSHHMYVGLDDRAYFTSATMIAPTGIKFSWLSTYGGRPMLAFLFLFTGGTGVLNASDAFHDTYYVVMAFSLGYYPYNLYWFMFGMPDSGWSSSYQLGPDESNE'
p2074
sg123
F0.050279999999999998
sg124
g125
sg33
S'48'
p2075
sg127
g1
(g128
g12
(dp2076
g130
I4
sg131
g132
sg133
g134
sg135
g132
sg136
I01
sg34
g137
sg138
g134
sg139
I0
sg140
I0
sg141
I0
sg142
g134
sg35
g132
sg143
I0
stRp2077
sg145
g146
sg147
F1
sg148
Nsg30
S'CfrijA'
p2078
sbasg120
g1762
sg123
F0.11378000000000001
sg124
g125
sg33
S'97'
p2079
sg127
g1
(g128
g12
(dp2080
g130
I8
sg131
g132
sg133
g134
sg135
g132
sg136
I01
sg34
g172
sg138
g134
sg139
I0
sg140
I0
sg141
I0
sg142
g134
sg35
g132
sg143
I0
stRp2081
sg145
g146
sg147
F0.98999999999999999
sg148
Nsg30
S'NoName'
p2082
sbasg120
g1728
sg123
F0.076910000000000006
sg124
g125
sg33
S'69'
p2083
sg127
g1
(g128
g12
(dp2084
g130
I8
sg131
g132
sg133
g134
sg135
g132
sg136
I01
sg34
g172
sg138
g134
sg139
I0
sg140
I0
sg141
I0
sg142
g134
sg35
g132
sg143
I0
stRp2085
sg145
g146
sg147
F0.98999999999999999
sg148
Nsg30
S'NoName'
p2086
sbasg120
g1715
sg123
F0.022950000000000002
sg124
g125
sg33
S'203'
p2087
sg127
g1
(g128
g12
(dp2088
g130
I8
sg131
g132
sg133
g134
sg135
g132
sg136
I01
sg34
g172
sg138
g134
sg139
I0
sg140
I0
sg141
I0
sg142
g134
sg35
g132
sg143
I0
stRp2089
sg145
g146
sg147
F0.65000000000000002
sg148
Nsg30
S'NoName'
p2090
sbag1
(g2
g3
NtRp2091
(dp2092
g6
g1
(g7
g3
NtRp2093
(dp2094
g10
g1
(g11
g12
(dtRp2095
sg14
g1
(g11
g12
(dtRp2096
sg16
g1
(g11
g12
(dtRp2097
sg18
g1
(g11
g12
(dtRp2098
sg20
g1
(g11
g12
(dtRp2099
sg22
g1
(g11
g12
(dtRp2100
sbsg24
g25
sg26
g27
((lp2101
g33
ag32
ag29
ag30
atRp2102
sg37
(lp2103
g1
(g2
g3
NtRp2104
(dp2105
g6
g1
(g7
g3
NtRp2106
(dp2107
g10
g1
(g11
g12
(dtRp2108
sg14
g1
(g11
g12
(dtRp2109
sg16
g1
(g11
g12
(dtRp2110
sg18
g1
(g11
g12
(dtRp2111
sg20
g1
(g11
g12
(dtRp2112
sg22
g1
(g11
g12
(dtRp2113
sbsg24
g25
sg26
g27
((lp2114
g33
ag32
ag29
ag30
atRp2115
sg37
(lp2116
g1
(g2
g3
NtRp2117
(dp2118
g6
g1
(g7
g3
NtRp2119
(dp2120
g10
g1
(g11
g12
(dtRp2121
sg14
g1
(g11
g12
(dtRp2122
sg16
g1
(g11
g12
(dtRp2123
sg18
g1
(g11
g12
(dtRp2124
sg20
g1
(g11
g12
(dtRp2125
sg22
g1
(g11
g12
(dtRp2126
sbsg24
S'Cgi'
p2127
sg26
g27
((lp2128
g29
ag30
aS'sequence'
p2129
ag32
ag33
aS'species'
p2130
atRp2131
sg37
(lp2132
sg120
g2104
sg121
S'RWLSTKDLYSRLELAGLNQNVHAMFVMPLGFGNPMGDMFARLNNSFWLPPLSLEGAGTGWTVYPPLSHSGPSVDMAFHLTSSLLGAINFTNMRGPLFWTALLLLSLPVLAATLLDRNFNTFEGGDPLYHAFWFFGHPEVYIIPGFGSHSTYKKFGMYASIGLGFVWSHHMYVGLDDRAYFTSATMIAPTGIKFSWLATYGGRPMLAFLFLFTGGTGVLNASDAFHDTYYVVMAFSLGYYPYNLYWFMFGMPDAGWSSSYQLGPDESNE'
p2133
sg123
F0.22796
sg124
g125
sg33
S'86'
p2134
sg127
g1
(g128
g12
(dp2135
g130
I4
sg131
g132
sg133
g134
sg135
g132
sg136
I01
sg34
g137
sg138
g134
sg139
I0
sg140
I0
sg141
I0
sg142
g134
sg35
g132
sg143
I0
stRp2136
sg145
g146
sg147
F1
sg148
Nsg30
S'CgigaA'
p2137
sbag1
(g2
g3
NtRp2138
(dp2139
g6
g1
(g7
g3
NtRp2140
(dp2141
g10
g1
(g11
g12
(dtRp2142
sg14
g1
(g11
g12
(dtRp2143
sg16
g1
(g11
g12
(dtRp2144
sg18
g1
(g11
g12
(dtRp2145
sg20
g1
(g11
g12
(dtRp2146
sg22
g1
(g11
g12
(dtRp2147
sbsg24
S'Cbu'
p2148
sg26
g27
((lp2149
g29
ag30
aS'sequence'
p2150
ag32
ag33
aS'species'
p2151
atRp2152
sg37
(lp2153
sg120
g2104
sg121
S'RWLSTKDLYSRLELAGLNQNVHAMFVMPLGFGNPMGDMFARLNNSFWLPPLSLEGAGTGWTVYPPLSHSGPSVDLAFHLTSSLLGAINFTNMRGPLFWTALLLLSLPVLAGTLLDRNFNTFEGGDPLYHLFWFFGHPEVYIIPGFGSHGTYKKFGMYASIGLGFVWSHHMFVGLDDRAYFTSATMIAPTGIKFSWLATYGGRPMLAFLFLFTGGTGVLNASDAFHDTYYVVMAFSLAYYPYNLFWFMFGMPDAGWSSSYQLGPDESNE'
p2154
sg123
F0.26118000000000002
sg124
g125
sg33
S'8'
sg127
g1
(g128
g12
(dp2155
g130
I4
sg131
g132
sg133
g134
sg135
g132
sg136
I01
sg34
g137
sg138
g134
sg139
I0
sg140
I0
sg141
I0
sg142
g134
sg35
g132
sg143
I0
stRp2156
sg145
g146
sg147
F1
sg148
Nsg30
S'CbuenA'
p2157
sbasg120
g2091
sg123
F0.037260000000000001
sg124
g125
sg33
S'5'
sg127
g1
(g128
g12
(dp2158
g130
I8
sg131
g132
sg133
g134
sg135
g132
sg136
I01
sg34
g172
sg138
g134
sg139
I0
sg140
I0
sg141
I0
sg142
g134
sg35
g132
sg143
I0
stRp2159
sg145
g146
sg147
F0.98999999999999999
sg148
Nsg30
S'NoName'
p2160
sbag1
(g2
g3
NtRp2161
(dp2162
g6
g1
(g7
g3
NtRp2163
(dp2164
g10
g1
(g11
g12
(dtRp2165
sg14
g1
(g11
g12
(dtRp2166
sg16
g1
(g11
g12
(dtRp2167
sg18
g1
(g11
g12
(dtRp2168
sg20
g1
(g11
g12
(dtRp2169
sg22
g1
(g11
g12
(dtRp2170
sbsg24
g25
sg26
g27
((lp2171
g33
ag32
ag29
ag30
atRp2172
sg37
(lp2173
g1
(g2
g3
NtRp2174
(dp2175
g6
g1
(g7
g3
NtRp2176
(dp2177
g10
g1
(g11
g12
(dtRp2178
sg14
g1
(g11
g12
(dtRp2179
sg16
g1
(g11
g12
(dtRp2180
sg18
g1
(g11
g12
(dtRp2181
sg20
g1
(g11
g12
(dtRp2182
sg22
g1
(g11
g12
(dtRp2183
sbsg24
S'Cdu'
p2184
sg26
g27
((lp2185
g29
ag30
aS'sequence'
p2186
ag32
ag33
aS'species'
p2187
atRp2188
sg37
(lp2189
sg120
g2161
sg121
S'RWLSTKDLYSRLELPGLNQNVHAMFVMPLGFGNPMGDMFARLNNSFWLPPLSLEGAGTGWTVYPPLSHSGPSVDLAFHLTSSLLGAINFTNMRGPLYWTALLLLSLPVLAGTLLDRNFNTFEGGDPLYHLFWFFGHPEVYIIPGFGSHSTYKKFGMYASIGLGFVWSHHMYVGLDDRAYFTSATMIAPTGIKFSWLATYGGRPMLAFLFLFTGGTGVLNASDAFHDTYYVVMAFSLGYYPYNLYWFMFGMPDAGWSSSYQLGPDESNE'
p2190
sg123
F0.025069999999999999
sg124
g125
sg33
S'35'
p2191
sg127
g1
(g128
g12
(dp2192
g130
I4
sg131
g132
sg133
g134
sg135
g132
sg136
I01
sg34
g137
sg138
g134
sg139
I0
sg140
I0
sg141
I0
sg142
g134
sg35
g132
sg143
I0
stRp2193
sg145
g146
sg147
F1
sg148
Nsg30
S'CdublA'
p2194
sbag1
(g2
g3
NtRp2195
(dp2196
g6
g1
(g7
g3
NtRp2197
(dp2198
g10
g1
(g11
g12
(dtRp2199
sg14
g1
(g11
g12
(dtRp2200
sg16
g1
(g11
g12
(dtRp2201
sg18
g1
(g11
g12
(dtRp2202
sg20
g1
(g11
g12
(dtRp2203
sg22
g1
(g11
g12
(dtRp2204
sbsg24
g25
sg26
g27
((lp2205
g33
ag32
ag29
ag30
atRp2206
sg37
(lp2207
g1
(g2
g3
NtRp2208
(dp2209
g6
g1
(g7
g3
NtRp2210
(dp2211
g10
g1
(g11
g12
(dtRp2212
sg14
g1
(g11
g12
(dtRp2213
sg16
g1
(g11
g12
(dtRp2214
sg18
g1
(g11
g12
(dtRp2215
sg20
g1
(g11
g12
(dtRp2216
sg22
g1
(g11
g12
(dtRp2217
sbsg24
g25
sg26
g27
((lp2218
g33
ag32
ag29
ag30
atRp2219
sg37
(lp2220
g1
(g2
g3
NtRp2221
(dp2222
g6
g1
(g7
g3
NtRp2223
(dp2224
g10
g1
(g11
g12
(dtRp2225
sg14
g1
(g11
g12
(dtRp2226
sg16
g1
(g11
g12
(dtRp2227
sg18
g1
(g11
g12
(dtRp2228
sg20
g1
(g11
g12
(dtRp2229
sg22
g1
(g11
g12
(dtRp2230
sbsg24
g25
sg26
g27
((lp2231
g33
ag32
ag29
ag30
atRp2232
sg37
(lp2233
g1
(g2
g3
NtRp2234
(dp2235
g6
g1
(g7
g3
NtRp2236
(dp2237
g10
g1
(g11
g12
(dtRp2238
sg14
g1
(g11
g12
(dtRp2239
sg16
g1
(g11
g12
(dtRp2240
sg18
g1
(g11
g12
(dtRp2241
sg20
g1
(g11
g12
(dtRp2242
sg22
g1
(g11
g12
(dtRp2243
sbsg24
g25
sg26
g27
((lp2244
g33
ag32
ag29
ag30
atRp2245
sg37
(lp2246
g1
(g2
g3
NtRp2247
(dp2248
g6
g1
(g7
g3
NtRp2249
(dp2250
g10
g1
(g11
g12
(dtRp2251
sg14
g1
(g11
g12
(dtRp2252
sg16
g1
(g11
g12
(dtRp2253
sg18
g1
(g11
g12
(dtRp2254
sg20
g1
(g11
g12
(dtRp2255
sg22
g1
(g11
g12
(dtRp2256
sbsg24
S'Cal'
p2257
sg26
g27
((lp2258
g29
ag30
aS'sequence'
p2259
ag32
ag33
aS'species'
p2260
atRp2261
sg37
(lp2262
sg120
g2234
sg121
S'RWLSTKDLYSRLELPGLNQNVHAMFVMPLGFGNPMGDMFARLNNSFWLPPLSLEGAGTGWTVYPPLSHSGPSVDLAFHLTSSLLGAINFTNMRGPLFWTALLLLSLPVLAGTLLDRNFNTFEGGDPLYHLFWFFGHPEVYIIPGFGSHSTYKKFGMYASIGLGFVWSHHMYVGLDDRAYFTSATMIAPTGIKFSWLATYGGRPMLAFLFLFTGGTGVLNASDAFHDTYYVVMAFSLGYYPYNLYWFMFGMPDAGWSSSYQLGPDESNE'
p2263
sg123
F0.00025000000000000001
sg124
g125
sg33
S'224'
p2264
sg127
g1
(g128
g12
(dp2265
g130
I4
sg131
g132
sg133
g134
sg135
g132
sg136
I01
sg34
g137
sg138
g134
sg139
I0
sg140
I0
sg141
I0
sg142
g134
sg35
g132
sg143
I0
stRp2266
sg145
g146
sg147
F1
sg148
Nsg30
S'CalbiE'
p2267
sbag1
(g2
g3
NtRp2268
(dp2269
g6
g1
(g7
g3
NtRp2270
(dp2271
g10
g1
(g11
g12
(dtRp2272
sg14
g1
(g11
g12
(dtRp2273
sg16
g1
(g11
g12
(dtRp2274
sg18
g1
(g11
g12
(dtRp2275
sg20
g1
(g11
g12
(dtRp2276
sg22
g1
(g11
g12
(dtRp2277
sbsg24
S'Cal'
p2278
sg26
g27
((lp2279
g29
ag30
aS'sequence'
p2280
ag32
ag33
aS'species'
p2281
atRp2282
sg37
(lp2283
sg120
g2234
sg121
S'RWLSTKDLYSRLELPGLNQNVHAMFVMPLGFGNPMGDMFARLNNSFWLPPLSLEGAGTGWTVYPPLSHSGPSVDLAFHLTSSLLGAINFTNMRGPLFWTALLLLSLPVLAGTLLDRNFNTFEGGDPLYHLFWFFGHPEVYIIPGFGSHSTYKKFGMYASIGLGFVWSHHMYVGLDDRAYFTSATMIAPTGIKFSWLATYGGRPMLAFLFLFTGGTGVLNASDAFHDTYYVVMAFSLGYYPYNLYWFMFGMPDAGWSSSYQLGPDESNE'
p2284
sg123
F0.00050000000000000001
sg124
g125
sg33
S'201'
p2285
sg127
g1
(g128
g12
(dp2286
g130
I4
sg131
g132
sg133
g134
sg135
g132
sg136
I01
sg34
g137
sg138
g134
sg139
I0
sg140
I0
sg141
I0
sg142
g134
sg35
g132
sg143
I0
stRp2287
sg145
g146
sg147
F1
sg148
Nsg30
S'CalbiD'
p2288
sbasg120
g2221
sg123
F0.00051999999999999995
sg124
g125
sg33
S'79'
p2289
sg127
g1
(g128
g12
(dp2290
g130
I8
sg131
g132
sg133
g134
sg135
g132
sg136
I01
sg34
g172
sg138
g134
sg139
I0
sg140
I0
sg141
I0
sg142
g134
sg35
g132
sg143
I0
stRp2291
sg145
g146
sg147
F0.73999999999999999
sg148
Nsg30
S'NoName'
p2292
sbag1
(g2
g3
NtRp2293
(dp2294
g6
g1
(g7
g3
NtRp2295
(dp2296
g10
g1
(g11
g12
(dtRp2297
sg14
g1
(g11
g12
(dtRp2298
sg16
g1
(g11
g12
(dtRp2299
sg18
g1
(g11
g12
(dtRp2300
sg20
g1
(g11
g12
(dtRp2301
sg22
g1
(g11
g12
(dtRp2302
sbsg24
S'Cal'
p2303
sg26
g27
((lp2304
g29
ag30
aS'sequence'
p2305
ag32
ag33
aS'species'
p2306
atRp2307
sg37
(lp2308
sg120
g2221
sg121
S'RWLSTKDLYSRLELPGLNQNVHAMFVMPLGFGNPMGDMFARLNNSFWLPPLSLEGAGTGWTVYPPLSHSGPSVDLAFHLTSSLLGAINFTNMRGPLFWTALLLLSLPVLAGTLLDRNFNTFEGGDPLYHLFWFFGHPEVYIIPGFGSHSTYKKFGMYASIGLGFVWSHHMYVGLDDRAYFTSATMIAPTGIKFSWLATYGGRPMLAFLFLFTGGTGVLNASDAFHDTYYVVMAFSLGYYPYNLYWFMFGMPDAGWSSSYQLGPDESNE'
p2309
sg123
F0.00012
sg124
g125
sg33
S'29'
p2310
sg127
g1
(g128
g12
(dp2311
g130
I4
sg131
g132
sg133
g134
sg135
g132
sg136
I01
sg34
g137
sg138
g134
sg139
I0
sg140
I0
sg141
I0
sg142
g134
sg35
g132
sg143
I0
stRp2312
sg145
g146
sg147
F1
sg148
Nsg30
S'CalbiC'
p2313
sbasg120
g2208
sg123
F1.0000000000000001e-05
sg124
g125
sg33
S'189'
p2314
sg127
g1
(g128
g12
(dp2315
g130
I8
sg131
g132
sg133
g134
sg135
g132
sg136
I01
sg34
g172
sg138
g134
sg139
I0
sg140
I0
sg141
I0
sg142
g134
sg35
g132
sg143
I0
stRp2316
sg145
g146
sg147
F1
sg148
Nsg30
S'NoName'
p2317
sbag1
(g2
g3
NtRp2318
(dp2319
g6
g1
(g7
g3
NtRp2320
(dp2321
g10
g1
(g11
g12
(dtRp2322
sg14
g1
(g11
g12
(dtRp2323
sg16
g1
(g11
g12
(dtRp2324
sg18
g1
(g11
g12
(dtRp2325
sg20
g1
(g11
g12
(dtRp2326
sg22
g1
(g11
g12
(dtRp2327
sbsg24
S'Cal'
p2328
sg26
g27
((lp2329
g29
ag30
aS'sequence'
p2330
ag32
ag33
aS'species'
p2331
atRp2332
sg37
(lp2333
sg120
g2208
sg121
S'RWLSTKDLYSRLELPGLNQNVHAMFVMPLGFGNPMGDMFARLNNSFWLPPLSLEGAGTGWTVYPPLSHSGPSVDLAFHLTSSLLGAINFTNMRGPLFWTALLLLSLPVLAGTLLDRNFNTFEGGDPLYHLFWFFGHPEVYIIPGFGSHSTYKKFGMYASIGLGFVWSHHMYVGLDDRAYFTSATMIAPTGIKFSWLATYGGRPMLAFLFLFTGGTGVLNASDAFHDTYYVVMAFSLGYYPYNLYWFMFGMPDAGWSSSYQLGPDESNE'
p2334
sg123
F0.00016000000000000001
sg124
g125
sg33
S'150'
p2335
sg127
g1
(g128
g12
(dp2336
g130
I4
sg131
g132
sg133
g134
sg135
g132
sg136
I01
sg34
g137
sg138
g134
sg139
I0
sg140
I0
sg141
I0
sg142
g134
sg35
g132
sg143
I0
stRp2337
sg145
g146
sg147
F1
sg148
Nsg30
S'CalbiB'
p2338
sbasg120
g2195
sg123
F1.0000000000000001e-05
sg124
g125
sg33
S'27'
p2339
sg127
g1
(g128
g12
(dp2340
g130
I8
sg131
g132
sg133
g134
sg135
g132
sg136
I01
sg34
g172
sg138
g134
sg139
I0
sg140
I0
sg141
I0
sg142
g134
sg35
g132
sg143
I0
stRp2341
sg145
g146
sg147
F1
sg148
Nsg30
S'NoName'
p2342
sbag1
(g2
g3
NtRp2343
(dp2344
g6
g1
(g7
g3
NtRp2345
(dp2346
g10
g1
(g11
g12
(dtRp2347
sg14
g1
(g11
g12
(dtRp2348
sg16
g1
(g11
g12
(dtRp2349
sg18
g1
(g11
g12
(dtRp2350
sg20
g1
(g11
g12
(dtRp2351
sg22
g1
(g11
g12
(dtRp2352
sbsg24
S'Cal'
p2353
sg26
g27
((lp2354
g29
ag30
aS'sequence'
p2355
ag32
ag33
aS'species'
p2356
atRp2357
sg37
(lp2358
sg120
g2195
sg121
S'RWLSTKDLYSRLELPGLNQNVHAMFVMPLGFGNPMGDMFARLNNSFWLPPLSLEGAGTGWTVYPPLSHSGPSVDLAFHLTSSLLGAINFTNMRGPLFWTALLLLSLPVLAGTLLDRNFNTFEGGDPLYHLFWFFGHPEVYIIPGFGSHSTYKKFGMYASIGLGFVWSHHMYVGLDDRAYFTSATMIAPTGIKFSWLATYGGRPMLAFLFLFTGGTGVLNASDAFHDTYYVVMAFSLGYYPYNLYWFMFGMPDAGWSSSYQLGPDESNE'
p2359
sg123
F0.00013999999999999999
sg124
g125
sg33
S'120'
p2360
sg127
g1
(g128
g12
(dp2361
g130
I4
sg131
g132
sg133
g134
sg135
g132
sg136
I01
sg34
g137
sg138
g134
sg139
I0
sg140
I0
sg141
I0
sg142
g134
sg35
g132
sg143
I0
stRp2362
sg145
g146
sg147
F1
sg148
Nsg30
S'CalbiA'
p2363
sbasg120
g2161
sg123
F0.014959999999999999
sg124
g125
sg33
S'7'
sg127
g1
(g128
g12
(dp2364
g130
I8
sg131
g132
sg133
g134
sg135
g132
sg136
I01
sg34
g172
sg138
g134
sg139
I0
sg140
I0
sg141
I0
sg142
g134
sg35
g132
sg143
I0
stRp2365
sg145
g146
sg147
F0.98999999999999999
sg148
Nsg30
S'NoName'
p2366
sbasg120
g2091
sg123
F0.05287
sg124
g125
sg33
S'2'
sg127
g1
(g128
g12
(dp2367
g130
I8
sg131
g132
sg133
g134
sg135
g132
sg136
I01
sg34
g172
sg138
g134
sg139
I0
sg140
I0
sg141
I0
sg142
g134
sg35
g132
sg143
I0
stRp2368
sg145
g146
sg147
F0.98999999999999999
sg148
Nsg30
S'NoName'
p2369
sbasg120
g1715
sg123
F0.037499999999999999
sg124
g125
sg33
S'83'
p2370
sg127
g1
(g128
g12
(dp2371
g130
I8
sg131
g132
sg133
g134
sg135
g132
sg136
I01
sg34
g172
sg138
g134
sg139
I0
sg140
I0
sg141
I0
sg142
g134
sg35
g132
sg143
I0
stRp2372
sg145
g146
sg147
F0.98999999999999999
sg148
Nsg30
S'NoName'
p2373
sbasg120
g997
sg123
F0.10766000000000001
sg124
g125
sg33
S'160'
p2374
sg127
g1
(g128
g12
(dp2375
g130
I8
sg131
g132
sg133
g134
sg135
g132
sg136
I01
sg34
g172
sg138
g134
sg139
I0
sg140
I0
sg141
I0
sg142
g134
sg35
g132
sg143
I0
stRp2376
sg145
g146
sg147
F0.98999999999999999
sg148
Nsg30
S'NoName'
p2377
sbasg120
g963
sg123
F0.093560000000000004
sg124
g125
sg33
S'204'
p2378
sg127
g1
(g128
g12
(dp2379
g130
I8
sg131
g132
sg133
g134
sg135
g132
sg136
I01
sg34
g172
sg138
g134
sg139
I0
sg140
I0
sg141
I0
sg142
g134
sg35
g132
sg143
I0
stRp2380
sg145
g146
sg147
F0.97999999999999998
sg148
Nsg30
S'NoName'
p2381
sbasg120
g950
sg123
F0.036760000000000001
sg124
g125
sg33
S'122'
p2382
sg127
g1
(g128
g12
(dp2383
g130
I8
sg131
g132
sg133
g134
sg135
g132
sg136
I01
sg34
g172
sg138
g134
sg139
I0
sg140
I0
sg141
I0
sg142
g134
sg35
g132
sg143
I0
stRp2384
sg145
g146
sg147
F0.97999999999999998
sg148
Nsg30
S'NoName'
p2385
sbag1
(g2
g3
NtRp2386
(dp2387
g6
g1
(g7
g3
NtRp2388
(dp2389
g10
g1
(g11
g12
(dtRp2390
sg14
g1
(g11
g12
(dtRp2391
sg16
g1
(g11
g12
(dtRp2392
sg18
g1
(g11
g12
(dtRp2393
sg20
g1
(g11
g12
(dtRp2394
sg22
g1
(g11
g12
(dtRp2395
sbsg24
g25
sg26
g27
((lp2396
g33
ag32
ag29
ag30
atRp2397
sg37
(lp2398
g1
(g2
g3
NtRp2399
(dp2400
g6
g1
(g7
g3
NtRp2401
(dp2402
g10
g1
(g11
g12
(dtRp2403
sg14
g1
(g11
g12
(dtRp2404
sg16
g1
(g11
g12
(dtRp2405
sg18
g1
(g11
g12
(dtRp2406
sg20
g1
(g11
g12
(dtRp2407
sg22
g1
(g11
g12
(dtRp2408
sbsg24
g25
sg26
g27
((lp2409
g33
ag32
ag29
ag30
atRp2410
sg37
(lp2411
g1
(g2
g3
NtRp2412
(dp2413
g6
g1
(g7
g3
NtRp2414
(dp2415
g10
g1
(g11
g12
(dtRp2416
sg14
g1
(g11
g12
(dtRp2417
sg16
g1
(g11
g12
(dtRp2418
sg18
g1
(g11
g12
(dtRp2419
sg20
g1
(g11
g12
(dtRp2420
sg22
g1
(g11
g12
(dtRp2421
sbsg24
S'Csu'
p2422
sg26
g27
((lp2423
g29
ag30
aS'sequence'
p2424
ag32
ag33
aS'species'
p2425
atRp2426
sg37
(lp2427
sg120
g2399
sg121
S'RWLSTKDLYSRMELPGLNQNVHAMFIMPLGLGNPLGDMFARLNNSFWLPPLSLEGAGTGWTVYPPLSHSGPSVDLAFHLTSSLLGAINFTNMRGPLYWTALLLLSLPVLAATLLDRNFNTFEGGDPLYHLFWFFGHPEVYIIPGFGSHSTYKKFGMYASIGLGFVWSHHMFVGLDDRAYFTSATMIAPTGVKFSWLATYGGRPMLAFLFLFTGGTGVINASDAFHDTYYIVMAFSLGFYPYNLFWFMFGMPDAGWSSAYQLGPDESNE'
p2428
sg123
F0.00012999999999999999
sg124
g125
sg33
S'146'
p2429
sg127
g1
(g128
g12
(dp2430
g130
I4
sg131
g132
sg133
g134
sg135
g132
sg136
I01
sg34
g137
sg138
g134
sg139
I0
sg140
I0
sg141
I0
sg142
g134
sg35
g132
sg143
I0
stRp2431
sg145
g146
sg147
F1
sg148
Nsg30
S'CsubhB'
p2432
sbag1
(g2
g3
NtRp2433
(dp2434
g6
g1
(g7
g3
NtRp2435
(dp2436
g10
g1
(g11
g12
(dtRp2437
sg14
g1
(g11
g12
(dtRp2438
sg16
g1
(g11
g12
(dtRp2439
sg18
g1
(g11
g12
(dtRp2440
sg20
g1
(g11
g12
(dtRp2441
sg22
g1
(g11
g12
(dtRp2442
sbsg24
S'Csu'
p2443
sg26
g27
((lp2444
g29
ag30
aS'sequence'
p2445
ag32
ag33
aS'species'
p2446
atRp2447
sg37
(lp2448
sg120
g2399
sg121
S'RWLSTKDLYSRMELPGLNQNVHAMFIMPLGLGNPLGDMFARLNNSFWLPPLSLEGAGTGWTVYPPLSHSGPSVDLAFHLTSSLLGAINFTNMRGPLYWTALLLLSLPVLAATLLDRNFNTFEGGDPLYHLFWFFGHPEVYIIPGFGSHSTYKKFGMYASIGLGFVWSHHMFVGLDDRAYFTSATMIAPTGVKFSWLATYGGRPMLAFLFLFTGGTGVINASDAFHDTYYIVMAFSLGFYPYNLFWFMFGMPDAGWSSAYQLGPDESNE'
p2449
sg123
F0.00013999999999999999
sg124
g125
sg33
S'76'
p2450
sg127
g1
(g128
g12
(dp2451
g130
I4
sg131
g132
sg133
g134
sg135
g132
sg136
I01
sg34
g137
sg138
g134
sg139
I0
sg140
I0
sg141
I0
sg142
g134
sg35
g132
sg143
I0
stRp2452
sg145
g146
sg147
F1
sg148
Nsg30
S'CsubhA'
p2453
sbasg120
g2386
sg123
F0.59348999999999996
sg124
g125
sg33
S'75'
p2454
sg127
g1
(g128
g12
(dp2455
g130
I8
sg131
g132
sg133
g134
sg135
g132
sg136
I01
sg34
g172
sg138
g134
sg139
I0
sg140
I0
sg141
I0
sg142
g134
sg35
g132
sg143
I0
stRp2456
sg145
g146
sg147
F1
sg148
Nsg30
S'NoName'
p2457
sbag1
(g2
g3
NtRp2458
(dp2459
g6
g1
(g7
g3
NtRp2460
(dp2461
g10
g1
(g11
g12
(dtRp2462
sg14
g1
(g11
g12
(dtRp2463
sg16
g1
(g11
g12
(dtRp2464
sg18
g1
(g11
g12
(dtRp2465
sg20
g1
(g11
g12
(dtRp2466
sg22
g1
(g11
g12
(dtRp2467
sbsg24
S'Cal'
p2468
sg26
g27
((lp2469
g29
ag30
aS'sequence'
p2470
ag32
ag33
aS'species'
p2471
atRp2472
sg37
(lp2473
sg120
g2386
sg121
S'RWLSTKDLYSRMELPGLNQNVHAMFVMPLGFGNPLGDMFARLNNSFWLPPLSLDGPGTGWTVYPPLSHSGASVDFAFHLTSSLLGAINFTNMRGPLFWTALLLLSLPVLVATLLDRNFNTFEGGDPLYHLFWFFGHPEVYMIPGFGSHSTYKKFGMYASIGLGFVWSHHMFVGLDDRAYFTSATMMAPTGIKFSWMATYGGYPMLAFLFLFTGGTGVINASDAFHDTYYIVMAFSLGYYPYNLFWFMFGMPDAGWSSAYQLGPDESNE'
p2474
sg123
F0.40044000000000002
sg124
g125
sg33
S'107'
p2475
sg127
g1
(g128
g12
(dp2476
g130
I4
sg131
g132
sg133
g134
sg135
g132
sg136
I01
sg34
g137
sg138
g134
sg139
I0
sg140
I0
sg141
I0
sg142
g134
sg35
g132
sg143
I0
stRp2477
sg145
g146
sg147
F1
sg148
Nsg30
S'CalaiA'
p2478
sbasg120
g950
sg123
F0.080810000000000007
sg124
g125
sg33
S'23'
p2479
sg127
g1
(g128
g12
(dp2480
g130
I8
sg131
g132
sg133
g134
sg135
g132
sg136
I01
sg34
g172
sg138
g134
sg139
I0
sg140
I0
sg141
I0
sg142
g134
sg35
g132
sg143
I0
stRp2481
sg145
g146
sg147
F0.98999999999999999
sg148
Nsg30
S'NoName'
p2482
sbasg120
g688
sg123
F0.075389999999999999
sg124
g125
sg33
S'124'
p2483
sg127
g1
(g128
g12
(dp2484
g130
I8
sg131
g132
sg133
g134
sg135
g132
sg136
I01
sg34
g172
sg138
g134
sg139
I0
sg140
I0
sg141
I0
sg142
g134
sg35
g132
sg143
I0
stRp2485
sg145
g146
sg147
F0.94999999999999996
sg148
Nsg30
S'NoName'
p2486
sbasg120
g675
sg123
F1.2542500000000001
sg124
g125
sg33
S'190'
p2487
sg127
g1
(g128
g12
(dp2488
g130
I8
sg131
g132
sg133
g134
sg135
g132
sg136
I01
sg34
g172
sg138
g134
sg139
I0
sg140
I0
sg141
I0
sg142
g134
sg35
g132
sg143
I0
stRp2489
sg145
g146
sg147
F0.97999999999999998
sg148
Nsg30
S'NoName'
p2490
sbag1
(g2
g3
NtRp2491
(dp2492
g6
g1
(g7
g3
NtRp2493
(dp2494
g10
g1
(g11
g12
(dtRp2495
sg14
g1
(g11
g12
(dtRp2496
sg16
g1
(g11
g12
(dtRp2497
sg18
g1
(g11
g12
(dtRp2498
sg20
g1
(g11
g12
(dtRp2499
sg22
g1
(g11
g12
(dtRp2500
sbsg24
g25
sg26
g27
((lp2501
g33
ag32
ag29
ag30
atRp2502
sg37
(lp2503
g1
(g2
g3
NtRp2504
(dp2505
g6
g1
(g7
g3
NtRp2506
(dp2507
g10
g1
(g11
g12
(dtRp2508
sg14
g1
(g11
g12
(dtRp2509
sg16
g1
(g11
g12
(dtRp2510
sg18
g1
(g11
g12
(dtRp2511
sg20
g1
(g11
g12
(dtRp2512
sg22
g1
(g11
g12
(dtRp2513
sbsg24
g25
sg26
g27
((lp2514
g33
ag32
ag29
ag30
atRp2515
sg37
(lp2516
g1
(g2
g3
NtRp2517
(dp2518
g6
g1
(g7
g3
NtRp2519
(dp2520
g10
g1
(g11
g12
(dtRp2521
sg14
g1
(g11
g12
(dtRp2522
sg16
g1
(g11
g12
(dtRp2523
sg18
g1
(g11
g12
(dtRp2524
sg20
g1
(g11
g12
(dtRp2525
sg22
g1
(g11
g12
(dtRp2526
sbsg24
S'Ppa'
p2527
sg26
g27
((lp2528
g29
ag30
aS'sequence'
p2529
ag32
ag33
aS'species'
p2530
atRp2531
sg37
(lp2532
sg120
g2504
sg121
S'RWLSTKDLYSRLELPGLNQNVHAMFVMPAGFGNPMGDMFARLNNSFWLPPLSLEGAGTGWTVYPPLAHSGPSVDLAFHLTSSLLGAMNFTNMRGPLFWTSLLLLSLPVLAGTLLDRNFNTFEGGDPLYHLFWFFGHPEVYIMPGFGSHSTYKKFGMYASIGLGLVWSHHMYVGLDDRAYFTSATMMAPTGMKFSWLATYGGRPMLAFLFLFTGGSGVLNASDAFHDTYYVILAFSLGYYPYNLFWFMFGMPDAGWSSSYQLGPDESND'
p2533
sg123
F0.16184999999999999
sg124
g125
sg33
S'140'
p2534
sg127
g1
(g128
g12
(dp2535
g130
I4
sg131
g132
sg133
g134
sg135
g132
sg136
I01
sg34
g137
sg138
g134
sg139
I0
sg140
I0
sg141
I0
sg142
g134
sg35
g132
sg143
I0
stRp2536
sg145
g146
sg147
F1
sg148
Nsg30
S'PpastA'
p2537
sbag1
(g2
g3
NtRp2538
(dp2539
g6
g1
(g7
g3
NtRp2540
(dp2541
g10
g1
(g11
g12
(dtRp2542
sg14
g1
(g11
g12
(dtRp2543
sg16
g1
(g11
g12
(dtRp2544
sg18
g1
(g11
g12
(dtRp2545
sg20
g1
(g11
g12
(dtRp2546
sg22
g1
(g11
g12
(dtRp2547
sbsg24
g25
sg26
g27
((lp2548
g33
ag32
ag29
ag30
atRp2549
sg37
(lp2550
g1
(g2
g3
NtRp2551
(dp2552
g6
g1
(g7
g3
NtRp2553
(dp2554
g10
g1
(g11
g12
(dtRp2555
sg14
g1
(g11
g12
(dtRp2556
sg16
g1
(g11
g12
(dtRp2557
sg18
g1
(g11
g12
(dtRp2558
sg20
g1
(g11
g12
(dtRp2559
sg22
g1
(g11
g12
(dtRp2560
sbsg24
S'Pta'
p2561
sg26
g27
((lp2562
g29
ag30
aS'sequence'
p2563
ag32
ag33
aS'species'
p2564
atRp2565
sg37
(lp2566
sg120
g2538
sg121
S'RWLSTKDLYSRLELPGLNQNVHAMFVMPAGFGNPMGDMFARLNNSFWLPPLSLEGAGTGWTVYPPLSHSGPSVDLAFHLTSSLLGGMNFTNMRGPLFWTSLLVLTLPVLAGTLLDRNFNTFEGGDPLYHLFWFFGHPEVYIIPGFGSHSAYKKFGMYASIGLGLVWSHHMYVGLDDRAYFTSATMIAPTGIKFSWLATYGGRPMLAFLFLFTGGSGVLNASDAFHDTYYVMLAFSLGYYPYNLFWFMFGMPDAGFSSSYQLGPDESNE'
p2567
sg123
F0.23080999999999999
sg124
g125
sg33
S'24'
p2568
sg127
g1
(g128
g12
(dp2569
g130
I4
sg131
g132
sg133
g134
sg135
g132
sg136
I01
sg34
g137
sg138
g134
sg139
I0
sg140
I0
sg141
I0
sg142
g134
sg35
g132
sg143
I0
stRp2570
sg145
g146
sg147
F1
sg148
Nsg30
S'PtannA'
p2571
sbag1
(g2
g3
NtRp2572
(dp2573
g6
g1
(g7
g3
NtRp2574
(dp2575
g10
g1
(g11
g12
(dtRp2576
sg14
g1
(g11
g12
(dtRp2577
sg16
g1
(g11
g12
(dtRp2578
sg18
g1
(g11
g12
(dtRp2579
sg20
g1
(g11
g12
(dtRp2580
sg22
g1
(g11
g12
(dtRp2581
sbsg24
g25
sg26
g27
((lp2582
g33
ag32
ag29
ag30
atRp2583
sg37
(lp2584
g1
(g2
g3
NtRp2585
(dp2586
g6
g1
(g7
g3
NtRp2587
(dp2588
g10
g1
(g11
g12
(dtRp2589
sg14
g1
(g11
g12
(dtRp2590
sg16
g1
(g11
g12
(dtRp2591
sg18
g1
(g11
g12
(dtRp2592
sg20
g1
(g11
g12
(dtRp2593
sg22
g1
(g11
g12
(dtRp2594
sbsg24
g25
sg26
g27
((lp2595
g33
ag32
ag29
ag30
atRp2596
sg37
(lp2597
g1
(g2
g3
NtRp2598
(dp2599
g6
g1
(g7
g3
NtRp2600
(dp2601
g10
g1
(g11
g12
(dtRp2602
sg14
g1
(g11
g12
(dtRp2603
sg16
g1
(g11
g12
(dtRp2604
sg18
g1
(g11
g12
(dtRp2605
sg20
g1
(g11
g12
(dtRp2606
sg22
g1
(g11
g12
(dtRp2607
sbsg24
S'Pkl'
p2608
sg26
g27
((lp2609
g29
ag30
aS'sequence'
p2610
ag32
ag33
aS'species'
p2611
atRp2612
sg37
(lp2613
sg120
g2585
sg121
S'RWLSTKDLYSRLELPGLNQNVHAMFMMPTGFGNPMGDMFARLNNSFWLPPLSLEGPGTGWTVYPPLSHSGPSVDLAFHLTSSLLGAMNFTNMRGPLFWTALLVMTLPVLAGTLLDRNFNTFEGGDPLYHLFWFFGHPEVYMMPGFGSHSTYKKFGMYASMGLGLVWSHHMYVGLDDRAYFTSATMMAPTGMKFSWLATYGGRPMLAFMFIFTGGSGVLNASDAFHDTYYVMLAFAMGYYPFNLFWFMFGMPDAGFSASYQLGPDESNE'
p2614
sg123
F0.12625
sg124
g125
sg33
S'130'
p2615
sg127
g1
(g128
g12
(dp2616
g130
I4
sg131
g132
sg133
g134
sg135
g132
sg136
I01
sg34
g137
sg138
g134
sg139
I0
sg140
I0
sg141
I0
sg142
g134
sg35
g132
sg143
I0
stRp2617
sg145
g146
sg147
F1
sg148
Nsg30
S'PkluyA'
p2618
sbag1
(g2
g3
NtRp2619
(dp2620
g6
g1
(g7
g3
NtRp2621
(dp2622
g10
g1
(g11
g12
(dtRp2623
sg14
g1
(g11
g12
(dtRp2624
sg16
g1
(g11
g12
(dtRp2625
sg18
g1
(g11
g12
(dtRp2626
sg20
g1
(g11
g12
(dtRp2627
sg22
g1
(g11
g12
(dtRp2628
sbsg24
S'Bcu'
p2629
sg26
g27
((lp2630
g29
ag30
aS'sequence'
p2631
ag32
ag33
aS'species'
p2632
atRp2633
sg37
(lp2634
sg120
g2585
sg121
S'RWLSTKDLYSRLELPGLDQNVHSMFMMPTGFGNPMGDMFARLNNAFWYPPLSLEGPGTGWTVYPPLSHSGPSMDLAFHLTSSMLSSMNFTNMRGPLFWTALLMMTLPVLAGTLLDRNFNTFEGGDPLYHLYWFFGHPEVYIIPVFGSHSNYKKFGMYASMGLGLVWSHHMYVGLDDRAYFTSATMIAPTGIKFSWLATYGGRPMLAFLFMFTGGSGVLNASDAFHDTYFVVLVYGVGYFPYNMFWFMFGMPDAGFSSAYQLGPDESNE'
p2635
sg123
F0.30854999999999999
sg124
g125
sg33
S'180'
p2636
sg127
g1
(g128
g12
(dp2637
g130
I4
sg131
g132
sg133
g134
sg135
g132
sg136
I01
sg34
g137
sg138
g134
sg139
I0
sg140
I0
sg141
I0
sg142
g134
sg35
g132
sg143
I0
stRp2638
sg145
g146
sg147
F1
sg148
Nsg30
S'BcustA'
p2639
sbasg120
g2572
sg123
F0.19120999999999999
sg124
g125
sg33
S'214'
p2640
sg127
g1
(g128
g12
(dp2641
g130
I8
sg131
g132
sg133
g134
sg135
g132
sg136
I01
sg34
g172
sg138
g134
sg139
I0
sg140
I0
sg141
I0
sg142
g134
sg35
g132
sg143
I0
stRp2642
sg145
g146
sg147
F0.98999999999999999
sg148
Nsg30
S'NoName'
p2643
sbag1
(g2
g3
NtRp2644
(dp2645
g6
g1
(g7
g3
NtRp2646
(dp2647
g10
g1
(g11
g12
(dtRp2648
sg14
g1
(g11
g12
(dtRp2649
sg16
g1
(g11
g12
(dtRp2650
sg18
g1
(g11
g12
(dtRp2651
sg20
g1
(g11
g12
(dtRp2652
sg22
g1
(g11
g12
(dtRp2653
sbsg24
S'Oan'
p2654
sg26
g27
((lp2655
g29
ag30
aS'sequence'
p2656
ag32
ag33
aS'species'
p2657
atRp2658
sg37
(lp2659
sg120
g2572
sg121
S'RWLSTKDLYSRLELPGLNQNAHAMFVMPAGFGNPMGDMFARLNNSFWLPPLSLEGAGTGWTVYPPLSHSGPSVDLAFHLTSSLLGAINFTNMRGPLFWTALLLLSLPVLAGTLLDRNFNTFEGGDPLYHLFWFFGHPEVYIIPGFGSHSTYKKFGMYASIGLGLVWSHHMYVGLDDRAYFTSATMIAPTGIKFSWIATYGGRPMLAFLFLFTGGSGVLNASDAFHDTYYVILAFSLGYYPYNLFWFMFGMPDAGYSSSYQLGPDESNE'
p2660
sg123
F0.025399999999999999
sg124
g125
sg33
S'14'
p2661
sg127
g1
(g128
g12
(dp2662
g130
I4
sg131
g132
sg133
g134
sg135
g132
sg136
I01
sg34
g137
sg138
g134
sg139
I0
sg140
I0
sg141
I0
sg142
g134
sg35
g132
sg143
I0
stRp2663
sg145
g146
sg147
F1
sg148
Nsg30
S'OanguA'
p2664
sbasg120
g2538
sg123
F0.33273999999999998
sg124
g125
sg33
S'90'
p2665
sg127
g1
(g128
g12
(dp2666
g130
I8
sg131
g132
sg133
g134
sg135
g132
sg136
I01
sg34
g172
sg138
g134
sg139
I0
sg140
I0
sg141
I0
sg142
g134
sg35
g132
sg143
I0
stRp2667
sg145
g146
sg147
F0.98999999999999999
sg148
Nsg30
S'NoName'
p2668
sbasg120
g2504
sg123
F0.054379999999999998
sg124
g125
sg33
S'77'
p2669
sg127
g1
(g128
g12
(dp2670
g130
I8
sg131
g132
sg133
g134
sg135
g132
sg136
I01
sg34
g172
sg138
g134
sg139
I0
sg140
I0
sg141
I0
sg142
g134
sg35
g132
sg143
I0
stRp2671
sg145
g146
sg147
F0.96999999999999997
sg148
Nsg30
S'NoName'
p2672
sbasg120
g2491
sg123
F0.76378000000000001
sg124
g125
sg33
S'220'
p2673
sg127
g1
(g128
g12
(dp2674
g130
I8
sg131
g132
sg133
g134
sg135
g132
sg136
I01
sg34
g172
sg138
g134
sg139
I0
sg140
I0
sg141
I0
sg142
g134
sg35
g132
sg143
I0
stRp2675
sg145
g146
sg147
F0.98999999999999999
sg148
Nsg30
S'NoName'
p2676
sbag1
(g2
g3
NtRp2677
(dp2678
g6
g1
(g7
g3
NtRp2679
(dp2680
g10
g1
(g11
g12
(dtRp2681
sg14
g1
(g11
g12
(dtRp2682
sg16
g1
(g11
g12
(dtRp2683
sg18
g1
(g11
g12
(dtRp2684
sg20
g1
(g11
g12
(dtRp2685
sg22
g1
(g11
g12
(dtRp2686
sbsg24
g25
sg26
g27
((lp2687
g33
ag32
ag29
ag30
atRp2688
sg37
(lp2689
g1
(g2
g3
NtRp2690
(dp2691
g6
g1
(g7
g3
NtRp2692
(dp2693
g10
g1
(g11
g12
(dtRp2694
sg14
g1
(g11
g12
(dtRp2695
sg16
g1
(g11
g12
(dtRp2696
sg18
g1
(g11
g12
(dtRp2697
sg20
g1
(g11
g12
(dtRp2698
sg22
g1
(g11
g12
(dtRp2699
sbsg24
g25
sg26
g27
((lp2700
g33
ag32
ag29
ag30
atRp2701
sg37
(lp2702
g1
(g2
g3
NtRp2703
(dp2704
g6
g1
(g7
g3
NtRp2705
(dp2706
g10
g1
(g11
g12
(dtRp2707
sg14
g1
(g11
g12
(dtRp2708
sg16
g1
(g11
g12
(dtRp2709
sg18
g1
(g11
g12
(dtRp2710
sg20
g1
(g11
g12
(dtRp2711
sg22
g1
(g11
g12
(dtRp2712
sbsg24
g25
sg26
g27
((lp2713
g33
ag32
ag29
ag30
atRp2714
sg37
(lp2715
g1
(g2
g3
NtRp2716
(dp2717
g6
g1
(g7
g3
NtRp2718
(dp2719
g10
g1
(g11
g12
(dtRp2720
sg14
g1
(g11
g12
(dtRp2721
sg16
g1
(g11
g12
(dtRp2722
sg18
g1
(g11
g12
(dtRp2723
sg20
g1
(g11
g12
(dtRp2724
sg22
g1
(g11
g12
(dtRp2725
sbsg24
g25
sg26
g27
((lp2726
g33
ag32
ag29
ag30
atRp2727
sg37
(lp2728
g1
(g2
g3
NtRp2729
(dp2730
g6
g1
(g7
g3
NtRp2731
(dp2732
g10
g1
(g11
g12
(dtRp2733
sg14
g1
(g11
g12
(dtRp2734
sg16
g1
(g11
g12
(dtRp2735
sg18
g1
(g11
g12
(dtRp2736
sg20
g1
(g11
g12
(dtRp2737
sg22
g1
(g11
g12
(dtRp2738
sbsg24
S'Cva'
p2739
sg26
g27
((lp2740
g29
ag30
aS'sequence'
p2741
ag32
ag33
aS'species'
p2742
atRp2743
sg37
(lp2744
sg120
g2716
sg121
S'RWLSTKDLYSRLELPGLNQNVHAMFVMPLGFGNPLGDMFARLNNSFWLPPLSLEGAGTGWTIYPPLSHSSPSVDLGFHLTSSLLGAINFTNMRGPLFWTAMLLLSLPVLAGTLLDRNFNTFEGGDPLYHLFWFFGHPEVYIIPGFGSHSTYKKFGMYASIALGFVWSHHMYVGLDDRAYFTSSTMIAPTGIKFSWLATYGGRPMLAFLFLFTGGTGVLNASDAFHDTYYVVMAFSLGYYPYNLFWFMFGMPDAGWSSSYQLGPDESNE'
p2745
sg123
F0.043270000000000003
sg124
g125
sg33
S'177'
p2746
sg127
g1
(g128
g12
(dp2747
g130
I4
sg131
g132
sg133
g134
sg135
g132
sg136
I01
sg34
g137
sg138
g134
sg139
I0
sg140
I0
sg141
I0
sg142
g134
sg35
g132
sg143
I0
stRp2748
sg145
g146
sg147
F1
sg148
Nsg30
S'CvartA'
p2749
sbag1
(g2
g3
NtRp2750
(dp2751
g6
g1
(g7
g3
NtRp2752
(dp2753
g10
g1
(g11
g12
(dtRp2754
sg14
g1
(g11
g12
(dtRp2755
sg16
g1
(g11
g12
(dtRp2756
sg18
g1
(g11
g12
(dtRp2757
sg20
g1
(g11
g12
(dtRp2758
sg22
g1
(g11
g12
(dtRp2759
sbsg24
g25
sg26
g27
((lp2760
g33
ag32
ag29
ag30
atRp2761
sg37
(lp2762
g1
(g2
g3
NtRp2763
(dp2764
g6
g1
(g7
g3
NtRp2765
(dp2766
g10
g1
(g11
g12
(dtRp2767
sg14
g1
(g11
g12
(dtRp2768
sg16
g1
(g11
g12
(dtRp2769
sg18
g1
(g11
g12
(dtRp2770
sg20
g1
(g11
g12
(dtRp2771
sg22
g1
(g11
g12
(dtRp2772
sbsg24
S'Csu'
p2773
sg26
g27
((lp2774
g29
ag30
aS'sequence'
p2775
ag32
ag33
aS'species'
p2776
atRp2777
sg37
(lp2778
sg120
g2750
sg121
S'RWLSTKDLYSRLELPGLNQNVHAMFVMPLGFGNPLGDMFARLNNSFWLPPLSLEGAGTGWTIYPPLSHSSPSVDLGFHLTSSMLGAINFTNMRGPLFWTAMLLLSLPVLAGTLLDRNFNTFEGGDPLYHLFWFFGHPEVYIIPGFGSHSTYKKFGMYASIALGFVWSHHMYVGLDDRAYFTSSTMIAPTGIKFSWLATYGGRPMLAFLFLFTGGTGVLNASDAFHDSYYY-MAFSLGYYPYNLFWFMFGMPDAGWSSSYQLGPDESNE'
p2779
sg123
F0.0043699999999999998
sg124
g125
sg33
S'208'
p2780
sg127
g1
(g128
g12
(dp2781
g130
I4
sg131
g132
sg133
g134
sg135
g132
sg136
I01
sg34
g137
sg138
g134
sg139
I0
sg140
I0
sg141
I0
sg142
g134
sg35
g132
sg143
I0
stRp2782
sg145
g146
sg147
F1
sg148
Nsg30
S'CsuavB'
p2783
sbag1
(g2
g3
NtRp2784
(dp2785
g6
g1
(g7
g3
NtRp2786
(dp2787
g10
g1
(g11
g12
(dtRp2788
sg14
g1
(g11
g12
(dtRp2789
sg16
g1
(g11
g12
(dtRp2790
sg18
g1
(g11
g12
(dtRp2791
sg20
g1
(g11
g12
(dtRp2792
sg22
g1
(g11
g12
(dtRp2793
sbsg24
S'Csu'
p2794
sg26
g27
((lp2795
g29
ag30
aS'sequence'
p2796
ag32
ag33
aS'species'
p2797
atRp2798
sg37
(lp2799
sg120
g2750
sg121
S'RWLSTKDLYSRLELPGLNQNVHAMFVMPLGFGNPLGDMFARLNNSFWLPPLSLEGAGTGWTIYPPLSHSSPSVDLGFHLTSSLLGAINFTNMRGPLFWTAMLLLSLPVLAGTLLDRNFNTFEGGDPLYHLFWFFGHPEVYIIPGFGSHSTYKKFGMYASIALGFVWSHHMYVGLDDRAYFTSSTMIAPTGIKFSWLATYGGRPMLAFLFLFTGGTGVLNASDAFHDTYYVVMAFSLGYYPYNLFWFMFGMPDAGWSSSYQLGPDESNE'
p2800
sg123
F0.0025999999999999999
sg124
g125
sg33
S'68'
p2801
sg127
g1
(g128
g12
(dp2802
g130
I4
sg131
g132
sg133
g134
sg135
g132
sg136
I01
sg34
g137
sg138
g134
sg139
I0
sg140
I0
sg141
I0
sg142
g134
sg35
g132
sg143
I0
stRp2803
sg145
g146
sg147
F1
sg148
Nsg30
S'CsuavA'
p2804
sbasg120
g2716
sg123
F0.016740000000000001
sg124
g125
sg33
S'25'
p2805
sg127
g1
(g128
g12
(dp2806
g130
I8
sg131
g132
sg133
g134
sg135
g132
sg136
I01
sg34
g172
sg138
g134
sg139
I0
sg140
I0
sg141
I0
sg142
g134
sg35
g132
sg143
I0
stRp2807
sg145
g146
sg147
F0.98999999999999999
sg148
Nsg30
S'NoName'
p2808
sbasg120
g2703
sg123
F0.01158
sg124
g125
sg33
S'6'
sg127
g1
(g128
g12
(dp2809
g130
I8
sg131
g132
sg133
g134
sg135
g132
sg136
I01
sg34
g172
sg138
g134
sg139
I0
sg140
I0
sg141
I0
sg142
g134
sg35
g132
sg143
I0
stRp2810
sg145
g146
sg147
F0.97999999999999998
sg148
Nsg30
S'NoName'
p2811
sbag1
(g2
g3
NtRp2812
(dp2813
g6
g1
(g7
g3
NtRp2814
(dp2815
g10
g1
(g11
g12
(dtRp2816
sg14
g1
(g11
g12
(dtRp2817
sg16
g1
(g11
g12
(dtRp2818
sg18
g1
(g11
g12
(dtRp2819
sg20
g1
(g11
g12
(dtRp2820
sg22
g1
(g11
g12
(dtRp2821
sbsg24
S'Cja'
p2822
sg26
g27
((lp2823
g29
ag30
aS'sequence'
p2824
ag32
ag33
aS'species'
p2825
atRp2826
sg37
(lp2827
sg120
g2703
sg121
S'RWLSTKDLYSRLELPGLNQNVHAMFVMPLGFGNPLGDMFARLNNSFWLPPLSLEGAGTGWTIYPPLAHSSPSVDLGFHLTSSLLGAINFTNMRGPLFWTAMLLLSLPVLAGTLLDRNFNTFEGGDPLYHLFWFFGHPEVYIIPGFGSHSTYKKFGMYASIALGFVWSHHMYVGLDDRAYFTSSTMIAPTGIKFSWLATYGGRPMLAFLFLFTGGTGVLNASDAFHDTYYVVMAFSLGYYPYNLFWFMFGMPDAGWSSSYQLGPDESNE'
p2828
sg123
F0.033799999999999997
sg124
g125
sg33
S'162'
p2829
sg127
g1
(g128
g12
(dp2830
g130
I4
sg131
g132
sg133
g134
sg135
g132
sg136
I01
sg34
g137
sg138
g134
sg139
I0
sg140
I0
sg141
I0
sg142
g134
sg35
g132
sg143
I0
stRp2831
sg145
g146
sg147
F1
sg148
Nsg30
S'CjadiA'
p2832
sbasg120
g2690
sg123
F0.10375
sg124
g125
sg33
S'40'
p2833
sg127
g1
(g128
g12
(dp2834
g130
I8
sg131
g132
sg133
g134
sg135
g132
sg136
I01
sg34
g172
sg138
g134
sg139
I0
sg140
I0
sg141
I0
sg142
g134
sg35
g132
sg143
I0
stRp2835
sg145
g146
sg147
F0.98999999999999999
sg148
Nsg30
S'NoName'
p2836
sbag1
(g2
g3
NtRp2837
(dp2838
g6
g1
(g7
g3
NtRp2839
(dp2840
g10
g1
(g11
g12
(dtRp2841
sg14
g1
(g11
g12
(dtRp2842
sg16
g1
(g11
g12
(dtRp2843
sg18
g1
(g11
g12
(dtRp2844
sg20
g1
(g11
g12
(dtRp2845
sg22
g1
(g11
g12
(dtRp2846
sbsg24
g25
sg26
g27
((lp2847
g33
ag32
ag29
ag30
atRp2848
sg37
(lp2849
g1
(g2
g3
NtRp2850
(dp2851
g6
g1
(g7
g3
NtRp2852
(dp2853
g10
g1
(g11
g12
(dtRp2854
sg14
g1
(g11
g12
(dtRp2855
sg16
g1
(g11
g12
(dtRp2856
sg18
g1
(g11
g12
(dtRp2857
sg20
g1
(g11
g12
(dtRp2858
sg22
g1
(g11
g12
(dtRp2859
sbsg24
g25
sg26
g27
((lp2860
g33
ag32
ag29
ag30
atRp2861
sg37
(lp2862
g1
(g2
g3
NtRp2863
(dp2864
g6
g1
(g7
g3
NtRp2865
(dp2866
g10
g1
(g11
g12
(dtRp2867
sg14
g1
(g11
g12
(dtRp2868
sg16
g1
(g11
g12
(dtRp2869
sg18
g1
(g11
g12
(dtRp2870
sg20
g1
(g11
g12
(dtRp2871
sg22
g1
(g11
g12
(dtRp2872
sbsg24
S'Wpi'
p2873
sg26
g27
((lp2874
g29
ag30
aS'sequence'
p2875
ag32
ag33
aS'species'
p2876
atRp2877
sg37
(lp2878
sg120
g2850
sg121
S'RWLSTKDLYSRLELPGLNQNVHAMFVMPLGFGNPLGDMFARLNNSFWLPPLSLEGAGTGWTIYPPLSHSSPSVDLGFHLTSSLLGAINFTNMRGPLFWTAMLLLSLPVLAGTLLDRNFNTFEGGDPLYHLFWFFGHPEVYIIPGFGSHSTYKKFGMYASIALGFVWSHHMYVGLDDRAYFTSSTMIAPTGIKFSWLATYGGRPMLAFLFLFTGGTGVLNASDAFHDTYYVVMAFSLGYYPYNLFWFMFGMPDAGWSSSFQLGPDESNE'
p2879
sg123
F0.051209999999999999
sg124
g125
sg33
S'100'
p2880
sg127
g1
(g128
g12
(dp2881
g130
I4
sg131
g132
sg133
g134
sg135
g132
sg136
I01
sg34
g137
sg138
g134
sg139
I0
sg140
I0
sg141
I0
sg142
g134
sg35
g132
sg143
I0
stRp2882
sg145
g146
sg147
F1
sg148
Nsg30
S'WpijpA'
p2883
sbag1
(g2
g3
NtRp2884
(dp2885
g6
g1
(g7
g3
NtRp2886
(dp2887
g10
g1
(g11
g12
(dtRp2888
sg14
g1
(g11
g12
(dtRp2889
sg16
g1
(g11
g12
(dtRp2890
sg18
g1
(g11
g12
(dtRp2891
sg20
g1
(g11
g12
(dtRp2892
sg22
g1
(g11
g12
(dtRp2893
sbsg24
S'Wmu'
p2894
sg26
g27
((lp2895
g29
ag30
aS'sequence'
p2896
ag32
ag33
aS'species'
p2897
atRp2898
sg37
(lp2899
sg120
g2850
sg121
S'RWLSTKDLYSRLELPGLNQNVHAMFVMPLGFGNPLGDMFARLNNSFWLPPLSLEGAGTGWTIYPPLAHSSPSVDLGFHLTSSLLGAINFTNMRGPLFWTAMLLLSLPVLAGTLLDRNFNTFEGGDPLYHLFWFFGHPEVYIIPGFGSHSTYKKFGMYASIALGFVWSHHMYVGLDDRAYFTSSTMIAPTGIKFSWLATYGGRPMLAFLFLFTGGTGVLNASDAFHDTYYVVMAFSLGYYPYNLFWFMFGMPDAGWSSSYQLGPDESNE'
p2900
sg123
F0.079170000000000004
sg124
g125
sg33
S'209'
p2901
sg127
g1
(g128
g12
(dp2902
g130
I4
sg131
g132
sg133
g134
sg135
g132
sg136
I01
sg34
g137
sg138
g134
sg139
I0
sg140
I0
sg141
I0
sg142
g134
sg35
g132
sg143
I0
stRp2903
sg145
g146
sg147
F1
sg148
Nsg30
S'WmucoA'
p2904
sbasg120
g2837
sg123
F0.14757000000000001
sg124
g125
sg33
S'174'
p2905
sg127
g1
(g128
g12
(dp2906
g130
I8
sg131
g132
sg133
g134
sg135
g132
sg136
I01
sg34
g172
sg138
g134
sg139
I0
sg140
I0
sg141
I0
sg142
g134
sg35
g132
sg143
I0
stRp2907
sg145
g146
sg147
F0.98999999999999999
sg148
Nsg30
S'NoName'
p2908
sbag1
(g2
g3
NtRp2909
(dp2910
g6
g1
(g7
g3
NtRp2911
(dp2912
g10
g1
(g11
g12
(dtRp2913
sg14
g1
(g11
g12
(dtRp2914
sg16
g1
(g11
g12
(dtRp2915
sg18
g1
(g11
g12
(dtRp2916
sg20
g1
(g11
g12
(dtRp2917
sg22
g1
(g11
g12
(dtRp2918
sbsg24
g25
sg26
g27
((lp2919
g33
ag32
ag29
ag30
atRp2920
sg37
(lp2921
g1
(g2
g3
NtRp2922
(dp2923
g6
g1
(g7
g3
NtRp2924
(dp2925
g10
g1
(g11
g12
(dtRp2926
sg14
g1
(g11
g12
(dtRp2927
sg16
g1
(g11
g12
(dtRp2928
sg18
g1
(g11
g12
(dtRp2929
sg20
g1
(g11
g12
(dtRp2930
sg22
g1
(g11
g12
(dtRp2931
sbsg24
S'Pca'
p2932
sg26
g27
((lp2933
g29
ag30
aS'sequence'
p2934
ag32
ag33
aS'species'
p2935
atRp2936
sg37
(lp2937
sg120
g2909
sg121
S'RWLSTKDLYSRLELPGLNQNVHAMFVMPLGFGNPLGDMFARLNNSFWLPPLSLEWAGTGWTIYPPLSHSSPSVDLGFHLTSSLLGAINFTNMRGPLFWTAMLLLSLPVLAGTLLDRNFNTFEGGDPLYHLFWFFGHPEVYIIPGFGSHSTYKKFGMYASIALGFVWSHHMYVGLDDRAYFTSSTMIAPTGIKFSWLATYGGRPMLAFLFLFTGGTGVLNASDAFHDTYYVVMAFSLGYYPFNLFWFMFGMPDAGWSSSYQLGPDESNE'
p2938
sg123
F0.10655000000000001
sg124
g125
sg33
S'61'
p2939
sg127
g1
(g128
g12
(dp2940
g130
I4
sg131
g132
sg133
g134
sg135
g132
sg136
I01
sg34
g137
sg138
g134
sg139
I0
sg140
I0
sg141
I0
sg142
g134
sg35
g132
sg143
I0
stRp2941
sg145
g146
sg147
F1
sg148
Nsg30
S'PcanaA'
p2942
sbag1
(g2
g3
NtRp2943
(dp2944
g6
g1
(g7
g3
NtRp2945
(dp2946
g10
g1
(g11
g12
(dtRp2947
sg14
g1
(g11
g12
(dtRp2948
sg16
g1
(g11
g12
(dtRp2949
sg18
g1
(g11
g12
(dtRp2950
sg20
g1
(g11
g12
(dtRp2951
sg22
g1
(g11
g12
(dtRp2952
sbsg24
g25
sg26
g27
((lp2953
g33
ag32
ag29
ag30
atRp2954
sg37
(lp2955
g1
(g2
g3
NtRp2956
(dp2957
g6
g1
(g7
g3
NtRp2958
(dp2959
g10
g1
(g11
g12
(dtRp2960
sg14
g1
(g11
g12
(dtRp2961
sg16
g1
(g11
g12
(dtRp2962
sg18
g1
(g11
g12
(dtRp2963
sg20
g1
(g11
g12
(dtRp2964
sg22
g1
(g11
g12
(dtRp2965
sbsg24
S'Cno'
p2966
sg26
g27
((lp2967
g29
ag30
aS'sequence'
p2968
ag32
ag33
aS'species'
p2969
atRp2970
sg37
(lp2971
sg120
g2943
sg121
S'RWLSTKDLYSRLELPGLNQNVHAMFVMPLGFGNPLGDMFARLNNSFWLPPLSLEGAGTGWTIYPPLSHSSPSVDLGFHLTSSLLGAMNFTNMRGPLFWTAMLLLSLPVLAGTLLDRNFNTFEGGDPLYHLFWFFGHPEVYMIPGFGSHSTYKKFGMYASMALGFVWSHHMYVGLDDRAYFTSSTMMAPTGMKFSWLATYGGRPMLAFLFLFTGGTGVLNASDAFHDTYYVVMAFSLGYYPYNLFWFMFGMPDAGWSSSYQLGPDESNE'
p2972
sg123
F0.059069999999999998
sg124
g125
sg33
S'110'
p2973
sg127
g1
(g128
g12
(dp2974
g130
I4
sg131
g132
sg133
g134
sg135
g132
sg136
I01
sg34
g137
sg138
g134
sg139
I0
sg140
I0
sg141
I0
sg142
g134
sg35
g132
sg143
I0
stRp2975
sg145
g146
sg147
F1
sg148
Nsg30
S'CnorvA'
p2976
sbag1
(g2
g3
NtRp2977
(dp2978
g6
g1
(g7
g3
NtRp2979
(dp2980
g10
g1
(g11
g12
(dtRp2981
sg14
g1
(g11
g12
(dtRp2982
sg16
g1
(g11
g12
(dtRp2983
sg18
g1
(g11
g12
(dtRp2984
sg20
g1
(g11
g12
(dtRp2985
sg22
g1
(g11
g12
(dtRp2986
sbsg24
S'Bca'
p2987
sg26
g27
((lp2988
g29
ag30
aS'sequence'
p2989
ag32
ag33
aS'species'
p2990
atRp2991
sg37
(lp2992
sg120
g2943
sg121
S'RWLSTKDLYSRLELPGLNQNVHAMFVMPLGFGNPLGDMFARLNNSFWLPPLSLEGAGTGWTIYPPLSHSSPSVDLGFHLTSSLLGAINFTNMRGPLFWTAMLLLSLPVLAGTLLDRNFNTFEGGDPLYHLFWFFGHPEVYIMPGFGSHSTYKKFGMYASIALGFVWSHHMYVGLDDRAYFTSSTMIAPTGIKFSWLATYGGRPMLAFLFLFTGGTGVLNASDAFHDTYYVVMAFSLGYYPYNLFWFMFGMPDAGWSSSYQLGPDESNE'
p2993
sg123
F0.031899999999999998
sg124
g125
sg33
S'88'
p2994
sg127
g1
(g128
g12
(dp2995
g130
I4
sg131
g132
sg133
g134
sg135
g132
sg136
I01
sg34
g137
sg138
g134
sg139
I0
sg140
I0
sg141
I0
sg142
g134
sg35
g132
sg143
I0
stRp2996
sg145
g146
sg147
F1
sg148
Nsg30
S'BcaliA'
p2997
sbasg120
g2909
sg123
F0.09486
sg124
g125
sg33
S'4'
sg127
g1
(g128
g12
(dp2998
g130
I8
sg131
g132
sg133
g134
sg135
g132
sg136
I01
sg34
g172
sg138
g134
sg139
I0
sg140
I0
sg141
I0
sg142
g134
sg35
g132
sg143
I0
stRp2999
sg145
g146
sg147
F0.97999999999999998
sg148
Nsg30
S'NoName'
p3000
sbasg120
g2837
sg123
F0.054690000000000003
sg124
g125
sg33
S'197'
p3001
sg127
g1
(g128
g12
(dp3002
g130
I8
sg131
g132
sg133
g134
sg135
g132
sg136
I01
sg34
g172
sg138
g134
sg139
I0
sg140
I0
sg141
I0
sg142
g134
sg35
g132
sg143
I0
stRp3003
sg145
g146
sg147
F0.96999999999999997
sg148
Nsg30
S'NoName'
p3004
sbasg120
g2690
sg123
F0.051860000000000003
sg124
g125
sg33
S'153'
p3005
sg127
g1
(g128
g12
(dp3006
g130
I8
sg131
g132
sg133
g134
sg135
g132
sg136
I01
sg34
g172
sg138
g134
sg139
I0
sg140
I0
sg141
I0
sg142
g134
sg35
g132
sg143
I0
stRp3007
sg145
g146
sg147
F0.96999999999999997
sg148
Nsg30
S'NoName'
p3008
sbasg120
g2677
sg123
F0.52095999999999998
sg124
g125
sg33
S'193'
p3009
sg127
g1
(g128
g12
(dp3010
g130
I8
sg131
g132
sg133
g134
sg135
g132
sg136
I01
sg34
g172
sg138
g134
sg139
I0
sg140
I0
sg141
I0
sg142
g134
sg35
g132
sg143
I0
stRp3011
sg145
g146
sg147
F0.98999999999999999
sg148
Nsg30
S'NoName'
p3012
sbag1
(g2
g3
NtRp3013
(dp3014
g6
g1
(g7
g3
NtRp3015
(dp3016
g10
g1
(g11
g12
(dtRp3017
sg14
g1
(g11
g12
(dtRp3018
sg16
g1
(g11
g12
(dtRp3019
sg18
g1
(g11
g12
(dtRp3020
sg20
g1
(g11
g12
(dtRp3021
sg22
g1
(g11
g12
(dtRp3022
sbsg24
g25
sg26
g27
((lp3023
g33
ag32
ag29
ag30
atRp3024
sg37
(lp3025
g1
(g2
g3
NtRp3026
(dp3027
g6
g1
(g7
g3
NtRp3028
(dp3029
g10
g1
(g11
g12
(dtRp3030
sg14
g1
(g11
g12
(dtRp3031
sg16
g1
(g11
g12
(dtRp3032
sg18
g1
(g11
g12
(dtRp3033
sg20
g1
(g11
g12
(dtRp3034
sg22
g1
(g11
g12
(dtRp3035
sbsg24
g25
sg26
g27
((lp3036
g33
ag32
ag29
ag30
atRp3037
sg37
(lp3038
g1
(g2
g3
NtRp3039
(dp3040
g6
g1
(g7
g3
NtRp3041
(dp3042
g10
g1
(g11
g12
(dtRp3043
sg14
g1
(g11
g12
(dtRp3044
sg16
g1
(g11
g12
(dtRp3045
sg18
g1
(g11
g12
(dtRp3046
sg20
g1
(g11
g12
(dtRp3047
sg22
g1
(g11
g12
(dtRp3048
sbsg24
g25
sg26
g27
((lp3049
g33
ag32
ag29
ag30
atRp3050
sg37
(lp3051
g1
(g2
g3
NtRp3052
(dp3053
g6
g1
(g7
g3
NtRp3054
(dp3055
g10
g1
(g11
g12
(dtRp3056
sg14
g1
(g11
g12
(dtRp3057
sg16
g1
(g11
g12
(dtRp3058
sg18
g1
(g11
g12
(dtRp3059
sg20
g1
(g11
g12
(dtRp3060
sg22
g1
(g11
g12
(dtRp3061
sbsg24
g25
sg26
g27
((lp3062
g33
ag32
ag29
ag30
atRp3063
sg37
(lp3064
g1
(g2
g3
NtRp3065
(dp3066
g6
g1
(g7
g3
NtRp3067
(dp3068
g10
g1
(g11
g12
(dtRp3069
sg14
g1
(g11
g12
(dtRp3070
sg16
g1
(g11
g12
(dtRp3071
sg18
g1
(g11
g12
(dtRp3072
sg20
g1
(g11
g12
(dtRp3073
sg22
g1
(g11
g12
(dtRp3074
sbsg24
g25
sg26
g27
((lp3075
g33
ag32
ag29
ag30
atRp3076
sg37
(lp3077
g1
(g2
g3
NtRp3078
(dp3079
g6
g1
(g7
g3
NtRp3080
(dp3081
g10
g1
(g11
g12
(dtRp3082
sg14
g1
(g11
g12
(dtRp3083
sg16
g1
(g11
g12
(dtRp3084
sg18
g1
(g11
g12
(dtRp3085
sg20
g1
(g11
g12
(dtRp3086
sg22
g1
(g11
g12
(dtRp3087
sbsg24
g25
sg26
g27
((lp3088
g33
ag32
ag29
ag30
atRp3089
sg37
(lp3090
g1
(g2
g3
NtRp3091
(dp3092
g6
g1
(g7
g3
NtRp3093
(dp3094
g10
g1
(g11
g12
(dtRp3095
sg14
g1
(g11
g12
(dtRp3096
sg16
g1
(g11
g12
(dtRp3097
sg18
g1
(g11
g12
(dtRp3098
sg20
g1
(g11
g12
(dtRp3099
sg22
g1
(g11
g12
(dtRp3100
sbsg24
S'Lkl'
p3101
sg26
g27
((lp3102
g29
ag30
aS'sequence'
p3103
ag32
ag33
aS'species'
p3104
atRp3105
sg37
(lp3106
sg120
g3078
sg121
S'RWLSTKDLYSRLELPGLNQNVHAMFVMPLGFGNPMGDMFARLNNSFWLPPLSLEGAGTGWTVYPPLSHSGPSVDLAFHLTSSLLGAINFTNMRGPLFWTALLLLSLPVLAGTLLDRNFNTFEGGDPLYHLFWFFGHPEVYIIPGFGSHSTYKKFGMYASIGLGFVWSHHMYVGLDDRAYFLSATMIAPTGIKFSWLATYGGRPMLAFLFLFTGGTGVLNASDAFHDLYYVVMAFSLGYYPYNLFWFMFGMPDAGWSSSYQLGPDESNE'
p3107
sg123
F0.00044999999999999999
sg124
g125
sg33
S'81'
p3108
sg127
g1
(g128
g12
(dp3109
g130
I4
sg131
g132
sg133
g134
sg135
g132
sg136
I01
sg34
g137
sg138
g134
sg139
I0
sg140
I0
sg141
I0
sg142
g134
sg35
g132
sg143
I0
stRp3110
sg145
g146
sg147
F1
sg148
Nsg30
S'LkluyE'
p3111
sbag1
(g2
g3
NtRp3112
(dp3113
g6
g1
(g7
g3
NtRp3114
(dp3115
g10
g1
(g11
g12
(dtRp3116
sg14
g1
(g11
g12
(dtRp3117
sg16
g1
(g11
g12
(dtRp3118
sg18
g1
(g11
g12
(dtRp3119
sg20
g1
(g11
g12
(dtRp3120
sg22
g1
(g11
g12
(dtRp3121
sbsg24
S'Lkl'
p3122
sg26
g27
((lp3123
g29
ag30
aS'sequence'
p3124
ag32
ag33
aS'species'
p3125
atRp3126
sg37
(lp3127
sg120
g3078
sg121
S'RWLSTKDLYSRLELPGLNQNVHAMFVMPLGFGNPMGDMFARLNNSFWLPPLSLEGAGTGWTVYPPLSHSGPSVDLAFHLTSSLLGAINFTNMRGPLFWTALLLLSLPVLAGTLLDRNFNTFEGGDPLYHLFWFFGHPEVYIIPGFGSHSTYKKFGMYASIGLGFVWSHHMYVGLDDRAYFLSATMIAPTGIKFSWLATYGGRPMLAFLFLFTGGTGVLNASDAFHDLYYVVMAFSLGYYPYNLFWFMFGMPDAGWSSSYQLGPDESNE'
p3128
sg123
F0.0077400000000000004
sg124
g125
sg33
S'34'
p3129
sg127
g1
(g128
g12
(dp3130
g130
I4
sg131
g132
sg133
g134
sg135
g132
sg136
I01
sg34
g137
sg138
g134
sg139
I0
sg140
I0
sg141
I0
sg142
g134
sg35
g132
sg143
I0
stRp3131
sg145
g146
sg147
F1
sg148
Nsg30
S'LkluyD'
p3132
sbasg120
g3065
sg123
F0.0017099999999999999
sg124
g125
sg33
S'199'
p3133
sg127
g1
(g128
g12
(dp3134
g130
I8
sg131
g132
sg133
g134
sg135
g132
sg136
I01
sg34
g172
sg138
g134
sg139
I0
sg140
I0
sg141
I0
sg142
g134
sg35
g132
sg143
I0
stRp3135
sg145
g146
sg147
F0.56000000000000005
sg148
Nsg30
S'NoName'
p3136
sbag1
(g2
g3
NtRp3137
(dp3138
g6
g1
(g7
g3
NtRp3139
(dp3140
g10
g1
(g11
g12
(dtRp3141
sg14
g1
(g11
g12
(dtRp3142
sg16
g1
(g11
g12
(dtRp3143
sg18
g1
(g11
g12
(dtRp3144
sg20
g1
(g11
g12
(dtRp3145
sg22
g1
(g11
g12
(dtRp3146
sbsg24
g25
sg26
g27
((lp3147
g33
ag32
ag29
ag30
atRp3148
sg37
(lp3149
g1
(g2
g3
NtRp3150
(dp3151
g6
g1
(g7
g3
NtRp3152
(dp3153
g10
g1
(g11
g12
(dtRp3154
sg14
g1
(g11
g12
(dtRp3155
sg16
g1
(g11
g12
(dtRp3156
sg18
g1
(g11
g12
(dtRp3157
sg20
g1
(g11
g12
(dtRp3158
sg22
g1
(g11
g12
(dtRp3159
sbsg24
g25
sg26
g27
((lp3160
g33
ag32
ag29
ag30
atRp3161
sg37
(lp3162
g1
(g2
g3
NtRp3163
(dp3164
g6
g1
(g7
g3
NtRp3165
(dp3166
g10
g1
(g11
g12
(dtRp3167
sg14
g1
(g11
g12
(dtRp3168
sg16
g1
(g11
g12
(dtRp3169
sg18
g1
(g11
g12
(dtRp3170
sg20
g1
(g11
g12
(dtRp3171
sg22
g1
(g11
g12
(dtRp3172
sbsg24
g25
sg26
g27
((lp3173
g33
ag32
ag29
ag30
atRp3174
sg37
(lp3175
g1
(g2
g3
NtRp3176
(dp3177
g6
g1
(g7
g3
NtRp3178
(dp3179
g10
g1
(g11
g12
(dtRp3180
sg14
g1
(g11
g12
(dtRp3181
sg16
g1
(g11
g12
(dtRp3182
sg18
g1
(g11
g12
(dtRp3183
sg20
g1
(g11
g12
(dtRp3184
sg22
g1
(g11
g12
(dtRp3185
sbsg24
S'Lkl'
p3186
sg26
g27
((lp3187
g29
ag30
aS'sequence'
p3188
ag32
ag33
aS'species'
p3189
atRp3190
sg37
(lp3191
sg120
g3163
sg121
S'RWLSTKDLYSRLELPGLNQNVHAMFVMPLGFGNPMGDMFARLNNSFWLPPLSLEGAGTGWTVYPPLSHSGPSVDLAFHLTSSLLGAINFTNMRGPLFWTALLLLSLPVLAGTLLDRNFNTFEGGDPLYHLFWFFGHPEVYIIPGFGSHSTYKKFGMYASIGLGFVWSHHMYVGLDDRAYFLSATMIAPTGIKFSWLATYGGRPMLAFLFLFTGGTGVLNASDAFHDLYYVVMAFSLGYYPYNLFWFMFGMPDAGWSSSYQLGPDESNE'
p3192
sg123
F0.00038999999999999999
sg124
g125
sg33
S'54'
p3193
sg127
g1
(g128
g12
(dp3194
g130
I4
sg131
g132
sg133
g134
sg135
g132
sg136
I01
sg34
g137
sg138
g134
sg139
I0
sg140
I0
sg141
I0
sg142
g134
sg35
g132
sg143
I0
stRp3195
sg145
g146
sg147
F1
sg148
Nsg30
S'LkluyF'
p3196
sbag1
(g2
g3
NtRp3197
(dp3198
g6
g1
(g7
g3
NtRp3199
(dp3200
g10
g1
(g11
g12
(dtRp3201
sg14
g1
(g11
g12
(dtRp3202
sg16
g1
(g11
g12
(dtRp3203
sg18
g1
(g11
g12
(dtRp3204
sg20
g1
(g11
g12
(dtRp3205
sg22
g1
(g11
g12
(dtRp3206
sbsg24
S'Lkl'
p3207
sg26
g27
((lp3208
g29
ag30
aS'sequence'
p3209
ag32
ag33
aS'species'
p3210
atRp3211
sg37
(lp3212
sg120
g3163
sg121
S'RWLSTKDLYSRLELPGLNQNVHAMFVMPLGFGNPMGDMFARLNNSFWLPPLSLEGAGTGWTVYPPLSHSGPSVDLAFHLTSSLLGAINFTNMRGPLFWTALLLLSLPVLAGTLLDRNFNTFEGGDPLYHLFWFFGHPEVYIIPGFGSHSTYKKFGMYASIGLGFVWSHHMYVGLDDRAYFLSATMIAPTGIKFSWLATYGGRPMLAFLFLFTGGTGVLNASDAFHDLYYVVMAFSLGYYPYNLFWFMFGMPDAGWSSSYQLGPDESNE'
p3213
sg123
F0.00038000000000000002
sg124
g125
sg33
S'191'
p3214
sg127
g1
(g128
g12
(dp3215
g130
I4
sg131
g132
sg133
g134
sg135
g132
sg136
I01
sg34
g137
sg138
g134
sg139
I0
sg140
I0
sg141
I0
sg142
g134
sg35
g132
sg143
I0
stRp3216
sg145
g146
sg147
F1
sg148
Nsg30
S'LkluyC'
p3217
sbasg120
g3150
sg123
F1.0000000000000001e-05
sg124
g125
sg33
S'64'
p3218
sg127
g1
(g128
g12
(dp3219
g130
I8
sg131
g132
sg133
g134
sg135
g132
sg136
I01
sg34
g172
sg138
g134
sg139
I0
sg140
I0
sg141
I0
sg142
g134
sg35
g132
sg143
I0
stRp3220
sg145
g146
sg147
F1
sg148
Nsg30
S'NoName'
p3221
sbag1
(g2
g3
NtRp3222
(dp3223
g6
g1
(g7
g3
NtRp3224
(dp3225
g10
g1
(g11
g12
(dtRp3226
sg14
g1
(g11
g12
(dtRp3227
sg16
g1
(g11
g12
(dtRp3228
sg18
g1
(g11
g12
(dtRp3229
sg20
g1
(g11
g12
(dtRp3230
sg22
g1
(g11
g12
(dtRp3231
sbsg24
S'Lkl'
p3232
sg26
g27
((lp3233
g29
ag30
aS'sequence'
p3234
ag32
ag33
aS'species'
p3235
atRp3236
sg37
(lp3237
sg120
g3150
sg121
S'RWLSTKDLYSRLELPGLNQNVHAMFVMPLGFGNPMGDMFARLNNSFWLPPLSLEGAGTGWTVYPPLSHSGPSVDLAFHLTSSLLGAINFTNMRGPLFWTALLLLSLPVLAGTLLDRNFNTFEGGDPLYHLFWFFGHPEVYIIPGFGSHSTYKKFGMYASIGLGFVWSHHMYVGLDDRAYFLSATMIAPTGIKFSWLATYGGRPMLAFLFLFTGGTGVLNASDAFHDLYYVVMAFSLGYYPYNLFWFMFGMPDAGWSSSYQLGPDESNE'
p3238
sg123
F0.00040999999999999999
sg124
g125
sg33
S'127'
p3239
sg127
g1
(g128
g12
(dp3240
g130
I4
sg131
g132
sg133
g134
sg135
g132
sg136
I01
sg34
g137
sg138
g134
sg139
I0
sg140
I0
sg141
I0
sg142
g134
sg35
g132
sg143
I0
stRp3241
sg145
g146
sg147
F1
sg148
Nsg30
S'LkluyB'
p3242
sbasg120
g3137
sg123
F1.0000000000000001e-05
sg124
g125
sg33
S'20'
p3243
sg127
g1
(g128
g12
(dp3244
g130
I8
sg131
g132
sg133
g134
sg135
g132
sg136
I01
sg34
g172
sg138
g134
sg139
I0
sg140
I0
sg141
I0
sg142
g134
sg35
g132
sg143
I0
stRp3245
sg145
g146
sg147
F1
sg148
Nsg30
S'NoName'
p3246
sbag1
(g2
g3
NtRp3247
(dp3248
g6
g1
(g7
g3
NtRp3249
(dp3250
g10
g1
(g11
g12
(dtRp3251
sg14
g1
(g11
g12
(dtRp3252
sg16
g1
(g11
g12
(dtRp3253
sg18
g1
(g11
g12
(dtRp3254
sg20
g1
(g11
g12
(dtRp3255
sg22
g1
(g11
g12
(dtRp3256
sbsg24
S'Lkl'
p3257
sg26
g27
((lp3258
g29
ag30
aS'sequence'
p3259
ag32
ag33
aS'species'
p3260
atRp3261
sg37
(lp3262
sg120
g3137
sg121
S'RWLSTKDLYSRLELPGLNQNVHAMFVMPLGFGNPMGDMFARLNNSFWLPPLSLEGAGTGWTVYPPLSHSGPSVDLAFHLTSSLLGAINFTNMRGPLFWTALLLLSLPVLAGTLLDRNFNTFEGGDPLYHLFWFFGHPEVYIIPGFGSHSTYKKFGMYASIGLGFVWSHHMYVGLDDRAYFLSATMIAPTGIKFSWLATYGGRPMLAFLFLFTGGTGVLNASDAFHDLYYVVMAFSLGYYPYNLFWFMFGMPDAGWSSSYQLGPDESNE'
p3263
sg123
F0.00040999999999999999
sg124
g125
sg33
S'49'
p3264
sg127
g1
(g128
g12
(dp3265
g130
I4
sg131
g132
sg133
g134
sg135
g132
sg136
I01
sg34
g137
sg138
g134
sg139
I0
sg140
I0
sg141
I0
sg142
g134
sg35
g132
sg143
I0
stRp3266
sg145
g146
sg147
F1
sg148
Nsg30
S'LkluyA'
p3267
sbasg120
g3065
sg123
F0.0035300000000000002
sg124
g125
sg33
S'26'
p3268
sg127
g1
(g128
g12
(dp3269
g130
I8
sg131
g132
sg133
g134
sg135
g132
sg136
I01
sg34
g172
sg138
g134
sg139
I0
sg140
I0
sg141
I0
sg142
g134
sg35
g132
sg143
I0
stRp3270
sg145
g146
sg147
F0.91000000000000003
sg148
Nsg30
S'NoName'
p3271
sbasg120
g3052
sg123
F0.054280000000000002
sg124
g125
sg33
S'117'
p3272
sg127
g1
(g128
g12
(dp3273
g130
I8
sg131
g132
sg133
g134
sg135
g132
sg136
I01
sg34
g172
sg138
g134
sg139
I0
sg140
I0
sg141
I0
sg142
g134
sg35
g132
sg143
I0
stRp3274
sg145
g146
sg147
F0.98999999999999999
sg148
Nsg30
S'NoName'
p3275
sbag1
(g2
g3
NtRp3276
(dp3277
g6
g1
(g7
g3
NtRp3278
(dp3279
g10
g1
(g11
g12
(dtRp3280
sg14
g1
(g11
g12
(dtRp3281
sg16
g1
(g11
g12
(dtRp3282
sg18
g1
(g11
g12
(dtRp3283
sg20
g1
(g11
g12
(dtRp3284
sg22
g1
(g11
g12
(dtRp3285
sbsg24
g25
sg26
g27
((lp3286
g33
ag32
ag29
ag30
atRp3287
sg37
(lp3288
g1
(g2
g3
NtRp3289
(dp3290
g6
g1
(g7
g3
NtRp3291
(dp3292
g10
g1
(g11
g12
(dtRp3293
sg14
g1
(g11
g12
(dtRp3294
sg16
g1
(g11
g12
(dtRp3295
sg18
g1
(g11
g12
(dtRp3296
sg20
g1
(g11
g12
(dtRp3297
sg22
g1
(g11
g12
(dtRp3298
sbsg24
S'Lan'
p3299
sg26
g27
((lp3300
g29
ag30
aS'sequence'
p3301
ag32
ag33
aS'species'
p3302
atRp3303
sg37
(lp3304
sg120
g3276
sg121
S'RWLSTKDLYSRLELPGLNQNVHAMFVMPLGFGNPMGDMFARLNNSFWLPPLSLEGAGTGWTLYPPLSHSGPSVDLAFHLTSSLLGAINFTNMRGPLFWTALLLLSLPVLAGTVLDRNFNTFEGGDPLYHLFWFFGHPEVYIIPGFGSHSTYKKFGMYASIGLGFVWSHHMYVGLDDRAYFTSATMIAPTGIKFSWLALYGGRPMLAFLFLFTGGTGVLNASDAFHDTYYVVMAFSLGYYPYNLFWFMFGMPDAGWSSSYQLGPDESNE'
p3305
sg123
F0.10922999999999999
sg124
g125
sg33
S'115'
p3306
sg127
g1
(g128
g12
(dp3307
g130
I4
sg131
g132
sg133
g134
sg135
g132
sg136
I01
sg34
g137
sg138
g134
sg139
I0
sg140
I0
sg141
I0
sg142
g134
sg35
g132
sg143
I0
stRp3308
sg145
g146
sg147
F1
sg148
Nsg30
S'LanspA'
p3309
sbag1
(g2
g3
NtRp3310
(dp3311
g6
g1
(g7
g3
NtRp3312
(dp3313
g10
g1
(g11
g12
(dtRp3314
sg14
g1
(g11
g12
(dtRp3315
sg16
g1
(g11
g12
(dtRp3316
sg18
g1
(g11
g12
(dtRp3317
sg20
g1
(g11
g12
(dtRp3318
sg22
g1
(g11
g12
(dtRp3319
sbsg24
g25
sg26
g27
((lp3320
g33
ag32
ag29
ag30
atRp3321
sg37
(lp3322
g1
(g2
g3
NtRp3323
(dp3324
g6
g1
(g7
g3
NtRp3325
(dp3326
g10
g1
(g11
g12
(dtRp3327
sg14
g1
(g11
g12
(dtRp3328
sg16
g1
(g11
g12
(dtRp3329
sg18
g1
(g11
g12
(dtRp3330
sg20
g1
(g11
g12
(dtRp3331
sg22
g1
(g11
g12
(dtRp3332
sbsg24
g25
sg26
g27
((lp3333
g33
ag32
ag29
ag30
atRp3334
sg37
(lp3335
g1
(g2
g3
NtRp3336
(dp3337
g6
g1
(g7
g3
NtRp3338
(dp3339
g10
g1
(g11
g12
(dtRp3340
sg14
g1
(g11
g12
(dtRp3341
sg16
g1
(g11
g12
(dtRp3342
sg18
g1
(g11
g12
(dtRp3343
sg20
g1
(g11
g12
(dtRp3344
sg22
g1
(g11
g12
(dtRp3345
sbsg24
S'Lno'
p3346
sg26
g27
((lp3347
g29
ag30
aS'sequence'
p3348
ag32
ag33
aS'species'
p3349
atRp3350
sg37
(lp3351
sg120
g3323
sg121
S'RWLSTKDLYSRLELPGLNQNVHAMFVMPLGFGNPMGDMFARLNNSFWLPPLSLEGAGTGWTIYPPLSHSGPSVDLAFHLTSSLLGAINFTNMRGPLFWTALLLLSLPVLAGTILDRNFNTFEGGDPLYHLFWFFGHPEVYIIPGFGSHSTYKKFGMYASIGLGFVWSHHMYVGLDDRAYFTSALMIAPTGIKFSWLALYGGRPMLAFLFLFTGGTGVLNASDAFHDTYYVVMAFSLGYYPYNLFWFMFGMPDAGWSSSYQLGPDESNE'
p3352
sg123
F0.0075199999999999998
sg124
g125
sg33
S'47'
p3353
sg127
g1
(g128
g12
(dp3354
g130
I4
sg131
g132
sg133
g134
sg135
g132
sg136
I01
sg34
g137
sg138
g134
sg139
I0
sg140
I0
sg141
I0
sg142
g134
sg35
g132
sg143
I0
stRp3355
sg145
g146
sg147
F1
sg148
Nsg30
S'LnothA'
p3356
sbag1
(g2
g3
NtRp3357
(dp3358
g6
g1
(g7
g3
NtRp3359
(dp3360
g10
g1
(g11
g12
(dtRp3361
sg14
g1
(g11
g12
(dtRp3362
sg16
g1
(g11
g12
(dtRp3363
sg18
g1
(g11
g12
(dtRp3364
sg20
g1
(g11
g12
(dtRp3365
sg22
g1
(g11
g12
(dtRp3366
sbsg24
g25
sg26
g27
((lp3367
g33
ag32
ag29
ag30
atRp3368
sg37
(lp3369
g1
(g2
g3
NtRp3370
(dp3371
g6
g1
(g7
g3
NtRp3372
(dp3373
g10
g1
(g11
g12
(dtRp3374
sg14
g1
(g11
g12
(dtRp3375
sg16
g1
(g11
g12
(dtRp3376
sg18
g1
(g11
g12
(dtRp3377
sg20
g1
(g11
g12
(dtRp3378
sg22
g1
(g11
g12
(dtRp3379
sbsg24
S'Lda'
p3380
sg26
g27
((lp3381
g29
ag30
aS'sequence'
p3382
ag32
ag33
aS'species'
p3383
atRp3384
sg37
(lp3385
sg120
g3357
sg121
S'RWLSTKDLYSRLELPGLNQNVHAMFVMPLGFGNPMGDMFARLNNSFWLPPLSLEGAGTGWTVYPPLSHSGPSVDLAFHLTSSLLGAINFTNMRGPLFWTALLLLSLPVLAGTILDRNFNTFEGGDPLYHLFWFFGHPEVYIIPGFGSHSTYKKFGMYASIGLGFVWSHHMYVGLDDRAYFTSATMIAPTGIKFSWLALYGGRPMLAFLFLFTGGTGVLNASDAFHDTYYVVMAFSLGYYPYNLFWFMFGMPDAGWSSSYQLGPDESNE'
p3386
sg123
F0.023539999999999998
sg124
g125
sg33
S'165'
p3387
sg127
g1
(g128
g12
(dp3388
g130
I4
sg131
g132
sg133
g134
sg135
g132
sg136
I01
sg34
g137
sg138
g134
sg139
I0
sg140
I0
sg141
I0
sg142
g134
sg35
g132
sg143
I0
stRp3389
sg145
g146
sg147
F1
sg148
Nsg30
S'LdasiA'
p3390
sbag1
(g2
g3
NtRp3391
(dp3392
g6
g1
(g7
g3
NtRp3393
(dp3394
g10
g1
(g11
g12
(dtRp3395
sg14
g1
(g11
g12
(dtRp3396
sg16
g1
(g11
g12
(dtRp3397
sg18
g1
(g11
g12
(dtRp3398
sg20
g1
(g11
g12
(dtRp3399
sg22
g1
(g11
g12
(dtRp3400
sbsg24
g25
sg26
g27
((lp3401
g33
ag32
ag29
ag30
atRp3402
sg37
(lp3403
g1
(g2
g3
NtRp3404
(dp3405
g6
g1
(g7
g3
NtRp3406
(dp3407
g10
g1
(g11
g12
(dtRp3408
sg14
g1
(g11
g12
(dtRp3409
sg16
g1
(g11
g12
(dtRp3410
sg18
g1
(g11
g12
(dtRp3411
sg20
g1
(g11
g12
(dtRp3412
sg22
g1
(g11
g12
(dtRp3413
sbsg24
S'Lme'
p3414
sg26
g27
((lp3415
g29
ag30
aS'sequence'
p3416
ag32
ag33
aS'species'
p3417
atRp3418
sg37
(lp3419
sg120
g3391
sg121
S'RWLSTKDLYSRLELPGLNQNVHAMFVMPLGFGNPMGDMFARLNNSFWLPPLSLEGAGTGWTVYPPLSHSGPSVDLAFHLTSSLLGAINFTNMRGPLFWTALLLLSLPVLAGTILDRNFNTFEGGDPLYHLFWFFGHPEVYIIPGFGSHSTYKKFGMYASIGLGFVWSHHMYVGLDDRAYFTSATMIAPTGIKFSWLALYGGRPMLAFLFLFTGGTGVLNASDAFHDTYYVVMAFSLGYYPYNLFWFMFGMPDAGWSSSYQLGPDESNE'
p3420
sg123
F0.0050299999999999997
sg124
g125
sg33
S'18'
p3421
sg127
g1
(g128
g12
(dp3422
g130
I4
sg131
g132
sg133
g134
sg135
g132
sg136
I01
sg34
g137
sg138
g134
sg139
I0
sg140
I0
sg141
I0
sg142
g134
sg35
g132
sg143
I0
stRp3423
sg145
g146
sg147
F1
sg148
Nsg30
S'LmeyeA'
p3424
sbag1
(g2
g3
NtRp3425
(dp3426
g6
g1
(g7
g3
NtRp3427
(dp3428
g10
g1
(g11
g12
(dtRp3429
sg14
g1
(g11
g12
(dtRp3430
sg16
g1
(g11
g12
(dtRp3431
sg18
g1
(g11
g12
(dtRp3432
sg20
g1
(g11
g12
(dtRp3433
sg22
g1
(g11
g12
(dtRp3434
sbsg24
S'Lan'
p3435
sg26
g27
((lp3436
g29
ag30
aS'sequence'
p3437
ag32
ag33
aS'species'
p3438
atRp3439
sg37
(lp3440
sg120
g3391
sg121
S'RWLSTKDLYSRLELPGLNQNVHAMFVMPLGFGNPMGDMFARLNNSFWLPPLSLEGAGTGWTVYPPLSHSGPSVDLAFHLTSSLLGAINFTNMRGPLFWTALLLLSLPVLAGTILDRNFNTFEGGDPLYHLFWFFGHPEVYIIPGFGSHSTYKKFGMYASIGLGFVWSHHMYVGLDDRAYFTSALMIAPTGIKFSWLALYGGRPMLAFLFLFTGGTGVLNASDAFHDTYYVVMAFSLGYYPYNLFWFMFGMPDAGWSSSYQLGPDESNE'
p3441
sg123
F0.012290000000000001
sg124
g125
sg33
S'212'
p3442
sg127
g1
(g128
g12
(dp3443
g130
I4
sg131
g132
sg133
g134
sg135
g132
sg136
I01
sg34
g137
sg138
g134
sg139
I0
sg140
I0
sg141
I0
sg142
g134
sg35
g132
sg143
I0
stRp3444
sg145
g146
sg147
F1
sg148
Nsg30
S'LanspB'
p3445
sbasg120
g3357
sg123
F0.012070000000000001
sg124
g125
sg33
S'161'
p3446
sg127
g1
(g128
g12
(dp3447
g130
I8
sg131
g132
sg133
g134
sg135
g132
sg136
I01
sg34
g172
sg138
g134
sg139
I0
sg140
I0
sg141
I0
sg142
g134
sg35
g132
sg143
I0
stRp3448
sg145
g146
sg147
F0.98999999999999999
sg148
Nsg30
S'NoName'
p3449
sbasg120
g3323
sg123
F0.0088199999999999997
sg124
g125
sg33
S'149'
p3450
sg127
g1
(g128
g12
(dp3451
g130
I8
sg131
g132
sg133
g134
sg135
g132
sg136
I01
sg34
g172
sg138
g134
sg139
I0
sg140
I0
sg141
I0
sg142
g134
sg35
g132
sg143
I0
stRp3452
sg145
g146
sg147
F0.95999999999999996
sg148
Nsg30
S'NoName'
p3453
sbasg120
g3310
sg123
F0.016570000000000001
sg124
g125
sg33
S'16'
p3454
sg127
g1
(g128
g12
(dp3455
g130
I8
sg131
g132
sg133
g134
sg135
g132
sg136
I01
sg34
g172
sg138
g134
sg139
I0
sg140
I0
sg141
I0
sg142
g134
sg35
g132
sg143
I0
stRp3456
sg145
g146
sg147
F0.94999999999999996
sg148
Nsg30
S'NoName'
p3457
sbag1
(g2
g3
NtRp3458
(dp3459
g6
g1
(g7
g3
NtRp3460
(dp3461
g10
g1
(g11
g12
(dtRp3462
sg14
g1
(g11
g12
(dtRp3463
sg16
g1
(g11
g12
(dtRp3464
sg18
g1
(g11
g12
(dtRp3465
sg20
g1
(g11
g12
(dtRp3466
sg22
g1
(g11
g12
(dtRp3467
sbsg24
S'Kth'
p3468
sg26
g27
((lp3469
g29
ag30
aS'sequence'
p3470
ag32
ag33
aS'species'
p3471
atRp3472
sg37
(lp3473
sg120
g3310
sg121
S'RWLSTKDLYSRLELPGLNQNVHAMFVMPLGFGNPMGDMFARLNNSFWLPPLSLEGAGTGWTVYPPLSHSGPSVDLAFHLTSSLLGAINFTNMRGPLFWTALLLLSLPVLAGTILDRNFNTFEGGDPLYHLFWFFGHPEVYIIPGFGSHSTYKKFGMYASIGLGFVWSHHMYVGLDDRAYFTSATMIAPTGIKFSWLALYGGRPMLAFLFLFTGGTGVLNASDAFHDTYYVVMAFSLGYYPYNLFWFMFGMPDAGWSSSYQLGPDESNE'
p3474
sg123
F0.021499999999999998
sg124
g125
sg33
S'33'
p3475
sg127
g1
(g128
g12
(dp3476
g130
I4
sg131
g132
sg133
g134
sg135
g132
sg136
I01
sg34
g137
sg138
g134
sg139
I0
sg140
I0
sg141
I0
sg142
g134
sg35
g132
sg143
I0
stRp3477
sg145
g146
sg147
F1
sg148
Nsg30
S'KtherA'
p3478
sbasg120
g3276
sg123
F0.033250000000000002
sg124
g125
sg33
S'126'
p3479
sg127
g1
(g128
g12
(dp3480
g130
I8
sg131
g132
sg133
g134
sg135
g132
sg136
I01
sg34
g172
sg138
g134
sg139
I0
sg140
I0
sg141
I0
sg142
g134
sg35
g132
sg143
I0
stRp3481
sg145
g146
sg147
F0.93999999999999995
sg148
Nsg30
S'NoName'
p3482
sbasg120
g3052
sg123
F0.038859999999999999
sg124
g125
sg33
S'43'
p3483
sg127
g1
(g128
g12
(dp3484
g130
I8
sg131
g132
sg133
g134
sg135
g132
sg136
I01
sg34
g172
sg138
g134
sg139
I0
sg140
I0
sg141
I0
sg142
g134
sg35
g132
sg143
I0
stRp3485
sg145
g146
sg147
F0.92000000000000004
sg148
Nsg30
S'NoName'
p3486
sbasg120
g3039
sg123
F0.050380000000000001
sg124
g125
sg33
S'89'
p3487
sg127
g1
(g128
g12
(dp3488
g130
I8
sg131
g132
sg133
g134
sg135
g132
sg136
I01
sg34
g172
sg138
g134
sg139
I0
sg140
I0
sg141
I0
sg142
g134
sg35
g132
sg143
I0
stRp3489
sg145
g146
sg147
F0.89000000000000001
sg148
Nsg30
S'NoName'
p3490
sbag1
(g2
g3
NtRp3491
(dp3492
g6
g1
(g7
g3
NtRp3493
(dp3494
g10
g1
(g11
g12
(dtRp3495
sg14
g1
(g11
g12
(dtRp3496
sg16
g1
(g11
g12
(dtRp3497
sg18
g1
(g11
g12
(dtRp3498
sg20
g1
(g11
g12
(dtRp3499
sg22
g1
(g11
g12
(dtRp3500
sbsg24
g25
sg26
g27
((lp3501
g33
ag32
ag29
ag30
atRp3502
sg37
(lp3503
g1
(g2
g3
NtRp3504
(dp3505
g6
g1
(g7
g3
NtRp3506
(dp3507
g10
g1
(g11
g12
(dtRp3508
sg14
g1
(g11
g12
(dtRp3509
sg16
g1
(g11
g12
(dtRp3510
sg18
g1
(g11
g12
(dtRp3511
sg20
g1
(g11
g12
(dtRp3512
sg22
g1
(g11
g12
(dtRp3513
sbsg24
S'Kma'
p3514
sg26
g27
((lp3515
g29
ag30
aS'sequence'
p3516
ag32
ag33
aS'species'
p3517
atRp3518
sg37
(lp3519
sg120
g3491
sg121
S'RWLSTKDLYSRLELPGLNQNVHAMFVMPLGFGNPMGDMFARLNNSFWLPPLSLEGAGTGWTVYPPLSHSGPSVDLAFHLTSSLLGAINFTNMRGPLFWTALLLLSLPVLAGTLLDRNFNTFEGGDPLYHLFWFFGHPEVYIIPGFGSHSTYKKFGMYASIGLGFVWSHHMYVGLDDRAYFTSATMIAPTGIKFSWLATYGGRPMLAFLFLFTGGTGVLNASDAFHDTYYVVMAFSLGYYPYNLFWFMFGMPDAGWSSSYQLGPDESNE'
p3520
sg123
F0.04018
sg124
g125
sg33
S'170'
p3521
sg127
g1
(g128
g12
(dp3522
g130
I4
sg131
g132
sg133
g134
sg135
g132
sg136
I01
sg34
g137
sg138
g134
sg139
I0
sg140
I0
sg141
I0
sg142
g134
sg35
g132
sg143
I0
stRp3523
sg145
g146
sg147
F1
sg148
Nsg30
S'KmarxA'
p3524
sbag1
(g2
g3
NtRp3525
(dp3526
g6
g1
(g7
g3
NtRp3527
(dp3528
g10
g1
(g11
g12
(dtRp3529
sg14
g1
(g11
g12
(dtRp3530
sg16
g1
(g11
g12
(dtRp3531
sg18
g1
(g11
g12
(dtRp3532
sg20
g1
(g11
g12
(dtRp3533
sg22
g1
(g11
g12
(dtRp3534
sbsg24
S'Kla'
p3535
sg26
g27
((lp3536
g29
ag30
aS'sequence'
p3537
ag32
ag33
aS'species'
p3538
atRp3539
sg37
(lp3540
sg120
g3491
sg121
S'RWLSTKDLYSRLELPGLNQNVHAMFVMPLGFGNPLGDMFARLNNSFWLPPLSLEGAGTGWTVYPPLSHSGPSVDLAFHLTSSLLGAINFTNMRGPLFWTALLLLSLPVLAGTLLDRNFNTFEGGDPLYHLFWFFGHPEVYIIPGFGSHSTYKKFGMYASIGLGFVWSHHMYVGLDDRAYFTSATMIAPTGIKFSWLATYGGRPMLAFLFLFTGGTGVLNASDAFHDTYYVVMAFSLGYYPYNLFWFMFGMPDAGWSSSYQLGPDESNE'
p3541
sg123
F0.043529999999999999
sg124
g125
sg33
S'167'
p3542
sg127
g1
(g128
g12
(dp3543
g130
I4
sg131
g132
sg133
g134
sg135
g132
sg136
I01
sg34
g137
sg138
g134
sg139
I0
sg140
I0
sg141
I0
sg142
g134
sg35
g132
sg143
I0
stRp3544
sg145
g146
sg147
F1
sg148
Nsg30
S'KlactA'
p3545
sbasg120
g3039
sg123
F0.13938999999999999
sg124
g125
sg33
S'99'
p3546
sg127
g1
(g128
g12
(dp3547
g130
I8
sg131
g132
sg133
g134
sg135
g132
sg136
I01
sg34
g172
sg138
g134
sg139
I0
sg140
I0
sg141
I0
sg142
g134
sg35
g132
sg143
I0
stRp3548
sg145
g146
sg147
F0.98999999999999999
sg148
Nsg30
S'NoName'
p3549
sbasg120
g3026
sg123
F1.0000000000000001e-05
sg124
g125
sg33
S'87'
p3550
sg127
g1
(g128
g12
(dp3551
g130
I8
sg131
g132
sg133
g134
sg135
g132
sg136
I01
sg34
g172
sg138
g134
sg139
I0
sg140
I0
sg141
I0
sg142
g134
sg35
g132
sg143
I0
stRp3552
sg145
g146
sg147
F1
sg148
Nsg30
S'NoName'
p3553
sbag1
(g2
g3
NtRp3554
(dp3555
g6
g1
(g7
g3
NtRp3556
(dp3557
g10
g1
(g11
g12
(dtRp3558
sg14
g1
(g11
g12
(dtRp3559
sg16
g1
(g11
g12
(dtRp3560
sg18
g1
(g11
g12
(dtRp3561
sg20
g1
(g11
g12
(dtRp3562
sg22
g1
(g11
g12
(dtRp3563
sbsg24
g25
sg26
g27
((lp3564
g33
ag32
ag29
ag30
atRp3565
sg37
(lp3566
g1
(g2
g3
NtRp3567
(dp3568
g6
g1
(g7
g3
NtRp3569
(dp3570
g10
g1
(g11
g12
(dtRp3571
sg14
g1
(g11
g12
(dtRp3572
sg16
g1
(g11
g12
(dtRp3573
sg18
g1
(g11
g12
(dtRp3574
sg20
g1
(g11
g12
(dtRp3575
sg22
g1
(g11
g12
(dtRp3576
sbsg24
S'Huv'
p3577
sg26
g27
((lp3578
g29
ag30
aS'sequence'
p3579
ag32
ag33
aS'species'
p3580
atRp3581
sg37
(lp3582
sg120
g3554
sg121
S'-MITTKDLYSRLELSGINHNSHAMFIMPIGFGNPAGDMFPRLNNSFWLVPVSLEGAGTGWTVYYPLSHSSVSVDLVFHCLSSLLGAINFTNFL-SLFWLALLLLSLPVLVGTLLDRNFNLYEGGDPLYHLFWFFGHPEVYIIPAFGSMSAYSKFGMYASIGLGFVWVHHMFVGLDDRAYFTSATMIAPLGIKFSWLALIGGRPVLAFLVLFLGGTGVLNASDAFHDTYYVVLAFGIGYYPYNLFVVMYGMSDSAWTASVQLGTDLLPE'
p3583
sg123
F3.9441199999999998
sg124
g125
sg33
S'118'
p3584
sg127
g1
(g128
g12
(dp3585
g130
I4
sg131
g132
sg133
g134
sg135
g132
sg136
I01
sg34
g137
sg138
g134
sg139
I0
sg140
I0
sg141
I0
sg142
g134
sg35
g132
sg143
I0
stRp3586
sg145
g146
sg147
F1
sg148
Nsg30
S'HuvarA'
p3587
sbag1
(g2
g3
NtRp3588
(dp3589
g6
g1
(g7
g3
NtRp3590
(dp3591
g10
g1
(g11
g12
(dtRp3592
sg14
g1
(g11
g12
(dtRp3593
sg16
g1
(g11
g12
(dtRp3594
sg18
g1
(g11
g12
(dtRp3595
sg20
g1
(g11
g12
(dtRp3596
sg22
g1
(g11
g12
(dtRp3597
sbsg24
g25
sg26
g27
((lp3598
g33
ag32
ag29
ag30
atRp3599
sg37
(lp3600
g1
(g2
g3
NtRp3601
(dp3602
g6
g1
(g7
g3
NtRp3603
(dp3604
g10
g1
(g11
g12
(dtRp3605
sg14
g1
(g11
g12
(dtRp3606
sg16
g1
(g11
g12
(dtRp3607
sg18
g1
(g11
g12
(dtRp3608
sg20
g1
(g11
g12
(dtRp3609
sg22
g1
(g11
g12
(dtRp3610
sbsg24
g25
sg26
g27
((lp3611
g33
ag32
ag29
ag30
atRp3612
sg37
(lp3613
g1
(g2
g3
NtRp3614
(dp3615
g6
g1
(g7
g3
NtRp3616
(dp3617
g10
g1
(g11
g12
(dtRp3618
sg14
g1
(g11
g12
(dtRp3619
sg16
g1
(g11
g12
(dtRp3620
sg18
g1
(g11
g12
(dtRp3621
sg20
g1
(g11
g12
(dtRp3622
sg22
g1
(g11
g12
(dtRp3623
sbsg24
g25
sg26
g27
((lp3624
g33
ag32
ag29
ag30
atRp3625
sg37
(lp3626
g1
(g2
g3
NtRp3627
(dp3628
g6
g1
(g7
g3
NtRp3629
(dp3630
g10
g1
(g11
g12
(dtRp3631
sg14
g1
(g11
g12
(dtRp3632
sg16
g1
(g11
g12
(dtRp3633
sg18
g1
(g11
g12
(dtRp3634
sg20
g1
(g11
g12
(dtRp3635
sg22
g1
(g11
g12
(dtRp3636
sbsg24
S'Sse'
p3637
sg26
g27
((lp3638
g29
ag30
aS'sequence'
p3639
ag32
ag33
aS'species'
p3640
atRp3641
sg37
(lp3642
sg120
g3614
sg121
S'RWLSTKDMYSRMELPGLNQNVHAMFAMPLGFGNPMGDMFPRINSGFWLPMLSLEGAGTGWTVYPPLSHSGPSVDLAFHLTSSLLGAINFTNMRGPLFWTALLLLSLPVLAGTLLDRNFNTFEGGDPFYHAFWFFGHPEVYIIPGFGSHSTYKKFGMYASIGLGFVWSHHMYVGLDDRAYFTSATMIAPTGIKFSWLALYGGRPMMAFLFLFTGGTGVLNASDAFHDTYYVVMAFSLGYYPYNLFWFMFGMPDAGWSSSYQIGPDESNE'
p3643
sg123
F0.29805999999999999
sg124
g125
sg33
S'73'
p3644
sg127
g1
(g128
g12
(dp3645
g130
I4
sg131
g132
sg133
g134
sg135
g132
sg136
I01
sg34
g137
sg138
g134
sg139
I0
sg140
I0
sg141
I0
sg142
g134
sg35
g132
sg143
I0
stRp3646
sg145
g146
sg147
F1
sg148
Nsg30
S'SservA'
p3647
sbag1
(g2
g3
NtRp3648
(dp3649
g6
g1
(g7
g3
NtRp3650
(dp3651
g10
g1
(g11
g12
(dtRp3652
sg14
g1
(g11
g12
(dtRp3653
sg16
g1
(g11
g12
(dtRp3654
sg18
g1
(g11
g12
(dtRp3655
sg20
g1
(g11
g12
(dtRp3656
sg22
g1
(g11
g12
(dtRp3657
sbsg24
S'Sca'
p3658
sg26
g27
((lp3659
g29
ag30
aS'sequence'
p3660
ag32
ag33
aS'species'
p3661
atRp3662
sg37
(lp3663
sg120
g3614
sg121
S'RWLSTKDLYSRLELPGLNQNVHAMFVMPLGFGNPMGDTFPRINNGFWLPMLSLEGAGTGWTVYPPLAHSGPSVDLAFHMTSSLLGAINFTNMRGPLFWTALLLLTLPVLAGTLLDRNFNTFEGGDPLYHLFWFFGHPEVYIIPGFGSHSTYKKFGMYASIGLGLVWSHHMYVGLDDRAYFTSATMIAPTGIKFSWLATYGGRPMLAFLFLFTGGTGVLNASDAFHDLYYVVMAFSLGYYPYNLFWFMFGMPDAGWSASYQLGPDESNE'
p3664
sg123
F0.30890000000000001
sg124
g125
sg33
S'37'
p3665
sg127
g1
(g128
g12
(dp3666
g130
I4
sg131
g132
sg133
g134
sg135
g132
sg136
I01
sg34
g137
sg138
g134
sg139
I0
sg140
I0
sg141
I0
sg142
g134
sg35
g132
sg143
I0
stRp3667
sg145
g146
sg147
F1
sg148
Nsg30
S'ScastA'
p3668
sbasg120
g3601
sg123
F0.072319999999999995
sg124
g125
sg33
S'223'
p3669
sg127
g1
(g128
g12
(dp3670
g130
I8
sg131
g132
sg133
g134
sg135
g132
sg136
I01
sg34
g172
sg138
g134
sg139
I0
sg140
I0
sg141
I0
sg142
g134
sg35
g132
sg143
I0
stRp3671
sg145
g146
sg147
F0.98999999999999999
sg148
Nsg30
S'NoName'
p3672
sbag1
(g2
g3
NtRp3673
(dp3674
g6
g1
(g7
g3
NtRp3675
(dp3676
g10
g1
(g11
g12
(dtRp3677
sg14
g1
(g11
g12
(dtRp3678
sg16
g1
(g11
g12
(dtRp3679
sg18
g1
(g11
g12
(dtRp3680
sg20
g1
(g11
g12
(dtRp3681
sg22
g1
(g11
g12
(dtRp3682
sbsg24
g25
sg26
g27
((lp3683
g33
ag32
ag29
ag30
atRp3684
sg37
(lp3685
g1
(g2
g3
NtRp3686
(dp3687
g6
g1
(g7
g3
NtRp3688
(dp3689
g10
g1
(g11
g12
(dtRp3690
sg14
g1
(g11
g12
(dtRp3691
sg16
g1
(g11
g12
(dtRp3692
sg18
g1
(g11
g12
(dtRp3693
sg20
g1
(g11
g12
(dtRp3694
sg22
g1
(g11
g12
(dtRp3695
sbsg24
S'Spa'
p3696
sg26
g27
((lp3697
g29
ag30
aS'sequence'
p3698
ag32
ag33
aS'species'
p3699
atRp3700
sg37
(lp3701
sg120
g3673
sg121
S'RWLSTKDLYSRLELPGLNQNVHAMFVMPLGFGNPMGDTFPRINNAFWLPMLSLEGAGTGWTVYPPLSHSGPSVDLAFHLTSSLLGAINFTNMRGPLFWTALLLLSLPVLAGTLLDRNFNTFEGGDPLYHLFWFFGHPEVYIIPGFGSHSTYKKFGMYASIGLGFVWSHHMYVGLDDRAYFLSATMIAPTGIKFSWLATYGGRPMLAFLFLFTGGTGVLNASDAFHDTYYVVMAFSLGYYPYNLFWFMFGMPDAGWSSSYQLGPDESNE'
p3702
sg123
F0.029780000000000001
sg124
g125
sg33
S'96'
p3703
sg127
g1
(g128
g12
(dp3704
g130
I4
sg131
g132
sg133
g134
sg135
g132
sg136
I01
sg34
g137
sg138
g134
sg139
I0
sg140
I0
sg141
I0
sg142
g134
sg35
g132
sg143
I0
stRp3705
sg145
g146
sg147
F1
sg148
Nsg30
S'SpastA'
p3706
sbag1
(g2
g3
NtRp3707
(dp3708
g6
g1
(g7
g3
NtRp3709
(dp3710
g10
g1
(g11
g12
(dtRp3711
sg14
g1
(g11
g12
(dtRp3712
sg16
g1
(g11
g12
(dtRp3713
sg18
g1
(g11
g12
(dtRp3714
sg20
g1
(g11
g12
(dtRp3715
sg22
g1
(g11
g12
(dtRp3716
sbsg24
g25
sg26
g27
((lp3717
g33
ag32
ag29
ag30
atRp3718
sg37
(lp3719
g1
(g2
g3
NtRp3720
(dp3721
g6
g1
(g7
g3
NtRp3722
(dp3723
g10
g1
(g11
g12
(dtRp3724
sg14
g1
(g11
g12
(dtRp3725
sg16
g1
(g11
g12
(dtRp3726
sg18
g1
(g11
g12
(dtRp3727
sg20
g1
(g11
g12
(dtRp3728
sg22
g1
(g11
g12
(dtRp3729
sbsg24
g25
sg26
g27
((lp3730
g33
ag32
ag29
ag30
atRp3731
sg37
(lp3732
g1
(g2
g3
NtRp3733
(dp3734
g6
g1
(g7
g3
NtRp3735
(dp3736
g10
g1
(g11
g12
(dtRp3737
sg14
g1
(g11
g12
(dtRp3738
sg16
g1
(g11
g12
(dtRp3739
sg18
g1
(g11
g12
(dtRp3740
sg20
g1
(g11
g12
(dtRp3741
sg22
g1
(g11
g12
(dtRp3742
sbsg24
S'Sce'
p3743
sg26
g27
((lp3744
g29
ag30
aS'sequence'
p3745
ag32
ag33
aS'species'
p3746
atRp3747
sg37
(lp3748
sg120
g3720
sg121
S'RWLSTKDLYSRLELPGLNQNVHAMFVMPLGFGNPMGDTFPRINNAFWLPMLSLEGAGTGWTVYPPLSHSGPSVDLAFHLTSSLLGAINFTNMRGPLFWTALLLLSLPVLAGTLLDRNFNTFEGGDPLYHLFWFFGHPEVYIIPGFGSHSTYKKFGMYASIGLGFVWSHHMYVGLDDRAYFLSALMIAPTGIKFSWLALYGGRPMLAFLFLFTGGTGVLNASDAFHDTYYVVMAFSLGYYPYNLFWFMFGMPDAGWSSSYQLGPDESNE'
p3749
sg123
F0.0038700000000000002
sg124
g125
sg33
S'159'
p3750
sg127
g1
(g128
g12
(dp3751
g130
I4
sg131
g132
sg133
g134
sg135
g132
sg136
I01
sg34
g137
sg138
g134
sg139
I0
sg140
I0
sg141
I0
sg142
g134
sg35
g132
sg143
I0
stRp3752
sg145
g146
sg147
F1
sg148
Nsg30
S'ScereD'
p3753
sbag1
(g2
g3
NtRp3754
(dp3755
g6
g1
(g7
g3
NtRp3756
(dp3757
g10
g1
(g11
g12
(dtRp3758
sg14
g1
(g11
g12
(dtRp3759
sg16
g1
(g11
g12
(dtRp3760
sg18
g1
(g11
g12
(dtRp3761
sg20
g1
(g11
g12
(dtRp3762
sg22
g1
(g11
g12
(dtRp3763
sbsg24
g25
sg26
g27
((lp3764
g33
ag32
ag29
ag30
atRp3765
sg37
(lp3766
g1
(g2
g3
NtRp3767
(dp3768
g6
g1
(g7
g3
NtRp3769
(dp3770
g10
g1
(g11
g12
(dtRp3771
sg14
g1
(g11
g12
(dtRp3772
sg16
g1
(g11
g12
(dtRp3773
sg18
g1
(g11
g12
(dtRp3774
sg20
g1
(g11
g12
(dtRp3775
sg22
g1
(g11
g12
(dtRp3776
sbsg24
S'Sce'
p3777
sg26
g27
((lp3778
g29
ag30
aS'sequence'
p3779
ag32
ag33
aS'species'
p3780
atRp3781
sg37
(lp3782
sg120
g3754
sg121
S'RWLSTKDLYSRLELPGLNQNVHAMFVMPLGFGNPMGDTFPRINNAFWLPMLSLEGAGTGWTVYPPLSHSGPSVDLAFHLTSSLLGAINFTNMRGPLFWTALLLLSLPVLAGTLLDRNFNTFEGGDPLYHLFWFFGHPEVYIIPGFGSHSTYKKFGMYASIGLGFVWSHHMYVGLDDRAYFLSALMIAPTGIKFSWLALYGGRPMLAFLFLFTGGTGVLNASDAFHDTYYVVMAFSLGYYPYNLFWFMFGMPDAGWSSSYQLGPDESNE'
p3783
sg123
F0.0075900000000000004
sg124
g125
sg33
S'205'
p3784
sg127
g1
(g128
g12
(dp3785
g130
I4
sg131
g132
sg133
g134
sg135
g132
sg136
I01
sg34
g137
sg138
g134
sg139
I0
sg140
I0
sg141
I0
sg142
g134
sg35
g132
sg143
I0
stRp3786
sg145
g146
sg147
F1
sg148
Nsg30
S'ScereE'
p3787
sbag1
(g2
g3
NtRp3788
(dp3789
g6
g1
(g7
g3
NtRp3790
(dp3791
g10
g1
(g11
g12
(dtRp3792
sg14
g1
(g11
g12
(dtRp3793
sg16
g1
(g11
g12
(dtRp3794
sg18
g1
(g11
g12
(dtRp3795
sg20
g1
(g11
g12
(dtRp3796
sg22
g1
(g11
g12
(dtRp3797
sbsg24
g25
sg26
g27
((lp3798
g33
ag32
ag29
ag30
atRp3799
sg37
(lp3800
g1
(g2
g3
NtRp3801
(dp3802
g6
g1
(g7
g3
NtRp3803
(dp3804
g10
g1
(g11
g12
(dtRp3805
sg14
g1
(g11
g12
(dtRp3806
sg16
g1
(g11
g12
(dtRp3807
sg18
g1
(g11
g12
(dtRp3808
sg20
g1
(g11
g12
(dtRp3809
sg22
g1
(g11
g12
(dtRp3810
sbsg24
S'Sce'
p3811
sg26
g27
((lp3812
g29
ag30
aS'sequence'
p3813
ag32
ag33
aS'species'
p3814
atRp3815
sg37
(lp3816
sg120
g3788
sg121
S'RWLSTKDLYSRLELPGLNQNVHAMFVMPLGFGNPMGDTFPRINNAFWLPMLSLEGAGTGWTVYPPLSHSGPSVDLAFHLTSSLLGAINFTNMRGPLFWTALLLLSLPVLAGTLLDRNFNTFEGGDPLYHLFWFFGHPEVYIIPGFGSHSTYKKFGMYASIGLGFVWSHHMYVGLDDRAYFLSALMIAPTGIKFSWLALHGGRPMLAFLFLFTGGTGVLNASDAFHDTYYVVMAFSLGYYPYNLFWFMFGMPDAGWSSSYQLGPDESNE'
p3817
sg123
F0.0053899999999999998
sg124
g125
sg33
S'101'
p3818
sg127
g1
(g128
g12
(dp3819
g130
I4
sg131
g132
sg133
g134
sg135
g132
sg136
I01
sg34
g137
sg138
g134
sg139
I0
sg140
I0
sg141
I0
sg142
g134
sg35
g132
sg143
I0
stRp3820
sg145
g146
sg147
F1
sg148
Nsg30
S'ScereC'
p3821
sbag1
(g2
g3
NtRp3822
(dp3823
g6
g1
(g7
g3
NtRp3824
(dp3825
g10
g1
(g11
g12
(dtRp3826
sg14
g1
(g11
g12
(dtRp3827
sg16
g1
(g11
g12
(dtRp3828
sg18
g1
(g11
g12
(dtRp3829
sg20
g1
(g11
g12
(dtRp3830
sg22
g1
(g11
g12
(dtRp3831
sbsg24
S'Sce'
p3832
sg26
g27
((lp3833
g29
ag30
aS'sequence'
p3834
ag32
ag33
aS'species'
p3835
atRp3836
sg37
(lp3837
sg120
g3788
sg121
S'RWLSTKDLYSRLELPGLNQNVHAMFVMPLGFGNPMGDTFPRINNAFWLPMLSLEGAGTGWTVYPPLSHSGPSVDLAFHLTSSLLGAINFTNMRGPLFWTALLLLSLPVLAGTLLDRNFNTFEGGDPLYHLFWFFGHPEVYIIPGFGSHSTYKKFGMYASIGLGFVWSHHMYVGLDDRAYFLSALMIAPTGIKFSWLALYGGRPMLAFLFLFTGGTGVLNASDAFHDTYYVVMAFSLGYYPYNLFWFMFGMPDAGWSSSYQLGPDESNE'
p3838
sg123
F0.0066400000000000001
sg124
g125
sg33
S'125'
p3839
sg127
g1
(g128
g12
(dp3840
g130
I4
sg131
g132
sg133
g134
sg135
g132
sg136
I01
sg34
g137
sg138
g134
sg139
I0
sg140
I0
sg141
I0
sg142
g134
sg35
g132
sg143
I0
stRp3841
sg145
g146
sg147
F1
sg148
Nsg30
S'ScereA'
p3842
sbasg120
g3754
sg123
F0.00596
sg124
g125
sg33
S'217'
p3843
sg127
g1
(g128
g12
(dp3844
g130
I8
sg131
g132
sg133
g134
sg135
g132
sg136
I01
sg34
g172
sg138
g134
sg139
I0
sg140
I0
sg141
I0
sg142
g134
sg35
g132
sg143
I0
stRp3845
sg145
g146
sg147
F0.98999999999999999
sg148
Nsg30
S'NoName'
p3846
sbasg120
g3720
sg123
F0.0050600000000000003
sg124
g125
sg33
S'3'
sg127
g1
(g128
g12
(dp3847
g130
I8
sg131
g132
sg133
g134
sg135
g132
sg136
I01
sg34
g172
sg138
g134
sg139
I0
sg140
I0
sg141
I0
sg142
g134
sg35
g132
sg143
I0
stRp3848
sg145
g146
sg147
F0.66000000000000003
sg148
Nsg30
S'NoName'
p3849
sbasg120
g3707
sg123
F0.017850000000000001
sg124
g125
sg33
S'44'
p3850
sg127
g1
(g128
g12
(dp3851
g130
I8
sg131
g132
sg133
g134
sg135
g132
sg136
I01
sg34
g172
sg138
g134
sg139
I0
sg140
I0
sg141
I0
sg142
g134
sg35
g132
sg143
I0
stRp3852
sg145
g146
sg147
F0.89000000000000001
sg148
Nsg30
S'NoName'
p3853
sbag1
(g2
g3
NtRp3854
(dp3855
g6
g1
(g7
g3
NtRp3856
(dp3857
g10
g1
(g11
g12
(dtRp3858
sg14
g1
(g11
g12
(dtRp3859
sg16
g1
(g11
g12
(dtRp3860
sg18
g1
(g11
g12
(dtRp3861
sg20
g1
(g11
g12
(dtRp3862
sg22
g1
(g11
g12
(dtRp3863
sbsg24
S'Sar'
p3864
sg26
g27
((lp3865
g29
ag30
aS'sequence'
p3866
ag32
ag33
aS'species'
p3867
atRp3868
sg37
(lp3869
sg120
g3707
sg121
S'RWLSTKDLYSRLELPGLNQNVHAMFVMPLGFGNPMGDTFPRINNAFWLPMLSLEGAGTGWTVYPPLSHSGPSVDLAFHLTSSLLGAINFTNMRGPLFWTALLLLSLPVLAGTLLDRNFNTFEGGDPLYHLFWFFGHPEVYIIPGFGSHSTYKKFGMYASIGLGFVWSHHMYVGLDDRAYFLSALMIAPTGIKFSWLALYGGRPMLAFLFLFTGGTGVLNASDAFHDTYYVVMAFSLGYYPYNLFWFMFGMPDAGWSSSYQLGPDESNE'
p3870
sg123
F0.047230000000000001
sg124
g125
sg33
S'102'
p3871
sg127
g1
(g128
g12
(dp3872
g130
I4
sg131
g132
sg133
g134
sg135
g132
sg136
I01
sg34
g137
sg138
g134
sg139
I0
sg140
I0
sg141
I0
sg142
g134
sg35
g132
sg143
I0
stRp3873
sg145
g146
sg147
F1
sg148
Nsg30
S'SarboA'
p3874
sbasg120
g3673
sg123
F0.023619999999999999
sg124
g125
sg33
S'186'
p3875
sg127
g1
(g128
g12
(dp3876
g130
I8
sg131
g132
sg133
g134
sg135
g132
sg136
I01
sg34
g172
sg138
g134
sg139
I0
sg140
I0
sg141
I0
sg142
g134
sg35
g132
sg143
I0
stRp3877
sg145
g146
sg147
F0.92000000000000004
sg148
Nsg30
S'NoName'
p3878
sbasg120
g3601
sg123
F0.18547
sg124
g125
sg33
S'57'
p3879
sg127
g1
(g128
g12
(dp3880
g130
I8
sg131
g132
sg133
g134
sg135
g132
sg136
I01
sg34
g172
sg138
g134
sg139
I0
sg140
I0
sg141
I0
sg142
g134
sg35
g132
sg143
I0
stRp3881
sg145
g146
sg147
F0.98999999999999999
sg148
Nsg30
S'NoName'
p3882
sbasg120
g3588
sg123
F0.03594
sg124
g125
sg33
S'216'
p3883
sg127
g1
(g128
g12
(dp3884
g130
I8
sg131
g132
sg133
g134
sg135
g132
sg136
I01
sg34
g172
sg138
g134
sg139
I0
sg140
I0
sg141
I0
sg142
g134
sg35
g132
sg143
I0
stRp3885
sg145
g146
sg147
F0.98999999999999999
sg148
Nsg30
S'NoName'
p3886
sbag1
(g2
g3
NtRp3887
(dp3888
g6
g1
(g7
g3
NtRp3889
(dp3890
g10
g1
(g11
g12
(dtRp3891
sg14
g1
(g11
g12
(dtRp3892
sg16
g1
(g11
g12
(dtRp3893
sg18
g1
(g11
g12
(dtRp3894
sg20
g1
(g11
g12
(dtRp3895
sg22
g1
(g11
g12
(dtRp3896
sbsg24
g25
sg26
g27
((lp3897
g33
ag32
ag29
ag30
atRp3898
sg37
(lp3899
g1
(g2
g3
NtRp3900
(dp3901
g6
g1
(g7
g3
NtRp3902
(dp3903
g10
g1
(g11
g12
(dtRp3904
sg14
g1
(g11
g12
(dtRp3905
sg16
g1
(g11
g12
(dtRp3906
sg18
g1
(g11
g12
(dtRp3907
sg20
g1
(g11
g12
(dtRp3908
sg22
g1
(g11
g12
(dtRp3909
sbsg24
g25
sg26
g27
((lp3910
g33
ag32
ag29
ag30
atRp3911
sg37
(lp3912
g1
(g2
g3
NtRp3913
(dp3914
g6
g1
(g7
g3
NtRp3915
(dp3916
g10
g1
(g11
g12
(dtRp3917
sg14
g1
(g11
g12
(dtRp3918
sg16
g1
(g11
g12
(dtRp3919
sg18
g1
(g11
g12
(dtRp3920
sg20
g1
(g11
g12
(dtRp3921
sg22
g1
(g11
g12
(dtRp3922
sbsg24
S'Nde'
p3923
sg26
g27
((lp3924
g29
ag30
aS'sequence'
p3925
ag32
ag33
aS'species'
p3926
atRp3927
sg37
(lp3928
sg120
g3900
sg121
S'RWLSTKDLYSRLELPGLNQNVHAMFVMPLGFGNPMGDMFPRLNNGFWIVPLSLEGAGTGWTVYPPLSHSGPSVDLAFHMTSSLLGAINFTNMRGPLFWTALLLLSLPVFAGTLLDRNFNTFEGGDPLYHLFWFFGHPEVYIIPGFGSHSTYKKFGMYASIGLGFVWSHHMYVGLDDRAYFTSATMIAPTGIKFSWLATYGGRPMLAFLFLFTGGTGVLNASDAFHDTYYVVMAFSTGYYPYNLFWFMFGMPDAGWSSSYQFGPDESNE'
p3929
sg123
F0.063509999999999997
sg124
g125
sg33
S'137'
p3930
sg127
g1
(g128
g12
(dp3931
g130
I4
sg131
g132
sg133
g134
sg135
g132
sg136
I01
sg34
g137
sg138
g134
sg139
I0
sg140
I0
sg141
I0
sg142
g134
sg35
g132
sg143
I0
stRp3932
sg145
g146
sg147
F1
sg148
Nsg30
S'NdelpA'
p3933
sbag1
(g2
g3
NtRp3934
(dp3935
g6
g1
(g7
g3
NtRp3936
(dp3937
g10
g1
(g11
g12
(dtRp3938
sg14
g1
(g11
g12
(dtRp3939
sg16
g1
(g11
g12
(dtRp3940
sg18
g1
(g11
g12
(dtRp3941
sg20
g1
(g11
g12
(dtRp3942
sg22
g1
(g11
g12
(dtRp3943
sbsg24
S'Cgl'
p3944
sg26
g27
((lp3945
g29
ag30
aS'sequence'
p3946
ag32
ag33
aS'species'
p3947
atRp3948
sg37
(lp3949
sg120
g3900
sg121
S'RWLSTKDLYSRLELPGLNQNVHAMFVMPLGFGNPMGDMFPRLNNGFWIVPLSLEGAGTGWTVYPPLSHSGPSVDLAFHLTSSLLGSINFTNMRGPLFWTALLLLSLPVLAGTLLDRNFNTFEGGDPLYHLFWFFGHPEVYIIPGFGSHSTYKKFGMYASIGLGFVWSHHMYVGLDDRAYFTSATMIAPTGIKFSWLATYGGRPMLAFLFLFTGGTGVLNASDAFHDTYYVVMAFSTGYYPYNLFWFMFGMPDAGWSSSYQFGPDESNE'
p3950
sg123
F0.03882
sg124
g125
sg33
S'181'
p3951
sg127
g1
(g128
g12
(dp3952
g130
I4
sg131
g132
sg133
g134
sg135
g132
sg136
I01
sg34
g137
sg138
g134
sg139
I0
sg140
I0
sg141
I0
sg142
g134
sg35
g132
sg143
I0
stRp3953
sg145
g146
sg147
F1
sg148
Nsg30
S'CglabA'
p3954
sbasg120
g3887
sg123
F0.16661999999999999
sg124
g125
sg33
S'28'
p3955
sg127
g1
(g128
g12
(dp3956
g130
I8
sg131
g132
sg133
g134
sg135
g132
sg136
I01
sg34
g172
sg138
g134
sg139
I0
sg140
I0
sg141
I0
sg142
g134
sg35
g132
sg143
I0
stRp3957
sg145
g146
sg147
F0.98999999999999999
sg148
Nsg30
S'NoName'
p3958
sbag1
(g2
g3
NtRp3959
(dp3960
g6
g1
(g7
g3
NtRp3961
(dp3962
g10
g1
(g11
g12
(dtRp3963
sg14
g1
(g11
g12
(dtRp3964
sg16
g1
(g11
g12
(dtRp3965
sg18
g1
(g11
g12
(dtRp3966
sg20
g1
(g11
g12
(dtRp3967
sg22
g1
(g11
g12
(dtRp3968
sbsg24
g25
sg26
g27
((lp3969
g33
ag32
ag29
ag30
atRp3970
sg37
(lp3971
g1
(g2
g3
NtRp3972
(dp3973
g6
g1
(g7
g3
NtRp3974
(dp3975
g10
g1
(g11
g12
(dtRp3976
sg14
g1
(g11
g12
(dtRp3977
sg16
g1
(g11
g12
(dtRp3978
sg18
g1
(g11
g12
(dtRp3979
sg20
g1
(g11
g12
(dtRp3980
sg22
g1
(g11
g12
(dtRp3981
sbsg24
S'Nba'
p3982
sg26
g27
((lp3983
g29
ag30
aS'sequence'
p3984
ag32
ag33
aS'species'
p3985
atRp3986
sg37
(lp3987
sg120
g3959
sg121
S'RWLSTKDLYSRMELPGLNQNVHAMFVMPLGFGNPMGDMFPRLNNGFWMPALSLEGAGTGWTVYPPLSHSGPSVDLAFHLSSSLLGAINFTNMRGPLFWTALLLFSLPVFAGTLLDRNFNTFEGGDPLYHLFWFFGHPEVYIIPGFGSHSTYKKFGMYASIGLGFVWSHHMYVGLDDRAYFTSATMIAPTGIKFSWLALYGGRPMLAFLFLFTGGTGVLNASDAFHDTYYVVMAFSVAYYPYNLFWFMFGMPDAGWSSSYQLGPDESNE'
p3988
sg123
F0.29926999999999998
sg124
g125
sg33
S'185'
p3989
sg127
g1
(g128
g12
(dp3990
g130
I4
sg131
g132
sg133
g134
sg135
g132
sg136
I01
sg34
g137
sg138
g134
sg139
I0
sg140
I0
sg141
I0
sg142
g134
sg35
g132
sg143
I0
stRp3991
sg145
g146
sg147
F1
sg148
Nsg30
S'NbaciA'
p3992
sbag1
(g2
g3
NtRp3993
(dp3994
g6
g1
(g7
g3
NtRp3995
(dp3996
g10
g1
(g11
g12
(dtRp3997
sg14
g1
(g11
g12
(dtRp3998
sg16
g1
(g11
g12
(dtRp3999
sg18
g1
(g11
g12
(dtRp4000
sg20
g1
(g11
g12
(dtRp4001
sg22
g1
(g11
g12
(dtRp4002
sbsg24
S'Cca'
p4003
sg26
g27
((lp4004
g29
ag30
aS'sequence'
p4005
ag32
ag33
aS'species'
p4006
atRp4007
sg37
(lp4008
sg120
g3959
sg121
S'RWLSTKDLYSRLELPGLNQNVHAMFVMPLGIGNPMGDTFPRLNNGFWLPPLSLEGAGTGWTVYPPLSHSGPSVDLAFHLTSSLLGAINFTNMRGPLFWTALLLFSLPVFAGTLLDRNFNTFEGGDPLYHVFWFFGHPEVYIIPGFGSHSTYKKFGMYASIGLGFVWSHHMYVGLDDRAYFTSALMIAPTGIKFSWLATFGGRPMLAFLFLFTGGTGVLNASDAFHDTYYVVMAFSLGYYPYNLFWFMFGMPDAGWSSSYQLGPDESNE'
p4009
sg123
F0.26266
sg124
g125
sg33
S'65'
p4010
sg127
g1
(g128
g12
(dp4011
g130
I4
sg131
g132
sg133
g134
sg135
g132
sg136
I01
sg34
g137
sg138
g134
sg139
I0
sg140
I0
sg141
I0
sg142
g134
sg35
g132
sg143
I0
stRp4012
sg145
g146
sg147
F1
sg148
Nsg30
S'CcastA'
p4013
sbasg120
g3887
sg123
F0.15296999999999999
sg124
g125
sg33
S'71'
p4014
sg127
g1
(g128
g12
(dp4015
g130
I8
sg131
g132
sg133
g134
sg135
g132
sg136
I01
sg34
g172
sg138
g134
sg139
I0
sg140
I0
sg141
I0
sg142
g134
sg35
g132
sg143
I0
stRp4016
sg145
g146
sg147
F0.98999999999999999
sg148
Nsg30
S'NoName'
p4017
sbasg120
g3588
sg123
F0.042560000000000001
sg124
g125
sg33
S'10'
p4018
sg127
g1
(g128
g12
(dp4019
g130
I8
sg131
g132
sg133
g134
sg135
g132
sg136
I01
sg34
g172
sg138
g134
sg139
I0
sg140
I0
sg141
I0
sg142
g134
sg35
g132
sg143
I0
stRp4020
sg145
g146
sg147
F0.84999999999999998
sg148
Nsg30
S'NoName'
p4021
sbasg120
g3554
sg123
F0.094020000000000006
sg124
g125
sg33
S'67'
p4022
sg127
g1
(g128
g12
(dp4023
g130
I8
sg131
g132
sg133
g134
sg135
g132
sg136
I01
sg34
g172
sg138
g134
sg139
I0
sg140
I0
sg141
I0
sg142
g134
sg35
g132
sg143
I0
stRp4024
sg145
g146
sg147
F0.55000000000000004
sg148
Nsg30
S'NoName'
p4025
sbasg120
g3026
sg123
F0.11952
sg124
g125
sg33
S'38'
p4026
sg127
g1
(g128
g12
(dp4027
g130
I8
sg131
g132
sg133
g134
sg135
g132
sg136
I01
sg34
g172
sg138
g134
sg139
I0
sg140
I0
sg141
I0
sg142
g134
sg35
g132
sg143
I0
stRp4028
sg145
g146
sg147
F0.69999999999999996
sg148
Nsg30
S'NoName'
p4029
sbasg120
g3013
sg123
F0.029839999999999998
sg124
g125
sg33
S'85'
p4030
sg127
g1
(g128
g12
(dp4031
g130
I8
sg131
g132
sg133
g134
sg135
g132
sg136
I01
sg34
g172
sg138
g134
sg139
I0
sg140
I0
sg141
I0
sg142
g134
sg35
g132
sg143
I0
stRp4032
sg145
g146
sg147
F0.82999999999999996
sg148
Nsg30
S'NoName'
p4033
sbag1
(g2
g3
NtRp4034
(dp4035
g6
g1
(g7
g3
NtRp4036
(dp4037
g10
g1
(g11
g12
(dtRp4038
sg14
g1
(g11
g12
(dtRp4039
sg16
g1
(g11
g12
(dtRp4040
sg18
g1
(g11
g12
(dtRp4041
sg20
g1
(g11
g12
(dtRp4042
sg22
g1
(g11
g12
(dtRp4043
sbsg24
g25
sg26
g27
((lp4044
g33
ag32
ag29
ag30
atRp4045
sg37
(lp4046
g1
(g2
g3
NtRp4047
(dp4048
g6
g1
(g7
g3
NtRp4049
(dp4050
g10
g1
(g11
g12
(dtRp4051
sg14
g1
(g11
g12
(dtRp4052
sg16
g1
(g11
g12
(dtRp4053
sg18
g1
(g11
g12
(dtRp4054
sg20
g1
(g11
g12
(dtRp4055
sg22
g1
(g11
g12
(dtRp4056
sbsg24
S'Aac'
p4057
sg26
g27
((lp4058
g29
ag30
aS'sequence'
p4059
ag32
ag33
aS'species'
p4060
atRp4061
sg37
(lp4062
sg120
g4034
sg121
S'RWLSTKDLYSRMELPGLQQNVHLMFVMPLGFGNPMGDMFARLNNSFWLPPLSMEGLGTGWTVYPPLAHSGASVDLAFHLTSSLLGLINFTNMRGPLFWTAMLLMSLPVLAGTLLDRNFNTFEGGDPLYHLFWFFGHPEVYIIPLFGSHSTYKKFGMYASIGLGFVWSHHMYVGLDDRAYFTSLTMILPTSIKFSWLLTYGGRPMLAFLFLFTGGTGVLNLSDLFHDTYYVVLAFSMGYYPYNLFWFMFGMPDLGWSSSYQLGPDESNE'
p4063
sg123
F0.028920000000000001
sg124
g125
sg33
S'93'
p4064
sg127
g1
(g128
g12
(dp4065
g130
I4
sg131
g132
sg133
g134
sg135
g132
sg136
I01
sg34
g137
sg138
g134
sg139
I0
sg140
I0
sg141
I0
sg142
g134
sg35
g132
sg143
I0
stRp4066
sg145
g146
sg147
F1
sg148
Nsg30
S'AacerA'
p4067
sbag1
(g2
g3
NtRp4068
(dp4069
g6
g1
(g7
g3
NtRp4070
(dp4071
g10
g1
(g11
g12
(dtRp4072
sg14
g1
(g11
g12
(dtRp4073
sg16
g1
(g11
g12
(dtRp4074
sg18
g1
(g11
g12
(dtRp4075
sg20
g1
(g11
g12
(dtRp4076
sg22
g1
(g11
g12
(dtRp4077
sbsg24
g25
sg26
g27
((lp4078
g33
ag32
ag29
ag30
atRp4079
sg37
(lp4080
g1
(g2
g3
NtRp4081
(dp4082
g6
g1
(g7
g3
NtRp4083
(dp4084
g10
g1
(g11
g12
(dtRp4085
sg14
g1
(g11
g12
(dtRp4086
sg16
g1
(g11
g12
(dtRp4087
sg18
g1
(g11
g12
(dtRp4088
sg20
g1
(g11
g12
(dtRp4089
sg22
g1
(g11
g12
(dtRp4090
sbsg24
S'Ago'
p4091
sg26
g27
((lp4092
g29
ag30
aS'sequence'
p4093
ag32
ag33
aS'species'
p4094
atRp4095
sg37
(lp4096
sg120
g4068
sg121
S'RWLSTKDLYSRMELPGLQQNVHLMFVMPLGFGNPMGDMFARLNNSFWLPPLSMEGLGTGWTVYPPLSHSGASVDLAFHLTSSLLGLINFTNMRGPLFWTAMLLMSLPVLAGTLLDRNFNTFEGGDPLYHLFWFFGHPEVYIIPLFGSHSTYKKFGMYLSISLGFVWSHHMYVGLDDRAYFTSATMILPTSIKFSWLLTYGGRPMLLFLFLFTGGTGVLNLSDAFHDTYYVVLAFSMGYYPYNLFWFMFGMPDLGWSSSYQLGPDESNE'
p4097
sg123
F0.00088000000000000003
sg124
g125
sg33
S'206'
p4098
sg127
g1
(g128
g12
(dp4099
g130
I4
sg131
g132
sg133
g134
sg135
g132
sg136
I01
sg34
g137
sg138
g134
sg139
I0
sg140
I0
sg141
I0
sg142
g134
sg35
g132
sg143
I0
stRp4100
sg145
g146
sg147
F1
sg148
Nsg30
S'AgossB'
p4101
sbag1
(g2
g3
NtRp4102
(dp4103
g6
g1
(g7
g3
NtRp4104
(dp4105
g10
g1
(g11
g12
(dtRp4106
sg14
g1
(g11
g12
(dtRp4107
sg16
g1
(g11
g12
(dtRp4108
sg18
g1
(g11
g12
(dtRp4109
sg20
g1
(g11
g12
(dtRp4110
sg22
g1
(g11
g12
(dtRp4111
sbsg24
S'Ago'
p4112
sg26
g27
((lp4113
g29
ag30
aS'sequence'
p4114
ag32
ag33
aS'species'
p4115
atRp4116
sg37
(lp4117
sg120
g4068
sg121
S'RWLSTKDLYSRMELPGLQQNVHLMFVMPLGFGNPMGDMFARLNNSFWLPPLSMEGLGTGWTVYPPLSHSGASVDLAFHLTSSLLGLINFTNMRGPLFWTAMLLMSLPVLAGTLLDRNFNTFEGGDPLYHLFWFFGHPEVYIIPLFGSHSTYKKFGMYLSISLGFVWSHHMYVGLDDRAYFTSATMILPTSIKFSWLLTYGGRPMLLFLFLFTGGTGVLNLSDAFHDTYYVVLAFSMGYYPYNLFWFMFGMPDLGWSSSYQLGPDESNE'
p4118
sg123
F0.0023999999999999998
sg124
g125
sg33
S'169'
p4119
sg127
g1
(g128
g12
(dp4120
g130
I4
sg131
g132
sg133
g134
sg135
g132
sg136
I01
sg34
g137
sg138
g134
sg139
I0
sg140
I0
sg141
I0
sg142
g134
sg35
g132
sg143
I0
stRp4121
sg145
g146
sg147
F1
sg148
Nsg30
S'AgossA'
p4122
sbasg120
g4034
sg123
F0.075329999999999994
sg124
g125
sg33
S'31'
p4123
sg127
g1
(g128
g12
(dp4124
g130
I8
sg131
g132
sg133
g134
sg135
g132
sg136
I01
sg34
g172
sg138
g134
sg139
I0
sg140
I0
sg141
I0
sg142
g134
sg35
g132
sg143
I0
stRp4125
sg145
g146
sg147
F0.98999999999999999
sg148
Nsg30
S'NoName'
p4126
sbasg120
g3013
sg123
F0.56830999999999998
sg124
g125
sg33
S'70'
p4127
sg127
g1
(g128
g12
(dp4128
g130
I8
sg131
g132
sg133
g134
sg135
g132
sg136
I01
sg34
g172
sg138
g134
sg139
I0
sg140
I0
sg141
I0
sg142
g134
sg35
g132
sg143
I0
stRp4129
sg145
g146
sg147
F0.98999999999999999
sg148
Nsg30
S'NoName'
p4130
sbasg120
g2677
sg123
F0.14305999999999999
sg124
g125
sg33
S'84'
p4131
sg127
g1
(g128
g12
(dp4132
g130
I8
sg131
g132
sg133
g134
sg135
g132
sg136
I01
sg34
g172
sg138
g134
sg139
I0
sg140
I0
sg141
I0
sg142
g134
sg35
g132
sg143
I0
stRp4133
sg145
g146
sg147
F0.96999999999999997
sg148
Nsg30
S'NoName'
p4134
sbasg120
g2491
sg123
F0.26834000000000002
sg124
g125
sg33
S'172'
p4135
sg127
g1
(g128
g12
(dp4136
g130
I8
sg131
g132
sg133
g134
sg135
g132
sg136
I01
sg34
g172
sg138
g134
sg139
I0
sg140
I0
sg141
I0
sg142
g134
sg35
g132
sg143
I0
stRp4137
sg145
g146
sg147
F0.97999999999999998
sg148
Nsg30
S'NoName'
p4138
sbasg120
g675
sg123
F0.062890000000000001
sg124
g125
sg33
S'156'
p4139
sg127
g1
(g128
g12
(dp4140
g130
I8
sg131
g132
sg133
g134
sg135
g132
sg136
I01
sg34
g172
sg138
g134
sg139
I0
sg140
I0
sg141
I0
sg142
g134
sg35
g132
sg143
I0
stRp4141
sg145
g146
sg147
F0.67000000000000004
sg148
Nsg30
S'NoName'
p4142
sbasg120
g263
sg123
F0.52025999999999994
sg124
g125
sg33
S'103'
p4143
sg127
g1
(g128
g12
(dp4144
g130
I8
sg131
g132
sg133
g134
sg135
g132
sg136
I01
sg34
g172
sg138
g134
sg139
I0
sg140
I0
sg141
I0
sg142
g134
sg35
g132
sg143
I0
stRp4145
sg145
g146
sg147
F0.97999999999999998
sg148
Nsg30
S'NoName'
p4146
sbasg120
g52
sg123
F0.11274000000000001
sg124
g125
sg33
S'22'
p4147
sg127
g1
(g128
g12
(dp4148
g130
I8
sg131
g132
sg133
g134
sg135
g132
sg136
I01
sg34
g172
sg138
g134
sg139
I0
sg140
I0
sg141
I0
sg142
g134
sg35
g132
sg143
I0
stRp4149
sg145
g146
sg147
F0.88
sg148
Nsg30
S'NoName'
p4150
sbasg120
g39
sg123
F0.33485999999999999
sg124
g125
sg33
S'46'
p4151
sg127
g1
(g128
g12
(dp4152
g130
I8
sg131
g132
sg133
g134
sg135
g132
sg136
I01
sg34
g172
sg138
g134
sg139
I0
sg140
I0
sg141
I0
sg142
g134
sg35
g132
sg143
I0
stRp4153
sg145
g146
sg147
F0.95999999999999996
sg148
Nsg30
S'NoName'
p4154
sbag1
(g2
g3
NtRp4155
(dp4156
g6
g1
(g7
g3
NtRp4157
(dp4158
g10
g1
(g11
g12
(dtRp4159
sg14
g1
(g11
g12
(dtRp4160
sg16
g1
(g11
g12
(dtRp4161
sg18
g1
(g11
g12
(dtRp4162
sg20
g1
(g11
g12
(dtRp4163
sg22
g1
(g11
g12
(dtRp4164
sbsg24
S'Lst'
p4165
sg26
g27
((lp4166
g29
ag30
aS'sequence'
p4167
ag32
ag33
aS'species'
p4168
atRp4169
sg37
(lp4170
sg120
g39
sg121
S'RWLSTKDLYSRMELPGLNHNVHAMFVMPLGFGNPLGDMFPRLNNSFWLPPLSFEGAGTGWTVYPPLSHSGASVDLAFHLSSSMLGAMNFTNMRGPLFWTALLLLSLPVLGATLLDRNFNTFEGGDPLYHLFWFFGHPEVYIIPGFGSHCTYEKFGMYASMGLGFVWSHHMFVGLDERAYFTAATMIAPTGMKFSWLATYGGTPMVAFLFLFTGGTGVLNASDAFHDTYYVVMAFALGYYPYKYFWFMFGMPDAGWSSAIQLGPQATKE'
p4171
sg123
F1.13117
sg124
g125
sg33
S'143'
p4172
sg127
g1
(g128
g12
(dp4173
g130
I4
sg131
g132
sg133
g134
sg135
g132
sg136
I01
sg34
g137
sg138
g134
sg139
I0
sg140
I0
sg141
I0
sg142
g134
sg35
g132
sg143
I0
stRp4174
sg145
g146
sg147
F1
sg148
Nsg30
S'LstarA'
p4175
sbasg120
g4
sg123
F0.46844999999999998
sg124
g125
sg33
S'42'
p4176
sg127
g1
(g128
g12
(dp4177
g130
I8
sg131
g132
sg133
g134
sg135
g132
sg136
I01
sg34
g172
sg138
g134
sg139
I0
sg140
I0
sg141
I0
sg142
g134
sg35
g132
sg143
I0
stRp4178
sg145
g146
sg147
F1
sg148
Nsg30
S'NoName'
p4179
sbag1
(g2
g3
NtRp4180
(dp4181
g6
g1
(g7
g3
NtRp4182
(dp4183
g10
g1
(g11
g12
(dtRp4184
sg14
g1
(g11
g12
(dtRp4185
sg16
g1
(g11
g12
(dtRp4186
sg18
g1
(g11
g12
(dtRp4187
sg20
g1
(g11
g12
(dtRp4188
sg22
g1
(g11
g12
(dtRp4189
sbsg24
g25
sg26
g27
((lp4190
g33
ag32
ag29
ag30
atRp4191
sg37
(lp4192
g1
(g2
g3
NtRp4193
(dp4194
g6
g1
(g7
g3
NtRp4195
(dp4196
g10
g1
(g11
g12
(dtRp4197
sg14
g1
(g11
g12
(dtRp4198
sg16
g1
(g11
g12
(dtRp4199
sg18
g1
(g11
g12
(dtRp4200
sg20
g1
(g11
g12
(dtRp4201
sg22
g1
(g11
g12
(dtRp4202
sbsg24
S'Sja'
p4203
sg26
g27
((lp4204
g29
ag30
aS'sequence'
p4205
ag32
ag33
aS'species'
p4206
atRp4207
sg37
(lp4208
sg120
g4180
sg121
S'RWLSTKDLYSRLELPGLNQNVHGMFILPLGFGNPLGDVYPRMNNSFWLPPLSLEGPGVGWTMYYPLSHSGLSVDLLMQLTSSTLGSINLTNMRGPLFWTSLLVLTLPVLGGILLDRNWNTFAGGDPLYHLFWFFGHPEVYIIPAFGSHSTFHKFGMYASIALGCVWSHHLYVGLDDRAYFTAATMIAPTGIKFSWLATSGGEPMLVFLILFTGGTGVLNSVDAFHDTYFVVMAMGLAYFPYNMFWFQFNYPDAGWSSSYQFNPNDSNE'
p4209
sg123
F1.0686599999999999
sg124
g125
sg33
S'21'
p4210
sg127
g1
(g128
g12
(dp4211
g130
I4
sg131
g132
sg133
g134
sg135
g132
sg136
I01
sg34
g137
sg138
g134
sg139
I0
sg140
I0
sg141
I0
sg142
g134
sg35
g132
sg143
I0
stRp4212
sg145
g146
sg147
F1
sg148
Nsg30
S'SjapoA'
p4213
sbag1
(g2
g3
NtRp4214
(dp4215
g6
g1
(g7
g3
NtRp4216
(dp4217
g10
g1
(g11
g12
(dtRp4218
sg14
g1
(g11
g12
(dtRp4219
sg16
g1
(g11
g12
(dtRp4220
sg18
g1
(g11
g12
(dtRp4221
sg20
g1
(g11
g12
(dtRp4222
sg22
g1
(g11
g12
(dtRp4223
sbsg24
g25
sg26
g27
((lp4224
g33
ag32
ag29
ag30
atRp4225
sg37
(lp4226
g1
(g2
g3
NtRp4227
(dp4228
g6
g1
(g7
g3
NtRp4229
(dp4230
g10
g1
(g11
g12
(dtRp4231
sg14
g1
(g11
g12
(dtRp4232
sg16
g1
(g11
g12
(dtRp4233
sg18
g1
(g11
g12
(dtRp4234
sg20
g1
(g11
g12
(dtRp4235
sg22
g1
(g11
g12
(dtRp4236
sbsg24
S'Spo'
p4237
sg26
g27
((lp4238
g29
ag30
aS'sequence'
p4239
ag32
ag33
aS'species'
p4240
atRp4241
sg37
(lp4242
sg120
g4214
sg121
S'RWMSTKDLYSRMELPGLNQNVHGMFIIPLGFGNPMGDVYPRVNNTFWLPPLSLEGPGGGWTVYPPLSHSGPAIDLALQLTSSTLGSVNLTNMRGPLFWTSLLLLTLPVLGGFLFDRNLNTFAGGDPLYHLFWFFGHPEVYIIPAFGSHPSLHKFGMWASIALGLVWSHHLFVGLDDRAYFSAATMIAPTGIKFSWLATTGGQPMLAFLILFTGGTGVLNSVDAFHDTYFVVMAFGLAY-PYNLFWFQFGMPEAGWSSSYQFNPSDDNE'
p4243
sg123
F0.12372
sg124
g125
sg33
S'144'
p4244
sg127
g1
(g128
g12
(dp4245
g130
I4
sg131
g132
sg133
g134
sg135
g132
sg136
I01
sg34
g137
sg138
g134
sg139
I0
sg140
I0
sg141
I0
sg142
g134
sg35
g132
sg143
I0
stRp4246
sg145
g146
sg147
F1
sg148
Nsg30
S'SpombA'
p4247
sbag1
(g2
g3
NtRp4248
(dp4249
g6
g1
(g7
g3
NtRp4250
(dp4251
g10
g1
(g11
g12
(dtRp4252
sg14
g1
(g11
g12
(dtRp4253
sg16
g1
(g11
g12
(dtRp4254
sg18
g1
(g11
g12
(dtRp4255
sg20
g1
(g11
g12
(dtRp4256
sg22
g1
(g11
g12
(dtRp4257
sbsg24
g25
sg26
g27
((lp4258
g33
ag32
ag29
ag30
atRp4259
sg37
(lp4260
g1
(g2
g3
NtRp4261
(dp4262
g6
g1
(g7
g3
NtRp4263
(dp4264
g10
g1
(g11
g12
(dtRp4265
sg14
g1
(g11
g12
(dtRp4266
sg16
g1
(g11
g12
(dtRp4267
sg18
g1
(g11
g12
(dtRp4268
sg20
g1
(g11
g12
(dtRp4269
sg22
g1
(g11
g12
(dtRp4270
sbsg24
S'Soc'
p4271
sg26
g27
((lp4272
g29
ag30
aS'sequence'
p4273
ag32
ag33
aS'species'
p4274
atRp4275
sg37
(lp4276
sg120
g4248
sg121
S'RWLSTKDLYSRMELPGLNQNVHGMFIIPLGFGNPMGDVYPRVNNTFWLPPLSLEGPGTGWTVYPPLSHSGPAVDLALQLTSSTLGSLNLTNMRGPLFWTSLLLLTLPVLGGFLFDRNLNTFAGGDPLYHLFWFFGHPEVYIIPAFGSHSTLNKFGMCASIALGLVWSHHLFVGLDDRAYFSAATMIAPTGIKFSWLATTGGQPMLAFLILFTGGTGVLNSVDAFHDTYFVVMAFGLAYFPYNLFWFQFGMPDAGWSSSYQYNPSDDNE'
p4277
sg123
F0.03637
sg124
g125
sg33
S'184'
p4278
sg127
g1
(g128
g12
(dp4279
g130
I4
sg131
g132
sg133
g134
sg135
g132
sg136
I01
sg34
g137
sg138
g134
sg139
I0
sg140
I0
sg141
I0
sg142
g134
sg35
g132
sg143
I0
stRp4280
sg145
g146
sg147
F1
sg148
Nsg30
S'SoctoA'
p4281
sbag1
(g2
g3
NtRp4282
(dp4283
g6
g1
(g7
g3
NtRp4284
(dp4285
g10
g1
(g11
g12
(dtRp4286
sg14
g1
(g11
g12
(dtRp4287
sg16
g1
(g11
g12
(dtRp4288
sg18
g1
(g11
g12
(dtRp4289
sg20
g1
(g11
g12
(dtRp4290
sg22
g1
(g11
g12
(dtRp4291
sbsg24
S'Scr'
p4292
sg26
g27
((lp4293
g29
ag30
aS'sequence'
p4294
ag32
ag33
aS'species'
p4295
atRp4296
sg37
(lp4297
sg120
g4248
sg121
S'RWLSTKDLYSRMELPGLNQNVHGMFIIPLGFGNPMGDVYPRVNNTYWLPPLSLEGPGTGWTVYPPLSHSGPSVDLALQLTSSTLGSLNLTNMRGPLFWTSLLLLTLPVLGGFLFDRNLNTFAGGDPLYHLFWFFGHPEVYIIPAFGSHPTLNKFGMCASIALGLVWSHHLFVGLDDRAYFSAATMIAPTGIKFSWLATTGGQPMLAFLILFTGGTGVLNSVDAFHDTYFVVMAFGLAYFPYNLFWFQFGMPDAGWSSSYQYNPSDDNE'
p4298
sg123
F0.036740000000000002
sg124
g125
sg33
S'82'
p4299
sg127
g1
(g128
g12
(dp4300
g130
I4
sg131
g132
sg133
g134
sg135
g132
sg136
I01
sg34
g137
sg138
g134
sg139
I0
sg140
I0
sg141
I0
sg142
g134
sg35
g132
sg143
I0
stRp4301
sg145
g146
sg147
F1
sg148
Nsg30
S'ScryoA'
p4302
sbasg120
g4214
sg123
F0.18453
sg124
g125
sg33
S'80'
p4303
sg127
g1
(g128
g12
(dp4304
g130
I8
sg131
g132
sg133
g134
sg135
g132
sg136
I01
sg34
g172
sg138
g134
sg139
I0
sg140
I0
sg141
I0
sg142
g134
sg35
g132
sg143
I0
stRp4305
sg145
g146
sg147
F0.98999999999999999
sg148
Nsg30
S'NoName'
p4306
sbasg120
g4180
sg123
F0.73307
sg124
g125
sg33
S'182'
p4307
sg127
g1
(g128
g12
(dp4308
g130
I8
sg131
g132
sg133
g134
sg135
g132
sg136
I01
sg34
g172
sg138
g134
sg139
I0
sg140
I0
sg141
I0
sg142
g134
sg35
g132
sg143
I0
stRp4309
sg145
g146
sg147
F0.98999999999999999
sg148
Nsg30
S'NoName'
p4310
sbasg120
g4
sg123
F1.7741899999999999
sg124
g125
sg33
S'11'
p4311
sg127
g1
(g128
g12
(dp4312
g130
I8
sg131
g132
sg133
g134
sg135
g132
sg136
I01
sg34
g172
sg138
g134
sg139
I0
sg140
I0
sg141
I0
sg142
g134
sg35
g132
sg143
I0
stRp4313
sg145
g146
sg147
F1
sg148
Nsg30
S'NoName'
p4314
sbasg31
S'8'
sg120
Nsg123
F0
sg124
g125
sg33
S'194'
p4315
sg34
g172
sg127
g1
(g128
g12
(dp4316
g130
I8
sg131
g132
sg133
g134
sg135
g132
sg136
I01
sg34
g172
sg138
g134
sg139
I0
sg140
I0
sg141
I0
sg142
g134
sg35
S'#833DB4'
p4317
sg143
I0
stRp4318
sg145
g146
sg147
F1
sg148
Nsg35
g4317
sg30
g125
sb.