ccopy_reg
_reconstructor
p1
(cete2.phylo.phylotree
PhyloNode
p2
c__builtin__
object
p3
NtRp4
(dp5
S'_faces'
p6
g1
(cete2.treeview.main
_FaceAreas
p7
g3
NtRp8
(dp9
S'branch-top'
p10
g1
(cete2.treeview.main
FaceContainer
p11
c__builtin__
dict
p12
(dtRp13
sS'float'
p14
g1
(g11
g12
(dtRp15
sS'branch-bottom'
p16
g1
(g11
g12
(dtRp17
sS'aligned'
p18
g1
(g11
g12
(dtRp19
sS'branch-right'
p20
g1
(g11
g12
(dtRp21
sS'float-behind'
p22
g1
(g11
g12
(dtRp23
sbsS'_species'
p24
S'Unknown'
p25
sS'features'
p26
c__builtin__
set
p27
((lp28
S'dist'
p29
aS'name'
p30
aS'bsize'
p31
aS'support'
p32
aS'_nid'
p33
aS'shape'
p34
aS'fgcolor'
p35
atRp36
sS'_children'
p37
(lp38
g1
(g2
g3
NtRp39
(dp40
g6
g1
(g7
g3
NtRp41
(dp42
g10
g1
(g11
g12
(dtRp43
sg14
g1
(g11
g12
(dtRp44
sg16
g1
(g11
g12
(dtRp45
sg18
g1
(g11
g12
(dtRp46
sg20
g1
(g11
g12
(dtRp47
sg22
g1
(g11
g12
(dtRp48
sbsg24
g25
sg26
g27
((lp49
g33
ag32
ag29
ag30
atRp50
sg37
(lp51
g1
(g2
g3
NtRp52
(dp53
g6
g1
(g7
g3
NtRp54
(dp55
g10
g1
(g11
g12
(dtRp56
sg14
g1
(g11
g12
(dtRp57
sg16
g1
(g11
g12
(dtRp58
sg18
g1
(g11
g12
(dtRp59
sg20
g1
(g11
g12
(dtRp60
sg22
g1
(g11
g12
(dtRp61
sbsg24
g25
sg26
g27
((lp62
g33
ag32
ag29
ag30
atRp63
sg37
(lp64
g1
(g2
g3
NtRp65
(dp66
g6
g1
(g7
g3
NtRp67
(dp68
g10
g1
(g11
g12
(dtRp69
sg14
g1
(g11
g12
(dtRp70
sg16
g1
(g11
g12
(dtRp71
sg18
g1
(g11
g12
(dtRp72
sg20
g1
(g11
g12
(dtRp73
sg22
g1
(g11
g12
(dtRp74
sbsg24
g25
sg26
g27
((lp75
g33
ag32
ag29
ag30
atRp76
sg37
(lp77
g1
(g2
g3
NtRp78
(dp79
g6
g1
(g7
g3
NtRp80
(dp81
g10
g1
(g11
g12
(dtRp82
sg14
g1
(g11
g12
(dtRp83
sg16
g1
(g11
g12
(dtRp84
sg18
g1
(g11
g12
(dtRp85
sg20
g1
(g11
g12
(dtRp86
sg22
g1
(g11
g12
(dtRp87
sbsg24
g25
sg26
g27
((lp88
g33
ag32
ag29
ag30
atRp89
sg37
(lp90
g1
(g2
g3
NtRp91
(dp92
g6
g1
(g7
g3
NtRp93
(dp94
g10
g1
(g11
g12
(dtRp95
sg14
g1
(g11
g12
(dtRp96
sg16
g1
(g11
g12
(dtRp97
sg18
g1
(g11
g12
(dtRp98
sg20
g1
(g11
g12
(dtRp99
sg22
g1
(g11
g12
(dtRp100
sbsg24
g25
sg26
g27
((lp101
g33
ag32
ag29
ag30
atRp102
sg37
(lp103
g1
(g2
g3
NtRp104
(dp105
g6
g1
(g7
g3
NtRp106
(dp107
g10
g1
(g11
g12
(dtRp108
sg14
g1
(g11
g12
(dtRp109
sg16
g1
(g11
g12
(dtRp110
sg18
g1
(g11
g12
(dtRp111
sg20
g1
(g11
g12
(dtRp112
sg22
g1
(g11
g12
(dtRp113
sbsg24
S'Yli'
p114
sg26
g27
((lp115
g29
ag30
aS'sequence'
p116
ag32
ag33
aS'species'
p117
atRp118
sg37
(lp119
sS'_up'
p120
g91
sS'sequence'
p121
S'RWLSTKDLYSRLELTGLNQNVHAMFVMPLGFGNPMGDMFARLNNSFWLVPLSLEGAGTGWTVYFPLAHSGPAVDLAFHLSSSLLGAINFTNMRGPLFWTALLLLSLPVLAGTGIDRNFNTFEGGDALYHLFWFFGHPEVYIIPGFGSHSAISKFGMYASIGLGFVWSHHMFVGLDDRAYFTSATMIAPTSIKFSWLATYGGRTALAFIFLFTGGTGVLNSADPFHDSYYVVHFHYVLSMGAFSIGWYLWPGLYNLFWFNFPMHFLGGMPRRNYPDAGWNSGSAYQLGPSGTNEPH'
p122
sS'_dist'
p123
F0.00011
sS'_name'
p124
S'NoName'
p125
sg33
S'62'
p126
sS'_img_style'
p127
g1
(cete2.treeview.main
NodeStyle
p128
g12
(dp129
S'size'
p130
I4
sS'hz_line_color'
p131
S'#000000'
p132
sS'faces_bgcolor'
p133
S'#FFFFFF'
p134
sS'vt_line_color'
p135
g132
sS'draw_descendants'
p136
I01
sg34
S'square'
p137
sS'bgcolor'
p138
g134
sS'hz_line_type'
p139
I0
sS'vt_line_width'
p140
I0
sS'vt_line_type'
p141
I0
sS'node_bgcolor'
p142
g134
sg35
S'#000000'
p143
sS'hz_line_width'
p144
I0
stRp145
sS'_speciesFunction'
p146
cete2.phylo.phylotree
_parse_species
p147
sS'_support'
p148
F1
sS'_temp_faces'
p149
Nsg30
S'YlipoB'
p150
sbag1
(g2
g3
NtRp151
(dp152
g6
g1
(g7
g3
NtRp153
(dp154
g10
g1
(g11
g12
(dtRp155
sg14
g1
(g11
g12
(dtRp156
sg16
g1
(g11
g12
(dtRp157
sg18
g1
(g11
g12
(dtRp158
sg20
g1
(g11
g12
(dtRp159
sg22
g1
(g11
g12
(dtRp160
sbsg24
S'Yli'
p161
sg26
g27
((lp162
g29
ag30
aS'sequence'
p163
ag32
ag33
aS'species'
p164
atRp165
sg37
(lp166
sg120
g91
sg121
S'RWLSTKDLYSRLELTGLNQNVHAMFVMPLGFGNPMGDMFARLNNSFWLVPLSLEGAGTGWTVYFPLAHSGPAVDLAFHLSSSLLGAINFTNMRGPLFWTALLLLSLPVLAGTGIDRNFNTFEGGDALYHLFWFFGHPEVYIIPGFGSHSAISKFGMYASIGLGFVWSHHMFVGLDDRAYFTSATMIAPTSIKFSWLATYGGRTALAFIFLFTGGTGVLNSADPFHDSYYVVHFHYVLSMGAFSIGWYLWPGLYNLFWFNFPMHFLGGMPRRNYPDAGWNSGSAYQLGPSGTNEPH'
p167
sg123
F0.00048000000000000001
sg124
g125
sg33
S'9'
sg127
g1
(g128
g12
(dp168
g130
I4
sg131
g132
sg133
g134
sg135
g132
sg136
I01
sg34
g137
sg138
g134
sg139
I0
sg140
I0
sg141
I0
sg142
g134
sg35
g143
sg144
I0
stRp169
sg146
g147
sg148
F1
sg149
Nsg30
S'YlipoA'
p170
sbasg120
g78
sg123
F0.02656
sg124
g125
sg33
S'11'
p171
sg127
g1
(g128
g12
(dp172
g130
I6
sg131
g132
sg133
g134
sg135
g132
sg136
I01
sg34
S'circle'
p173
sg138
g134
sg139
I0
sg140
I0
sg141
I0
sg142
g134
sg35
S'#0030c1'
p174
sg144
I0
stRp175
sg146
g147
sg148
F1
sg149
Nsg30
S'NoName'
p176
sbag1
(g2
g3
NtRp177
(dp178
g6
g1
(g7
g3
NtRp179
(dp180
g10
g1
(g11
g12
(dtRp181
sg14
g1
(g11
g12
(dtRp182
sg16
g1
(g11
g12
(dtRp183
sg18
g1
(g11
g12
(dtRp184
sg20
g1
(g11
g12
(dtRp185
sg22
g1
(g11
g12
(dtRp186
sbsg24
g25
sg26
g27
((lp187
g33
ag32
ag29
ag30
atRp188
sg37
(lp189
g1
(g2
g3
NtRp190
(dp191
g6
g1
(g7
g3
NtRp192
(dp193
g10
g1
(g11
g12
(dtRp194
sg14
g1
(g11
g12
(dtRp195
sg16
g1
(g11
g12
(dtRp196
sg18
g1
(g11
g12
(dtRp197
sg20
g1
(g11
g12
(dtRp198
sg22
g1
(g11
g12
(dtRp199
sbsg24
S'Cga'
p200
sg26
g27
((lp201
g29
ag30
aS'sequence'
p202
ag32
ag33
aS'species'
p203
atRp204
sg37
(lp205
sg120
g177
sg121
S'RWLSTKDLYSRLELTGLNQNVHAMFVMPLGFGNPMGDMFARLNNSFWLVPLSLEGAGTGWTVYFPLAHSGPAVDLAFHLSSSLLGAINFTNMRGPLFWTALLLLSLPVLAGTGIDRNFNTFEGGDALYHLFWFFGHPEVYIIPGFGSHSAISKFGMYASIGLGFVWSHHMFVGLDDRAYFTSATMIAPTSIKFSWLSTYGGRTALAFIFLFTGGTGVLNSADPFHDSYYVVHFHYVLSMGAFSIGWYLWPGLYNLFWFNFPMHFLGGMPRRNYPDAGWNSGSAYQLGPSGTNEPH'
p206
sg123
F0.016299999999999999
sg124
g125
sg33
S'5'
sg127
g1
(g128
g12
(dp207
g130
I4
sg131
g132
sg133
g134
sg135
g132
sg136
I01
sg34
g137
sg138
g134
sg139
I0
sg140
I0
sg141
I0
sg142
g134
sg35
g143
sg144
I0
stRp208
sg146
g147
sg148
F1
sg149
Nsg30
S'CgallA'
p209
sbag1
(g2
g3
NtRp210
(dp211
g6
g1
(g7
g3
NtRp212
(dp213
g10
g1
(g11
g12
(dtRp214
sg14
g1
(g11
g12
(dtRp215
sg16
g1
(g11
g12
(dtRp216
sg18
g1
(g11
g12
(dtRp217
sg20
g1
(g11
g12
(dtRp218
sg22
g1
(g11
g12
(dtRp219
sbsg24
S'Cde'
p220
sg26
g27
((lp221
g29
ag30
aS'sequence'
p222
ag32
ag33
aS'species'
p223
atRp224
sg37
(lp225
sg120
g177
sg121
S'RWLSTKDLYSRLELTGLNQNVHAMFVMPLGFGNPMGDMFARLNNSFWLVPLSLEGAGTGWTVYFPLAHSGPAVDLAFHLSSSLLGAINFTNMRGPLFWTALLLLSLPVLAGTGIDRNFNTFEGGDALYHLFFFNGHPEVYIIPGFGSHSAISKFGMYASIGLGFVWSHHMFVGLDDRAYFTSATMIAPTSIKFSWLATYGGRTALAFIFLFTGGTGVLNSADPFHDSYYVVHFHYVLSMGAFSIGWYLWPGLYNLFWFNFPMHFLGGMPRRNYPDAGWNSGSAYQLGPSGTNEPH'
p226
sg123
F0.018610000000000002
sg124
g125
sg33
S'54'
p227
sg127
g1
(g128
g12
(dp228
g130
I4
sg131
g132
sg133
g134
sg135
g132
sg136
I01
sg34
g137
sg138
g134
sg139
I0
sg140
I0
sg141
I0
sg142
g134
sg35
g143
sg144
I0
stRp229
sg146
g147
sg148
F1
sg149
Nsg30
S'CdefoA'
p230
sbasg120
g78
sg123
F0.00282
sg124
g125
sg33
S'102'
p231
sg127
g1
(g128
g12
(dp232
g130
I6
sg131
g132
sg133
g134
sg135
g132
sg136
I01
sg34
g173
sg138
g134
sg139
I0
sg140
I0
sg141
I0
sg142
g134
sg35
g174
sg144
I0
stRp233
sg146
g147
sg148
F0.96999999999999997
sg149
Nsg30
S'NoName'
p234
sbasg120
g65
sg123
F0.00479
sg124
g125
sg33
S'89'
p235
sg127
g1
(g128
g12
(dp236
g130
I6
sg131
g132
sg133
g134
sg135
g132
sg136
I01
sg34
g173
sg138
g134
sg139
I0
sg140
I0
sg141
I0
sg142
g134
sg35
g174
sg144
I0
stRp237
sg146
g147
sg148
F0.80000000000000004
sg149
Nsg30
S'NoName'
p238
sbag1
(g2
g3
NtRp239
(dp240
g6
g1
(g7
g3
NtRp241
(dp242
g10
g1
(g11
g12
(dtRp243
sg14
g1
(g11
g12
(dtRp244
sg16
g1
(g11
g12
(dtRp245
sg18
g1
(g11
g12
(dtRp246
sg20
g1
(g11
g12
(dtRp247
sg22
g1
(g11
g12
(dtRp248
sbsg24
S'Cal'
p249
sg26
g27
((lp250
g29
ag30
aS'sequence'
p251
ag32
ag33
aS'species'
p252
atRp253
sg37
(lp254
sg120
g65
sg121
S'RWLSTKDLYSRLELTGLNQNVHAMFVMPLGFGNPMGDMFARLNNSFWLVPMSLEGAGTGWTVYFPLAHSGPAVDLAFHLASSLLGAINFTNMRGPLFWTALLLLSLPVLAGTGIDRNFNTFEGGDALYHLFWFFGHPEVYIIPGFGSHSAISKFGMYASIGLGFVWSHHMFVGLDDRAYFTSATMIAPTSIKFSWLATYGGRTALAFIFLFTGGTGVLNSADPFHDSYYVVHFHYVLSMGAFSIGWYLWPGLYNLFWFNFPMHFLGGMPRRNYPDAGWNSGSAYQLGPSGTNEPH'
p255
sg123
F0.035970000000000002
sg124
g125
sg33
S'76'
p256
sg127
g1
(g128
g12
(dp257
g130
I4
sg131
g132
sg133
g134
sg135
g132
sg136
I01
sg34
g137
sg138
g134
sg139
I0
sg140
I0
sg141
I0
sg142
g134
sg35
g143
sg144
I0
stRp258
sg146
g147
sg148
F1
sg149
Nsg30
S'CalimA'
p259
sbasg120
g52
sg123
F1.1444799999999999
sg124
g125
sg33
S'94'
p260
sg127
g1
(g128
g12
(dp261
g130
I6
sg131
g132
sg133
g134
sg135
g132
sg136
I01
sg34
g173
sg138
g134
sg139
I0
sg140
I0
sg141
I0
sg142
g134
sg35
g174
sg144
I0
stRp262
sg146
g147
sg148
F0.97999999999999998
sg149
Nsg30
S'NoName'
p263
sbag1
(g2
g3
NtRp264
(dp265
g6
g1
(g7
g3
NtRp266
(dp267
g10
g1
(g11
g12
(dtRp268
sg14
g1
(g11
g12
(dtRp269
sg16
g1
(g11
g12
(dtRp270
sg18
g1
(g11
g12
(dtRp271
sg20
g1
(g11
g12
(dtRp272
sg22
g1
(g11
g12
(dtRp273
sbsg24
g25
sg26
g27
((lp274
g33
ag32
ag29
ag30
atRp275
sg37
(lp276
g1
(g2
g3
NtRp277
(dp278
g6
g1
(g7
g3
NtRp279
(dp280
g10
g1
(g11
g12
(dtRp281
sg14
g1
(g11
g12
(dtRp282
sg16
g1
(g11
g12
(dtRp283
sg18
g1
(g11
g12
(dtRp284
sg20
g1
(g11
g12
(dtRp285
sg22
g1
(g11
g12
(dtRp286
sbsg24
g25
sg26
g27
((lp287
g33
ag32
ag29
ag30
atRp288
sg37
(lp289
g1
(g2
g3
NtRp290
(dp291
g6
g1
(g7
g3
NtRp292
(dp293
g10
g1
(g11
g12
(dtRp294
sg14
g1
(g11
g12
(dtRp295
sg16
g1
(g11
g12
(dtRp296
sg18
g1
(g11
g12
(dtRp297
sg20
g1
(g11
g12
(dtRp298
sg22
g1
(g11
g12
(dtRp299
sbsg24
g25
sg26
g27
((lp300
g33
ag32
ag29
ag30
atRp301
sg37
(lp302
g1
(g2
g3
NtRp303
(dp304
g6
g1
(g7
g3
NtRp305
(dp306
g10
g1
(g11
g12
(dtRp307
sg14
g1
(g11
g12
(dtRp308
sg16
g1
(g11
g12
(dtRp309
sg18
g1
(g11
g12
(dtRp310
sg20
g1
(g11
g12
(dtRp311
sg22
g1
(g11
g12
(dtRp312
sbsg24
g25
sg26
g27
((lp313
g33
ag32
ag29
ag30
atRp314
sg37
(lp315
g1
(g2
g3
NtRp316
(dp317
g6
g1
(g7
g3
NtRp318
(dp319
g10
g1
(g11
g12
(dtRp320
sg14
g1
(g11
g12
(dtRp321
sg16
g1
(g11
g12
(dtRp322
sg18
g1
(g11
g12
(dtRp323
sg20
g1
(g11
g12
(dtRp324
sg22
g1
(g11
g12
(dtRp325
sbsg24
S'Mst'
p326
sg26
g27
((lp327
g29
ag30
aS'sequence'
p328
ag32
ag33
aS'species'
p329
atRp330
sg37
(lp331
sg120
g303
sg121
S'RWLSTKDLYSRLELPTLNQNVHAMFVMPSGFGNPMGDMLARLNNSFWLVPVSLEGAGTGWTVYPPLSHSGASVDLVFHMSSSLLGAINFTNMRGTLFWTALLLLSLPVLSGTLLDRNFNTFEGGDPLYHLFWFFGHPEVYIIPGFGSHSTYKKFGMYASMGLGFVWSHHMYVGLDDRAYFTSATMMAPTGVKFSWLATYGGRPFLAFMFLFTGGTGVLNASDAFHDTYYVVHFHYVLSLGAFSLGYYFWPGLYNLFMFNFPLHFLGGMPRRPYPDAGWNSGSSYQLGPDESNEPH'
p332
sg123
F0.087190000000000004
sg124
g125
sg33
S'8'
sg127
g1
(g128
g12
(dp333
g130
I4
sg131
g132
sg133
g134
sg135
g132
sg136
I01
sg34
g137
sg138
g134
sg139
I0
sg140
I0
sg141
I0
sg142
g134
sg35
g143
sg144
I0
stRp334
sg146
g147
sg148
F1
sg149
Nsg30
S'MstarA'
p335
sbag1
(g2
g3
NtRp336
(dp337
g6
g1
(g7
g3
NtRp338
(dp339
g10
g1
(g11
g12
(dtRp340
sg14
g1
(g11
g12
(dtRp341
sg16
g1
(g11
g12
(dtRp342
sg18
g1
(g11
g12
(dtRp343
sg20
g1
(g11
g12
(dtRp344
sg22
g1
(g11
g12
(dtRp345
sbsg24
S'Min'
p346
sg26
g27
((lp347
g29
ag30
aS'sequence'
p348
ag32
ag33
aS'species'
p349
atRp350
sg37
(lp351
sg120
g303
sg121
S'RWLSTKDLYSRLELPTLNQNVHAMFVMPAGFGNPMGDMLARLNNSFWLVPVSLEGAGTGWTVYPPLSHSGPSVDLVFHISSSLLGSMNFTNMRGTLFWTSLLLLSLPVLSGTLLDRNFNTFEGGDPLYHLFYKMMLFSMYMMPGFGSHSAYKKFGMYASIGLGFVWSHHMYVGLDDRAYFTSATMIAPTGVKFSWLATYGGRPFLAFMFLFTGGTGVLNASDAFHDTYYVVHFHYVLSLGAFSLGYYFWPGLYNLFTFNFPLHFLGGMPRRPYPDAGWNSGSSYQLGPDESNEPH'
p352
sg123
F0.040719999999999999
sg124
g125
sg33
S'80'
p353
sg127
g1
(g128
g12
(dp354
g130
I4
sg131
g132
sg133
g134
sg135
g132
sg136
I01
sg34
g137
sg138
g134
sg139
I0
sg140
I0
sg141
I0
sg142
g134
sg35
g143
sg144
I0
stRp355
sg146
g147
sg148
F1
sg149
Nsg30
S'MingeA'
p356
sbasg120
g290
sg123
F0.037420000000000002
sg124
g125
sg33
S'34'
p357
sg127
g1
(g128
g12
(dp358
g130
I6
sg131
g132
sg133
g134
sg135
g132
sg136
I01
sg34
g173
sg138
g134
sg139
I0
sg140
I0
sg141
I0
sg142
g134
sg35
g174
sg144
I0
stRp359
sg146
g147
sg148
F0.98999999999999999
sg149
Nsg30
S'NoName'
p360
sbag1
(g2
g3
NtRp361
(dp362
g6
g1
(g7
g3
NtRp363
(dp364
g10
g1
(g11
g12
(dtRp365
sg14
g1
(g11
g12
(dtRp366
sg16
g1
(g11
g12
(dtRp367
sg18
g1
(g11
g12
(dtRp368
sg20
g1
(g11
g12
(dtRp369
sg22
g1
(g11
g12
(dtRp370
sbsg24
g25
sg26
g27
((lp371
g33
ag32
ag29
ag30
atRp372
sg37
(lp373
g1
(g2
g3
NtRp374
(dp375
g6
g1
(g7
g3
NtRp376
(dp377
g10
g1
(g11
g12
(dtRp378
sg14
g1
(g11
g12
(dtRp379
sg16
g1
(g11
g12
(dtRp380
sg18
g1
(g11
g12
(dtRp381
sg20
g1
(g11
g12
(dtRp382
sg22
g1
(g11
g12
(dtRp383
sbsg24
g25
sg26
g27
((lp384
g33
ag32
ag29
ag30
atRp385
sg37
(lp386
g1
(g2
g3
NtRp387
(dp388
g6
g1
(g7
g3
NtRp389
(dp390
g10
g1
(g11
g12
(dtRp391
sg14
g1
(g11
g12
(dtRp392
sg16
g1
(g11
g12
(dtRp393
sg18
g1
(g11
g12
(dtRp394
sg20
g1
(g11
g12
(dtRp395
sg22
g1
(g11
g12
(dtRp396
sbsg24
S'Mte'
p397
sg26
g27
((lp398
g29
ag30
aS'sequence'
p399
ag32
ag33
aS'species'
p400
atRp401
sg37
(lp402
sg120
g374
sg121
S'RWLSTKDLYSRLELPTLNQNVHAMFVMPAGFGNPMGDMLARLNNSFWLVPLSLEGAGTGWTVYPPLSHSGPSVDMVFHISSSLLGAINFTNMRGTLFWTALLLLSLPVLSGTLLDRNFNTFEGGDPLYHLFWFFGHPEVYIIPGFGSHSAYKKFGMYASIGLGFVWSHHMYVGLDDRAYFTSATMIAPTGVKFSWLATYGGRPFLAFIFLFTGGTGVLNASDAFHDTYYVVHFHYVLSLGAFSLGYYFWPGLYNLFYFNFPMHALGGMPRRPYPDAGWNSGSSYQLGPDESNEPH'
p403
sg123
F0.042599999999999999
sg124
g125
sg33
S'19'
p404
sg127
g1
(g128
g12
(dp405
g130
I4
sg131
g132
sg133
g134
sg135
g132
sg136
I01
sg34
g137
sg138
g134
sg139
I0
sg140
I0
sg141
I0
sg142
g134
sg35
g143
sg144
I0
stRp406
sg146
g147
sg148
F1
sg149
Nsg30
S'MtetrA'
p407
sbag1
(g2
g3
NtRp408
(dp409
g6
g1
(g7
g3
NtRp410
(dp411
g10
g1
(g11
g12
(dtRp412
sg14
g1
(g11
g12
(dtRp413
sg16
g1
(g11
g12
(dtRp414
sg18
g1
(g11
g12
(dtRp415
sg20
g1
(g11
g12
(dtRp416
sg22
g1
(g11
g12
(dtRp417
sbsg24
g25
sg26
g27
((lp418
g33
ag32
ag29
ag30
atRp419
sg37
(lp420
g1
(g2
g3
NtRp421
(dp422
g6
g1
(g7
g3
NtRp423
(dp424
g10
g1
(g11
g12
(dtRp425
sg14
g1
(g11
g12
(dtRp426
sg16
g1
(g11
g12
(dtRp427
sg18
g1
(g11
g12
(dtRp428
sg20
g1
(g11
g12
(dtRp429
sg22
g1
(g11
g12
(dtRp430
sbsg24
S'Mma'
p431
sg26
g27
((lp432
g29
ag30
aS'sequence'
p433
ag32
ag33
aS'species'
p434
atRp435
sg37
(lp436
sg120
g408
sg121
S'RWLSTKDLYSRLELPTLNQNVHAMFVMPAGFGNPMGDMLARLNNSFWLVPLSLEGPGTGWTVYPPLSHSGPSVDMVFHISSSLLGAINFTNMRGTLFWTALLLLSLPVLSGTLLDRNFNTFEGGDPLYHLFWFFGHPEVYIIPGFGSHSAYKKFGMYASIGLGFVWSHHMYVGLDDRAYFTSATMIAPTGVKFSWLATYGGRPFLAFIFLFTGGTGVLNASDAFHDSYYVVHFHYVLSLGAFSLGYYFWPGLYNLFFFNFPMHALGGMPRRPYPDAGWNSGSSYQLGPDESNEPH'
p437
sg123
F0.00055000000000000003
sg124
g125
sg33
S'17'
p438
sg127
g1
(g128
g12
(dp439
g130
I4
sg131
g132
sg133
g134
sg135
g132
sg136
I01
sg34
g137
sg138
g134
sg139
I0
sg140
I0
sg141
I0
sg142
g134
sg35
g143
sg144
I0
stRp440
sg146
g147
sg148
F1
sg149
Nsg30
S'MmagnB'
p441
sbag1
(g2
g3
NtRp442
(dp443
g6
g1
(g7
g3
NtRp444
(dp445
g10
g1
(g11
g12
(dtRp446
sg14
g1
(g11
g12
(dtRp447
sg16
g1
(g11
g12
(dtRp448
sg18
g1
(g11
g12
(dtRp449
sg20
g1
(g11
g12
(dtRp450
sg22
g1
(g11
g12
(dtRp451
sbsg24
S'Mma'
p452
sg26
g27
((lp453
g29
ag30
aS'sequence'
p454
ag32
ag33
aS'species'
p455
atRp456
sg37
(lp457
sg120
g408
sg121
S'RWLSTKDLYSRLELPTLNQNVHAMFVMPAGFGNPMGDMLARLNNSFWLVPLSLEGPGTGWTVYPPLSHSGPSVDMVFHISSSLLGAINFTNMRGTLFWTALLLLSLPVLSGTLLDRNFNTFEGGDPLYHLFWFFGHPEVYIIPGFGSHSAYKKFGMYASIGLGFVWSHHMYVGLDDRAYFTSATMIAPTGVKFSWLATYGGRPFLAFIFLFTGGTGVLNASDAFHDSYYVVHFHYVLSLGAFSLGYYFWPGLYNLFFFNFPMHALGGMPRRPYPDAGWNSGSSYQLGPDESNEPH'
p458
sg123
F0.00088000000000000003
sg124
g125
sg33
S'24'
p459
sg127
g1
(g128
g12
(dp460
g130
I4
sg131
g132
sg133
g134
sg135
g132
sg136
I01
sg34
g137
sg138
g134
sg139
I0
sg140
I0
sg141
I0
sg142
g134
sg35
g143
sg144
I0
stRp461
sg146
g147
sg148
F1
sg149
Nsg30
S'MmagnA'
p462
sbasg120
g374
sg123
F0.011140000000000001
sg124
g125
sg33
S'22'
p463
sg127
g1
(g128
g12
(dp464
g130
I6
sg131
g132
sg133
g134
sg135
g132
sg136
I01
sg34
g173
sg138
g134
sg139
I0
sg140
I0
sg141
I0
sg142
g134
sg35
g174
sg144
I0
stRp465
sg146
g147
sg148
F0.98999999999999999
sg149
Nsg30
S'NoName'
p466
sbasg120
g361
sg123
F0.11189
sg124
g125
sg33
S'46'
p467
sg127
g1
(g128
g12
(dp468
g130
I6
sg131
g132
sg133
g134
sg135
g132
sg136
I01
sg34
g173
sg138
g134
sg139
I0
sg140
I0
sg141
I0
sg142
g134
sg35
g174
sg144
I0
stRp469
sg146
g147
sg148
F0.98999999999999999
sg149
Nsg30
S'NoName'
p470
sbag1
(g2
g3
NtRp471
(dp472
g6
g1
(g7
g3
NtRp473
(dp474
g10
g1
(g11
g12
(dtRp475
sg14
g1
(g11
g12
(dtRp476
sg16
g1
(g11
g12
(dtRp477
sg18
g1
(g11
g12
(dtRp478
sg20
g1
(g11
g12
(dtRp479
sg22
g1
(g11
g12
(dtRp480
sbsg24
g25
sg26
g27
((lp481
g33
ag32
ag29
ag30
atRp482
sg37
(lp483
g1
(g2
g3
NtRp484
(dp485
g6
g1
(g7
g3
NtRp486
(dp487
g10
g1
(g11
g12
(dtRp488
sg14
g1
(g11
g12
(dtRp489
sg16
g1
(g11
g12
(dtRp490
sg18
g1
(g11
g12
(dtRp491
sg20
g1
(g11
g12
(dtRp492
sg22
g1
(g11
g12
(dtRp493
sbsg24
S'Scl'
p494
sg26
g27
((lp495
g29
ag30
aS'sequence'
p496
ag32
ag33
aS'species'
p497
atRp498
sg37
(lp499
sg120
g471
sg121
S'RWLSTKDLYSRLELPTLNQNVHAMFVMPAGFGNPMGDMLARLNNSFWLVPLSLEGPGTGWTVYPPLSHSGPSVDMVFHMSSSLLGAINFTNMRGTLFWTALLLLSLPVLAGTLLDRNFNTFEGGDPLYHLFWFFGHPEVYMIPGFGSHSTYKKFGMYASMGLGFVWSHHMYVGLDDRAYFTAATMIAPTGVKFSWLATYGGRPFLTFMFLFTGGTGVLNASDAFHDTYYVVHFHYVLSLGAFSLGYYFWPGLYNLFMFNFPLHFLGGMPRRPYPDAGWNSGSSYQLGPDESNEPH'
p500
sg123
F0.020899999999999998
sg124
g125
sg33
S'45'
p501
sg127
g1
(g128
g12
(dp502
g130
I4
sg131
g132
sg133
g134
sg135
g132
sg136
I01
sg34
g137
sg138
g134
sg139
I0
sg140
I0
sg141
I0
sg142
g134
sg35
g143
sg144
I0
stRp503
sg146
g147
sg148
F1
sg149
Nsg30
S'SclavA'
p504
sbag1
(g2
g3
NtRp505
(dp506
g6
g1
(g7
g3
NtRp507
(dp508
g10
g1
(g11
g12
(dtRp509
sg14
g1
(g11
g12
(dtRp510
sg16
g1
(g11
g12
(dtRp511
sg18
g1
(g11
g12
(dtRp512
sg20
g1
(g11
g12
(dtRp513
sg22
g1
(g11
g12
(dtRp514
sbsg24
S'Msp'
p515
sg26
g27
((lp516
g29
ag30
aS'sequence'
p517
ag32
ag33
aS'species'
p518
atRp519
sg37
(lp520
sg120
g471
sg121
S'RWLSTKDLYSRLELPTLNQNVHAMFVMPAGFGNPMGDMLARLNNSFWLVPLSLEGPGTGWTVYPPLSHSGPSVDMVFHMSSSLLGAMNFTNMRGTLFWTALLLLSLPVLAGTLLDRNFNTFEGGDPLYHLFWFFGHPEVYMIPGFGSHSTYKKFGMYASMGLGFVWSHHMYVGLDDRAYFTAATMIAPTGVKFSWLATYGGRPFLTFMFLFTGGTGVLNASDAFHDTYYVVHFHYVLSLGAFSLGYYFWPGLYNLFMFNFPLHFLGGMPRRPYPDAGWNSGSSYQLGPDESNEPH'
p521
sg123
F0.13538
sg124
g125
sg33
S'37'
p522
sg127
g1
(g128
g12
(dp523
g130
I4
sg131
g132
sg133
g134
sg135
g132
sg136
I01
sg34
g137
sg138
g134
sg139
I0
sg140
I0
sg141
I0
sg142
g134
sg35
g143
sg144
I0
stRp524
sg146
g147
sg148
F1
sg149
Nsg30
S'MspicA'
p525
sbasg120
g361
sg123
F0.10536
sg124
g125
sg33
S'31'
p526
sg127
g1
(g128
g12
(dp527
g130
I6
sg131
g132
sg133
g134
sg135
g132
sg136
I01
sg34
g173
sg138
g134
sg139
I0
sg140
I0
sg141
I0
sg142
g134
sg35
g174
sg144
I0
stRp528
sg146
g147
sg148
F0.98999999999999999
sg149
Nsg30
S'NoName'
p529
sbasg120
g290
sg123
F0.03209
sg124
g125
sg33
S'56'
p530
sg127
g1
(g128
g12
(dp531
g130
I6
sg131
g132
sg133
g134
sg135
g132
sg136
I01
sg34
g173
sg138
g134
sg139
I0
sg140
I0
sg141
I0
sg142
g134
sg35
g174
sg144
I0
stRp532
sg146
g147
sg148
F0.98999999999999999
sg149
Nsg30
S'NoName'
p533
sbasg120
g277
sg123
F0.32869999999999999
sg124
g125
sg33
S'12'
p534
sg127
g1
(g128
g12
(dp535
g130
I6
sg131
g132
sg133
g134
sg135
g132
sg136
I01
sg34
g173
sg138
g134
sg139
I0
sg140
I0
sg141
I0
sg142
g134
sg35
g174
sg144
I0
stRp536
sg146
g147
sg148
F0.98999999999999999
sg149
Nsg30
S'NoName'
p537
sbag1
(g2
g3
NtRp538
(dp539
g6
g1
(g7
g3
NtRp540
(dp541
g10
g1
(g11
g12
(dtRp542
sg14
g1
(g11
g12
(dtRp543
sg16
g1
(g11
g12
(dtRp544
sg18
g1
(g11
g12
(dtRp545
sg20
g1
(g11
g12
(dtRp546
sg22
g1
(g11
g12
(dtRp547
sbsg24
g25
sg26
g27
((lp548
g33
ag32
ag29
ag30
atRp549
sg37
(lp550
g1
(g2
g3
NtRp551
(dp552
g6
g1
(g7
g3
NtRp553
(dp554
g10
g1
(g11
g12
(dtRp555
sg14
g1
(g11
g12
(dtRp556
sg16
g1
(g11
g12
(dtRp557
sg18
g1
(g11
g12
(dtRp558
sg20
g1
(g11
g12
(dtRp559
sg22
g1
(g11
g12
(dtRp560
sbsg24
g25
sg26
g27
((lp561
g33
ag32
ag29
ag30
atRp562
sg37
(lp563
g1
(g2
g3
NtRp564
(dp565
g6
g1
(g7
g3
NtRp566
(dp567
g10
g1
(g11
g12
(dtRp568
sg14
g1
(g11
g12
(dtRp569
sg16
g1
(g11
g12
(dtRp570
sg18
g1
(g11
g12
(dtRp571
sg20
g1
(g11
g12
(dtRp572
sg22
g1
(g11
g12
(dtRp573
sbsg24
S'Cze'
p574
sg26
g27
((lp575
g29
ag30
aS'sequence'
p576
ag32
ag33
aS'species'
p577
atRp578
sg37
(lp579
sg120
g551
sg121
S'SWLSTQNLYSRIELPNLNQNVHAMFVMPTGLANPQGDTFPRMNNAFVLLPMSLDGPGSGWTLYPPLTHSGSSMDMAFHLSSSIFGAINLTNMRGPLFWTALMMLALPVLAGTLLDRNFNTFVGGDPLYHIFWFFGHPEVYIIPVFGSQQVYKKFGMYASIGLGFVWSHHMFVGLDDRAYFSGASLIAPTGSKFSWLATYGGRPLLAFMVLFTGGTGVMNSSDMFHDTYYVVHFHYVLSLGVFGVAYYFWPGLYNLFWFNFPLHFLGGLPRRPYPDAGWNSGSSYQFGPDESNEPH'
p580
sg123
F1.5682799999999999
sg124
g125
sg33
S'138'
p581
sg127
g1
(g128
g12
(dp582
g130
I4
sg131
g132
sg133
g134
sg135
g132
sg136
I01
sg34
g137
sg138
g134
sg139
I0
sg140
I0
sg141
I0
sg142
g134
sg35
g143
sg144
I0
stRp583
sg146
g147
sg148
F1
sg149
Nsg30
S'CzempA'
p584
sbag1
(g2
g3
NtRp585
(dp586
g6
g1
(g7
g3
NtRp587
(dp588
g10
g1
(g11
g12
(dtRp589
sg14
g1
(g11
g12
(dtRp590
sg16
g1
(g11
g12
(dtRp591
sg18
g1
(g11
g12
(dtRp592
sg20
g1
(g11
g12
(dtRp593
sg22
g1
(g11
g12
(dtRp594
sbsg24
g25
sg26
g27
((lp595
g33
ag32
ag29
ag30
atRp596
sg37
(lp597
g1
(g2
g3
NtRp598
(dp599
g6
g1
(g7
g3
NtRp600
(dp601
g10
g1
(g11
g12
(dtRp602
sg14
g1
(g11
g12
(dtRp603
sg16
g1
(g11
g12
(dtRp604
sg18
g1
(g11
g12
(dtRp605
sg20
g1
(g11
g12
(dtRp606
sg22
g1
(g11
g12
(dtRp607
sbsg24
S'Csa'
p608
sg26
g27
((lp609
g29
ag30
aS'sequence'
p610
ag32
ag33
aS'species'
p611
atRp612
sg37
(lp613
sg120
g585
sg121
S'----------RLELPNLNQNVHAMFVMPSGFGNPMGDMLARLNNSFWLVPLSLDGPGTGWTMYPPLSHSGASVDLVFHISSSLLGAMNFTNMRGTLFWTALLLLSLPVLSGTLLDRNFNTFEGGDMLYHMFWFFGHPEVYMMPGFGSQSVYKKFGMYASMGLGFVWSHHMFVGLDDRAYFTAATLMAPTGVKFSWLASYGGRPLLAFMFLFTGGTGVLNASDAFHDTYYVVHFHYVLSLGAFSLGYYFWPGLYNLFWFNFPQHFLGAMPRRPYPDAGWNSGSSYQMGPDFSNEPH'
p614
sg123
F0.65920000000000001
sg124
g125
sg33
S'142'
p615
sg127
g1
(g128
g12
(dp616
g130
I4
sg131
g132
sg133
g134
sg135
g132
sg136
I01
sg34
g137
sg138
g134
sg139
I0
sg140
I0
sg141
I0
sg142
g134
sg35
g143
sg144
I0
stRp617
sg146
g147
sg148
F1
sg149
Nsg30
S'CsantA'
p618
sbag1
(g2
g3
NtRp619
(dp620
g6
g1
(g7
g3
NtRp621
(dp622
g10
g1
(g11
g12
(dtRp623
sg14
g1
(g11
g12
(dtRp624
sg16
g1
(g11
g12
(dtRp625
sg18
g1
(g11
g12
(dtRp626
sg20
g1
(g11
g12
(dtRp627
sg22
g1
(g11
g12
(dtRp628
sbsg24
S'Csa'
p629
sg26
g27
((lp630
g29
ag30
aS'sequence'
p631
ag32
ag33
aS'species'
p632
atRp633
sg37
(lp634
sg120
g585
sg121
S'RWLSTKDLYSRLELPAMSQNVHAMFVMPSGFANPMGDTLPRVNNAAILMPMSLEGPGTGWTVYPPLSHSGVSVDLVFHISSSLAGAMNLTNMRGPLFWTALLLLSLPVLAGTLIDRNFNTFDGGDVLYHLFWFFGHPEVYIIPGFGSESRYNKFGMYASIGLGFVWSHHMYVGLDDRSYFTAATLIAPTGVKFSWMATFGGRPFLTFLALFTGGTGVLNASDAFHDTYYVVHFHYVLSLGAFSMGYYYWPGLYNLFWFNFPQHFLGGQPRRSYPDAGWNSGSSYQLGPDESNEPH'
p635
sg123
F1.3581099999999999
sg124
g125
sg33
S'139'
p636
sg127
g1
(g128
g12
(dp637
g130
I4
sg131
g132
sg133
g134
sg135
g132
sg136
I01
sg34
g137
sg138
g134
sg139
I0
sg140
I0
sg141
I0
sg142
g134
sg35
g143
sg144
I0
stRp638
sg146
g147
sg148
F1
sg149
Nsg30
S'CsalmA'
p639
sbasg120
g551
sg123
F0.19968
sg124
g125
sg33
S'223'
p640
sg127
g1
(g128
g12
(dp641
g130
I6
sg131
g132
sg133
g134
sg135
g132
sg136
I01
sg34
g173
sg138
g134
sg139
I0
sg140
I0
sg141
I0
sg142
g134
sg35
g174
sg144
I0
stRp642
sg146
g147
sg148
F0.97999999999999998
sg149
Nsg30
S'NoName'
p643
sbasg120
g538
sg123
F0.14363999999999999
sg124
g125
sg33
S'51'
p644
sg127
g1
(g128
g12
(dp645
g130
I6
sg131
g132
sg133
g134
sg135
g132
sg136
I01
sg34
g173
sg138
g134
sg139
I0
sg140
I0
sg141
I0
sg142
g134
sg35
g174
sg144
I0
stRp646
sg146
g147
sg148
F0.93000000000000005
sg149
Nsg30
S'NoName'
p647
sbag1
(g2
g3
NtRp648
(dp649
g6
g1
(g7
g3
NtRp650
(dp651
g10
g1
(g11
g12
(dtRp652
sg14
g1
(g11
g12
(dtRp653
sg16
g1
(g11
g12
(dtRp654
sg18
g1
(g11
g12
(dtRp655
sg20
g1
(g11
g12
(dtRp656
sg22
g1
(g11
g12
(dtRp657
sbsg24
S'Bar'
p658
sg26
g27
((lp659
g29
ag30
aS'sequence'
p660
ag32
ag33
aS'species'
p661
atRp662
sg37
(lp663
sg120
g538
sg121
S'RWLSTKDLYSRLELPNLNQNSHAMFVMPTGFGNPMGDMLSRLNNSFWLVPLSLEGPGTGWTVYPPLSHSGPSVDLVFHVSSSLLGAMNFTNMRGTLFWTVLLLLALPVLAGTLLDRNFNTFEGGDPLYHMFWFFGHPEVYIIPGFGSQAVYNKFGMYASIGLGFVWSHHMYVGMDDRAYFTAATLIAPTGVKFSWLASYGGRPLLTFIGLFTGGTGVLNAADAFHDSYYVVHFHYVLSLGAFSLGYYFWPGLYNLFWFNFPQHFLGSMPRRPYPDAGWNSGSSVQLGPDVNNEPH'
p664
sg123
F0.74575000000000002
sg124
g125
sg33
S'140'
p665
sg127
g1
(g128
g12
(dp666
g130
I4
sg131
g132
sg133
g134
sg135
g132
sg136
I01
sg34
g137
sg138
g134
sg139
I0
sg140
I0
sg141
I0
sg142
g134
sg35
g143
sg144
I0
stRp667
sg146
g147
sg148
F1
sg149
Nsg30
S'BarxA'
p668
sbasg120
g277
sg123
F0.25233
sg124
g125
sg33
S'3'
sg127
g1
(g128
g12
(dp669
g130
I6
sg131
g132
sg133
g134
sg135
g132
sg136
I01
sg34
g173
sg138
g134
sg139
I0
sg140
I0
sg141
I0
sg142
g134
sg35
g174
sg144
I0
stRp670
sg146
g147
sg148
F0.97999999999999998
sg149
Nsg30
S'NoName'
p671
sbasg120
g264
sg123
F0.42224
sg124
g125
sg33
S'49'
p672
sg127
g1
(g128
g12
(dp673
g130
I6
sg131
g132
sg133
g134
sg135
g132
sg136
I01
sg34
g173
sg138
g134
sg139
I0
sg140
I0
sg141
I0
sg142
g134
sg35
g174
sg144
I0
stRp674
sg146
g147
sg148
F0.97999999999999998
sg149
Nsg30
S'NoName'
p675
sbag1
(g2
g3
NtRp676
(dp677
g6
g1
(g7
g3
NtRp678
(dp679
g10
g1
(g11
g12
(dtRp680
sg14
g1
(g11
g12
(dtRp681
sg16
g1
(g11
g12
(dtRp682
sg18
g1
(g11
g12
(dtRp683
sg20
g1
(g11
g12
(dtRp684
sg22
g1
(g11
g12
(dtRp685
sbsg24
g25
sg26
g27
((lp686
g33
ag32
ag29
ag30
atRp687
sg37
(lp688
g1
(g2
g3
NtRp689
(dp690
g6
g1
(g7
g3
NtRp691
(dp692
g10
g1
(g11
g12
(dtRp693
sg14
g1
(g11
g12
(dtRp694
sg16
g1
(g11
g12
(dtRp695
sg18
g1
(g11
g12
(dtRp696
sg20
g1
(g11
g12
(dtRp697
sg22
g1
(g11
g12
(dtRp698
sbsg24
g25
sg26
g27
((lp699
g33
ag32
ag29
ag30
atRp700
sg37
(lp701
g1
(g2
g3
NtRp702
(dp703
g6
g1
(g7
g3
NtRp704
(dp705
g10
g1
(g11
g12
(dtRp706
sg14
g1
(g11
g12
(dtRp707
sg16
g1
(g11
g12
(dtRp708
sg18
g1
(g11
g12
(dtRp709
sg20
g1
(g11
g12
(dtRp710
sg22
g1
(g11
g12
(dtRp711
sbsg24
g25
sg26
g27
((lp712
g33
ag32
ag29
ag30
atRp713
sg37
(lp714
g1
(g2
g3
NtRp715
(dp716
g6
g1
(g7
g3
NtRp717
(dp718
g10
g1
(g11
g12
(dtRp719
sg14
g1
(g11
g12
(dtRp720
sg16
g1
(g11
g12
(dtRp721
sg18
g1
(g11
g12
(dtRp722
sg20
g1
(g11
g12
(dtRp723
sg22
g1
(g11
g12
(dtRp724
sbsg24
g25
sg26
g27
((lp725
g33
ag32
ag29
ag30
atRp726
sg37
(lp727
g1
(g2
g3
NtRp728
(dp729
g6
g1
(g7
g3
NtRp730
(dp731
g10
g1
(g11
g12
(dtRp732
sg14
g1
(g11
g12
(dtRp733
sg16
g1
(g11
g12
(dtRp734
sg18
g1
(g11
g12
(dtRp735
sg20
g1
(g11
g12
(dtRp736
sg22
g1
(g11
g12
(dtRp737
sbsg24
S'Mfa'
p738
sg26
g27
((lp739
g29
ag30
aS'sequence'
p740
ag32
ag33
aS'species'
p741
atRp742
sg37
(lp743
sg120
g715
sg121
S'RWLSTKDLYSRLELGNLNQNVHAMFVMPLGFGNPLGDMFARLNNSFWLPPLSLEGAGTGWTVYPPLSHSGPSVDLAFHLTSSLLGAINFTNMRGPLFWTALLLLSLPVLAGTLLDRNFNTFEGGDPLYHLFWFFGHPEVYIIPGFGSHSTYKKFGMYASIGLGFVWSHHMYVGLDDRAYFTSATMIAPTGIKFSWLATYGGRPMLAFLFLFTGGTGVLNASDAFHDTYFVVHFHYVLSMGAFSLAYYYWPGLYNLFWFNFPMHFLGGMPRRPYPDAGWNSGSSYQMGPDESNEPH'
p744
sg123
F0.14163999999999999
sg124
g125
sg33
S'152'
p745
sg127
g1
(g128
g12
(dp746
g130
I4
sg131
g132
sg133
g134
sg135
g132
sg136
I01
sg34
g137
sg138
g134
sg139
I0
sg140
I0
sg141
I0
sg142
g134
sg35
g143
sg144
I0
stRp747
sg146
g147
sg148
F1
sg149
Nsg30
S'MfariB'
p748
sbag1
(g2
g3
NtRp749
(dp750
g6
g1
(g7
g3
NtRp751
(dp752
g10
g1
(g11
g12
(dtRp753
sg14
g1
(g11
g12
(dtRp754
sg16
g1
(g11
g12
(dtRp755
sg18
g1
(g11
g12
(dtRp756
sg20
g1
(g11
g12
(dtRp757
sg22
g1
(g11
g12
(dtRp758
sbsg24
S'Csa'
p759
sg26
g27
((lp760
g29
ag30
aS'sequence'
p761
ag32
ag33
aS'species'
p762
atRp763
sg37
(lp764
sg120
g715
sg121
S'RWLSTKDLYSRLELGNFNQNVHAMFVMPLGFGNPLGDMFARLNNSFWLPPLSLEGAGTGWTVYPPLSHSGPSVDLAFHLTSSLLGAINFTNMRGPLFWTALLLLSLPVLAATLLDRNFNTFEGGDPLYHLFWFFGHPEVYIIPGFGSHSTYKKFGMYASMGLGFVWSHHMYVGLDDRAYFTSATMIAPTGMKFSWLATYGGRPMLAFLFLFTGGTGVLNASDAFHDTYYVVHFHYVLSMGAFSLAYYYWPGLYNWFWFNFPMHFLGGMPRRPYPDAGWNSGSSYQMGPDESNEPH'
p765
sg123
F0.069970000000000004
sg124
g125
sg33
S'183'
p766
sg127
g1
(g128
g12
(dp767
g130
I4
sg131
g132
sg133
g134
sg135
g132
sg136
I01
sg34
g137
sg138
g134
sg139
I0
sg140
I0
sg141
I0
sg142
g134
sg35
g143
sg144
I0
stRp768
sg146
g147
sg148
F1
sg149
Nsg30
S'CsakeA'
p769
sbasg120
g702
sg123
F0.048980000000000003
sg124
g125
sg33
S'147'
p770
sg127
g1
(g128
g12
(dp771
g130
I6
sg131
g132
sg133
g134
sg135
g132
sg136
I01
sg34
g173
sg138
g134
sg139
I0
sg140
I0
sg141
I0
sg142
g134
sg35
g174
sg144
I0
stRp772
sg146
g147
sg148
F0.98999999999999999
sg149
Nsg30
S'NoName'
p773
sbag1
(g2
g3
NtRp774
(dp775
g6
g1
(g7
g3
NtRp776
(dp777
g10
g1
(g11
g12
(dtRp778
sg14
g1
(g11
g12
(dtRp779
sg16
g1
(g11
g12
(dtRp780
sg18
g1
(g11
g12
(dtRp781
sg20
g1
(g11
g12
(dtRp782
sg22
g1
(g11
g12
(dtRp783
sbsg24
g25
sg26
g27
((lp784
g33
ag32
ag29
ag30
atRp785
sg37
(lp786
g1
(g2
g3
NtRp787
(dp788
g6
g1
(g7
g3
NtRp789
(dp790
g10
g1
(g11
g12
(dtRp791
sg14
g1
(g11
g12
(dtRp792
sg16
g1
(g11
g12
(dtRp793
sg18
g1
(g11
g12
(dtRp794
sg20
g1
(g11
g12
(dtRp795
sg22
g1
(g11
g12
(dtRp796
sbsg24
g25
sg26
g27
((lp797
g33
ag32
ag29
ag30
atRp798
sg37
(lp799
g1
(g2
g3
NtRp800
(dp801
g6
g1
(g7
g3
NtRp802
(dp803
g10
g1
(g11
g12
(dtRp804
sg14
g1
(g11
g12
(dtRp805
sg16
g1
(g11
g12
(dtRp806
sg18
g1
(g11
g12
(dtRp807
sg20
g1
(g11
g12
(dtRp808
sg22
g1
(g11
g12
(dtRp809
sbsg24
S'Mfa'
p810
sg26
g27
((lp811
g29
ag30
aS'sequence'
p812
ag32
ag33
aS'species'
p813
atRp814
sg37
(lp815
sg120
g787
sg121
S'RWLSTKDLYSRAELGNFNHNVHAMFVMPLGFGNPMGDMFARLNNSFWLPPLSLEGAGTGWTVYPPLSHSGPSVDLAFHLTSSLLGAMNFTNMRGPLFWTALLLLSLPVLAGTLLDRNFNTFEGGDPLYHLFWFFGHPEVYIIPGFGSHSTYKKFGMYASMGLGFVWSHHMYVGLDDRAYFTSATMMAPTGIKFSWLATYGGRPMLAFLFLFTGGTGVLNASDAFHDTYYMYHFHYVLSMGAFSLGYYYWPGLYNWFWFNFPMHFLGGMPRRPYPDAGWNSGSSKQLGPDESNEPH'
p816
sg123
F0.29086000000000001
sg124
g125
sg33
S'184'
p817
sg127
g1
(g128
g12
(dp818
g130
I4
sg131
g132
sg133
g134
sg135
g132
sg136
I01
sg34
g137
sg138
g134
sg139
I0
sg140
I0
sg141
I0
sg142
g134
sg35
g143
sg144
I0
stRp819
sg146
g147
sg148
F1
sg149
Nsg30
S'MfariA'
p820
sbag1
(g2
g3
NtRp821
(dp822
g6
g1
(g7
g3
NtRp823
(dp824
g10
g1
(g11
g12
(dtRp825
sg14
g1
(g11
g12
(dtRp826
sg16
g1
(g11
g12
(dtRp827
sg18
g1
(g11
g12
(dtRp828
sg20
g1
(g11
g12
(dtRp829
sg22
g1
(g11
g12
(dtRp830
sbsg24
S'Dha'
p831
sg26
g27
((lp832
g29
ag30
aS'sequence'
p833
ag32
ag33
aS'species'
p834
atRp835
sg37
(lp836
sg120
g787
sg121
S'RWLSTKDLYSRMELGNFNQNVHAMFIMPWGFGNPLGDMFARLNNSFWLPPLSLEGAGTGWTLYPPLSHSGPSVDLAFHLTSSLLGAMNFTNMRGPLFWTALLLLSLPVLAATLLDRNFNTFEGGDPLYHLFWFFGHPEVYIMPGFGSHSTYKKFGMYASIGLGFVWSHHMFVGLDDRAYFTSATMIAPTGIKFSWLATYGGRPMLAFLFLFTGGTGVLNASDAFHDTYYVVHFHYVLSMGAFSLAYYYWPGLYNLFWFNFPMHFLGGMPRRPYPDAGWNSGSSKQLGPDESNDPH'
p837
sg123
F0.11043
sg124
g125
sg33
S'186'
p838
sg127
g1
(g128
g12
(dp839
g130
I4
sg131
g132
sg133
g134
sg135
g132
sg136
I01
sg34
g137
sg138
g134
sg139
I0
sg140
I0
sg141
I0
sg142
g134
sg35
g143
sg144
I0
stRp840
sg146
g147
sg148
F1
sg149
Nsg30
S'DhansA'
p841
sbasg120
g774
sg123
F0.046699999999999998
sg124
g125
sg33
S'190'
p842
sg127
g1
(g128
g12
(dp843
g130
I6
sg131
g132
sg133
g134
sg135
g132
sg136
I01
sg34
g173
sg138
g134
sg139
I0
sg140
I0
sg141
I0
sg142
g134
sg35
g174
sg144
I0
stRp844
sg146
g147
sg148
F0.65000000000000002
sg149
Nsg30
S'NoName'
p845
sbag1
(g2
g3
NtRp846
(dp847
g6
g1
(g7
g3
NtRp848
(dp849
g10
g1
(g11
g12
(dtRp850
sg14
g1
(g11
g12
(dtRp851
sg16
g1
(g11
g12
(dtRp852
sg18
g1
(g11
g12
(dtRp853
sg20
g1
(g11
g12
(dtRp854
sg22
g1
(g11
g12
(dtRp855
sbsg24
g25
sg26
g27
((lp856
g33
ag32
ag29
ag30
atRp857
sg37
(lp858
g1
(g2
g3
NtRp859
(dp860
g6
g1
(g7
g3
NtRp861
(dp862
g10
g1
(g11
g12
(dtRp863
sg14
g1
(g11
g12
(dtRp864
sg16
g1
(g11
g12
(dtRp865
sg18
g1
(g11
g12
(dtRp866
sg20
g1
(g11
g12
(dtRp867
sg22
g1
(g11
g12
(dtRp868
sbsg24
S'Clu'
p869
sg26
g27
((lp870
g29
ag30
aS'sequence'
p871
ag32
ag33
aS'species'
p872
atRp873
sg37
(lp874
sg120
g846
sg121
S'RWLSTKDLYSRLELPDLNQNVHAMFVMPLGFGNPMGDMFARLNNSFWLPPLSLEGAGTGWTVYPPLSHSGPSVDLAFHLTSSLLGAINFTNMRGPLFWTALLLLSLPVLAGTLLDRNFNTFEGGDPLYHLFWFFGHPEVYMMPGFGSHSTYKKFGMYASMGLGFVWSHHMYVGLDDRAYFTSATMMAPTGMKFSWLATYGGRPMLAFLFLFTGGTGVLNASDAFHDTYYVVHFHYVLSMGAFSLGYYYWPGLYNWFWFNFPMHFLGGMPRRPYPDAGWNSGSSRQLGPDESNEPH'
p875
sg123
F0.037310000000000003
sg124
g125
sg33
S'199'
p876
sg127
g1
(g128
g12
(dp877
g130
I4
sg131
g132
sg133
g134
sg135
g132
sg136
I01
sg34
g137
sg138
g134
sg139
I0
sg140
I0
sg141
I0
sg142
g134
sg35
g143
sg144
I0
stRp878
sg146
g147
sg148
F1
sg149
Nsg30
S'ClusiA'
p879
sbag1
(g2
g3
NtRp880
(dp881
g6
g1
(g7
g3
NtRp882
(dp883
g10
g1
(g11
g12
(dtRp884
sg14
g1
(g11
g12
(dtRp885
sg16
g1
(g11
g12
(dtRp886
sg18
g1
(g11
g12
(dtRp887
sg20
g1
(g11
g12
(dtRp888
sg22
g1
(g11
g12
(dtRp889
sbsg24
g25
sg26
g27
((lp890
g33
ag32
ag29
ag30
atRp891
sg37
(lp892
g1
(g2
g3
NtRp893
(dp894
g6
g1
(g7
g3
NtRp895
(dp896
g10
g1
(g11
g12
(dtRp897
sg14
g1
(g11
g12
(dtRp898
sg16
g1
(g11
g12
(dtRp899
sg18
g1
(g11
g12
(dtRp900
sg20
g1
(g11
g12
(dtRp901
sg22
g1
(g11
g12
(dtRp902
sbsg24
S'Mgu'
p903
sg26
g27
((lp904
g29
ag30
aS'sequence'
p905
ag32
ag33
aS'species'
p906
atRp907
sg37
(lp908
sg120
g880
sg121
S'---------------------------------------------------------------------------------------------------------------------------------------------------------------------------------------------------------------------------------------HFHYVLSMGAFSLGYYYWPGLYNWFWFNFPMHFLGGMPRRPYPDAGWNSGSSKQLGPDESNEPH'
p909
sg123
F0.0044999999999999997
sg124
g125
sg33
S'195'
p910
sg127
g1
(g128
g12
(dp911
g130
I4
sg131
g132
sg133
g134
sg135
g132
sg136
I01
sg34
g137
sg138
g134
sg139
I0
sg140
I0
sg141
I0
sg142
g134
sg35
g143
sg144
I0
stRp912
sg146
g147
sg148
F1
sg149
Nsg30
S'MguilB'
p913
sbag1
(g2
g3
NtRp914
(dp915
g6
g1
(g7
g3
NtRp916
(dp917
g10
g1
(g11
g12
(dtRp918
sg14
g1
(g11
g12
(dtRp919
sg16
g1
(g11
g12
(dtRp920
sg18
g1
(g11
g12
(dtRp921
sg20
g1
(g11
g12
(dtRp922
sg22
g1
(g11
g12
(dtRp923
sbsg24
S'Mgu'
p924
sg26
g27
((lp925
g29
ag30
aS'sequence'
p926
ag32
ag33
aS'species'
p927
atRp928
sg37
(lp929
sg120
g880
sg121
S'RWLSTKDLYSRMELGNFNQNVHAMFVMPIGFGNPMGDMFARLNNSFWLPPLSLEGAGTGWTVYPPLSHSGPSVDMAFHLTSSLLGAMNFTNMRGPLFWTALLLLSLPVLAGTLLDRNFNTFEGGDPLYHLFWFFGHPEVYMMPGFGSHSTYKKFGMYASIGLGFVWSHHMYVGLDDRAYFTSATMMAPTGMKFSWLSTYGGRPMLAFLFLFTGGTGVLNASDAFHDTYYVVHFHYVLSMGAFSLGYYYWPGLYNWFWFNFPMHFLGGMPRRPYPDAGWNSGSSKQLGPDESNEPH'
p930
sg123
F0.0020100000000000001
sg124
g125
sg33
S'197'
p931
sg127
g1
(g128
g12
(dp932
g130
I4
sg131
g132
sg133
g134
sg135
g132
sg136
I01
sg34
g137
sg138
g134
sg139
I0
sg140
I0
sg141
I0
sg142
g134
sg35
g143
sg144
I0
stRp933
sg146
g147
sg148
F1
sg149
Nsg30
S'MguilA'
p934
sbasg120
g846
sg123
F0.25231999999999999
sg124
g125
sg33
S'188'
p935
sg127
g1
(g128
g12
(dp936
g130
I6
sg131
g132
sg133
g134
sg135
g132
sg136
I01
sg34
g173
sg138
g134
sg139
I0
sg140
I0
sg141
I0
sg142
g134
sg35
g174
sg144
I0
stRp937
sg146
g147
sg148
F0.98999999999999999
sg149
Nsg30
S'NoName'
p938
sbasg120
g774
sg123
F0.090679999999999997
sg124
g125
sg33
S'187'
p939
sg127
g1
(g128
g12
(dp940
g130
I6
sg131
g132
sg133
g134
sg135
g132
sg136
I01
sg34
g173
sg138
g134
sg139
I0
sg140
I0
sg141
I0
sg142
g134
sg35
g174
sg144
I0
stRp941
sg146
g147
sg148
F0.98999999999999999
sg149
Nsg30
S'NoName'
p942
sbasg120
g702
sg123
F0.032190000000000003
sg124
g125
sg33
S'149'
p943
sg127
g1
(g128
g12
(dp944
g130
I6
sg131
g132
sg133
g134
sg135
g132
sg136
I01
sg34
g173
sg138
g134
sg139
I0
sg140
I0
sg141
I0
sg142
g134
sg35
g174
sg144
I0
stRp945
sg146
g147
sg148
F0.64000000000000001
sg149
Nsg30
S'NoName'
p946
sbasg120
g689
sg123
F0.12181
sg124
g125
sg33
S'154'
p947
sg127
g1
(g128
g12
(dp948
g130
I6
sg131
g132
sg133
g134
sg135
g132
sg136
I01
sg34
g173
sg138
g134
sg139
I0
sg140
I0
sg141
I0
sg142
g134
sg35
g174
sg144
I0
stRp949
sg146
g147
sg148
F0.98999999999999999
sg149
Nsg30
S'NoName'
p950
sbag1
(g2
g3
NtRp951
(dp952
g6
g1
(g7
g3
NtRp953
(dp954
g10
g1
(g11
g12
(dtRp955
sg14
g1
(g11
g12
(dtRp956
sg16
g1
(g11
g12
(dtRp957
sg18
g1
(g11
g12
(dtRp958
sg20
g1
(g11
g12
(dtRp959
sg22
g1
(g11
g12
(dtRp960
sbsg24
g25
sg26
g27
((lp961
g33
ag32
ag29
ag30
atRp962
sg37
(lp963
g1
(g2
g3
NtRp964
(dp965
g6
g1
(g7
g3
NtRp966
(dp967
g10
g1
(g11
g12
(dtRp968
sg14
g1
(g11
g12
(dtRp969
sg16
g1
(g11
g12
(dtRp970
sg18
g1
(g11
g12
(dtRp971
sg20
g1
(g11
g12
(dtRp972
sg22
g1
(g11
g12
(dtRp973
sbsg24
g25
sg26
g27
((lp974
g33
ag32
ag29
ag30
atRp975
sg37
(lp976
g1
(g2
g3
NtRp977
(dp978
g6
g1
(g7
g3
NtRp979
(dp980
g10
g1
(g11
g12
(dtRp981
sg14
g1
(g11
g12
(dtRp982
sg16
g1
(g11
g12
(dtRp983
sg18
g1
(g11
g12
(dtRp984
sg20
g1
(g11
g12
(dtRp985
sg22
g1
(g11
g12
(dtRp986
sbsg24
S'Cbl'
p987
sg26
g27
((lp988
g29
ag30
aS'sequence'
p989
ag32
ag33
aS'species'
p990
atRp991
sg37
(lp992
sg120
g964
sg121
S'RWLSTKDLYSRLELANLNQNVHAMFVMPLGMGNPMGDMFARLNNSFWLPPLSLEGPGTGWTLYAPLSHSGPSVDMAFHLTSSLLGAINFTNMRGPLYWTALLLLSLPVLAATLLDRNFNTFEGGDPLYHLFWFFGHPEVYMIPGFGSHSTYKKFGMYASIGLGFVWSHHMYVGLDDRAYFTSATMIAPTGIKFSWMATYGGRPMLAFLFLFTGGTGVLNASDAFHDTYYVVHFHYVLSMGAFSLGYYYWPGLYNLFWFNFPMHFLGGMPRRPYPDAGWNSGSSYQLGPDESNEPH'
p993
sg123
F0.36785000000000001
sg124
g125
sg33
S'209'
p994
sg127
g1
(g128
g12
(dp995
g130
I4
sg131
g132
sg133
g134
sg135
g132
sg136
I01
sg34
g137
sg138
g134
sg139
I0
sg140
I0
sg141
I0
sg142
g134
sg35
g143
sg144
I0
stRp996
sg146
g147
sg148
F1
sg149
Nsg30
S'CblacA'
p997
sbag1
(g2
g3
NtRp998
(dp999
g6
g1
(g7
g3
NtRp1000
(dp1001
g10
g1
(g11
g12
(dtRp1002
sg14
g1
(g11
g12
(dtRp1003
sg16
g1
(g11
g12
(dtRp1004
sg18
g1
(g11
g12
(dtRp1005
sg20
g1
(g11
g12
(dtRp1006
sg22
g1
(g11
g12
(dtRp1007
sbsg24
g25
sg26
g27
((lp1008
g33
ag32
ag29
ag30
atRp1009
sg37
(lp1010
g1
(g2
g3
NtRp1011
(dp1012
g6
g1
(g7
g3
NtRp1013
(dp1014
g10
g1
(g11
g12
(dtRp1015
sg14
g1
(g11
g12
(dtRp1016
sg16
g1
(g11
g12
(dtRp1017
sg18
g1
(g11
g12
(dtRp1018
sg20
g1
(g11
g12
(dtRp1019
sg22
g1
(g11
g12
(dtRp1020
sbsg24
g25
sg26
g27
((lp1021
g33
ag32
ag29
ag30
atRp1022
sg37
(lp1023
g1
(g2
g3
NtRp1024
(dp1025
g6
g1
(g7
g3
NtRp1026
(dp1027
g10
g1
(g11
g12
(dtRp1028
sg14
g1
(g11
g12
(dtRp1029
sg16
g1
(g11
g12
(dtRp1030
sg18
g1
(g11
g12
(dtRp1031
sg20
g1
(g11
g12
(dtRp1032
sg22
g1
(g11
g12
(dtRp1033
sbsg24
g25
sg26
g27
((lp1034
g33
ag32
ag29
ag30
atRp1035
sg37
(lp1036
g1
(g2
g3
NtRp1037
(dp1038
g6
g1
(g7
g3
NtRp1039
(dp1040
g10
g1
(g11
g12
(dtRp1041
sg14
g1
(g11
g12
(dtRp1042
sg16
g1
(g11
g12
(dtRp1043
sg18
g1
(g11
g12
(dtRp1044
sg20
g1
(g11
g12
(dtRp1045
sg22
g1
(g11
g12
(dtRp1046
sbsg24
g25
sg26
g27
((lp1047
g33
ag32
ag29
ag30
atRp1048
sg37
(lp1049
g1
(g2
g3
NtRp1050
(dp1051
g6
g1
(g7
g3
NtRp1052
(dp1053
g10
g1
(g11
g12
(dtRp1054
sg14
g1
(g11
g12
(dtRp1055
sg16
g1
(g11
g12
(dtRp1056
sg18
g1
(g11
g12
(dtRp1057
sg20
g1
(g11
g12
(dtRp1058
sg22
g1
(g11
g12
(dtRp1059
sbsg24
S'Lel'
p1060
sg26
g27
((lp1061
g29
ag30
aS'sequence'
p1062
ag32
ag33
aS'species'
p1063
atRp1064
sg37
(lp1065
sg120
g1037
sg121
S'RWLSTKDLYSRLELPGLDQNVHAMFVMPLGFGNPMGDMFARLNNSFWLPPLSLEGAGTGWTVYPPLSHSGPSVDLAFHLTSSLLGAINFTNMRGPLYWTALLLFSLPVLAGTLLDRNFNTFDGGDPLYHLFWFFGHPEVYIIPGFGSHSTYKKFGMYASIGLGFVWSHHMYVGLDDRAYFTSATMIAPTGIKFSWLATYGGRPMLAFLFLFTGGTGVLNASDAFHDTYYTVHFHYVLSMGAFSLGYYYWYGLYNLFWFNFPMHFLGGMPRRPYPDAGWNSGSSYQLGPDESNEPH'
p1066
sg123
F0.18278
sg124
g125
sg33
S'214'
p1067
sg127
g1
(g128
g12
(dp1068
g130
I4
sg131
g132
sg133
g134
sg135
g132
sg136
I01
sg34
g137
sg138
g134
sg139
I0
sg140
I0
sg141
I0
sg142
g134
sg35
g143
sg144
I0
stRp1069
sg146
g147
sg148
F1
sg149
Nsg30
S'LelonA'
p1070
sbag1
(g2
g3
NtRp1071
(dp1072
g6
g1
(g7
g3
NtRp1073
(dp1074
g10
g1
(g11
g12
(dtRp1075
sg14
g1
(g11
g12
(dtRp1076
sg16
g1
(g11
g12
(dtRp1077
sg18
g1
(g11
g12
(dtRp1078
sg20
g1
(g11
g12
(dtRp1079
sg22
g1
(g11
g12
(dtRp1080
sbsg24
S'Cox'
p1081
sg26
g27
((lp1082
g29
ag30
aS'sequence'
p1083
ag32
ag33
aS'species'
p1084
atRp1085
sg37
(lp1086
sg120
g1037
sg121
S'RWLSTKDLYSRLELSGLDQNVHAMFVMPIGFGNPMGDMFARLNNSFWLPPLSLEGPGVGWTVYPPLSHSGPSVDLAFHLTSSLLGAINFTNMRGPLYWTALLLLSLPVLAGTLLDRNFNTFDGGDPLYHLFWFFGHPEVYMIPGFGSHATYKKFGMYASIGLGFVWSHHMYVGLDDRAYFTSATMIAPTGIKFSWLATYGGRPMLAFLFLFTGGTGILNASDAFHDTYYTVHFHYVLSMGAFSLGYYLWYGLYNIFWFNFPMHFLGGMPRRPYPDAGWNSGSSYQLGPDESNEPH'
p1087
sg123
F0.17860000000000001
sg124
g125
sg33
S'217'
p1088
sg127
g1
(g128
g12
(dp1089
g130
I4
sg131
g132
sg133
g134
sg135
g132
sg136
I01
sg34
g137
sg138
g134
sg139
I0
sg140
I0
sg141
I0
sg142
g134
sg35
g143
sg144
I0
stRp1090
sg146
g147
sg148
F1
sg149
Nsg30
S'CoxycA'
p1091
sbasg120
g1024
sg123
F0.041480000000000003
sg124
g125
sg33
S'211'
p1092
sg127
g1
(g128
g12
(dp1093
g130
I6
sg131
g132
sg133
g134
sg135
g132
sg136
I01
sg34
g173
sg138
g134
sg139
I0
sg140
I0
sg141
I0
sg142
g134
sg35
g174
sg144
I0
stRp1094
sg146
g147
sg148
F0.98999999999999999
sg149
Nsg30
S'NoName'
p1095
sbag1
(g2
g3
NtRp1096
(dp1097
g6
g1
(g7
g3
NtRp1098
(dp1099
g10
g1
(g11
g12
(dtRp1100
sg14
g1
(g11
g12
(dtRp1101
sg16
g1
(g11
g12
(dtRp1102
sg18
g1
(g11
g12
(dtRp1103
sg20
g1
(g11
g12
(dtRp1104
sg22
g1
(g11
g12
(dtRp1105
sbsg24
g25
sg26
g27
((lp1106
g33
ag32
ag29
ag30
atRp1107
sg37
(lp1108
g1
(g2
g3
NtRp1109
(dp1110
g6
g1
(g7
g3
NtRp1111
(dp1112
g10
g1
(g11
g12
(dtRp1113
sg14
g1
(g11
g12
(dtRp1114
sg16
g1
(g11
g12
(dtRp1115
sg18
g1
(g11
g12
(dtRp1116
sg20
g1
(g11
g12
(dtRp1117
sg22
g1
(g11
g12
(dtRp1118
sbsg24
g25
sg26
g27
((lp1119
g33
ag32
ag29
ag30
atRp1120
sg37
(lp1121
g1
(g2
g3
NtRp1122
(dp1123
g6
g1
(g7
g3
NtRp1124
(dp1125
g10
g1
(g11
g12
(dtRp1126
sg14
g1
(g11
g12
(dtRp1127
sg16
g1
(g11
g12
(dtRp1128
sg18
g1
(g11
g12
(dtRp1129
sg20
g1
(g11
g12
(dtRp1130
sg22
g1
(g11
g12
(dtRp1131
sbsg24
g25
sg26
g27
((lp1132
g33
ag32
ag29
ag30
atRp1133
sg37
(lp1134
g1
(g2
g3
NtRp1135
(dp1136
g6
g1
(g7
g3
NtRp1137
(dp1138
g10
g1
(g11
g12
(dtRp1139
sg14
g1
(g11
g12
(dtRp1140
sg16
g1
(g11
g12
(dtRp1141
sg18
g1
(g11
g12
(dtRp1142
sg20
g1
(g11
g12
(dtRp1143
sg22
g1
(g11
g12
(dtRp1144
sbsg24
S'Cth'
p1145
sg26
g27
((lp1146
g29
ag30
aS'sequence'
p1147
ag32
ag33
aS'species'
p1148
atRp1149
sg37
(lp1150
sg120
g1122
sg121
S'RWLSTKDLYSRLELPGLNQNVHAMFVMPLGFGNPMGDMFARLNNSFWLPPLSLEGAGTGWTVYPPLSHSGPSVDLAFHLTSSLLGAINFTNMRGPLYWTALLLLSLPVLAGTLLDRNFNTFEGGDPLYHLFWFFGHPEVYIIPGFGSHSTYKKFGMYASIGLGFVWSHHMYVGLDDRAYFTSATMIAPTGIKFSWLATYGGRPMLAFLFLFTGGTGVLNASDAFHDTYYTVHFHYVLSMGAFSLGYYYWYGLYNLFWFNFPMHFLGGMPRRPYPDAGWNSGSSYQLGPDESNEPH'
p1151
sg123
F0.010059999999999999
sg124
g125
sg33
S'169'
p1152
sg127
g1
(g128
g12
(dp1153
g130
I4
sg131
g132
sg133
g134
sg135
g132
sg136
I01
sg34
g137
sg138
g134
sg139
I0
sg140
I0
sg141
I0
sg142
g134
sg35
g143
sg144
I0
stRp1154
sg146
g147
sg148
F1
sg149
Nsg30
S'CtheaA'
p1155
sbag1
(g2
g3
NtRp1156
(dp1157
g6
g1
(g7
g3
NtRp1158
(dp1159
g10
g1
(g11
g12
(dtRp1160
sg14
g1
(g11
g12
(dtRp1161
sg16
g1
(g11
g12
(dtRp1162
sg18
g1
(g11
g12
(dtRp1163
sg20
g1
(g11
g12
(dtRp1164
sg22
g1
(g11
g12
(dtRp1165
sbsg24
g25
sg26
g27
((lp1166
g33
ag32
ag29
ag30
atRp1167
sg37
(lp1168
g1
(g2
g3
NtRp1169
(dp1170
g6
g1
(g7
g3
NtRp1171
(dp1172
g10
g1
(g11
g12
(dtRp1173
sg14
g1
(g11
g12
(dtRp1174
sg16
g1
(g11
g12
(dtRp1175
sg18
g1
(g11
g12
(dtRp1176
sg20
g1
(g11
g12
(dtRp1177
sg22
g1
(g11
g12
(dtRp1178
sbsg24
g25
sg26
g27
((lp1179
g33
ag32
ag29
ag30
atRp1180
sg37
(lp1181
g1
(g2
g3
NtRp1182
(dp1183
g6
g1
(g7
g3
NtRp1184
(dp1185
g10
g1
(g11
g12
(dtRp1186
sg14
g1
(g11
g12
(dtRp1187
sg16
g1
(g11
g12
(dtRp1188
sg18
g1
(g11
g12
(dtRp1189
sg20
g1
(g11
g12
(dtRp1190
sg22
g1
(g11
g12
(dtRp1191
sbsg24
g25
sg26
g27
((lp1192
g33
ag32
ag29
ag30
atRp1193
sg37
(lp1194
g1
(g2
g3
NtRp1195
(dp1196
g6
g1
(g7
g3
NtRp1197
(dp1198
g10
g1
(g11
g12
(dtRp1199
sg14
g1
(g11
g12
(dtRp1200
sg16
g1
(g11
g12
(dtRp1201
sg18
g1
(g11
g12
(dtRp1202
sg20
g1
(g11
g12
(dtRp1203
sg22
g1
(g11
g12
(dtRp1204
sbsg24
S'Cor'
p1205
sg26
g27
((lp1206
g29
ag30
aS'sequence'
p1207
ag32
ag33
aS'species'
p1208
atRp1209
sg37
(lp1210
sg120
g1182
sg121
S'RWLSTKDLYSRLELPGLNQNVHAMFVMPLGFGNPMGDMFARLNNSFWLPPLSLEGAGTGWTVYPPLSHSGPSVDLAFHLTSSLLGAINFTNMRGPLFWTALLLLSLPVLAGTLLDRNFNTFEGGDPLYHLFWFFGHPEVYIIPGFGSHSTYKKFGMYASIGLGFVWSHHMYVGLDDRAYFTSATMIAPTGIKFSWLATYGGRPMLAFLFLFTGGTGVLNASDAFHDTYYTVHFHYVLSMGAFSLGYYYWYGLYNLFWFNFPMHFLGGMPRRPYPDAGWNSGSSYQLGPDESNEPH'
p1211
sg123
F0.00132
sg124
g125
sg33
S'180'
p1212
sg127
g1
(g128
g12
(dp1213
g130
I4
sg131
g132
sg133
g134
sg135
g132
sg136
I01
sg34
g137
sg138
g134
sg139
I0
sg140
I0
sg141
I0
sg142
g134
sg35
g143
sg144
I0
stRp1214
sg146
g147
sg148
F1
sg149
Nsg30
S'CorthC'
p1215
sbag1
(g2
g3
NtRp1216
(dp1217
g6
g1
(g7
g3
NtRp1218
(dp1219
g10
g1
(g11
g12
(dtRp1220
sg14
g1
(g11
g12
(dtRp1221
sg16
g1
(g11
g12
(dtRp1222
sg18
g1
(g11
g12
(dtRp1223
sg20
g1
(g11
g12
(dtRp1224
sg22
g1
(g11
g12
(dtRp1225
sbsg24
S'Cor'
p1226
sg26
g27
((lp1227
g29
ag30
aS'sequence'
p1228
ag32
ag33
aS'species'
p1229
atRp1230
sg37
(lp1231
sg120
g1182
sg121
S'RWLSTKDLYSRLELPGLNQNVHAMFVMPLGFGNPMGDMFARLNNSFWLPPLSLEGAGTGWTVYPPLSHSGPSVDLAFHLTSSLLGAINFTNMRGPLFWTALLLLSLPVLAGTLLDRNFNTFEGGDPLYHLFWFFGHPEVYIIPGFGSHSTYKKFGMYASIGLGFVWSHHMYVGLDDRAYFTSATMIAPTGIKFSWLATYGGRPMLAFLFLFTGGTGVLNASDAFHDTYYTVHFHYVLSMGAFSLGYYYWYGLYNLFWFNFPMHFLGGMPRRPYPDAGWNSGSSYQLGPDESNEPH'
p1232
sg123
F0.00093000000000000005
sg124
g125
sg33
S'174'
p1233
sg127
g1
(g128
g12
(dp1234
g130
I4
sg131
g132
sg133
g134
sg135
g132
sg136
I01
sg34
g137
sg138
g134
sg139
I0
sg140
I0
sg141
I0
sg142
g134
sg35
g143
sg144
I0
stRp1235
sg146
g147
sg148
F1
sg149
Nsg30
S'CorthB'
p1236
sbasg120
g1169
sg123
F0.00052999999999999998
sg124
g125
sg33
S'168'
p1237
sg127
g1
(g128
g12
(dp1238
g130
I6
sg131
g132
sg133
g134
sg135
g132
sg136
I01
sg34
g173
sg138
g134
sg139
I0
sg140
I0
sg141
I0
sg142
g134
sg35
g174
sg144
I0
stRp1239
sg146
g147
sg148
F0.85999999999999999
sg149
Nsg30
S'NoName'
p1240
sbag1
(g2
g3
NtRp1241
(dp1242
g6
g1
(g7
g3
NtRp1243
(dp1244
g10
g1
(g11
g12
(dtRp1245
sg14
g1
(g11
g12
(dtRp1246
sg16
g1
(g11
g12
(dtRp1247
sg18
g1
(g11
g12
(dtRp1248
sg20
g1
(g11
g12
(dtRp1249
sg22
g1
(g11
g12
(dtRp1250
sbsg24
S'Cor'
p1251
sg26
g27
((lp1252
g29
ag30
aS'sequence'
p1253
ag32
ag33
aS'species'
p1254
atRp1255
sg37
(lp1256
sg120
g1169
sg121
S'RWLSTKDLYSRLELPGLNQNVHAMFVMPLGFGNPMGDMFARLNNSFWLPPLSLEGAGTGWTVYPPLSHSGPSVDLAFHLTSSLLGAINFTNMRGPLFWTALLLLSLPVLAGTLLDRNFNTFEGGDPLYHLFWFFGHPEVYIIPGFGSHSTYKKFGMYASIGLGFVWSHHMYVGLDDRAYFTSATMIAPTGIKFSWLATYGGRPMLAFLFLFTGGTGVLNASDAFHDTYYTVHFHYVLSMGAFSLGYYYWYGLYNLFWFNFPMHFLGGMPRRPYPDAGWNSGSSYQLGPDESNEPH'
p1257
sg123
F0.0021099999999999999
sg124
g125
sg33
S'177'
p1258
sg127
g1
(g128
g12
(dp1259
g130
I4
sg131
g132
sg133
g134
sg135
g132
sg136
I01
sg34
g137
sg138
g134
sg139
I0
sg140
I0
sg141
I0
sg142
g134
sg35
g143
sg144
I0
stRp1260
sg146
g147
sg148
F1
sg149
Nsg30
S'CorthA'
p1261
sbasg120
g1156
sg123
F0.0031199999999999999
sg124
g125
sg33
S'166'
p1262
sg127
g1
(g128
g12
(dp1263
g130
I6
sg131
g132
sg133
g134
sg135
g132
sg136
I01
sg34
g173
sg138
g134
sg139
I0
sg140
I0
sg141
I0
sg142
g134
sg35
g174
sg144
I0
stRp1264
sg146
g147
sg148
F0.98999999999999999
sg149
Nsg30
S'NoName'
p1265
sbag1
(g2
g3
NtRp1266
(dp1267
g6
g1
(g7
g3
NtRp1268
(dp1269
g10
g1
(g11
g12
(dtRp1270
sg14
g1
(g11
g12
(dtRp1271
sg16
g1
(g11
g12
(dtRp1272
sg18
g1
(g11
g12
(dtRp1273
sg20
g1
(g11
g12
(dtRp1274
sg22
g1
(g11
g12
(dtRp1275
sbsg24
g25
sg26
g27
((lp1276
g33
ag32
ag29
ag30
atRp1277
sg37
(lp1278
g1
(g2
g3
NtRp1279
(dp1280
g6
g1
(g7
g3
NtRp1281
(dp1282
g10
g1
(g11
g12
(dtRp1283
sg14
g1
(g11
g12
(dtRp1284
sg16
g1
(g11
g12
(dtRp1285
sg18
g1
(g11
g12
(dtRp1286
sg20
g1
(g11
g12
(dtRp1287
sg22
g1
(g11
g12
(dtRp1288
sbsg24
g25
sg26
g27
((lp1289
g33
ag32
ag29
ag30
atRp1290
sg37
(lp1291
g1
(g2
g3
NtRp1292
(dp1293
g6
g1
(g7
g3
NtRp1294
(dp1295
g10
g1
(g11
g12
(dtRp1296
sg14
g1
(g11
g12
(dtRp1297
sg16
g1
(g11
g12
(dtRp1298
sg18
g1
(g11
g12
(dtRp1299
sg20
g1
(g11
g12
(dtRp1300
sg22
g1
(g11
g12
(dtRp1301
sbsg24
S'Cpa'
p1302
sg26
g27
((lp1303
g29
ag30
aS'sequence'
p1304
ag32
ag33
aS'species'
p1305
atRp1306
sg37
(lp1307
sg120
g1279
sg121
S'RWLSTKDLYSRLELPGLNQNVHAMFVMPLGFGNPMGDMFARLNNSFWLPPLSLEGAGTGWTVYPPLSHSGPSVDLAFHLTSSLLGAINFTNMRGPLFWTALLLLSLPVLAGTLLDRNFNTFEGGDPLYHLFWFFGHPEVYIIPGFGSHSTYKKFGMYASIGLGFVWSHHMYVGLDDRAYFTSATMIAPTSIKFSWLATYGGRTALAFIFLFTGGTGVLNSADPFHDSYYVVHFHYVLSMGAFSIGWYLWPGLYNLFWFNFPMHFLGGMPRRNYPDAGWNSGSAYQLGPSGTNEPH'
p1308
sg123
F0.00012999999999999999
sg124
g125
sg33
S'123'
p1309
sg127
g1
(g128
g12
(dp1310
g130
I4
sg131
g132
sg133
g134
sg135
g132
sg136
I01
sg34
g137
sg138
g134
sg139
I0
sg140
I0
sg141
I0
sg142
g134
sg35
g143
sg144
I0
stRp1311
sg146
g147
sg148
F1
sg149
Nsg30
S'CparaD'
p1312
sbag1
(g2
g3
NtRp1313
(dp1314
g6
g1
(g7
g3
NtRp1315
(dp1316
g10
g1
(g11
g12
(dtRp1317
sg14
g1
(g11
g12
(dtRp1318
sg16
g1
(g11
g12
(dtRp1319
sg18
g1
(g11
g12
(dtRp1320
sg20
g1
(g11
g12
(dtRp1321
sg22
g1
(g11
g12
(dtRp1322
sbsg24
S'Cpa'
p1323
sg26
g27
((lp1324
g29
ag30
aS'sequence'
p1325
ag32
ag33
aS'species'
p1326
atRp1327
sg37
(lp1328
sg120
g1279
sg121
S'RWLSTKDLYSRLELPGLNQNVHAMFVMPLGFGNPMGDMFARLNNSFWLPPLSLEGAGTGWTVYPPLSHSGPSVDLAFHLTSSLLGAINFTNMRGPLFWTALLLLSLPVLAGTLLDRNFNTFEGGDPLYHLFWFFGHPEVYIIPGFGSHSTYKKFGMYASIGLGFVWSHHMYVGLDDRAYFTSATMIAPTGIKFSWLATYGGRPMLAFLFLFTGGTGVVNASDAFHDTYYVVHFHYVLSMGAFSLGYYYWYGLYNLFWFNFPMHFLGGMPRRPYPDAGWNSGSSYSLGPDESNEPH'
p1329
sg123
F0.00012999999999999999
sg124
g125
sg33
S'120'
p1330
sg127
g1
(g128
g12
(dp1331
g130
I4
sg131
g132
sg133
g134
sg135
g132
sg136
I01
sg34
g137
sg138
g134
sg139
I0
sg140
I0
sg141
I0
sg142
g134
sg35
g143
sg144
I0
stRp1332
sg146
g147
sg148
F1
sg149
Nsg30
S'CparaB'
p1333
sbasg120
g1266
sg123
F0.00051000000000000004
sg124
g125
sg33
S'178'
p1334
sg127
g1
(g128
g12
(dp1335
g130
I6
sg131
g132
sg133
g134
sg135
g132
sg136
I01
sg34
g173
sg138
g134
sg139
I0
sg140
I0
sg141
I0
sg142
g134
sg35
g174
sg144
I0
stRp1336
sg146
g147
sg148
F0.98999999999999999
sg149
Nsg30
S'NoName'
p1337
sbag1
(g2
g3
NtRp1338
(dp1339
g6
g1
(g7
g3
NtRp1340
(dp1341
g10
g1
(g11
g12
(dtRp1342
sg14
g1
(g11
g12
(dtRp1343
sg16
g1
(g11
g12
(dtRp1344
sg18
g1
(g11
g12
(dtRp1345
sg20
g1
(g11
g12
(dtRp1346
sg22
g1
(g11
g12
(dtRp1347
sbsg24
S'Cpa'
p1348
sg26
g27
((lp1349
g29
ag30
aS'sequence'
p1350
ag32
ag33
aS'species'
p1351
atRp1352
sg37
(lp1353
sg120
g1266
sg121
S'RWLSTKDLYSRLELPGLNQNVHAMFVMPLGFGNPMGDMFARLNNSFWLPPLSLEGAGTGWTVYPPLSHSGPSVDLAFHLTSSLLGAINFTNMRGPLFWTALLLLSLPVLAGTLLDRNFNTFEGGDPLYHLFWFFGHPEVYIIPGFGSHSTYKKFGMYASIGLGFVWSHHMYVGLDDRAYFTSATMIAPTGIKFSWLATYGGRPMLAFLFLFTGGTGVVNASDAFHDTYYVVHFHYVLSMGAFSLGYYYWYGLYNLFWFNFPMHFLGGMPRRPYPDAGWNSGSSYSLGPDESNEPH'
p1354
sg123
F0.00012
sg124
g125
sg33
S'117'
p1355
sg127
g1
(g128
g12
(dp1356
g130
I4
sg131
g132
sg133
g134
sg135
g132
sg136
I01
sg34
g137
sg138
g134
sg139
I0
sg140
I0
sg141
I0
sg142
g134
sg35
g143
sg144
I0
stRp1357
sg146
g147
sg148
F1
sg149
Nsg30
S'CparaC'
p1358
sbasg120
g1156
sg123
F1.0000000000000001e-05
sg124
g125
sg33
S'171'
p1359
sg127
g1
(g128
g12
(dp1360
g130
I6
sg131
g132
sg133
g134
sg135
g132
sg136
I01
sg34
g173
sg138
g134
sg139
I0
sg140
I0
sg141
I0
sg142
g134
sg35
g174
sg144
I0
stRp1361
sg146
g147
sg148
F1
sg149
Nsg30
S'NoName'
p1362
sbasg120
g1122
sg123
F0.0032599999999999999
sg124
g125
sg33
S'173'
p1363
sg127
g1
(g128
g12
(dp1364
g130
I6
sg131
g132
sg133
g134
sg135
g132
sg136
I01
sg34
g173
sg138
g134
sg139
I0
sg140
I0
sg141
I0
sg142
g134
sg35
g174
sg144
I0
stRp1365
sg146
g147
sg148
F0.97999999999999998
sg149
Nsg30
S'NoName'
p1366
sbasg120
g1109
sg123
F1.0000000000000001e-05
sg124
g125
sg33
S'163'
p1367
sg127
g1
(g128
g12
(dp1368
g130
I6
sg131
g132
sg133
g134
sg135
g132
sg136
I01
sg34
g173
sg138
g134
sg139
I0
sg140
I0
sg141
I0
sg142
g134
sg35
g174
sg144
I0
stRp1369
sg146
g147
sg148
F1
sg149
Nsg30
S'NoName'
p1370
sbag1
(g2
g3
NtRp1371
(dp1372
g6
g1
(g7
g3
NtRp1373
(dp1374
g10
g1
(g11
g12
(dtRp1375
sg14
g1
(g11
g12
(dtRp1376
sg16
g1
(g11
g12
(dtRp1377
sg18
g1
(g11
g12
(dtRp1378
sg20
g1
(g11
g12
(dtRp1379
sg22
g1
(g11
g12
(dtRp1380
sbsg24
g25
sg26
g27
((lp1381
g33
ag32
ag29
ag30
atRp1382
sg37
(lp1383
g1
(g2
g3
NtRp1384
(dp1385
g6
g1
(g7
g3
NtRp1386
(dp1387
g10
g1
(g11
g12
(dtRp1388
sg14
g1
(g11
g12
(dtRp1389
sg16
g1
(g11
g12
(dtRp1390
sg18
g1
(g11
g12
(dtRp1391
sg20
g1
(g11
g12
(dtRp1392
sg22
g1
(g11
g12
(dtRp1393
sbsg24
g25
sg26
g27
((lp1394
g33
ag32
ag29
ag30
atRp1395
sg37
(lp1396
g1
(g2
g3
NtRp1397
(dp1398
g6
g1
(g7
g3
NtRp1399
(dp1400
g10
g1
(g11
g12
(dtRp1401
sg14
g1
(g11
g12
(dtRp1402
sg16
g1
(g11
g12
(dtRp1403
sg18
g1
(g11
g12
(dtRp1404
sg20
g1
(g11
g12
(dtRp1405
sg22
g1
(g11
g12
(dtRp1406
sbsg24
g25
sg26
g27
((lp1407
g33
ag32
ag29
ag30
atRp1408
sg37
(lp1409
g1
(g2
g3
NtRp1410
(dp1411
g6
g1
(g7
g3
NtRp1412
(dp1413
g10
g1
(g11
g12
(dtRp1414
sg14
g1
(g11
g12
(dtRp1415
sg16
g1
(g11
g12
(dtRp1416
sg18
g1
(g11
g12
(dtRp1417
sg20
g1
(g11
g12
(dtRp1418
sg22
g1
(g11
g12
(dtRp1419
sbsg24
g25
sg26
g27
((lp1420
g33
ag32
ag29
ag30
atRp1421
sg37
(lp1422
g1
(g2
g3
NtRp1423
(dp1424
g6
g1
(g7
g3
NtRp1425
(dp1426
g10
g1
(g11
g12
(dtRp1427
sg14
g1
(g11
g12
(dtRp1428
sg16
g1
(g11
g12
(dtRp1429
sg18
g1
(g11
g12
(dtRp1430
sg20
g1
(g11
g12
(dtRp1431
sg22
g1
(g11
g12
(dtRp1432
sbsg24
g25
sg26
g27
((lp1433
g33
ag32
ag29
ag30
atRp1434
sg37
(lp1435
g1
(g2
g3
NtRp1436
(dp1437
g6
g1
(g7
g3
NtRp1438
(dp1439
g10
g1
(g11
g12
(dtRp1440
sg14
g1
(g11
g12
(dtRp1441
sg16
g1
(g11
g12
(dtRp1442
sg18
g1
(g11
g12
(dtRp1443
sg20
g1
(g11
g12
(dtRp1444
sg22
g1
(g11
g12
(dtRp1445
sbsg24
S'Cme'
p1446
sg26
g27
((lp1447
g29
ag30
aS'sequence'
p1448
ag32
ag33
aS'species'
p1449
atRp1450
sg37
(lp1451
sg120
g1423
sg121
S'RWLSTKDLYSRLELPGLNQNVHAMFVMPLGFGNPMGDMFARLNNSFWLPPLSLEGAGTGWTVYPPLSHSGPSVDLAFHLTSSLLGAINFTNMRGPLYWTALLLLSLPVLAGTLLDRNFNTFEGGDPLYHLFWFFGHPEVYIIPGFGSHSTYKKFGMYASIGLGFVWSHHMYVGLDDRAYFTSATMIAPTGIKFSWLATYGGRPMLAFLFLFTGGTGVLNASDAFHDTYYVVHFHYVLSMGAFSLGYYYWYGLYNLFWFNFPMHFLGGMPRRPYPDAGWNSGSSYQLGPDESNEPH'
p1452
sg123
F0.00012999999999999999
sg124
g125
sg33
S'129'
p1453
sg127
g1
(g128
g12
(dp1454
g130
I4
sg131
g132
sg133
g134
sg135
g132
sg136
I01
sg34
g137
sg138
g134
sg139
I0
sg140
I0
sg141
I0
sg142
g134
sg35
g143
sg144
I0
stRp1455
sg146
g147
sg148
F1
sg149
Nsg30
S'CmetaF'
p1456
sbag1
(g2
g3
NtRp1457
(dp1458
g6
g1
(g7
g3
NtRp1459
(dp1460
g10
g1
(g11
g12
(dtRp1461
sg14
g1
(g11
g12
(dtRp1462
sg16
g1
(g11
g12
(dtRp1463
sg18
g1
(g11
g12
(dtRp1464
sg20
g1
(g11
g12
(dtRp1465
sg22
g1
(g11
g12
(dtRp1466
sbsg24
S'Cme'
p1467
sg26
g27
((lp1468
g29
ag30
aS'sequence'
p1469
ag32
ag33
aS'species'
p1470
atRp1471
sg37
(lp1472
sg120
g1423
sg121
S'RWLSTKDLYSRLELPGLNQNVHAMFVMPLGFGNPMGDMFARLNNSFWLPPLSLEGAGTGWTVYPPLSHSGPSVDLAFHLTSSLLGAINFTNMRGPLYWTALLLLSLPVLAGTLLDRNFNTFEGGDPLYHLFWFFGHPEVYIIPGFGSHSTYKKFGMYASIGLGFVWSHHMYVGLDDRAYFTSATMIAPTGIKFSWLATYGGRPMLAFLFLFTGGTGVLNASDAFHDTYYVVHFHYVLSMGAFSLGYYYWYGLYNLFWFNFPMHFLGGMPRRPYPDAGWNSGSSYQLGPDESNEPH'
p1473
sg123
F0.00012
sg124
g125
sg33
S'66'
p1474
sg127
g1
(g128
g12
(dp1475
g130
I4
sg131
g132
sg133
g134
sg135
g132
sg136
I01
sg34
g137
sg138
g134
sg139
I0
sg140
I0
sg141
I0
sg142
g134
sg35
g143
sg144
I0
stRp1476
sg146
g147
sg148
F1
sg149
Nsg30
S'CmetaE'
p1477
sbasg120
g1410
sg123
F1.0000000000000001e-05
sg124
g125
sg33
S'126'
p1478
sg127
g1
(g128
g12
(dp1479
g130
I6
sg131
g132
sg133
g134
sg135
g132
sg136
I01
sg34
g173
sg138
g134
sg139
I0
sg140
I0
sg141
I0
sg142
g134
sg35
g174
sg144
I0
stRp1480
sg146
g147
sg148
F1
sg149
Nsg30
S'NoName'
p1481
sbag1
(g2
g3
NtRp1482
(dp1483
g6
g1
(g7
g3
NtRp1484
(dp1485
g10
g1
(g11
g12
(dtRp1486
sg14
g1
(g11
g12
(dtRp1487
sg16
g1
(g11
g12
(dtRp1488
sg18
g1
(g11
g12
(dtRp1489
sg20
g1
(g11
g12
(dtRp1490
sg22
g1
(g11
g12
(dtRp1491
sbsg24
S'Cme'
p1492
sg26
g27
((lp1493
g29
ag30
aS'sequence'
p1494
ag32
ag33
aS'species'
p1495
atRp1496
sg37
(lp1497
sg120
g1410
sg121
S'RWLSTKDLYSRLELPGLNQNVHAMFVMPLGFGNPMGDMFARLNNSFWLPPLSLEGAGTGWTVYPPLSHSGPSVDLAFHLTSSLLGAINFTNMRGPLYWTALLLLSLPVLAGTLLDRNFNTFEGGDPLYHLFWFFGHPEVYIIPGFGSHSTYKKFGMYASIGLGFVWSHHMYVGLDDRAYFTSATMIAPTGIKFSWLATYGGRPMLAFLFLFTGGTGVLNASDAFHDTYYVVHFHYVLSMGAFSLGYYYWYGLYNLFWFNFPMHFLGGMPRRPYPDAGWNSGSSYQLGPDESNEPH'
p1498
sg123
F0.00020000000000000001
sg124
g125
sg33
S'128'
p1499
sg127
g1
(g128
g12
(dp1500
g130
I4
sg131
g132
sg133
g134
sg135
g132
sg136
I01
sg34
g137
sg138
g134
sg139
I0
sg140
I0
sg141
I0
sg142
g134
sg35
g143
sg144
I0
stRp1501
sg146
g147
sg148
F1
sg149
Nsg30
S'CmetaD'
p1502
sbasg120
g1397
sg123
F1.0000000000000001e-05
sg124
g125
sg33
S'131'
p1503
sg127
g1
(g128
g12
(dp1504
g130
I6
sg131
g132
sg133
g134
sg135
g132
sg136
I01
sg34
g173
sg138
g134
sg139
I0
sg140
I0
sg141
I0
sg142
g134
sg35
g174
sg144
I0
stRp1505
sg146
g147
sg148
F1
sg149
Nsg30
S'NoName'
p1506
sbag1
(g2
g3
NtRp1507
(dp1508
g6
g1
(g7
g3
NtRp1509
(dp1510
g10
g1
(g11
g12
(dtRp1511
sg14
g1
(g11
g12
(dtRp1512
sg16
g1
(g11
g12
(dtRp1513
sg18
g1
(g11
g12
(dtRp1514
sg20
g1
(g11
g12
(dtRp1515
sg22
g1
(g11
g12
(dtRp1516
sbsg24
S'Cme'
p1517
sg26
g27
((lp1518
g29
ag30
aS'sequence'
p1519
ag32
ag33
aS'species'
p1520
atRp1521
sg37
(lp1522
sg120
g1397
sg121
S'RWLSTKDLYSRLELPGLNQNVHAMFVMPLGFGNPMGDMFARLNNSFWLPPLSLEGAGTGWTVYPPLSHSGPSVDLAFHLTSSLLGAINFTNMRGPLYWTALLLLSLPVLAGTLLDRNFNTFEGGDPLYHLFWFFGHPEVYIIPGFGSHSTYKKFGMYASIGLGFVWSHHMYVGLDDRAYFTSATMIAPTGIKFSWLATYGGRPMLAFLFLFTGGTGVLNASDAFHDTYYVVHFHYVLSMGAFSLGYYYWYGLYNLFWFNFPMHFLGGMPRRPYPDAGWNSGSSYQLGPDESNEPH'
p1523
sg123
F0.00052999999999999998
sg124
g125
sg33
S'32'
p1524
sg127
g1
(g128
g12
(dp1525
g130
I4
sg131
g132
sg133
g134
sg135
g132
sg136
I01
sg34
g137
sg138
g134
sg139
I0
sg140
I0
sg141
I0
sg142
g134
sg35
g143
sg144
I0
stRp1526
sg146
g147
sg148
F1
sg149
Nsg30
S'CmetaC'
p1527
sbasg120
g1384
sg123
F1.0000000000000001e-05
sg124
g125
sg33
S'122'
p1528
sg127
g1
(g128
g12
(dp1529
g130
I6
sg131
g132
sg133
g134
sg135
g132
sg136
I01
sg34
g173
sg138
g134
sg139
I0
sg140
I0
sg141
I0
sg142
g134
sg35
g174
sg144
I0
stRp1530
sg146
g147
sg148
F1
sg149
Nsg30
S'NoName'
p1531
sbag1
(g2
g3
NtRp1532
(dp1533
g6
g1
(g7
g3
NtRp1534
(dp1535
g10
g1
(g11
g12
(dtRp1536
sg14
g1
(g11
g12
(dtRp1537
sg16
g1
(g11
g12
(dtRp1538
sg18
g1
(g11
g12
(dtRp1539
sg20
g1
(g11
g12
(dtRp1540
sg22
g1
(g11
g12
(dtRp1541
sbsg24
S'Cme'
p1542
sg26
g27
((lp1543
g29
ag30
aS'sequence'
p1544
ag32
ag33
aS'species'
p1545
atRp1546
sg37
(lp1547
sg120
g1384
sg121
S'RWLSTKDLYSRLELPGLNQNVHAMFVMPLGFGNPMGDMFARLNNSFWLPPLSLEGAGTGWTVYPPLSHSGPSVDLAFHLTSSLLGAINFTNMRGPLYWTALLLLSLPVLAGTLLDRNFNTFEGGDPLYHLFWFFGHPEVYIIPGFGSHSTYKKFGMYASIGLGFVWSHHMYVGLDDRAYFTSATMIAPTGIKFSWLATYGGRPMLAFLFLFTGGTGVLNASDAFHDTYYVVHFHYVLSMGAFSLGYYYWYGLYNLFWFNFPMHFLGGMPRRPYPDAGWNSGSSYQLGPDESNEPH'
p1548
sg123
F0.00012
sg124
g125
sg33
S'2'
sg127
g1
(g128
g12
(dp1549
g130
I4
sg131
g132
sg133
g134
sg135
g132
sg136
I01
sg34
g137
sg138
g134
sg139
I0
sg140
I0
sg141
I0
sg142
g134
sg35
g143
sg144
I0
stRp1550
sg146
g147
sg148
F1
sg149
Nsg30
S'CmetaB'
p1551
sbasg120
g1371
sg123
F1.0000000000000001e-05
sg124
g125
sg33
S'119'
p1552
sg127
g1
(g128
g12
(dp1553
g130
I6
sg131
g132
sg133
g134
sg135
g132
sg136
I01
sg34
g173
sg138
g134
sg139
I0
sg140
I0
sg141
I0
sg142
g134
sg35
g174
sg144
I0
stRp1554
sg146
g147
sg148
F1
sg149
Nsg30
S'NoName'
p1555
sbag1
(g2
g3
NtRp1556
(dp1557
g6
g1
(g7
g3
NtRp1558
(dp1559
g10
g1
(g11
g12
(dtRp1560
sg14
g1
(g11
g12
(dtRp1561
sg16
g1
(g11
g12
(dtRp1562
sg18
g1
(g11
g12
(dtRp1563
sg20
g1
(g11
g12
(dtRp1564
sg22
g1
(g11
g12
(dtRp1565
sbsg24
S'Cme'
p1566
sg26
g27
((lp1567
g29
ag30
aS'sequence'
p1568
ag32
ag33
aS'species'
p1569
atRp1570
sg37
(lp1571
sg120
g1371
sg121
S'RWLSTKDLYSRLELPGLNQNVHAMFVMPLGFGNPMGDMFARLNNSFWLPPLSLEGAGTGWTVYPPLSHSGPSVDLAFHLTSSLLGAINFTNMRGPLYWTALLLLSLPVLAGTLLDRNFNTFEGGDPLYHLFWFFGHPEVYIIPGFGSHSTYKKFGMYASIGLGFVWSHHMYVGLDDRAYFTSATMIAPTGIKFSWLATYGGRPMLAFLFLFTGGTGVLNASDAFHDTYYVVHFHYVLSMGAFSLGYYYWYGLYNLFWFNFPMHFLGGMPRRPYPDAGWNSGSSYQLGPDESNEPH'
p1572
sg123
F0.00012999999999999999
sg124
g125
sg33
S'55'
p1573
sg127
g1
(g128
g12
(dp1574
g130
I4
sg131
g132
sg133
g134
sg135
g132
sg136
I01
sg34
g137
sg138
g134
sg139
I0
sg140
I0
sg141
I0
sg142
g134
sg35
g143
sg144
I0
stRp1575
sg146
g147
sg148
F1
sg149
Nsg30
S'CmetaA'
p1576
sbasg120
g1109
sg123
F0.020930000000000001
sg124
g125
sg33
S'115'
p1577
sg127
g1
(g128
g12
(dp1578
g130
I6
sg131
g132
sg133
g134
sg135
g132
sg136
I01
sg34
g173
sg138
g134
sg139
I0
sg140
I0
sg141
I0
sg142
g134
sg35
g174
sg144
I0
stRp1579
sg146
g147
sg148
F0.98999999999999999
sg149
Nsg30
S'NoName'
p1580
sbasg120
g1096
sg123
F0.045289999999999997
sg124
g125
sg33
S'218'
p1581
sg127
g1
(g128
g12
(dp1582
g130
I6
sg131
g132
sg133
g134
sg135
g132
sg136
I01
sg34
g173
sg138
g134
sg139
I0
sg140
I0
sg141
I0
sg142
g134
sg35
g174
sg144
I0
stRp1583
sg146
g147
sg148
F0.98999999999999999
sg149
Nsg30
S'NoName'
p1584
sbag1
(g2
g3
NtRp1585
(dp1586
g6
g1
(g7
g3
NtRp1587
(dp1588
g10
g1
(g11
g12
(dtRp1589
sg14
g1
(g11
g12
(dtRp1590
sg16
g1
(g11
g12
(dtRp1591
sg18
g1
(g11
g12
(dtRp1592
sg20
g1
(g11
g12
(dtRp1593
sg22
g1
(g11
g12
(dtRp1594
sbsg24
S'Cji'
p1595
sg26
g27
((lp1596
g29
ag30
aS'sequence'
p1597
ag32
ag33
aS'species'
p1598
atRp1599
sg37
(lp1600
sg120
g1096
sg121
S'RWLSTKDLYSRLELPGLNQNVHAMFVMPLGFGNPMGDMFARLNNSFWLPPLSLEGAGTGWTVYPPLSHSGPSVDLAFHLTSSLLGAINFTNMRGPMFWTALLLLSLPVLAGTLLDRNFNTFDGGDPLYHLFWFFGHPEVYIIPGFGSHSTYKKFGMYASIGLGFVWSHHMYVGLDDRAYFTSATMIAPTGIKFSWLATYGGRPMLAFLFLFTGGTGVLNASDAFHDTYYTVHFHYVLSMGAFSLGYYYWYGLYNLFWFNFPMHFLGGMPRRPYPDAGWNSGSSYQLGPDESNEPH'
p1601
sg123
F0.013140000000000001
sg124
g125
sg33
S'127'
p1602
sg127
g1
(g128
g12
(dp1603
g130
I4
sg131
g132
sg133
g134
sg135
g132
sg136
I01
sg34
g137
sg138
g134
sg139
I0
sg140
I0
sg141
I0
sg142
g134
sg35
g143
sg144
I0
stRp1604
sg146
g147
sg148
F1
sg149
Nsg30
S'CjiufA'
p1605
sbasg120
g1024
sg123
F0.044909999999999999
sg124
g125
sg33
S'220'
p1606
sg127
g1
(g128
g12
(dp1607
g130
I6
sg131
g132
sg133
g134
sg135
g132
sg136
I01
sg34
g173
sg138
g134
sg139
I0
sg140
I0
sg141
I0
sg142
g134
sg35
g174
sg144
I0
stRp1608
sg146
g147
sg148
F0.98999999999999999
sg149
Nsg30
S'NoName'
p1609
sbasg120
g1011
sg123
F0.082199999999999995
sg124
g125
sg33
S'208'
p1610
sg127
g1
(g128
g12
(dp1611
g130
I6
sg131
g132
sg133
g134
sg135
g132
sg136
I01
sg34
g173
sg138
g134
sg139
I0
sg140
I0
sg141
I0
sg142
g134
sg35
g174
sg144
I0
stRp1612
sg146
g147
sg148
F0.98999999999999999
sg149
Nsg30
S'NoName'
p1613
sbag1
(g2
g3
NtRp1614
(dp1615
g6
g1
(g7
g3
NtRp1616
(dp1617
g10
g1
(g11
g12
(dtRp1618
sg14
g1
(g11
g12
(dtRp1619
sg16
g1
(g11
g12
(dtRp1620
sg18
g1
(g11
g12
(dtRp1621
sg20
g1
(g11
g12
(dtRp1622
sg22
g1
(g11
g12
(dtRp1623
sbsg24
g25
sg26
g27
((lp1624
g33
ag32
ag29
ag30
atRp1625
sg37
(lp1626
g1
(g2
g3
NtRp1627
(dp1628
g6
g1
(g7
g3
NtRp1629
(dp1630
g10
g1
(g11
g12
(dtRp1631
sg14
g1
(g11
g12
(dtRp1632
sg16
g1
(g11
g12
(dtRp1633
sg18
g1
(g11
g12
(dtRp1634
sg20
g1
(g11
g12
(dtRp1635
sg22
g1
(g11
g12
(dtRp1636
sbsg24
g25
sg26
g27
((lp1637
g33
ag32
ag29
ag30
atRp1638
sg37
(lp1639
g1
(g2
g3
NtRp1640
(dp1641
g6
g1
(g7
g3
NtRp1642
(dp1643
g10
g1
(g11
g12
(dtRp1644
sg14
g1
(g11
g12
(dtRp1645
sg16
g1
(g11
g12
(dtRp1646
sg18
g1
(g11
g12
(dtRp1647
sg20
g1
(g11
g12
(dtRp1648
sg22
g1
(g11
g12
(dtRp1649
sbsg24
S'Cco'
p1650
sg26
g27
((lp1651
g29
ag30
aS'sequence'
p1652
ag32
ag33
aS'species'
p1653
atRp1654
sg37
(lp1655
sg120
g1627
sg121
S'RWLSTKDLYSRMELPGLNQNVHAMFVMPLGFGNPMGDMFARLNNSFWLPPLSLEGAGTGWTLYAPLSHSGPSVDLAFHLTSSLLGAINFTNMRGPLFWTALLLLSLPVLAATLLDRNFNTFEGGDPLYHLFFVLMHPEVYIIPGFGSHSTYKKFGMYASMGLGFVWSHHMYVGLDDRAYFTSATMIAPTGIKFSWLATYGGRPMLAFLFLFTGGTGVLNASDAFHDTYYIKHFHYVLSMGAFSLGYYYWYGLYNMFWFNFPMHFLGGMPRRPYPDAGWNSGSSYQLGPDESNEPH'
p1656
sg123
F0.057970000000000001
sg124
g125
sg33
S'179'
p1657
sg127
g1
(g128
g12
(dp1658
g130
I4
sg131
g132
sg133
g134
sg135
g132
sg136
I01
sg34
g137
sg138
g134
sg139
I0
sg140
I0
sg141
I0
sg142
g134
sg35
g143
sg144
I0
stRp1659
sg146
g147
sg148
F1
sg149
Nsg30
S'CcoryA'
p1660
sbag1
(g2
g3
NtRp1661
(dp1662
g6
g1
(g7
g3
NtRp1663
(dp1664
g10
g1
(g11
g12
(dtRp1665
sg14
g1
(g11
g12
(dtRp1666
sg16
g1
(g11
g12
(dtRp1667
sg18
g1
(g11
g12
(dtRp1668
sg20
g1
(g11
g12
(dtRp1669
sg22
g1
(g11
g12
(dtRp1670
sbsg24
S'Cch'
p1671
sg26
g27
((lp1672
g29
ag30
aS'sequence'
p1673
ag32
ag33
aS'species'
p1674
atRp1675
sg37
(lp1676
sg120
g1627
sg121
S'RWLSTKDLYSRMELPSLNQNVHAMFVMPLGFGNPMGDMFARLNNSFWLPPLSLEGAGTGWTLYAPLSHSGPSVDLAFHLTSSLLGAINFTNMRGPLFWTALLLLSLPVLAATLLDRNFNTFEGGDPLYHLFWFYMYKDYYIIPGFGSHSTYKKFGMYASIGLGFVWSHHMFVGLDDRAYFTSATMIAPTGIKFSWLATYGGRPMLAFLFLFTGGTGVLNASDAFHDTYYVVHFHYVLSMGAFSLGYYYWYGLYNLFWFNFPMHFLGGMPRRPYPDAGWNSGSSYQLGPDESNEPH'
p1677
sg123
F0.052440000000000001
sg124
g125
sg33
S'7'
sg127
g1
(g128
g12
(dp1678
g130
I4
sg131
g132
sg133
g134
sg135
g132
sg136
I01
sg34
g137
sg138
g134
sg139
I0
sg140
I0
sg141
I0
sg142
g134
sg35
g143
sg144
I0
stRp1679
sg146
g147
sg148
F1
sg149
Nsg30
S'CchauA'
p1680
sbasg120
g1614
sg123
F0.16861999999999999
sg124
g125
sg33
S'136'
p1681
sg127
g1
(g128
g12
(dp1682
g130
I6
sg131
g132
sg133
g134
sg135
g132
sg136
I01
sg34
g173
sg138
g134
sg139
I0
sg140
I0
sg141
I0
sg142
g134
sg35
g174
sg144
I0
stRp1683
sg146
g147
sg148
F0.98999999999999999
sg149
Nsg30
S'NoName'
p1684
sbag1
(g2
g3
NtRp1685
(dp1686
g6
g1
(g7
g3
NtRp1687
(dp1688
g10
g1
(g11
g12
(dtRp1689
sg14
g1
(g11
g12
(dtRp1690
sg16
g1
(g11
g12
(dtRp1691
sg18
g1
(g11
g12
(dtRp1692
sg20
g1
(g11
g12
(dtRp1693
sg22
g1
(g11
g12
(dtRp1694
sbsg24
S'Cbo'
p1695
sg26
g27
((lp1696
g29
ag30
aS'sequence'
p1697
ag32
ag33
aS'species'
p1698
atRp1699
sg37
(lp1700
sg120
g1614
sg121
S'RWLSTKDLYSRMELPGLNQNVHAMFVMPLGFGNPMGDMFARLNNSFWLPPLSLEGAGTGWTVYPPLSHSGPSVDLAFHLTSSLLGAINFTNMRGPLFWTALLLLSLPVLAATLLDRNFNTFEGGDPLYHLFWFFGHPEVYIIPGFGSHSTYKKFGMYASIGLGFVWSHHMYVGLDDRAYFTSATMIAPTGIKFSWLATYGGRPMLAFLFLFTGGTGVLNASDAFHDTYYVVHFHYVLSMGAFSLAYYYWYGLYNLFWFNFPMHFLGGMPRRPYPDAGWNSGSSYQLGPDESNEPH'
p1701
sg123
F0.20199
sg124
g125
sg33
S'224'
p1702
sg127
g1
(g128
g12
(dp1703
g130
I4
sg131
g132
sg133
g134
sg135
g132
sg136
I01
sg34
g137
sg138
g134
sg139
I0
sg140
I0
sg141
I0
sg142
g134
sg35
g143
sg144
I0
stRp1704
sg146
g147
sg148
F1
sg149
Nsg30
S'CbohiA'
p1705
sbasg120
g1011
sg123
F0.14915999999999999
sg124
g125
sg33
S'95'
p1706
sg127
g1
(g128
g12
(dp1707
g130
I6
sg131
g132
sg133
g134
sg135
g132
sg136
I01
sg34
g173
sg138
g134
sg139
I0
sg140
I0
sg141
I0
sg142
g134
sg35
g174
sg144
I0
stRp1708
sg146
g147
sg148
F0.98999999999999999
sg149
Nsg30
S'NoName'
p1709
sbasg120
g998
sg123
F0.036799999999999999
sg124
g125
sg33
S'205'
p1710
sg127
g1
(g128
g12
(dp1711
g130
I6
sg131
g132
sg133
g134
sg135
g132
sg136
I01
sg34
g173
sg138
g134
sg139
I0
sg140
I0
sg141
I0
sg142
g134
sg35
g174
sg144
I0
stRp1712
sg146
g147
sg148
F0.98999999999999999
sg149
Nsg30
S'NoName'
p1713
sbag1
(g2
g3
NtRp1714
(dp1715
g6
g1
(g7
g3
NtRp1716
(dp1717
g10
g1
(g11
g12
(dtRp1718
sg14
g1
(g11
g12
(dtRp1719
sg16
g1
(g11
g12
(dtRp1720
sg18
g1
(g11
g12
(dtRp1721
sg20
g1
(g11
g12
(dtRp1722
sg22
g1
(g11
g12
(dtRp1723
sbsg24
g25
sg26
g27
((lp1724
g33
ag32
ag29
ag30
atRp1725
sg37
(lp1726
g1
(g2
g3
NtRp1727
(dp1728
g6
g1
(g7
g3
NtRp1729
(dp1730
g10
g1
(g11
g12
(dtRp1731
sg14
g1
(g11
g12
(dtRp1732
sg16
g1
(g11
g12
(dtRp1733
sg18
g1
(g11
g12
(dtRp1734
sg20
g1
(g11
g12
(dtRp1735
sg22
g1
(g11
g12
(dtRp1736
sbsg24
g25
sg26
g27
((lp1737
g33
ag32
ag29
ag30
atRp1738
sg37
(lp1739
g1
(g2
g3
NtRp1740
(dp1741
g6
g1
(g7
g3
NtRp1742
(dp1743
g10
g1
(g11
g12
(dtRp1744
sg14
g1
(g11
g12
(dtRp1745
sg16
g1
(g11
g12
(dtRp1746
sg18
g1
(g11
g12
(dtRp1747
sg20
g1
(g11
g12
(dtRp1748
sg22
g1
(g11
g12
(dtRp1749
sbsg24
S'Cma'
p1750
sg26
g27
((lp1751
g29
ag30
aS'sequence'
p1752
ag32
ag33
aS'species'
p1753
atRp1754
sg37
(lp1755
sg120
g1727
sg121
S'RWLSTKDLYSRLELPGLSQNVHAMFVMPLGFGNPLGDMFARLNNSFWLPPLSLEGAGTGWTVYPPLSHSGPSVDLAFHLTSSLLGAINFTNMRGPLYWTALLLLSLPVLAGTLLDRNFNTFEGGDPLYHLFWFFGHPEVYMIPGFGSHSTYKKFGMYASMGLGFVWSHHMYVGLDDRAYFTSATMIAPTGIKFSWLATYGGRPMLAFLFLFTGGTGVLNASDAFHDTYYVVHFHYVLSMGAFSLGYYYWSGLYNLYWFNFPMHFLGGMPRRPYPDAGWNSGSSYQLGPDESNEPH'
p1756
sg123
F0.24277000000000001
sg124
g125
sg33
S'16'
p1757
sg127
g1
(g128
g12
(dp1758
g130
I4
sg131
g132
sg133
g134
sg135
g132
sg136
I01
sg34
g137
sg138
g134
sg139
I0
sg140
I0
sg141
I0
sg142
g134
sg35
g143
sg144
I0
stRp1759
sg146
g147
sg148
F1
sg149
Nsg30
S'CmaltA'
p1760
sbag1
(g2
g3
NtRp1761
(dp1762
g6
g1
(g7
g3
NtRp1763
(dp1764
g10
g1
(g11
g12
(dtRp1765
sg14
g1
(g11
g12
(dtRp1766
sg16
g1
(g11
g12
(dtRp1767
sg18
g1
(g11
g12
(dtRp1768
sg20
g1
(g11
g12
(dtRp1769
sg22
g1
(g11
g12
(dtRp1770
sbsg24
g25
sg26
g27
((lp1771
g33
ag32
ag29
ag30
atRp1772
sg37
(lp1773
g1
(g2
g3
NtRp1774
(dp1775
g6
g1
(g7
g3
NtRp1776
(dp1777
g10
g1
(g11
g12
(dtRp1778
sg14
g1
(g11
g12
(dtRp1779
sg16
g1
(g11
g12
(dtRp1780
sg18
g1
(g11
g12
(dtRp1781
sg20
g1
(g11
g12
(dtRp1782
sg22
g1
(g11
g12
(dtRp1783
sbsg24
g25
sg26
g27
((lp1784
g33
ag32
ag29
ag30
atRp1785
sg37
(lp1786
g1
(g2
g3
NtRp1787
(dp1788
g6
g1
(g7
g3
NtRp1789
(dp1790
g10
g1
(g11
g12
(dtRp1791
sg14
g1
(g11
g12
(dtRp1792
sg16
g1
(g11
g12
(dtRp1793
sg18
g1
(g11
g12
(dtRp1794
sg20
g1
(g11
g12
(dtRp1795
sg22
g1
(g11
g12
(dtRp1796
sbsg24
g25
sg26
g27
((lp1797
g33
ag32
ag29
ag30
atRp1798
sg37
(lp1799
g1
(g2
g3
NtRp1800
(dp1801
g6
g1
(g7
g3
NtRp1802
(dp1803
g10
g1
(g11
g12
(dtRp1804
sg14
g1
(g11
g12
(dtRp1805
sg16
g1
(g11
g12
(dtRp1806
sg18
g1
(g11
g12
(dtRp1807
sg20
g1
(g11
g12
(dtRp1808
sg22
g1
(g11
g12
(dtRp1809
sbsg24
g25
sg26
g27
((lp1810
g33
ag32
ag29
ag30
atRp1811
sg37
(lp1812
g1
(g2
g3
NtRp1813
(dp1814
g6
g1
(g7
g3
NtRp1815
(dp1816
g10
g1
(g11
g12
(dtRp1817
sg14
g1
(g11
g12
(dtRp1818
sg16
g1
(g11
g12
(dtRp1819
sg18
g1
(g11
g12
(dtRp1820
sg20
g1
(g11
g12
(dtRp1821
sg22
g1
(g11
g12
(dtRp1822
sbsg24
S'Ctr'
p1823
sg26
g27
((lp1824
g29
ag30
aS'sequence'
p1825
ag32
ag33
aS'species'
p1826
atRp1827
sg37
(lp1828
sg120
g1800
sg121
S'RWLSTKDLYSRLELPGLNQNVHAMFVMPLGFGNPMGDMFARLNNSFWLPPLSLEGAGTGWTVYPPLSHSGPSVDLAFHLTSSLLGAINFTNMRGPLFWTALLLLSLPVLAGTLLDRNFNTFEGGDPLYHLFWFFGHPEVYIIPGFGSHSTYKKFGMYASIGLGFVWSHHMYVGLDDRAYFTSATMIAPTGIKFSWLATYGGRPMLAFLFLFTGGTGVLNASDAFHDSYYVVHFHYVLSMGAFSLGYYYWPGLYNLYWFNFPMHFLGGMPRRPYPDAGWNSGSSYQLGPDEANEPH'
p1829
sg123
F0.00064000000000000005
sg124
g125
sg33
S'182'
p1830
sg127
g1
(g128
g12
(dp1831
g130
I4
sg131
g132
sg133
g134
sg135
g132
sg136
I01
sg34
g137
sg138
g134
sg139
I0
sg140
I0
sg141
I0
sg142
g134
sg35
g143
sg144
I0
stRp1832
sg146
g147
sg148
F1
sg149
Nsg30
S'CtropB'
p1833
sbag1
(g2
g3
NtRp1834
(dp1835
g6
g1
(g7
g3
NtRp1836
(dp1837
g10
g1
(g11
g12
(dtRp1838
sg14
g1
(g11
g12
(dtRp1839
sg16
g1
(g11
g12
(dtRp1840
sg18
g1
(g11
g12
(dtRp1841
sg20
g1
(g11
g12
(dtRp1842
sg22
g1
(g11
g12
(dtRp1843
sbsg24
S'Ctr'
p1844
sg26
g27
((lp1845
g29
ag30
aS'sequence'
p1846
ag32
ag33
aS'species'
p1847
atRp1848
sg37
(lp1849
sg120
g1800
sg121
S'RWLSTKDLYSRLELPGLNQNVHAMFVMPLGFGNPMGDMFARLNNSFWLPPLSLEGAGTGWTVYPPLSHSGPSVDLAFHLTSSLLGAINFTNMRGPLFWTALLLLSLPVLAGTLLDRNFNTFEGGDPLYHLFWFFGHPEVYIIPGFGSHSTYKKFGMYASIGLGFVWSHHMYVGLDDRAYFTSATMIAPTGIKFSWLATYGGRPMLAFLFLFTGGTGVLNASDAFHDSYYVVHFHYVLSMGAFSLGYYYWPGLYNLYWFNFPMHFLGGMPRRPYPDAGWNSGSSYQLGPDEANEPH'
p1850
sg123
F0.00040000000000000002
sg124
g125
sg33
S'155'
p1851
sg127
g1
(g128
g12
(dp1852
g130
I4
sg131
g132
sg133
g134
sg135
g132
sg136
I01
sg34
g137
sg138
g134
sg139
I0
sg140
I0
sg141
I0
sg142
g134
sg35
g143
sg144
I0
stRp1853
sg146
g147
sg148
F1
sg149
Nsg30
S'CtropA'
p1854
sbasg120
g1787
sg123
F0.032030000000000003
sg124
g125
sg33
S'162'
p1855
sg127
g1
(g128
g12
(dp1856
g130
I6
sg131
g132
sg133
g134
sg135
g132
sg136
I01
sg34
g173
sg138
g134
sg139
I0
sg140
I0
sg141
I0
sg142
g134
sg35
g174
sg144
I0
stRp1857
sg146
g147
sg148
F0.98999999999999999
sg149
Nsg30
S'NoName'
p1858
sbag1
(g2
g3
NtRp1859
(dp1860
g6
g1
(g7
g3
NtRp1861
(dp1862
g10
g1
(g11
g12
(dtRp1863
sg14
g1
(g11
g12
(dtRp1864
sg16
g1
(g11
g12
(dtRp1865
sg18
g1
(g11
g12
(dtRp1866
sg20
g1
(g11
g12
(dtRp1867
sg22
g1
(g11
g12
(dtRp1868
sbsg24
S'Cso'
p1869
sg26
g27
((lp1870
g29
ag30
aS'sequence'
p1871
ag32
ag33
aS'species'
p1872
atRp1873
sg37
(lp1874
sg120
g1787
sg121
S'RWLSTKDLYSRLELPGLNQNVHAMFVMPLGFGNPMGDMFARLNNSFWLPPLSLEGAGTGWTVYPPLSHSGPSVDLAFHLTSSLLGAMNFTNMRGPLFWTALLLLSLPVLAGTLLDRNFNTFEGGDPLYHLFWFFGHPEVYIIPGFGSHSTYKKFGMYASIGLGFVWSHHMYVGLDDRAYFTSATMIAPTGIKFSWLATYGGRPMLAFLFLFTGGTGVLNASDAFHDTYYVVHFHYVLSMGAFSLGYYYWPGLYNLYWFNFPMHFLGGMPRRPYPDAGWNSGSSYQLGPDEANEPH'
p1875
sg123
F0.033649999999999999
sg124
g125
sg33
S'20'
p1876
sg127
g1
(g128
g12
(dp1877
g130
I4
sg131
g132
sg133
g134
sg135
g132
sg136
I01
sg34
g137
sg138
g134
sg139
I0
sg140
I0
sg141
I0
sg142
g134
sg35
g143
sg144
I0
stRp1878
sg146
g147
sg148
F1
sg149
Nsg30
S'CsojaA'
p1879
sbasg120
g1774
sg123
F0.019990000000000001
sg124
g125
sg33
S'160'
p1880
sg127
g1
(g128
g12
(dp1881
g130
I6
sg131
g132
sg133
g134
sg135
g132
sg136
I01
sg34
g173
sg138
g134
sg139
I0
sg140
I0
sg141
I0
sg142
g134
sg35
g174
sg144
I0
stRp1882
sg146
g147
sg148
F0.98999999999999999
sg149
Nsg30
S'NoName'
p1883
sbag1
(g2
g3
NtRp1884
(dp1885
g6
g1
(g7
g3
NtRp1886
(dp1887
g10
g1
(g11
g12
(dtRp1888
sg14
g1
(g11
g12
(dtRp1889
sg16
g1
(g11
g12
(dtRp1890
sg18
g1
(g11
g12
(dtRp1891
sg20
g1
(g11
g12
(dtRp1892
sg22
g1
(g11
g12
(dtRp1893
sbsg24
g25
sg26
g27
((lp1894
g33
ag32
ag29
ag30
atRp1895
sg37
(lp1896
g1
(g2
g3
NtRp1897
(dp1898
g6
g1
(g7
g3
NtRp1899
(dp1900
g10
g1
(g11
g12
(dtRp1901
sg14
g1
(g11
g12
(dtRp1902
sg16
g1
(g11
g12
(dtRp1903
sg18
g1
(g11
g12
(dtRp1904
sg20
g1
(g11
g12
(dtRp1905
sg22
g1
(g11
g12
(dtRp1906
sbsg24
S'Cte'
p1907
sg26
g27
((lp1908
g29
ag30
aS'sequence'
p1909
ag32
ag33
aS'species'
p1910
atRp1911
sg37
(lp1912
sg120
g1884
sg121
S'RWLSTKDLYSRLELPGLNQNVHAMFVMPLGFGNPMGDMFARLNNSFWLPPLSLEGAGTGWTVYPPLSHSGPSVDMAFHLTSSLLGAINFTNMRGPLFWTALLLLSLPVLAGTLLDRNFNTFEGGDPLYHLFWFFGHPEVYIIPGFGSHSTYKKFGMYASIGLGFVWSHHMFVGLDDRAYFTSATMMAPTGIKFSWLATYGGRPMLAFLFLFTGGTGVLNASDSMHDTYYVVHFHYVLSMGAFSLGYYYWPGLYNLYWFNFPMHFLGGMPRRPYPDAGWNSGSSLQLGPDESNEPH'
p1913
sg123
F0.084209999999999993
sg124
g125
sg33
S'82'
p1914
sg127
g1
(g128
g12
(dp1915
g130
I4
sg131
g132
sg133
g134
sg135
g132
sg136
I01
sg34
g137
sg138
g134
sg139
I0
sg140
I0
sg141
I0
sg142
g134
sg35
g143
sg144
I0
stRp1916
sg146
g147
sg148
F1
sg149
Nsg30
S'CtetrA'
p1917
sbag1
(g2
g3
NtRp1918
(dp1919
g6
g1
(g7
g3
NtRp1920
(dp1921
g10
g1
(g11
g12
(dtRp1922
sg14
g1
(g11
g12
(dtRp1923
sg16
g1
(g11
g12
(dtRp1924
sg18
g1
(g11
g12
(dtRp1925
sg20
g1
(g11
g12
(dtRp1926
sg22
g1
(g11
g12
(dtRp1927
sbsg24
g25
sg26
g27
((lp1928
g33
ag32
ag29
ag30
atRp1929
sg37
(lp1930
g1
(g2
g3
NtRp1931
(dp1932
g6
g1
(g7
g3
NtRp1933
(dp1934
g10
g1
(g11
g12
(dtRp1935
sg14
g1
(g11
g12
(dtRp1936
sg16
g1
(g11
g12
(dtRp1937
sg18
g1
(g11
g12
(dtRp1938
sg20
g1
(g11
g12
(dtRp1939
sg22
g1
(g11
g12
(dtRp1940
sbsg24
g25
sg26
g27
((lp1941
g33
ag32
ag29
ag30
atRp1942
sg37
(lp1943
g1
(g2
g3
NtRp1944
(dp1945
g6
g1
(g7
g3
NtRp1946
(dp1947
g10
g1
(g11
g12
(dtRp1948
sg14
g1
(g11
g12
(dtRp1949
sg16
g1
(g11
g12
(dtRp1950
sg18
g1
(g11
g12
(dtRp1951
sg20
g1
(g11
g12
(dtRp1952
sg22
g1
(g11
g12
(dtRp1953
sbsg24
S'Cvi'
p1954
sg26
g27
((lp1955
g29
ag30
aS'sequence'
p1956
ag32
ag33
aS'species'
p1957
atRp1958
sg37
(lp1959
sg120
g1931
sg121
S'RWFSTKDLYSRLELPGLNQNVHAMFVMPLGFGNPMGDMFARLNNSFWLPPLSLEGAGTGWTVYPPLSHSGPSVDLAFHLTSSLLGAINFTNMRGPLFWTALLLLSLPVLAGTLLDRNFNTFDGGDPLYHLFWFFGHPEVYMIPGFGSHSTYKKFGMYASIGLGFVWSHHMYVGLDDRAYFTSATMIAPTGIKFSWLSTYGGRPTLAFLFLFTGGTGVLNASDSMHDTYYVVHFHYVLSMGAFSLGYYYWPGLYNLYWFNFPMHFLGGMPRRPYPDSGWNSGSSFQLGPDESNEPH'
p1960
sg123
F0.03977
sg124
g125
sg33
S'111'
p1961
sg127
g1
(g128
g12
(dp1962
g130
I4
sg131
g132
sg133
g134
sg135
g132
sg136
I01
sg34
g137
sg138
g134
sg139
I0
sg140
I0
sg141
I0
sg142
g134
sg35
g143
sg144
I0
stRp1963
sg146
g147
sg148
F1
sg149
Nsg30
S'CviswA'
p1964
sbag1
(g2
g3
NtRp1965
(dp1966
g6
g1
(g7
g3
NtRp1967
(dp1968
g10
g1
(g11
g12
(dtRp1969
sg14
g1
(g11
g12
(dtRp1970
sg16
g1
(g11
g12
(dtRp1971
sg18
g1
(g11
g12
(dtRp1972
sg20
g1
(g11
g12
(dtRp1973
sg22
g1
(g11
g12
(dtRp1974
sbsg24
S'Csa'
p1975
sg26
g27
((lp1976
g29
ag30
aS'sequence'
p1977
ag32
ag33
aS'species'
p1978
atRp1979
sg37
(lp1980
sg120
g1931
sg121
S'RWFSTKDLYSRLELPGLNQNVHAMFVMPLGFGNPMGDMFARLNNSFWLPPLSLEGAGTGWTVYPPLSHSGPSVDLAFHLTSSLLGAINFTNMRGVLFWTALLLLSLPVLAGTLLDRNFNTFDGGDPLYHLFWFFGHPEVYIIPGFGSHSTFKKFGMYASIGLGFVWSHHMYVGLDDRAYFTSATMIAPTGIKFSWIATYGGRPTLAFLFLFTGGTGVLNASDSMHDTYYVVHFHYVLSMGAFSLGYYYWPGLYNLYWFNFPMHFLGGMPRRPYPDSGWNSGSSYQLGPDEGNEPH'
p1981
sg123
F0.065189999999999998
sg124
g125
sg33
S'65'
p1982
sg127
g1
(g128
g12
(dp1983
g130
I4
sg131
g132
sg133
g134
sg135
g132
sg136
I01
sg34
g137
sg138
g134
sg139
I0
sg140
I0
sg141
I0
sg142
g134
sg35
g143
sg144
I0
stRp1984
sg146
g147
sg148
F1
sg149
Nsg30
S'CsaraA'
p1985
sbasg120
g1918
sg123
F0.029960000000000001
sg124
g125
sg33
S'134'
p1986
sg127
g1
(g128
g12
(dp1987
g130
I6
sg131
g132
sg133
g134
sg135
g132
sg136
I01
sg34
g173
sg138
g134
sg139
I0
sg140
I0
sg141
I0
sg142
g134
sg35
g174
sg144
I0
stRp1988
sg146
g147
sg148
F0.98999999999999999
sg149
Nsg30
S'NoName'
p1989
sbag1
(g2
g3
NtRp1990
(dp1991
g6
g1
(g7
g3
NtRp1992
(dp1993
g10
g1
(g11
g12
(dtRp1994
sg14
g1
(g11
g12
(dtRp1995
sg16
g1
(g11
g12
(dtRp1996
sg18
g1
(g11
g12
(dtRp1997
sg20
g1
(g11
g12
(dtRp1998
sg22
g1
(g11
g12
(dtRp1999
sbsg24
S'Cpr'
p2000
sg26
g27
((lp2001
g29
ag30
aS'sequence'
p2002
ag32
ag33
aS'species'
p2003
atRp2004
sg37
(lp2005
sg120
g1918
sg121
S'RWFSTKDEYSRLELPGLNQNVHAMFVMPLGFGNPMGDMFARLNNSFWLPPLSLEGAGTGWTVYPPLSHSGPSVDLAFHLTSSLLGAINFTNMRGPLFWTALLLLSLPVLTGTLLDRNFNTFDGGDPLYHLFWFFGHPEVYMIPGFGSHSTYKKFGMYASMGLGFVWSHHMFVGLDDRAYFTSATMMAPTGIKFSWLATYGGRPMLAFLFLFTGGTGVLNASDSMHDTYYVVHFHYVLSMGAFSLGYYYWPGLYNLYWFNFPMHFLGGMPRRPYPDSGWNSGSSVQLGPDENNEPH'
p2006
sg123
F0.17724999999999999
sg124
g125
sg33
S'93'
p2007
sg127
g1
(g128
g12
(dp2008
g130
I4
sg131
g132
sg133
g134
sg135
g132
sg136
I01
sg34
g137
sg138
g134
sg139
I0
sg140
I0
sg141
I0
sg142
g134
sg35
g143
sg144
I0
stRp2009
sg146
g147
sg148
F1
sg149
Nsg30
S'CpracA'
p2010
sbasg120
g1884
sg123
F0.02281
sg124
g125
sg33
S'133'
p2011
sg127
g1
(g128
g12
(dp2012
g130
I6
sg131
g132
sg133
g134
sg135
g132
sg136
I01
sg34
g173
sg138
g134
sg139
I0
sg140
I0
sg141
I0
sg142
g134
sg35
g174
sg144
I0
stRp2013
sg146
g147
sg148
F0.98999999999999999
sg149
Nsg30
S'NoName'
p2014
sbasg120
g1774
sg123
F0.01154
sg124
g125
sg33
S'157'
p2015
sg127
g1
(g128
g12
(dp2016
g130
I6
sg131
g132
sg133
g134
sg135
g132
sg136
I01
sg34
g173
sg138
g134
sg139
I0
sg140
I0
sg141
I0
sg142
g134
sg35
g174
sg144
I0
stRp2017
sg146
g147
sg148
F0.98999999999999999
sg149
Nsg30
S'NoName'
p2018
sbasg120
g1761
sg123
F0.02138
sg124
g125
sg33
S'159'
p2019
sg127
g1
(g128
g12
(dp2020
g130
I6
sg131
g132
sg133
g134
sg135
g132
sg136
I01
sg34
g173
sg138
g134
sg139
I0
sg140
I0
sg141
I0
sg142
g134
sg35
g174
sg144
I0
stRp2021
sg146
g147
sg148
F0.98999999999999999
sg149
Nsg30
S'NoName'
p2022
sbag1
(g2
g3
NtRp2023
(dp2024
g6
g1
(g7
g3
NtRp2025
(dp2026
g10
g1
(g11
g12
(dtRp2027
sg14
g1
(g11
g12
(dtRp2028
sg16
g1
(g11
g12
(dtRp2029
sg18
g1
(g11
g12
(dtRp2030
sg20
g1
(g11
g12
(dtRp2031
sg22
g1
(g11
g12
(dtRp2032
sbsg24
g25
sg26
g27
((lp2033
g33
ag32
ag29
ag30
atRp2034
sg37
(lp2035
g1
(g2
g3
NtRp2036
(dp2037
g6
g1
(g7
g3
NtRp2038
(dp2039
g10
g1
(g11
g12
(dtRp2040
sg14
g1
(g11
g12
(dtRp2041
sg16
g1
(g11
g12
(dtRp2042
sg18
g1
(g11
g12
(dtRp2043
sg20
g1
(g11
g12
(dtRp2044
sg22
g1
(g11
g12
(dtRp2045
sbsg24
S'Cne'
p2046
sg26
g27
((lp2047
g29
ag30
aS'sequence'
p2048
ag32
ag33
aS'species'
p2049
atRp2050
sg37
(lp2051
sg120
g2023
sg121
S'RWLSTKDLYSRLELPGLNQNVHAMFVMPLGFGNPMGDMFARLNNSFWLPPLSLEGAGTGWTVYPPLSHSGPSVDLAFHLTSSLLGAINFTNMRGPLFWTALLLLSLPVLAGTLLDRNFNTFDGGDPLYHLFWFFGHPEVYIIPGFGSHSTYKKFGMYASIGLGFVWSHHMYVGLDDRAYFTSATMIAPTGIKFSWLATYGGRPMLAFLFLFTGGTGVLNASDAFHDTYYVVHFHYVLSMGAFSLGYYYWPGLYNLYWFNFPMHFLGGMPRRPYPDSGWNSGSSYQLGPDESNEPH'
p2052
sg123
F0.04879
sg124
g125
sg33
S'175'
p2053
sg127
g1
(g128
g12
(dp2054
g130
I4
sg131
g132
sg133
g134
sg135
g132
sg136
I01
sg34
g137
sg138
g134
sg139
I0
sg140
I0
sg141
I0
sg142
g134
sg35
g143
sg144
I0
stRp2055
sg146
g147
sg148
F1
sg149
Nsg30
S'CneerA'
p2056
sbag1
(g2
g3
NtRp2057
(dp2058
g6
g1
(g7
g3
NtRp2059
(dp2060
g10
g1
(g11
g12
(dtRp2061
sg14
g1
(g11
g12
(dtRp2062
sg16
g1
(g11
g12
(dtRp2063
sg18
g1
(g11
g12
(dtRp2064
sg20
g1
(g11
g12
(dtRp2065
sg22
g1
(g11
g12
(dtRp2066
sbsg24
S'Cfr'
p2067
sg26
g27
((lp2068
g29
ag30
aS'sequence'
p2069
ag32
ag33
aS'species'
p2070
atRp2071
sg37
(lp2072
sg120
g2023
sg121
S'RWLSTKDLYSRLELPGLNQNVHAMFVMPLGFGNPMGDMFARLNNSFWLPPLSLEGAGTGWTVYPPLSHSGPSVDLAFHLTSSLLGAMNFTNMRGPLFWTALLLLSLPVLAGTLLDRNFNTFDGGDPLYHLFWFFGHPEVYIIPGFGSHSTYKKFGMYASIGLGFVWSHHMYVGLDDRAYFTSATMIAPTGIKFSWLSTYGGRPMLAFLFLFTGGTGVLNASDAFHDTYYVVHFHYVLSMGAFSLGYYYWPGLYNLYWFNFPMHFLGGMPRRPYPDSGWNSGSSYQLGPDESNEPH'
p2073
sg123
F0.050279999999999998
sg124
g125
sg33
S'181'
p2074
sg127
g1
(g128
g12
(dp2075
g130
I4
sg131
g132
sg133
g134
sg135
g132
sg136
I01
sg34
g137
sg138
g134
sg139
I0
sg140
I0
sg141
I0
sg142
g134
sg35
g143
sg144
I0
stRp2076
sg146
g147
sg148
F1
sg149
Nsg30
S'CfrijA'
p2077
sbasg120
g1761
sg123
F0.11378000000000001
sg124
g125
sg33
S'87'
p2078
sg127
g1
(g128
g12
(dp2079
g130
I6
sg131
g132
sg133
g134
sg135
g132
sg136
I01
sg34
g173
sg138
g134
sg139
I0
sg140
I0
sg141
I0
sg142
g134
sg35
g174
sg144
I0
stRp2080
sg146
g147
sg148
F0.98999999999999999
sg149
Nsg30
S'NoName'
p2081
sbasg120
g1727
sg123
F0.076910000000000006
sg124
g125
sg33
S'10'
p2082
sg127
g1
(g128
g12
(dp2083
g130
I6
sg131
g132
sg133
g134
sg135
g132
sg136
I01
sg34
g173
sg138
g134
sg139
I0
sg140
I0
sg141
I0
sg142
g134
sg35
g174
sg144
I0
stRp2084
sg146
g147
sg148
F0.98999999999999999
sg149
Nsg30
S'NoName'
p2085
sbasg120
g1714
sg123
F0.022950000000000002
sg124
g125
sg33
S'104'
p2086
sg127
g1
(g128
g12
(dp2087
g130
I6
sg131
g132
sg133
g134
sg135
g132
sg136
I01
sg34
g173
sg138
g134
sg139
I0
sg140
I0
sg141
I0
sg142
g134
sg35
g174
sg144
I0
stRp2088
sg146
g147
sg148
F0.65000000000000002
sg149
Nsg30
S'NoName'
p2089
sbag1
(g2
g3
NtRp2090
(dp2091
g6
g1
(g7
g3
NtRp2092
(dp2093
g10
g1
(g11
g12
(dtRp2094
sg14
g1
(g11
g12
(dtRp2095
sg16
g1
(g11
g12
(dtRp2096
sg18
g1
(g11
g12
(dtRp2097
sg20
g1
(g11
g12
(dtRp2098
sg22
g1
(g11
g12
(dtRp2099
sbsg24
g25
sg26
g27
((lp2100
g33
ag32
ag29
ag30
atRp2101
sg37
(lp2102
g1
(g2
g3
NtRp2103
(dp2104
g6
g1
(g7
g3
NtRp2105
(dp2106
g10
g1
(g11
g12
(dtRp2107
sg14
g1
(g11
g12
(dtRp2108
sg16
g1
(g11
g12
(dtRp2109
sg18
g1
(g11
g12
(dtRp2110
sg20
g1
(g11
g12
(dtRp2111
sg22
g1
(g11
g12
(dtRp2112
sbsg24
g25
sg26
g27
((lp2113
g33
ag32
ag29
ag30
atRp2114
sg37
(lp2115
g1
(g2
g3
NtRp2116
(dp2117
g6
g1
(g7
g3
NtRp2118
(dp2119
g10
g1
(g11
g12
(dtRp2120
sg14
g1
(g11
g12
(dtRp2121
sg16
g1
(g11
g12
(dtRp2122
sg18
g1
(g11
g12
(dtRp2123
sg20
g1
(g11
g12
(dtRp2124
sg22
g1
(g11
g12
(dtRp2125
sbsg24
S'Cgi'
p2126
sg26
g27
((lp2127
g29
ag30
aS'sequence'
p2128
ag32
ag33
aS'species'
p2129
atRp2130
sg37
(lp2131
sg120
g2103
sg121
S'RWLSTKDLYSRLELAGLNQNVHAMFVMPLGFGNPMGDMFARLNNSFWLPPLSLEGAGTGWTVYPPLSHSGPSVDMAFHLTSSLLGAINFTNMRGPLFWTALLLLSLPVLAATLLDRNFNTFEGGDPLYHAFWFFGHPEVYIIPGFGSHSTYKKFGMYASIGLGFVWSHHMYVGLDDRAYFTSATMIAPTGIKFSWLATYGGRPMLAFLFLFTGGTGVLNASDAFHDTYYVVHFHYVLSMGAFSLGYYYWPGLYNLYWFNFPMHFLGGMPRRPYPDAGWNSGSSYQLGPDESNEPH'
p2132
sg123
F0.22796
sg124
g125
sg33
S'0'
sg127
g1
(g128
g12
(dp2133
g130
I4
sg131
g132
sg133
g134
sg135
g132
sg136
I01
sg34
g137
sg138
g134
sg139
I0
sg140
I0
sg141
I0
sg142
g134
sg35
g143
sg144
I0
stRp2134
sg146
g147
sg148
F1
sg149
Nsg30
S'CgigaA'
p2135
sbag1
(g2
g3
NtRp2136
(dp2137
g6
g1
(g7
g3
NtRp2138
(dp2139
g10
g1
(g11
g12
(dtRp2140
sg14
g1
(g11
g12
(dtRp2141
sg16
g1
(g11
g12
(dtRp2142
sg18
g1
(g11
g12
(dtRp2143
sg20
g1
(g11
g12
(dtRp2144
sg22
g1
(g11
g12
(dtRp2145
sbsg24
S'Cbu'
p2146
sg26
g27
((lp2147
g29
ag30
aS'sequence'
p2148
ag32
ag33
aS'species'
p2149
atRp2150
sg37
(lp2151
sg120
g2103
sg121
S'RWLSTKDLYSRLELAGLNQNVHAMFVMPLGFGNPMGDMFARLNNSFWLPPLSLEGAGTGWTVYPPLSHSGPSVDLAFHLTSSLLGAINFTNMRGPLFWTALLLLSLPVLAGTLLDRNFNTFEGGDPLYHLFWFFGHPEVYIIPGFGSHGTYKKFGMYASIGLGFVWSHHMFVGLDDRAYFTSATMIAPTGIKFSWLATYGGRPMLAFLFLFTGGTGVLNASDAFHDTYYVVHFHYVLSMGAFSLAYYYWPGLYNLFWFNFPMHFLGGMPRRPYPDAGWNSGSSYQLGPDESNEPH'
p2152
sg123
F0.26118000000000002
sg124
g125
sg33
S'165'
p2153
sg127
g1
(g128
g12
(dp2154
g130
I4
sg131
g132
sg133
g134
sg135
g132
sg136
I01
sg34
g137
sg138
g134
sg139
I0
sg140
I0
sg141
I0
sg142
g134
sg35
g143
sg144
I0
stRp2155
sg146
g147
sg148
F1
sg149
Nsg30
S'CbuenA'
p2156
sbasg120
g2090
sg123
F0.037260000000000001
sg124
g125
sg33
S'39'
p2157
sg127
g1
(g128
g12
(dp2158
g130
I6
sg131
g132
sg133
g134
sg135
g132
sg136
I01
sg34
g173
sg138
g134
sg139
I0
sg140
I0
sg141
I0
sg142
g134
sg35
g174
sg144
I0
stRp2159
sg146
g147
sg148
F0.98999999999999999
sg149
Nsg30
S'NoName'
p2160
sbag1
(g2
g3
NtRp2161
(dp2162
g6
g1
(g7
g3
NtRp2163
(dp2164
g10
g1
(g11
g12
(dtRp2165
sg14
g1
(g11
g12
(dtRp2166
sg16
g1
(g11
g12
(dtRp2167
sg18
g1
(g11
g12
(dtRp2168
sg20
g1
(g11
g12
(dtRp2169
sg22
g1
(g11
g12
(dtRp2170
sbsg24
g25
sg26
g27
((lp2171
g33
ag32
ag29
ag30
atRp2172
sg37
(lp2173
g1
(g2
g3
NtRp2174
(dp2175
g6
g1
(g7
g3
NtRp2176
(dp2177
g10
g1
(g11
g12
(dtRp2178
sg14
g1
(g11
g12
(dtRp2179
sg16
g1
(g11
g12
(dtRp2180
sg18
g1
(g11
g12
(dtRp2181
sg20
g1
(g11
g12
(dtRp2182
sg22
g1
(g11
g12
(dtRp2183
sbsg24
S'Cdu'
p2184
sg26
g27
((lp2185
g29
ag30
aS'sequence'
p2186
ag32
ag33
aS'species'
p2187
atRp2188
sg37
(lp2189
sg120
g2161
sg121
S'RWLSTKDLYSRLELPGLNQNVHAMFVMPLGFGNPMGDMFARLNNSFWLPPLSLEGAGTGWTVYPPLSHSGPSVDLAFHLTSSLLGAINFTNMRGPLYWTALLLLSLPVLAGTLLDRNFNTFEGGDPLYHLFWFFGHPEVYIIPGFGSHSTYKKFGMYASIGLGFVWSHHMYVGLDDRAYFTSATMIAPTGIKFSWLATYGGRPMLAFLFLFTGGTGVLNASDAFHDTYYVVHFHYVLSMGAFSLGYYYWPGLYNLYWFNFPMHFLGGMPRRPYPDAGWNSGSSYQLGPDESNEPH'
p2190
sg123
F0.025069999999999999
sg124
g125
sg33
S'201'
p2191
sg127
g1
(g128
g12
(dp2192
g130
I4
sg131
g132
sg133
g134
sg135
g132
sg136
I01
sg34
g137
sg138
g134
sg139
I0
sg140
I0
sg141
I0
sg142
g134
sg35
g143
sg144
I0
stRp2193
sg146
g147
sg148
F1
sg149
Nsg30
S'CdublA'
p2194
sbag1
(g2
g3
NtRp2195
(dp2196
g6
g1
(g7
g3
NtRp2197
(dp2198
g10
g1
(g11
g12
(dtRp2199
sg14
g1
(g11
g12
(dtRp2200
sg16
g1
(g11
g12
(dtRp2201
sg18
g1
(g11
g12
(dtRp2202
sg20
g1
(g11
g12
(dtRp2203
sg22
g1
(g11
g12
(dtRp2204
sbsg24
g25
sg26
g27
((lp2205
g33
ag32
ag29
ag30
atRp2206
sg37
(lp2207
g1
(g2
g3
NtRp2208
(dp2209
g6
g1
(g7
g3
NtRp2210
(dp2211
g10
g1
(g11
g12
(dtRp2212
sg14
g1
(g11
g12
(dtRp2213
sg16
g1
(g11
g12
(dtRp2214
sg18
g1
(g11
g12
(dtRp2215
sg20
g1
(g11
g12
(dtRp2216
sg22
g1
(g11
g12
(dtRp2217
sbsg24
g25
sg26
g27
((lp2218
g33
ag32
ag29
ag30
atRp2219
sg37
(lp2220
g1
(g2
g3
NtRp2221
(dp2222
g6
g1
(g7
g3
NtRp2223
(dp2224
g10
g1
(g11
g12
(dtRp2225
sg14
g1
(g11
g12
(dtRp2226
sg16
g1
(g11
g12
(dtRp2227
sg18
g1
(g11
g12
(dtRp2228
sg20
g1
(g11
g12
(dtRp2229
sg22
g1
(g11
g12
(dtRp2230
sbsg24
g25
sg26
g27
((lp2231
g33
ag32
ag29
ag30
atRp2232
sg37
(lp2233
g1
(g2
g3
NtRp2234
(dp2235
g6
g1
(g7
g3
NtRp2236
(dp2237
g10
g1
(g11
g12
(dtRp2238
sg14
g1
(g11
g12
(dtRp2239
sg16
g1
(g11
g12
(dtRp2240
sg18
g1
(g11
g12
(dtRp2241
sg20
g1
(g11
g12
(dtRp2242
sg22
g1
(g11
g12
(dtRp2243
sbsg24
g25
sg26
g27
((lp2244
g33
ag32
ag29
ag30
atRp2245
sg37
(lp2246
g1
(g2
g3
NtRp2247
(dp2248
g6
g1
(g7
g3
NtRp2249
(dp2250
g10
g1
(g11
g12
(dtRp2251
sg14
g1
(g11
g12
(dtRp2252
sg16
g1
(g11
g12
(dtRp2253
sg18
g1
(g11
g12
(dtRp2254
sg20
g1
(g11
g12
(dtRp2255
sg22
g1
(g11
g12
(dtRp2256
sbsg24
S'Cal'
p2257
sg26
g27
((lp2258
g29
ag30
aS'sequence'
p2259
ag32
ag33
aS'species'
p2260
atRp2261
sg37
(lp2262
sg120
g2234
sg121
S'RWLSTKDLYSRLELPGLNQNVHAMFVMPLGFGNPMGDMFARLNNSFWLPPLSLEGAGTGWTVYPPLSHSGPSVDLAFHLTSSLLGAINFTNMRGPLFWTALLLLSLPVLAGTLLDRNFNTFEGGDPLYHLFWFFGHPEVYIIPGFGSHSTYKKFGMYASIGLGFVWSHHMYVGLDDRAYFTSATMIAPTGIKFSWLATYGGRPMLAFLFLFTGGTGVLNASDAFHDTYYVVHFHYVLSMGAFSLGYYYWPGLYNLYWFNFPMHFLGGMPRRPYPDAGWNSGSSYQLGPDESNEPH'
p2263
sg123
F0.00025000000000000001
sg124
g125
sg33
S'27'
p2264
sg127
g1
(g128
g12
(dp2265
g130
I4
sg131
g132
sg133
g134
sg135
g132
sg136
I01
sg34
g137
sg138
g134
sg139
I0
sg140
I0
sg141
I0
sg142
g134
sg35
g143
sg144
I0
stRp2266
sg146
g147
sg148
F1
sg149
Nsg30
S'CalbiE'
p2267
sbag1
(g2
g3
NtRp2268
(dp2269
g6
g1
(g7
g3
NtRp2270
(dp2271
g10
g1
(g11
g12
(dtRp2272
sg14
g1
(g11
g12
(dtRp2273
sg16
g1
(g11
g12
(dtRp2274
sg18
g1
(g11
g12
(dtRp2275
sg20
g1
(g11
g12
(dtRp2276
sg22
g1
(g11
g12
(dtRp2277
sbsg24
S'Cal'
p2278
sg26
g27
((lp2279
g29
ag30
aS'sequence'
p2280
ag32
ag33
aS'species'
p2281
atRp2282
sg37
(lp2283
sg120
g2234
sg121
S'RWLSTKDLYSRLELPGLNQNVHAMFVMPLGFGNPMGDMFARLNNSFWLPPLSLEGAGTGWTVYPPLSHSGPSVDLAFHLTSSLLGAINFTNMRGPLFWTALLLLSLPVLAGTLLDRNFNTFEGGDPLYHLFWFFGHPEVYIIPGFGSHSTYKKFGMYASIGLGFVWSHHMYVGLDDRAYFTSATMIAPTGIKFSWLATYGGRPMLAFLFLFTGGTGVLNASDAFHDTYYVVHFHYVLSMGAFSLGYYYWPGLYNLYWFNFPMHFLGGMPRRPYPDAGWNSGSSYQLGPDESNEPH'
p2284
sg123
F0.00050000000000000001
sg124
g125
sg33
S'156'
p2285
sg127
g1
(g128
g12
(dp2286
g130
I4
sg131
g132
sg133
g134
sg135
g132
sg136
I01
sg34
g137
sg138
g134
sg139
I0
sg140
I0
sg141
I0
sg142
g134
sg35
g143
sg144
I0
stRp2287
sg146
g147
sg148
F1
sg149
Nsg30
S'CalbiD'
p2288
sbasg120
g2221
sg123
F0.00051999999999999995
sg124
g125
sg33
S'70'
p2289
sg127
g1
(g128
g12
(dp2290
g130
I6
sg131
g132
sg133
g134
sg135
g132
sg136
I01
sg34
g173
sg138
g134
sg139
I0
sg140
I0
sg141
I0
sg142
g134
sg35
g174
sg144
I0
stRp2291
sg146
g147
sg148
F0.73999999999999999
sg149
Nsg30
S'NoName'
p2292
sbag1
(g2
g3
NtRp2293
(dp2294
g6
g1
(g7
g3
NtRp2295
(dp2296
g10
g1
(g11
g12
(dtRp2297
sg14
g1
(g11
g12
(dtRp2298
sg16
g1
(g11
g12
(dtRp2299
sg18
g1
(g11
g12
(dtRp2300
sg20
g1
(g11
g12
(dtRp2301
sg22
g1
(g11
g12
(dtRp2302
sbsg24
S'Cal'
p2303
sg26
g27
((lp2304
g29
ag30
aS'sequence'
p2305
ag32
ag33
aS'species'
p2306
atRp2307
sg37
(lp2308
sg120
g2221
sg121
S'RWLSTKDLYSRLELPGLNQNVHAMFVMPLGFGNPMGDMFARLNNSFWLPPLSLEGAGTGWTVYPPLSHSGPSVDLAFHLTSSLLGAINFTNMRGPLFWTALLLLSLPVLAGTLLDRNFNTFEGGDPLYHLFWFFGHPEVYIIPGFGSHSTYKKFGMYASIGLGFVWSHHMYVGLDDRAYFTSATMIAPTGIKFSWLATYGGRPMLAFLFLFTGGTGVLNASDAFHDTYYVVHFHYVLSMGAFSLGYYYWPGLYNLYWFNFPMHFLGGMPRRPYPDAGWNSGSSYQLGPDESNEPH'
p2309
sg123
F0.00012
sg124
g125
sg33
S'141'
p2310
sg127
g1
(g128
g12
(dp2311
g130
I4
sg131
g132
sg133
g134
sg135
g132
sg136
I01
sg34
g137
sg138
g134
sg139
I0
sg140
I0
sg141
I0
sg142
g134
sg35
g143
sg144
I0
stRp2312
sg146
g147
sg148
F1
sg149
Nsg30
S'CalbiC'
p2313
sbasg120
g2208
sg123
F1.0000000000000001e-05
sg124
g125
sg33
S'222'
p2314
sg127
g1
(g128
g12
(dp2315
g130
I6
sg131
g132
sg133
g134
sg135
g132
sg136
I01
sg34
g173
sg138
g134
sg139
I0
sg140
I0
sg141
I0
sg142
g134
sg35
g174
sg144
I0
stRp2316
sg146
g147
sg148
F1
sg149
Nsg30
S'NoName'
p2317
sbag1
(g2
g3
NtRp2318
(dp2319
g6
g1
(g7
g3
NtRp2320
(dp2321
g10
g1
(g11
g12
(dtRp2322
sg14
g1
(g11
g12
(dtRp2323
sg16
g1
(g11
g12
(dtRp2324
sg18
g1
(g11
g12
(dtRp2325
sg20
g1
(g11
g12
(dtRp2326
sg22
g1
(g11
g12
(dtRp2327
sbsg24
S'Cal'
p2328
sg26
g27
((lp2329
g29
ag30
aS'sequence'
p2330
ag32
ag33
aS'species'
p2331
atRp2332
sg37
(lp2333
sg120
g2208
sg121
S'RWLSTKDLYSRLELPGLNQNVHAMFVMPLGFGNPMGDMFARLNNSFWLPPLSLEGAGTGWTVYPPLSHSGPSVDLAFHLTSSLLGAINFTNMRGPLFWTALLLLSLPVLAGTLLDRNFNTFEGGDPLYHLFWFFGHPEVYIIPGFGSHSTYKKFGMYASIGLGFVWSHHMYVGLDDRAYFTSATMIAPTGIKFSWLATYGGRPMLAFLFLFTGGTGVLNASDAFHDTYYVVHFHYVLSMGAFSLGYYYWPGLYNLYWFNFPMHFLGGMPRRPYPDAGWNSGSSYQLGPDESNEPH'
p2334
sg123
F0.00016000000000000001
sg124
g125
sg33
S'124'
p2335
sg127
g1
(g128
g12
(dp2336
g130
I4
sg131
g132
sg133
g134
sg135
g132
sg136
I01
sg34
g137
sg138
g134
sg139
I0
sg140
I0
sg141
I0
sg142
g134
sg35
g143
sg144
I0
stRp2337
sg146
g147
sg148
F1
sg149
Nsg30
S'CalbiB'
p2338
sbasg120
g2195
sg123
F1.0000000000000001e-05
sg124
g125
sg33
S'53'
p2339
sg127
g1
(g128
g12
(dp2340
g130
I6
sg131
g132
sg133
g134
sg135
g132
sg136
I01
sg34
g173
sg138
g134
sg139
I0
sg140
I0
sg141
I0
sg142
g134
sg35
g174
sg144
I0
stRp2341
sg146
g147
sg148
F1
sg149
Nsg30
S'NoName'
p2342
sbag1
(g2
g3
NtRp2343
(dp2344
g6
g1
(g7
g3
NtRp2345
(dp2346
g10
g1
(g11
g12
(dtRp2347
sg14
g1
(g11
g12
(dtRp2348
sg16
g1
(g11
g12
(dtRp2349
sg18
g1
(g11
g12
(dtRp2350
sg20
g1
(g11
g12
(dtRp2351
sg22
g1
(g11
g12
(dtRp2352
sbsg24
S'Cal'
p2353
sg26
g27
((lp2354
g29
ag30
aS'sequence'
p2355
ag32
ag33
aS'species'
p2356
atRp2357
sg37
(lp2358
sg120
g2195
sg121
S'RWLSTKDLYSRLELPGLNQNVHAMFVMPLGFGNPMGDMFARLNNSFWLPPLSLEGAGTGWTVYPPLSHSGPSVDLAFHLTSSLLGAINFTNMRGPLFWTALLLLSLPVLAGTLLDRNFNTFEGGDPLYHLFWFFGHPEVYIIPGFGSHSTYKKFGMYASIGLGFVWSHHMYVGLDDRAYFTSATMIAPTGIKFSWLATYGGRPMLAFLFLFTGGTGVLNASDAFHDTYYVVHFHYVLSMGAFSLGYYYWPGLYNLYWFNFPMHFLGGMPRRPYPDAGWNSGSSYQLGPDESNEPH'
p2359
sg123
F0.00013999999999999999
sg124
g125
sg33
S'107'
p2360
sg127
g1
(g128
g12
(dp2361
g130
I4
sg131
g132
sg133
g134
sg135
g132
sg136
I01
sg34
g137
sg138
g134
sg139
I0
sg140
I0
sg141
I0
sg142
g134
sg35
g143
sg144
I0
stRp2362
sg146
g147
sg148
F1
sg149
Nsg30
S'CalbiA'
p2363
sbasg120
g2161
sg123
F0.014959999999999999
sg124
g125
sg33
S'52'
p2364
sg127
g1
(g128
g12
(dp2365
g130
I6
sg131
g132
sg133
g134
sg135
g132
sg136
I01
sg34
g173
sg138
g134
sg139
I0
sg140
I0
sg141
I0
sg142
g134
sg35
g174
sg144
I0
stRp2366
sg146
g147
sg148
F0.98999999999999999
sg149
Nsg30
S'NoName'
p2367
sbasg120
g2090
sg123
F0.05287
sg124
g125
sg33
S'145'
p2368
sg127
g1
(g128
g12
(dp2369
g130
I6
sg131
g132
sg133
g134
sg135
g132
sg136
I01
sg34
g173
sg138
g134
sg139
I0
sg140
I0
sg141
I0
sg142
g134
sg35
g174
sg144
I0
stRp2370
sg146
g147
sg148
F0.98999999999999999
sg149
Nsg30
S'NoName'
p2371
sbasg120
g1714
sg123
F0.037499999999999999
sg124
g125
sg33
S'71'
p2372
sg127
g1
(g128
g12
(dp2373
g130
I6
sg131
g132
sg133
g134
sg135
g132
sg136
I01
sg34
g173
sg138
g134
sg139
I0
sg140
I0
sg141
I0
sg142
g134
sg35
g174
sg144
I0
stRp2374
sg146
g147
sg148
F0.98999999999999999
sg149
Nsg30
S'NoName'
p2375
sbasg120
g998
sg123
F0.10766000000000001
sg124
g125
sg33
S'114'
p2376
sg127
g1
(g128
g12
(dp2377
g130
I6
sg131
g132
sg133
g134
sg135
g132
sg136
I01
sg34
g173
sg138
g134
sg139
I0
sg140
I0
sg141
I0
sg142
g134
sg35
g174
sg144
I0
stRp2378
sg146
g147
sg148
F0.98999999999999999
sg149
Nsg30
S'NoName'
p2379
sbasg120
g964
sg123
F0.093560000000000004
sg124
g125
sg33
S'213'
p2380
sg127
g1
(g128
g12
(dp2381
g130
I6
sg131
g132
sg133
g134
sg135
g132
sg136
I01
sg34
g173
sg138
g134
sg139
I0
sg140
I0
sg141
I0
sg142
g134
sg35
g174
sg144
I0
stRp2382
sg146
g147
sg148
F0.97999999999999998
sg149
Nsg30
S'NoName'
p2383
sbasg120
g951
sg123
F0.036760000000000001
sg124
g125
sg33
S'203'
p2384
sg127
g1
(g128
g12
(dp2385
g130
I6
sg131
g132
sg133
g134
sg135
g132
sg136
I01
sg34
g173
sg138
g134
sg139
I0
sg140
I0
sg141
I0
sg142
g134
sg35
g174
sg144
I0
stRp2386
sg146
g147
sg148
F0.97999999999999998
sg149
Nsg30
S'NoName'
p2387
sbag1
(g2
g3
NtRp2388
(dp2389
g6
g1
(g7
g3
NtRp2390
(dp2391
g10
g1
(g11
g12
(dtRp2392
sg14
g1
(g11
g12
(dtRp2393
sg16
g1
(g11
g12
(dtRp2394
sg18
g1
(g11
g12
(dtRp2395
sg20
g1
(g11
g12
(dtRp2396
sg22
g1
(g11
g12
(dtRp2397
sbsg24
g25
sg26
g27
((lp2398
g33
ag32
ag29
ag30
atRp2399
sg37
(lp2400
g1
(g2
g3
NtRp2401
(dp2402
g6
g1
(g7
g3
NtRp2403
(dp2404
g10
g1
(g11
g12
(dtRp2405
sg14
g1
(g11
g12
(dtRp2406
sg16
g1
(g11
g12
(dtRp2407
sg18
g1
(g11
g12
(dtRp2408
sg20
g1
(g11
g12
(dtRp2409
sg22
g1
(g11
g12
(dtRp2410
sbsg24
g25
sg26
g27
((lp2411
g33
ag32
ag29
ag30
atRp2412
sg37
(lp2413
g1
(g2
g3
NtRp2414
(dp2415
g6
g1
(g7
g3
NtRp2416
(dp2417
g10
g1
(g11
g12
(dtRp2418
sg14
g1
(g11
g12
(dtRp2419
sg16
g1
(g11
g12
(dtRp2420
sg18
g1
(g11
g12
(dtRp2421
sg20
g1
(g11
g12
(dtRp2422
sg22
g1
(g11
g12
(dtRp2423
sbsg24
S'Csu'
p2424
sg26
g27
((lp2425
g29
ag30
aS'sequence'
p2426
ag32
ag33
aS'species'
p2427
atRp2428
sg37
(lp2429
sg120
g2401
sg121
S'RWLSTKDLYSRMELPGLNQNVHAMFIMPLGLGNPLGDMFARLNNSFWLPPLSLEGAGTGWTVYPPLSHSGPSVDLAFHLTSSLLGAINFTNMRGPLYWTALLLLSLPVLAATLLDRNFNTFEGGDPLYHLFWFFGHPEVYIIPGFGSHSTYKKFGMYASIGLGFVWSHHMFVGLDDRAYFTSATMIAPTGVKFSWLATYGGRPMLAFLFLFTGGTGVINASDAFHDTYYIVHFHYVLSMGAFSLGFYYWPGLYNLFWFNFPMHFLGGMPRRPYPDAGWNSGSAYQLGPDESNEPH'
p2430
sg123
F0.00012999999999999999
sg124
g125
sg33
S'172'
p2431
sg127
g1
(g128
g12
(dp2432
g130
I4
sg131
g132
sg133
g134
sg135
g132
sg136
I01
sg34
g137
sg138
g134
sg139
I0
sg140
I0
sg141
I0
sg142
g134
sg35
g143
sg144
I0
stRp2433
sg146
g147
sg148
F1
sg149
Nsg30
S'CsubhB'
p2434
sbag1
(g2
g3
NtRp2435
(dp2436
g6
g1
(g7
g3
NtRp2437
(dp2438
g10
g1
(g11
g12
(dtRp2439
sg14
g1
(g11
g12
(dtRp2440
sg16
g1
(g11
g12
(dtRp2441
sg18
g1
(g11
g12
(dtRp2442
sg20
g1
(g11
g12
(dtRp2443
sg22
g1
(g11
g12
(dtRp2444
sbsg24
S'Csu'
p2445
sg26
g27
((lp2446
g29
ag30
aS'sequence'
p2447
ag32
ag33
aS'species'
p2448
atRp2449
sg37
(lp2450
sg120
g2401
sg121
S'RWLSTKDLYSRMELPGLNQNVHAMFIMPLGLGNPLGDMFARLNNSFWLPPLSLEGAGTGWTVYPPLSHSGPSVDLAFHLTSSLLGAINFTNMRGPLYWTALLLLSLPVLAATLLDRNFNTFEGGDPLYHLFWFFGHPEVYIIPGFGSHSTYKKFGMYASIGLGFVWSHHMFVGLDDRAYFTSATMIAPTGVKFSWLATYGGRPMLAFLFLFTGGTGVINASDAFHDTYYIVHFHYVLSMGAFSLGFYYWPGLYNLFWFNFPMHFLGGMPRRPYPDAGWNSGSAYQLGPDESNEPH'
p2451
sg123
F0.00013999999999999999
sg124
g125
sg33
S'33'
p2452
sg127
g1
(g128
g12
(dp2453
g130
I4
sg131
g132
sg133
g134
sg135
g132
sg136
I01
sg34
g137
sg138
g134
sg139
I0
sg140
I0
sg141
I0
sg142
g134
sg35
g143
sg144
I0
stRp2454
sg146
g147
sg148
F1
sg149
Nsg30
S'CsubhA'
p2455
sbasg120
g2388
sg123
F0.59348999999999996
sg124
g125
sg33
S'47'
p2456
sg127
g1
(g128
g12
(dp2457
g130
I6
sg131
g132
sg133
g134
sg135
g132
sg136
I01
sg34
g173
sg138
g134
sg139
I0
sg140
I0
sg141
I0
sg142
g134
sg35
g174
sg144
I0
stRp2458
sg146
g147
sg148
F1
sg149
Nsg30
S'NoName'
p2459
sbag1
(g2
g3
NtRp2460
(dp2461
g6
g1
(g7
g3
NtRp2462
(dp2463
g10
g1
(g11
g12
(dtRp2464
sg14
g1
(g11
g12
(dtRp2465
sg16
g1
(g11
g12
(dtRp2466
sg18
g1
(g11
g12
(dtRp2467
sg20
g1
(g11
g12
(dtRp2468
sg22
g1
(g11
g12
(dtRp2469
sbsg24
S'Cal'
p2470
sg26
g27
((lp2471
g29
ag30
aS'sequence'
p2472
ag32
ag33
aS'species'
p2473
atRp2474
sg37
(lp2475
sg120
g2388
sg121
S'RWLSTKDLYSRMELPGLNQNVHAMFVMPLGFGNPLGDMFARLNNSFWLPPLSLDGPGTGWTVYPPLSHSGASVDFAFHLTSSLLGAINFTNMRGPLFWTALLLLSLPVLVATLLDRNFNTFEGGDPLYHLFWFFGHPEVYMIPGFGSHSTYKKFGMYASIGLGFVWSHHMFVGLDDRAYFTSATMMAPTGIKFSWMATYGGYPMLAFLFLFTGGTGVINASDAFHDTYYIVHFHYVLSMGAFSLGYYYWPGLYNLFWFNFPMHFLGGMPRRPYPDAGWNSGSAYQLGPDESNEPH'
p2476
sg123
F0.40044000000000002
sg124
g125
sg33
S'36'
p2477
sg127
g1
(g128
g12
(dp2478
g130
I4
sg131
g132
sg133
g134
sg135
g132
sg136
I01
sg34
g137
sg138
g134
sg139
I0
sg140
I0
sg141
I0
sg142
g134
sg35
g143
sg144
I0
stRp2479
sg146
g147
sg148
F1
sg149
Nsg30
S'CalaiA'
p2480
sbasg120
g951
sg123
F0.080810000000000007
sg124
g125
sg33
S'153'
p2481
sg127
g1
(g128
g12
(dp2482
g130
I6
sg131
g132
sg133
g134
sg135
g132
sg136
I01
sg34
g173
sg138
g134
sg139
I0
sg140
I0
sg141
I0
sg142
g134
sg35
g174
sg144
I0
stRp2483
sg146
g147
sg148
F0.98999999999999999
sg149
Nsg30
S'NoName'
p2484
sbasg120
g689
sg123
F0.075389999999999999
sg124
g125
sg33
S'193'
p2485
sg127
g1
(g128
g12
(dp2486
g130
I6
sg131
g132
sg133
g134
sg135
g132
sg136
I01
sg34
g173
sg138
g134
sg139
I0
sg140
I0
sg141
I0
sg142
g134
sg35
g174
sg144
I0
stRp2487
sg146
g147
sg148
F0.94999999999999996
sg149
Nsg30
S'NoName'
p2488
sbasg120
g676
sg123
F1.2542500000000001
sg124
g125
sg33
S'144'
p2489
sg127
g1
(g128
g12
(dp2490
g130
I6
sg131
g132
sg133
g134
sg135
g132
sg136
I01
sg34
g173
sg138
g134
sg139
I0
sg140
I0
sg141
I0
sg142
g134
sg35
g174
sg144
I0
stRp2491
sg146
g147
sg148
F0.97999999999999998
sg149
Nsg30
S'NoName'
p2492
sbag1
(g2
g3
NtRp2493
(dp2494
g6
g1
(g7
g3
NtRp2495
(dp2496
g10
g1
(g11
g12
(dtRp2497
sg14
g1
(g11
g12
(dtRp2498
sg16
g1
(g11
g12
(dtRp2499
sg18
g1
(g11
g12
(dtRp2500
sg20
g1
(g11
g12
(dtRp2501
sg22
g1
(g11
g12
(dtRp2502
sbsg24
g25
sg26
g27
((lp2503
g33
ag32
ag29
ag30
atRp2504
sg37
(lp2505
g1
(g2
g3
NtRp2506
(dp2507
g6
g1
(g7
g3
NtRp2508
(dp2509
g10
g1
(g11
g12
(dtRp2510
sg14
g1
(g11
g12
(dtRp2511
sg16
g1
(g11
g12
(dtRp2512
sg18
g1
(g11
g12
(dtRp2513
sg20
g1
(g11
g12
(dtRp2514
sg22
g1
(g11
g12
(dtRp2515
sbsg24
g25
sg26
g27
((lp2516
g33
ag32
ag29
ag30
atRp2517
sg37
(lp2518
g1
(g2
g3
NtRp2519
(dp2520
g6
g1
(g7
g3
NtRp2521
(dp2522
g10
g1
(g11
g12
(dtRp2523
sg14
g1
(g11
g12
(dtRp2524
sg16
g1
(g11
g12
(dtRp2525
sg18
g1
(g11
g12
(dtRp2526
sg20
g1
(g11
g12
(dtRp2527
sg22
g1
(g11
g12
(dtRp2528
sbsg24
S'Ppa'
p2529
sg26
g27
((lp2530
g29
ag30
aS'sequence'
p2531
ag32
ag33
aS'species'
p2532
atRp2533
sg37
(lp2534
sg120
g2506
sg121
S'RWLSTKDLYSRLELPGLNQNVHAMFVMPAGFGNPMGDMFARLNNSFWLPPLSLEGAGTGWTVYPPLAHSGPSVDLAFHLTSSLLGAMNFTNMRGPLFWTSLLLLSLPVLAGTLLDRNFNTFEGGDPLYHLFWFFGHPEVYIMPGFGSHSTYKKFGMYASIGLGLVWSHHMYVGLDDRAYFTSATMMAPTGMKFSWLATYGGRPMLAFLFLFTGGSGVLNASDAFHDTYYVIHFHYVLSLGAFSLGYYYWPGLYNLFWFNFPMHFLGGMPRRPYPDAGWNSGSSYQLGPDESNDPH'
p2535
sg123
F0.16184999999999999
sg124
g125
sg33
S'118'
p2536
sg127
g1
(g128
g12
(dp2537
g130
I4
sg131
g132
sg133
g134
sg135
g132
sg136
I01
sg34
g137
sg138
g134
sg139
I0
sg140
I0
sg141
I0
sg142
g134
sg35
g143
sg144
I0
stRp2538
sg146
g147
sg148
F1
sg149
Nsg30
S'PpastA'
p2539
sbag1
(g2
g3
NtRp2540
(dp2541
g6
g1
(g7
g3
NtRp2542
(dp2543
g10
g1
(g11
g12
(dtRp2544
sg14
g1
(g11
g12
(dtRp2545
sg16
g1
(g11
g12
(dtRp2546
sg18
g1
(g11
g12
(dtRp2547
sg20
g1
(g11
g12
(dtRp2548
sg22
g1
(g11
g12
(dtRp2549
sbsg24
g25
sg26
g27
((lp2550
g33
ag32
ag29
ag30
atRp2551
sg37
(lp2552
g1
(g2
g3
NtRp2553
(dp2554
g6
g1
(g7
g3
NtRp2555
(dp2556
g10
g1
(g11
g12
(dtRp2557
sg14
g1
(g11
g12
(dtRp2558
sg16
g1
(g11
g12
(dtRp2559
sg18
g1
(g11
g12
(dtRp2560
sg20
g1
(g11
g12
(dtRp2561
sg22
g1
(g11
g12
(dtRp2562
sbsg24
S'Pta'
p2563
sg26
g27
((lp2564
g29
ag30
aS'sequence'
p2565
ag32
ag33
aS'species'
p2566
atRp2567
sg37
(lp2568
sg120
g2540
sg121
S'RWLSTKDLYSRLELPGLNQNVHAMFVMPAGFGNPMGDMFARLNNSFWLPPLSLEGAGTGWTVYPPLSHSGPSVDLAFHLTSSLLGGMNFTNMRGPLFWTSLLVLTLPVLAGTLLDRNFNTFEGGDPLYHLFWFFGHPEVYIIPGFGSHSAYKKFGMYASIGLGLVWSHHMYVGLDDRAYFTSATMIAPTGIKFSWLATYGGRPMLAFLFLFTGGSGVLNASDAFHDTYYVMHFHYVLSLGAFSLGYYYWPGLYNLFWFNFPMHFLGGMPRRPYPDAGFNSGSSYQLGPDESNEPH'
p2569
sg123
F0.23080999999999999
sg124
g125
sg33
S'130'
p2570
sg127
g1
(g128
g12
(dp2571
g130
I4
sg131
g132
sg133
g134
sg135
g132
sg136
I01
sg34
g137
sg138
g134
sg139
I0
sg140
I0
sg141
I0
sg142
g134
sg35
g143
sg144
I0
stRp2572
sg146
g147
sg148
F1
sg149
Nsg30
S'PtannA'
p2573
sbag1
(g2
g3
NtRp2574
(dp2575
g6
g1
(g7
g3
NtRp2576
(dp2577
g10
g1
(g11
g12
(dtRp2578
sg14
g1
(g11
g12
(dtRp2579
sg16
g1
(g11
g12
(dtRp2580
sg18
g1
(g11
g12
(dtRp2581
sg20
g1
(g11
g12
(dtRp2582
sg22
g1
(g11
g12
(dtRp2583
sbsg24
g25
sg26
g27
((lp2584
g33
ag32
ag29
ag30
atRp2585
sg37
(lp2586
g1
(g2
g3
NtRp2587
(dp2588
g6
g1
(g7
g3
NtRp2589
(dp2590
g10
g1
(g11
g12
(dtRp2591
sg14
g1
(g11
g12
(dtRp2592
sg16
g1
(g11
g12
(dtRp2593
sg18
g1
(g11
g12
(dtRp2594
sg20
g1
(g11
g12
(dtRp2595
sg22
g1
(g11
g12
(dtRp2596
sbsg24
g25
sg26
g27
((lp2597
g33
ag32
ag29
ag30
atRp2598
sg37
(lp2599
g1
(g2
g3
NtRp2600
(dp2601
g6
g1
(g7
g3
NtRp2602
(dp2603
g10
g1
(g11
g12
(dtRp2604
sg14
g1
(g11
g12
(dtRp2605
sg16
g1
(g11
g12
(dtRp2606
sg18
g1
(g11
g12
(dtRp2607
sg20
g1
(g11
g12
(dtRp2608
sg22
g1
(g11
g12
(dtRp2609
sbsg24
S'Pkl'
p2610
sg26
g27
((lp2611
g29
ag30
aS'sequence'
p2612
ag32
ag33
aS'species'
p2613
atRp2614
sg37
(lp2615
sg120
g2587
sg121
S'RWLSTKDLYSRLELPGLNQNVHAMFMMPTGFGNPMGDMFARLNNSFWLPPLSLEGPGTGWTVYPPLSHSGPSVDLAFHLTSSLLGAMNFTNMRGPLFWTALLVMTLPVLAGTLLDRNFNTFEGGDPLYHLFWFFGHPEVYMMPGFGSHSTYKKFGMYASMGLGLVWSHHMYVGLDDRAYFTSATMMAPTGMKFSWLATYGGRPMLAFMFIFTGGSGVLNASDAFHDTYYVMHFHYVLSLGAFAMGYYYWPGLFNLFWFNFPMHFLGGMPRRPYPDAGFNSGASYQLGPDESNEPH'
p2616
sg123
F0.12625
sg124
g125
sg33
S'13'
p2617
sg127
g1
(g128
g12
(dp2618
g130
I4
sg131
g132
sg133
g134
sg135
g132
sg136
I01
sg34
g137
sg138
g134
sg139
I0
sg140
I0
sg141
I0
sg142
g134
sg35
g143
sg144
I0
stRp2619
sg146
g147
sg148
F1
sg149
Nsg30
S'PkluyA'
p2620
sbag1
(g2
g3
NtRp2621
(dp2622
g6
g1
(g7
g3
NtRp2623
(dp2624
g10
g1
(g11
g12
(dtRp2625
sg14
g1
(g11
g12
(dtRp2626
sg16
g1
(g11
g12
(dtRp2627
sg18
g1
(g11
g12
(dtRp2628
sg20
g1
(g11
g12
(dtRp2629
sg22
g1
(g11
g12
(dtRp2630
sbsg24
S'Bcu'
p2631
sg26
g27
((lp2632
g29
ag30
aS'sequence'
p2633
ag32
ag33
aS'species'
p2634
atRp2635
sg37
(lp2636
sg120
g2587
sg121
S'RWLSTKDLYSRLELPGLDQNVHSMFMMPTGFGNPMGDMFARLNNAFWYPPLSLEGPGTGWTVYPPLSHSGPSMDLAFHLTSSMLSSMNFTNMRGPLFWTALLMMTLPVLAGTLLDRNFNTFEGGDPLYHLYWFFGHPEVYIIPVFGSHSNYKKFGMYASMGLGLVWSHHMYVGLDDRAYFTSATMIAPTGIKFSWLATYGGRPMLAFLFMFTGGSGVLNASDAFHDTYFVVHFHYVLSLGVYGVGYYFWPGLYNMFWFNFPMHFLGGMPRRPYPDAGFNSGSAYQLGPDESNEPH'
p2637
sg123
F0.30854999999999999
sg124
g125
sg33
S'185'
p2638
sg127
g1
(g128
g12
(dp2639
g130
I4
sg131
g132
sg133
g134
sg135
g132
sg136
I01
sg34
g137
sg138
g134
sg139
I0
sg140
I0
sg141
I0
sg142
g134
sg35
g143
sg144
I0
stRp2640
sg146
g147
sg148
F1
sg149
Nsg30
S'BcustA'
p2641
sbasg120
g2574
sg123
F0.19120999999999999
sg124
g125
sg33
S'81'
p2642
sg127
g1
(g128
g12
(dp2643
g130
I6
sg131
g132
sg133
g134
sg135
g132
sg136
I01
sg34
g173
sg138
g134
sg139
I0
sg140
I0
sg141
I0
sg142
g134
sg35
g174
sg144
I0
stRp2644
sg146
g147
sg148
F0.98999999999999999
sg149
Nsg30
S'NoName'
p2645
sbag1
(g2
g3
NtRp2646
(dp2647
g6
g1
(g7
g3
NtRp2648
(dp2649
g10
g1
(g11
g12
(dtRp2650
sg14
g1
(g11
g12
(dtRp2651
sg16
g1
(g11
g12
(dtRp2652
sg18
g1
(g11
g12
(dtRp2653
sg20
g1
(g11
g12
(dtRp2654
sg22
g1
(g11
g12
(dtRp2655
sbsg24
S'Oan'
p2656
sg26
g27
((lp2657
g29
ag30
aS'sequence'
p2658
ag32
ag33
aS'species'
p2659
atRp2660
sg37
(lp2661
sg120
g2574
sg121
S'RWLSTKDLYSRLELPGLNQNAHAMFVMPAGFGNPMGDMFARLNNSFWLPPLSLEGAGTGWTVYPPLSHSGPSVDLAFHLTSSLLGAINFTNMRGPLFWTALLLLSLPVLAGTLLDRNFNTFEGGDPLYHLFWFFGHPEVYIIPGFGSHSTYKKFGMYASIGLGLVWSHHMYVGLDDRAYFTSATMIAPTGIKFSWIATYGGRPMLAFLFLFTGGSGVLNASDAFHDTYYVIHFHYVLSLGAFSLGYYYWPGLYNLFWFNFPMHFLGGMPRRPYPDAGYNSGSSYQLGPDESNEPH'
p2662
sg123
F0.025399999999999999
sg124
g125
sg33
S'132'
p2663
sg127
g1
(g128
g12
(dp2664
g130
I4
sg131
g132
sg133
g134
sg135
g132
sg136
I01
sg34
g137
sg138
g134
sg139
I0
sg140
I0
sg141
I0
sg142
g134
sg35
g143
sg144
I0
stRp2665
sg146
g147
sg148
F1
sg149
Nsg30
S'OanguA'
p2666
sbasg120
g2540
sg123
F0.33273999999999998
sg124
g125
sg33
S'192'
p2667
sg127
g1
(g128
g12
(dp2668
g130
I6
sg131
g132
sg133
g134
sg135
g132
sg136
I01
sg34
g173
sg138
g134
sg139
I0
sg140
I0
sg141
I0
sg142
g134
sg35
g174
sg144
I0
stRp2669
sg146
g147
sg148
F0.98999999999999999
sg149
Nsg30
S'NoName'
p2670
sbasg120
g2506
sg123
F0.054379999999999998
sg124
g125
sg33
S'35'
p2671
sg127
g1
(g128
g12
(dp2672
g130
I6
sg131
g132
sg133
g134
sg135
g132
sg136
I01
sg34
g173
sg138
g134
sg139
I0
sg140
I0
sg141
I0
sg142
g134
sg35
g174
sg144
I0
stRp2673
sg146
g147
sg148
F0.96999999999999997
sg149
Nsg30
S'NoName'
p2674
sbasg120
g2493
sg123
F0.76378000000000001
sg124
g125
sg33
S'63'
p2675
sg127
g1
(g128
g12
(dp2676
g130
I6
sg131
g132
sg133
g134
sg135
g132
sg136
I01
sg34
g173
sg138
g134
sg139
I0
sg140
I0
sg141
I0
sg142
g134
sg35
g174
sg144
I0
stRp2677
sg146
g147
sg148
F0.98999999999999999
sg149
Nsg30
S'NoName'
p2678
sbag1
(g2
g3
NtRp2679
(dp2680
g6
g1
(g7
g3
NtRp2681
(dp2682
g10
g1
(g11
g12
(dtRp2683
sg14
g1
(g11
g12
(dtRp2684
sg16
g1
(g11
g12
(dtRp2685
sg18
g1
(g11
g12
(dtRp2686
sg20
g1
(g11
g12
(dtRp2687
sg22
g1
(g11
g12
(dtRp2688
sbsg24
g25
sg26
g27
((lp2689
g33
ag32
ag29
ag30
atRp2690
sg37
(lp2691
g1
(g2
g3
NtRp2692
(dp2693
g6
g1
(g7
g3
NtRp2694
(dp2695
g10
g1
(g11
g12
(dtRp2696
sg14
g1
(g11
g12
(dtRp2697
sg16
g1
(g11
g12
(dtRp2698
sg18
g1
(g11
g12
(dtRp2699
sg20
g1
(g11
g12
(dtRp2700
sg22
g1
(g11
g12
(dtRp2701
sbsg24
g25
sg26
g27
((lp2702
g33
ag32
ag29
ag30
atRp2703
sg37
(lp2704
g1
(g2
g3
NtRp2705
(dp2706
g6
g1
(g7
g3
NtRp2707
(dp2708
g10
g1
(g11
g12
(dtRp2709
sg14
g1
(g11
g12
(dtRp2710
sg16
g1
(g11
g12
(dtRp2711
sg18
g1
(g11
g12
(dtRp2712
sg20
g1
(g11
g12
(dtRp2713
sg22
g1
(g11
g12
(dtRp2714
sbsg24
g25
sg26
g27
((lp2715
g33
ag32
ag29
ag30
atRp2716
sg37
(lp2717
g1
(g2
g3
NtRp2718
(dp2719
g6
g1
(g7
g3
NtRp2720
(dp2721
g10
g1
(g11
g12
(dtRp2722
sg14
g1
(g11
g12
(dtRp2723
sg16
g1
(g11
g12
(dtRp2724
sg18
g1
(g11
g12
(dtRp2725
sg20
g1
(g11
g12
(dtRp2726
sg22
g1
(g11
g12
(dtRp2727
sbsg24
g25
sg26
g27
((lp2728
g33
ag32
ag29
ag30
atRp2729
sg37
(lp2730
g1
(g2
g3
NtRp2731
(dp2732
g6
g1
(g7
g3
NtRp2733
(dp2734
g10
g1
(g11
g12
(dtRp2735
sg14
g1
(g11
g12
(dtRp2736
sg16
g1
(g11
g12
(dtRp2737
sg18
g1
(g11
g12
(dtRp2738
sg20
g1
(g11
g12
(dtRp2739
sg22
g1
(g11
g12
(dtRp2740
sbsg24
S'Cva'
p2741
sg26
g27
((lp2742
g29
ag30
aS'sequence'
p2743
ag32
ag33
aS'species'
p2744
atRp2745
sg37
(lp2746
sg120
g2718
sg121
S'RWLSTKDLYSRLELPGLNQNVHAMFVMPLGFGNPLGDMFARLNNSFWLPPLSLEGAGTGWTIYPPLSHSSPSVDLGFHLTSSLLGAINFTNMRGPLFWTAMLLLSLPVLAGTLLDRNFNTFEGGDPLYHLFWFFGHPEVYIIPGFGSHSTYKKFGMYASIALGFVWSHHMYVGLDDRAYFTSSTMIAPTGIKFSWLATYGGRPMLAFLFLFTGGTGVLNASDAFHDTYYVVHFHYVLSMGAFSLGYYYWPGLYNLFWFNFPMHFLGGMPRRPYPDAGWNSGSSYQLGPDESNEPH'
p2747
sg123
F0.043270000000000003
sg124
g125
sg33
S'194'
p2748
sg127
g1
(g128
g12
(dp2749
g130
I4
sg131
g132
sg133
g134
sg135
g132
sg136
I01
sg34
g137
sg138
g134
sg139
I0
sg140
I0
sg141
I0
sg142
g134
sg35
g143
sg144
I0
stRp2750
sg146
g147
sg148
F1
sg149
Nsg30
S'CvartA'
p2751
sbag1
(g2
g3
NtRp2752
(dp2753
g6
g1
(g7
g3
NtRp2754
(dp2755
g10
g1
(g11
g12
(dtRp2756
sg14
g1
(g11
g12
(dtRp2757
sg16
g1
(g11
g12
(dtRp2758
sg18
g1
(g11
g12
(dtRp2759
sg20
g1
(g11
g12
(dtRp2760
sg22
g1
(g11
g12
(dtRp2761
sbsg24
g25
sg26
g27
((lp2762
g33
ag32
ag29
ag30
atRp2763
sg37
(lp2764
g1
(g2
g3
NtRp2765
(dp2766
g6
g1
(g7
g3
NtRp2767
(dp2768
g10
g1
(g11
g12
(dtRp2769
sg14
g1
(g11
g12
(dtRp2770
sg16
g1
(g11
g12
(dtRp2771
sg18
g1
(g11
g12
(dtRp2772
sg20
g1
(g11
g12
(dtRp2773
sg22
g1
(g11
g12
(dtRp2774
sbsg24
S'Csu'
p2775
sg26
g27
((lp2776
g29
ag30
aS'sequence'
p2777
ag32
ag33
aS'species'
p2778
atRp2779
sg37
(lp2780
sg120
g2752
sg121
S'RWLSTKDLYSRLELPGLNQNVHAMFVMPLGFGNPLGDMFARLNNSFWLPPLSLEGAGTGWTIYPPLSHSSPSVDLGFHLTSSMLGAINFTNMRGPLFWTAMLLLSLPVLAGTLLDRNFNTFEGGDPLYHLFWFFGHPEVYIIPGFGSHSTYKKFGMYASIALGFVWSHHMYVGLDDRAYFTSSTMIAPTGIKFSWLATYGGRPMLAFLFLFTGGTGVLNASDAFHDSYYY-HFHYVLSMGAFSLGYYYWPGLYNLFWFNFPMHFLGGMPRRPYPDAGWNSGSSYQLGPDESNEPH'
p2781
sg123
F0.0043699999999999998
sg124
g125
sg33
S'191'
p2782
sg127
g1
(g128
g12
(dp2783
g130
I4
sg131
g132
sg133
g134
sg135
g132
sg136
I01
sg34
g137
sg138
g134
sg139
I0
sg140
I0
sg141
I0
sg142
g134
sg35
g143
sg144
I0
stRp2784
sg146
g147
sg148
F1
sg149
Nsg30
S'CsuavB'
p2785
sbag1
(g2
g3
NtRp2786
(dp2787
g6
g1
(g7
g3
NtRp2788
(dp2789
g10
g1
(g11
g12
(dtRp2790
sg14
g1
(g11
g12
(dtRp2791
sg16
g1
(g11
g12
(dtRp2792
sg18
g1
(g11
g12
(dtRp2793
sg20
g1
(g11
g12
(dtRp2794
sg22
g1
(g11
g12
(dtRp2795
sbsg24
S'Csu'
p2796
sg26
g27
((lp2797
g29
ag30
aS'sequence'
p2798
ag32
ag33
aS'species'
p2799
atRp2800
sg37
(lp2801
sg120
g2752
sg121
S'RWLSTKDLYSRLELPGLNQNVHAMFVMPLGFGNPLGDMFARLNNSFWLPPLSLEGAGTGWTIYPPLSHSSPSVDLGFHLTSSLLGAINFTNMRGPLFWTAMLLLSLPVLAGTLLDRNFNTFEGGDPLYHLFWFFGHPEVYIIPGFGSHSTYKKFGMYASIALGFVWSHHMYVGLDDRAYFTSSTMIAPTGIKFSWLATYGGRPMLAFLFLFTGGTGVLNASDAFHDTYYVVHFHYVLSMGAFSLGYYYWPGLYNLFWFNFPMHFLGGMPRRPYPDAGWNSGSSYQLGPDESNEPH'
p2802
sg123
F0.0025999999999999999
sg124
g125
sg33
S'30'
p2803
sg127
g1
(g128
g12
(dp2804
g130
I4
sg131
g132
sg133
g134
sg135
g132
sg136
I01
sg34
g137
sg138
g134
sg139
I0
sg140
I0
sg141
I0
sg142
g134
sg35
g143
sg144
I0
stRp2805
sg146
g147
sg148
F1
sg149
Nsg30
S'CsuavA'
p2806
sbasg120
g2718
sg123
F0.016740000000000001
sg124
g125
sg33
S'135'
p2807
sg127
g1
(g128
g12
(dp2808
g130
I6
sg131
g132
sg133
g134
sg135
g132
sg136
I01
sg34
g173
sg138
g134
sg139
I0
sg140
I0
sg141
I0
sg142
g134
sg35
g174
sg144
I0
stRp2809
sg146
g147
sg148
F0.98999999999999999
sg149
Nsg30
S'NoName'
p2810
sbasg120
g2705
sg123
F0.01158
sg124
g125
sg33
S'75'
p2811
sg127
g1
(g128
g12
(dp2812
g130
I6
sg131
g132
sg133
g134
sg135
g132
sg136
I01
sg34
g173
sg138
g134
sg139
I0
sg140
I0
sg141
I0
sg142
g134
sg35
g174
sg144
I0
stRp2813
sg146
g147
sg148
F0.97999999999999998
sg149
Nsg30
S'NoName'
p2814
sbag1
(g2
g3
NtRp2815
(dp2816
g6
g1
(g7
g3
NtRp2817
(dp2818
g10
g1
(g11
g12
(dtRp2819
sg14
g1
(g11
g12
(dtRp2820
sg16
g1
(g11
g12
(dtRp2821
sg18
g1
(g11
g12
(dtRp2822
sg20
g1
(g11
g12
(dtRp2823
sg22
g1
(g11
g12
(dtRp2824
sbsg24
S'Cja'
p2825
sg26
g27
((lp2826
g29
ag30
aS'sequence'
p2827
ag32
ag33
aS'species'
p2828
atRp2829
sg37
(lp2830
sg120
g2705
sg121
S'RWLSTKDLYSRLELPGLNQNVHAMFVMPLGFGNPLGDMFARLNNSFWLPPLSLEGAGTGWTIYPPLAHSSPSVDLGFHLTSSLLGAINFTNMRGPLFWTAMLLLSLPVLAGTLLDRNFNTFEGGDPLYHLFWFFGHPEVYIIPGFGSHSTYKKFGMYASIALGFVWSHHMYVGLDDRAYFTSSTMIAPTGIKFSWLATYGGRPMLAFLFLFTGGTGVLNASDAFHDTYYVVHFHYVLSMGAFSLGYYYWPGLYNLFWFNFPMHFLGGMPRRPYPDAGWNSGSSYQLGPDESNEPH'
p2831
sg123
F0.033799999999999997
sg124
g125
sg33
S'48'
p2832
sg127
g1
(g128
g12
(dp2833
g130
I4
sg131
g132
sg133
g134
sg135
g132
sg136
I01
sg34
g137
sg138
g134
sg139
I0
sg140
I0
sg141
I0
sg142
g134
sg35
g143
sg144
I0
stRp2834
sg146
g147
sg148
F1
sg149
Nsg30
S'CjadiA'
p2835
sbasg120
g2692
sg123
F0.10375
sg124
g125
sg33
S'91'
p2836
sg127
g1
(g128
g12
(dp2837
g130
I6
sg131
g132
sg133
g134
sg135
g132
sg136
I01
sg34
g173
sg138
g134
sg139
I0
sg140
I0
sg141
I0
sg142
g134
sg35
g174
sg144
I0
stRp2838
sg146
g147
sg148
F0.98999999999999999
sg149
Nsg30
S'NoName'
p2839
sbag1
(g2
g3
NtRp2840
(dp2841
g6
g1
(g7
g3
NtRp2842
(dp2843
g10
g1
(g11
g12
(dtRp2844
sg14
g1
(g11
g12
(dtRp2845
sg16
g1
(g11
g12
(dtRp2846
sg18
g1
(g11
g12
(dtRp2847
sg20
g1
(g11
g12
(dtRp2848
sg22
g1
(g11
g12
(dtRp2849
sbsg24
g25
sg26
g27
((lp2850
g33
ag32
ag29
ag30
atRp2851
sg37
(lp2852
g1
(g2
g3
NtRp2853
(dp2854
g6
g1
(g7
g3
NtRp2855
(dp2856
g10
g1
(g11
g12
(dtRp2857
sg14
g1
(g11
g12
(dtRp2858
sg16
g1
(g11
g12
(dtRp2859
sg18
g1
(g11
g12
(dtRp2860
sg20
g1
(g11
g12
(dtRp2861
sg22
g1
(g11
g12
(dtRp2862
sbsg24
g25
sg26
g27
((lp2863
g33
ag32
ag29
ag30
atRp2864
sg37
(lp2865
g1
(g2
g3
NtRp2866
(dp2867
g6
g1
(g7
g3
NtRp2868
(dp2869
g10
g1
(g11
g12
(dtRp2870
sg14
g1
(g11
g12
(dtRp2871
sg16
g1
(g11
g12
(dtRp2872
sg18
g1
(g11
g12
(dtRp2873
sg20
g1
(g11
g12
(dtRp2874
sg22
g1
(g11
g12
(dtRp2875
sbsg24
S'Wpi'
p2876
sg26
g27
((lp2877
g29
ag30
aS'sequence'
p2878
ag32
ag33
aS'species'
p2879
atRp2880
sg37
(lp2881
sg120
g2853
sg121
S'RWLSTKDLYSRLELPGLNQNVHAMFVMPLGFGNPLGDMFARLNNSFWLPPLSLEGAGTGWTIYPPLSHSSPSVDLGFHLTSSLLGAINFTNMRGPLFWTAMLLLSLPVLAGTLLDRNFNTFEGGDPLYHLFWFFGHPEVYIIPGFGSHSTYKKFGMYASIALGFVWSHHMYVGLDDRAYFTSSTMIAPTGIKFSWLATYGGRPMLAFLFLFTGGTGVLNASDAFHDTYYVVHFHYVLSMGAFSLGYYYWPGLYNLFWFNFPMHFLGGMPRRPYPDAGWNSGSSFQLGPDESNEPH'
p2882
sg123
F0.051209999999999999
sg124
g125
sg33
S'18'
p2883
sg127
g1
(g128
g12
(dp2884
g130
I4
sg131
g132
sg133
g134
sg135
g132
sg136
I01
sg34
g137
sg138
g134
sg139
I0
sg140
I0
sg141
I0
sg142
g134
sg35
g143
sg144
I0
stRp2885
sg146
g147
sg148
F1
sg149
Nsg30
S'WpijpA'
p2886
sbag1
(g2
g3
NtRp2887
(dp2888
g6
g1
(g7
g3
NtRp2889
(dp2890
g10
g1
(g11
g12
(dtRp2891
sg14
g1
(g11
g12
(dtRp2892
sg16
g1
(g11
g12
(dtRp2893
sg18
g1
(g11
g12
(dtRp2894
sg20
g1
(g11
g12
(dtRp2895
sg22
g1
(g11
g12
(dtRp2896
sbsg24
S'Wmu'
p2897
sg26
g27
((lp2898
g29
ag30
aS'sequence'
p2899
ag32
ag33
aS'species'
p2900
atRp2901
sg37
(lp2902
sg120
g2853
sg121
S'RWLSTKDLYSRLELPGLNQNVHAMFVMPLGFGNPLGDMFARLNNSFWLPPLSLEGAGTGWTIYPPLAHSSPSVDLGFHLTSSLLGAINFTNMRGPLFWTAMLLLSLPVLAGTLLDRNFNTFEGGDPLYHLFWFFGHPEVYIIPGFGSHSTYKKFGMYASIALGFVWSHHMYVGLDDRAYFTSSTMIAPTGIKFSWLATYGGRPMLAFLFLFTGGTGVLNASDAFHDTYYVVHFHYVLSMGAFSLGYYYWPGLYNLFWFNFPMHFLGGMPRRPYPDAGWNSGSSYQLGPDESNEPH'
p2903
sg123
F0.079170000000000004
sg124
g125
sg33
S'100'
p2904
sg127
g1
(g128
g12
(dp2905
g130
I4
sg131
g132
sg133
g134
sg135
g132
sg136
I01
sg34
g137
sg138
g134
sg139
I0
sg140
I0
sg141
I0
sg142
g134
sg35
g143
sg144
I0
stRp2906
sg146
g147
sg148
F1
sg149
Nsg30
S'WmucoA'
p2907
sbasg120
g2840
sg123
F0.14757000000000001
sg124
g125
sg33
S'77'
p2908
sg127
g1
(g128
g12
(dp2909
g130
I6
sg131
g132
sg133
g134
sg135
g132
sg136
I01
sg34
g173
sg138
g134
sg139
I0
sg140
I0
sg141
I0
sg142
g134
sg35
g174
sg144
I0
stRp2910
sg146
g147
sg148
F0.98999999999999999
sg149
Nsg30
S'NoName'
p2911
sbag1
(g2
g3
NtRp2912
(dp2913
g6
g1
(g7
g3
NtRp2914
(dp2915
g10
g1
(g11
g12
(dtRp2916
sg14
g1
(g11
g12
(dtRp2917
sg16
g1
(g11
g12
(dtRp2918
sg18
g1
(g11
g12
(dtRp2919
sg20
g1
(g11
g12
(dtRp2920
sg22
g1
(g11
g12
(dtRp2921
sbsg24
g25
sg26
g27
((lp2922
g33
ag32
ag29
ag30
atRp2923
sg37
(lp2924
g1
(g2
g3
NtRp2925
(dp2926
g6
g1
(g7
g3
NtRp2927
(dp2928
g10
g1
(g11
g12
(dtRp2929
sg14
g1
(g11
g12
(dtRp2930
sg16
g1
(g11
g12
(dtRp2931
sg18
g1
(g11
g12
(dtRp2932
sg20
g1
(g11
g12
(dtRp2933
sg22
g1
(g11
g12
(dtRp2934
sbsg24
S'Pca'
p2935
sg26
g27
((lp2936
g29
ag30
aS'sequence'
p2937
ag32
ag33
aS'species'
p2938
atRp2939
sg37
(lp2940
sg120
g2912
sg121
S'RWLSTKDLYSRLELPGLNQNVHAMFVMPLGFGNPLGDMFARLNNSFWLPPLSLEWAGTGWTIYPPLSHSSPSVDLGFHLTSSLLGAINFTNMRGPLFWTAMLLLSLPVLAGTLLDRNFNTFEGGDPLYHLFWFFGHPEVYIIPGFGSHSTYKKFGMYASIALGFVWSHHMYVGLDDRAYFTSSTMIAPTGIKFSWLATYGGRPMLAFLFLFTGGTGVLNASDAFHDTYYVVHFHYVLSMGAFSLGYYYWPGLFNLFWFNFPMHFLGGMPRRPYPDAGWNSGSSYQLGPDESNEPH'
p2941
sg123
F0.10655000000000001
sg124
g125
sg33
S'60'
p2942
sg127
g1
(g128
g12
(dp2943
g130
I4
sg131
g132
sg133
g134
sg135
g132
sg136
I01
sg34
g137
sg138
g134
sg139
I0
sg140
I0
sg141
I0
sg142
g134
sg35
g143
sg144
I0
stRp2944
sg146
g147
sg148
F1
sg149
Nsg30
S'PcanaA'
p2945
sbag1
(g2
g3
NtRp2946
(dp2947
g6
g1
(g7
g3
NtRp2948
(dp2949
g10
g1
(g11
g12
(dtRp2950
sg14
g1
(g11
g12
(dtRp2951
sg16
g1
(g11
g12
(dtRp2952
sg18
g1
(g11
g12
(dtRp2953
sg20
g1
(g11
g12
(dtRp2954
sg22
g1
(g11
g12
(dtRp2955
sbsg24
g25
sg26
g27
((lp2956
g33
ag32
ag29
ag30
atRp2957
sg37
(lp2958
g1
(g2
g3
NtRp2959
(dp2960
g6
g1
(g7
g3
NtRp2961
(dp2962
g10
g1
(g11
g12
(dtRp2963
sg14
g1
(g11
g12
(dtRp2964
sg16
g1
(g11
g12
(dtRp2965
sg18
g1
(g11
g12
(dtRp2966
sg20
g1
(g11
g12
(dtRp2967
sg22
g1
(g11
g12
(dtRp2968
sbsg24
S'Cno'
p2969
sg26
g27
((lp2970
g29
ag30
aS'sequence'
p2971
ag32
ag33
aS'species'
p2972
atRp2973
sg37
(lp2974
sg120
g2946
sg121
S'RWLSTKDLYSRLELPGLNQNVHAMFVMPLGFGNPLGDMFARLNNSFWLPPLSLEGAGTGWTIYPPLSHSSPSVDLGFHLTSSLLGAMNFTNMRGPLFWTAMLLLSLPVLAGTLLDRNFNTFEGGDPLYHLFWFFGHPEVYMIPGFGSHSTYKKFGMYASMALGFVWSHHMYVGLDDRAYFTSSTMMAPTGMKFSWLATYGGRPMLAFLFLFTGGTGVLNASDAFHDTYYVVHFHYVLSMGAFSLGYYYWPGLYNLFWFNFPMHFLGGMPRRPYPDAGWNSGSSYQLGPDESNEPH'
p2975
sg123
F0.059069999999999998
sg124
g125
sg33
S'219'
p2976
sg127
g1
(g128
g12
(dp2977
g130
I4
sg131
g132
sg133
g134
sg135
g132
sg136
I01
sg34
g137
sg138
g134
sg139
I0
sg140
I0
sg141
I0
sg142
g134
sg35
g143
sg144
I0
stRp2978
sg146
g147
sg148
F1
sg149
Nsg30
S'CnorvA'
p2979
sbag1
(g2
g3
NtRp2980
(dp2981
g6
g1
(g7
g3
NtRp2982
(dp2983
g10
g1
(g11
g12
(dtRp2984
sg14
g1
(g11
g12
(dtRp2985
sg16
g1
(g11
g12
(dtRp2986
sg18
g1
(g11
g12
(dtRp2987
sg20
g1
(g11
g12
(dtRp2988
sg22
g1
(g11
g12
(dtRp2989
sbsg24
S'Bca'
p2990
sg26
g27
((lp2991
g29
ag30
aS'sequence'
p2992
ag32
ag33
aS'species'
p2993
atRp2994
sg37
(lp2995
sg120
g2946
sg121
S'RWLSTKDLYSRLELPGLNQNVHAMFVMPLGFGNPLGDMFARLNNSFWLPPLSLEGAGTGWTIYPPLSHSSPSVDLGFHLTSSLLGAINFTNMRGPLFWTAMLLLSLPVLAGTLLDRNFNTFEGGDPLYHLFWFFGHPEVYIMPGFGSHSTYKKFGMYASIALGFVWSHHMYVGLDDRAYFTSSTMIAPTGIKFSWLATYGGRPMLAFLFLFTGGTGVLNASDAFHDTYYVVHFHYVLSMGAFSLGYYYWPGLYNLFWFNFPMHFLGGMPRRPYPDAGWNSGSSYQLGPDESNEPH'
p2996
sg123
F0.031899999999999998
sg124
g125
sg33
S'57'
p2997
sg127
g1
(g128
g12
(dp2998
g130
I4
sg131
g132
sg133
g134
sg135
g132
sg136
I01
sg34
g137
sg138
g134
sg139
I0
sg140
I0
sg141
I0
sg142
g134
sg35
g143
sg144
I0
stRp2999
sg146
g147
sg148
F1
sg149
Nsg30
S'BcaliA'
p3000
sbasg120
g2912
sg123
F0.09486
sg124
g125
sg33
S'86'
p3001
sg127
g1
(g128
g12
(dp3002
g130
I6
sg131
g132
sg133
g134
sg135
g132
sg136
I01
sg34
g173
sg138
g134
sg139
I0
sg140
I0
sg141
I0
sg142
g134
sg35
g174
sg144
I0
stRp3003
sg146
g147
sg148
F0.97999999999999998
sg149
Nsg30
S'NoName'
p3004
sbasg120
g2840
sg123
F0.054690000000000003
sg124
g125
sg33
S'215'
p3005
sg127
g1
(g128
g12
(dp3006
g130
I6
sg131
g132
sg133
g134
sg135
g132
sg136
I01
sg34
g173
sg138
g134
sg139
I0
sg140
I0
sg141
I0
sg142
g134
sg35
g174
sg144
I0
stRp3007
sg146
g147
sg148
F0.96999999999999997
sg149
Nsg30
S'NoName'
p3008
sbasg120
g2692
sg123
F0.051860000000000003
sg124
g125
sg33
S'212'
p3009
sg127
g1
(g128
g12
(dp3010
g130
I6
sg131
g132
sg133
g134
sg135
g132
sg136
I01
sg34
g173
sg138
g134
sg139
I0
sg140
I0
sg141
I0
sg142
g134
sg35
g174
sg144
I0
stRp3011
sg146
g147
sg148
F0.96999999999999997
sg149
Nsg30
S'NoName'
p3012
sbasg120
g2679
sg123
F0.52095999999999998
sg124
g125
sg33
S'43'
p3013
sg127
g1
(g128
g12
(dp3014
g130
I6
sg131
g132
sg133
g134
sg135
g132
sg136
I01
sg34
g173
sg138
g134
sg139
I0
sg140
I0
sg141
I0
sg142
g134
sg35
g174
sg144
I0
stRp3015
sg146
g147
sg148
F0.98999999999999999
sg149
Nsg30
S'NoName'
p3016
sbag1
(g2
g3
NtRp3017
(dp3018
g6
g1
(g7
g3
NtRp3019
(dp3020
g10
g1
(g11
g12
(dtRp3021
sg14
g1
(g11
g12
(dtRp3022
sg16
g1
(g11
g12
(dtRp3023
sg18
g1
(g11
g12
(dtRp3024
sg20
g1
(g11
g12
(dtRp3025
sg22
g1
(g11
g12
(dtRp3026
sbsg24
g25
sg26
g27
((lp3027
g33
ag32
ag29
ag30
atRp3028
sg37
(lp3029
g1
(g2
g3
NtRp3030
(dp3031
g6
g1
(g7
g3
NtRp3032
(dp3033
g10
g1
(g11
g12
(dtRp3034
sg14
g1
(g11
g12
(dtRp3035
sg16
g1
(g11
g12
(dtRp3036
sg18
g1
(g11
g12
(dtRp3037
sg20
g1
(g11
g12
(dtRp3038
sg22
g1
(g11
g12
(dtRp3039
sbsg24
g25
sg26
g27
((lp3040
g33
ag32
ag29
ag30
atRp3041
sg37
(lp3042
g1
(g2
g3
NtRp3043
(dp3044
g6
g1
(g7
g3
NtRp3045
(dp3046
g10
g1
(g11
g12
(dtRp3047
sg14
g1
(g11
g12
(dtRp3048
sg16
g1
(g11
g12
(dtRp3049
sg18
g1
(g11
g12
(dtRp3050
sg20
g1
(g11
g12
(dtRp3051
sg22
g1
(g11
g12
(dtRp3052
sbsg24
g25
sg26
g27
((lp3053
g33
ag32
ag29
ag30
atRp3054
sg37
(lp3055
g1
(g2
g3
NtRp3056
(dp3057
g6
g1
(g7
g3
NtRp3058
(dp3059
g10
g1
(g11
g12
(dtRp3060
sg14
g1
(g11
g12
(dtRp3061
sg16
g1
(g11
g12
(dtRp3062
sg18
g1
(g11
g12
(dtRp3063
sg20
g1
(g11
g12
(dtRp3064
sg22
g1
(g11
g12
(dtRp3065
sbsg24
g25
sg26
g27
((lp3066
g33
ag32
ag29
ag30
atRp3067
sg37
(lp3068
g1
(g2
g3
NtRp3069
(dp3070
g6
g1
(g7
g3
NtRp3071
(dp3072
g10
g1
(g11
g12
(dtRp3073
sg14
g1
(g11
g12
(dtRp3074
sg16
g1
(g11
g12
(dtRp3075
sg18
g1
(g11
g12
(dtRp3076
sg20
g1
(g11
g12
(dtRp3077
sg22
g1
(g11
g12
(dtRp3078
sbsg24
g25
sg26
g27
((lp3079
g33
ag32
ag29
ag30
atRp3080
sg37
(lp3081
g1
(g2
g3
NtRp3082
(dp3083
g6
g1
(g7
g3
NtRp3084
(dp3085
g10
g1
(g11
g12
(dtRp3086
sg14
g1
(g11
g12
(dtRp3087
sg16
g1
(g11
g12
(dtRp3088
sg18
g1
(g11
g12
(dtRp3089
sg20
g1
(g11
g12
(dtRp3090
sg22
g1
(g11
g12
(dtRp3091
sbsg24
g25
sg26
g27
((lp3092
g33
ag32
ag29
ag30
atRp3093
sg37
(lp3094
g1
(g2
g3
NtRp3095
(dp3096
g6
g1
(g7
g3
NtRp3097
(dp3098
g10
g1
(g11
g12
(dtRp3099
sg14
g1
(g11
g12
(dtRp3100
sg16
g1
(g11
g12
(dtRp3101
sg18
g1
(g11
g12
(dtRp3102
sg20
g1
(g11
g12
(dtRp3103
sg22
g1
(g11
g12
(dtRp3104
sbsg24
S'Lkl'
p3105
sg26
g27
((lp3106
g29
ag30
aS'sequence'
p3107
ag32
ag33
aS'species'
p3108
atRp3109
sg37
(lp3110
sg120
g3082
sg121
S'RWLSTKDLYSRLELPGLNQNVHAMFVMPLGFGNPMGDMFARLNNSFWLPPLSLEGAGTGWTVYPPLSHSGPSVDLAFHLTSSLLGAINFTNMRGPLFWTALLLLSLPVLAGTLLDRNFNTFEGGDPLYHLFWFFGHPEVYIIPGFGSHSTYKKFGMYASIGLGFVWSHHMYVGLDDRAYFLSATMIAPTGIKFSWLATYGGRPMLAFLFLFTGGTGVLNASDAFHDLYYVVHFHYVLSMGAFSLGYYYWPGLYNLFWFNFPMHFLGGMPRRPYPDAGWNSGSSYQLGPDESNEPH'
p3111
sg123
F0.00044999999999999999
sg124
g125
sg33
S'161'
p3112
sg127
g1
(g128
g12
(dp3113
g130
I4
sg131
g132
sg133
g134
sg135
g132
sg136
I01
sg34
g137
sg138
g134
sg139
I0
sg140
I0
sg141
I0
sg142
g134
sg35
g143
sg144
I0
stRp3114
sg146
g147
sg148
F1
sg149
Nsg30
S'LkluyE'
p3115
sbag1
(g2
g3
NtRp3116
(dp3117
g6
g1
(g7
g3
NtRp3118
(dp3119
g10
g1
(g11
g12
(dtRp3120
sg14
g1
(g11
g12
(dtRp3121
sg16
g1
(g11
g12
(dtRp3122
sg18
g1
(g11
g12
(dtRp3123
sg20
g1
(g11
g12
(dtRp3124
sg22
g1
(g11
g12
(dtRp3125
sbsg24
S'Lkl'
p3126
sg26
g27
((lp3127
g29
ag30
aS'sequence'
p3128
ag32
ag33
aS'species'
p3129
atRp3130
sg37
(lp3131
sg120
g3082
sg121
S'RWLSTKDLYSRLELPGLNQNVHAMFVMPLGFGNPMGDMFARLNNSFWLPPLSLEGAGTGWTVYPPLSHSGPSVDLAFHLTSSLLGAINFTNMRGPLFWTALLLLSLPVLAGTLLDRNFNTFEGGDPLYHLFWFFGHPEVYIIPGFGSHSTYKKFGMYASIGLGFVWSHHMYVGLDDRAYFLSATMIAPTGIKFSWLATYGGRPMLAFLFLFTGGTGVLNASDAFHDLYYVVHFHYVLSMGAFSLGYYYWPGLYNLFWFNFPMHFLGGMPRRPYPDAGWNSGSSYQLGPDESNEPH'
p3132
sg123
F0.0077400000000000004
sg124
g125
sg33
S'14'
p3133
sg127
g1
(g128
g12
(dp3134
g130
I4
sg131
g132
sg133
g134
sg135
g132
sg136
I01
sg34
g137
sg138
g134
sg139
I0
sg140
I0
sg141
I0
sg142
g134
sg35
g143
sg144
I0
stRp3135
sg146
g147
sg148
F1
sg149
Nsg30
S'LkluyD'
p3136
sbasg120
g3069
sg123
F0.0017099999999999999
sg124
g125
sg33
S'4'
sg127
g1
(g128
g12
(dp3137
g130
I6
sg131
g132
sg133
g134
sg135
g132
sg136
I01
sg34
g173
sg138
g134
sg139
I0
sg140
I0
sg141
I0
sg142
g134
sg35
g174
sg144
I0
stRp3138
sg146
g147
sg148
F0.56000000000000005
sg149
Nsg30
S'NoName'
p3139
sbag1
(g2
g3
NtRp3140
(dp3141
g6
g1
(g7
g3
NtRp3142
(dp3143
g10
g1
(g11
g12
(dtRp3144
sg14
g1
(g11
g12
(dtRp3145
sg16
g1
(g11
g12
(dtRp3146
sg18
g1
(g11
g12
(dtRp3147
sg20
g1
(g11
g12
(dtRp3148
sg22
g1
(g11
g12
(dtRp3149
sbsg24
g25
sg26
g27
((lp3150
g33
ag32
ag29
ag30
atRp3151
sg37
(lp3152
g1
(g2
g3
NtRp3153
(dp3154
g6
g1
(g7
g3
NtRp3155
(dp3156
g10
g1
(g11
g12
(dtRp3157
sg14
g1
(g11
g12
(dtRp3158
sg16
g1
(g11
g12
(dtRp3159
sg18
g1
(g11
g12
(dtRp3160
sg20
g1
(g11
g12
(dtRp3161
sg22
g1
(g11
g12
(dtRp3162
sbsg24
g25
sg26
g27
((lp3163
g33
ag32
ag29
ag30
atRp3164
sg37
(lp3165
g1
(g2
g3
NtRp3166
(dp3167
g6
g1
(g7
g3
NtRp3168
(dp3169
g10
g1
(g11
g12
(dtRp3170
sg14
g1
(g11
g12
(dtRp3171
sg16
g1
(g11
g12
(dtRp3172
sg18
g1
(g11
g12
(dtRp3173
sg20
g1
(g11
g12
(dtRp3174
sg22
g1
(g11
g12
(dtRp3175
sbsg24
g25
sg26
g27
((lp3176
g33
ag32
ag29
ag30
atRp3177
sg37
(lp3178
g1
(g2
g3
NtRp3179
(dp3180
g6
g1
(g7
g3
NtRp3181
(dp3182
g10
g1
(g11
g12
(dtRp3183
sg14
g1
(g11
g12
(dtRp3184
sg16
g1
(g11
g12
(dtRp3185
sg18
g1
(g11
g12
(dtRp3186
sg20
g1
(g11
g12
(dtRp3187
sg22
g1
(g11
g12
(dtRp3188
sbsg24
S'Lkl'
p3189
sg26
g27
((lp3190
g29
ag30
aS'sequence'
p3191
ag32
ag33
aS'species'
p3192
atRp3193
sg37
(lp3194
sg120
g3166
sg121
S'RWLSTKDLYSRLELPGLNQNVHAMFVMPLGFGNPMGDMFARLNNSFWLPPLSLEGAGTGWTVYPPLSHSGPSVDLAFHLTSSLLGAINFTNMRGPLFWTALLLLSLPVLAGTLLDRNFNTFEGGDPLYHLFWFFGHPEVYIIPGFGSHSTYKKFGMYASIGLGFVWSHHMYVGLDDRAYFLSATMIAPTGIKFSWLATYGGRPMLAFLFLFTGGTGVLNASDAFHDLYYVVHFHYVLSMGAFSLGYYYWPGLYNLFWFNFPMHFLGGMPRRPYPDAGWNSGSSYQLGPDESNEPH'
p3195
sg123
F0.00038999999999999999
sg124
g125
sg33
S'148'
p3196
sg127
g1
(g128
g12
(dp3197
g130
I4
sg131
g132
sg133
g134
sg135
g132
sg136
I01
sg34
g137
sg138
g134
sg139
I0
sg140
I0
sg141
I0
sg142
g134
sg35
g143
sg144
I0
stRp3198
sg146
g147
sg148
F1
sg149
Nsg30
S'LkluyF'
p3199
sbag1
(g2
g3
NtRp3200
(dp3201
g6
g1
(g7
g3
NtRp3202
(dp3203
g10
g1
(g11
g12
(dtRp3204
sg14
g1
(g11
g12
(dtRp3205
sg16
g1
(g11
g12
(dtRp3206
sg18
g1
(g11
g12
(dtRp3207
sg20
g1
(g11
g12
(dtRp3208
sg22
g1
(g11
g12
(dtRp3209
sbsg24
S'Lkl'
p3210
sg26
g27
((lp3211
g29
ag30
aS'sequence'
p3212
ag32
ag33
aS'species'
p3213
atRp3214
sg37
(lp3215
sg120
g3166
sg121
S'RWLSTKDLYSRLELPGLNQNVHAMFVMPLGFGNPMGDMFARLNNSFWLPPLSLEGAGTGWTVYPPLSHSGPSVDLAFHLTSSLLGAINFTNMRGPLFWTALLLLSLPVLAGTLLDRNFNTFEGGDPLYHLFWFFGHPEVYIIPGFGSHSTYKKFGMYASIGLGFVWSHHMYVGLDDRAYFLSATMIAPTGIKFSWLATYGGRPMLAFLFLFTGGTGVLNASDAFHDLYYVVHFHYVLSMGAFSLGYYYWPGLYNLFWFNFPMHFLGGMPRRPYPDAGWNSGSSYQLGPDESNEPH'
p3216
sg123
F0.00038000000000000002
sg124
g125
sg33
S'204'
p3217
sg127
g1
(g128
g12
(dp3218
g130
I4
sg131
g132
sg133
g134
sg135
g132
sg136
I01
sg34
g137
sg138
g134
sg139
I0
sg140
I0
sg141
I0
sg142
g134
sg35
g143
sg144
I0
stRp3219
sg146
g147
sg148
F1
sg149
Nsg30
S'LkluyC'
p3220
sbasg120
g3153
sg123
F1.0000000000000001e-05
sg124
g125
sg33
S'79'
p3221
sg127
g1
(g128
g12
(dp3222
g130
I6
sg131
g132
sg133
g134
sg135
g132
sg136
I01
sg34
g173
sg138
g134
sg139
I0
sg140
I0
sg141
I0
sg142
g134
sg35
g174
sg144
I0
stRp3223
sg146
g147
sg148
F1
sg149
Nsg30
S'NoName'
p3224
sbag1
(g2
g3
NtRp3225
(dp3226
g6
g1
(g7
g3
NtRp3227
(dp3228
g10
g1
(g11
g12
(dtRp3229
sg14
g1
(g11
g12
(dtRp3230
sg16
g1
(g11
g12
(dtRp3231
sg18
g1
(g11
g12
(dtRp3232
sg20
g1
(g11
g12
(dtRp3233
sg22
g1
(g11
g12
(dtRp3234
sbsg24
S'Lkl'
p3235
sg26
g27
((lp3236
g29
ag30
aS'sequence'
p3237
ag32
ag33
aS'species'
p3238
atRp3239
sg37
(lp3240
sg120
g3153
sg121
S'RWLSTKDLYSRLELPGLNQNVHAMFVMPLGFGNPMGDMFARLNNSFWLPPLSLEGAGTGWTVYPPLSHSGPSVDLAFHLTSSLLGAINFTNMRGPLFWTALLLLSLPVLAGTLLDRNFNTFEGGDPLYHLFWFFGHPEVYIIPGFGSHSTYKKFGMYASIGLGFVWSHHMYVGLDDRAYFLSATMIAPTGIKFSWLATYGGRPMLAFLFLFTGGTGVLNASDAFHDLYYVVHFHYVLSMGAFSLGYYYWPGLYNLFWFNFPMHFLGGMPRRPYPDAGWNSGSSYQLGPDESNEPH'
p3241
sg123
F0.00040999999999999999
sg124
g125
sg33
S'98'
p3242
sg127
g1
(g128
g12
(dp3243
g130
I4
sg131
g132
sg133
g134
sg135
g132
sg136
I01
sg34
g137
sg138
g134
sg139
I0
sg140
I0
sg141
I0
sg142
g134
sg35
g143
sg144
I0
stRp3244
sg146
g147
sg148
F1
sg149
Nsg30
S'LkluyB'
p3245
sbasg120
g3140
sg123
F1.0000000000000001e-05
sg124
g125
sg33
S'73'
p3246
sg127
g1
(g128
g12
(dp3247
g130
I6
sg131
g132
sg133
g134
sg135
g132
sg136
I01
sg34
g173
sg138
g134
sg139
I0
sg140
I0
sg141
I0
sg142
g134
sg35
g174
sg144
I0
stRp3248
sg146
g147
sg148
F1
sg149
Nsg30
S'NoName'
p3249
sbag1
(g2
g3
NtRp3250
(dp3251
g6
g1
(g7
g3
NtRp3252
(dp3253
g10
g1
(g11
g12
(dtRp3254
sg14
g1
(g11
g12
(dtRp3255
sg16
g1
(g11
g12
(dtRp3256
sg18
g1
(g11
g12
(dtRp3257
sg20
g1
(g11
g12
(dtRp3258
sg22
g1
(g11
g12
(dtRp3259
sbsg24
S'Lkl'
p3260
sg26
g27
((lp3261
g29
ag30
aS'sequence'
p3262
ag32
ag33
aS'species'
p3263
atRp3264
sg37
(lp3265
sg120
g3140
sg121
S'RWLSTKDLYSRLELPGLNQNVHAMFVMPLGFGNPMGDMFARLNNSFWLPPLSLEGAGTGWTVYPPLSHSGPSVDLAFHLTSSLLGAINFTNMRGPLFWTALLLLSLPVLAGTLLDRNFNTFEGGDPLYHLFWFFGHPEVYIIPGFGSHSTYKKFGMYASIGLGFVWSHHMYVGLDDRAYFLSATMIAPTGIKFSWLATYGGRPMLAFLFLFTGGTGVLNASDAFHDLYYVVHFHYVLSMGAFSLGYYYWPGLYNLFWFNFPMHFLGGMPRRPYPDAGWNSGSSYQLGPDESNEPH'
p3266
sg123
F0.00040999999999999999
sg124
g125
sg33
S'207'
p3267
sg127
g1
(g128
g12
(dp3268
g130
I4
sg131
g132
sg133
g134
sg135
g132
sg136
I01
sg34
g137
sg138
g134
sg139
I0
sg140
I0
sg141
I0
sg142
g134
sg35
g143
sg144
I0
stRp3269
sg146
g147
sg148
F1
sg149
Nsg30
S'LkluyA'
p3270
sbasg120
g3069
sg123
F0.0035300000000000002
sg124
g125
sg33
S'108'
p3271
sg127
g1
(g128
g12
(dp3272
g130
I6
sg131
g132
sg133
g134
sg135
g132
sg136
I01
sg34
g173
sg138
g134
sg139
I0
sg140
I0
sg141
I0
sg142
g134
sg35
g174
sg144
I0
stRp3273
sg146
g147
sg148
F0.91000000000000003
sg149
Nsg30
S'NoName'
p3274
sbasg120
g3056
sg123
F0.054280000000000002
sg124
g125
sg33
S'23'
p3275
sg127
g1
(g128
g12
(dp3276
g130
I6
sg131
g132
sg133
g134
sg135
g132
sg136
I01
sg34
g173
sg138
g134
sg139
I0
sg140
I0
sg141
I0
sg142
g134
sg35
g174
sg144
I0
stRp3277
sg146
g147
sg148
F0.98999999999999999
sg149
Nsg30
S'NoName'
p3278
sbag1
(g2
g3
NtRp3279
(dp3280
g6
g1
(g7
g3
NtRp3281
(dp3282
g10
g1
(g11
g12
(dtRp3283
sg14
g1
(g11
g12
(dtRp3284
sg16
g1
(g11
g12
(dtRp3285
sg18
g1
(g11
g12
(dtRp3286
sg20
g1
(g11
g12
(dtRp3287
sg22
g1
(g11
g12
(dtRp3288
sbsg24
g25
sg26
g27
((lp3289
g33
ag32
ag29
ag30
atRp3290
sg37
(lp3291
g1
(g2
g3
NtRp3292
(dp3293
g6
g1
(g7
g3
NtRp3294
(dp3295
g10
g1
(g11
g12
(dtRp3296
sg14
g1
(g11
g12
(dtRp3297
sg16
g1
(g11
g12
(dtRp3298
sg18
g1
(g11
g12
(dtRp3299
sg20
g1
(g11
g12
(dtRp3300
sg22
g1
(g11
g12
(dtRp3301
sbsg24
S'Lan'
p3302
sg26
g27
((lp3303
g29
ag30
aS'sequence'
p3304
ag32
ag33
aS'species'
p3305
atRp3306
sg37
(lp3307
sg120
g3279
sg121
S'RWLSTKDLYSRLELPGLNQNVHAMFVMPLGFGNPMGDMFARLNNSFWLPPLSLEGAGTGWTLYPPLSHSGPSVDLAFHLTSSLLGAINFTNMRGPLFWTALLLLSLPVLAGTVLDRNFNTFEGGDPLYHLFWFFGHPEVYIIPGFGSHSTYKKFGMYASIGLGFVWSHHMYVGLDDRAYFTSATMIAPTGIKFSWLALYGGRPMLAFLFLFTGGTGVLNASDAFHDTYYVVHFHYVLSMGAFSLGYYYWPGLYNLFWFNFPMHFLGGMPRRPYPDAGWNSGSSYQLGPDESNEPH'
p3308
sg123
F0.10922999999999999
sg124
g125
sg33
S'137'
p3309
sg127
g1
(g128
g12
(dp3310
g130
I4
sg131
g132
sg133
g134
sg135
g132
sg136
I01
sg34
g137
sg138
g134
sg139
I0
sg140
I0
sg141
I0
sg142
g134
sg35
g143
sg144
I0
stRp3311
sg146
g147
sg148
F1
sg149
Nsg30
S'LanspA'
p3312
sbag1
(g2
g3
NtRp3313
(dp3314
g6
g1
(g7
g3
NtRp3315
(dp3316
g10
g1
(g11
g12
(dtRp3317
sg14
g1
(g11
g12
(dtRp3318
sg16
g1
(g11
g12
(dtRp3319
sg18
g1
(g11
g12
(dtRp3320
sg20
g1
(g11
g12
(dtRp3321
sg22
g1
(g11
g12
(dtRp3322
sbsg24
g25
sg26
g27
((lp3323
g33
ag32
ag29
ag30
atRp3324
sg37
(lp3325
g1
(g2
g3
NtRp3326
(dp3327
g6
g1
(g7
g3
NtRp3328
(dp3329
g10
g1
(g11
g12
(dtRp3330
sg14
g1
(g11
g12
(dtRp3331
sg16
g1
(g11
g12
(dtRp3332
sg18
g1
(g11
g12
(dtRp3333
sg20
g1
(g11
g12
(dtRp3334
sg22
g1
(g11
g12
(dtRp3335
sbsg24
g25
sg26
g27
((lp3336
g33
ag32
ag29
ag30
atRp3337
sg37
(lp3338
g1
(g2
g3
NtRp3339
(dp3340
g6
g1
(g7
g3
NtRp3341
(dp3342
g10
g1
(g11
g12
(dtRp3343
sg14
g1
(g11
g12
(dtRp3344
sg16
g1
(g11
g12
(dtRp3345
sg18
g1
(g11
g12
(dtRp3346
sg20
g1
(g11
g12
(dtRp3347
sg22
g1
(g11
g12
(dtRp3348
sbsg24
S'Lno'
p3349
sg26
g27
((lp3350
g29
ag30
aS'sequence'
p3351
ag32
ag33
aS'species'
p3352
atRp3353
sg37
(lp3354
sg120
g3326
sg121
S'RWLSTKDLYSRLELPGLNQNVHAMFVMPLGFGNPMGDMFARLNNSFWLPPLSLEGAGTGWTIYPPLSHSGPSVDLAFHLTSSLLGAINFTNMRGPLFWTALLLLSLPVLAGTILDRNFNTFEGGDPLYHLFWFFGHPEVYIIPGFGSHSTYKKFGMYASIGLGFVWSHHMYVGLDDRAYFTSALMIAPTGIKFSWLALYGGRPMLAFLFLFTGGTGVLNASDAFHDTYYVVHFHYVLSMGAFSLGYYYWPGLYNLFWFNFPMHFLGGMPRRPYPDAGWNSGSSYQLGPDESNEPH'
p3355
sg123
F0.0075199999999999998
sg124
g125
sg33
S'21'
p3356
sg127
g1
(g128
g12
(dp3357
g130
I4
sg131
g132
sg133
g134
sg135
g132
sg136
I01
sg34
g137
sg138
g134
sg139
I0
sg140
I0
sg141
I0
sg142
g134
sg35
g143
sg144
I0
stRp3358
sg146
g147
sg148
F1
sg149
Nsg30
S'LnothA'
p3359
sbag1
(g2
g3
NtRp3360
(dp3361
g6
g1
(g7
g3
NtRp3362
(dp3363
g10
g1
(g11
g12
(dtRp3364
sg14
g1
(g11
g12
(dtRp3365
sg16
g1
(g11
g12
(dtRp3366
sg18
g1
(g11
g12
(dtRp3367
sg20
g1
(g11
g12
(dtRp3368
sg22
g1
(g11
g12
(dtRp3369
sbsg24
g25
sg26
g27
((lp3370
g33
ag32
ag29
ag30
atRp3371
sg37
(lp3372
g1
(g2
g3
NtRp3373
(dp3374
g6
g1
(g7
g3
NtRp3375
(dp3376
g10
g1
(g11
g12
(dtRp3377
sg14
g1
(g11
g12
(dtRp3378
sg16
g1
(g11
g12
(dtRp3379
sg18
g1
(g11
g12
(dtRp3380
sg20
g1
(g11
g12
(dtRp3381
sg22
g1
(g11
g12
(dtRp3382
sbsg24
S'Lda'
p3383
sg26
g27
((lp3384
g29
ag30
aS'sequence'
p3385
ag32
ag33
aS'species'
p3386
atRp3387
sg37
(lp3388
sg120
g3360
sg121
S'RWLSTKDLYSRLELPGLNQNVHAMFVMPLGFGNPMGDMFARLNNSFWLPPLSLEGAGTGWTVYPPLSHSGPSVDLAFHLTSSLLGAINFTNMRGPLFWTALLLLSLPVLAGTILDRNFNTFEGGDPLYHLFWFFGHPEVYIIPGFGSHSTYKKFGMYASIGLGFVWSHHMYVGLDDRAYFTSATMIAPTGIKFSWLALYGGRPMLAFLFLFTGGTGVLNASDAFHDTYYVVHFHYVLSMGAFSLGYYYWPGLYNLFWFNFPMHFLGGMPRRPYPDAGWNSGSSYQLGPDESNEPH'
p3389
sg123
F0.023539999999999998
sg124
g125
sg33
S'69'
p3390
sg127
g1
(g128
g12
(dp3391
g130
I4
sg131
g132
sg133
g134
sg135
g132
sg136
I01
sg34
g137
sg138
g134
sg139
I0
sg140
I0
sg141
I0
sg142
g134
sg35
g143
sg144
I0
stRp3392
sg146
g147
sg148
F1
sg149
Nsg30
S'LdasiA'
p3393
sbag1
(g2
g3
NtRp3394
(dp3395
g6
g1
(g7
g3
NtRp3396
(dp3397
g10
g1
(g11
g12
(dtRp3398
sg14
g1
(g11
g12
(dtRp3399
sg16
g1
(g11
g12
(dtRp3400
sg18
g1
(g11
g12
(dtRp3401
sg20
g1
(g11
g12
(dtRp3402
sg22
g1
(g11
g12
(dtRp3403
sbsg24
g25
sg26
g27
((lp3404
g33
ag32
ag29
ag30
atRp3405
sg37
(lp3406
g1
(g2
g3
NtRp3407
(dp3408
g6
g1
(g7
g3
NtRp3409
(dp3410
g10
g1
(g11
g12
(dtRp3411
sg14
g1
(g11
g12
(dtRp3412
sg16
g1
(g11
g12
(dtRp3413
sg18
g1
(g11
g12
(dtRp3414
sg20
g1
(g11
g12
(dtRp3415
sg22
g1
(g11
g12
(dtRp3416
sbsg24
S'Lme'
p3417
sg26
g27
((lp3418
g29
ag30
aS'sequence'
p3419
ag32
ag33
aS'species'
p3420
atRp3421
sg37
(lp3422
sg120
g3394
sg121
S'RWLSTKDLYSRLELPGLNQNVHAMFVMPLGFGNPMGDMFARLNNSFWLPPLSLEGAGTGWTVYPPLSHSGPSVDLAFHLTSSLLGAINFTNMRGPLFWTALLLLSLPVLAGTILDRNFNTFEGGDPLYHLFWFFGHPEVYIIPGFGSHSTYKKFGMYASIGLGFVWSHHMYVGLDDRAYFTSATMIAPTGIKFSWLALYGGRPMLAFLFLFTGGTGVLNASDAFHDTYYVVHFHYVLSMGAFSLGYYYWPGLYNLFWFNFPMHFLGGMPRRPYPDAGWNSGSSYQLGPDESNEPH'
p3423
sg123
F0.0050299999999999997
sg124
g125
sg33
S'68'
p3424
sg127
g1
(g128
g12
(dp3425
g130
I4
sg131
g132
sg133
g134
sg135
g132
sg136
I01
sg34
g137
sg138
g134
sg139
I0
sg140
I0
sg141
I0
sg142
g134
sg35
g143
sg144
I0
stRp3426
sg146
g147
sg148
F1
sg149
Nsg30
S'LmeyeA'
p3427
sbag1
(g2
g3
NtRp3428
(dp3429
g6
g1
(g7
g3
NtRp3430
(dp3431
g10
g1
(g11
g12
(dtRp3432
sg14
g1
(g11
g12
(dtRp3433
sg16
g1
(g11
g12
(dtRp3434
sg18
g1
(g11
g12
(dtRp3435
sg20
g1
(g11
g12
(dtRp3436
sg22
g1
(g11
g12
(dtRp3437
sbsg24
S'Lan'
p3438
sg26
g27
((lp3439
g29
ag30
aS'sequence'
p3440
ag32
ag33
aS'species'
p3441
atRp3442
sg37
(lp3443
sg120
g3394
sg121
S'RWLSTKDLYSRLELPGLNQNVHAMFVMPLGFGNPMGDMFARLNNSFWLPPLSLEGAGTGWTVYPPLSHSGPSVDLAFHLTSSLLGAINFTNMRGPLFWTALLLLSLPVLAGTILDRNFNTFEGGDPLYHLFWFFGHPEVYIIPGFGSHSTYKKFGMYASIGLGFVWSHHMYVGLDDRAYFTSALMIAPTGIKFSWLALYGGRPMLAFLFLFTGGTGVLNASDAFHDTYYVVHFHYVLSMGAFSLGYYYWPGLYNLFWFNFPMHFLGGMPRRPYPDAGWNSGSSYQLGPDESNEPH'
p3444
sg123
F0.012290000000000001
sg124
g125
sg33
S'164'
p3445
sg127
g1
(g128
g12
(dp3446
g130
I4
sg131
g132
sg133
g134
sg135
g132
sg136
I01
sg34
g137
sg138
g134
sg139
I0
sg140
I0
sg141
I0
sg142
g134
sg35
g143
sg144
I0
stRp3447
sg146
g147
sg148
F1
sg149
Nsg30
S'LanspB'
p3448
sbasg120
g3360
sg123
F0.012070000000000001
sg124
g125
sg33
S'116'
p3449
sg127
g1
(g128
g12
(dp3450
g130
I6
sg131
g132
sg133
g134
sg135
g132
sg136
I01
sg34
g173
sg138
g134
sg139
I0
sg140
I0
sg141
I0
sg142
g134
sg35
g174
sg144
I0
stRp3451
sg146
g147
sg148
F0.98999999999999999
sg149
Nsg30
S'NoName'
p3452
sbasg120
g3326
sg123
F0.0088199999999999997
sg124
g125
sg33
S'210'
p3453
sg127
g1
(g128
g12
(dp3454
g130
I6
sg131
g132
sg133
g134
sg135
g132
sg136
I01
sg34
g173
sg138
g134
sg139
I0
sg140
I0
sg141
I0
sg142
g134
sg35
g174
sg144
I0
stRp3455
sg146
g147
sg148
F0.95999999999999996
sg149
Nsg30
S'NoName'
p3456
sbasg120
g3313
sg123
F0.016570000000000001
sg124
g125
sg33
S'6'
sg127
g1
(g128
g12
(dp3457
g130
I6
sg131
g132
sg133
g134
sg135
g132
sg136
I01
sg34
g173
sg138
g134
sg139
I0
sg140
I0
sg141
I0
sg142
g134
sg35
g174
sg144
I0
stRp3458
sg146
g147
sg148
F0.94999999999999996
sg149
Nsg30
S'NoName'
p3459
sbag1
(g2
g3
NtRp3460
(dp3461
g6
g1
(g7
g3
NtRp3462
(dp3463
g10
g1
(g11
g12
(dtRp3464
sg14
g1
(g11
g12
(dtRp3465
sg16
g1
(g11
g12
(dtRp3466
sg18
g1
(g11
g12
(dtRp3467
sg20
g1
(g11
g12
(dtRp3468
sg22
g1
(g11
g12
(dtRp3469
sbsg24
S'Kth'
p3470
sg26
g27
((lp3471
g29
ag30
aS'sequence'
p3472
ag32
ag33
aS'species'
p3473
atRp3474
sg37
(lp3475
sg120
g3313
sg121
S'RWLSTKDLYSRLELPGLNQNVHAMFVMPLGFGNPMGDMFARLNNSFWLPPLSLEGAGTGWTVYPPLSHSGPSVDLAFHLTSSLLGAINFTNMRGPLFWTALLLLSLPVLAGTILDRNFNTFEGGDPLYHLFWFFGHPEVYIIPGFGSHSTYKKFGMYASIGLGFVWSHHMYVGLDDRAYFTSATMIAPTGIKFSWLALYGGRPMLAFLFLFTGGTGVLNASDAFHDTYYVVHFHYVLSMGAFSLGYYYWPGLYNLFWFNFPMHFLGGMPRRPYPDAGWNSGSSYQLGPDESNEPH'
p3476
sg123
F0.021499999999999998
sg124
g125
sg33
S'29'
p3477
sg127
g1
(g128
g12
(dp3478
g130
I4
sg131
g132
sg133
g134
sg135
g132
sg136
I01
sg34
g137
sg138
g134
sg139
I0
sg140
I0
sg141
I0
sg142
g134
sg35
g143
sg144
I0
stRp3479
sg146
g147
sg148
F1
sg149
Nsg30
S'KtherA'
p3480
sbasg120
g3279
sg123
F0.033250000000000002
sg124
g125
sg33
S'151'
p3481
sg127
g1
(g128
g12
(dp3482
g130
I6
sg131
g132
sg133
g134
sg135
g132
sg136
I01
sg34
g173
sg138
g134
sg139
I0
sg140
I0
sg141
I0
sg142
g134
sg35
g174
sg144
I0
stRp3483
sg146
g147
sg148
F0.93999999999999995
sg149
Nsg30
S'NoName'
p3484
sbasg120
g3056
sg123
F0.038859999999999999
sg124
g125
sg33
S'26'
p3485
sg127
g1
(g128
g12
(dp3486
g130
I6
sg131
g132
sg133
g134
sg135
g132
sg136
I01
sg34
g173
sg138
g134
sg139
I0
sg140
I0
sg141
I0
sg142
g134
sg35
g174
sg144
I0
stRp3487
sg146
g147
sg148
F0.92000000000000004
sg149
Nsg30
S'NoName'
p3488
sbasg120
g3043
sg123
F0.050380000000000001
sg124
g125
sg33
S'202'
p3489
sg127
g1
(g128
g12
(dp3490
g130
I6
sg131
g132
sg133
g134
sg135
g132
sg136
I01
sg34
g173
sg138
g134
sg139
I0
sg140
I0
sg141
I0
sg142
g134
sg35
g174
sg144
I0
stRp3491
sg146
g147
sg148
F0.89000000000000001
sg149
Nsg30
S'NoName'
p3492
sbag1
(g2
g3
NtRp3493
(dp3494
g6
g1
(g7
g3
NtRp3495
(dp3496
g10
g1
(g11
g12
(dtRp3497
sg14
g1
(g11
g12
(dtRp3498
sg16
g1
(g11
g12
(dtRp3499
sg18
g1
(g11
g12
(dtRp3500
sg20
g1
(g11
g12
(dtRp3501
sg22
g1
(g11
g12
(dtRp3502
sbsg24
g25
sg26
g27
((lp3503
g33
ag32
ag29
ag30
atRp3504
sg37
(lp3505
g1
(g2
g3
NtRp3506
(dp3507
g6
g1
(g7
g3
NtRp3508
(dp3509
g10
g1
(g11
g12
(dtRp3510
sg14
g1
(g11
g12
(dtRp3511
sg16
g1
(g11
g12
(dtRp3512
sg18
g1
(g11
g12
(dtRp3513
sg20
g1
(g11
g12
(dtRp3514
sg22
g1
(g11
g12
(dtRp3515
sbsg24
S'Kma'
p3516
sg26
g27
((lp3517
g29
ag30
aS'sequence'
p3518
ag32
ag33
aS'species'
p3519
atRp3520
sg37
(lp3521
sg120
g3493
sg121
S'RWLSTKDLYSRLELPGLNQNVHAMFVMPLGFGNPMGDMFARLNNSFWLPPLSLEGAGTGWTVYPPLSHSGPSVDLAFHLTSSLLGAINFTNMRGPLFWTALLLLSLPVLAGTLLDRNFNTFEGGDPLYHLFWFFGHPEVYIIPGFGSHSTYKKFGMYASIGLGFVWSHHMYVGLDDRAYFTSATMIAPTGIKFSWLATYGGRPMLAFLFLFTGGTGVLNASDAFHDTYYVVHFHYVLSMGAFSLGYYYWPGLYNLFWFNFPMHFLGGMPRRPYPDAGWNSGSSYQLGPDESNEPH'
p3522
sg123
F0.04018
sg124
g125
sg33
S'110'
p3523
sg127
g1
(g128
g12
(dp3524
g130
I4
sg131
g132
sg133
g134
sg135
g132
sg136
I01
sg34
g137
sg138
g134
sg139
I0
sg140
I0
sg141
I0
sg142
g134
sg35
g143
sg144
I0
stRp3525
sg146
g147
sg148
F1
sg149
Nsg30
S'KmarxA'
p3526
sbag1
(g2
g3
NtRp3527
(dp3528
g6
g1
(g7
g3
NtRp3529
(dp3530
g10
g1
(g11
g12
(dtRp3531
sg14
g1
(g11
g12
(dtRp3532
sg16
g1
(g11
g12
(dtRp3533
sg18
g1
(g11
g12
(dtRp3534
sg20
g1
(g11
g12
(dtRp3535
sg22
g1
(g11
g12
(dtRp3536
sbsg24
S'Kla'
p3537
sg26
g27
((lp3538
g29
ag30
aS'sequence'
p3539
ag32
ag33
aS'species'
p3540
atRp3541
sg37
(lp3542
sg120
g3493
sg121
S'RWLSTKDLYSRLELPGLNQNVHAMFVMPLGFGNPLGDMFARLNNSFWLPPLSLEGAGTGWTVYPPLSHSGPSVDLAFHLTSSLLGAINFTNMRGPLFWTALLLLSLPVLAGTLLDRNFNTFEGGDPLYHLFWFFGHPEVYIIPGFGSHSTYKKFGMYASIGLGFVWSHHMYVGLDDRAYFTSATMIAPTGIKFSWLATYGGRPMLAFLFLFTGGTGVLNASDAFHDTYYVVHFHYVLSMGAFSLGYYYWPGLYNLFWFNFPMHFLGGMPRRPYPDAGWNSGSSYQLGPDESNEPH'
p3543
sg123
F0.043529999999999999
sg124
g125
sg33
S'50'
p3544
sg127
g1
(g128
g12
(dp3545
g130
I4
sg131
g132
sg133
g134
sg135
g132
sg136
I01
sg34
g137
sg138
g134
sg139
I0
sg140
I0
sg141
I0
sg142
g134
sg35
g143
sg144
I0
stRp3546
sg146
g147
sg148
F1
sg149
Nsg30
S'KlactA'
p3547
sbasg120
g3043
sg123
F0.13938999999999999
sg124
g125
sg33
S'64'
p3548
sg127
g1
(g128
g12
(dp3549
g130
I6
sg131
g132
sg133
g134
sg135
g132
sg136
I01
sg34
g173
sg138
g134
sg139
I0
sg140
I0
sg141
I0
sg142
g134
sg35
g174
sg144
I0
stRp3550
sg146
g147
sg148
F0.98999999999999999
sg149
Nsg30
S'NoName'
p3551
sbasg120
g3030
sg123
F1.0000000000000001e-05
sg124
g125
sg33
S'200'
p3552
sg127
g1
(g128
g12
(dp3553
g130
I6
sg131
g132
sg133
g134
sg135
g132
sg136
I01
sg34
g173
sg138
g134
sg139
I0
sg140
I0
sg141
I0
sg142
g134
sg35
g174
sg144
I0
stRp3554
sg146
g147
sg148
F1
sg149
Nsg30
S'NoName'
p3555
sbag1
(g2
g3
NtRp3556
(dp3557
g6
g1
(g7
g3
NtRp3558
(dp3559
g10
g1
(g11
g12
(dtRp3560
sg14
g1
(g11
g12
(dtRp3561
sg16
g1
(g11
g12
(dtRp3562
sg18
g1
(g11
g12
(dtRp3563
sg20
g1
(g11
g12
(dtRp3564
sg22
g1
(g11
g12
(dtRp3565
sbsg24
g25
sg26
g27
((lp3566
g33
ag32
ag29
ag30
atRp3567
sg37
(lp3568
g1
(g2
g3
NtRp3569
(dp3570
g6
g1
(g7
g3
NtRp3571
(dp3572
g10
g1
(g11
g12
(dtRp3573
sg14
g1
(g11
g12
(dtRp3574
sg16
g1
(g11
g12
(dtRp3575
sg18
g1
(g11
g12
(dtRp3576
sg20
g1
(g11
g12
(dtRp3577
sg22
g1
(g11
g12
(dtRp3578
sbsg24
S'Huv'
p3579
sg26
g27
((lp3580
g29
ag30
aS'sequence'
p3581
ag32
ag33
aS'species'
p3582
atRp3583
sg37
(lp3584
sg120
g3556
sg121
S'-MITTKDLYSRLELSGINHNSHAMFIMPIGFGNPAGDMFPRLNNSFWLVPVSLEGAGTGWTVYYPLSHSSVSVDLVFHCLSSLLGAINFTNFL-SLFWLALLLLSLPVLVGTLLDRNFNLYEGGDPLYHLFWFFGHPEVYIIPAFGSMSAYSKFGMYASIGLGFVWVHHMFVGLDDRAYFTSATMIAPLGIKFSWLALIGGRPVLAFLVLFLGGTGVLNASDAFHDTYYVVHFHYVLSLGAFGIGYYYWPGLYNLFVVNFPMHYLGGMPRRSYPDSAWNTGASVQLGTDLLPEPH'
p3585
sg123
F3.9441199999999998
sg124
g125
sg33
S'96'
p3586
sg127
g1
(g128
g12
(dp3587
g130
I4
sg131
g132
sg133
g134
sg135
g132
sg136
I01
sg34
g137
sg138
g134
sg139
I0
sg140
I0
sg141
I0
sg142
g134
sg35
g143
sg144
I0
stRp3588
sg146
g147
sg148
F1
sg149
Nsg30
S'HuvarA'
p3589
sbag1
(g2
g3
NtRp3590
(dp3591
g6
g1
(g7
g3
NtRp3592
(dp3593
g10
g1
(g11
g12
(dtRp3594
sg14
g1
(g11
g12
(dtRp3595
sg16
g1
(g11
g12
(dtRp3596
sg18
g1
(g11
g12
(dtRp3597
sg20
g1
(g11
g12
(dtRp3598
sg22
g1
(g11
g12
(dtRp3599
sbsg24
g25
sg26
g27
((lp3600
g33
ag32
ag29
ag30
atRp3601
sg37
(lp3602
g1
(g2
g3
NtRp3603
(dp3604
g6
g1
(g7
g3
NtRp3605
(dp3606
g10
g1
(g11
g12
(dtRp3607
sg14
g1
(g11
g12
(dtRp3608
sg16
g1
(g11
g12
(dtRp3609
sg18
g1
(g11
g12
(dtRp3610
sg20
g1
(g11
g12
(dtRp3611
sg22
g1
(g11
g12
(dtRp3612
sbsg24
g25
sg26
g27
((lp3613
g33
ag32
ag29
ag30
atRp3614
sg37
(lp3615
g1
(g2
g3
NtRp3616
(dp3617
g6
g1
(g7
g3
NtRp3618
(dp3619
g10
g1
(g11
g12
(dtRp3620
sg14
g1
(g11
g12
(dtRp3621
sg16
g1
(g11
g12
(dtRp3622
sg18
g1
(g11
g12
(dtRp3623
sg20
g1
(g11
g12
(dtRp3624
sg22
g1
(g11
g12
(dtRp3625
sbsg24
g25
sg26
g27
((lp3626
g33
ag32
ag29
ag30
atRp3627
sg37
(lp3628
g1
(g2
g3
NtRp3629
(dp3630
g6
g1
(g7
g3
NtRp3631
(dp3632
g10
g1
(g11
g12
(dtRp3633
sg14
g1
(g11
g12
(dtRp3634
sg16
g1
(g11
g12
(dtRp3635
sg18
g1
(g11
g12
(dtRp3636
sg20
g1
(g11
g12
(dtRp3637
sg22
g1
(g11
g12
(dtRp3638
sbsg24
S'Sse'
p3639
sg26
g27
((lp3640
g29
ag30
aS'sequence'
p3641
ag32
ag33
aS'species'
p3642
atRp3643
sg37
(lp3644
sg120
g3616
sg121
S'RWLSTKDMYSRMELPGLNQNVHAMFAMPLGFGNPMGDMFPRINSGFWLPMLSLEGAGTGWTVYPPLSHSGPSVDLAFHLTSSLLGAINFTNMRGPLFWTALLLLSLPVLAGTLLDRNFNTFEGGDPFYHAFWFFGHPEVYIIPGFGSHSTYKKFGMYASIGLGFVWSHHMYVGLDDRAYFTSATMIAPTGIKFSWLALYGGRPMMAFLFLFTGGTGVLNASDAFHDTYYVVHFHYVLSMGAFSLGYYYWPGLYNLFWFNFPMHFLGGMPRRPYPDAGWNSGSSYQIGPDESNEPH'
p3645
sg123
F0.29805999999999999
sg124
g125
sg33
S'58'
p3646
sg127
g1
(g128
g12
(dp3647
g130
I4
sg131
g132
sg133
g134
sg135
g132
sg136
I01
sg34
g137
sg138
g134
sg139
I0
sg140
I0
sg141
I0
sg142
g134
sg35
g143
sg144
I0
stRp3648
sg146
g147
sg148
F1
sg149
Nsg30
S'SservA'
p3649
sbag1
(g2
g3
NtRp3650
(dp3651
g6
g1
(g7
g3
NtRp3652
(dp3653
g10
g1
(g11
g12
(dtRp3654
sg14
g1
(g11
g12
(dtRp3655
sg16
g1
(g11
g12
(dtRp3656
sg18
g1
(g11
g12
(dtRp3657
sg20
g1
(g11
g12
(dtRp3658
sg22
g1
(g11
g12
(dtRp3659
sbsg24
S'Sca'
p3660
sg26
g27
((lp3661
g29
ag30
aS'sequence'
p3662
ag32
ag33
aS'species'
p3663
atRp3664
sg37
(lp3665
sg120
g3616
sg121
S'RWLSTKDLYSRLELPGLNQNVHAMFVMPLGFGNPMGDTFPRINNGFWLPMLSLEGAGTGWTVYPPLAHSGPSVDLAFHMTSSLLGAINFTNMRGPLFWTALLLLTLPVLAGTLLDRNFNTFEGGDPLYHLFWFFGHPEVYIIPGFGSHSTYKKFGMYASIGLGLVWSHHMYVGLDDRAYFTSATMIAPTGIKFSWLATYGGRPMLAFLFLFTGGTGVLNASDAFHDLYYVVHFHYVLSMGAFSLGYYYWPGLYNLFWFNFPMHFLGGMPRRPYPDAGWNSGASYQLGPDESNEPH'
p3666
sg123
F0.30890000000000001
sg124
g125
sg33
S'198'
p3667
sg127
g1
(g128
g12
(dp3668
g130
I4
sg131
g132
sg133
g134
sg135
g132
sg136
I01
sg34
g137
sg138
g134
sg139
I0
sg140
I0
sg141
I0
sg142
g134
sg35
g143
sg144
I0
stRp3669
sg146
g147
sg148
F1
sg149
Nsg30
S'ScastA'
p3670
sbasg120
g3603
sg123
F0.072319999999999995
sg124
g125
sg33
S'85'
p3671
sg127
g1
(g128
g12
(dp3672
g130
I6
sg131
g132
sg133
g134
sg135
g132
sg136
I01
sg34
g173
sg138
g134
sg139
I0
sg140
I0
sg141
I0
sg142
g134
sg35
g174
sg144
I0
stRp3673
sg146
g147
sg148
F0.98999999999999999
sg149
Nsg30
S'NoName'
p3674
sbag1
(g2
g3
NtRp3675
(dp3676
g6
g1
(g7
g3
NtRp3677
(dp3678
g10
g1
(g11
g12
(dtRp3679
sg14
g1
(g11
g12
(dtRp3680
sg16
g1
(g11
g12
(dtRp3681
sg18
g1
(g11
g12
(dtRp3682
sg20
g1
(g11
g12
(dtRp3683
sg22
g1
(g11
g12
(dtRp3684
sbsg24
g25
sg26
g27
((lp3685
g33
ag32
ag29
ag30
atRp3686
sg37
(lp3687
g1
(g2
g3
NtRp3688
(dp3689
g6
g1
(g7
g3
NtRp3690
(dp3691
g10
g1
(g11
g12
(dtRp3692
sg14
g1
(g11
g12
(dtRp3693
sg16
g1
(g11
g12
(dtRp3694
sg18
g1
(g11
g12
(dtRp3695
sg20
g1
(g11
g12
(dtRp3696
sg22
g1
(g11
g12
(dtRp3697
sbsg24
S'Spa'
p3698
sg26
g27
((lp3699
g29
ag30
aS'sequence'
p3700
ag32
ag33
aS'species'
p3701
atRp3702
sg37
(lp3703
sg120
g3675
sg121
S'RWLSTKDLYSRLELPGLNQNVHAMFVMPLGFGNPMGDTFPRINNAFWLPMLSLEGAGTGWTVYPPLSHSGPSVDLAFHLTSSLLGAINFTNMRGPLFWTALLLLSLPVLAGTLLDRNFNTFEGGDPLYHLFWFFGHPEVYIIPGFGSHSTYKKFGMYASIGLGFVWSHHMYVGLDDRAYFLSATMIAPTGIKFSWLATYGGRPMLAFLFLFTGGTGVLNASDAFHDTYYVVHFHYVLSMGAFSLGYYYWPGLYNLFWFNFPMHFLGGMPRRPYPDAGWNSGSSYQLGPDESNEPH'
p3704
sg123
F0.029780000000000001
sg124
g125
sg33
S'90'
p3705
sg127
g1
(g128
g12
(dp3706
g130
I4
sg131
g132
sg133
g134
sg135
g132
sg136
I01
sg34
g137
sg138
g134
sg139
I0
sg140
I0
sg141
I0
sg142
g134
sg35
g143
sg144
I0
stRp3707
sg146
g147
sg148
F1
sg149
Nsg30
S'SpastA'
p3708
sbag1
(g2
g3
NtRp3709
(dp3710
g6
g1
(g7
g3
NtRp3711
(dp3712
g10
g1
(g11
g12
(dtRp3713
sg14
g1
(g11
g12
(dtRp3714
sg16
g1
(g11
g12
(dtRp3715
sg18
g1
(g11
g12
(dtRp3716
sg20
g1
(g11
g12
(dtRp3717
sg22
g1
(g11
g12
(dtRp3718
sbsg24
g25
sg26
g27
((lp3719
g33
ag32
ag29
ag30
atRp3720
sg37
(lp3721
g1
(g2
g3
NtRp3722
(dp3723
g6
g1
(g7
g3
NtRp3724
(dp3725
g10
g1
(g11
g12
(dtRp3726
sg14
g1
(g11
g12
(dtRp3727
sg16
g1
(g11
g12
(dtRp3728
sg18
g1
(g11
g12
(dtRp3729
sg20
g1
(g11
g12
(dtRp3730
sg22
g1
(g11
g12
(dtRp3731
sbsg24
g25
sg26
g27
((lp3732
g33
ag32
ag29
ag30
atRp3733
sg37
(lp3734
g1
(g2
g3
NtRp3735
(dp3736
g6
g1
(g7
g3
NtRp3737
(dp3738
g10
g1
(g11
g12
(dtRp3739
sg14
g1
(g11
g12
(dtRp3740
sg16
g1
(g11
g12
(dtRp3741
sg18
g1
(g11
g12
(dtRp3742
sg20
g1
(g11
g12
(dtRp3743
sg22
g1
(g11
g12
(dtRp3744
sbsg24
S'Sce'
p3745
sg26
g27
((lp3746
g29
ag30
aS'sequence'
p3747
ag32
ag33
aS'species'
p3748
atRp3749
sg37
(lp3750
sg120
g3722
sg121
S'RWLSTKDLYSRLELPGLNQNVHAMFVMPLGFGNPMGDTFPRINNAFWLPMLSLEGAGTGWTVYPPLSHSGPSVDLAFHLTSSLLGAINFTNMRGPLFWTALLLLSLPVLAGTLLDRNFNTFEGGDPLYHLFWFFGHPEVYIIPGFGSHSTYKKFGMYASIGLGFVWSHHMYVGLDDRAYFLSALMIAPTGIKFSWLALYGGRPMLAFLFLFTGGTGVLNASDAFHDTYYVVHFHYVLSMGAFSLGYYYWPGLYNLFWFNFPMHFLGGMPRRPYPDAGWNSGSSYQLGPDESNEPH'
p3751
sg123
F0.0038700000000000002
sg124
g125
sg33
S'170'
p3752
sg127
g1
(g128
g12
(dp3753
g130
I4
sg131
g132
sg133
g134
sg135
g132
sg136
I01
sg34
g137
sg138
g134
sg139
I0
sg140
I0
sg141
I0
sg142
g134
sg35
g143
sg144
I0
stRp3754
sg146
g147
sg148
F1
sg149
Nsg30
S'ScereD'
p3755
sbag1
(g2
g3
NtRp3756
(dp3757
g6
g1
(g7
g3
NtRp3758
(dp3759
g10
g1
(g11
g12
(dtRp3760
sg14
g1
(g11
g12
(dtRp3761
sg16
g1
(g11
g12
(dtRp3762
sg18
g1
(g11
g12
(dtRp3763
sg20
g1
(g11
g12
(dtRp3764
sg22
g1
(g11
g12
(dtRp3765
sbsg24
g25
sg26
g27
((lp3766
g33
ag32
ag29
ag30
atRp3767
sg37
(lp3768
g1
(g2
g3
NtRp3769
(dp3770
g6
g1
(g7
g3
NtRp3771
(dp3772
g10
g1
(g11
g12
(dtRp3773
sg14
g1
(g11
g12
(dtRp3774
sg16
g1
(g11
g12
(dtRp3775
sg18
g1
(g11
g12
(dtRp3776
sg20
g1
(g11
g12
(dtRp3777
sg22
g1
(g11
g12
(dtRp3778
sbsg24
S'Sce'
p3779
sg26
g27
((lp3780
g29
ag30
aS'sequence'
p3781
ag32
ag33
aS'species'
p3782
atRp3783
sg37
(lp3784
sg120
g3756
sg121
S'RWLSTKDLYSRLELPGLNQNVHAMFVMPLGFGNPMGDTFPRINNAFWLPMLSLEGAGTGWTVYPPLSHSGPSVDLAFHLTSSLLGAINFTNMRGPLFWTALLLLSLPVLAGTLLDRNFNTFEGGDPLYHLFWFFGHPEVYIIPGFGSHSTYKKFGMYASIGLGFVWSHHMYVGLDDRAYFLSALMIAPTGIKFSWLALYGGRPMLAFLFLFTGGTGVLNASDAFHDTYYVVHFHYVLSMGAFSLGYYYWPGLYNLFWFNFPMHFLGGMPRRPYPDAGWNSGSSYQLGPDESNEPH'
p3785
sg123
F0.0075900000000000004
sg124
g125
sg33
S'109'
p3786
sg127
g1
(g128
g12
(dp3787
g130
I4
sg131
g132
sg133
g134
sg135
g132
sg136
I01
sg34
g137
sg138
g134
sg139
I0
sg140
I0
sg141
I0
sg142
g134
sg35
g143
sg144
I0
stRp3788
sg146
g147
sg148
F1
sg149
Nsg30
S'ScereE'
p3789
sbag1
(g2
g3
NtRp3790
(dp3791
g6
g1
(g7
g3
NtRp3792
(dp3793
g10
g1
(g11
g12
(dtRp3794
sg14
g1
(g11
g12
(dtRp3795
sg16
g1
(g11
g12
(dtRp3796
sg18
g1
(g11
g12
(dtRp3797
sg20
g1
(g11
g12
(dtRp3798
sg22
g1
(g11
g12
(dtRp3799
sbsg24
g25
sg26
g27
((lp3800
g33
ag32
ag29
ag30
atRp3801
sg37
(lp3802
g1
(g2
g3
NtRp3803
(dp3804
g6
g1
(g7
g3
NtRp3805
(dp3806
g10
g1
(g11
g12
(dtRp3807
sg14
g1
(g11
g12
(dtRp3808
sg16
g1
(g11
g12
(dtRp3809
sg18
g1
(g11
g12
(dtRp3810
sg20
g1
(g11
g12
(dtRp3811
sg22
g1
(g11
g12
(dtRp3812
sbsg24
S'Sce'
p3813
sg26
g27
((lp3814
g29
ag30
aS'sequence'
p3815
ag32
ag33
aS'species'
p3816
atRp3817
sg37
(lp3818
sg120
g3790
sg121
S'RWLSTKDLYSRLELPGLNQNVHAMFVMPLGFGNPMGDTFPRINNAFWLPMLSLEGAGTGWTVYPPLSHSGPSVDLAFHLTSSLLGAINFTNMRGPLFWTALLLLSLPVLAGTLLDRNFNTFEGGDPLYHLFWFFGHPEVYIIPGFGSHSTYKKFGMYASIGLGFVWSHHMYVGLDDRAYFLSALMIAPTGIKFSWLALHGGRPMLAFLFLFTGGTGVLNASDAFHDTYYVVHFHYVLSMGAFSLGYYYWPGLYNLFWFNFPMHFLGGMPRRPYPDAGWNSGSSYQLGPDESNEPH'
p3819
sg123
F0.0053899999999999998
sg124
g125
sg33
S'44'
p3820
sg127
g1
(g128
g12
(dp3821
g130
I4
sg131
g132
sg133
g134
sg135
g132
sg136
I01
sg34
g137
sg138
g134
sg139
I0
sg140
I0
sg141
I0
sg142
g134
sg35
g143
sg144
I0
stRp3822
sg146
g147
sg148
F1
sg149
Nsg30
S'ScereC'
p3823
sbag1
(g2
g3
NtRp3824
(dp3825
g6
g1
(g7
g3
NtRp3826
(dp3827
g10
g1
(g11
g12
(dtRp3828
sg14
g1
(g11
g12
(dtRp3829
sg16
g1
(g11
g12
(dtRp3830
sg18
g1
(g11
g12
(dtRp3831
sg20
g1
(g11
g12
(dtRp3832
sg22
g1
(g11
g12
(dtRp3833
sbsg24
S'Sce'
p3834
sg26
g27
((lp3835
g29
ag30
aS'sequence'
p3836
ag32
ag33
aS'species'
p3837
atRp3838
sg37
(lp3839
sg120
g3790
sg121
S'RWLSTKDLYSRLELPGLNQNVHAMFVMPLGFGNPMGDTFPRINNAFWLPMLSLEGAGTGWTVYPPLSHSGPSVDLAFHLTSSLLGAINFTNMRGPLFWTALLLLSLPVLAGTLLDRNFNTFEGGDPLYHLFWFFGHPEVYIIPGFGSHSTYKKFGMYASIGLGFVWSHHMYVGLDDRAYFLSALMIAPTGIKFSWLALYGGRPMLAFLFLFTGGTGVLNASDAFHDTYYVVHFHYVLSMGAFSLGYYYWPGLYNLFWFNFPMHFLGGMPRRPYPDAGWNSGSSYQLGPDESNEPH'
p3840
sg123
F0.0066400000000000001
sg124
g125
sg33
S'38'
p3841
sg127
g1
(g128
g12
(dp3842
g130
I4
sg131
g132
sg133
g134
sg135
g132
sg136
I01
sg34
g137
sg138
g134
sg139
I0
sg140
I0
sg141
I0
sg142
g134
sg35
g143
sg144
I0
stRp3843
sg146
g147
sg148
F1
sg149
Nsg30
S'ScereA'
p3844
sbasg120
g3756
sg123
F0.00596
sg124
g125
sg33
S'196'
p3845
sg127
g1
(g128
g12
(dp3846
g130
I6
sg131
g132
sg133
g134
sg135
g132
sg136
I01
sg34
g173
sg138
g134
sg139
I0
sg140
I0
sg141
I0
sg142
g134
sg35
g174
sg144
I0
stRp3847
sg146
g147
sg148
F0.98999999999999999
sg149
Nsg30
S'NoName'
p3848
sbasg120
g3722
sg123
F0.0050600000000000003
sg124
g125
sg33
S'72'
p3849
sg127
g1
(g128
g12
(dp3850
g130
I6
sg131
g132
sg133
g134
sg135
g132
sg136
I01
sg34
g173
sg138
g134
sg139
I0
sg140
I0
sg141
I0
sg142
g134
sg35
g174
sg144
I0
stRp3851
sg146
g147
sg148
F0.66000000000000003
sg149
Nsg30
S'NoName'
p3852
sbasg120
g3709
sg123
F0.017850000000000001
sg124
g125
sg33
S'105'
p3853
sg127
g1
(g128
g12
(dp3854
g130
I6
sg131
g132
sg133
g134
sg135
g132
sg136
I01
sg34
g173
sg138
g134
sg139
I0
sg140
I0
sg141
I0
sg142
g134
sg35
g174
sg144
I0
stRp3855
sg146
g147
sg148
F0.89000000000000001
sg149
Nsg30
S'NoName'
p3856
sbag1
(g2
g3
NtRp3857
(dp3858
g6
g1
(g7
g3
NtRp3859
(dp3860
g10
g1
(g11
g12
(dtRp3861
sg14
g1
(g11
g12
(dtRp3862
sg16
g1
(g11
g12
(dtRp3863
sg18
g1
(g11
g12
(dtRp3864
sg20
g1
(g11
g12
(dtRp3865
sg22
g1
(g11
g12
(dtRp3866
sbsg24
S'Sar'
p3867
sg26
g27
((lp3868
g29
ag30
aS'sequence'
p3869
ag32
ag33
aS'species'
p3870
atRp3871
sg37
(lp3872
sg120
g3709
sg121
S'RWLSTKDLYSRLELPGLNQNVHAMFVMPLGFGNPMGDTFPRINNAFWLPMLSLEGAGTGWTVYPPLSHSGPSVDLAFHLTSSLLGAINFTNMRGPLFWTALLLLSLPVLAGTLLDRNFNTFEGGDPLYHLFWFFGHPEVYIIPGFGSHSTYKKFGMYASIGLGFVWSHHMYVGLDDRAYFLSALMIAPTGIKFSWLALYGGRPMLAFLFLFTGGTGVLNASDAFHDTYYVVHFHYVLSMGAFSLGYYYWPGLYNLFWFNFPMHFLGGMPRRPYPDAGWNSGSSYQLGPDESNEPH'
p3873
sg123
F0.047230000000000001
sg124
g125
sg33
S'83'
p3874
sg127
g1
(g128
g12
(dp3875
g130
I4
sg131
g132
sg133
g134
sg135
g132
sg136
I01
sg34
g137
sg138
g134
sg139
I0
sg140
I0
sg141
I0
sg142
g134
sg35
g143
sg144
I0
stRp3876
sg146
g147
sg148
F1
sg149
Nsg30
S'SarboA'
p3877
sbasg120
g3675
sg123
F0.023619999999999999
sg124
g125
sg33
S'92'
p3878
sg127
g1
(g128
g12
(dp3879
g130
I6
sg131
g132
sg133
g134
sg135
g132
sg136
I01
sg34
g173
sg138
g134
sg139
I0
sg140
I0
sg141
I0
sg142
g134
sg35
g174
sg144
I0
stRp3880
sg146
g147
sg148
F0.92000000000000004
sg149
Nsg30
S'NoName'
p3881
sbasg120
g3603
sg123
F0.18547
sg124
g125
sg33
S'88'
p3882
sg127
g1
(g128
g12
(dp3883
g130
I6
sg131
g132
sg133
g134
sg135
g132
sg136
I01
sg34
g173
sg138
g134
sg139
I0
sg140
I0
sg141
I0
sg142
g134
sg35
g174
sg144
I0
stRp3884
sg146
g147
sg148
F0.98999999999999999
sg149
Nsg30
S'NoName'
p3885
sbasg120
g3590
sg123
F0.03594
sg124
g125
sg33
S'59'
p3886
sg127
g1
(g128
g12
(dp3887
g130
I6
sg131
g132
sg133
g134
sg135
g132
sg136
I01
sg34
g173
sg138
g134
sg139
I0
sg140
I0
sg141
I0
sg142
g134
sg35
g174
sg144
I0
stRp3888
sg146
g147
sg148
F0.98999999999999999
sg149
Nsg30
S'NoName'
p3889
sbag1
(g2
g3
NtRp3890
(dp3891
g6
g1
(g7
g3
NtRp3892
(dp3893
g10
g1
(g11
g12
(dtRp3894
sg14
g1
(g11
g12
(dtRp3895
sg16
g1
(g11
g12
(dtRp3896
sg18
g1
(g11
g12
(dtRp3897
sg20
g1
(g11
g12
(dtRp3898
sg22
g1
(g11
g12
(dtRp3899
sbsg24
g25
sg26
g27
((lp3900
g33
ag32
ag29
ag30
atRp3901
sg37
(lp3902
g1
(g2
g3
NtRp3903
(dp3904
g6
g1
(g7
g3
NtRp3905
(dp3906
g10
g1
(g11
g12
(dtRp3907
sg14
g1
(g11
g12
(dtRp3908
sg16
g1
(g11
g12
(dtRp3909
sg18
g1
(g11
g12
(dtRp3910
sg20
g1
(g11
g12
(dtRp3911
sg22
g1
(g11
g12
(dtRp3912
sbsg24
g25
sg26
g27
((lp3913
g33
ag32
ag29
ag30
atRp3914
sg37
(lp3915
g1
(g2
g3
NtRp3916
(dp3917
g6
g1
(g7
g3
NtRp3918
(dp3919
g10
g1
(g11
g12
(dtRp3920
sg14
g1
(g11
g12
(dtRp3921
sg16
g1
(g11
g12
(dtRp3922
sg18
g1
(g11
g12
(dtRp3923
sg20
g1
(g11
g12
(dtRp3924
sg22
g1
(g11
g12
(dtRp3925
sbsg24
S'Nde'
p3926
sg26
g27
((lp3927
g29
ag30
aS'sequence'
p3928
ag32
ag33
aS'species'
p3929
atRp3930
sg37
(lp3931
sg120
g3903
sg121
S'RWLSTKDLYSRLELPGLNQNVHAMFVMPLGFGNPMGDMFPRLNNGFWIVPLSLEGAGTGWTVYPPLSHSGPSVDLAFHMTSSLLGAINFTNMRGPLFWTALLLLSLPVFAGTLLDRNFNTFEGGDPLYHLFWFFGHPEVYIIPGFGSHSTYKKFGMYASIGLGFVWSHHMYVGLDDRAYFTSATMIAPTGIKFSWLATYGGRPMLAFLFLFTGGTGVLNASDAFHDTYYVVHFHYVLSMGAFSTGYYYWPGLYNLFWFNFPMHFLGGMPRRPYPDAGWNSGSSYQFGPDESNEPH'
p3932
sg123
F0.063509999999999997
sg124
g125
sg33
S'216'
p3933
sg127
g1
(g128
g12
(dp3934
g130
I4
sg131
g132
sg133
g134
sg135
g132
sg136
I01
sg34
g137
sg138
g134
sg139
I0
sg140
I0
sg141
I0
sg142
g134
sg35
g143
sg144
I0
stRp3935
sg146
g147
sg148
F1
sg149
Nsg30
S'NdelpA'
p3936
sbag1
(g2
g3
NtRp3937
(dp3938
g6
g1
(g7
g3
NtRp3939
(dp3940
g10
g1
(g11
g12
(dtRp3941
sg14
g1
(g11
g12
(dtRp3942
sg16
g1
(g11
g12
(dtRp3943
sg18
g1
(g11
g12
(dtRp3944
sg20
g1
(g11
g12
(dtRp3945
sg22
g1
(g11
g12
(dtRp3946
sbsg24
S'Cgl'
p3947
sg26
g27
((lp3948
g29
ag30
aS'sequence'
p3949
ag32
ag33
aS'species'
p3950
atRp3951
sg37
(lp3952
sg120
g3903
sg121
S'RWLSTKDLYSRLELPGLNQNVHAMFVMPLGFGNPMGDMFPRLNNGFWIVPLSLEGAGTGWTVYPPLSHSGPSVDLAFHLTSSLLGSINFTNMRGPLFWTALLLLSLPVLAGTLLDRNFNTFEGGDPLYHLFWFFGHPEVYIIPGFGSHSTYKKFGMYASIGLGFVWSHHMYVGLDDRAYFTSATMIAPTGIKFSWLATYGGRPMLAFLFLFTGGTGVLNASDAFHDTYYVVHFHYVLSMGAFSTGYYYWPGLYNLFWFNFPMHFLGGMPRRPYPDAGWNSGSSYQFGPDESNEPH'
p3953
sg123
F0.03882
sg124
g125
sg33
S'40'
p3954
sg127
g1
(g128
g12
(dp3955
g130
I4
sg131
g132
sg133
g134
sg135
g132
sg136
I01
sg34
g137
sg138
g134
sg139
I0
sg140
I0
sg141
I0
sg142
g134
sg35
g143
sg144
I0
stRp3956
sg146
g147
sg148
F1
sg149
Nsg30
S'CglabA'
p3957
sbasg120
g3890
sg123
F0.16661999999999999
sg124
g125
sg33
S'125'
p3958
sg127
g1
(g128
g12
(dp3959
g130
I6
sg131
g132
sg133
g134
sg135
g132
sg136
I01
sg34
g173
sg138
g134
sg139
I0
sg140
I0
sg141
I0
sg142
g134
sg35
g174
sg144
I0
stRp3960
sg146
g147
sg148
F0.98999999999999999
sg149
Nsg30
S'NoName'
p3961
sbag1
(g2
g3
NtRp3962
(dp3963
g6
g1
(g7
g3
NtRp3964
(dp3965
g10
g1
(g11
g12
(dtRp3966
sg14
g1
(g11
g12
(dtRp3967
sg16
g1
(g11
g12
(dtRp3968
sg18
g1
(g11
g12
(dtRp3969
sg20
g1
(g11
g12
(dtRp3970
sg22
g1
(g11
g12
(dtRp3971
sbsg24
g25
sg26
g27
((lp3972
g33
ag32
ag29
ag30
atRp3973
sg37
(lp3974
g1
(g2
g3
NtRp3975
(dp3976
g6
g1
(g7
g3
NtRp3977
(dp3978
g10
g1
(g11
g12
(dtRp3979
sg14
g1
(g11
g12
(dtRp3980
sg16
g1
(g11
g12
(dtRp3981
sg18
g1
(g11
g12
(dtRp3982
sg20
g1
(g11
g12
(dtRp3983
sg22
g1
(g11
g12
(dtRp3984
sbsg24
S'Nba'
p3985
sg26
g27
((lp3986
g29
ag30
aS'sequence'
p3987
ag32
ag33
aS'species'
p3988
atRp3989
sg37
(lp3990
sg120
g3962
sg121
S'RWLSTKDLYSRMELPGLNQNVHAMFVMPLGFGNPMGDMFPRLNNGFWMPALSLEGAGTGWTVYPPLSHSGPSVDLAFHLSSSLLGAINFTNMRGPLFWTALLLFSLPVFAGTLLDRNFNTFEGGDPLYHLFWFFGHPEVYIIPGFGSHSTYKKFGMYASIGLGFVWSHHMYVGLDDRAYFTSATMIAPTGIKFSWLALYGGRPMLAFLFLFTGGTGVLNASDAFHDTYYVVHFHYVLSMGAFSVAYYYWPGLYNLFWFNFPMHFLGGMPRRPYPDAGWNSGSSYQLGPDESNEPH'
p3991
sg123
F0.29926999999999998
sg124
g125
sg33
S'74'
p3992
sg127
g1
(g128
g12
(dp3993
g130
I4
sg131
g132
sg133
g134
sg135
g132
sg136
I01
sg34
g137
sg138
g134
sg139
I0
sg140
I0
sg141
I0
sg142
g134
sg35
g143
sg144
I0
stRp3994
sg146
g147
sg148
F1
sg149
Nsg30
S'NbaciA'
p3995
sbag1
(g2
g3
NtRp3996
(dp3997
g6
g1
(g7
g3
NtRp3998
(dp3999
g10
g1
(g11
g12
(dtRp4000
sg14
g1
(g11
g12
(dtRp4001
sg16
g1
(g11
g12
(dtRp4002
sg18
g1
(g11
g12
(dtRp4003
sg20
g1
(g11
g12
(dtRp4004
sg22
g1
(g11
g12
(dtRp4005
sbsg24
S'Cca'
p4006
sg26
g27
((lp4007
g29
ag30
aS'sequence'
p4008
ag32
ag33
aS'species'
p4009
atRp4010
sg37
(lp4011
sg120
g3962
sg121
S'RWLSTKDLYSRLELPGLNQNVHAMFVMPLGIGNPMGDTFPRLNNGFWLPPLSLEGAGTGWTVYPPLSHSGPSVDLAFHLTSSLLGAINFTNMRGPLFWTALLLFSLPVFAGTLLDRNFNTFEGGDPLYHVFWFFGHPEVYIIPGFGSHSTYKKFGMYASIGLGFVWSHHMYVGLDDRAYFTSALMIAPTGIKFSWLATFGGRPMLAFLFLFTGGTGVLNASDAFHDTYYVVHFHYVLSMGAFSLGYYYWPGLYNLFWFNFPMHFLGGMPRRPYPDAGWNSGSSYQLGPDESNEPH'
p4012
sg123
F0.26266
sg124
g125
sg33
S'84'
p4013
sg127
g1
(g128
g12
(dp4014
g130
I4
sg131
g132
sg133
g134
sg135
g132
sg136
I01
sg34
g137
sg138
g134
sg139
I0
sg140
I0
sg141
I0
sg142
g134
sg35
g143
sg144
I0
stRp4015
sg146
g147
sg148
F1
sg149
Nsg30
S'CcastA'
p4016
sbasg120
g3890
sg123
F0.15296999999999999
sg124
g125
sg33
S'1'
sg127
g1
(g128
g12
(dp4017
g130
I6
sg131
g132
sg133
g134
sg135
g132
sg136
I01
sg34
g173
sg138
g134
sg139
I0
sg140
I0
sg141
I0
sg142
g134
sg35
g174
sg144
I0
stRp4018
sg146
g147
sg148
F0.98999999999999999
sg149
Nsg30
S'NoName'
p4019
sbasg120
g3590
sg123
F0.042560000000000001
sg124
g125
sg33
S'15'
p4020
sg127
g1
(g128
g12
(dp4021
g130
I6
sg131
g132
sg133
g134
sg135
g132
sg136
I01
sg34
g173
sg138
g134
sg139
I0
sg140
I0
sg141
I0
sg142
g134
sg35
g174
sg144
I0
stRp4022
sg146
g147
sg148
F0.84999999999999998
sg149
Nsg30
S'NoName'
p4023
sbasg120
g3556
sg123
F0.094020000000000006
sg124
g125
sg33
S'143'
p4024
sg127
g1
(g128
g12
(dp4025
g130
I6
sg131
g132
sg133
g134
sg135
g132
sg136
I01
sg34
g173
sg138
g134
sg139
I0
sg140
I0
sg141
I0
sg142
g134
sg35
g174
sg144
I0
stRp4026
sg146
g147
sg148
F0.55000000000000004
sg149
Nsg30
S'NoName'
p4027
sbasg120
g3030
sg123
F0.11952
sg124
g125
sg33
S'25'
p4028
sg127
g1
(g128
g12
(dp4029
g130
I6
sg131
g132
sg133
g134
sg135
g132
sg136
I01
sg34
g173
sg138
g134
sg139
I0
sg140
I0
sg141
I0
sg142
g134
sg35
g174
sg144
I0
stRp4030
sg146
g147
sg148
F0.69999999999999996
sg149
Nsg30
S'NoName'
p4031
sbasg120
g3017
sg123
F0.029839999999999998
sg124
g125
sg33
S'176'
p4032
sg127
g1
(g128
g12
(dp4033
g130
I6
sg131
g132
sg133
g134
sg135
g132
sg136
I01
sg34
g173
sg138
g134
sg139
I0
sg140
I0
sg141
I0
sg142
g134
sg35
g174
sg144
I0
stRp4034
sg146
g147
sg148
F0.82999999999999996
sg149
Nsg30
S'NoName'
p4035
sbag1
(g2
g3
NtRp4036
(dp4037
g6
g1
(g7
g3
NtRp4038
(dp4039
g10
g1
(g11
g12
(dtRp4040
sg14
g1
(g11
g12
(dtRp4041
sg16
g1
(g11
g12
(dtRp4042
sg18
g1
(g11
g12
(dtRp4043
sg20
g1
(g11
g12
(dtRp4044
sg22
g1
(g11
g12
(dtRp4045
sbsg24
g25
sg26
g27
((lp4046
g33
ag32
ag29
ag30
atRp4047
sg37
(lp4048
g1
(g2
g3
NtRp4049
(dp4050
g6
g1
(g7
g3
NtRp4051
(dp4052
g10
g1
(g11
g12
(dtRp4053
sg14
g1
(g11
g12
(dtRp4054
sg16
g1
(g11
g12
(dtRp4055
sg18
g1
(g11
g12
(dtRp4056
sg20
g1
(g11
g12
(dtRp4057
sg22
g1
(g11
g12
(dtRp4058
sbsg24
S'Aac'
p4059
sg26
g27
((lp4060
g29
ag30
aS'sequence'
p4061
ag32
ag33
aS'species'
p4062
atRp4063
sg37
(lp4064
sg120
g4036
sg121
S'RWLSTKDLYSRMELPGLQQNVHLMFVMPLGFGNPMGDMFARLNNSFWLPPLSMEGLGTGWTVYPPLAHSGASVDLAFHLTSSLLGLINFTNMRGPLFWTAMLLMSLPVLAGTLLDRNFNTFEGGDPLYHLFWFFGHPEVYIIPLFGSHSTYKKFGMYASIGLGFVWSHHMYVGLDDRAYFTSLTMILPTSIKFSWLLTYGGRPMLAFLFLFTGGTGVLNLSDLFHDTYYVVHFHYVLSLGAFSMGYYYWPGLYNLFWFNFPMHFLGGMPRRPYPDLGWNSGSSYQLGPDESNEPH'
p4065
sg123
F0.028920000000000001
sg124
g125
sg33
S'221'
p4066
sg127
g1
(g128
g12
(dp4067
g130
I4
sg131
g132
sg133
g134
sg135
g132
sg136
I01
sg34
g137
sg138
g134
sg139
I0
sg140
I0
sg141
I0
sg142
g134
sg35
g143
sg144
I0
stRp4068
sg146
g147
sg148
F1
sg149
Nsg30
S'AacerA'
p4069
sbag1
(g2
g3
NtRp4070
(dp4071
g6
g1
(g7
g3
NtRp4072
(dp4073
g10
g1
(g11
g12
(dtRp4074
sg14
g1
(g11
g12
(dtRp4075
sg16
g1
(g11
g12
(dtRp4076
sg18
g1
(g11
g12
(dtRp4077
sg20
g1
(g11
g12
(dtRp4078
sg22
g1
(g11
g12
(dtRp4079
sbsg24
g25
sg26
g27
((lp4080
g33
ag32
ag29
ag30
atRp4081
sg37
(lp4082
g1
(g2
g3
NtRp4083
(dp4084
g6
g1
(g7
g3
NtRp4085
(dp4086
g10
g1
(g11
g12
(dtRp4087
sg14
g1
(g11
g12
(dtRp4088
sg16
g1
(g11
g12
(dtRp4089
sg18
g1
(g11
g12
(dtRp4090
sg20
g1
(g11
g12
(dtRp4091
sg22
g1
(g11
g12
(dtRp4092
sbsg24
S'Ago'
p4093
sg26
g27
((lp4094
g29
ag30
aS'sequence'
p4095
ag32
ag33
aS'species'
p4096
atRp4097
sg37
(lp4098
sg120
g4070
sg121
S'RWLSTKDLYSRMELPGLQQNVHLMFVMPLGFGNPMGDMFARLNNSFWLPPLSMEGLGTGWTVYPPLSHSGASVDLAFHLTSSLLGLINFTNMRGPLFWTAMLLMSLPVLAGTLLDRNFNTFEGGDPLYHLFWFFGHPEVYIIPLFGSHSTYKKFGMYLSISLGFVWSHHMYVGLDDRAYFTSATMILPTSIKFSWLLTYGGRPMLLFLFLFTGGTGVLNLSDAFHDTYYVVHFHYVLSLGAFSMGYYYWPGLYNLFWFNFPMHFLGGMPRRPYPDLGWNSGSSYQLGPDESNEPH'
p4099
sg123
F0.00088000000000000003
sg124
g125
sg33
S'167'
p4100
sg127
g1
(g128
g12
(dp4101
g130
I4
sg131
g132
sg133
g134
sg135
g132
sg136
I01
sg34
g137
sg138
g134
sg139
I0
sg140
I0
sg141
I0
sg142
g134
sg35
g143
sg144
I0
stRp4102
sg146
g147
sg148
F1
sg149
Nsg30
S'AgossB'
p4103
sbag1
(g2
g3
NtRp4104
(dp4105
g6
g1
(g7
g3
NtRp4106
(dp4107
g10
g1
(g11
g12
(dtRp4108
sg14
g1
(g11
g12
(dtRp4109
sg16
g1
(g11
g12
(dtRp4110
sg18
g1
(g11
g12
(dtRp4111
sg20
g1
(g11
g12
(dtRp4112
sg22
g1
(g11
g12
(dtRp4113
sbsg24
S'Ago'
p4114
sg26
g27
((lp4115
g29
ag30
aS'sequence'
p4116
ag32
ag33
aS'species'
p4117
atRp4118
sg37
(lp4119
sg120
g4070
sg121
S'RWLSTKDLYSRMELPGLQQNVHLMFVMPLGFGNPMGDMFARLNNSFWLPPLSMEGLGTGWTVYPPLSHSGASVDLAFHLTSSLLGLINFTNMRGPLFWTAMLLMSLPVLAGTLLDRNFNTFEGGDPLYHLFWFFGHPEVYIIPLFGSHSTYKKFGMYLSISLGFVWSHHMYVGLDDRAYFTSATMILPTSIKFSWLLTYGGRPMLLFLFLFTGGTGVLNLSDAFHDTYYVVHFHYVLSLGAFSMGYYYWPGLYNLFWFNFPMHFLGGMPRRPYPDLGWNSGSSYQLGPDESNEPH'
p4120
sg123
F0.0023999999999999998
sg124
g125
sg33
S'41'
p4121
sg127
g1
(g128
g12
(dp4122
g130
I4
sg131
g132
sg133
g134
sg135
g132
sg136
I01
sg34
g137
sg138
g134
sg139
I0
sg140
I0
sg141
I0
sg142
g134
sg35
g143
sg144
I0
stRp4123
sg146
g147
sg148
F1
sg149
Nsg30
S'AgossA'
p4124
sbasg120
g4036
sg123
F0.075329999999999994
sg124
g125
sg33
S'97'
p4125
sg127
g1
(g128
g12
(dp4126
g130
I6
sg131
g132
sg133
g134
sg135
g132
sg136
I01
sg34
g173
sg138
g134
sg139
I0
sg140
I0
sg141
I0
sg142
g134
sg35
g174
sg144
I0
stRp4127
sg146
g147
sg148
F0.98999999999999999
sg149
Nsg30
S'NoName'
p4128
sbasg120
g3017
sg123
F0.56830999999999998
sg124
g125
sg33
S'42'
p4129
sg127
g1
(g128
g12
(dp4130
g130
I6
sg131
g132
sg133
g134
sg135
g132
sg136
I01
sg34
g173
sg138
g134
sg139
I0
sg140
I0
sg141
I0
sg142
g134
sg35
g174
sg144
I0
stRp4131
sg146
g147
sg148
F0.98999999999999999
sg149
Nsg30
S'NoName'
p4132
sbasg120
g2679
sg123
F0.14305999999999999
sg124
g125
sg33
S'121'
p4133
sg127
g1
(g128
g12
(dp4134
g130
I6
sg131
g132
sg133
g134
sg135
g132
sg136
I01
sg34
g173
sg138
g134
sg139
I0
sg140
I0
sg141
I0
sg142
g134
sg35
g174
sg144
I0
stRp4135
sg146
g147
sg148
F0.96999999999999997
sg149
Nsg30
S'NoName'
p4136
sbasg120
g2493
sg123
F0.26834000000000002
sg124
g125
sg33
S'101'
p4137
sg127
g1
(g128
g12
(dp4138
g130
I6
sg131
g132
sg133
g134
sg135
g132
sg136
I01
sg34
g173
sg138
g134
sg139
I0
sg140
I0
sg141
I0
sg142
g134
sg35
g174
sg144
I0
stRp4139
sg146
g147
sg148
F0.97999999999999998
sg149
Nsg30
S'NoName'
p4140
sbasg120
g676
sg123
F0.062890000000000001
sg124
g125
sg33
S'67'
p4141
sg127
g1
(g128
g12
(dp4142
g130
I6
sg131
g132
sg133
g134
sg135
g132
sg136
I01
sg34
g173
sg138
g134
sg139
I0
sg140
I0
sg141
I0
sg142
g134
sg35
g174
sg144
I0
stRp4143
sg146
g147
sg148
F0.67000000000000004
sg149
Nsg30
S'NoName'
p4144
sbasg120
g264
sg123
F0.52025999999999994
sg124
g125
sg33
S'146'
p4145
sg127
g1
(g128
g12
(dp4146
g130
I6
sg131
g132
sg133
g134
sg135
g132
sg136
I01
sg34
g173
sg138
g134
sg139
I0
sg140
I0
sg141
I0
sg142
g134
sg35
g174
sg144
I0
stRp4147
sg146
g147
sg148
F0.97999999999999998
sg149
Nsg30
S'NoName'
p4148
sbasg120
g52
sg123
F0.11274000000000001
sg124
g125
sg33
S'106'
p4149
sg127
g1
(g128
g12
(dp4150
g130
I6
sg131
g132
sg133
g134
sg135
g132
sg136
I01
sg34
g173
sg138
g134
sg139
I0
sg140
I0
sg141
I0
sg142
g134
sg35
g174
sg144
I0
stRp4151
sg146
g147
sg148
F0.88
sg149
Nsg30
S'NoName'
p4152
sbasg120
g39
sg123
F0.33485999999999999
sg124
g125
sg33
S'103'
p4153
sg127
g1
(g128
g12
(dp4154
g130
I6
sg131
g132
sg133
g134
sg135
g132
sg136
I01
sg34
g173
sg138
g134
sg139
I0
sg140
I0
sg141
I0
sg142
g134
sg35
g174
sg144
I0
stRp4155
sg146
g147
sg148
F0.95999999999999996
sg149
Nsg30
S'NoName'
p4156
sbag1
(g2
g3
NtRp4157
(dp4158
g6
g1
(g7
g3
NtRp4159
(dp4160
g10
g1
(g11
g12
(dtRp4161
sg14
g1
(g11
g12
(dtRp4162
sg16
g1
(g11
g12
(dtRp4163
sg18
g1
(g11
g12
(dtRp4164
sg20
g1
(g11
g12
(dtRp4165
sg22
g1
(g11
g12
(dtRp4166
sbsg24
S'Lst'
p4167
sg26
g27
((lp4168
g29
ag30
aS'sequence'
p4169
ag32
ag33
aS'species'
p4170
atRp4171
sg37
(lp4172
sg120
g39
sg121
S'RWLSTKDLYSRMELPGLNHNVHAMFVMPLGFGNPLGDMFPRLNNSFWLPPLSFEGAGTGWTVYPPLSHSGASVDLAFHLSSSMLGAMNFTNMRGPLFWTALLLLSLPVLGATLLDRNFNTFEGGDPLYHLFWFFGHPEVYIIPGFGSHCTYEKFGMYASMGLGFVWSHHMFVGLDERAYFTAATMIAPTGMKFSWLATYGGTPMVAFLFLFTGGTGVLNASDAFHDTYYVVHFHYVLSMGAFALGYYYWPGLYKYFWFNFPMHFLGGMPRRPYPDAGWNSGSAIQLGPQATKEPH'
p4173
sg123
F1.13117
sg124
g125
sg33
S'78'
p4174
sg127
g1
(g128
g12
(dp4175
g130
I4
sg131
g132
sg133
g134
sg135
g132
sg136
I01
sg34
g137
sg138
g134
sg139
I0
sg140
I0
sg141
I0
sg142
g134
sg35
g143
sg144
I0
stRp4176
sg146
g147
sg148
F1
sg149
Nsg30
S'LstarA'
p4177
sbasg120
g4
sg123
F0.46844999999999998
sg124
g125
sg33
S'99'
p4178
sg127
g1
(g128
g12
(dp4179
g130
I6
sg131
g132
sg133
g134
sg135
g132
sg136
I01
sg34
g173
sg138
g134
sg139
I0
sg140
I0
sg141
I0
sg142
g134
sg35
g174
sg144
I0
stRp4180
sg146
g147
sg148
F1
sg149
Nsg30
S'NoName'
p4181
sbag1
(g2
g3
NtRp4182
(dp4183
g6
g1
(g7
g3
NtRp4184
(dp4185
g10
g1
(g11
g12
(dtRp4186
sg14
g1
(g11
g12
(dtRp4187
sg16
g1
(g11
g12
(dtRp4188
sg18
g1
(g11
g12
(dtRp4189
sg20
g1
(g11
g12
(dtRp4190
sg22
g1
(g11
g12
(dtRp4191
sbsg24
g25
sg26
g27
((lp4192
g33
ag32
ag29
ag30
atRp4193
sg37
(lp4194
g1
(g2
g3
NtRp4195
(dp4196
g6
g1
(g7
g3
NtRp4197
(dp4198
g10
g1
(g11
g12
(dtRp4199
sg14
g1
(g11
g12
(dtRp4200
sg16
g1
(g11
g12
(dtRp4201
sg18
g1
(g11
g12
(dtRp4202
sg20
g1
(g11
g12
(dtRp4203
sg22
g1
(g11
g12
(dtRp4204
sbsg24
S'Sja'
p4205
sg26
g27
((lp4206
g29
ag30
aS'sequence'
p4207
ag32
ag33
aS'species'
p4208
atRp4209
sg37
(lp4210
sg120
g4182
sg121
S'RWLSTKDLYSRLELPGLNQNVHGMFILPLGFGNPLGDVYPRMNNSFWLPPLSLEGPGVGWTMYYPLSHSGLSVDLLMQLTSSTLGSINLTNMRGPLFWTSLLVLTLPVLGGILLDRNWNTFAGGDPLYHLFWFFGHPEVYIIPAFGSHSTFHKFGMYASIALGCVWSHHLYVGLDDRAYFTAATMIAPTGIKFSWLATSGGEPMLVFLILFTGGTGVLNSVDAFHDTYFVVHFHYVLSMGAMGLAYYFWPGLYNMFWFNFPQHFLGNYPRRPYPDAGWNSGSSYQFNPNDSNEPH'
p4211
sg123
F1.0686599999999999
sg124
g125
sg33
S'206'
p4212
sg127
g1
(g128
g12
(dp4213
g130
I4
sg131
g132
sg133
g134
sg135
g132
sg136
I01
sg34
g137
sg138
g134
sg139
I0
sg140
I0
sg141
I0
sg142
g134
sg35
g143
sg144
I0
stRp4214
sg146
g147
sg148
F1
sg149
Nsg30
S'SjapoA'
p4215
sbag1
(g2
g3
NtRp4216
(dp4217
g6
g1
(g7
g3
NtRp4218
(dp4219
g10
g1
(g11
g12
(dtRp4220
sg14
g1
(g11
g12
(dtRp4221
sg16
g1
(g11
g12
(dtRp4222
sg18
g1
(g11
g12
(dtRp4223
sg20
g1
(g11
g12
(dtRp4224
sg22
g1
(g11
g12
(dtRp4225
sbsg24
g25
sg26
g27
((lp4226
g33
ag32
ag29
ag30
atRp4227
sg37
(lp4228
g1
(g2
g3
NtRp4229
(dp4230
g6
g1
(g7
g3
NtRp4231
(dp4232
g10
g1
(g11
g12
(dtRp4233
sg14
g1
(g11
g12
(dtRp4234
sg16
g1
(g11
g12
(dtRp4235
sg18
g1
(g11
g12
(dtRp4236
sg20
g1
(g11
g12
(dtRp4237
sg22
g1
(g11
g12
(dtRp4238
sbsg24
S'Spo'
p4239
sg26
g27
((lp4240
g29
ag30
aS'sequence'
p4241
ag32
ag33
aS'species'
p4242
atRp4243
sg37
(lp4244
sg120
g4216
sg121
S'RWMSTKDLYSRMELPGLNQNVHGMFIIPLGFGNPMGDVYPRVNNTFWLPPLSLEGPGGGWTVYPPLSHSGPAIDLALQLTSSTLGSVNLTNMRGPLFWTSLLLLTLPVLGGFLFDRNLNTFAGGDPLYHLFWFFGHPEVYIIPAFGSHPSLHKFGMWASIALGLVWSHHLFVGLDDRAYFSAATMIAPTGIKFSWLATTGGQPMLAFLILFTGGTGVLNSVDAFHDTYFVVHFHYVLSMGAFGLAYY-WPGLYNLFWFNFPQHFLGGMPRRPYPEAGWNSGSSYQFNPSDDNEPH'
p4245
sg123
F0.12372
sg124
g125
sg33
S'189'
p4246
sg127
g1
(g128
g12
(dp4247
g130
I4
sg131
g132
sg133
g134
sg135
g132
sg136
I01
sg34
g137
sg138
g134
sg139
I0
sg140
I0
sg141
I0
sg142
g134
sg35
g143
sg144
I0
stRp4248
sg146
g147
sg148
F1
sg149
Nsg30
S'SpombA'
p4249
sbag1
(g2
g3
NtRp4250
(dp4251
g6
g1
(g7
g3
NtRp4252
(dp4253
g10
g1
(g11
g12
(dtRp4254
sg14
g1
(g11
g12
(dtRp4255
sg16
g1
(g11
g12
(dtRp4256
sg18
g1
(g11
g12
(dtRp4257
sg20
g1
(g11
g12
(dtRp4258
sg22
g1
(g11
g12
(dtRp4259
sbsg24
g25
sg26
g27
((lp4260
g33
ag32
ag29
ag30
atRp4261
sg37
(lp4262
g1
(g2
g3
NtRp4263
(dp4264
g6
g1
(g7
g3
NtRp4265
(dp4266
g10
g1
(g11
g12
(dtRp4267
sg14
g1
(g11
g12
(dtRp4268
sg16
g1
(g11
g12
(dtRp4269
sg18
g1
(g11
g12
(dtRp4270
sg20
g1
(g11
g12
(dtRp4271
sg22
g1
(g11
g12
(dtRp4272
sbsg24
S'Soc'
p4273
sg26
g27
((lp4274
g29
ag30
aS'sequence'
p4275
ag32
ag33
aS'species'
p4276
atRp4277
sg37
(lp4278
sg120
g4250
sg121
S'RWLSTKDLYSRMELPGLNQNVHGMFIIPLGFGNPMGDVYPRVNNTFWLPPLSLEGPGTGWTVYPPLSHSGPAVDLALQLTSSTLGSLNLTNMRGPLFWTSLLLLTLPVLGGFLFDRNLNTFAGGDPLYHLFWFFGHPEVYIIPAFGSHSTLNKFGMCASIALGLVWSHHLFVGLDDRAYFSAATMIAPTGIKFSWLATTGGQPMLAFLILFTGGTGVLNSVDAFHDTYFVVHFHYVLSMGAFGLAYYFWPGLYNLFWFNFPQHFLGGMPRRPYPDAGWNSGSSYQYNPSDDNEPH'
p4279
sg123
F0.03637
sg124
g125
sg33
S'61'
p4280
sg127
g1
(g128
g12
(dp4281
g130
I4
sg131
g132
sg133
g134
sg135
g132
sg136
I01
sg34
g137
sg138
g134
sg139
I0
sg140
I0
sg141
I0
sg142
g134
sg35
g143
sg144
I0
stRp4282
sg146
g147
sg148
F1
sg149
Nsg30
S'SoctoA'
p4283
sbag1
(g2
g3
NtRp4284
(dp4285
g6
g1
(g7
g3
NtRp4286
(dp4287
g10
g1
(g11
g12
(dtRp4288
sg14
g1
(g11
g12
(dtRp4289
sg16
g1
(g11
g12
(dtRp4290
sg18
g1
(g11
g12
(dtRp4291
sg20
g1
(g11
g12
(dtRp4292
sg22
g1
(g11
g12
(dtRp4293
sbsg24
S'Scr'
p4294
sg26
g27
((lp4295
g29
ag30
aS'sequence'
p4296
ag32
ag33
aS'species'
p4297
atRp4298
sg37
(lp4299
sg120
g4250
sg121
S'RWLSTKDLYSRMELPGLNQNVHGMFIIPLGFGNPMGDVYPRVNNTYWLPPLSLEGPGTGWTVYPPLSHSGPSVDLALQLTSSTLGSLNLTNMRGPLFWTSLLLLTLPVLGGFLFDRNLNTFAGGDPLYHLFWFFGHPEVYIIPAFGSHPTLNKFGMCASIALGLVWSHHLFVGLDDRAYFSAATMIAPTGIKFSWLATTGGQPMLAFLILFTGGTGVLNSVDAFHDTYFVVHFHYVLSMGAFGLAYYFWPGLYNLFWFNFPQHFLGGMPRRPYPDAGWNSGSSYQYNPSDDNEPH'
p4300
sg123
F0.036740000000000002
sg124
g125
sg33
S'158'
p4301
sg127
g1
(g128
g12
(dp4302
g130
I4
sg131
g132
sg133
g134
sg135
g132
sg136
I01
sg34
g137
sg138
g134
sg139
I0
sg140
I0
sg141
I0
sg142
g134
sg35
g143
sg144
I0
stRp4303
sg146
g147
sg148
F1
sg149
Nsg30
S'ScryoA'
p4304
sbasg120
g4216
sg123
F0.18453
sg124
g125
sg33
S'28'
p4305
sg127
g1
(g128
g12
(dp4306
g130
I6
sg131
g132
sg133
g134
sg135
g132
sg136
I01
sg34
g173
sg138
g134
sg139
I0
sg140
I0
sg141
I0
sg142
g134
sg35
g174
sg144
I0
stRp4307
sg146
g147
sg148
F0.98999999999999999
sg149
Nsg30
S'NoName'
p4308
sbasg120
g4182
sg123
F0.73307
sg124
g125
sg33
S'150'
p4309
sg127
g1
(g128
g12
(dp4310
g130
I6
sg131
g132
sg133
g134
sg135
g132
sg136
I01
sg34
g173
sg138
g134
sg139
I0
sg140
I0
sg141
I0
sg142
g134
sg35
g174
sg144
I0
stRp4311
sg146
g147
sg148
F0.98999999999999999
sg149
Nsg30
S'NoName'
p4312
sbasg120
g4
sg123
F1.7741899999999999
sg124
g125
sg33
S'112'
p4313
sg127
g1
(g128
g12
(dp4314
g130
I6
sg131
g132
sg133
g134
sg135
g132
sg136
I01
sg34
g173
sg138
g134
sg139
I0
sg140
I0
sg141
I0
sg142
g134
sg35
g174
sg144
I0
stRp4315
sg146
g147
sg148
F1
sg149
Nsg30
S'NoName'
p4316
sbasg31
S'8'
sg120
Nsg123
F0
sg124
g125
sg33
S'113'
p4317
sg34
S'sphere'
p4318
sg127
g1
(g128
g12
(dp4319
g130
I6
sg131
g132
sg133
g134
sg135
g132
sg136
I01
sg34
g173
sg138
g134
sg139
I0
sg140
I0
sg141
I0
sg142
g134
sg35
g174
sg144
I0
stRp4320
sg146
g147
sg148
F1
sg149
Nsg35
S'#833DB4'
p4321
sg30
g125
sb.