ccopy_reg
_reconstructor
p1
(cete2.phylo.phylotree
PhyloNode
p2
c__builtin__
object
p3
NtRp4
(dp5
S'_faces'
p6
g1
(cete2.treeview.main
_FaceAreas
p7
g3
NtRp8
(dp9
S'branch-top'
p10
g1
(cete2.treeview.main
FaceContainer
p11
c__builtin__
dict
p12
(dtRp13
sS'float'
p14
g1
(g11
g12
(dtRp15
sS'branch-bottom'
p16
g1
(g11
g12
(dtRp17
sS'aligned'
p18
g1
(g11
g12
(dtRp19
sS'branch-right'
p20
g1
(g11
g12
(dtRp21
sS'float-behind'
p22
g1
(g11
g12
(dtRp23
sbsS'_species'
p24
S'Unknown'
p25
sS'features'
p26
c__builtin__
set
p27
((lp28
S'dist'
p29
aS'name'
p30
aS'bsize'
p31
aS'support'
p32
aS'_nid'
p33
aS'shape'
p34
aS'fgcolor'
p35
atRp36
sS'_children'
p37
(lp38
g1
(g2
g3
NtRp39
(dp40
g6
g1
(g7
g3
NtRp41
(dp42
g10
g1
(g11
g12
(dtRp43
sg14
g1
(g11
g12
(dtRp44
sg16
g1
(g11
g12
(dtRp45
sg18
g1
(g11
g12
(dtRp46
sg20
g1
(g11
g12
(dtRp47
sg22
g1
(g11
g12
(dtRp48
sbsg24
g25
sg26
g27
((lp49
g33
ag32
ag29
ag30
atRp50
sg37
(lp51
g1
(g2
g3
NtRp52
(dp53
g6
g1
(g7
g3
NtRp54
(dp55
g10
g1
(g11
g12
(dtRp56
sg14
g1
(g11
g12
(dtRp57
sg16
g1
(g11
g12
(dtRp58
sg18
g1
(g11
g12
(dtRp59
sg20
g1
(g11
g12
(dtRp60
sg22
g1
(g11
g12
(dtRp61
sbsg24
g25
sg26
g27
((lp62
g33
ag32
ag29
ag30
atRp63
sg37
(lp64
g1
(g2
g3
NtRp65
(dp66
g6
g1
(g7
g3
NtRp67
(dp68
g10
g1
(g11
g12
(dtRp69
sg14
g1
(g11
g12
(dtRp70
sg16
g1
(g11
g12
(dtRp71
sg18
g1
(g11
g12
(dtRp72
sg20
g1
(g11
g12
(dtRp73
sg22
g1
(g11
g12
(dtRp74
sbsg24
g25
sg26
g27
((lp75
g33
ag32
ag29
ag30
atRp76
sg37
(lp77
g1
(g2
g3
NtRp78
(dp79
g6
g1
(g7
g3
NtRp80
(dp81
g10
g1
(g11
g12
(dtRp82
sg14
g1
(g11
g12
(dtRp83
sg16
g1
(g11
g12
(dtRp84
sg18
g1
(g11
g12
(dtRp85
sg20
g1
(g11
g12
(dtRp86
sg22
g1
(g11
g12
(dtRp87
sbsg24
g25
sg26
g27
((lp88
g33
ag32
ag29
ag30
atRp89
sg37
(lp90
g1
(g2
g3
NtRp91
(dp92
g6
g1
(g7
g3
NtRp93
(dp94
g10
g1
(g11
g12
(dtRp95
sg14
g1
(g11
g12
(dtRp96
sg16
g1
(g11
g12
(dtRp97
sg18
g1
(g11
g12
(dtRp98
sg20
g1
(g11
g12
(dtRp99
sg22
g1
(g11
g12
(dtRp100
sbsg24
g25
sg26
g27
((lp101
g33
ag32
ag29
ag30
atRp102
sg37
(lp103
g1
(g2
g3
NtRp104
(dp105
g6
g1
(g7
g3
NtRp106
(dp107
g10
g1
(g11
g12
(dtRp108
sg14
g1
(g11
g12
(dtRp109
sg16
g1
(g11
g12
(dtRp110
sg18
g1
(g11
g12
(dtRp111
sg20
g1
(g11
g12
(dtRp112
sg22
g1
(g11
g12
(dtRp113
sbsg24
S'Yli'
p114
sg26
g27
((lp115
g29
ag30
aS'sequence'
p116
ag32
ag33
aS'species'
p117
atRp118
sg37
(lp119
sS'_up'
p120
g91
sS'sequence'
p121
S'RWLSTKDLYSRLELTGLNQNVHAMFVMPLGFGNPMGDMFARLNNSFWLVPLSLEGAGTGWTVYFPLAHSGPAVDLAFHLSSSLLGAINFTNMRGPLFWTALLLLSLPVLAGTGIDRNFNTFEGGDALYHLFWFFGHPEVYIIPGFGSHSAISKFGMYASIGLGFVWSHHMFVGLDDRAYFTSATMIAPTSIKFSWLATYGGRTALAFIFLFTGGTGVLNSADPFHDSYYVVHFHYVLSMGAFSIGWYLWPGLYNLFWFNFPMHFLGGMPRRNYPDAGWNSGSAYQLGPSGTNEPH'
p122
sS'_dist'
p123
F0.00011
sS'_name'
p124
S'NoName'
p125
sg33
S'85'
p126
sS'_img_style'
p127
g1
(cete2.treeview.main
NodeStyle
p128
g12
(dp129
S'size'
p130
I4
sS'hz_line_color'
p131
S'#000000'
p132
sS'faces_bgcolor'
p133
S'#FFFFFF'
p134
sS'vt_line_color'
p135
g132
sS'draw_descendants'
p136
I01
sg34
S'square'
p137
sS'bgcolor'
p138
g134
sS'hz_line_type'
p139
I0
sS'vt_line_width'
p140
I0
sS'vt_line_type'
p141
I0
sS'node_bgcolor'
p142
g134
sg35
S'#000000'
p143
sS'hz_line_width'
p144
I0
stRp145
sS'_speciesFunction'
p146
cete2.phylo.phylotree
_parse_species
p147
sS'_support'
p148
F1
sS'_temp_faces'
p149
Nsg30
S'YlipoB'
p150
sbag1
(g2
g3
NtRp151
(dp152
g6
g1
(g7
g3
NtRp153
(dp154
g10
g1
(g11
g12
(dtRp155
sg14
g1
(g11
g12
(dtRp156
sg16
g1
(g11
g12
(dtRp157
sg18
g1
(g11
g12
(dtRp158
sg20
g1
(g11
g12
(dtRp159
sg22
g1
(g11
g12
(dtRp160
sbsg24
S'Yli'
p161
sg26
g27
((lp162
g29
ag30
aS'sequence'
p163
ag32
ag33
aS'species'
p164
atRp165
sg37
(lp166
sg120
g91
sg121
S'RWLSTKDLYSRLELTGLNQNVHAMFVMPLGFGNPMGDMFARLNNSFWLVPLSLEGAGTGWTVYFPLAHSGPAVDLAFHLSSSLLGAINFTNMRGPLFWTALLLLSLPVLAGTGIDRNFNTFEGGDALYHLFWFFGHPEVYIIPGFGSHSAISKFGMYASIGLGFVWSHHMFVGLDDRAYFTSATMIAPTSIKFSWLATYGGRTALAFIFLFTGGTGVLNSADPFHDSYYVVHFHYVLSMGAFSIGWYLWPGLYNLFWFNFPMHFLGGMPRRNYPDAGWNSGSAYQLGPSGTNEPH'
p167
sg123
F0.00048000000000000001
sg124
g125
sg33
S'57'
p168
sg127
g1
(g128
g12
(dp169
g130
I4
sg131
g132
sg133
g134
sg135
g132
sg136
I01
sg34
g137
sg138
g134
sg139
I0
sg140
I0
sg141
I0
sg142
g134
sg35
g143
sg144
I0
stRp170
sg146
g147
sg148
F1
sg149
Nsg30
S'YlipoA'
p171
sbasg120
g78
sg123
F0.02656
sg124
g125
sg33
S'80'
p172
sg127
g1
(g128
g12
(dp173
g130
I6
sg131
g132
sg133
g134
sg135
g132
sg136
I01
sg34
S'circle'
p174
sg138
g134
sg139
I0
sg140
I0
sg141
I0
sg142
g134
sg35
S'#0030c1'
p175
sg144
I0
stRp176
sg146
g147
sg148
F1
sg149
Nsg30
S'NoName'
p177
sbag1
(g2
g3
NtRp178
(dp179
g6
g1
(g7
g3
NtRp180
(dp181
g10
g1
(g11
g12
(dtRp182
sg14
g1
(g11
g12
(dtRp183
sg16
g1
(g11
g12
(dtRp184
sg18
g1
(g11
g12
(dtRp185
sg20
g1
(g11
g12
(dtRp186
sg22
g1
(g11
g12
(dtRp187
sbsg24
g25
sg26
g27
((lp188
g33
ag32
ag29
ag30
atRp189
sg37
(lp190
g1
(g2
g3
NtRp191
(dp192
g6
g1
(g7
g3
NtRp193
(dp194
g10
g1
(g11
g12
(dtRp195
sg14
g1
(g11
g12
(dtRp196
sg16
g1
(g11
g12
(dtRp197
sg18
g1
(g11
g12
(dtRp198
sg20
g1
(g11
g12
(dtRp199
sg22
g1
(g11
g12
(dtRp200
sbsg24
S'Cga'
p201
sg26
g27
((lp202
g29
ag30
aS'sequence'
p203
ag32
ag33
aS'species'
p204
atRp205
sg37
(lp206
sg120
g178
sg121
S'RWLSTKDLYSRLELTGLNQNVHAMFVMPLGFGNPMGDMFARLNNSFWLVPLSLEGAGTGWTVYFPLAHSGPAVDLAFHLSSSLLGAINFTNMRGPLFWTALLLLSLPVLAGTGIDRNFNTFEGGDALYHLFWFFGHPEVYIIPGFGSHSAISKFGMYASIGLGFVWSHHMFVGLDDRAYFTSATMIAPTSIKFSWLSTYGGRTALAFIFLFTGGTGVLNSADPFHDSYYVVHFHYVLSMGAFSIGWYLWPGLYNLFWFNFPMHFLGGMPRRNYPDAGWNSGSAYQLGPSGTNEPH'
p207
sg123
F0.016299999999999999
sg124
g125
sg33
S'70'
p208
sg127
g1
(g128
g12
(dp209
g130
I4
sg131
g132
sg133
g134
sg135
g132
sg136
I01
sg34
g137
sg138
g134
sg139
I0
sg140
I0
sg141
I0
sg142
g134
sg35
g143
sg144
I0
stRp210
sg146
g147
sg148
F1
sg149
Nsg30
S'CgallA'
p211
sbag1
(g2
g3
NtRp212
(dp213
g6
g1
(g7
g3
NtRp214
(dp215
g10
g1
(g11
g12
(dtRp216
sg14
g1
(g11
g12
(dtRp217
sg16
g1
(g11
g12
(dtRp218
sg18
g1
(g11
g12
(dtRp219
sg20
g1
(g11
g12
(dtRp220
sg22
g1
(g11
g12
(dtRp221
sbsg24
S'Cde'
p222
sg26
g27
((lp223
g29
ag30
aS'sequence'
p224
ag32
ag33
aS'species'
p225
atRp226
sg37
(lp227
sg120
g178
sg121
S'RWLSTKDLYSRLELTGLNQNVHAMFVMPLGFGNPMGDMFARLNNSFWLVPLSLEGAGTGWTVYFPLAHSGPAVDLAFHLSSSLLGAINFTNMRGPLFWTALLLLSLPVLAGTGIDRNFNTFEGGDALYHLFFFNGHPEVYIIPGFGSHSAISKFGMYASIGLGFVWSHHMFVGLDDRAYFTSATMIAPTSIKFSWLATYGGRTALAFIFLFTGGTGVLNSADPFHDSYYVVHFHYVLSMGAFSIGWYLWPGLYNLFWFNFPMHFLGGMPRRNYPDAGWNSGSAYQLGPSGTNEPH'
p228
sg123
F0.018610000000000002
sg124
g125
sg33
S'47'
p229
sg127
g1
(g128
g12
(dp230
g130
I4
sg131
g132
sg133
g134
sg135
g132
sg136
I01
sg34
g137
sg138
g134
sg139
I0
sg140
I0
sg141
I0
sg142
g134
sg35
g143
sg144
I0
stRp231
sg146
g147
sg148
F1
sg149
Nsg30
S'CdefoA'
p232
sbasg120
g78
sg123
F0.00282
sg124
g125
sg33
S'89'
p233
sg127
g1
(g128
g12
(dp234
g130
I6
sg131
g132
sg133
g134
sg135
g132
sg136
I01
sg34
g174
sg138
g134
sg139
I0
sg140
I0
sg141
I0
sg142
g134
sg35
g175
sg144
I0
stRp235
sg146
g147
sg148
F0.96999999999999997
sg149
Nsg30
S'NoName'
p236
sbasg120
g65
sg123
F0.00479
sg124
g125
sg33
S'91'
p237
sg127
g1
(g128
g12
(dp238
g130
I6
sg131
g132
sg133
g134
sg135
g132
sg136
I01
sg34
g174
sg138
g134
sg139
I0
sg140
I0
sg141
I0
sg142
g134
sg35
g175
sg144
I0
stRp239
sg146
g147
sg148
F0.80000000000000004
sg149
Nsg30
S'NoName'
p240
sbag1
(g2
g3
NtRp241
(dp242
g6
g1
(g7
g3
NtRp243
(dp244
g10
g1
(g11
g12
(dtRp245
sg14
g1
(g11
g12
(dtRp246
sg16
g1
(g11
g12
(dtRp247
sg18
g1
(g11
g12
(dtRp248
sg20
g1
(g11
g12
(dtRp249
sg22
g1
(g11
g12
(dtRp250
sbsg24
S'Cal'
p251
sg26
g27
((lp252
g29
ag30
aS'sequence'
p253
ag32
ag33
aS'species'
p254
atRp255
sg37
(lp256
sg120
g65
sg121
S'RWLSTKDLYSRLELTGLNQNVHAMFVMPLGFGNPMGDMFARLNNSFWLVPMSLEGAGTGWTVYFPLAHSGPAVDLAFHLASSLLGAINFTNMRGPLFWTALLLLSLPVLAGTGIDRNFNTFEGGDALYHLFWFFGHPEVYIIPGFGSHSAISKFGMYASIGLGFVWSHHMFVGLDDRAYFTSATMIAPTSIKFSWLATYGGRTALAFIFLFTGGTGVLNSADPFHDSYYVVHFHYVLSMGAFSIGWYLWPGLYNLFWFNFPMHFLGGMPRRNYPDAGWNSGSAYQLGPSGTNEPH'
p257
sg123
F0.035970000000000002
sg124
g125
sg33
S'158'
p258
sg127
g1
(g128
g12
(dp259
g130
I4
sg131
g132
sg133
g134
sg135
g132
sg136
I01
sg34
g137
sg138
g134
sg139
I0
sg140
I0
sg141
I0
sg142
g134
sg35
g143
sg144
I0
stRp260
sg146
g147
sg148
F1
sg149
Nsg30
S'CalimA'
p261
sbasg120
g52
sg123
F1.1444799999999999
sg124
g125
sg33
S'87'
p262
sg127
g1
(g128
g12
(dp263
g130
I6
sg131
g132
sg133
g134
sg135
g132
sg136
I01
sg34
g174
sg138
g134
sg139
I0
sg140
I0
sg141
I0
sg142
g134
sg35
g175
sg144
I0
stRp264
sg146
g147
sg148
F0.97999999999999998
sg149
Nsg30
S'NoName'
p265
sbag1
(g2
g3
NtRp266
(dp267
g6
g1
(g7
g3
NtRp268
(dp269
g10
g1
(g11
g12
(dtRp270
sg14
g1
(g11
g12
(dtRp271
sg16
g1
(g11
g12
(dtRp272
sg18
g1
(g11
g12
(dtRp273
sg20
g1
(g11
g12
(dtRp274
sg22
g1
(g11
g12
(dtRp275
sbsg24
g25
sg26
g27
((lp276
g33
ag32
ag29
ag30
atRp277
sg37
(lp278
g1
(g2
g3
NtRp279
(dp280
g6
g1
(g7
g3
NtRp281
(dp282
g10
g1
(g11
g12
(dtRp283
sg14
g1
(g11
g12
(dtRp284
sg16
g1
(g11
g12
(dtRp285
sg18
g1
(g11
g12
(dtRp286
sg20
g1
(g11
g12
(dtRp287
sg22
g1
(g11
g12
(dtRp288
sbsg24
g25
sg26
g27
((lp289
g33
ag32
ag29
ag30
atRp290
sg37
(lp291
g1
(g2
g3
NtRp292
(dp293
g6
g1
(g7
g3
NtRp294
(dp295
g10
g1
(g11
g12
(dtRp296
sg14
g1
(g11
g12
(dtRp297
sg16
g1
(g11
g12
(dtRp298
sg18
g1
(g11
g12
(dtRp299
sg20
g1
(g11
g12
(dtRp300
sg22
g1
(g11
g12
(dtRp301
sbsg24
g25
sg26
g27
((lp302
g33
ag32
ag29
ag30
atRp303
sg37
(lp304
g1
(g2
g3
NtRp305
(dp306
g6
g1
(g7
g3
NtRp307
(dp308
g10
g1
(g11
g12
(dtRp309
sg14
g1
(g11
g12
(dtRp310
sg16
g1
(g11
g12
(dtRp311
sg18
g1
(g11
g12
(dtRp312
sg20
g1
(g11
g12
(dtRp313
sg22
g1
(g11
g12
(dtRp314
sbsg24
g25
sg26
g27
((lp315
g33
ag32
ag29
ag30
atRp316
sg37
(lp317
g1
(g2
g3
NtRp318
(dp319
g6
g1
(g7
g3
NtRp320
(dp321
g10
g1
(g11
g12
(dtRp322
sg14
g1
(g11
g12
(dtRp323
sg16
g1
(g11
g12
(dtRp324
sg18
g1
(g11
g12
(dtRp325
sg20
g1
(g11
g12
(dtRp326
sg22
g1
(g11
g12
(dtRp327
sbsg24
S'Mst'
p328
sg26
g27
((lp329
g29
ag30
aS'sequence'
p330
ag32
ag33
aS'species'
p331
atRp332
sg37
(lp333
sg120
g305
sg121
S'RWLSTKDLYSRLELPTLNQNVHAMFVMPSGFGNPMGDMLARLNNSFWLVPVSLEGAGTGWTVYPPLSHSGASVDLVFHMSSSLLGAINFTNMRGTLFWTALLLLSLPVLSGTLLDRNFNTFEGGDPLYHLFWFFGHPEVYIIPGFGSHSTYKKFGMYASMGLGFVWSHHMYVGLDDRAYFTSATMMAPTGVKFSWLATYGGRPFLAFMFLFTGGTGVLNASDAFHDTYYVVHFHYVLSLGAFSLGYYFWPGLYNLFMFNFPLHFLGGMPRRPYPDAGWNSGSSYQLGPDESNEPH'
p334
sg123
F0.087190000000000004
sg124
g125
sg33
S'166'
p335
sg127
g1
(g128
g12
(dp336
g130
I4
sg131
g132
sg133
g134
sg135
g132
sg136
I01
sg34
g137
sg138
g134
sg139
I0
sg140
I0
sg141
I0
sg142
g134
sg35
g143
sg144
I0
stRp337
sg146
g147
sg148
F1
sg149
Nsg30
S'MstarA'
p338
sbag1
(g2
g3
NtRp339
(dp340
g6
g1
(g7
g3
NtRp341
(dp342
g10
g1
(g11
g12
(dtRp343
sg14
g1
(g11
g12
(dtRp344
sg16
g1
(g11
g12
(dtRp345
sg18
g1
(g11
g12
(dtRp346
sg20
g1
(g11
g12
(dtRp347
sg22
g1
(g11
g12
(dtRp348
sbsg24
S'Min'
p349
sg26
g27
((lp350
g29
ag30
aS'sequence'
p351
ag32
ag33
aS'species'
p352
atRp353
sg37
(lp354
sg120
g305
sg121
S'RWLSTKDLYSRLELPTLNQNVHAMFVMPAGFGNPMGDMLARLNNSFWLVPVSLEGAGTGWTVYPPLSHSGPSVDLVFHISSSLLGSMNFTNMRGTLFWTSLLLLSLPVLSGTLLDRNFNTFEGGDPLYHLFYKMMLFSMYMMPGFGSHSAYKKFGMYASIGLGFVWSHHMYVGLDDRAYFTSATMIAPTGVKFSWLATYGGRPFLAFMFLFTGGTGVLNASDAFHDTYYVVHFHYVLSLGAFSLGYYFWPGLYNLFTFNFPLHFLGGMPRRPYPDAGWNSGSSYQLGPDESNEPH'
p355
sg123
F0.040719999999999999
sg124
g125
sg33
S'170'
p356
sg127
g1
(g128
g12
(dp357
g130
I4
sg131
g132
sg133
g134
sg135
g132
sg136
I01
sg34
g137
sg138
g134
sg139
I0
sg140
I0
sg141
I0
sg142
g134
sg35
g143
sg144
I0
stRp358
sg146
g147
sg148
F1
sg149
Nsg30
S'MingeA'
p359
sbasg120
g292
sg123
F0.037420000000000002
sg124
g125
sg33
S'75'
p360
sg127
g1
(g128
g12
(dp361
g130
I6
sg131
g132
sg133
g134
sg135
g132
sg136
I01
sg34
g174
sg138
g134
sg139
I0
sg140
I0
sg141
I0
sg142
g134
sg35
g175
sg144
I0
stRp362
sg146
g147
sg148
F0.98999999999999999
sg149
Nsg30
S'NoName'
p363
sbag1
(g2
g3
NtRp364
(dp365
g6
g1
(g7
g3
NtRp366
(dp367
g10
g1
(g11
g12
(dtRp368
sg14
g1
(g11
g12
(dtRp369
sg16
g1
(g11
g12
(dtRp370
sg18
g1
(g11
g12
(dtRp371
sg20
g1
(g11
g12
(dtRp372
sg22
g1
(g11
g12
(dtRp373
sbsg24
g25
sg26
g27
((lp374
g33
ag32
ag29
ag30
atRp375
sg37
(lp376
g1
(g2
g3
NtRp377
(dp378
g6
g1
(g7
g3
NtRp379
(dp380
g10
g1
(g11
g12
(dtRp381
sg14
g1
(g11
g12
(dtRp382
sg16
g1
(g11
g12
(dtRp383
sg18
g1
(g11
g12
(dtRp384
sg20
g1
(g11
g12
(dtRp385
sg22
g1
(g11
g12
(dtRp386
sbsg24
g25
sg26
g27
((lp387
g33
ag32
ag29
ag30
atRp388
sg37
(lp389
g1
(g2
g3
NtRp390
(dp391
g6
g1
(g7
g3
NtRp392
(dp393
g10
g1
(g11
g12
(dtRp394
sg14
g1
(g11
g12
(dtRp395
sg16
g1
(g11
g12
(dtRp396
sg18
g1
(g11
g12
(dtRp397
sg20
g1
(g11
g12
(dtRp398
sg22
g1
(g11
g12
(dtRp399
sbsg24
S'Mte'
p400
sg26
g27
((lp401
g29
ag30
aS'sequence'
p402
ag32
ag33
aS'species'
p403
atRp404
sg37
(lp405
sg120
g377
sg121
S'RWLSTKDLYSRLELPTLNQNVHAMFVMPAGFGNPMGDMLARLNNSFWLVPLSLEGAGTGWTVYPPLSHSGPSVDMVFHISSSLLGAINFTNMRGTLFWTALLLLSLPVLSGTLLDRNFNTFEGGDPLYHLFWFFGHPEVYIIPGFGSHSAYKKFGMYASIGLGFVWSHHMYVGLDDRAYFTSATMIAPTGVKFSWLATYGGRPFLAFIFLFTGGTGVLNASDAFHDTYYVVHFHYVLSLGAFSLGYYFWPGLYNLFYFNFPMHALGGMPRRPYPDAGWNSGSSYQLGPDESNEPH'
p406
sg123
F0.042599999999999999
sg124
g125
sg33
S'181'
p407
sg127
g1
(g128
g12
(dp408
g130
I4
sg131
g132
sg133
g134
sg135
g132
sg136
I01
sg34
g137
sg138
g134
sg139
I0
sg140
I0
sg141
I0
sg142
g134
sg35
g143
sg144
I0
stRp409
sg146
g147
sg148
F1
sg149
Nsg30
S'MtetrA'
p410
sbag1
(g2
g3
NtRp411
(dp412
g6
g1
(g7
g3
NtRp413
(dp414
g10
g1
(g11
g12
(dtRp415
sg14
g1
(g11
g12
(dtRp416
sg16
g1
(g11
g12
(dtRp417
sg18
g1
(g11
g12
(dtRp418
sg20
g1
(g11
g12
(dtRp419
sg22
g1
(g11
g12
(dtRp420
sbsg24
g25
sg26
g27
((lp421
g33
ag32
ag29
ag30
atRp422
sg37
(lp423
g1
(g2
g3
NtRp424
(dp425
g6
g1
(g7
g3
NtRp426
(dp427
g10
g1
(g11
g12
(dtRp428
sg14
g1
(g11
g12
(dtRp429
sg16
g1
(g11
g12
(dtRp430
sg18
g1
(g11
g12
(dtRp431
sg20
g1
(g11
g12
(dtRp432
sg22
g1
(g11
g12
(dtRp433
sbsg24
S'Mma'
p434
sg26
g27
((lp435
g29
ag30
aS'sequence'
p436
ag32
ag33
aS'species'
p437
atRp438
sg37
(lp439
sg120
g411
sg121
S'RWLSTKDLYSRLELPTLNQNVHAMFVMPAGFGNPMGDMLARLNNSFWLVPLSLEGPGTGWTVYPPLSHSGPSVDMVFHISSSLLGAINFTNMRGTLFWTALLLLSLPVLSGTLLDRNFNTFEGGDPLYHLFWFFGHPEVYIIPGFGSHSAYKKFGMYASIGLGFVWSHHMYVGLDDRAYFTSATMIAPTGVKFSWLATYGGRPFLAFIFLFTGGTGVLNASDAFHDSYYVVHFHYVLSLGAFSLGYYFWPGLYNLFFFNFPMHALGGMPRRPYPDAGWNSGSSYQLGPDESNEPH'
p440
sg123
F0.00055000000000000003
sg124
g125
sg33
S'176'
p441
sg127
g1
(g128
g12
(dp442
g130
I4
sg131
g132
sg133
g134
sg135
g132
sg136
I01
sg34
g137
sg138
g134
sg139
I0
sg140
I0
sg141
I0
sg142
g134
sg35
g143
sg144
I0
stRp443
sg146
g147
sg148
F1
sg149
Nsg30
S'MmagnB'
p444
sbag1
(g2
g3
NtRp445
(dp446
g6
g1
(g7
g3
NtRp447
(dp448
g10
g1
(g11
g12
(dtRp449
sg14
g1
(g11
g12
(dtRp450
sg16
g1
(g11
g12
(dtRp451
sg18
g1
(g11
g12
(dtRp452
sg20
g1
(g11
g12
(dtRp453
sg22
g1
(g11
g12
(dtRp454
sbsg24
S'Mma'
p455
sg26
g27
((lp456
g29
ag30
aS'sequence'
p457
ag32
ag33
aS'species'
p458
atRp459
sg37
(lp460
sg120
g411
sg121
S'RWLSTKDLYSRLELPTLNQNVHAMFVMPAGFGNPMGDMLARLNNSFWLVPLSLEGPGTGWTVYPPLSHSGPSVDMVFHISSSLLGAINFTNMRGTLFWTALLLLSLPVLSGTLLDRNFNTFEGGDPLYHLFWFFGHPEVYIIPGFGSHSAYKKFGMYASIGLGFVWSHHMYVGLDDRAYFTSATMIAPTGVKFSWLATYGGRPFLAFIFLFTGGTGVLNASDAFHDSYYVVHFHYVLSLGAFSLGYYFWPGLYNLFFFNFPMHALGGMPRRPYPDAGWNSGSSYQLGPDESNEPH'
p461
sg123
F0.00088000000000000003
sg124
g125
sg33
S'178'
p462
sg127
g1
(g128
g12
(dp463
g130
I4
sg131
g132
sg133
g134
sg135
g132
sg136
I01
sg34
g137
sg138
g134
sg139
I0
sg140
I0
sg141
I0
sg142
g134
sg35
g143
sg144
I0
stRp464
sg146
g147
sg148
F1
sg149
Nsg30
S'MmagnA'
p465
sbasg120
g377
sg123
F0.011140000000000001
sg124
g125
sg33
S'165'
p466
sg127
g1
(g128
g12
(dp467
g130
I6
sg131
g132
sg133
g134
sg135
g132
sg136
I01
sg34
g174
sg138
g134
sg139
I0
sg140
I0
sg141
I0
sg142
g134
sg35
g175
sg144
I0
stRp468
sg146
g147
sg148
F0.98999999999999999
sg149
Nsg30
S'NoName'
p469
sbasg120
g364
sg123
F0.11189
sg124
g125
sg33
S'162'
p470
sg127
g1
(g128
g12
(dp471
g130
I6
sg131
g132
sg133
g134
sg135
g132
sg136
I01
sg34
g174
sg138
g134
sg139
I0
sg140
I0
sg141
I0
sg142
g134
sg35
g175
sg144
I0
stRp472
sg146
g147
sg148
F0.98999999999999999
sg149
Nsg30
S'NoName'
p473
sbag1
(g2
g3
NtRp474
(dp475
g6
g1
(g7
g3
NtRp476
(dp477
g10
g1
(g11
g12
(dtRp478
sg14
g1
(g11
g12
(dtRp479
sg16
g1
(g11
g12
(dtRp480
sg18
g1
(g11
g12
(dtRp481
sg20
g1
(g11
g12
(dtRp482
sg22
g1
(g11
g12
(dtRp483
sbsg24
g25
sg26
g27
((lp484
g33
ag32
ag29
ag30
atRp485
sg37
(lp486
g1
(g2
g3
NtRp487
(dp488
g6
g1
(g7
g3
NtRp489
(dp490
g10
g1
(g11
g12
(dtRp491
sg14
g1
(g11
g12
(dtRp492
sg16
g1
(g11
g12
(dtRp493
sg18
g1
(g11
g12
(dtRp494
sg20
g1
(g11
g12
(dtRp495
sg22
g1
(g11
g12
(dtRp496
sbsg24
S'Scl'
p497
sg26
g27
((lp498
g29
ag30
aS'sequence'
p499
ag32
ag33
aS'species'
p500
atRp501
sg37
(lp502
sg120
g474
sg121
S'RWLSTKDLYSRLELPTLNQNVHAMFVMPAGFGNPMGDMLARLNNSFWLVPLSLEGPGTGWTVYPPLSHSGPSVDMVFHMSSSLLGAINFTNMRGTLFWTALLLLSLPVLAGTLLDRNFNTFEGGDPLYHLFWFFGHPEVYMIPGFGSHSTYKKFGMYASMGLGFVWSHHMYVGLDDRAYFTAATMIAPTGVKFSWLATYGGRPFLTFMFLFTGGTGVLNASDAFHDTYYVVHFHYVLSLGAFSLGYYFWPGLYNLFMFNFPLHFLGGMPRRPYPDAGWNSGSSYQLGPDESNEPH'
p503
sg123
F0.020899999999999998
sg124
g125
sg33
S'180'
p504
sg127
g1
(g128
g12
(dp505
g130
I4
sg131
g132
sg133
g134
sg135
g132
sg136
I01
sg34
g137
sg138
g134
sg139
I0
sg140
I0
sg141
I0
sg142
g134
sg35
g143
sg144
I0
stRp506
sg146
g147
sg148
F1
sg149
Nsg30
S'SclavA'
p507
sbag1
(g2
g3
NtRp508
(dp509
g6
g1
(g7
g3
NtRp510
(dp511
g10
g1
(g11
g12
(dtRp512
sg14
g1
(g11
g12
(dtRp513
sg16
g1
(g11
g12
(dtRp514
sg18
g1
(g11
g12
(dtRp515
sg20
g1
(g11
g12
(dtRp516
sg22
g1
(g11
g12
(dtRp517
sbsg24
S'Msp'
p518
sg26
g27
((lp519
g29
ag30
aS'sequence'
p520
ag32
ag33
aS'species'
p521
atRp522
sg37
(lp523
sg120
g474
sg121
S'RWLSTKDLYSRLELPTLNQNVHAMFVMPAGFGNPMGDMLARLNNSFWLVPLSLEGPGTGWTVYPPLSHSGPSVDMVFHMSSSLLGAMNFTNMRGTLFWTALLLLSLPVLAGTLLDRNFNTFEGGDPLYHLFWFFGHPEVYMIPGFGSHSTYKKFGMYASMGLGFVWSHHMYVGLDDRAYFTAATMIAPTGVKFSWLATYGGRPFLTFMFLFTGGTGVLNASDAFHDTYYVVHFHYVLSLGAFSLGYYFWPGLYNLFMFNFPLHFLGGMPRRPYPDAGWNSGSSYQLGPDESNEPH'
p524
sg123
F0.13538
sg124
g125
sg33
S'103'
p525
sg127
g1
(g128
g12
(dp526
g130
I4
sg131
g132
sg133
g134
sg135
g132
sg136
I01
sg34
g137
sg138
g134
sg139
I0
sg140
I0
sg141
I0
sg142
g134
sg35
g143
sg144
I0
stRp527
sg146
g147
sg148
F1
sg149
Nsg30
S'MspicA'
p528
sbasg120
g364
sg123
F0.10536
sg124
g125
sg33
S'190'
p529
sg127
g1
(g128
g12
(dp530
g130
I6
sg131
g132
sg133
g134
sg135
g132
sg136
I01
sg34
g174
sg138
g134
sg139
I0
sg140
I0
sg141
I0
sg142
g134
sg35
g175
sg144
I0
stRp531
sg146
g147
sg148
F0.98999999999999999
sg149
Nsg30
S'NoName'
p532
sbasg120
g292
sg123
F0.03209
sg124
g125
sg33
S'65'
p533
sg127
g1
(g128
g12
(dp534
g130
I6
sg131
g132
sg133
g134
sg135
g132
sg136
I01
sg34
g174
sg138
g134
sg139
I0
sg140
I0
sg141
I0
sg142
g134
sg35
g175
sg144
I0
stRp535
sg146
g147
sg148
F0.98999999999999999
sg149
Nsg30
S'NoName'
p536
sbasg120
g279
sg123
F0.32869999999999999
sg124
g125
sg33
S'161'
p537
sg127
g1
(g128
g12
(dp538
g130
I6
sg131
g132
sg133
g134
sg135
g132
sg136
I01
sg34
g174
sg138
g134
sg139
I0
sg140
I0
sg141
I0
sg142
g134
sg35
g175
sg144
I0
stRp539
sg146
g147
sg148
F0.98999999999999999
sg149
Nsg30
S'NoName'
p540
sbag1
(g2
g3
NtRp541
(dp542
g6
g1
(g7
g3
NtRp543
(dp544
g10
g1
(g11
g12
(dtRp545
sg14
g1
(g11
g12
(dtRp546
sg16
g1
(g11
g12
(dtRp547
sg18
g1
(g11
g12
(dtRp548
sg20
g1
(g11
g12
(dtRp549
sg22
g1
(g11
g12
(dtRp550
sbsg24
g25
sg26
g27
((lp551
g33
ag32
ag29
ag30
atRp552
sg37
(lp553
g1
(g2
g3
NtRp554
(dp555
g6
g1
(g7
g3
NtRp556
(dp557
g10
g1
(g11
g12
(dtRp558
sg14
g1
(g11
g12
(dtRp559
sg16
g1
(g11
g12
(dtRp560
sg18
g1
(g11
g12
(dtRp561
sg20
g1
(g11
g12
(dtRp562
sg22
g1
(g11
g12
(dtRp563
sbsg24
g25
sg26
g27
((lp564
g33
ag32
ag29
ag30
atRp565
sg37
(lp566
g1
(g2
g3
NtRp567
(dp568
g6
g1
(g7
g3
NtRp569
(dp570
g10
g1
(g11
g12
(dtRp571
sg14
g1
(g11
g12
(dtRp572
sg16
g1
(g11
g12
(dtRp573
sg18
g1
(g11
g12
(dtRp574
sg20
g1
(g11
g12
(dtRp575
sg22
g1
(g11
g12
(dtRp576
sbsg24
S'Cze'
p577
sg26
g27
((lp578
g29
ag30
aS'sequence'
p579
ag32
ag33
aS'species'
p580
atRp581
sg37
(lp582
sg120
g554
sg121
S'SWLSTQNLYSRIELPNLNQNVHAMFVMPTGLANPQGDTFPRMNNAFVLLPMSLDGPGSGWTLYPPLTHSGSSMDMAFHLSSSIFGAINLTNMRGPLFWTALMMLALPVLAGTLLDRNFNTFVGGDPLYHIFWFFGHPEVYIIPVFGSQQVYKKFGMYASIGLGFVWSHHMFVGLDDRAYFSGASLIAPTGSKFSWLATYGGRPLLAFMVLFTGGTGVMNSSDMFHDTYYVVHFHYVLSLGVFGVAYYFWPGLYNLFWFNFPLHFLGGLPRRPYPDAGWNSGSSYQFGPDESNEPH'
p583
sg123
F1.5682799999999999
sg124
g125
sg33
S'189'
p584
sg127
g1
(g128
g12
(dp585
g130
I4
sg131
g132
sg133
g134
sg135
g132
sg136
I01
sg34
g137
sg138
g134
sg139
I0
sg140
I0
sg141
I0
sg142
g134
sg35
g143
sg144
I0
stRp586
sg146
g147
sg148
F1
sg149
Nsg30
S'CzempA'
p587
sbag1
(g2
g3
NtRp588
(dp589
g6
g1
(g7
g3
NtRp590
(dp591
g10
g1
(g11
g12
(dtRp592
sg14
g1
(g11
g12
(dtRp593
sg16
g1
(g11
g12
(dtRp594
sg18
g1
(g11
g12
(dtRp595
sg20
g1
(g11
g12
(dtRp596
sg22
g1
(g11
g12
(dtRp597
sbsg24
g25
sg26
g27
((lp598
g33
ag32
ag29
ag30
atRp599
sg37
(lp600
g1
(g2
g3
NtRp601
(dp602
g6
g1
(g7
g3
NtRp603
(dp604
g10
g1
(g11
g12
(dtRp605
sg14
g1
(g11
g12
(dtRp606
sg16
g1
(g11
g12
(dtRp607
sg18
g1
(g11
g12
(dtRp608
sg20
g1
(g11
g12
(dtRp609
sg22
g1
(g11
g12
(dtRp610
sbsg24
S'Csa'
p611
sg26
g27
((lp612
g29
ag30
aS'sequence'
p613
ag32
ag33
aS'species'
p614
atRp615
sg37
(lp616
sg120
g588
sg121
S'----------RLELPNLNQNVHAMFVMPSGFGNPMGDMLARLNNSFWLVPLSLDGPGTGWTMYPPLSHSGASVDLVFHISSSLLGAMNFTNMRGTLFWTALLLLSLPVLSGTLLDRNFNTFEGGDMLYHMFWFFGHPEVYMMPGFGSQSVYKKFGMYASMGLGFVWSHHMFVGLDDRAYFTAATLMAPTGVKFSWLASYGGRPLLAFMFLFTGGTGVLNASDAFHDTYYVVHFHYVLSLGAFSLGYYFWPGLYNLFWFNFPQHFLGAMPRRPYPDAGWNSGSSYQMGPDFSNEPH'
p617
sg123
F0.65920000000000001
sg124
g125
sg33
S'206'
p618
sg127
g1
(g128
g12
(dp619
g130
I4
sg131
g132
sg133
g134
sg135
g132
sg136
I01
sg34
g137
sg138
g134
sg139
I0
sg140
I0
sg141
I0
sg142
g134
sg35
g143
sg144
I0
stRp620
sg146
g147
sg148
F1
sg149
Nsg30
S'CsantA'
p621
sbag1
(g2
g3
NtRp622
(dp623
g6
g1
(g7
g3
NtRp624
(dp625
g10
g1
(g11
g12
(dtRp626
sg14
g1
(g11
g12
(dtRp627
sg16
g1
(g11
g12
(dtRp628
sg18
g1
(g11
g12
(dtRp629
sg20
g1
(g11
g12
(dtRp630
sg22
g1
(g11
g12
(dtRp631
sbsg24
S'Csa'
p632
sg26
g27
((lp633
g29
ag30
aS'sequence'
p634
ag32
ag33
aS'species'
p635
atRp636
sg37
(lp637
sg120
g588
sg121
S'RWLSTKDLYSRLELPAMSQNVHAMFVMPSGFANPMGDTLPRVNNAAILMPMSLEGPGTGWTVYPPLSHSGVSVDLVFHISSSLAGAMNLTNMRGPLFWTALLLLSLPVLAGTLIDRNFNTFDGGDVLYHLFWFFGHPEVYIIPGFGSESRYNKFGMYASIGLGFVWSHHMYVGLDDRSYFTAATLIAPTGVKFSWMATFGGRPFLTFLALFTGGTGVLNASDAFHDTYYVVHFHYVLSLGAFSMGYYYWPGLYNLFWFNFPQHFLGGQPRRSYPDAGWNSGSSYQLGPDESNEPH'
p638
sg123
F1.3581099999999999
sg124
g125
sg33
S'201'
p639
sg127
g1
(g128
g12
(dp640
g130
I4
sg131
g132
sg133
g134
sg135
g132
sg136
I01
sg34
g137
sg138
g134
sg139
I0
sg140
I0
sg141
I0
sg142
g134
sg35
g143
sg144
I0
stRp641
sg146
g147
sg148
F1
sg149
Nsg30
S'CsalmA'
p642
sbasg120
g554
sg123
F0.19968
sg124
g125
sg33
S'186'
p643
sg127
g1
(g128
g12
(dp644
g130
I6
sg131
g132
sg133
g134
sg135
g132
sg136
I01
sg34
g174
sg138
g134
sg139
I0
sg140
I0
sg141
I0
sg142
g134
sg35
g175
sg144
I0
stRp645
sg146
g147
sg148
F0.97999999999999998
sg149
Nsg30
S'NoName'
p646
sbasg120
g541
sg123
F0.14363999999999999
sg124
g125
sg33
S'183'
p647
sg127
g1
(g128
g12
(dp648
g130
I6
sg131
g132
sg133
g134
sg135
g132
sg136
I01
sg34
g174
sg138
g134
sg139
I0
sg140
I0
sg141
I0
sg142
g134
sg35
g175
sg144
I0
stRp649
sg146
g147
sg148
F0.93000000000000005
sg149
Nsg30
S'NoName'
p650
sbag1
(g2
g3
NtRp651
(dp652
g6
g1
(g7
g3
NtRp653
(dp654
g10
g1
(g11
g12
(dtRp655
sg14
g1
(g11
g12
(dtRp656
sg16
g1
(g11
g12
(dtRp657
sg18
g1
(g11
g12
(dtRp658
sg20
g1
(g11
g12
(dtRp659
sg22
g1
(g11
g12
(dtRp660
sbsg24
S'Bar'
p661
sg26
g27
((lp662
g29
ag30
aS'sequence'
p663
ag32
ag33
aS'species'
p664
atRp665
sg37
(lp666
sg120
g541
sg121
S'RWLSTKDLYSRLELPNLNQNSHAMFVMPTGFGNPMGDMLSRLNNSFWLVPLSLEGPGTGWTVYPPLSHSGPSVDLVFHVSSSLLGAMNFTNMRGTLFWTVLLLLALPVLAGTLLDRNFNTFEGGDPLYHMFWFFGHPEVYIIPGFGSQAVYNKFGMYASIGLGFVWSHHMYVGMDDRAYFTAATLIAPTGVKFSWLASYGGRPLLTFIGLFTGGTGVLNAADAFHDSYYVVHFHYVLSLGAFSLGYYFWPGLYNLFWFNFPQHFLGSMPRRPYPDAGWNSGSSVQLGPDVNNEPH'
p667
sg123
F0.74575000000000002
sg124
g125
sg33
S'209'
p668
sg127
g1
(g128
g12
(dp669
g130
I4
sg131
g132
sg133
g134
sg135
g132
sg136
I01
sg34
g137
sg138
g134
sg139
I0
sg140
I0
sg141
I0
sg142
g134
sg35
g143
sg144
I0
stRp670
sg146
g147
sg148
F1
sg149
Nsg30
S'BarxA'
p671
sbasg120
g279
sg123
F0.25233
sg124
g125
sg33
S'174'
p672
sg127
g1
(g128
g12
(dp673
g130
I6
sg131
g132
sg133
g134
sg135
g132
sg136
I01
sg34
g174
sg138
g134
sg139
I0
sg140
I0
sg141
I0
sg142
g134
sg35
g175
sg144
I0
stRp674
sg146
g147
sg148
F0.97999999999999998
sg149
Nsg30
S'NoName'
p675
sbasg120
g266
sg123
F0.42224
sg124
g125
sg33
S'56'
p676
sg127
g1
(g128
g12
(dp677
g130
I6
sg131
g132
sg133
g134
sg135
g132
sg136
I01
sg34
g174
sg138
g134
sg139
I0
sg140
I0
sg141
I0
sg142
g134
sg35
g175
sg144
I0
stRp678
sg146
g147
sg148
F0.97999999999999998
sg149
Nsg30
S'NoName'
p679
sbag1
(g2
g3
NtRp680
(dp681
g6
g1
(g7
g3
NtRp682
(dp683
g10
g1
(g11
g12
(dtRp684
sg14
g1
(g11
g12
(dtRp685
sg16
g1
(g11
g12
(dtRp686
sg18
g1
(g11
g12
(dtRp687
sg20
g1
(g11
g12
(dtRp688
sg22
g1
(g11
g12
(dtRp689
sbsg24
g25
sg26
g27
((lp690
g33
ag32
ag29
ag30
atRp691
sg37
(lp692
g1
(g2
g3
NtRp693
(dp694
g6
g1
(g7
g3
NtRp695
(dp696
g10
g1
(g11
g12
(dtRp697
sg14
g1
(g11
g12
(dtRp698
sg16
g1
(g11
g12
(dtRp699
sg18
g1
(g11
g12
(dtRp700
sg20
g1
(g11
g12
(dtRp701
sg22
g1
(g11
g12
(dtRp702
sbsg24
g25
sg26
g27
((lp703
g33
ag32
ag29
ag30
atRp704
sg37
(lp705
g1
(g2
g3
NtRp706
(dp707
g6
g1
(g7
g3
NtRp708
(dp709
g10
g1
(g11
g12
(dtRp710
sg14
g1
(g11
g12
(dtRp711
sg16
g1
(g11
g12
(dtRp712
sg18
g1
(g11
g12
(dtRp713
sg20
g1
(g11
g12
(dtRp714
sg22
g1
(g11
g12
(dtRp715
sbsg24
g25
sg26
g27
((lp716
g33
ag32
ag29
ag30
atRp717
sg37
(lp718
g1
(g2
g3
NtRp719
(dp720
g6
g1
(g7
g3
NtRp721
(dp722
g10
g1
(g11
g12
(dtRp723
sg14
g1
(g11
g12
(dtRp724
sg16
g1
(g11
g12
(dtRp725
sg18
g1
(g11
g12
(dtRp726
sg20
g1
(g11
g12
(dtRp727
sg22
g1
(g11
g12
(dtRp728
sbsg24
g25
sg26
g27
((lp729
g33
ag32
ag29
ag30
atRp730
sg37
(lp731
g1
(g2
g3
NtRp732
(dp733
g6
g1
(g7
g3
NtRp734
(dp735
g10
g1
(g11
g12
(dtRp736
sg14
g1
(g11
g12
(dtRp737
sg16
g1
(g11
g12
(dtRp738
sg18
g1
(g11
g12
(dtRp739
sg20
g1
(g11
g12
(dtRp740
sg22
g1
(g11
g12
(dtRp741
sbsg24
S'Mfa'
p742
sg26
g27
((lp743
g29
ag30
aS'sequence'
p744
ag32
ag33
aS'species'
p745
atRp746
sg37
(lp747
sg120
g719
sg121
S'RWLSTKDLYSRLELGNLNQNVHAMFVMPLGFGNPLGDMFARLNNSFWLPPLSLEGAGTGWTVYPPLSHSGPSVDLAFHLTSSLLGAINFTNMRGPLFWTALLLLSLPVLAGTLLDRNFNTFEGGDPLYHLFWFFGHPEVYIIPGFGSHSTYKKFGMYASIGLGFVWSHHMYVGLDDRAYFTSATMIAPTGIKFSWLATYGGRPMLAFLFLFTGGTGVLNASDAFHDTYFVVHFHYVLSMGAFSLAYYYWPGLYNLFWFNFPMHFLGGMPRRPYPDAGWNSGSSYQMGPDESNEPH'
p748
sg123
F0.14163999999999999
sg124
g125
sg33
S'212'
p749
sg127
g1
(g128
g12
(dp750
g130
I4
sg131
g132
sg133
g134
sg135
g132
sg136
I01
sg34
g137
sg138
g134
sg139
I0
sg140
I0
sg141
I0
sg142
g134
sg35
g143
sg144
I0
stRp751
sg146
g147
sg148
F1
sg149
Nsg30
S'MfariB'
p752
sbag1
(g2
g3
NtRp753
(dp754
g6
g1
(g7
g3
NtRp755
(dp756
g10
g1
(g11
g12
(dtRp757
sg14
g1
(g11
g12
(dtRp758
sg16
g1
(g11
g12
(dtRp759
sg18
g1
(g11
g12
(dtRp760
sg20
g1
(g11
g12
(dtRp761
sg22
g1
(g11
g12
(dtRp762
sbsg24
S'Csa'
p763
sg26
g27
((lp764
g29
ag30
aS'sequence'
p765
ag32
ag33
aS'species'
p766
atRp767
sg37
(lp768
sg120
g719
sg121
S'RWLSTKDLYSRLELGNFNQNVHAMFVMPLGFGNPLGDMFARLNNSFWLPPLSLEGAGTGWTVYPPLSHSGPSVDLAFHLTSSLLGAINFTNMRGPLFWTALLLLSLPVLAATLLDRNFNTFEGGDPLYHLFWFFGHPEVYIIPGFGSHSTYKKFGMYASMGLGFVWSHHMYVGLDDRAYFTSATMIAPTGMKFSWLATYGGRPMLAFLFLFTGGTGVLNASDAFHDTYYVVHFHYVLSMGAFSLAYYYWPGLYNWFWFNFPMHFLGGMPRRPYPDAGWNSGSSYQMGPDESNEPH'
p769
sg123
F0.069970000000000004
sg124
g125
sg33
S'214'
p770
sg127
g1
(g128
g12
(dp771
g130
I4
sg131
g132
sg133
g134
sg135
g132
sg136
I01
sg34
g137
sg138
g134
sg139
I0
sg140
I0
sg141
I0
sg142
g134
sg35
g143
sg144
I0
stRp772
sg146
g147
sg148
F1
sg149
Nsg30
S'CsakeA'
p773
sbasg120
g706
sg123
F0.048980000000000003
sg124
g125
sg33
S'215'
p774
sg127
g1
(g128
g12
(dp775
g130
I6
sg131
g132
sg133
g134
sg135
g132
sg136
I01
sg34
g174
sg138
g134
sg139
I0
sg140
I0
sg141
I0
sg142
g134
sg35
g175
sg144
I0
stRp776
sg146
g147
sg148
F0.98999999999999999
sg149
Nsg30
S'NoName'
p777
sbag1
(g2
g3
NtRp778
(dp779
g6
g1
(g7
g3
NtRp780
(dp781
g10
g1
(g11
g12
(dtRp782
sg14
g1
(g11
g12
(dtRp783
sg16
g1
(g11
g12
(dtRp784
sg18
g1
(g11
g12
(dtRp785
sg20
g1
(g11
g12
(dtRp786
sg22
g1
(g11
g12
(dtRp787
sbsg24
g25
sg26
g27
((lp788
g33
ag32
ag29
ag30
atRp789
sg37
(lp790
g1
(g2
g3
NtRp791
(dp792
g6
g1
(g7
g3
NtRp793
(dp794
g10
g1
(g11
g12
(dtRp795
sg14
g1
(g11
g12
(dtRp796
sg16
g1
(g11
g12
(dtRp797
sg18
g1
(g11
g12
(dtRp798
sg20
g1
(g11
g12
(dtRp799
sg22
g1
(g11
g12
(dtRp800
sbsg24
g25
sg26
g27
((lp801
g33
ag32
ag29
ag30
atRp802
sg37
(lp803
g1
(g2
g3
NtRp804
(dp805
g6
g1
(g7
g3
NtRp806
(dp807
g10
g1
(g11
g12
(dtRp808
sg14
g1
(g11
g12
(dtRp809
sg16
g1
(g11
g12
(dtRp810
sg18
g1
(g11
g12
(dtRp811
sg20
g1
(g11
g12
(dtRp812
sg22
g1
(g11
g12
(dtRp813
sbsg24
S'Mfa'
p814
sg26
g27
((lp815
g29
ag30
aS'sequence'
p816
ag32
ag33
aS'species'
p817
atRp818
sg37
(lp819
sg120
g791
sg121
S'RWLSTKDLYSRAELGNFNHNVHAMFVMPLGFGNPMGDMFARLNNSFWLPPLSLEGAGTGWTVYPPLSHSGPSVDLAFHLTSSLLGAMNFTNMRGPLFWTALLLLSLPVLAGTLLDRNFNTFEGGDPLYHLFWFFGHPEVYIIPGFGSHSTYKKFGMYASMGLGFVWSHHMYVGLDDRAYFTSATMMAPTGIKFSWLATYGGRPMLAFLFLFTGGTGVLNASDAFHDTYYMYHFHYVLSMGAFSLGYYYWPGLYNWFWFNFPMHFLGGMPRRPYPDAGWNSGSSKQLGPDESNEPH'
p820
sg123
F0.29086000000000001
sg124
g125
sg33
S'115'
p821
sg127
g1
(g128
g12
(dp822
g130
I4
sg131
g132
sg133
g134
sg135
g132
sg136
I01
sg34
g137
sg138
g134
sg139
I0
sg140
I0
sg141
I0
sg142
g134
sg35
g143
sg144
I0
stRp823
sg146
g147
sg148
F1
sg149
Nsg30
S'MfariA'
p824
sbag1
(g2
g3
NtRp825
(dp826
g6
g1
(g7
g3
NtRp827
(dp828
g10
g1
(g11
g12
(dtRp829
sg14
g1
(g11
g12
(dtRp830
sg16
g1
(g11
g12
(dtRp831
sg18
g1
(g11
g12
(dtRp832
sg20
g1
(g11
g12
(dtRp833
sg22
g1
(g11
g12
(dtRp834
sbsg24
S'Dha'
p835
sg26
g27
((lp836
g29
ag30
aS'sequence'
p837
ag32
ag33
aS'species'
p838
atRp839
sg37
(lp840
sg120
g791
sg121
S'RWLSTKDLYSRMELGNFNQNVHAMFIMPWGFGNPLGDMFARLNNSFWLPPLSLEGAGTGWTLYPPLSHSGPSVDLAFHLTSSLLGAMNFTNMRGPLFWTALLLLSLPVLAATLLDRNFNTFEGGDPLYHLFWFFGHPEVYIMPGFGSHSTYKKFGMYASIGLGFVWSHHMFVGLDDRAYFTSATMIAPTGIKFSWLATYGGRPMLAFLFLFTGGTGVLNASDAFHDTYYVVHFHYVLSMGAFSLAYYYWPGLYNLFWFNFPMHFLGGMPRRPYPDAGWNSGSSKQLGPDESNDPH'
p841
sg123
F0.11043
sg124
g125
sg33
S'138'
p842
sg127
g1
(g128
g12
(dp843
g130
I4
sg131
g132
sg133
g134
sg135
g132
sg136
I01
sg34
g137
sg138
g134
sg139
I0
sg140
I0
sg141
I0
sg142
g134
sg35
g143
sg144
I0
stRp844
sg146
g147
sg148
F1
sg149
Nsg30
S'DhansA'
p845
sbasg120
g778
sg123
F0.046699999999999998
sg124
g125
sg33
S'112'
p846
sg127
g1
(g128
g12
(dp847
g130
I6
sg131
g132
sg133
g134
sg135
g132
sg136
I01
sg34
g174
sg138
g134
sg139
I0
sg140
I0
sg141
I0
sg142
g134
sg35
g175
sg144
I0
stRp848
sg146
g147
sg148
F0.65000000000000002
sg149
Nsg30
S'NoName'
p849
sbag1
(g2
g3
NtRp850
(dp851
g6
g1
(g7
g3
NtRp852
(dp853
g10
g1
(g11
g12
(dtRp854
sg14
g1
(g11
g12
(dtRp855
sg16
g1
(g11
g12
(dtRp856
sg18
g1
(g11
g12
(dtRp857
sg20
g1
(g11
g12
(dtRp858
sg22
g1
(g11
g12
(dtRp859
sbsg24
g25
sg26
g27
((lp860
g33
ag32
ag29
ag30
atRp861
sg37
(lp862
g1
(g2
g3
NtRp863
(dp864
g6
g1
(g7
g3
NtRp865
(dp866
g10
g1
(g11
g12
(dtRp867
sg14
g1
(g11
g12
(dtRp868
sg16
g1
(g11
g12
(dtRp869
sg18
g1
(g11
g12
(dtRp870
sg20
g1
(g11
g12
(dtRp871
sg22
g1
(g11
g12
(dtRp872
sbsg24
S'Clu'
p873
sg26
g27
((lp874
g29
ag30
aS'sequence'
p875
ag32
ag33
aS'species'
p876
atRp877
sg37
(lp878
sg120
g850
sg121
S'RWLSTKDLYSRLELPDLNQNVHAMFVMPLGFGNPMGDMFARLNNSFWLPPLSLEGAGTGWTVYPPLSHSGPSVDLAFHLTSSLLGAINFTNMRGPLFWTALLLLSLPVLAGTLLDRNFNTFEGGDPLYHLFWFFGHPEVYMMPGFGSHSTYKKFGMYASMGLGFVWSHHMYVGLDDRAYFTSATMMAPTGMKFSWLATYGGRPMLAFLFLFTGGTGVLNASDAFHDTYYVVHFHYVLSMGAFSLGYYYWPGLYNWFWFNFPMHFLGGMPRRPYPDAGWNSGSSRQLGPDESNEPH'
p879
sg123
F0.037310000000000003
sg124
g125
sg33
S'110'
p880
sg127
g1
(g128
g12
(dp881
g130
I4
sg131
g132
sg133
g134
sg135
g132
sg136
I01
sg34
g137
sg138
g134
sg139
I0
sg140
I0
sg141
I0
sg142
g134
sg35
g143
sg144
I0
stRp882
sg146
g147
sg148
F1
sg149
Nsg30
S'ClusiA'
p883
sbag1
(g2
g3
NtRp884
(dp885
g6
g1
(g7
g3
NtRp886
(dp887
g10
g1
(g11
g12
(dtRp888
sg14
g1
(g11
g12
(dtRp889
sg16
g1
(g11
g12
(dtRp890
sg18
g1
(g11
g12
(dtRp891
sg20
g1
(g11
g12
(dtRp892
sg22
g1
(g11
g12
(dtRp893
sbsg24
g25
sg26
g27
((lp894
g33
ag32
ag29
ag30
atRp895
sg37
(lp896
g1
(g2
g3
NtRp897
(dp898
g6
g1
(g7
g3
NtRp899
(dp900
g10
g1
(g11
g12
(dtRp901
sg14
g1
(g11
g12
(dtRp902
sg16
g1
(g11
g12
(dtRp903
sg18
g1
(g11
g12
(dtRp904
sg20
g1
(g11
g12
(dtRp905
sg22
g1
(g11
g12
(dtRp906
sbsg24
S'Mgu'
p907
sg26
g27
((lp908
g29
ag30
aS'sequence'
p909
ag32
ag33
aS'species'
p910
atRp911
sg37
(lp912
sg120
g884
sg121
S'---------------------------------------------------------------------------------------------------------------------------------------------------------------------------------------------------------------------------------------HFHYVLSMGAFSLGYYYWPGLYNWFWFNFPMHFLGGMPRRPYPDAGWNSGSSKQLGPDESNEPH'
p913
sg123
F0.0044999999999999997
sg124
g125
sg33
S'93'
p914
sg127
g1
(g128
g12
(dp915
g130
I4
sg131
g132
sg133
g134
sg135
g132
sg136
I01
sg34
g137
sg138
g134
sg139
I0
sg140
I0
sg141
I0
sg142
g134
sg35
g143
sg144
I0
stRp916
sg146
g147
sg148
F1
sg149
Nsg30
S'MguilB'
p917
sbag1
(g2
g3
NtRp918
(dp919
g6
g1
(g7
g3
NtRp920
(dp921
g10
g1
(g11
g12
(dtRp922
sg14
g1
(g11
g12
(dtRp923
sg16
g1
(g11
g12
(dtRp924
sg18
g1
(g11
g12
(dtRp925
sg20
g1
(g11
g12
(dtRp926
sg22
g1
(g11
g12
(dtRp927
sbsg24
S'Mgu'
p928
sg26
g27
((lp929
g29
ag30
aS'sequence'
p930
ag32
ag33
aS'species'
p931
atRp932
sg37
(lp933
sg120
g884
sg121
S'RWLSTKDLYSRMELGNFNQNVHAMFVMPIGFGNPMGDMFARLNNSFWLPPLSLEGAGTGWTVYPPLSHSGPSVDMAFHLTSSLLGAMNFTNMRGPLFWTALLLLSLPVLAGTLLDRNFNTFEGGDPLYHLFWFFGHPEVYMMPGFGSHSTYKKFGMYASIGLGFVWSHHMYVGLDDRAYFTSATMMAPTGMKFSWLSTYGGRPMLAFLFLFTGGTGVLNASDAFHDTYYVVHFHYVLSMGAFSLGYYYWPGLYNWFWFNFPMHFLGGMPRRPYPDAGWNSGSSKQLGPDESNEPH'
p934
sg123
F0.0020100000000000001
sg124
g125
sg33
S'153'
p935
sg127
g1
(g128
g12
(dp936
g130
I4
sg131
g132
sg133
g134
sg135
g132
sg136
I01
sg34
g137
sg138
g134
sg139
I0
sg140
I0
sg141
I0
sg142
g134
sg35
g143
sg144
I0
stRp937
sg146
g147
sg148
F1
sg149
Nsg30
S'MguilA'
p938
sbasg120
g850
sg123
F0.25231999999999999
sg124
g125
sg33
S'109'
p939
sg127
g1
(g128
g12
(dp940
g130
I6
sg131
g132
sg133
g134
sg135
g132
sg136
I01
sg34
g174
sg138
g134
sg139
I0
sg140
I0
sg141
I0
sg142
g134
sg35
g175
sg144
I0
stRp941
sg146
g147
sg148
F0.98999999999999999
sg149
Nsg30
S'NoName'
p942
sbasg120
g778
sg123
F0.090679999999999997
sg124
g125
sg33
S'107'
p943
sg127
g1
(g128
g12
(dp944
g130
I6
sg131
g132
sg133
g134
sg135
g132
sg136
I01
sg34
g174
sg138
g134
sg139
I0
sg140
I0
sg141
I0
sg142
g134
sg35
g175
sg144
I0
stRp945
sg146
g147
sg148
F0.98999999999999999
sg149
Nsg30
S'NoName'
p946
sbasg120
g706
sg123
F0.032190000000000003
sg124
g125
sg33
S'218'
p947
sg127
g1
(g128
g12
(dp948
g130
I6
sg131
g132
sg133
g134
sg135
g132
sg136
I01
sg34
g174
sg138
g134
sg139
I0
sg140
I0
sg141
I0
sg142
g134
sg35
g175
sg144
I0
stRp949
sg146
g147
sg148
F0.64000000000000001
sg149
Nsg30
S'NoName'
p950
sbasg120
g693
sg123
F0.12181
sg124
g125
sg33
S'203'
p951
sg127
g1
(g128
g12
(dp952
g130
I6
sg131
g132
sg133
g134
sg135
g132
sg136
I01
sg34
g174
sg138
g134
sg139
I0
sg140
I0
sg141
I0
sg142
g134
sg35
g175
sg144
I0
stRp953
sg146
g147
sg148
F0.98999999999999999
sg149
Nsg30
S'NoName'
p954
sbag1
(g2
g3
NtRp955
(dp956
g6
g1
(g7
g3
NtRp957
(dp958
g10
g1
(g11
g12
(dtRp959
sg14
g1
(g11
g12
(dtRp960
sg16
g1
(g11
g12
(dtRp961
sg18
g1
(g11
g12
(dtRp962
sg20
g1
(g11
g12
(dtRp963
sg22
g1
(g11
g12
(dtRp964
sbsg24
g25
sg26
g27
((lp965
g33
ag32
ag29
ag30
atRp966
sg37
(lp967
g1
(g2
g3
NtRp968
(dp969
g6
g1
(g7
g3
NtRp970
(dp971
g10
g1
(g11
g12
(dtRp972
sg14
g1
(g11
g12
(dtRp973
sg16
g1
(g11
g12
(dtRp974
sg18
g1
(g11
g12
(dtRp975
sg20
g1
(g11
g12
(dtRp976
sg22
g1
(g11
g12
(dtRp977
sbsg24
g25
sg26
g27
((lp978
g33
ag32
ag29
ag30
atRp979
sg37
(lp980
g1
(g2
g3
NtRp981
(dp982
g6
g1
(g7
g3
NtRp983
(dp984
g10
g1
(g11
g12
(dtRp985
sg14
g1
(g11
g12
(dtRp986
sg16
g1
(g11
g12
(dtRp987
sg18
g1
(g11
g12
(dtRp988
sg20
g1
(g11
g12
(dtRp989
sg22
g1
(g11
g12
(dtRp990
sbsg24
S'Cbl'
p991
sg26
g27
((lp992
g29
ag30
aS'sequence'
p993
ag32
ag33
aS'species'
p994
atRp995
sg37
(lp996
sg120
g968
sg121
S'RWLSTKDLYSRLELANLNQNVHAMFVMPLGMGNPMGDMFARLNNSFWLPPLSLEGPGTGWTLYAPLSHSGPSVDMAFHLTSSLLGAINFTNMRGPLYWTALLLLSLPVLAATLLDRNFNTFEGGDPLYHLFWFFGHPEVYMIPGFGSHSTYKKFGMYASIGLGFVWSHHMYVGLDDRAYFTSATMIAPTGIKFSWMATYGGRPMLAFLFLFTGGTGVLNASDAFHDTYYVVHFHYVLSMGAFSLGYYYWPGLYNLFWFNFPMHFLGGMPRRPYPDAGWNSGSSYQLGPDESNEPH'
p997
sg123
F0.36785000000000001
sg124
g125
sg33
S'68'
p998
sg127
g1
(g128
g12
(dp999
g130
I4
sg131
g132
sg133
g134
sg135
g132
sg136
I01
sg34
g137
sg138
g134
sg139
I0
sg140
I0
sg141
I0
sg142
g134
sg35
g143
sg144
I0
stRp1000
sg146
g147
sg148
F1
sg149
Nsg30
S'CblacA'
p1001
sbag1
(g2
g3
NtRp1002
(dp1003
g6
g1
(g7
g3
NtRp1004
(dp1005
g10
g1
(g11
g12
(dtRp1006
sg14
g1
(g11
g12
(dtRp1007
sg16
g1
(g11
g12
(dtRp1008
sg18
g1
(g11
g12
(dtRp1009
sg20
g1
(g11
g12
(dtRp1010
sg22
g1
(g11
g12
(dtRp1011
sbsg24
g25
sg26
g27
((lp1012
g33
ag32
ag29
ag30
atRp1013
sg37
(lp1014
g1
(g2
g3
NtRp1015
(dp1016
g6
g1
(g7
g3
NtRp1017
(dp1018
g10
g1
(g11
g12
(dtRp1019
sg14
g1
(g11
g12
(dtRp1020
sg16
g1
(g11
g12
(dtRp1021
sg18
g1
(g11
g12
(dtRp1022
sg20
g1
(g11
g12
(dtRp1023
sg22
g1
(g11
g12
(dtRp1024
sbsg24
g25
sg26
g27
((lp1025
g33
ag32
ag29
ag30
atRp1026
sg37
(lp1027
g1
(g2
g3
NtRp1028
(dp1029
g6
g1
(g7
g3
NtRp1030
(dp1031
g10
g1
(g11
g12
(dtRp1032
sg14
g1
(g11
g12
(dtRp1033
sg16
g1
(g11
g12
(dtRp1034
sg18
g1
(g11
g12
(dtRp1035
sg20
g1
(g11
g12
(dtRp1036
sg22
g1
(g11
g12
(dtRp1037
sbsg24
g25
sg26
g27
((lp1038
g33
ag32
ag29
ag30
atRp1039
sg37
(lp1040
g1
(g2
g3
NtRp1041
(dp1042
g6
g1
(g7
g3
NtRp1043
(dp1044
g10
g1
(g11
g12
(dtRp1045
sg14
g1
(g11
g12
(dtRp1046
sg16
g1
(g11
g12
(dtRp1047
sg18
g1
(g11
g12
(dtRp1048
sg20
g1
(g11
g12
(dtRp1049
sg22
g1
(g11
g12
(dtRp1050
sbsg24
g25
sg26
g27
((lp1051
g33
ag32
ag29
ag30
atRp1052
sg37
(lp1053
g1
(g2
g3
NtRp1054
(dp1055
g6
g1
(g7
g3
NtRp1056
(dp1057
g10
g1
(g11
g12
(dtRp1058
sg14
g1
(g11
g12
(dtRp1059
sg16
g1
(g11
g12
(dtRp1060
sg18
g1
(g11
g12
(dtRp1061
sg20
g1
(g11
g12
(dtRp1062
sg22
g1
(g11
g12
(dtRp1063
sbsg24
S'Lel'
p1064
sg26
g27
((lp1065
g29
ag30
aS'sequence'
p1066
ag32
ag33
aS'species'
p1067
atRp1068
sg37
(lp1069
sg120
g1041
sg121
S'RWLSTKDLYSRLELPGLDQNVHAMFVMPLGFGNPMGDMFARLNNSFWLPPLSLEGAGTGWTVYPPLSHSGPSVDLAFHLTSSLLGAINFTNMRGPLYWTALLLFSLPVLAGTLLDRNFNTFDGGDPLYHLFWFFGHPEVYIIPGFGSHSTYKKFGMYASIGLGFVWSHHMYVGLDDRAYFTSATMIAPTGIKFSWLATYGGRPMLAFLFLFTGGTGVLNASDAFHDTYYTVHFHYVLSMGAFSLGYYYWYGLYNLFWFNFPMHFLGGMPRRPYPDAGWNSGSSYQLGPDESNEPH'
p1070
sg123
F0.18278
sg124
g125
sg33
S'147'
p1071
sg127
g1
(g128
g12
(dp1072
g130
I4
sg131
g132
sg133
g134
sg135
g132
sg136
I01
sg34
g137
sg138
g134
sg139
I0
sg140
I0
sg141
I0
sg142
g134
sg35
g143
sg144
I0
stRp1073
sg146
g147
sg148
F1
sg149
Nsg30
S'LelonA'
p1074
sbag1
(g2
g3
NtRp1075
(dp1076
g6
g1
(g7
g3
NtRp1077
(dp1078
g10
g1
(g11
g12
(dtRp1079
sg14
g1
(g11
g12
(dtRp1080
sg16
g1
(g11
g12
(dtRp1081
sg18
g1
(g11
g12
(dtRp1082
sg20
g1
(g11
g12
(dtRp1083
sg22
g1
(g11
g12
(dtRp1084
sbsg24
S'Cox'
p1085
sg26
g27
((lp1086
g29
ag30
aS'sequence'
p1087
ag32
ag33
aS'species'
p1088
atRp1089
sg37
(lp1090
sg120
g1041
sg121
S'RWLSTKDLYSRLELSGLDQNVHAMFVMPIGFGNPMGDMFARLNNSFWLPPLSLEGPGVGWTVYPPLSHSGPSVDLAFHLTSSLLGAINFTNMRGPLYWTALLLLSLPVLAGTLLDRNFNTFDGGDPLYHLFWFFGHPEVYMIPGFGSHATYKKFGMYASIGLGFVWSHHMYVGLDDRAYFTSATMIAPTGIKFSWLATYGGRPMLAFLFLFTGGTGILNASDAFHDTYYTVHFHYVLSMGAFSLGYYLWYGLYNIFWFNFPMHFLGGMPRRPYPDAGWNSGSSYQLGPDESNEPH'
p1091
sg123
F0.17860000000000001
sg124
g125
sg33
S'130'
p1092
sg127
g1
(g128
g12
(dp1093
g130
I4
sg131
g132
sg133
g134
sg135
g132
sg136
I01
sg34
g137
sg138
g134
sg139
I0
sg140
I0
sg141
I0
sg142
g134
sg35
g143
sg144
I0
stRp1094
sg146
g147
sg148
F1
sg149
Nsg30
S'CoxycA'
p1095
sbasg120
g1028
sg123
F0.041480000000000003
sg124
g125
sg33
S'149'
p1096
sg127
g1
(g128
g12
(dp1097
g130
I6
sg131
g132
sg133
g134
sg135
g132
sg136
I01
sg34
g174
sg138
g134
sg139
I0
sg140
I0
sg141
I0
sg142
g134
sg35
g175
sg144
I0
stRp1098
sg146
g147
sg148
F0.98999999999999999
sg149
Nsg30
S'NoName'
p1099
sbag1
(g2
g3
NtRp1100
(dp1101
g6
g1
(g7
g3
NtRp1102
(dp1103
g10
g1
(g11
g12
(dtRp1104
sg14
g1
(g11
g12
(dtRp1105
sg16
g1
(g11
g12
(dtRp1106
sg18
g1
(g11
g12
(dtRp1107
sg20
g1
(g11
g12
(dtRp1108
sg22
g1
(g11
g12
(dtRp1109
sbsg24
g25
sg26
g27
((lp1110
g33
ag32
ag29
ag30
atRp1111
sg37
(lp1112
g1
(g2
g3
NtRp1113
(dp1114
g6
g1
(g7
g3
NtRp1115
(dp1116
g10
g1
(g11
g12
(dtRp1117
sg14
g1
(g11
g12
(dtRp1118
sg16
g1
(g11
g12
(dtRp1119
sg18
g1
(g11
g12
(dtRp1120
sg20
g1
(g11
g12
(dtRp1121
sg22
g1
(g11
g12
(dtRp1122
sbsg24
g25
sg26
g27
((lp1123
g33
ag32
ag29
ag30
atRp1124
sg37
(lp1125
g1
(g2
g3
NtRp1126
(dp1127
g6
g1
(g7
g3
NtRp1128
(dp1129
g10
g1
(g11
g12
(dtRp1130
sg14
g1
(g11
g12
(dtRp1131
sg16
g1
(g11
g12
(dtRp1132
sg18
g1
(g11
g12
(dtRp1133
sg20
g1
(g11
g12
(dtRp1134
sg22
g1
(g11
g12
(dtRp1135
sbsg24
g25
sg26
g27
((lp1136
g33
ag32
ag29
ag30
atRp1137
sg37
(lp1138
g1
(g2
g3
NtRp1139
(dp1140
g6
g1
(g7
g3
NtRp1141
(dp1142
g10
g1
(g11
g12
(dtRp1143
sg14
g1
(g11
g12
(dtRp1144
sg16
g1
(g11
g12
(dtRp1145
sg18
g1
(g11
g12
(dtRp1146
sg20
g1
(g11
g12
(dtRp1147
sg22
g1
(g11
g12
(dtRp1148
sbsg24
S'Cth'
p1149
sg26
g27
((lp1150
g29
ag30
aS'sequence'
p1151
ag32
ag33
aS'species'
p1152
atRp1153
sg37
(lp1154
sg120
g1126
sg121
S'RWLSTKDLYSRLELPGLNQNVHAMFVMPLGFGNPMGDMFARLNNSFWLPPLSLEGAGTGWTVYPPLSHSGPSVDLAFHLTSSLLGAINFTNMRGPLYWTALLLLSLPVLAGTLLDRNFNTFEGGDPLYHLFWFFGHPEVYIIPGFGSHSTYKKFGMYASIGLGFVWSHHMYVGLDDRAYFTSATMIAPTGIKFSWLATYGGRPMLAFLFLFTGGTGVLNASDAFHDTYYTVHFHYVLSMGAFSLGYYYWYGLYNLFWFNFPMHFLGGMPRRPYPDAGWNSGSSYQLGPDESNEPH'
p1155
sg123
F0.010059999999999999
sg124
g125
sg33
S'122'
p1156
sg127
g1
(g128
g12
(dp1157
g130
I4
sg131
g132
sg133
g134
sg135
g132
sg136
I01
sg34
g137
sg138
g134
sg139
I0
sg140
I0
sg141
I0
sg142
g134
sg35
g143
sg144
I0
stRp1158
sg146
g147
sg148
F1
sg149
Nsg30
S'CtheaA'
p1159
sbag1
(g2
g3
NtRp1160
(dp1161
g6
g1
(g7
g3
NtRp1162
(dp1163
g10
g1
(g11
g12
(dtRp1164
sg14
g1
(g11
g12
(dtRp1165
sg16
g1
(g11
g12
(dtRp1166
sg18
g1
(g11
g12
(dtRp1167
sg20
g1
(g11
g12
(dtRp1168
sg22
g1
(g11
g12
(dtRp1169
sbsg24
g25
sg26
g27
((lp1170
g33
ag32
ag29
ag30
atRp1171
sg37
(lp1172
g1
(g2
g3
NtRp1173
(dp1174
g6
g1
(g7
g3
NtRp1175
(dp1176
g10
g1
(g11
g12
(dtRp1177
sg14
g1
(g11
g12
(dtRp1178
sg16
g1
(g11
g12
(dtRp1179
sg18
g1
(g11
g12
(dtRp1180
sg20
g1
(g11
g12
(dtRp1181
sg22
g1
(g11
g12
(dtRp1182
sbsg24
g25
sg26
g27
((lp1183
g33
ag32
ag29
ag30
atRp1184
sg37
(lp1185
g1
(g2
g3
NtRp1186
(dp1187
g6
g1
(g7
g3
NtRp1188
(dp1189
g10
g1
(g11
g12
(dtRp1190
sg14
g1
(g11
g12
(dtRp1191
sg16
g1
(g11
g12
(dtRp1192
sg18
g1
(g11
g12
(dtRp1193
sg20
g1
(g11
g12
(dtRp1194
sg22
g1
(g11
g12
(dtRp1195
sbsg24
g25
sg26
g27
((lp1196
g33
ag32
ag29
ag30
atRp1197
sg37
(lp1198
g1
(g2
g3
NtRp1199
(dp1200
g6
g1
(g7
g3
NtRp1201
(dp1202
g10
g1
(g11
g12
(dtRp1203
sg14
g1
(g11
g12
(dtRp1204
sg16
g1
(g11
g12
(dtRp1205
sg18
g1
(g11
g12
(dtRp1206
sg20
g1
(g11
g12
(dtRp1207
sg22
g1
(g11
g12
(dtRp1208
sbsg24
S'Cor'
p1209
sg26
g27
((lp1210
g29
ag30
aS'sequence'
p1211
ag32
ag33
aS'species'
p1212
atRp1213
sg37
(lp1214
sg120
g1186
sg121
S'RWLSTKDLYSRLELPGLNQNVHAMFVMPLGFGNPMGDMFARLNNSFWLPPLSLEGAGTGWTVYPPLSHSGPSVDLAFHLTSSLLGAINFTNMRGPLFWTALLLLSLPVLAGTLLDRNFNTFEGGDPLYHLFWFFGHPEVYIIPGFGSHSTYKKFGMYASIGLGFVWSHHMYVGLDDRAYFTSATMIAPTGIKFSWLATYGGRPMLAFLFLFTGGTGVLNASDAFHDTYYTVHFHYVLSMGAFSLGYYYWYGLYNLFWFNFPMHFLGGMPRRPYPDAGWNSGSSYQLGPDESNEPH'
p1215
sg123
F0.00132
sg124
g125
sg33
S'136'
p1216
sg127
g1
(g128
g12
(dp1217
g130
I4
sg131
g132
sg133
g134
sg135
g132
sg136
I01
sg34
g137
sg138
g134
sg139
I0
sg140
I0
sg141
I0
sg142
g134
sg35
g143
sg144
I0
stRp1218
sg146
g147
sg148
F1
sg149
Nsg30
S'CorthC'
p1219
sbag1
(g2
g3
NtRp1220
(dp1221
g6
g1
(g7
g3
NtRp1222
(dp1223
g10
g1
(g11
g12
(dtRp1224
sg14
g1
(g11
g12
(dtRp1225
sg16
g1
(g11
g12
(dtRp1226
sg18
g1
(g11
g12
(dtRp1227
sg20
g1
(g11
g12
(dtRp1228
sg22
g1
(g11
g12
(dtRp1229
sbsg24
S'Cor'
p1230
sg26
g27
((lp1231
g29
ag30
aS'sequence'
p1232
ag32
ag33
aS'species'
p1233
atRp1234
sg37
(lp1235
sg120
g1186
sg121
S'RWLSTKDLYSRLELPGLNQNVHAMFVMPLGFGNPMGDMFARLNNSFWLPPLSLEGAGTGWTVYPPLSHSGPSVDLAFHLTSSLLGAINFTNMRGPLFWTALLLLSLPVLAGTLLDRNFNTFEGGDPLYHLFWFFGHPEVYIIPGFGSHSTYKKFGMYASIGLGFVWSHHMYVGLDDRAYFTSATMIAPTGIKFSWLATYGGRPMLAFLFLFTGGTGVLNASDAFHDTYYTVHFHYVLSMGAFSLGYYYWYGLYNLFWFNFPMHFLGGMPRRPYPDAGWNSGSSYQLGPDESNEPH'
p1236
sg123
F0.00093000000000000005
sg124
g125
sg33
S'137'
p1237
sg127
g1
(g128
g12
(dp1238
g130
I4
sg131
g132
sg133
g134
sg135
g132
sg136
I01
sg34
g137
sg138
g134
sg139
I0
sg140
I0
sg141
I0
sg142
g134
sg35
g143
sg144
I0
stRp1239
sg146
g147
sg148
F1
sg149
Nsg30
S'CorthB'
p1240
sbasg120
g1173
sg123
F0.00052999999999999998
sg124
g125
sg33
S'143'
p1241
sg127
g1
(g128
g12
(dp1242
g130
I6
sg131
g132
sg133
g134
sg135
g132
sg136
I01
sg34
g174
sg138
g134
sg139
I0
sg140
I0
sg141
I0
sg142
g134
sg35
g175
sg144
I0
stRp1243
sg146
g147
sg148
F0.85999999999999999
sg149
Nsg30
S'NoName'
p1244
sbag1
(g2
g3
NtRp1245
(dp1246
g6
g1
(g7
g3
NtRp1247
(dp1248
g10
g1
(g11
g12
(dtRp1249
sg14
g1
(g11
g12
(dtRp1250
sg16
g1
(g11
g12
(dtRp1251
sg18
g1
(g11
g12
(dtRp1252
sg20
g1
(g11
g12
(dtRp1253
sg22
g1
(g11
g12
(dtRp1254
sbsg24
S'Cor'
p1255
sg26
g27
((lp1256
g29
ag30
aS'sequence'
p1257
ag32
ag33
aS'species'
p1258
atRp1259
sg37
(lp1260
sg120
g1173
sg121
S'RWLSTKDLYSRLELPGLNQNVHAMFVMPLGFGNPMGDMFARLNNSFWLPPLSLEGAGTGWTVYPPLSHSGPSVDLAFHLTSSLLGAINFTNMRGPLFWTALLLLSLPVLAGTLLDRNFNTFEGGDPLYHLFWFFGHPEVYIIPGFGSHSTYKKFGMYASIGLGFVWSHHMYVGLDDRAYFTSATMIAPTGIKFSWLATYGGRPMLAFLFLFTGGTGVLNASDAFHDTYYTVHFHYVLSMGAFSLGYYYWYGLYNLFWFNFPMHFLGGMPRRPYPDAGWNSGSSYQLGPDESNEPH'
p1261
sg123
F0.0021099999999999999
sg124
g125
sg33
S'105'
p1262
sg127
g1
(g128
g12
(dp1263
g130
I4
sg131
g132
sg133
g134
sg135
g132
sg136
I01
sg34
g137
sg138
g134
sg139
I0
sg140
I0
sg141
I0
sg142
g134
sg35
g143
sg144
I0
stRp1264
sg146
g147
sg148
F1
sg149
Nsg30
S'CorthA'
p1265
sbasg120
g1160
sg123
F0.0031199999999999999
sg124
g125
sg33
S'128'
p1266
sg127
g1
(g128
g12
(dp1267
g130
I6
sg131
g132
sg133
g134
sg135
g132
sg136
I01
sg34
g174
sg138
g134
sg139
I0
sg140
I0
sg141
I0
sg142
g134
sg35
g175
sg144
I0
stRp1268
sg146
g147
sg148
F0.98999999999999999
sg149
Nsg30
S'NoName'
p1269
sbag1
(g2
g3
NtRp1270
(dp1271
g6
g1
(g7
g3
NtRp1272
(dp1273
g10
g1
(g11
g12
(dtRp1274
sg14
g1
(g11
g12
(dtRp1275
sg16
g1
(g11
g12
(dtRp1276
sg18
g1
(g11
g12
(dtRp1277
sg20
g1
(g11
g12
(dtRp1278
sg22
g1
(g11
g12
(dtRp1279
sbsg24
g25
sg26
g27
((lp1280
g33
ag32
ag29
ag30
atRp1281
sg37
(lp1282
g1
(g2
g3
NtRp1283
(dp1284
g6
g1
(g7
g3
NtRp1285
(dp1286
g10
g1
(g11
g12
(dtRp1287
sg14
g1
(g11
g12
(dtRp1288
sg16
g1
(g11
g12
(dtRp1289
sg18
g1
(g11
g12
(dtRp1290
sg20
g1
(g11
g12
(dtRp1291
sg22
g1
(g11
g12
(dtRp1292
sbsg24
g25
sg26
g27
((lp1293
g33
ag32
ag29
ag30
atRp1294
sg37
(lp1295
g1
(g2
g3
NtRp1296
(dp1297
g6
g1
(g7
g3
NtRp1298
(dp1299
g10
g1
(g11
g12
(dtRp1300
sg14
g1
(g11
g12
(dtRp1301
sg16
g1
(g11
g12
(dtRp1302
sg18
g1
(g11
g12
(dtRp1303
sg20
g1
(g11
g12
(dtRp1304
sg22
g1
(g11
g12
(dtRp1305
sbsg24
S'Cpa'
p1306
sg26
g27
((lp1307
g29
ag30
aS'sequence'
p1308
ag32
ag33
aS'species'
p1309
atRp1310
sg37
(lp1311
sg120
g1283
sg121
S'RWLSTKDLYSRLELPGLNQNVHAMFVMPLGFGNPMGDMFARLNNSFWLPPLSLEGAGTGWTVYPPLSHSGPSVDLAFHLTSSLLGAINFTNMRGPLFWTALLLLSLPVLAGTLLDRNFNTFEGGDPLYHLFWFFGHPEVYIIPGFGSHSTYKKFGMYASIGLGFVWSHHMYVGLDDRAYFTSATMIAPTSIKFSWLATYGGRTALAFIFLFTGGTGVLNSADPFHDSYYVVHFHYVLSMGAFSIGWYLWPGLYNLFWFNFPMHFLGGMPRRNYPDAGWNSGSAYQLGPSGTNEPH'
p1312
sg123
F0.00012999999999999999
sg124
g125
sg33
S'135'
p1313
sg127
g1
(g128
g12
(dp1314
g130
I4
sg131
g132
sg133
g134
sg135
g132
sg136
I01
sg34
g137
sg138
g134
sg139
I0
sg140
I0
sg141
I0
sg142
g134
sg35
g143
sg144
I0
stRp1315
sg146
g147
sg148
F1
sg149
Nsg30
S'CparaD'
p1316
sbag1
(g2
g3
NtRp1317
(dp1318
g6
g1
(g7
g3
NtRp1319
(dp1320
g10
g1
(g11
g12
(dtRp1321
sg14
g1
(g11
g12
(dtRp1322
sg16
g1
(g11
g12
(dtRp1323
sg18
g1
(g11
g12
(dtRp1324
sg20
g1
(g11
g12
(dtRp1325
sg22
g1
(g11
g12
(dtRp1326
sbsg24
S'Cpa'
p1327
sg26
g27
((lp1328
g29
ag30
aS'sequence'
p1329
ag32
ag33
aS'species'
p1330
atRp1331
sg37
(lp1332
sg120
g1283
sg121
S'RWLSTKDLYSRLELPGLNQNVHAMFVMPLGFGNPMGDMFARLNNSFWLPPLSLEGAGTGWTVYPPLSHSGPSVDLAFHLTSSLLGAINFTNMRGPLFWTALLLLSLPVLAGTLLDRNFNTFEGGDPLYHLFWFFGHPEVYIIPGFGSHSTYKKFGMYASIGLGFVWSHHMYVGLDDRAYFTSATMIAPTGIKFSWLATYGGRPMLAFLFLFTGGTGVVNASDAFHDTYYVVHFHYVLSMGAFSLGYYYWYGLYNLFWFNFPMHFLGGMPRRPYPDAGWNSGSSYSLGPDESNEPH'
p1333
sg123
F0.00012999999999999999
sg124
g125
sg33
S'182'
p1334
sg127
g1
(g128
g12
(dp1335
g130
I4
sg131
g132
sg133
g134
sg135
g132
sg136
I01
sg34
g137
sg138
g134
sg139
I0
sg140
I0
sg141
I0
sg142
g134
sg35
g143
sg144
I0
stRp1336
sg146
g147
sg148
F1
sg149
Nsg30
S'CparaB'
p1337
sbasg120
g1270
sg123
F0.00051000000000000004
sg124
g125
sg33
S'98'
p1338
sg127
g1
(g128
g12
(dp1339
g130
I6
sg131
g132
sg133
g134
sg135
g132
sg136
I01
sg34
g174
sg138
g134
sg139
I0
sg140
I0
sg141
I0
sg142
g134
sg35
g175
sg144
I0
stRp1340
sg146
g147
sg148
F0.98999999999999999
sg149
Nsg30
S'NoName'
p1341
sbag1
(g2
g3
NtRp1342
(dp1343
g6
g1
(g7
g3
NtRp1344
(dp1345
g10
g1
(g11
g12
(dtRp1346
sg14
g1
(g11
g12
(dtRp1347
sg16
g1
(g11
g12
(dtRp1348
sg18
g1
(g11
g12
(dtRp1349
sg20
g1
(g11
g12
(dtRp1350
sg22
g1
(g11
g12
(dtRp1351
sbsg24
S'Cpa'
p1352
sg26
g27
((lp1353
g29
ag30
aS'sequence'
p1354
ag32
ag33
aS'species'
p1355
atRp1356
sg37
(lp1357
sg120
g1270
sg121
S'RWLSTKDLYSRLELPGLNQNVHAMFVMPLGFGNPMGDMFARLNNSFWLPPLSLEGAGTGWTVYPPLSHSGPSVDLAFHLTSSLLGAINFTNMRGPLFWTALLLLSLPVLAGTLLDRNFNTFEGGDPLYHLFWFFGHPEVYIIPGFGSHSTYKKFGMYASIGLGFVWSHHMYVGLDDRAYFTSATMIAPTGIKFSWLATYGGRPMLAFLFLFTGGTGVVNASDAFHDTYYVVHFHYVLSMGAFSLGYYYWYGLYNLFWFNFPMHFLGGMPRRPYPDAGWNSGSSYSLGPDESNEPH'
p1358
sg123
F0.00012
sg124
g125
sg33
S'146'
p1359
sg127
g1
(g128
g12
(dp1360
g130
I4
sg131
g132
sg133
g134
sg135
g132
sg136
I01
sg34
g137
sg138
g134
sg139
I0
sg140
I0
sg141
I0
sg142
g134
sg35
g143
sg144
I0
stRp1361
sg146
g147
sg148
F1
sg149
Nsg30
S'CparaC'
p1362
sbasg120
g1160
sg123
F1.0000000000000001e-05
sg124
g125
sg33
S'133'
p1363
sg127
g1
(g128
g12
(dp1364
g130
I6
sg131
g132
sg133
g134
sg135
g132
sg136
I01
sg34
g174
sg138
g134
sg139
I0
sg140
I0
sg141
I0
sg142
g134
sg35
g175
sg144
I0
stRp1365
sg146
g147
sg148
F1
sg149
Nsg30
S'NoName'
p1366
sbasg120
g1126
sg123
F0.0032599999999999999
sg124
g125
sg33
S'126'
p1367
sg127
g1
(g128
g12
(dp1368
g130
I6
sg131
g132
sg133
g134
sg135
g132
sg136
I01
sg34
g174
sg138
g134
sg139
I0
sg140
I0
sg141
I0
sg142
g134
sg35
g175
sg144
I0
stRp1369
sg146
g147
sg148
F0.97999999999999998
sg149
Nsg30
S'NoName'
p1370
sbasg120
g1113
sg123
F1.0000000000000001e-05
sg124
g125
sg33
S'124'
p1371
sg127
g1
(g128
g12
(dp1372
g130
I6
sg131
g132
sg133
g134
sg135
g132
sg136
I01
sg34
g174
sg138
g134
sg139
I0
sg140
I0
sg141
I0
sg142
g134
sg35
g175
sg144
I0
stRp1373
sg146
g147
sg148
F1
sg149
Nsg30
S'NoName'
p1374
sbag1
(g2
g3
NtRp1375
(dp1376
g6
g1
(g7
g3
NtRp1377
(dp1378
g10
g1
(g11
g12
(dtRp1379
sg14
g1
(g11
g12
(dtRp1380
sg16
g1
(g11
g12
(dtRp1381
sg18
g1
(g11
g12
(dtRp1382
sg20
g1
(g11
g12
(dtRp1383
sg22
g1
(g11
g12
(dtRp1384
sbsg24
g25
sg26
g27
((lp1385
g33
ag32
ag29
ag30
atRp1386
sg37
(lp1387
g1
(g2
g3
NtRp1388
(dp1389
g6
g1
(g7
g3
NtRp1390
(dp1391
g10
g1
(g11
g12
(dtRp1392
sg14
g1
(g11
g12
(dtRp1393
sg16
g1
(g11
g12
(dtRp1394
sg18
g1
(g11
g12
(dtRp1395
sg20
g1
(g11
g12
(dtRp1396
sg22
g1
(g11
g12
(dtRp1397
sbsg24
g25
sg26
g27
((lp1398
g33
ag32
ag29
ag30
atRp1399
sg37
(lp1400
g1
(g2
g3
NtRp1401
(dp1402
g6
g1
(g7
g3
NtRp1403
(dp1404
g10
g1
(g11
g12
(dtRp1405
sg14
g1
(g11
g12
(dtRp1406
sg16
g1
(g11
g12
(dtRp1407
sg18
g1
(g11
g12
(dtRp1408
sg20
g1
(g11
g12
(dtRp1409
sg22
g1
(g11
g12
(dtRp1410
sbsg24
g25
sg26
g27
((lp1411
g33
ag32
ag29
ag30
atRp1412
sg37
(lp1413
g1
(g2
g3
NtRp1414
(dp1415
g6
g1
(g7
g3
NtRp1416
(dp1417
g10
g1
(g11
g12
(dtRp1418
sg14
g1
(g11
g12
(dtRp1419
sg16
g1
(g11
g12
(dtRp1420
sg18
g1
(g11
g12
(dtRp1421
sg20
g1
(g11
g12
(dtRp1422
sg22
g1
(g11
g12
(dtRp1423
sbsg24
g25
sg26
g27
((lp1424
g33
ag32
ag29
ag30
atRp1425
sg37
(lp1426
g1
(g2
g3
NtRp1427
(dp1428
g6
g1
(g7
g3
NtRp1429
(dp1430
g10
g1
(g11
g12
(dtRp1431
sg14
g1
(g11
g12
(dtRp1432
sg16
g1
(g11
g12
(dtRp1433
sg18
g1
(g11
g12
(dtRp1434
sg20
g1
(g11
g12
(dtRp1435
sg22
g1
(g11
g12
(dtRp1436
sbsg24
g25
sg26
g27
((lp1437
g33
ag32
ag29
ag30
atRp1438
sg37
(lp1439
g1
(g2
g3
NtRp1440
(dp1441
g6
g1
(g7
g3
NtRp1442
(dp1443
g10
g1
(g11
g12
(dtRp1444
sg14
g1
(g11
g12
(dtRp1445
sg16
g1
(g11
g12
(dtRp1446
sg18
g1
(g11
g12
(dtRp1447
sg20
g1
(g11
g12
(dtRp1448
sg22
g1
(g11
g12
(dtRp1449
sbsg24
S'Cme'
p1450
sg26
g27
((lp1451
g29
ag30
aS'sequence'
p1452
ag32
ag33
aS'species'
p1453
atRp1454
sg37
(lp1455
sg120
g1427
sg121
S'RWLSTKDLYSRLELPGLNQNVHAMFVMPLGFGNPMGDMFARLNNSFWLPPLSLEGAGTGWTVYPPLSHSGPSVDLAFHLTSSLLGAINFTNMRGPLYWTALLLLSLPVLAGTLLDRNFNTFEGGDPLYHLFWFFGHPEVYIIPGFGSHSTYKKFGMYASIGLGFVWSHHMYVGLDDRAYFTSATMIAPTGIKFSWLATYGGRPMLAFLFLFTGGTGVLNASDAFHDTYYVVHFHYVLSMGAFSLGYYYWYGLYNLFWFNFPMHFLGGMPRRPYPDAGWNSGSSYQLGPDESNEPH'
p1456
sg123
F0.00012999999999999999
sg124
g125
sg33
S'207'
p1457
sg127
g1
(g128
g12
(dp1458
g130
I4
sg131
g132
sg133
g134
sg135
g132
sg136
I01
sg34
g137
sg138
g134
sg139
I0
sg140
I0
sg141
I0
sg142
g134
sg35
g143
sg144
I0
stRp1459
sg146
g147
sg148
F1
sg149
Nsg30
S'CmetaF'
p1460
sbag1
(g2
g3
NtRp1461
(dp1462
g6
g1
(g7
g3
NtRp1463
(dp1464
g10
g1
(g11
g12
(dtRp1465
sg14
g1
(g11
g12
(dtRp1466
sg16
g1
(g11
g12
(dtRp1467
sg18
g1
(g11
g12
(dtRp1468
sg20
g1
(g11
g12
(dtRp1469
sg22
g1
(g11
g12
(dtRp1470
sbsg24
S'Cme'
p1471
sg26
g27
((lp1472
g29
ag30
aS'sequence'
p1473
ag32
ag33
aS'species'
p1474
atRp1475
sg37
(lp1476
sg120
g1427
sg121
S'RWLSTKDLYSRLELPGLNQNVHAMFVMPLGFGNPMGDMFARLNNSFWLPPLSLEGAGTGWTVYPPLSHSGPSVDLAFHLTSSLLGAINFTNMRGPLYWTALLLLSLPVLAGTLLDRNFNTFEGGDPLYHLFWFFGHPEVYIIPGFGSHSTYKKFGMYASIGLGFVWSHHMYVGLDDRAYFTSATMIAPTGIKFSWLATYGGRPMLAFLFLFTGGTGVLNASDAFHDTYYVVHFHYVLSMGAFSLGYYYWYGLYNLFWFNFPMHFLGGMPRRPYPDAGWNSGSSYQLGPDESNEPH'
p1477
sg123
F0.00012
sg124
g125
sg33
S'221'
p1478
sg127
g1
(g128
g12
(dp1479
g130
I4
sg131
g132
sg133
g134
sg135
g132
sg136
I01
sg34
g137
sg138
g134
sg139
I0
sg140
I0
sg141
I0
sg142
g134
sg35
g143
sg144
I0
stRp1480
sg146
g147
sg148
F1
sg149
Nsg30
S'CmetaE'
p1481
sbasg120
g1414
sg123
F1.0000000000000001e-05
sg124
g125
sg33
S'2'
sg127
g1
(g128
g12
(dp1482
g130
I6
sg131
g132
sg133
g134
sg135
g132
sg136
I01
sg34
g174
sg138
g134
sg139
I0
sg140
I0
sg141
I0
sg142
g134
sg35
g175
sg144
I0
stRp1483
sg146
g147
sg148
F1
sg149
Nsg30
S'NoName'
p1484
sbag1
(g2
g3
NtRp1485
(dp1486
g6
g1
(g7
g3
NtRp1487
(dp1488
g10
g1
(g11
g12
(dtRp1489
sg14
g1
(g11
g12
(dtRp1490
sg16
g1
(g11
g12
(dtRp1491
sg18
g1
(g11
g12
(dtRp1492
sg20
g1
(g11
g12
(dtRp1493
sg22
g1
(g11
g12
(dtRp1494
sbsg24
S'Cme'
p1495
sg26
g27
((lp1496
g29
ag30
aS'sequence'
p1497
ag32
ag33
aS'species'
p1498
atRp1499
sg37
(lp1500
sg120
g1414
sg121
S'RWLSTKDLYSRLELPGLNQNVHAMFVMPLGFGNPMGDMFARLNNSFWLPPLSLEGAGTGWTVYPPLSHSGPSVDLAFHLTSSLLGAINFTNMRGPLYWTALLLLSLPVLAGTLLDRNFNTFEGGDPLYHLFWFFGHPEVYIIPGFGSHSTYKKFGMYASIGLGFVWSHHMYVGLDDRAYFTSATMIAPTGIKFSWLATYGGRPMLAFLFLFTGGTGVLNASDAFHDTYYVVHFHYVLSMGAFSLGYYYWYGLYNLFWFNFPMHFLGGMPRRPYPDAGWNSGSSYQLGPDESNEPH'
p1501
sg123
F0.00020000000000000001
sg124
g125
sg33
S'155'
p1502
sg127
g1
(g128
g12
(dp1503
g130
I4
sg131
g132
sg133
g134
sg135
g132
sg136
I01
sg34
g137
sg138
g134
sg139
I0
sg140
I0
sg141
I0
sg142
g134
sg35
g143
sg144
I0
stRp1504
sg146
g147
sg148
F1
sg149
Nsg30
S'CmetaD'
p1505
sbasg120
g1401
sg123
F1.0000000000000001e-05
sg124
g125
sg33
S'171'
p1506
sg127
g1
(g128
g12
(dp1507
g130
I6
sg131
g132
sg133
g134
sg135
g132
sg136
I01
sg34
g174
sg138
g134
sg139
I0
sg140
I0
sg141
I0
sg142
g134
sg35
g175
sg144
I0
stRp1508
sg146
g147
sg148
F1
sg149
Nsg30
S'NoName'
p1509
sbag1
(g2
g3
NtRp1510
(dp1511
g6
g1
(g7
g3
NtRp1512
(dp1513
g10
g1
(g11
g12
(dtRp1514
sg14
g1
(g11
g12
(dtRp1515
sg16
g1
(g11
g12
(dtRp1516
sg18
g1
(g11
g12
(dtRp1517
sg20
g1
(g11
g12
(dtRp1518
sg22
g1
(g11
g12
(dtRp1519
sbsg24
S'Cme'
p1520
sg26
g27
((lp1521
g29
ag30
aS'sequence'
p1522
ag32
ag33
aS'species'
p1523
atRp1524
sg37
(lp1525
sg120
g1401
sg121
S'RWLSTKDLYSRLELPGLNQNVHAMFVMPLGFGNPMGDMFARLNNSFWLPPLSLEGAGTGWTVYPPLSHSGPSVDLAFHLTSSLLGAINFTNMRGPLYWTALLLLSLPVLAGTLLDRNFNTFEGGDPLYHLFWFFGHPEVYIIPGFGSHSTYKKFGMYASIGLGFVWSHHMYVGLDDRAYFTSATMIAPTGIKFSWLATYGGRPMLAFLFLFTGGTGVLNASDAFHDTYYVVHFHYVLSMGAFSLGYYYWYGLYNLFWFNFPMHFLGGMPRRPYPDAGWNSGSSYQLGPDESNEPH'
p1526
sg123
F0.00052999999999999998
sg124
g125
sg33
S'223'
p1527
sg127
g1
(g128
g12
(dp1528
g130
I4
sg131
g132
sg133
g134
sg135
g132
sg136
I01
sg34
g137
sg138
g134
sg139
I0
sg140
I0
sg141
I0
sg142
g134
sg35
g143
sg144
I0
stRp1529
sg146
g147
sg148
F1
sg149
Nsg30
S'CmetaC'
p1530
sbasg120
g1388
sg123
F1.0000000000000001e-05
sg124
g125
sg33
S'173'
p1531
sg127
g1
(g128
g12
(dp1532
g130
I6
sg131
g132
sg133
g134
sg135
g132
sg136
I01
sg34
g174
sg138
g134
sg139
I0
sg140
I0
sg141
I0
sg142
g134
sg35
g175
sg144
I0
stRp1533
sg146
g147
sg148
F1
sg149
Nsg30
S'NoName'
p1534
sbag1
(g2
g3
NtRp1535
(dp1536
g6
g1
(g7
g3
NtRp1537
(dp1538
g10
g1
(g11
g12
(dtRp1539
sg14
g1
(g11
g12
(dtRp1540
sg16
g1
(g11
g12
(dtRp1541
sg18
g1
(g11
g12
(dtRp1542
sg20
g1
(g11
g12
(dtRp1543
sg22
g1
(g11
g12
(dtRp1544
sbsg24
S'Cme'
p1545
sg26
g27
((lp1546
g29
ag30
aS'sequence'
p1547
ag32
ag33
aS'species'
p1548
atRp1549
sg37
(lp1550
sg120
g1388
sg121
S'RWLSTKDLYSRLELPGLNQNVHAMFVMPLGFGNPMGDMFARLNNSFWLPPLSLEGAGTGWTVYPPLSHSGPSVDLAFHLTSSLLGAINFTNMRGPLYWTALLLLSLPVLAGTLLDRNFNTFEGGDPLYHLFWFFGHPEVYIIPGFGSHSTYKKFGMYASIGLGFVWSHHMYVGLDDRAYFTSATMIAPTGIKFSWLATYGGRPMLAFLFLFTGGTGVLNASDAFHDTYYVVHFHYVLSMGAFSLGYYYWYGLYNLFWFNFPMHFLGGMPRRPYPDAGWNSGSSYQLGPDESNEPH'
p1551
sg123
F0.00012
sg124
g125
sg33
S'168'
p1552
sg127
g1
(g128
g12
(dp1553
g130
I4
sg131
g132
sg133
g134
sg135
g132
sg136
I01
sg34
g137
sg138
g134
sg139
I0
sg140
I0
sg141
I0
sg142
g134
sg35
g143
sg144
I0
stRp1554
sg146
g147
sg148
F1
sg149
Nsg30
S'CmetaB'
p1555
sbasg120
g1375
sg123
F1.0000000000000001e-05
sg124
g125
sg33
S'196'
p1556
sg127
g1
(g128
g12
(dp1557
g130
I6
sg131
g132
sg133
g134
sg135
g132
sg136
I01
sg34
g174
sg138
g134
sg139
I0
sg140
I0
sg141
I0
sg142
g134
sg35
g175
sg144
I0
stRp1558
sg146
g147
sg148
F1
sg149
Nsg30
S'NoName'
p1559
sbag1
(g2
g3
NtRp1560
(dp1561
g6
g1
(g7
g3
NtRp1562
(dp1563
g10
g1
(g11
g12
(dtRp1564
sg14
g1
(g11
g12
(dtRp1565
sg16
g1
(g11
g12
(dtRp1566
sg18
g1
(g11
g12
(dtRp1567
sg20
g1
(g11
g12
(dtRp1568
sg22
g1
(g11
g12
(dtRp1569
sbsg24
S'Cme'
p1570
sg26
g27
((lp1571
g29
ag30
aS'sequence'
p1572
ag32
ag33
aS'species'
p1573
atRp1574
sg37
(lp1575
sg120
g1375
sg121
S'RWLSTKDLYSRLELPGLNQNVHAMFVMPLGFGNPMGDMFARLNNSFWLPPLSLEGAGTGWTVYPPLSHSGPSVDLAFHLTSSLLGAINFTNMRGPLYWTALLLLSLPVLAGTLLDRNFNTFEGGDPLYHLFWFFGHPEVYIIPGFGSHSTYKKFGMYASIGLGFVWSHHMYVGLDDRAYFTSATMIAPTGIKFSWLATYGGRPMLAFLFLFTGGTGVLNASDAFHDTYYVVHFHYVLSMGAFSLGYYYWYGLYNLFWFNFPMHFLGGMPRRPYPDAGWNSGSSYQLGPDESNEPH'
p1576
sg123
F0.00012999999999999999
sg124
g125
sg33
S'220'
p1577
sg127
g1
(g128
g12
(dp1578
g130
I4
sg131
g132
sg133
g134
sg135
g132
sg136
I01
sg34
g137
sg138
g134
sg139
I0
sg140
I0
sg141
I0
sg142
g134
sg35
g143
sg144
I0
stRp1579
sg146
g147
sg148
F1
sg149
Nsg30
S'CmetaA'
p1580
sbasg120
g1113
sg123
F0.020930000000000001
sg124
g125
sg33
S'50'
p1581
sg127
g1
(g128
g12
(dp1582
g130
I6
sg131
g132
sg133
g134
sg135
g132
sg136
I01
sg34
g174
sg138
g134
sg139
I0
sg140
I0
sg141
I0
sg142
g134
sg35
g175
sg144
I0
stRp1583
sg146
g147
sg148
F0.98999999999999999
sg149
Nsg30
S'NoName'
p1584
sbasg120
g1100
sg123
F0.045289999999999997
sg124
g125
sg33
S'139'
p1585
sg127
g1
(g128
g12
(dp1586
g130
I6
sg131
g132
sg133
g134
sg135
g132
sg136
I01
sg34
g174
sg138
g134
sg139
I0
sg140
I0
sg141
I0
sg142
g134
sg35
g175
sg144
I0
stRp1587
sg146
g147
sg148
F0.98999999999999999
sg149
Nsg30
S'NoName'
p1588
sbag1
(g2
g3
NtRp1589
(dp1590
g6
g1
(g7
g3
NtRp1591
(dp1592
g10
g1
(g11
g12
(dtRp1593
sg14
g1
(g11
g12
(dtRp1594
sg16
g1
(g11
g12
(dtRp1595
sg18
g1
(g11
g12
(dtRp1596
sg20
g1
(g11
g12
(dtRp1597
sg22
g1
(g11
g12
(dtRp1598
sbsg24
S'Cji'
p1599
sg26
g27
((lp1600
g29
ag30
aS'sequence'
p1601
ag32
ag33
aS'species'
p1602
atRp1603
sg37
(lp1604
sg120
g1100
sg121
S'RWLSTKDLYSRLELPGLNQNVHAMFVMPLGFGNPMGDMFARLNNSFWLPPLSLEGAGTGWTVYPPLSHSGPSVDLAFHLTSSLLGAINFTNMRGPMFWTALLLLSLPVLAGTLLDRNFNTFDGGDPLYHLFWFFGHPEVYIIPGFGSHSTYKKFGMYASIGLGFVWSHHMYVGLDDRAYFTSATMIAPTGIKFSWLATYGGRPMLAFLFLFTGGTGVLNASDAFHDTYYTVHFHYVLSMGAFSLGYYYWYGLYNLFWFNFPMHFLGGMPRRPYPDAGWNSGSSYQLGPDESNEPH'
p1605
sg123
F0.013140000000000001
sg124
g125
sg33
S'156'
p1606
sg127
g1
(g128
g12
(dp1607
g130
I4
sg131
g132
sg133
g134
sg135
g132
sg136
I01
sg34
g137
sg138
g134
sg139
I0
sg140
I0
sg141
I0
sg142
g134
sg35
g143
sg144
I0
stRp1608
sg146
g147
sg148
F1
sg149
Nsg30
S'CjiufA'
p1609
sbasg120
g1028
sg123
F0.044909999999999999
sg124
g125
sg33
S'145'
p1610
sg127
g1
(g128
g12
(dp1611
g130
I6
sg131
g132
sg133
g134
sg135
g132
sg136
I01
sg34
g174
sg138
g134
sg139
I0
sg140
I0
sg141
I0
sg142
g134
sg35
g175
sg144
I0
stRp1612
sg146
g147
sg148
F0.98999999999999999
sg149
Nsg30
S'NoName'
p1613
sbasg120
g1015
sg123
F0.082199999999999995
sg124
g125
sg33
S'152'
p1614
sg127
g1
(g128
g12
(dp1615
g130
I6
sg131
g132
sg133
g134
sg135
g132
sg136
I01
sg34
g174
sg138
g134
sg139
I0
sg140
I0
sg141
I0
sg142
g134
sg35
g175
sg144
I0
stRp1616
sg146
g147
sg148
F0.98999999999999999
sg149
Nsg30
S'NoName'
p1617
sbag1
(g2
g3
NtRp1618
(dp1619
g6
g1
(g7
g3
NtRp1620
(dp1621
g10
g1
(g11
g12
(dtRp1622
sg14
g1
(g11
g12
(dtRp1623
sg16
g1
(g11
g12
(dtRp1624
sg18
g1
(g11
g12
(dtRp1625
sg20
g1
(g11
g12
(dtRp1626
sg22
g1
(g11
g12
(dtRp1627
sbsg24
g25
sg26
g27
((lp1628
g33
ag32
ag29
ag30
atRp1629
sg37
(lp1630
g1
(g2
g3
NtRp1631
(dp1632
g6
g1
(g7
g3
NtRp1633
(dp1634
g10
g1
(g11
g12
(dtRp1635
sg14
g1
(g11
g12
(dtRp1636
sg16
g1
(g11
g12
(dtRp1637
sg18
g1
(g11
g12
(dtRp1638
sg20
g1
(g11
g12
(dtRp1639
sg22
g1
(g11
g12
(dtRp1640
sbsg24
g25
sg26
g27
((lp1641
g33
ag32
ag29
ag30
atRp1642
sg37
(lp1643
g1
(g2
g3
NtRp1644
(dp1645
g6
g1
(g7
g3
NtRp1646
(dp1647
g10
g1
(g11
g12
(dtRp1648
sg14
g1
(g11
g12
(dtRp1649
sg16
g1
(g11
g12
(dtRp1650
sg18
g1
(g11
g12
(dtRp1651
sg20
g1
(g11
g12
(dtRp1652
sg22
g1
(g11
g12
(dtRp1653
sbsg24
S'Cco'
p1654
sg26
g27
((lp1655
g29
ag30
aS'sequence'
p1656
ag32
ag33
aS'species'
p1657
atRp1658
sg37
(lp1659
sg120
g1631
sg121
S'RWLSTKDLYSRMELPGLNQNVHAMFVMPLGFGNPMGDMFARLNNSFWLPPLSLEGAGTGWTLYAPLSHSGPSVDLAFHLTSSLLGAINFTNMRGPLFWTALLLLSLPVLAATLLDRNFNTFEGGDPLYHLFFVLMHPEVYIIPGFGSHSTYKKFGMYASMGLGFVWSHHMYVGLDDRAYFTSATMIAPTGIKFSWLATYGGRPMLAFLFLFTGGTGVLNASDAFHDTYYIKHFHYVLSMGAFSLGYYYWYGLYNMFWFNFPMHFLGGMPRRPYPDAGWNSGSSYQLGPDESNEPH'
p1660
sg123
F0.057970000000000001
sg124
g125
sg33
S'88'
p1661
sg127
g1
(g128
g12
(dp1662
g130
I4
sg131
g132
sg133
g134
sg135
g132
sg136
I01
sg34
g137
sg138
g134
sg139
I0
sg140
I0
sg141
I0
sg142
g134
sg35
g143
sg144
I0
stRp1663
sg146
g147
sg148
F1
sg149
Nsg30
S'CcoryA'
p1664
sbag1
(g2
g3
NtRp1665
(dp1666
g6
g1
(g7
g3
NtRp1667
(dp1668
g10
g1
(g11
g12
(dtRp1669
sg14
g1
(g11
g12
(dtRp1670
sg16
g1
(g11
g12
(dtRp1671
sg18
g1
(g11
g12
(dtRp1672
sg20
g1
(g11
g12
(dtRp1673
sg22
g1
(g11
g12
(dtRp1674
sbsg24
S'Cch'
p1675
sg26
g27
((lp1676
g29
ag30
aS'sequence'
p1677
ag32
ag33
aS'species'
p1678
atRp1679
sg37
(lp1680
sg120
g1631
sg121
S'RWLSTKDLYSRMELPSLNQNVHAMFVMPLGFGNPMGDMFARLNNSFWLPPLSLEGAGTGWTLYAPLSHSGPSVDLAFHLTSSLLGAINFTNMRGPLFWTALLLLSLPVLAATLLDRNFNTFEGGDPLYHLFWFYMYKDYYIIPGFGSHSTYKKFGMYASIGLGFVWSHHMFVGLDDRAYFTSATMIAPTGIKFSWLATYGGRPMLAFLFLFTGGTGVLNASDAFHDTYYVVHFHYVLSMGAFSLGYYYWYGLYNLFWFNFPMHFLGGMPRRPYPDAGWNSGSSYQLGPDESNEPH'
p1681
sg123
F0.052440000000000001
sg124
g125
sg33
S'99'
p1682
sg127
g1
(g128
g12
(dp1683
g130
I4
sg131
g132
sg133
g134
sg135
g132
sg136
I01
sg34
g137
sg138
g134
sg139
I0
sg140
I0
sg141
I0
sg142
g134
sg35
g143
sg144
I0
stRp1684
sg146
g147
sg148
F1
sg149
Nsg30
S'CchauA'
p1685
sbasg120
g1618
sg123
F0.16861999999999999
sg124
g125
sg33
S'195'
p1686
sg127
g1
(g128
g12
(dp1687
g130
I6
sg131
g132
sg133
g134
sg135
g132
sg136
I01
sg34
g174
sg138
g134
sg139
I0
sg140
I0
sg141
I0
sg142
g134
sg35
g175
sg144
I0
stRp1688
sg146
g147
sg148
F0.98999999999999999
sg149
Nsg30
S'NoName'
p1689
sbag1
(g2
g3
NtRp1690
(dp1691
g6
g1
(g7
g3
NtRp1692
(dp1693
g10
g1
(g11
g12
(dtRp1694
sg14
g1
(g11
g12
(dtRp1695
sg16
g1
(g11
g12
(dtRp1696
sg18
g1
(g11
g12
(dtRp1697
sg20
g1
(g11
g12
(dtRp1698
sg22
g1
(g11
g12
(dtRp1699
sbsg24
S'Cbo'
p1700
sg26
g27
((lp1701
g29
ag30
aS'sequence'
p1702
ag32
ag33
aS'species'
p1703
atRp1704
sg37
(lp1705
sg120
g1618
sg121
S'RWLSTKDLYSRMELPGLNQNVHAMFVMPLGFGNPMGDMFARLNNSFWLPPLSLEGAGTGWTVYPPLSHSGPSVDLAFHLTSSLLGAINFTNMRGPLFWTALLLLSLPVLAATLLDRNFNTFEGGDPLYHLFWFFGHPEVYIIPGFGSHSTYKKFGMYASIGLGFVWSHHMYVGLDDRAYFTSATMIAPTGIKFSWLATYGGRPMLAFLFLFTGGTGVLNASDAFHDTYYVVHFHYVLSMGAFSLAYYYWYGLYNLFWFNFPMHFLGGMPRRPYPDAGWNSGSSYQLGPDESNEPH'
p1706
sg123
F0.20199
sg124
g125
sg33
S'72'
p1707
sg127
g1
(g128
g12
(dp1708
g130
I4
sg131
g132
sg133
g134
sg135
g132
sg136
I01
sg34
g137
sg138
g134
sg139
I0
sg140
I0
sg141
I0
sg142
g134
sg35
g143
sg144
I0
stRp1709
sg146
g147
sg148
F1
sg149
Nsg30
S'CbohiA'
p1710
sbasg120
g1015
sg123
F0.14915999999999999
sg124
g125
sg33
S'9'
sg127
g1
(g128
g12
(dp1711
g130
I6
sg131
g132
sg133
g134
sg135
g132
sg136
I01
sg34
g174
sg138
g134
sg139
I0
sg140
I0
sg141
I0
sg142
g134
sg35
g175
sg144
I0
stRp1712
sg146
g147
sg148
F0.98999999999999999
sg149
Nsg30
S'NoName'
p1713
sbasg120
g1002
sg123
F0.036799999999999999
sg124
g125
sg33
S'144'
p1714
sg127
g1
(g128
g12
(dp1715
g130
I6
sg131
g132
sg133
g134
sg135
g132
sg136
I01
sg34
g174
sg138
g134
sg139
I0
sg140
I0
sg141
I0
sg142
g134
sg35
g175
sg144
I0
stRp1716
sg146
g147
sg148
F0.98999999999999999
sg149
Nsg30
S'NoName'
p1717
sbag1
(g2
g3
NtRp1718
(dp1719
g6
g1
(g7
g3
NtRp1720
(dp1721
g10
g1
(g11
g12
(dtRp1722
sg14
g1
(g11
g12
(dtRp1723
sg16
g1
(g11
g12
(dtRp1724
sg18
g1
(g11
g12
(dtRp1725
sg20
g1
(g11
g12
(dtRp1726
sg22
g1
(g11
g12
(dtRp1727
sbsg24
g25
sg26
g27
((lp1728
g33
ag32
ag29
ag30
atRp1729
sg37
(lp1730
g1
(g2
g3
NtRp1731
(dp1732
g6
g1
(g7
g3
NtRp1733
(dp1734
g10
g1
(g11
g12
(dtRp1735
sg14
g1
(g11
g12
(dtRp1736
sg16
g1
(g11
g12
(dtRp1737
sg18
g1
(g11
g12
(dtRp1738
sg20
g1
(g11
g12
(dtRp1739
sg22
g1
(g11
g12
(dtRp1740
sbsg24
g25
sg26
g27
((lp1741
g33
ag32
ag29
ag30
atRp1742
sg37
(lp1743
g1
(g2
g3
NtRp1744
(dp1745
g6
g1
(g7
g3
NtRp1746
(dp1747
g10
g1
(g11
g12
(dtRp1748
sg14
g1
(g11
g12
(dtRp1749
sg16
g1
(g11
g12
(dtRp1750
sg18
g1
(g11
g12
(dtRp1751
sg20
g1
(g11
g12
(dtRp1752
sg22
g1
(g11
g12
(dtRp1753
sbsg24
S'Cma'
p1754
sg26
g27
((lp1755
g29
ag30
aS'sequence'
p1756
ag32
ag33
aS'species'
p1757
atRp1758
sg37
(lp1759
sg120
g1731
sg121
S'RWLSTKDLYSRLELPGLSQNVHAMFVMPLGFGNPLGDMFARLNNSFWLPPLSLEGAGTGWTVYPPLSHSGPSVDLAFHLTSSLLGAINFTNMRGPLYWTALLLLSLPVLAGTLLDRNFNTFEGGDPLYHLFWFFGHPEVYMIPGFGSHSTYKKFGMYASMGLGFVWSHHMYVGLDDRAYFTSATMIAPTGIKFSWLATYGGRPMLAFLFLFTGGTGVLNASDAFHDTYYVVHFHYVLSMGAFSLGYYYWSGLYNLYWFNFPMHFLGGMPRRPYPDAGWNSGSSYQLGPDESNEPH'
p1760
sg123
F0.24277000000000001
sg124
g125
sg33
S'192'
p1761
sg127
g1
(g128
g12
(dp1762
g130
I4
sg131
g132
sg133
g134
sg135
g132
sg136
I01
sg34
g137
sg138
g134
sg139
I0
sg140
I0
sg141
I0
sg142
g134
sg35
g143
sg144
I0
stRp1763
sg146
g147
sg148
F1
sg149
Nsg30
S'CmaltA'
p1764
sbag1
(g2
g3
NtRp1765
(dp1766
g6
g1
(g7
g3
NtRp1767
(dp1768
g10
g1
(g11
g12
(dtRp1769
sg14
g1
(g11
g12
(dtRp1770
sg16
g1
(g11
g12
(dtRp1771
sg18
g1
(g11
g12
(dtRp1772
sg20
g1
(g11
g12
(dtRp1773
sg22
g1
(g11
g12
(dtRp1774
sbsg24
g25
sg26
g27
((lp1775
g33
ag32
ag29
ag30
atRp1776
sg37
(lp1777
g1
(g2
g3
NtRp1778
(dp1779
g6
g1
(g7
g3
NtRp1780
(dp1781
g10
g1
(g11
g12
(dtRp1782
sg14
g1
(g11
g12
(dtRp1783
sg16
g1
(g11
g12
(dtRp1784
sg18
g1
(g11
g12
(dtRp1785
sg20
g1
(g11
g12
(dtRp1786
sg22
g1
(g11
g12
(dtRp1787
sbsg24
g25
sg26
g27
((lp1788
g33
ag32
ag29
ag30
atRp1789
sg37
(lp1790
g1
(g2
g3
NtRp1791
(dp1792
g6
g1
(g7
g3
NtRp1793
(dp1794
g10
g1
(g11
g12
(dtRp1795
sg14
g1
(g11
g12
(dtRp1796
sg16
g1
(g11
g12
(dtRp1797
sg18
g1
(g11
g12
(dtRp1798
sg20
g1
(g11
g12
(dtRp1799
sg22
g1
(g11
g12
(dtRp1800
sbsg24
g25
sg26
g27
((lp1801
g33
ag32
ag29
ag30
atRp1802
sg37
(lp1803
g1
(g2
g3
NtRp1804
(dp1805
g6
g1
(g7
g3
NtRp1806
(dp1807
g10
g1
(g11
g12
(dtRp1808
sg14
g1
(g11
g12
(dtRp1809
sg16
g1
(g11
g12
(dtRp1810
sg18
g1
(g11
g12
(dtRp1811
sg20
g1
(g11
g12
(dtRp1812
sg22
g1
(g11
g12
(dtRp1813
sbsg24
g25
sg26
g27
((lp1814
g33
ag32
ag29
ag30
atRp1815
sg37
(lp1816
g1
(g2
g3
NtRp1817
(dp1818
g6
g1
(g7
g3
NtRp1819
(dp1820
g10
g1
(g11
g12
(dtRp1821
sg14
g1
(g11
g12
(dtRp1822
sg16
g1
(g11
g12
(dtRp1823
sg18
g1
(g11
g12
(dtRp1824
sg20
g1
(g11
g12
(dtRp1825
sg22
g1
(g11
g12
(dtRp1826
sbsg24
S'Ctr'
p1827
sg26
g27
((lp1828
g29
ag30
aS'sequence'
p1829
ag32
ag33
aS'species'
p1830
atRp1831
sg37
(lp1832
sg120
g1804
sg121
S'RWLSTKDLYSRLELPGLNQNVHAMFVMPLGFGNPMGDMFARLNNSFWLPPLSLEGAGTGWTVYPPLSHSGPSVDLAFHLTSSLLGAINFTNMRGPLFWTALLLLSLPVLAGTLLDRNFNTFEGGDPLYHLFWFFGHPEVYIIPGFGSHSTYKKFGMYASIGLGFVWSHHMYVGLDDRAYFTSATMIAPTGIKFSWLATYGGRPMLAFLFLFTGGTGVLNASDAFHDSYYVVHFHYVLSMGAFSLGYYYWPGLYNLYWFNFPMHFLGGMPRRPYPDAGWNSGSSYQLGPDEANEPH'
p1833
sg123
F0.00064000000000000005
sg124
g125
sg33
S'41'
p1834
sg127
g1
(g128
g12
(dp1835
g130
I4
sg131
g132
sg133
g134
sg135
g132
sg136
I01
sg34
g137
sg138
g134
sg139
I0
sg140
I0
sg141
I0
sg142
g134
sg35
g143
sg144
I0
stRp1836
sg146
g147
sg148
F1
sg149
Nsg30
S'CtropB'
p1837
sbag1
(g2
g3
NtRp1838
(dp1839
g6
g1
(g7
g3
NtRp1840
(dp1841
g10
g1
(g11
g12
(dtRp1842
sg14
g1
(g11
g12
(dtRp1843
sg16
g1
(g11
g12
(dtRp1844
sg18
g1
(g11
g12
(dtRp1845
sg20
g1
(g11
g12
(dtRp1846
sg22
g1
(g11
g12
(dtRp1847
sbsg24
S'Ctr'
p1848
sg26
g27
((lp1849
g29
ag30
aS'sequence'
p1850
ag32
ag33
aS'species'
p1851
atRp1852
sg37
(lp1853
sg120
g1804
sg121
S'RWLSTKDLYSRLELPGLNQNVHAMFVMPLGFGNPMGDMFARLNNSFWLPPLSLEGAGTGWTVYPPLSHSGPSVDLAFHLTSSLLGAINFTNMRGPLFWTALLLLSLPVLAGTLLDRNFNTFEGGDPLYHLFWFFGHPEVYIIPGFGSHSTYKKFGMYASIGLGFVWSHHMYVGLDDRAYFTSATMIAPTGIKFSWLATYGGRPMLAFLFLFTGGTGVLNASDAFHDSYYVVHFHYVLSMGAFSLGYYYWPGLYNLYWFNFPMHFLGGMPRRPYPDAGWNSGSSYQLGPDEANEPH'
p1854
sg123
F0.00040000000000000002
sg124
g125
sg33
S'117'
p1855
sg127
g1
(g128
g12
(dp1856
g130
I4
sg131
g132
sg133
g134
sg135
g132
sg136
I01
sg34
g137
sg138
g134
sg139
I0
sg140
I0
sg141
I0
sg142
g134
sg35
g143
sg144
I0
stRp1857
sg146
g147
sg148
F1
sg149
Nsg30
S'CtropA'
p1858
sbasg120
g1791
sg123
F0.032030000000000003
sg124
g125
sg33
S'194'
p1859
sg127
g1
(g128
g12
(dp1860
g130
I6
sg131
g132
sg133
g134
sg135
g132
sg136
I01
sg34
g174
sg138
g134
sg139
I0
sg140
I0
sg141
I0
sg142
g134
sg35
g175
sg144
I0
stRp1861
sg146
g147
sg148
F0.98999999999999999
sg149
Nsg30
S'NoName'
p1862
sbag1
(g2
g3
NtRp1863
(dp1864
g6
g1
(g7
g3
NtRp1865
(dp1866
g10
g1
(g11
g12
(dtRp1867
sg14
g1
(g11
g12
(dtRp1868
sg16
g1
(g11
g12
(dtRp1869
sg18
g1
(g11
g12
(dtRp1870
sg20
g1
(g11
g12
(dtRp1871
sg22
g1
(g11
g12
(dtRp1872
sbsg24
S'Cso'
p1873
sg26
g27
((lp1874
g29
ag30
aS'sequence'
p1875
ag32
ag33
aS'species'
p1876
atRp1877
sg37
(lp1878
sg120
g1791
sg121
S'RWLSTKDLYSRLELPGLNQNVHAMFVMPLGFGNPMGDMFARLNNSFWLPPLSLEGAGTGWTVYPPLSHSGPSVDLAFHLTSSLLGAMNFTNMRGPLFWTALLLLSLPVLAGTLLDRNFNTFEGGDPLYHLFWFFGHPEVYIIPGFGSHSTYKKFGMYASIGLGFVWSHHMYVGLDDRAYFTSATMIAPTGIKFSWLATYGGRPMLAFLFLFTGGTGVLNASDAFHDTYYVVHFHYVLSMGAFSLGYYYWPGLYNLYWFNFPMHFLGGMPRRPYPDAGWNSGSSYQLGPDEANEPH'
p1879
sg123
F0.033649999999999999
sg124
g125
sg33
S'132'
p1880
sg127
g1
(g128
g12
(dp1881
g130
I4
sg131
g132
sg133
g134
sg135
g132
sg136
I01
sg34
g137
sg138
g134
sg139
I0
sg140
I0
sg141
I0
sg142
g134
sg35
g143
sg144
I0
stRp1882
sg146
g147
sg148
F1
sg149
Nsg30
S'CsojaA'
p1883
sbasg120
g1778
sg123
F0.019990000000000001
sg124
g125
sg33
S'46'
p1884
sg127
g1
(g128
g12
(dp1885
g130
I6
sg131
g132
sg133
g134
sg135
g132
sg136
I01
sg34
g174
sg138
g134
sg139
I0
sg140
I0
sg141
I0
sg142
g134
sg35
g175
sg144
I0
stRp1886
sg146
g147
sg148
F0.98999999999999999
sg149
Nsg30
S'NoName'
p1887
sbag1
(g2
g3
NtRp1888
(dp1889
g6
g1
(g7
g3
NtRp1890
(dp1891
g10
g1
(g11
g12
(dtRp1892
sg14
g1
(g11
g12
(dtRp1893
sg16
g1
(g11
g12
(dtRp1894
sg18
g1
(g11
g12
(dtRp1895
sg20
g1
(g11
g12
(dtRp1896
sg22
g1
(g11
g12
(dtRp1897
sbsg24
g25
sg26
g27
((lp1898
g33
ag32
ag29
ag30
atRp1899
sg37
(lp1900
g1
(g2
g3
NtRp1901
(dp1902
g6
g1
(g7
g3
NtRp1903
(dp1904
g10
g1
(g11
g12
(dtRp1905
sg14
g1
(g11
g12
(dtRp1906
sg16
g1
(g11
g12
(dtRp1907
sg18
g1
(g11
g12
(dtRp1908
sg20
g1
(g11
g12
(dtRp1909
sg22
g1
(g11
g12
(dtRp1910
sbsg24
S'Cte'
p1911
sg26
g27
((lp1912
g29
ag30
aS'sequence'
p1913
ag32
ag33
aS'species'
p1914
atRp1915
sg37
(lp1916
sg120
g1888
sg121
S'RWLSTKDLYSRLELPGLNQNVHAMFVMPLGFGNPMGDMFARLNNSFWLPPLSLEGAGTGWTVYPPLSHSGPSVDMAFHLTSSLLGAINFTNMRGPLFWTALLLLSLPVLAGTLLDRNFNTFEGGDPLYHLFWFFGHPEVYIIPGFGSHSTYKKFGMYASIGLGFVWSHHMFVGLDDRAYFTSATMMAPTGIKFSWLATYGGRPMLAFLFLFTGGTGVLNASDSMHDTYYVVHFHYVLSMGAFSLGYYYWPGLYNLYWFNFPMHFLGGMPRRPYPDAGWNSGSSLQLGPDESNEPH'
p1917
sg123
F0.084209999999999993
sg124
g125
sg33
S'71'
p1918
sg127
g1
(g128
g12
(dp1919
g130
I4
sg131
g132
sg133
g134
sg135
g132
sg136
I01
sg34
g137
sg138
g134
sg139
I0
sg140
I0
sg141
I0
sg142
g134
sg35
g143
sg144
I0
stRp1920
sg146
g147
sg148
F1
sg149
Nsg30
S'CtetrA'
p1921
sbag1
(g2
g3
NtRp1922
(dp1923
g6
g1
(g7
g3
NtRp1924
(dp1925
g10
g1
(g11
g12
(dtRp1926
sg14
g1
(g11
g12
(dtRp1927
sg16
g1
(g11
g12
(dtRp1928
sg18
g1
(g11
g12
(dtRp1929
sg20
g1
(g11
g12
(dtRp1930
sg22
g1
(g11
g12
(dtRp1931
sbsg24
g25
sg26
g27
((lp1932
g33
ag32
ag29
ag30
atRp1933
sg37
(lp1934
g1
(g2
g3
NtRp1935
(dp1936
g6
g1
(g7
g3
NtRp1937
(dp1938
g10
g1
(g11
g12
(dtRp1939
sg14
g1
(g11
g12
(dtRp1940
sg16
g1
(g11
g12
(dtRp1941
sg18
g1
(g11
g12
(dtRp1942
sg20
g1
(g11
g12
(dtRp1943
sg22
g1
(g11
g12
(dtRp1944
sbsg24
g25
sg26
g27
((lp1945
g33
ag32
ag29
ag30
atRp1946
sg37
(lp1947
g1
(g2
g3
NtRp1948
(dp1949
g6
g1
(g7
g3
NtRp1950
(dp1951
g10
g1
(g11
g12
(dtRp1952
sg14
g1
(g11
g12
(dtRp1953
sg16
g1
(g11
g12
(dtRp1954
sg18
g1
(g11
g12
(dtRp1955
sg20
g1
(g11
g12
(dtRp1956
sg22
g1
(g11
g12
(dtRp1957
sbsg24
S'Cvi'
p1958
sg26
g27
((lp1959
g29
ag30
aS'sequence'
p1960
ag32
ag33
aS'species'
p1961
atRp1962
sg37
(lp1963
sg120
g1935
sg121
S'RWFSTKDLYSRLELPGLNQNVHAMFVMPLGFGNPMGDMFARLNNSFWLPPLSLEGAGTGWTVYPPLSHSGPSVDLAFHLTSSLLGAINFTNMRGPLFWTALLLLSLPVLAGTLLDRNFNTFDGGDPLYHLFWFFGHPEVYMIPGFGSHSTYKKFGMYASIGLGFVWSHHMYVGLDDRAYFTSATMIAPTGIKFSWLSTYGGRPTLAFLFLFTGGTGVLNASDSMHDTYYVVHFHYVLSMGAFSLGYYYWPGLYNLYWFNFPMHFLGGMPRRPYPDSGWNSGSSFQLGPDESNEPH'
p1964
sg123
F0.03977
sg124
g125
sg33
S'121'
p1965
sg127
g1
(g128
g12
(dp1966
g130
I4
sg131
g132
sg133
g134
sg135
g132
sg136
I01
sg34
g137
sg138
g134
sg139
I0
sg140
I0
sg141
I0
sg142
g134
sg35
g143
sg144
I0
stRp1967
sg146
g147
sg148
F1
sg149
Nsg30
S'CviswA'
p1968
sbag1
(g2
g3
NtRp1969
(dp1970
g6
g1
(g7
g3
NtRp1971
(dp1972
g10
g1
(g11
g12
(dtRp1973
sg14
g1
(g11
g12
(dtRp1974
sg16
g1
(g11
g12
(dtRp1975
sg18
g1
(g11
g12
(dtRp1976
sg20
g1
(g11
g12
(dtRp1977
sg22
g1
(g11
g12
(dtRp1978
sbsg24
S'Csa'
p1979
sg26
g27
((lp1980
g29
ag30
aS'sequence'
p1981
ag32
ag33
aS'species'
p1982
atRp1983
sg37
(lp1984
sg120
g1935
sg121
S'RWFSTKDLYSRLELPGLNQNVHAMFVMPLGFGNPMGDMFARLNNSFWLPPLSLEGAGTGWTVYPPLSHSGPSVDLAFHLTSSLLGAINFTNMRGVLFWTALLLLSLPVLAGTLLDRNFNTFDGGDPLYHLFWFFGHPEVYIIPGFGSHSTFKKFGMYASIGLGFVWSHHMYVGLDDRAYFTSATMIAPTGIKFSWIATYGGRPTLAFLFLFTGGTGVLNASDSMHDTYYVVHFHYVLSMGAFSLGYYYWPGLYNLYWFNFPMHFLGGMPRRPYPDSGWNSGSSYQLGPDEGNEPH'
p1985
sg123
F0.065189999999999998
sg124
g125
sg33
S'164'
p1986
sg127
g1
(g128
g12
(dp1987
g130
I4
sg131
g132
sg133
g134
sg135
g132
sg136
I01
sg34
g137
sg138
g134
sg139
I0
sg140
I0
sg141
I0
sg142
g134
sg35
g143
sg144
I0
stRp1988
sg146
g147
sg148
F1
sg149
Nsg30
S'CsaraA'
p1989
sbasg120
g1922
sg123
F0.029960000000000001
sg124
g125
sg33
S'43'
p1990
sg127
g1
(g128
g12
(dp1991
g130
I6
sg131
g132
sg133
g134
sg135
g132
sg136
I01
sg34
g174
sg138
g134
sg139
I0
sg140
I0
sg141
I0
sg142
g134
sg35
g175
sg144
I0
stRp1992
sg146
g147
sg148
F0.98999999999999999
sg149
Nsg30
S'NoName'
p1993
sbag1
(g2
g3
NtRp1994
(dp1995
g6
g1
(g7
g3
NtRp1996
(dp1997
g10
g1
(g11
g12
(dtRp1998
sg14
g1
(g11
g12
(dtRp1999
sg16
g1
(g11
g12
(dtRp2000
sg18
g1
(g11
g12
(dtRp2001
sg20
g1
(g11
g12
(dtRp2002
sg22
g1
(g11
g12
(dtRp2003
sbsg24
S'Cpr'
p2004
sg26
g27
((lp2005
g29
ag30
aS'sequence'
p2006
ag32
ag33
aS'species'
p2007
atRp2008
sg37
(lp2009
sg120
g1922
sg121
S'RWFSTKDEYSRLELPGLNQNVHAMFVMPLGFGNPMGDMFARLNNSFWLPPLSLEGAGTGWTVYPPLSHSGPSVDLAFHLTSSLLGAINFTNMRGPLFWTALLLLSLPVLTGTLLDRNFNTFDGGDPLYHLFWFFGHPEVYMIPGFGSHSTYKKFGMYASMGLGFVWSHHMFVGLDDRAYFTSATMMAPTGIKFSWLATYGGRPMLAFLFLFTGGTGVLNASDSMHDTYYVVHFHYVLSMGAFSLGYYYWPGLYNLYWFNFPMHFLGGMPRRPYPDSGWNSGSSVQLGPDENNEPH'
p2010
sg123
F0.17724999999999999
sg124
g125
sg33
S'84'
p2011
sg127
g1
(g128
g12
(dp2012
g130
I4
sg131
g132
sg133
g134
sg135
g132
sg136
I01
sg34
g137
sg138
g134
sg139
I0
sg140
I0
sg141
I0
sg142
g134
sg35
g143
sg144
I0
stRp2013
sg146
g147
sg148
F1
sg149
Nsg30
S'CpracA'
p2014
sbasg120
g1888
sg123
F0.02281
sg124
g125
sg33
S'119'
p2015
sg127
g1
(g128
g12
(dp2016
g130
I6
sg131
g132
sg133
g134
sg135
g132
sg136
I01
sg34
g174
sg138
g134
sg139
I0
sg140
I0
sg141
I0
sg142
g134
sg35
g175
sg144
I0
stRp2017
sg146
g147
sg148
F0.98999999999999999
sg149
Nsg30
S'NoName'
p2018
sbasg120
g1778
sg123
F0.01154
sg124
g125
sg33
S'18'
p2019
sg127
g1
(g128
g12
(dp2020
g130
I6
sg131
g132
sg133
g134
sg135
g132
sg136
I01
sg34
g174
sg138
g134
sg139
I0
sg140
I0
sg141
I0
sg142
g134
sg35
g175
sg144
I0
stRp2021
sg146
g147
sg148
F0.98999999999999999
sg149
Nsg30
S'NoName'
p2022
sbasg120
g1765
sg123
F0.02138
sg124
g125
sg33
S'197'
p2023
sg127
g1
(g128
g12
(dp2024
g130
I6
sg131
g132
sg133
g134
sg135
g132
sg136
I01
sg34
g174
sg138
g134
sg139
I0
sg140
I0
sg141
I0
sg142
g134
sg35
g175
sg144
I0
stRp2025
sg146
g147
sg148
F0.98999999999999999
sg149
Nsg30
S'NoName'
p2026
sbag1
(g2
g3
NtRp2027
(dp2028
g6
g1
(g7
g3
NtRp2029
(dp2030
g10
g1
(g11
g12
(dtRp2031
sg14
g1
(g11
g12
(dtRp2032
sg16
g1
(g11
g12
(dtRp2033
sg18
g1
(g11
g12
(dtRp2034
sg20
g1
(g11
g12
(dtRp2035
sg22
g1
(g11
g12
(dtRp2036
sbsg24
g25
sg26
g27
((lp2037
g33
ag32
ag29
ag30
atRp2038
sg37
(lp2039
g1
(g2
g3
NtRp2040
(dp2041
g6
g1
(g7
g3
NtRp2042
(dp2043
g10
g1
(g11
g12
(dtRp2044
sg14
g1
(g11
g12
(dtRp2045
sg16
g1
(g11
g12
(dtRp2046
sg18
g1
(g11
g12
(dtRp2047
sg20
g1
(g11
g12
(dtRp2048
sg22
g1
(g11
g12
(dtRp2049
sbsg24
S'Cne'
p2050
sg26
g27
((lp2051
g29
ag30
aS'sequence'
p2052
ag32
ag33
aS'species'
p2053
atRp2054
sg37
(lp2055
sg120
g2027
sg121
S'RWLSTKDLYSRLELPGLNQNVHAMFVMPLGFGNPMGDMFARLNNSFWLPPLSLEGAGTGWTVYPPLSHSGPSVDLAFHLTSSLLGAINFTNMRGPLFWTALLLLSLPVLAGTLLDRNFNTFDGGDPLYHLFWFFGHPEVYIIPGFGSHSTYKKFGMYASIGLGFVWSHHMYVGLDDRAYFTSATMIAPTGIKFSWLATYGGRPMLAFLFLFTGGTGVLNASDAFHDTYYVVHFHYVLSMGAFSLGYYYWPGLYNLYWFNFPMHFLGGMPRRPYPDSGWNSGSSYQLGPDESNEPH'
p2056
sg123
F0.04879
sg124
g125
sg33
S'69'
p2057
sg127
g1
(g128
g12
(dp2058
g130
I4
sg131
g132
sg133
g134
sg135
g132
sg136
I01
sg34
g137
sg138
g134
sg139
I0
sg140
I0
sg141
I0
sg142
g134
sg35
g143
sg144
I0
stRp2059
sg146
g147
sg148
F1
sg149
Nsg30
S'CneerA'
p2060
sbag1
(g2
g3
NtRp2061
(dp2062
g6
g1
(g7
g3
NtRp2063
(dp2064
g10
g1
(g11
g12
(dtRp2065
sg14
g1
(g11
g12
(dtRp2066
sg16
g1
(g11
g12
(dtRp2067
sg18
g1
(g11
g12
(dtRp2068
sg20
g1
(g11
g12
(dtRp2069
sg22
g1
(g11
g12
(dtRp2070
sbsg24
S'Cfr'
p2071
sg26
g27
((lp2072
g29
ag30
aS'sequence'
p2073
ag32
ag33
aS'species'
p2074
atRp2075
sg37
(lp2076
sg120
g2027
sg121
S'RWLSTKDLYSRLELPGLNQNVHAMFVMPLGFGNPMGDMFARLNNSFWLPPLSLEGAGTGWTVYPPLSHSGPSVDLAFHLTSSLLGAMNFTNMRGPLFWTALLLLSLPVLAGTLLDRNFNTFDGGDPLYHLFWFFGHPEVYIIPGFGSHSTYKKFGMYASIGLGFVWSHHMYVGLDDRAYFTSATMIAPTGIKFSWLSTYGGRPMLAFLFLFTGGTGVLNASDAFHDTYYVVHFHYVLSMGAFSLGYYYWPGLYNLYWFNFPMHFLGGMPRRPYPDSGWNSGSSYQLGPDESNEPH'
p2077
sg123
F0.050279999999999998
sg124
g125
sg33
S'13'
p2078
sg127
g1
(g128
g12
(dp2079
g130
I4
sg131
g132
sg133
g134
sg135
g132
sg136
I01
sg34
g137
sg138
g134
sg139
I0
sg140
I0
sg141
I0
sg142
g134
sg35
g143
sg144
I0
stRp2080
sg146
g147
sg148
F1
sg149
Nsg30
S'CfrijA'
p2081
sbasg120
g1765
sg123
F0.11378000000000001
sg124
g125
sg33
S'104'
p2082
sg127
g1
(g128
g12
(dp2083
g130
I6
sg131
g132
sg133
g134
sg135
g132
sg136
I01
sg34
g174
sg138
g134
sg139
I0
sg140
I0
sg141
I0
sg142
g134
sg35
g175
sg144
I0
stRp2084
sg146
g147
sg148
F0.98999999999999999
sg149
Nsg30
S'NoName'
p2085
sbasg120
g1731
sg123
F0.076910000000000006
sg124
g125
sg33
S'37'
p2086
sg127
g1
(g128
g12
(dp2087
g130
I6
sg131
g132
sg133
g134
sg135
g132
sg136
I01
sg34
g174
sg138
g134
sg139
I0
sg140
I0
sg141
I0
sg142
g134
sg35
g175
sg144
I0
stRp2088
sg146
g147
sg148
F0.98999999999999999
sg149
Nsg30
S'NoName'
p2089
sbasg120
g1718
sg123
F0.022950000000000002
sg124
g125
sg33
S'118'
p2090
sg127
g1
(g128
g12
(dp2091
g130
I6
sg131
g132
sg133
g134
sg135
g132
sg136
I01
sg34
g174
sg138
g134
sg139
I0
sg140
I0
sg141
I0
sg142
g134
sg35
g175
sg144
I0
stRp2092
sg146
g147
sg148
F0.65000000000000002
sg149
Nsg30
S'NoName'
p2093
sbag1
(g2
g3
NtRp2094
(dp2095
g6
g1
(g7
g3
NtRp2096
(dp2097
g10
g1
(g11
g12
(dtRp2098
sg14
g1
(g11
g12
(dtRp2099
sg16
g1
(g11
g12
(dtRp2100
sg18
g1
(g11
g12
(dtRp2101
sg20
g1
(g11
g12
(dtRp2102
sg22
g1
(g11
g12
(dtRp2103
sbsg24
g25
sg26
g27
((lp2104
g33
ag32
ag29
ag30
atRp2105
sg37
(lp2106
g1
(g2
g3
NtRp2107
(dp2108
g6
g1
(g7
g3
NtRp2109
(dp2110
g10
g1
(g11
g12
(dtRp2111
sg14
g1
(g11
g12
(dtRp2112
sg16
g1
(g11
g12
(dtRp2113
sg18
g1
(g11
g12
(dtRp2114
sg20
g1
(g11
g12
(dtRp2115
sg22
g1
(g11
g12
(dtRp2116
sbsg24
g25
sg26
g27
((lp2117
g33
ag32
ag29
ag30
atRp2118
sg37
(lp2119
g1
(g2
g3
NtRp2120
(dp2121
g6
g1
(g7
g3
NtRp2122
(dp2123
g10
g1
(g11
g12
(dtRp2124
sg14
g1
(g11
g12
(dtRp2125
sg16
g1
(g11
g12
(dtRp2126
sg18
g1
(g11
g12
(dtRp2127
sg20
g1
(g11
g12
(dtRp2128
sg22
g1
(g11
g12
(dtRp2129
sbsg24
S'Cgi'
p2130
sg26
g27
((lp2131
g29
ag30
aS'sequence'
p2132
ag32
ag33
aS'species'
p2133
atRp2134
sg37
(lp2135
sg120
g2107
sg121
S'RWLSTKDLYSRLELAGLNQNVHAMFVMPLGFGNPMGDMFARLNNSFWLPPLSLEGAGTGWTVYPPLSHSGPSVDMAFHLTSSLLGAINFTNMRGPLFWTALLLLSLPVLAATLLDRNFNTFEGGDPLYHAFWFFGHPEVYIIPGFGSHSTYKKFGMYASIGLGFVWSHHMYVGLDDRAYFTSATMIAPTGIKFSWLATYGGRPMLAFLFLFTGGTGVLNASDAFHDTYYVVHFHYVLSMGAFSLGYYYWPGLYNLYWFNFPMHFLGGMPRRPYPDAGWNSGSSYQLGPDESNEPH'
p2136
sg123
F0.22796
sg124
g125
sg33
S'48'
p2137
sg127
g1
(g128
g12
(dp2138
g130
I4
sg131
g132
sg133
g134
sg135
g132
sg136
I01
sg34
g137
sg138
g134
sg139
I0
sg140
I0
sg141
I0
sg142
g134
sg35
g143
sg144
I0
stRp2139
sg146
g147
sg148
F1
sg149
Nsg30
S'CgigaA'
p2140
sbag1
(g2
g3
NtRp2141
(dp2142
g6
g1
(g7
g3
NtRp2143
(dp2144
g10
g1
(g11
g12
(dtRp2145
sg14
g1
(g11
g12
(dtRp2146
sg16
g1
(g11
g12
(dtRp2147
sg18
g1
(g11
g12
(dtRp2148
sg20
g1
(g11
g12
(dtRp2149
sg22
g1
(g11
g12
(dtRp2150
sbsg24
S'Cbu'
p2151
sg26
g27
((lp2152
g29
ag30
aS'sequence'
p2153
ag32
ag33
aS'species'
p2154
atRp2155
sg37
(lp2156
sg120
g2107
sg121
S'RWLSTKDLYSRLELAGLNQNVHAMFVMPLGFGNPMGDMFARLNNSFWLPPLSLEGAGTGWTVYPPLSHSGPSVDLAFHLTSSLLGAINFTNMRGPLFWTALLLLSLPVLAGTLLDRNFNTFEGGDPLYHLFWFFGHPEVYIIPGFGSHGTYKKFGMYASIGLGFVWSHHMFVGLDDRAYFTSATMIAPTGIKFSWLATYGGRPMLAFLFLFTGGTGVLNASDAFHDTYYVVHFHYVLSMGAFSLAYYYWPGLYNLFWFNFPMHFLGGMPRRPYPDAGWNSGSSYQLGPDESNEPH'
p2157
sg123
F0.26118000000000002
sg124
g125
sg33
S'45'
p2158
sg127
g1
(g128
g12
(dp2159
g130
I4
sg131
g132
sg133
g134
sg135
g132
sg136
I01
sg34
g137
sg138
g134
sg139
I0
sg140
I0
sg141
I0
sg142
g134
sg35
g143
sg144
I0
stRp2160
sg146
g147
sg148
F1
sg149
Nsg30
S'CbuenA'
p2161
sbasg120
g2094
sg123
F0.037260000000000001
sg124
g125
sg33
S'19'
p2162
sg127
g1
(g128
g12
(dp2163
g130
I6
sg131
g132
sg133
g134
sg135
g132
sg136
I01
sg34
g174
sg138
g134
sg139
I0
sg140
I0
sg141
I0
sg142
g134
sg35
g175
sg144
I0
stRp2164
sg146
g147
sg148
F0.98999999999999999
sg149
Nsg30
S'NoName'
p2165
sbag1
(g2
g3
NtRp2166
(dp2167
g6
g1
(g7
g3
NtRp2168
(dp2169
g10
g1
(g11
g12
(dtRp2170
sg14
g1
(g11
g12
(dtRp2171
sg16
g1
(g11
g12
(dtRp2172
sg18
g1
(g11
g12
(dtRp2173
sg20
g1
(g11
g12
(dtRp2174
sg22
g1
(g11
g12
(dtRp2175
sbsg24
g25
sg26
g27
((lp2176
g33
ag32
ag29
ag30
atRp2177
sg37
(lp2178
g1
(g2
g3
NtRp2179
(dp2180
g6
g1
(g7
g3
NtRp2181
(dp2182
g10
g1
(g11
g12
(dtRp2183
sg14
g1
(g11
g12
(dtRp2184
sg16
g1
(g11
g12
(dtRp2185
sg18
g1
(g11
g12
(dtRp2186
sg20
g1
(g11
g12
(dtRp2187
sg22
g1
(g11
g12
(dtRp2188
sbsg24
S'Cdu'
p2189
sg26
g27
((lp2190
g29
ag30
aS'sequence'
p2191
ag32
ag33
aS'species'
p2192
atRp2193
sg37
(lp2194
sg120
g2166
sg121
S'RWLSTKDLYSRLELPGLNQNVHAMFVMPLGFGNPMGDMFARLNNSFWLPPLSLEGAGTGWTVYPPLSHSGPSVDLAFHLTSSLLGAINFTNMRGPLYWTALLLLSLPVLAGTLLDRNFNTFEGGDPLYHLFWFFGHPEVYIIPGFGSHSTYKKFGMYASIGLGFVWSHHMYVGLDDRAYFTSATMIAPTGIKFSWLATYGGRPMLAFLFLFTGGTGVLNASDAFHDTYYVVHFHYVLSMGAFSLGYYYWPGLYNLYWFNFPMHFLGGMPRRPYPDAGWNSGSSYQLGPDESNEPH'
p2195
sg123
F0.025069999999999999
sg124
g125
sg33
S'5'
sg127
g1
(g128
g12
(dp2196
g130
I4
sg131
g132
sg133
g134
sg135
g132
sg136
I01
sg34
g137
sg138
g134
sg139
I0
sg140
I0
sg141
I0
sg142
g134
sg35
g143
sg144
I0
stRp2197
sg146
g147
sg148
F1
sg149
Nsg30
S'CdublA'
p2198
sbag1
(g2
g3
NtRp2199
(dp2200
g6
g1
(g7
g3
NtRp2201
(dp2202
g10
g1
(g11
g12
(dtRp2203
sg14
g1
(g11
g12
(dtRp2204
sg16
g1
(g11
g12
(dtRp2205
sg18
g1
(g11
g12
(dtRp2206
sg20
g1
(g11
g12
(dtRp2207
sg22
g1
(g11
g12
(dtRp2208
sbsg24
g25
sg26
g27
((lp2209
g33
ag32
ag29
ag30
atRp2210
sg37
(lp2211
g1
(g2
g3
NtRp2212
(dp2213
g6
g1
(g7
g3
NtRp2214
(dp2215
g10
g1
(g11
g12
(dtRp2216
sg14
g1
(g11
g12
(dtRp2217
sg16
g1
(g11
g12
(dtRp2218
sg18
g1
(g11
g12
(dtRp2219
sg20
g1
(g11
g12
(dtRp2220
sg22
g1
(g11
g12
(dtRp2221
sbsg24
g25
sg26
g27
((lp2222
g33
ag32
ag29
ag30
atRp2223
sg37
(lp2224
g1
(g2
g3
NtRp2225
(dp2226
g6
g1
(g7
g3
NtRp2227
(dp2228
g10
g1
(g11
g12
(dtRp2229
sg14
g1
(g11
g12
(dtRp2230
sg16
g1
(g11
g12
(dtRp2231
sg18
g1
(g11
g12
(dtRp2232
sg20
g1
(g11
g12
(dtRp2233
sg22
g1
(g11
g12
(dtRp2234
sbsg24
g25
sg26
g27
((lp2235
g33
ag32
ag29
ag30
atRp2236
sg37
(lp2237
g1
(g2
g3
NtRp2238
(dp2239
g6
g1
(g7
g3
NtRp2240
(dp2241
g10
g1
(g11
g12
(dtRp2242
sg14
g1
(g11
g12
(dtRp2243
sg16
g1
(g11
g12
(dtRp2244
sg18
g1
(g11
g12
(dtRp2245
sg20
g1
(g11
g12
(dtRp2246
sg22
g1
(g11
g12
(dtRp2247
sbsg24
g25
sg26
g27
((lp2248
g33
ag32
ag29
ag30
atRp2249
sg37
(lp2250
g1
(g2
g3
NtRp2251
(dp2252
g6
g1
(g7
g3
NtRp2253
(dp2254
g10
g1
(g11
g12
(dtRp2255
sg14
g1
(g11
g12
(dtRp2256
sg16
g1
(g11
g12
(dtRp2257
sg18
g1
(g11
g12
(dtRp2258
sg20
g1
(g11
g12
(dtRp2259
sg22
g1
(g11
g12
(dtRp2260
sbsg24
S'Cal'
p2261
sg26
g27
((lp2262
g29
ag30
aS'sequence'
p2263
ag32
ag33
aS'species'
p2264
atRp2265
sg37
(lp2266
sg120
g2238
sg121
S'RWLSTKDLYSRLELPGLNQNVHAMFVMPLGFGNPMGDMFARLNNSFWLPPLSLEGAGTGWTVYPPLSHSGPSVDLAFHLTSSLLGAINFTNMRGPLFWTALLLLSLPVLAGTLLDRNFNTFEGGDPLYHLFWFFGHPEVYIIPGFGSHSTYKKFGMYASIGLGFVWSHHMYVGLDDRAYFTSATMIAPTGIKFSWLATYGGRPMLAFLFLFTGGTGVLNASDAFHDTYYVVHFHYVLSMGAFSLGYYYWPGLYNLYWFNFPMHFLGGMPRRPYPDAGWNSGSSYQLGPDESNEPH'
p2267
sg123
F0.00025000000000000001
sg124
g125
sg33
S'141'
p2268
sg127
g1
(g128
g12
(dp2269
g130
I4
sg131
g132
sg133
g134
sg135
g132
sg136
I01
sg34
g137
sg138
g134
sg139
I0
sg140
I0
sg141
I0
sg142
g134
sg35
g143
sg144
I0
stRp2270
sg146
g147
sg148
F1
sg149
Nsg30
S'CalbiE'
p2271
sbag1
(g2
g3
NtRp2272
(dp2273
g6
g1
(g7
g3
NtRp2274
(dp2275
g10
g1
(g11
g12
(dtRp2276
sg14
g1
(g11
g12
(dtRp2277
sg16
g1
(g11
g12
(dtRp2278
sg18
g1
(g11
g12
(dtRp2279
sg20
g1
(g11
g12
(dtRp2280
sg22
g1
(g11
g12
(dtRp2281
sbsg24
S'Cal'
p2282
sg26
g27
((lp2283
g29
ag30
aS'sequence'
p2284
ag32
ag33
aS'species'
p2285
atRp2286
sg37
(lp2287
sg120
g2238
sg121
S'RWLSTKDLYSRLELPGLNQNVHAMFVMPLGFGNPMGDMFARLNNSFWLPPLSLEGAGTGWTVYPPLSHSGPSVDLAFHLTSSLLGAINFTNMRGPLFWTALLLLSLPVLAGTLLDRNFNTFEGGDPLYHLFWFFGHPEVYIIPGFGSHSTYKKFGMYASIGLGFVWSHHMYVGLDDRAYFTSATMIAPTGIKFSWLATYGGRPMLAFLFLFTGGTGVLNASDAFHDTYYVVHFHYVLSMGAFSLGYYYWPGLYNLYWFNFPMHFLGGMPRRPYPDAGWNSGSSYQLGPDESNEPH'
p2288
sg123
F0.00050000000000000001
sg124
g125
sg33
S'22'
p2289
sg127
g1
(g128
g12
(dp2290
g130
I4
sg131
g132
sg133
g134
sg135
g132
sg136
I01
sg34
g137
sg138
g134
sg139
I0
sg140
I0
sg141
I0
sg142
g134
sg35
g143
sg144
I0
stRp2291
sg146
g147
sg148
F1
sg149
Nsg30
S'CalbiD'
p2292
sbasg120
g2225
sg123
F0.00051999999999999995
sg124
g125
sg33
S'96'
p2293
sg127
g1
(g128
g12
(dp2294
g130
I6
sg131
g132
sg133
g134
sg135
g132
sg136
I01
sg34
g174
sg138
g134
sg139
I0
sg140
I0
sg141
I0
sg142
g134
sg35
g175
sg144
I0
stRp2295
sg146
g147
sg148
F0.73999999999999999
sg149
Nsg30
S'NoName'
p2296
sbag1
(g2
g3
NtRp2297
(dp2298
g6
g1
(g7
g3
NtRp2299
(dp2300
g10
g1
(g11
g12
(dtRp2301
sg14
g1
(g11
g12
(dtRp2302
sg16
g1
(g11
g12
(dtRp2303
sg18
g1
(g11
g12
(dtRp2304
sg20
g1
(g11
g12
(dtRp2305
sg22
g1
(g11
g12
(dtRp2306
sbsg24
S'Cal'
p2307
sg26
g27
((lp2308
g29
ag30
aS'sequence'
p2309
ag32
ag33
aS'species'
p2310
atRp2311
sg37
(lp2312
sg120
g2225
sg121
S'RWLSTKDLYSRLELPGLNQNVHAMFVMPLGFGNPMGDMFARLNNSFWLPPLSLEGAGTGWTVYPPLSHSGPSVDLAFHLTSSLLGAINFTNMRGPLFWTALLLLSLPVLAGTLLDRNFNTFEGGDPLYHLFWFFGHPEVYIIPGFGSHSTYKKFGMYASIGLGFVWSHHMYVGLDDRAYFTSATMIAPTGIKFSWLATYGGRPMLAFLFLFTGGTGVLNASDAFHDTYYVVHFHYVLSMGAFSLGYYYWPGLYNLYWFNFPMHFLGGMPRRPYPDAGWNSGSSYQLGPDESNEPH'
p2313
sg123
F0.00012
sg124
g125
sg33
S'23'
p2314
sg127
g1
(g128
g12
(dp2315
g130
I4
sg131
g132
sg133
g134
sg135
g132
sg136
I01
sg34
g137
sg138
g134
sg139
I0
sg140
I0
sg141
I0
sg142
g134
sg35
g143
sg144
I0
stRp2316
sg146
g147
sg148
F1
sg149
Nsg30
S'CalbiC'
p2317
sbasg120
g2212
sg123
F1.0000000000000001e-05
sg124
g125
sg33
S'3'
sg127
g1
(g128
g12
(dp2318
g130
I6
sg131
g132
sg133
g134
sg135
g132
sg136
I01
sg34
g174
sg138
g134
sg139
I0
sg140
I0
sg141
I0
sg142
g134
sg35
g175
sg144
I0
stRp2319
sg146
g147
sg148
F1
sg149
Nsg30
S'NoName'
p2320
sbag1
(g2
g3
NtRp2321
(dp2322
g6
g1
(g7
g3
NtRp2323
(dp2324
g10
g1
(g11
g12
(dtRp2325
sg14
g1
(g11
g12
(dtRp2326
sg16
g1
(g11
g12
(dtRp2327
sg18
g1
(g11
g12
(dtRp2328
sg20
g1
(g11
g12
(dtRp2329
sg22
g1
(g11
g12
(dtRp2330
sbsg24
S'Cal'
p2331
sg26
g27
((lp2332
g29
ag30
aS'sequence'
p2333
ag32
ag33
aS'species'
p2334
atRp2335
sg37
(lp2336
sg120
g2212
sg121
S'RWLSTKDLYSRLELPGLNQNVHAMFVMPLGFGNPMGDMFARLNNSFWLPPLSLEGAGTGWTVYPPLSHSGPSVDLAFHLTSSLLGAINFTNMRGPLFWTALLLLSLPVLAGTLLDRNFNTFEGGDPLYHLFWFFGHPEVYIIPGFGSHSTYKKFGMYASIGLGFVWSHHMYVGLDDRAYFTSATMIAPTGIKFSWLATYGGRPMLAFLFLFTGGTGVLNASDAFHDTYYVVHFHYVLSMGAFSLGYYYWPGLYNLYWFNFPMHFLGGMPRRPYPDAGWNSGSSYQLGPDESNEPH'
p2337
sg123
F0.00016000000000000001
sg124
g125
sg33
S'10'
p2338
sg127
g1
(g128
g12
(dp2339
g130
I4
sg131
g132
sg133
g134
sg135
g132
sg136
I01
sg34
g137
sg138
g134
sg139
I0
sg140
I0
sg141
I0
sg142
g134
sg35
g143
sg144
I0
stRp2340
sg146
g147
sg148
F1
sg149
Nsg30
S'CalbiB'
p2341
sbasg120
g2199
sg123
F1.0000000000000001e-05
sg124
g125
sg33
S'100'
p2342
sg127
g1
(g128
g12
(dp2343
g130
I6
sg131
g132
sg133
g134
sg135
g132
sg136
I01
sg34
g174
sg138
g134
sg139
I0
sg140
I0
sg141
I0
sg142
g134
sg35
g175
sg144
I0
stRp2344
sg146
g147
sg148
F1
sg149
Nsg30
S'NoName'
p2345
sbag1
(g2
g3
NtRp2346
(dp2347
g6
g1
(g7
g3
NtRp2348
(dp2349
g10
g1
(g11
g12
(dtRp2350
sg14
g1
(g11
g12
(dtRp2351
sg16
g1
(g11
g12
(dtRp2352
sg18
g1
(g11
g12
(dtRp2353
sg20
g1
(g11
g12
(dtRp2354
sg22
g1
(g11
g12
(dtRp2355
sbsg24
S'Cal'
p2356
sg26
g27
((lp2357
g29
ag30
aS'sequence'
p2358
ag32
ag33
aS'species'
p2359
atRp2360
sg37
(lp2361
sg120
g2199
sg121
S'RWLSTKDLYSRLELPGLNQNVHAMFVMPLGFGNPMGDMFARLNNSFWLPPLSLEGAGTGWTVYPPLSHSGPSVDLAFHLTSSLLGAINFTNMRGPLFWTALLLLSLPVLAGTLLDRNFNTFEGGDPLYHLFWFFGHPEVYIIPGFGSHSTYKKFGMYASIGLGFVWSHHMYVGLDDRAYFTSATMIAPTGIKFSWLATYGGRPMLAFLFLFTGGTGVLNASDAFHDTYYVVHFHYVLSMGAFSLGYYYWPGLYNLYWFNFPMHFLGGMPRRPYPDAGWNSGSSYQLGPDESNEPH'
p2362
sg123
F0.00013999999999999999
sg124
g125
sg33
S'35'
p2363
sg127
g1
(g128
g12
(dp2364
g130
I4
sg131
g132
sg133
g134
sg135
g132
sg136
I01
sg34
g137
sg138
g134
sg139
I0
sg140
I0
sg141
I0
sg142
g134
sg35
g143
sg144
I0
stRp2365
sg146
g147
sg148
F1
sg149
Nsg30
S'CalbiA'
p2366
sbasg120
g2166
sg123
F0.014959999999999999
sg124
g125
sg33
S'25'
p2367
sg127
g1
(g128
g12
(dp2368
g130
I6
sg131
g132
sg133
g134
sg135
g132
sg136
I01
sg34
g174
sg138
g134
sg139
I0
sg140
I0
sg141
I0
sg142
g134
sg35
g175
sg144
I0
stRp2369
sg146
g147
sg148
F0.98999999999999999
sg149
Nsg30
S'NoName'
p2370
sbasg120
g2094
sg123
F0.05287
sg124
g125
sg33
S'208'
p2371
sg127
g1
(g128
g12
(dp2372
g130
I6
sg131
g132
sg133
g134
sg135
g132
sg136
I01
sg34
g174
sg138
g134
sg139
I0
sg140
I0
sg141
I0
sg142
g134
sg35
g175
sg144
I0
stRp2373
sg146
g147
sg148
F0.98999999999999999
sg149
Nsg30
S'NoName'
p2374
sbasg120
g1718
sg123
F0.037499999999999999
sg124
g125
sg33
S'198'
p2375
sg127
g1
(g128
g12
(dp2376
g130
I6
sg131
g132
sg133
g134
sg135
g132
sg136
I01
sg34
g174
sg138
g134
sg139
I0
sg140
I0
sg141
I0
sg142
g134
sg35
g175
sg144
I0
stRp2377
sg146
g147
sg148
F0.98999999999999999
sg149
Nsg30
S'NoName'
p2378
sbasg120
g1002
sg123
F0.10766000000000001
sg124
g125
sg33
S'27'
p2379
sg127
g1
(g128
g12
(dp2380
g130
I6
sg131
g132
sg133
g134
sg135
g132
sg136
I01
sg34
g174
sg138
g134
sg139
I0
sg140
I0
sg141
I0
sg142
g134
sg35
g175
sg144
I0
stRp2381
sg146
g147
sg148
F0.98999999999999999
sg149
Nsg30
S'NoName'
p2382
sbasg120
g968
sg123
F0.093560000000000004
sg124
g125
sg33
S'59'
p2383
sg127
g1
(g128
g12
(dp2384
g130
I6
sg131
g132
sg133
g134
sg135
g132
sg136
I01
sg34
g174
sg138
g134
sg139
I0
sg140
I0
sg141
I0
sg142
g134
sg35
g175
sg144
I0
stRp2385
sg146
g147
sg148
F0.97999999999999998
sg149
Nsg30
S'NoName'
p2386
sbasg120
g955
sg123
F0.036760000000000001
sg124
g125
sg33
S'79'
p2387
sg127
g1
(g128
g12
(dp2388
g130
I6
sg131
g132
sg133
g134
sg135
g132
sg136
I01
sg34
g174
sg138
g134
sg139
I0
sg140
I0
sg141
I0
sg142
g134
sg35
g175
sg144
I0
stRp2389
sg146
g147
sg148
F0.97999999999999998
sg149
Nsg30
S'NoName'
p2390
sbag1
(g2
g3
NtRp2391
(dp2392
g6
g1
(g7
g3
NtRp2393
(dp2394
g10
g1
(g11
g12
(dtRp2395
sg14
g1
(g11
g12
(dtRp2396
sg16
g1
(g11
g12
(dtRp2397
sg18
g1
(g11
g12
(dtRp2398
sg20
g1
(g11
g12
(dtRp2399
sg22
g1
(g11
g12
(dtRp2400
sbsg24
g25
sg26
g27
((lp2401
g33
ag32
ag29
ag30
atRp2402
sg37
(lp2403
g1
(g2
g3
NtRp2404
(dp2405
g6
g1
(g7
g3
NtRp2406
(dp2407
g10
g1
(g11
g12
(dtRp2408
sg14
g1
(g11
g12
(dtRp2409
sg16
g1
(g11
g12
(dtRp2410
sg18
g1
(g11
g12
(dtRp2411
sg20
g1
(g11
g12
(dtRp2412
sg22
g1
(g11
g12
(dtRp2413
sbsg24
g25
sg26
g27
((lp2414
g33
ag32
ag29
ag30
atRp2415
sg37
(lp2416
g1
(g2
g3
NtRp2417
(dp2418
g6
g1
(g7
g3
NtRp2419
(dp2420
g10
g1
(g11
g12
(dtRp2421
sg14
g1
(g11
g12
(dtRp2422
sg16
g1
(g11
g12
(dtRp2423
sg18
g1
(g11
g12
(dtRp2424
sg20
g1
(g11
g12
(dtRp2425
sg22
g1
(g11
g12
(dtRp2426
sbsg24
S'Csu'
p2427
sg26
g27
((lp2428
g29
ag30
aS'sequence'
p2429
ag32
ag33
aS'species'
p2430
atRp2431
sg37
(lp2432
sg120
g2404
sg121
S'RWLSTKDLYSRMELPGLNQNVHAMFIMPLGLGNPLGDMFARLNNSFWLPPLSLEGAGTGWTVYPPLSHSGPSVDLAFHLTSSLLGAINFTNMRGPLYWTALLLLSLPVLAATLLDRNFNTFEGGDPLYHLFWFFGHPEVYIIPGFGSHSTYKKFGMYASIGLGFVWSHHMFVGLDDRAYFTSATMIAPTGVKFSWLATYGGRPMLAFLFLFTGGTGVINASDAFHDTYYIVHFHYVLSMGAFSLGFYYWPGLYNLFWFNFPMHFLGGMPRRPYPDAGWNSGSAYQLGPDESNEPH'
p2433
sg123
F0.00012999999999999999
sg124
g125
sg33
S'224'
p2434
sg127
g1
(g128
g12
(dp2435
g130
I4
sg131
g132
sg133
g134
sg135
g132
sg136
I01
sg34
g137
sg138
g134
sg139
I0
sg140
I0
sg141
I0
sg142
g134
sg35
g143
sg144
I0
stRp2436
sg146
g147
sg148
F1
sg149
Nsg30
S'CsubhB'
p2437
sbag1
(g2
g3
NtRp2438
(dp2439
g6
g1
(g7
g3
NtRp2440
(dp2441
g10
g1
(g11
g12
(dtRp2442
sg14
g1
(g11
g12
(dtRp2443
sg16
g1
(g11
g12
(dtRp2444
sg18
g1
(g11
g12
(dtRp2445
sg20
g1
(g11
g12
(dtRp2446
sg22
g1
(g11
g12
(dtRp2447
sbsg24
S'Csu'
p2448
sg26
g27
((lp2449
g29
ag30
aS'sequence'
p2450
ag32
ag33
aS'species'
p2451
atRp2452
sg37
(lp2453
sg120
g2404
sg121
S'RWLSTKDLYSRMELPGLNQNVHAMFIMPLGLGNPLGDMFARLNNSFWLPPLSLEGAGTGWTVYPPLSHSGPSVDLAFHLTSSLLGAINFTNMRGPLYWTALLLLSLPVLAATLLDRNFNTFEGGDPLYHLFWFFGHPEVYIIPGFGSHSTYKKFGMYASIGLGFVWSHHMFVGLDDRAYFTSATMIAPTGVKFSWLATYGGRPMLAFLFLFTGGTGVINASDAFHDTYYIVHFHYVLSMGAFSLGFYYWPGLYNLFWFNFPMHFLGGMPRRPYPDAGWNSGSAYQLGPDESNEPH'
p2454
sg123
F0.00013999999999999999
sg124
g125
sg33
S'163'
p2455
sg127
g1
(g128
g12
(dp2456
g130
I4
sg131
g132
sg133
g134
sg135
g132
sg136
I01
sg34
g137
sg138
g134
sg139
I0
sg140
I0
sg141
I0
sg142
g134
sg35
g143
sg144
I0
stRp2457
sg146
g147
sg148
F1
sg149
Nsg30
S'CsubhA'
p2458
sbasg120
g2391
sg123
F0.59348999999999996
sg124
g125
sg33
S'83'
p2459
sg127
g1
(g128
g12
(dp2460
g130
I6
sg131
g132
sg133
g134
sg135
g132
sg136
I01
sg34
g174
sg138
g134
sg139
I0
sg140
I0
sg141
I0
sg142
g134
sg35
g175
sg144
I0
stRp2461
sg146
g147
sg148
F1
sg149
Nsg30
S'NoName'
p2462
sbag1
(g2
g3
NtRp2463
(dp2464
g6
g1
(g7
g3
NtRp2465
(dp2466
g10
g1
(g11
g12
(dtRp2467
sg14
g1
(g11
g12
(dtRp2468
sg16
g1
(g11
g12
(dtRp2469
sg18
g1
(g11
g12
(dtRp2470
sg20
g1
(g11
g12
(dtRp2471
sg22
g1
(g11
g12
(dtRp2472
sbsg24
S'Cal'
p2473
sg26
g27
((lp2474
g29
ag30
aS'sequence'
p2475
ag32
ag33
aS'species'
p2476
atRp2477
sg37
(lp2478
sg120
g2391
sg121
S'RWLSTKDLYSRMELPGLNQNVHAMFVMPLGFGNPLGDMFARLNNSFWLPPLSLDGPGTGWTVYPPLSHSGASVDFAFHLTSSLLGAINFTNMRGPLFWTALLLLSLPVLVATLLDRNFNTFEGGDPLYHLFWFFGHPEVYMIPGFGSHSTYKKFGMYASIGLGFVWSHHMFVGLDDRAYFTSATMMAPTGIKFSWMATYGGYPMLAFLFLFTGGTGVINASDAFHDTYYIVHFHYVLSMGAFSLGYYYWPGLYNLFWFNFPMHFLGGMPRRPYPDAGWNSGSAYQLGPDESNEPH'
p2479
sg123
F0.40044000000000002
sg124
g125
sg33
S'213'
p2480
sg127
g1
(g128
g12
(dp2481
g130
I4
sg131
g132
sg133
g134
sg135
g132
sg136
I01
sg34
g137
sg138
g134
sg139
I0
sg140
I0
sg141
I0
sg142
g134
sg35
g143
sg144
I0
stRp2482
sg146
g147
sg148
F1
sg149
Nsg30
S'CalaiA'
p2483
sbasg120
g955
sg123
F0.080810000000000007
sg124
g125
sg33
S'62'
p2484
sg127
g1
(g128
g12
(dp2485
g130
I6
sg131
g132
sg133
g134
sg135
g132
sg136
I01
sg34
g174
sg138
g134
sg139
I0
sg140
I0
sg141
I0
sg142
g134
sg35
g175
sg144
I0
stRp2486
sg146
g147
sg148
F0.98999999999999999
sg149
Nsg30
S'NoName'
p2487
sbasg120
g693
sg123
F0.075389999999999999
sg124
g125
sg33
S'113'
p2488
sg127
g1
(g128
g12
(dp2489
g130
I6
sg131
g132
sg133
g134
sg135
g132
sg136
I01
sg34
g174
sg138
g134
sg139
I0
sg140
I0
sg141
I0
sg142
g134
sg35
g175
sg144
I0
stRp2490
sg146
g147
sg148
F0.94999999999999996
sg149
Nsg30
S'NoName'
p2491
sbasg120
g680
sg123
F1.2542500000000001
sg124
g125
sg33
S'205'
p2492
sg127
g1
(g128
g12
(dp2493
g130
I6
sg131
g132
sg133
g134
sg135
g132
sg136
I01
sg34
g174
sg138
g134
sg139
I0
sg140
I0
sg141
I0
sg142
g134
sg35
g175
sg144
I0
stRp2494
sg146
g147
sg148
F0.97999999999999998
sg149
Nsg30
S'NoName'
p2495
sbag1
(g2
g3
NtRp2496
(dp2497
g6
g1
(g7
g3
NtRp2498
(dp2499
g10
g1
(g11
g12
(dtRp2500
sg14
g1
(g11
g12
(dtRp2501
sg16
g1
(g11
g12
(dtRp2502
sg18
g1
(g11
g12
(dtRp2503
sg20
g1
(g11
g12
(dtRp2504
sg22
g1
(g11
g12
(dtRp2505
sbsg24
g25
sg26
g27
((lp2506
g33
ag32
ag29
ag30
atRp2507
sg37
(lp2508
g1
(g2
g3
NtRp2509
(dp2510
g6
g1
(g7
g3
NtRp2511
(dp2512
g10
g1
(g11
g12
(dtRp2513
sg14
g1
(g11
g12
(dtRp2514
sg16
g1
(g11
g12
(dtRp2515
sg18
g1
(g11
g12
(dtRp2516
sg20
g1
(g11
g12
(dtRp2517
sg22
g1
(g11
g12
(dtRp2518
sbsg24
g25
sg26
g27
((lp2519
g33
ag32
ag29
ag30
atRp2520
sg37
(lp2521
g1
(g2
g3
NtRp2522
(dp2523
g6
g1
(g7
g3
NtRp2524
(dp2525
g10
g1
(g11
g12
(dtRp2526
sg14
g1
(g11
g12
(dtRp2527
sg16
g1
(g11
g12
(dtRp2528
sg18
g1
(g11
g12
(dtRp2529
sg20
g1
(g11
g12
(dtRp2530
sg22
g1
(g11
g12
(dtRp2531
sbsg24
S'Ppa'
p2532
sg26
g27
((lp2533
g29
ag30
aS'sequence'
p2534
ag32
ag33
aS'species'
p2535
atRp2536
sg37
(lp2537
sg120
g2509
sg121
S'RWLSTKDLYSRLELPGLNQNVHAMFVMPAGFGNPMGDMFARLNNSFWLPPLSLEGAGTGWTVYPPLAHSGPSVDLAFHLTSSLLGAMNFTNMRGPLFWTSLLLLSLPVLAGTLLDRNFNTFEGGDPLYHLFWFFGHPEVYIMPGFGSHSTYKKFGMYASIGLGLVWSHHMYVGLDDRAYFTSATMMAPTGMKFSWLATYGGRPMLAFLFLFTGGSGVLNASDAFHDTYYVIHFHYVLSLGAFSLGYYYWPGLYNLFWFNFPMHFLGGMPRRPYPDAGWNSGSSYQLGPDESNDPH'
p2538
sg123
F0.16184999999999999
sg124
g125
sg33
S'188'
p2539
sg127
g1
(g128
g12
(dp2540
g130
I4
sg131
g132
sg133
g134
sg135
g132
sg136
I01
sg34
g137
sg138
g134
sg139
I0
sg140
I0
sg141
I0
sg142
g134
sg35
g143
sg144
I0
stRp2541
sg146
g147
sg148
F1
sg149
Nsg30
S'PpastA'
p2542
sbag1
(g2
g3
NtRp2543
(dp2544
g6
g1
(g7
g3
NtRp2545
(dp2546
g10
g1
(g11
g12
(dtRp2547
sg14
g1
(g11
g12
(dtRp2548
sg16
g1
(g11
g12
(dtRp2549
sg18
g1
(g11
g12
(dtRp2550
sg20
g1
(g11
g12
(dtRp2551
sg22
g1
(g11
g12
(dtRp2552
sbsg24
g25
sg26
g27
((lp2553
g33
ag32
ag29
ag30
atRp2554
sg37
(lp2555
g1
(g2
g3
NtRp2556
(dp2557
g6
g1
(g7
g3
NtRp2558
(dp2559
g10
g1
(g11
g12
(dtRp2560
sg14
g1
(g11
g12
(dtRp2561
sg16
g1
(g11
g12
(dtRp2562
sg18
g1
(g11
g12
(dtRp2563
sg20
g1
(g11
g12
(dtRp2564
sg22
g1
(g11
g12
(dtRp2565
sbsg24
S'Pta'
p2566
sg26
g27
((lp2567
g29
ag30
aS'sequence'
p2568
ag32
ag33
aS'species'
p2569
atRp2570
sg37
(lp2571
sg120
g2543
sg121
S'RWLSTKDLYSRLELPGLNQNVHAMFVMPAGFGNPMGDMFARLNNSFWLPPLSLEGAGTGWTVYPPLSHSGPSVDLAFHLTSSLLGGMNFTNMRGPLFWTSLLVLTLPVLAGTLLDRNFNTFEGGDPLYHLFWFFGHPEVYIIPGFGSHSAYKKFGMYASIGLGLVWSHHMYVGLDDRAYFTSATMIAPTGIKFSWLATYGGRPMLAFLFLFTGGSGVLNASDAFHDTYYVMHFHYVLSLGAFSLGYYYWPGLYNLFWFNFPMHFLGGMPRRPYPDAGFNSGSSYQLGPDESNEPH'
p2572
sg123
F0.23080999999999999
sg124
g125
sg33
S'114'
p2573
sg127
g1
(g128
g12
(dp2574
g130
I4
sg131
g132
sg133
g134
sg135
g132
sg136
I01
sg34
g137
sg138
g134
sg139
I0
sg140
I0
sg141
I0
sg142
g134
sg35
g143
sg144
I0
stRp2575
sg146
g147
sg148
F1
sg149
Nsg30
S'PtannA'
p2576
sbag1
(g2
g3
NtRp2577
(dp2578
g6
g1
(g7
g3
NtRp2579
(dp2580
g10
g1
(g11
g12
(dtRp2581
sg14
g1
(g11
g12
(dtRp2582
sg16
g1
(g11
g12
(dtRp2583
sg18
g1
(g11
g12
(dtRp2584
sg20
g1
(g11
g12
(dtRp2585
sg22
g1
(g11
g12
(dtRp2586
sbsg24
g25
sg26
g27
((lp2587
g33
ag32
ag29
ag30
atRp2588
sg37
(lp2589
g1
(g2
g3
NtRp2590
(dp2591
g6
g1
(g7
g3
NtRp2592
(dp2593
g10
g1
(g11
g12
(dtRp2594
sg14
g1
(g11
g12
(dtRp2595
sg16
g1
(g11
g12
(dtRp2596
sg18
g1
(g11
g12
(dtRp2597
sg20
g1
(g11
g12
(dtRp2598
sg22
g1
(g11
g12
(dtRp2599
sbsg24
g25
sg26
g27
((lp2600
g33
ag32
ag29
ag30
atRp2601
sg37
(lp2602
g1
(g2
g3
NtRp2603
(dp2604
g6
g1
(g7
g3
NtRp2605
(dp2606
g10
g1
(g11
g12
(dtRp2607
sg14
g1
(g11
g12
(dtRp2608
sg16
g1
(g11
g12
(dtRp2609
sg18
g1
(g11
g12
(dtRp2610
sg20
g1
(g11
g12
(dtRp2611
sg22
g1
(g11
g12
(dtRp2612
sbsg24
S'Pkl'
p2613
sg26
g27
((lp2614
g29
ag30
aS'sequence'
p2615
ag32
ag33
aS'species'
p2616
atRp2617
sg37
(lp2618
sg120
g2590
sg121
S'RWLSTKDLYSRLELPGLNQNVHAMFMMPTGFGNPMGDMFARLNNSFWLPPLSLEGPGTGWTVYPPLSHSGPSVDLAFHLTSSLLGAMNFTNMRGPLFWTALLVMTLPVLAGTLLDRNFNTFEGGDPLYHLFWFFGHPEVYMMPGFGSHSTYKKFGMYASMGLGLVWSHHMYVGLDDRAYFTSATMMAPTGMKFSWLATYGGRPMLAFMFIFTGGSGVLNASDAFHDTYYVMHFHYVLSLGAFAMGYYYWPGLFNLFWFNFPMHFLGGMPRRPYPDAGFNSGASYQLGPDESNEPH'
p2619
sg123
F0.12625
sg124
g125
sg33
S'191'
p2620
sg127
g1
(g128
g12
(dp2621
g130
I4
sg131
g132
sg133
g134
sg135
g132
sg136
I01
sg34
g137
sg138
g134
sg139
I0
sg140
I0
sg141
I0
sg142
g134
sg35
g143
sg144
I0
stRp2622
sg146
g147
sg148
F1
sg149
Nsg30
S'PkluyA'
p2623
sbag1
(g2
g3
NtRp2624
(dp2625
g6
g1
(g7
g3
NtRp2626
(dp2627
g10
g1
(g11
g12
(dtRp2628
sg14
g1
(g11
g12
(dtRp2629
sg16
g1
(g11
g12
(dtRp2630
sg18
g1
(g11
g12
(dtRp2631
sg20
g1
(g11
g12
(dtRp2632
sg22
g1
(g11
g12
(dtRp2633
sbsg24
S'Bcu'
p2634
sg26
g27
((lp2635
g29
ag30
aS'sequence'
p2636
ag32
ag33
aS'species'
p2637
atRp2638
sg37
(lp2639
sg120
g2590
sg121
S'RWLSTKDLYSRLELPGLDQNVHSMFMMPTGFGNPMGDMFARLNNAFWYPPLSLEGPGTGWTVYPPLSHSGPSMDLAFHLTSSMLSSMNFTNMRGPLFWTALLMMTLPVLAGTLLDRNFNTFEGGDPLYHLYWFFGHPEVYIIPVFGSHSNYKKFGMYASMGLGLVWSHHMYVGLDDRAYFTSATMIAPTGIKFSWLATYGGRPMLAFLFMFTGGSGVLNASDAFHDTYFVVHFHYVLSLGVYGVGYYFWPGLYNMFWFNFPMHFLGGMPRRPYPDAGFNSGSAYQLGPDESNEPH'
p2640
sg123
F0.30854999999999999
sg124
g125
sg33
S'217'
p2641
sg127
g1
(g128
g12
(dp2642
g130
I4
sg131
g132
sg133
g134
sg135
g132
sg136
I01
sg34
g137
sg138
g134
sg139
I0
sg140
I0
sg141
I0
sg142
g134
sg35
g143
sg144
I0
stRp2643
sg146
g147
sg148
F1
sg149
Nsg30
S'BcustA'
p2644
sbasg120
g2577
sg123
F0.19120999999999999
sg124
g125
sg33
S'222'
p2645
sg127
g1
(g128
g12
(dp2646
g130
I6
sg131
g132
sg133
g134
sg135
g132
sg136
I01
sg34
g174
sg138
g134
sg139
I0
sg140
I0
sg141
I0
sg142
g134
sg35
g175
sg144
I0
stRp2647
sg146
g147
sg148
F0.98999999999999999
sg149
Nsg30
S'NoName'
p2648
sbag1
(g2
g3
NtRp2649
(dp2650
g6
g1
(g7
g3
NtRp2651
(dp2652
g10
g1
(g11
g12
(dtRp2653
sg14
g1
(g11
g12
(dtRp2654
sg16
g1
(g11
g12
(dtRp2655
sg18
g1
(g11
g12
(dtRp2656
sg20
g1
(g11
g12
(dtRp2657
sg22
g1
(g11
g12
(dtRp2658
sbsg24
S'Oan'
p2659
sg26
g27
((lp2660
g29
ag30
aS'sequence'
p2661
ag32
ag33
aS'species'
p2662
atRp2663
sg37
(lp2664
sg120
g2577
sg121
S'RWLSTKDLYSRLELPGLNQNAHAMFVMPAGFGNPMGDMFARLNNSFWLPPLSLEGAGTGWTVYPPLSHSGPSVDLAFHLTSSLLGAINFTNMRGPLFWTALLLLSLPVLAGTLLDRNFNTFEGGDPLYHLFWFFGHPEVYIIPGFGSHSTYKKFGMYASIGLGLVWSHHMYVGLDDRAYFTSATMIAPTGIKFSWIATYGGRPMLAFLFLFTGGSGVLNASDAFHDTYYVIHFHYVLSLGAFSLGYYYWPGLYNLFWFNFPMHFLGGMPRRPYPDAGYNSGSSYQLGPDESNEPH'
p2665
sg123
F0.025399999999999999
sg124
g125
sg33
S'187'
p2666
sg127
g1
(g128
g12
(dp2667
g130
I4
sg131
g132
sg133
g134
sg135
g132
sg136
I01
sg34
g137
sg138
g134
sg139
I0
sg140
I0
sg141
I0
sg142
g134
sg35
g143
sg144
I0
stRp2668
sg146
g147
sg148
F1
sg149
Nsg30
S'OanguA'
p2669
sbasg120
g2543
sg123
F0.33273999999999998
sg124
g125
sg33
S'123'
p2670
sg127
g1
(g128
g12
(dp2671
g130
I6
sg131
g132
sg133
g134
sg135
g132
sg136
I01
sg34
g174
sg138
g134
sg139
I0
sg140
I0
sg141
I0
sg142
g134
sg35
g175
sg144
I0
stRp2672
sg146
g147
sg148
F0.98999999999999999
sg149
Nsg30
S'NoName'
p2673
sbasg120
g2509
sg123
F0.054379999999999998
sg124
g125
sg33
S'175'
p2674
sg127
g1
(g128
g12
(dp2675
g130
I6
sg131
g132
sg133
g134
sg135
g132
sg136
I01
sg34
g174
sg138
g134
sg139
I0
sg140
I0
sg141
I0
sg142
g134
sg35
g175
sg144
I0
stRp2676
sg146
g147
sg148
F0.96999999999999997
sg149
Nsg30
S'NoName'
p2677
sbasg120
g2496
sg123
F0.76378000000000001
sg124
g125
sg33
S'200'
p2678
sg127
g1
(g128
g12
(dp2679
g130
I6
sg131
g132
sg133
g134
sg135
g132
sg136
I01
sg34
g174
sg138
g134
sg139
I0
sg140
I0
sg141
I0
sg142
g134
sg35
g175
sg144
I0
stRp2680
sg146
g147
sg148
F0.98999999999999999
sg149
Nsg30
S'NoName'
p2681
sbag1
(g2
g3
NtRp2682
(dp2683
g6
g1
(g7
g3
NtRp2684
(dp2685
g10
g1
(g11
g12
(dtRp2686
sg14
g1
(g11
g12
(dtRp2687
sg16
g1
(g11
g12
(dtRp2688
sg18
g1
(g11
g12
(dtRp2689
sg20
g1
(g11
g12
(dtRp2690
sg22
g1
(g11
g12
(dtRp2691
sbsg24
g25
sg26
g27
((lp2692
g33
ag32
ag29
ag30
atRp2693
sg37
(lp2694
g1
(g2
g3
NtRp2695
(dp2696
g6
g1
(g7
g3
NtRp2697
(dp2698
g10
g1
(g11
g12
(dtRp2699
sg14
g1
(g11
g12
(dtRp2700
sg16
g1
(g11
g12
(dtRp2701
sg18
g1
(g11
g12
(dtRp2702
sg20
g1
(g11
g12
(dtRp2703
sg22
g1
(g11
g12
(dtRp2704
sbsg24
g25
sg26
g27
((lp2705
g33
ag32
ag29
ag30
atRp2706
sg37
(lp2707
g1
(g2
g3
NtRp2708
(dp2709
g6
g1
(g7
g3
NtRp2710
(dp2711
g10
g1
(g11
g12
(dtRp2712
sg14
g1
(g11
g12
(dtRp2713
sg16
g1
(g11
g12
(dtRp2714
sg18
g1
(g11
g12
(dtRp2715
sg20
g1
(g11
g12
(dtRp2716
sg22
g1
(g11
g12
(dtRp2717
sbsg24
g25
sg26
g27
((lp2718
g33
ag32
ag29
ag30
atRp2719
sg37
(lp2720
g1
(g2
g3
NtRp2721
(dp2722
g6
g1
(g7
g3
NtRp2723
(dp2724
g10
g1
(g11
g12
(dtRp2725
sg14
g1
(g11
g12
(dtRp2726
sg16
g1
(g11
g12
(dtRp2727
sg18
g1
(g11
g12
(dtRp2728
sg20
g1
(g11
g12
(dtRp2729
sg22
g1
(g11
g12
(dtRp2730
sbsg24
g25
sg26
g27
((lp2731
g33
ag32
ag29
ag30
atRp2732
sg37
(lp2733
g1
(g2
g3
NtRp2734
(dp2735
g6
g1
(g7
g3
NtRp2736
(dp2737
g10
g1
(g11
g12
(dtRp2738
sg14
g1
(g11
g12
(dtRp2739
sg16
g1
(g11
g12
(dtRp2740
sg18
g1
(g11
g12
(dtRp2741
sg20
g1
(g11
g12
(dtRp2742
sg22
g1
(g11
g12
(dtRp2743
sbsg24
S'Cva'
p2744
sg26
g27
((lp2745
g29
ag30
aS'sequence'
p2746
ag32
ag33
aS'species'
p2747
atRp2748
sg37
(lp2749
sg120
g2721
sg121
S'RWLSTKDLYSRLELPGLNQNVHAMFVMPLGFGNPLGDMFARLNNSFWLPPLSLEGAGTGWTIYPPLSHSSPSVDLGFHLTSSLLGAINFTNMRGPLFWTAMLLLSLPVLAGTLLDRNFNTFEGGDPLYHLFWFFGHPEVYIIPGFGSHSTYKKFGMYASIALGFVWSHHMYVGLDDRAYFTSSTMIAPTGIKFSWLATYGGRPMLAFLFLFTGGTGVLNASDAFHDTYYVVHFHYVLSMGAFSLGYYYWPGLYNLFWFNFPMHFLGGMPRRPYPDAGWNSGSSYQLGPDESNEPH'
p2750
sg123
F0.043270000000000003
sg124
g125
sg33
S'0'
sg127
g1
(g128
g12
(dp2751
g130
I4
sg131
g132
sg133
g134
sg135
g132
sg136
I01
sg34
g137
sg138
g134
sg139
I0
sg140
I0
sg141
I0
sg142
g134
sg35
g143
sg144
I0
stRp2752
sg146
g147
sg148
F1
sg149
Nsg30
S'CvartA'
p2753
sbag1
(g2
g3
NtRp2754
(dp2755
g6
g1
(g7
g3
NtRp2756
(dp2757
g10
g1
(g11
g12
(dtRp2758
sg14
g1
(g11
g12
(dtRp2759
sg16
g1
(g11
g12
(dtRp2760
sg18
g1
(g11
g12
(dtRp2761
sg20
g1
(g11
g12
(dtRp2762
sg22
g1
(g11
g12
(dtRp2763
sbsg24
g25
sg26
g27
((lp2764
g33
ag32
ag29
ag30
atRp2765
sg37
(lp2766
g1
(g2
g3
NtRp2767
(dp2768
g6
g1
(g7
g3
NtRp2769
(dp2770
g10
g1
(g11
g12
(dtRp2771
sg14
g1
(g11
g12
(dtRp2772
sg16
g1
(g11
g12
(dtRp2773
sg18
g1
(g11
g12
(dtRp2774
sg20
g1
(g11
g12
(dtRp2775
sg22
g1
(g11
g12
(dtRp2776
sbsg24
S'Csu'
p2777
sg26
g27
((lp2778
g29
ag30
aS'sequence'
p2779
ag32
ag33
aS'species'
p2780
atRp2781
sg37
(lp2782
sg120
g2754
sg121
S'RWLSTKDLYSRLELPGLNQNVHAMFVMPLGFGNPLGDMFARLNNSFWLPPLSLEGAGTGWTIYPPLSHSSPSVDLGFHLTSSMLGAINFTNMRGPLFWTAMLLLSLPVLAGTLLDRNFNTFEGGDPLYHLFWFFGHPEVYIIPGFGSHSTYKKFGMYASIALGFVWSHHMYVGLDDRAYFTSSTMIAPTGIKFSWLATYGGRPMLAFLFLFTGGTGVLNASDAFHDSYYY-HFHYVLSMGAFSLGYYYWPGLYNLFWFNFPMHFLGGMPRRPYPDAGWNSGSSYQLGPDESNEPH'
p2783
sg123
F0.0043699999999999998
sg124
g125
sg33
S'6'
sg127
g1
(g128
g12
(dp2784
g130
I4
sg131
g132
sg133
g134
sg135
g132
sg136
I01
sg34
g137
sg138
g134
sg139
I0
sg140
I0
sg141
I0
sg142
g134
sg35
g143
sg144
I0
stRp2785
sg146
g147
sg148
F1
sg149
Nsg30
S'CsuavB'
p2786
sbag1
(g2
g3
NtRp2787
(dp2788
g6
g1
(g7
g3
NtRp2789
(dp2790
g10
g1
(g11
g12
(dtRp2791
sg14
g1
(g11
g12
(dtRp2792
sg16
g1
(g11
g12
(dtRp2793
sg18
g1
(g11
g12
(dtRp2794
sg20
g1
(g11
g12
(dtRp2795
sg22
g1
(g11
g12
(dtRp2796
sbsg24
S'Csu'
p2797
sg26
g27
((lp2798
g29
ag30
aS'sequence'
p2799
ag32
ag33
aS'species'
p2800
atRp2801
sg37
(lp2802
sg120
g2754
sg121
S'RWLSTKDLYSRLELPGLNQNVHAMFVMPLGFGNPLGDMFARLNNSFWLPPLSLEGAGTGWTIYPPLSHSSPSVDLGFHLTSSLLGAINFTNMRGPLFWTAMLLLSLPVLAGTLLDRNFNTFEGGDPLYHLFWFFGHPEVYIIPGFGSHSTYKKFGMYASIALGFVWSHHMYVGLDDRAYFTSSTMIAPTGIKFSWLATYGGRPMLAFLFLFTGGTGVLNASDAFHDTYYVVHFHYVLSMGAFSLGYYYWPGLYNLFWFNFPMHFLGGMPRRPYPDAGWNSGSSYQLGPDESNEPH'
p2803
sg123
F0.0025999999999999999
sg124
g125
sg33
S'51'
p2804
sg127
g1
(g128
g12
(dp2805
g130
I4
sg131
g132
sg133
g134
sg135
g132
sg136
I01
sg34
g137
sg138
g134
sg139
I0
sg140
I0
sg141
I0
sg142
g134
sg35
g143
sg144
I0
stRp2806
sg146
g147
sg148
F1
sg149
Nsg30
S'CsuavA'
p2807
sbasg120
g2721
sg123
F0.016740000000000001
sg124
g125
sg33
S'38'
p2808
sg127
g1
(g128
g12
(dp2809
g130
I6
sg131
g132
sg133
g134
sg135
g132
sg136
I01
sg34
g174
sg138
g134
sg139
I0
sg140
I0
sg141
I0
sg142
g134
sg35
g175
sg144
I0
stRp2810
sg146
g147
sg148
F0.98999999999999999
sg149
Nsg30
S'NoName'
p2811
sbasg120
g2708
sg123
F0.01158
sg124
g125
sg33
S'142'
p2812
sg127
g1
(g128
g12
(dp2813
g130
I6
sg131
g132
sg133
g134
sg135
g132
sg136
I01
sg34
g174
sg138
g134
sg139
I0
sg140
I0
sg141
I0
sg142
g134
sg35
g175
sg144
I0
stRp2814
sg146
g147
sg148
F0.97999999999999998
sg149
Nsg30
S'NoName'
p2815
sbag1
(g2
g3
NtRp2816
(dp2817
g6
g1
(g7
g3
NtRp2818
(dp2819
g10
g1
(g11
g12
(dtRp2820
sg14
g1
(g11
g12
(dtRp2821
sg16
g1
(g11
g12
(dtRp2822
sg18
g1
(g11
g12
(dtRp2823
sg20
g1
(g11
g12
(dtRp2824
sg22
g1
(g11
g12
(dtRp2825
sbsg24
S'Cja'
p2826
sg26
g27
((lp2827
g29
ag30
aS'sequence'
p2828
ag32
ag33
aS'species'
p2829
atRp2830
sg37
(lp2831
sg120
g2708
sg121
S'RWLSTKDLYSRLELPGLNQNVHAMFVMPLGFGNPLGDMFARLNNSFWLPPLSLEGAGTGWTIYPPLAHSSPSVDLGFHLTSSLLGAINFTNMRGPLFWTAMLLLSLPVLAGTLLDRNFNTFEGGDPLYHLFWFFGHPEVYIIPGFGSHSTYKKFGMYASIALGFVWSHHMYVGLDDRAYFTSSTMIAPTGIKFSWLATYGGRPMLAFLFLFTGGTGVLNASDAFHDTYYVVHFHYVLSMGAFSLGYYYWPGLYNLFWFNFPMHFLGGMPRRPYPDAGWNSGSSYQLGPDESNEPH'
p2832
sg123
F0.033799999999999997
sg124
g125
sg33
S'52'
p2833
sg127
g1
(g128
g12
(dp2834
g130
I4
sg131
g132
sg133
g134
sg135
g132
sg136
I01
sg34
g137
sg138
g134
sg139
I0
sg140
I0
sg141
I0
sg142
g134
sg35
g143
sg144
I0
stRp2835
sg146
g147
sg148
F1
sg149
Nsg30
S'CjadiA'
p2836
sbasg120
g2695
sg123
F0.10375
sg124
g125
sg33
S'1'
sg127
g1
(g128
g12
(dp2837
g130
I6
sg131
g132
sg133
g134
sg135
g132
sg136
I01
sg34
g174
sg138
g134
sg139
I0
sg140
I0
sg141
I0
sg142
g134
sg35
g175
sg144
I0
stRp2838
sg146
g147
sg148
F0.98999999999999999
sg149
Nsg30
S'NoName'
p2839
sbag1
(g2
g3
NtRp2840
(dp2841
g6
g1
(g7
g3
NtRp2842
(dp2843
g10
g1
(g11
g12
(dtRp2844
sg14
g1
(g11
g12
(dtRp2845
sg16
g1
(g11
g12
(dtRp2846
sg18
g1
(g11
g12
(dtRp2847
sg20
g1
(g11
g12
(dtRp2848
sg22
g1
(g11
g12
(dtRp2849
sbsg24
g25
sg26
g27
((lp2850
g33
ag32
ag29
ag30
atRp2851
sg37
(lp2852
g1
(g2
g3
NtRp2853
(dp2854
g6
g1
(g7
g3
NtRp2855
(dp2856
g10
g1
(g11
g12
(dtRp2857
sg14
g1
(g11
g12
(dtRp2858
sg16
g1
(g11
g12
(dtRp2859
sg18
g1
(g11
g12
(dtRp2860
sg20
g1
(g11
g12
(dtRp2861
sg22
g1
(g11
g12
(dtRp2862
sbsg24
g25
sg26
g27
((lp2863
g33
ag32
ag29
ag30
atRp2864
sg37
(lp2865
g1
(g2
g3
NtRp2866
(dp2867
g6
g1
(g7
g3
NtRp2868
(dp2869
g10
g1
(g11
g12
(dtRp2870
sg14
g1
(g11
g12
(dtRp2871
sg16
g1
(g11
g12
(dtRp2872
sg18
g1
(g11
g12
(dtRp2873
sg20
g1
(g11
g12
(dtRp2874
sg22
g1
(g11
g12
(dtRp2875
sbsg24
S'Wpi'
p2876
sg26
g27
((lp2877
g29
ag30
aS'sequence'
p2878
ag32
ag33
aS'species'
p2879
atRp2880
sg37
(lp2881
sg120
g2853
sg121
S'RWLSTKDLYSRLELPGLNQNVHAMFVMPLGFGNPLGDMFARLNNSFWLPPLSLEGAGTGWTIYPPLSHSSPSVDLGFHLTSSLLGAINFTNMRGPLFWTAMLLLSLPVLAGTLLDRNFNTFEGGDPLYHLFWFFGHPEVYIIPGFGSHSTYKKFGMYASIALGFVWSHHMYVGLDDRAYFTSSTMIAPTGIKFSWLATYGGRPMLAFLFLFTGGTGVLNASDAFHDTYYVVHFHYVLSMGAFSLGYYYWPGLYNLFWFNFPMHFLGGMPRRPYPDAGWNSGSSFQLGPDESNEPH'
p2882
sg123
F0.051209999999999999
sg124
g125
sg33
S'90'
p2883
sg127
g1
(g128
g12
(dp2884
g130
I4
sg131
g132
sg133
g134
sg135
g132
sg136
I01
sg34
g137
sg138
g134
sg139
I0
sg140
I0
sg141
I0
sg142
g134
sg35
g143
sg144
I0
stRp2885
sg146
g147
sg148
F1
sg149
Nsg30
S'WpijpA'
p2886
sbag1
(g2
g3
NtRp2887
(dp2888
g6
g1
(g7
g3
NtRp2889
(dp2890
g10
g1
(g11
g12
(dtRp2891
sg14
g1
(g11
g12
(dtRp2892
sg16
g1
(g11
g12
(dtRp2893
sg18
g1
(g11
g12
(dtRp2894
sg20
g1
(g11
g12
(dtRp2895
sg22
g1
(g11
g12
(dtRp2896
sbsg24
S'Wmu'
p2897
sg26
g27
((lp2898
g29
ag30
aS'sequence'
p2899
ag32
ag33
aS'species'
p2900
atRp2901
sg37
(lp2902
sg120
g2853
sg121
S'RWLSTKDLYSRLELPGLNQNVHAMFVMPLGFGNPLGDMFARLNNSFWLPPLSLEGAGTGWTIYPPLAHSSPSVDLGFHLTSSLLGAINFTNMRGPLFWTAMLLLSLPVLAGTLLDRNFNTFEGGDPLYHLFWFFGHPEVYIIPGFGSHSTYKKFGMYASIALGFVWSHHMYVGLDDRAYFTSSTMIAPTGIKFSWLATYGGRPMLAFLFLFTGGTGVLNASDAFHDTYYVVHFHYVLSMGAFSLGYYYWPGLYNLFWFNFPMHFLGGMPRRPYPDAGWNSGSSYQLGPDESNEPH'
p2903
sg123
F0.079170000000000004
sg124
g125
sg33
S'148'
p2904
sg127
g1
(g128
g12
(dp2905
g130
I4
sg131
g132
sg133
g134
sg135
g132
sg136
I01
sg34
g137
sg138
g134
sg139
I0
sg140
I0
sg141
I0
sg142
g134
sg35
g143
sg144
I0
stRp2906
sg146
g147
sg148
F1
sg149
Nsg30
S'WmucoA'
p2907
sbasg120
g2840
sg123
F0.14757000000000001
sg124
g125
sg33
S'210'
p2908
sg127
g1
(g128
g12
(dp2909
g130
I6
sg131
g132
sg133
g134
sg135
g132
sg136
I01
sg34
g174
sg138
g134
sg139
I0
sg140
I0
sg141
I0
sg142
g134
sg35
g175
sg144
I0
stRp2910
sg146
g147
sg148
F0.98999999999999999
sg149
Nsg30
S'NoName'
p2911
sbag1
(g2
g3
NtRp2912
(dp2913
g6
g1
(g7
g3
NtRp2914
(dp2915
g10
g1
(g11
g12
(dtRp2916
sg14
g1
(g11
g12
(dtRp2917
sg16
g1
(g11
g12
(dtRp2918
sg18
g1
(g11
g12
(dtRp2919
sg20
g1
(g11
g12
(dtRp2920
sg22
g1
(g11
g12
(dtRp2921
sbsg24
g25
sg26
g27
((lp2922
g33
ag32
ag29
ag30
atRp2923
sg37
(lp2924
g1
(g2
g3
NtRp2925
(dp2926
g6
g1
(g7
g3
NtRp2927
(dp2928
g10
g1
(g11
g12
(dtRp2929
sg14
g1
(g11
g12
(dtRp2930
sg16
g1
(g11
g12
(dtRp2931
sg18
g1
(g11
g12
(dtRp2932
sg20
g1
(g11
g12
(dtRp2933
sg22
g1
(g11
g12
(dtRp2934
sbsg24
S'Pca'
p2935
sg26
g27
((lp2936
g29
ag30
aS'sequence'
p2937
ag32
ag33
aS'species'
p2938
atRp2939
sg37
(lp2940
sg120
g2912
sg121
S'RWLSTKDLYSRLELPGLNQNVHAMFVMPLGFGNPLGDMFARLNNSFWLPPLSLEWAGTGWTIYPPLSHSSPSVDLGFHLTSSLLGAINFTNMRGPLFWTAMLLLSLPVLAGTLLDRNFNTFEGGDPLYHLFWFFGHPEVYIIPGFGSHSTYKKFGMYASIALGFVWSHHMYVGLDDRAYFTSSTMIAPTGIKFSWLATYGGRPMLAFLFLFTGGTGVLNASDAFHDTYYVVHFHYVLSMGAFSLGYYYWPGLFNLFWFNFPMHFLGGMPRRPYPDAGWNSGSSYQLGPDESNEPH'
p2941
sg123
F0.10655000000000001
sg124
g125
sg33
S'44'
p2942
sg127
g1
(g128
g12
(dp2943
g130
I4
sg131
g132
sg133
g134
sg135
g132
sg136
I01
sg34
g137
sg138
g134
sg139
I0
sg140
I0
sg141
I0
sg142
g134
sg35
g143
sg144
I0
stRp2944
sg146
g147
sg148
F1
sg149
Nsg30
S'PcanaA'
p2945
sbag1
(g2
g3
NtRp2946
(dp2947
g6
g1
(g7
g3
NtRp2948
(dp2949
g10
g1
(g11
g12
(dtRp2950
sg14
g1
(g11
g12
(dtRp2951
sg16
g1
(g11
g12
(dtRp2952
sg18
g1
(g11
g12
(dtRp2953
sg20
g1
(g11
g12
(dtRp2954
sg22
g1
(g11
g12
(dtRp2955
sbsg24
g25
sg26
g27
((lp2956
g33
ag32
ag29
ag30
atRp2957
sg37
(lp2958
g1
(g2
g3
NtRp2959
(dp2960
g6
g1
(g7
g3
NtRp2961
(dp2962
g10
g1
(g11
g12
(dtRp2963
sg14
g1
(g11
g12
(dtRp2964
sg16
g1
(g11
g12
(dtRp2965
sg18
g1
(g11
g12
(dtRp2966
sg20
g1
(g11
g12
(dtRp2967
sg22
g1
(g11
g12
(dtRp2968
sbsg24
S'Cno'
p2969
sg26
g27
((lp2970
g29
ag30
aS'sequence'
p2971
ag32
ag33
aS'species'
p2972
atRp2973
sg37
(lp2974
sg120
g2946
sg121
S'RWLSTKDLYSRLELPGLNQNVHAMFVMPLGFGNPLGDMFARLNNSFWLPPLSLEGAGTGWTIYPPLSHSSPSVDLGFHLTSSLLGAMNFTNMRGPLFWTAMLLLSLPVLAGTLLDRNFNTFEGGDPLYHLFWFFGHPEVYMIPGFGSHSTYKKFGMYASMALGFVWSHHMYVGLDDRAYFTSSTMMAPTGMKFSWLATYGGRPMLAFLFLFTGGTGVLNASDAFHDTYYVVHFHYVLSMGAFSLGYYYWPGLYNLFWFNFPMHFLGGMPRRPYPDAGWNSGSSYQLGPDESNEPH'
p2975
sg123
F0.059069999999999998
sg124
g125
sg33
S'36'
p2976
sg127
g1
(g128
g12
(dp2977
g130
I4
sg131
g132
sg133
g134
sg135
g132
sg136
I01
sg34
g137
sg138
g134
sg139
I0
sg140
I0
sg141
I0
sg142
g134
sg35
g143
sg144
I0
stRp2978
sg146
g147
sg148
F1
sg149
Nsg30
S'CnorvA'
p2979
sbag1
(g2
g3
NtRp2980
(dp2981
g6
g1
(g7
g3
NtRp2982
(dp2983
g10
g1
(g11
g12
(dtRp2984
sg14
g1
(g11
g12
(dtRp2985
sg16
g1
(g11
g12
(dtRp2986
sg18
g1
(g11
g12
(dtRp2987
sg20
g1
(g11
g12
(dtRp2988
sg22
g1
(g11
g12
(dtRp2989
sbsg24
S'Bca'
p2990
sg26
g27
((lp2991
g29
ag30
aS'sequence'
p2992
ag32
ag33
aS'species'
p2993
atRp2994
sg37
(lp2995
sg120
g2946
sg121
S'RWLSTKDLYSRLELPGLNQNVHAMFVMPLGFGNPLGDMFARLNNSFWLPPLSLEGAGTGWTIYPPLSHSSPSVDLGFHLTSSLLGAINFTNMRGPLFWTAMLLLSLPVLAGTLLDRNFNTFEGGDPLYHLFWFFGHPEVYIMPGFGSHSTYKKFGMYASIALGFVWSHHMYVGLDDRAYFTSSTMIAPTGIKFSWLATYGGRPMLAFLFLFTGGTGVLNASDAFHDTYYVVHFHYVLSMGAFSLGYYYWPGLYNLFWFNFPMHFLGGMPRRPYPDAGWNSGSSYQLGPDESNEPH'
p2996
sg123
F0.031899999999999998
sg124
g125
sg33
S'29'
p2997
sg127
g1
(g128
g12
(dp2998
g130
I4
sg131
g132
sg133
g134
sg135
g132
sg136
I01
sg34
g137
sg138
g134
sg139
I0
sg140
I0
sg141
I0
sg142
g134
sg35
g143
sg144
I0
stRp2999
sg146
g147
sg148
F1
sg149
Nsg30
S'BcaliA'
p3000
sbasg120
g2912
sg123
F0.09486
sg124
g125
sg33
S'12'
p3001
sg127
g1
(g128
g12
(dp3002
g130
I6
sg131
g132
sg133
g134
sg135
g132
sg136
I01
sg34
g174
sg138
g134
sg139
I0
sg140
I0
sg141
I0
sg142
g134
sg35
g175
sg144
I0
stRp3003
sg146
g147
sg148
F0.97999999999999998
sg149
Nsg30
S'NoName'
p3004
sbasg120
g2840
sg123
F0.054690000000000003
sg124
g125
sg33
S'40'
p3005
sg127
g1
(g128
g12
(dp3006
g130
I6
sg131
g132
sg133
g134
sg135
g132
sg136
I01
sg34
g174
sg138
g134
sg139
I0
sg140
I0
sg141
I0
sg142
g134
sg35
g175
sg144
I0
stRp3007
sg146
g147
sg148
F0.96999999999999997
sg149
Nsg30
S'NoName'
p3008
sbasg120
g2695
sg123
F0.051860000000000003
sg124
g125
sg33
S'106'
p3009
sg127
g1
(g128
g12
(dp3010
g130
I6
sg131
g132
sg133
g134
sg135
g132
sg136
I01
sg34
g174
sg138
g134
sg139
I0
sg140
I0
sg141
I0
sg142
g134
sg35
g175
sg144
I0
stRp3011
sg146
g147
sg148
F0.96999999999999997
sg149
Nsg30
S'NoName'
p3012
sbasg120
g2682
sg123
F0.52095999999999998
sg124
g125
sg33
S'160'
p3013
sg127
g1
(g128
g12
(dp3014
g130
I6
sg131
g132
sg133
g134
sg135
g132
sg136
I01
sg34
g174
sg138
g134
sg139
I0
sg140
I0
sg141
I0
sg142
g134
sg35
g175
sg144
I0
stRp3015
sg146
g147
sg148
F0.98999999999999999
sg149
Nsg30
S'NoName'
p3016
sbag1
(g2
g3
NtRp3017
(dp3018
g6
g1
(g7
g3
NtRp3019
(dp3020
g10
g1
(g11
g12
(dtRp3021
sg14
g1
(g11
g12
(dtRp3022
sg16
g1
(g11
g12
(dtRp3023
sg18
g1
(g11
g12
(dtRp3024
sg20
g1
(g11
g12
(dtRp3025
sg22
g1
(g11
g12
(dtRp3026
sbsg24
g25
sg26
g27
((lp3027
g33
ag32
ag29
ag30
atRp3028
sg37
(lp3029
g1
(g2
g3
NtRp3030
(dp3031
g6
g1
(g7
g3
NtRp3032
(dp3033
g10
g1
(g11
g12
(dtRp3034
sg14
g1
(g11
g12
(dtRp3035
sg16
g1
(g11
g12
(dtRp3036
sg18
g1
(g11
g12
(dtRp3037
sg20
g1
(g11
g12
(dtRp3038
sg22
g1
(g11
g12
(dtRp3039
sbsg24
g25
sg26
g27
((lp3040
g33
ag32
ag29
ag30
atRp3041
sg37
(lp3042
g1
(g2
g3
NtRp3043
(dp3044
g6
g1
(g7
g3
NtRp3045
(dp3046
g10
g1
(g11
g12
(dtRp3047
sg14
g1
(g11
g12
(dtRp3048
sg16
g1
(g11
g12
(dtRp3049
sg18
g1
(g11
g12
(dtRp3050
sg20
g1
(g11
g12
(dtRp3051
sg22
g1
(g11
g12
(dtRp3052
sbsg24
g25
sg26
g27
((lp3053
g33
ag32
ag29
ag30
atRp3054
sg37
(lp3055
g1
(g2
g3
NtRp3056
(dp3057
g6
g1
(g7
g3
NtRp3058
(dp3059
g10
g1
(g11
g12
(dtRp3060
sg14
g1
(g11
g12
(dtRp3061
sg16
g1
(g11
g12
(dtRp3062
sg18
g1
(g11
g12
(dtRp3063
sg20
g1
(g11
g12
(dtRp3064
sg22
g1
(g11
g12
(dtRp3065
sbsg24
g25
sg26
g27
((lp3066
g33
ag32
ag29
ag30
atRp3067
sg37
(lp3068
g1
(g2
g3
NtRp3069
(dp3070
g6
g1
(g7
g3
NtRp3071
(dp3072
g10
g1
(g11
g12
(dtRp3073
sg14
g1
(g11
g12
(dtRp3074
sg16
g1
(g11
g12
(dtRp3075
sg18
g1
(g11
g12
(dtRp3076
sg20
g1
(g11
g12
(dtRp3077
sg22
g1
(g11
g12
(dtRp3078
sbsg24
g25
sg26
g27
((lp3079
g33
ag32
ag29
ag30
atRp3080
sg37
(lp3081
g1
(g2
g3
NtRp3082
(dp3083
g6
g1
(g7
g3
NtRp3084
(dp3085
g10
g1
(g11
g12
(dtRp3086
sg14
g1
(g11
g12
(dtRp3087
sg16
g1
(g11
g12
(dtRp3088
sg18
g1
(g11
g12
(dtRp3089
sg20
g1
(g11
g12
(dtRp3090
sg22
g1
(g11
g12
(dtRp3091
sbsg24
g25
sg26
g27
((lp3092
g33
ag32
ag29
ag30
atRp3093
sg37
(lp3094
g1
(g2
g3
NtRp3095
(dp3096
g6
g1
(g7
g3
NtRp3097
(dp3098
g10
g1
(g11
g12
(dtRp3099
sg14
g1
(g11
g12
(dtRp3100
sg16
g1
(g11
g12
(dtRp3101
sg18
g1
(g11
g12
(dtRp3102
sg20
g1
(g11
g12
(dtRp3103
sg22
g1
(g11
g12
(dtRp3104
sbsg24
S'Lkl'
p3105
sg26
g27
((lp3106
g29
ag30
aS'sequence'
p3107
ag32
ag33
aS'species'
p3108
atRp3109
sg37
(lp3110
sg120
g3082
sg121
S'RWLSTKDLYSRLELPGLNQNVHAMFVMPLGFGNPMGDMFARLNNSFWLPPLSLEGAGTGWTVYPPLSHSGPSVDLAFHLTSSLLGAINFTNMRGPLFWTALLLLSLPVLAGTLLDRNFNTFEGGDPLYHLFWFFGHPEVYIIPGFGSHSTYKKFGMYASIGLGFVWSHHMYVGLDDRAYFLSATMIAPTGIKFSWLATYGGRPMLAFLFLFTGGTGVLNASDAFHDLYYVVHFHYVLSMGAFSLGYYYWPGLYNLFWFNFPMHFLGGMPRRPYPDAGWNSGSSYQLGPDESNEPH'
p3111
sg123
F0.00044999999999999999
sg124
g125
sg33
S'76'
p3112
sg127
g1
(g128
g12
(dp3113
g130
I4
sg131
g132
sg133
g134
sg135
g132
sg136
I01
sg34
g137
sg138
g134
sg139
I0
sg140
I0
sg141
I0
sg142
g134
sg35
g143
sg144
I0
stRp3114
sg146
g147
sg148
F1
sg149
Nsg30
S'LkluyE'
p3115
sbag1
(g2
g3
NtRp3116
(dp3117
g6
g1
(g7
g3
NtRp3118
(dp3119
g10
g1
(g11
g12
(dtRp3120
sg14
g1
(g11
g12
(dtRp3121
sg16
g1
(g11
g12
(dtRp3122
sg18
g1
(g11
g12
(dtRp3123
sg20
g1
(g11
g12
(dtRp3124
sg22
g1
(g11
g12
(dtRp3125
sbsg24
S'Lkl'
p3126
sg26
g27
((lp3127
g29
ag30
aS'sequence'
p3128
ag32
ag33
aS'species'
p3129
atRp3130
sg37
(lp3131
sg120
g3082
sg121
S'RWLSTKDLYSRLELPGLNQNVHAMFVMPLGFGNPMGDMFARLNNSFWLPPLSLEGAGTGWTVYPPLSHSGPSVDLAFHLTSSLLGAINFTNMRGPLFWTALLLLSLPVLAGTLLDRNFNTFEGGDPLYHLFWFFGHPEVYIIPGFGSHSTYKKFGMYASIGLGFVWSHHMYVGLDDRAYFLSATMIAPTGIKFSWLATYGGRPMLAFLFLFTGGTGVLNASDAFHDLYYVVHFHYVLSMGAFSLGYYYWPGLYNLFWFNFPMHFLGGMPRRPYPDAGWNSGSSYQLGPDESNEPH'
p3132
sg123
F0.0077400000000000004
sg124
g125
sg33
S'159'
p3133
sg127
g1
(g128
g12
(dp3134
g130
I4
sg131
g132
sg133
g134
sg135
g132
sg136
I01
sg34
g137
sg138
g134
sg139
I0
sg140
I0
sg141
I0
sg142
g134
sg35
g143
sg144
I0
stRp3135
sg146
g147
sg148
F1
sg149
Nsg30
S'LkluyD'
p3136
sbasg120
g3069
sg123
F0.0017099999999999999
sg124
g125
sg33
S'172'
p3137
sg127
g1
(g128
g12
(dp3138
g130
I6
sg131
g132
sg133
g134
sg135
g132
sg136
I01
sg34
g174
sg138
g134
sg139
I0
sg140
I0
sg141
I0
sg142
g134
sg35
g175
sg144
I0
stRp3139
sg146
g147
sg148
F0.56000000000000005
sg149
Nsg30
S'NoName'
p3140
sbag1
(g2
g3
NtRp3141
(dp3142
g6
g1
(g7
g3
NtRp3143
(dp3144
g10
g1
(g11
g12
(dtRp3145
sg14
g1
(g11
g12
(dtRp3146
sg16
g1
(g11
g12
(dtRp3147
sg18
g1
(g11
g12
(dtRp3148
sg20
g1
(g11
g12
(dtRp3149
sg22
g1
(g11
g12
(dtRp3150
sbsg24
g25
sg26
g27
((lp3151
g33
ag32
ag29
ag30
atRp3152
sg37
(lp3153
g1
(g2
g3
NtRp3154
(dp3155
g6
g1
(g7
g3
NtRp3156
(dp3157
g10
g1
(g11
g12
(dtRp3158
sg14
g1
(g11
g12
(dtRp3159
sg16
g1
(g11
g12
(dtRp3160
sg18
g1
(g11
g12
(dtRp3161
sg20
g1
(g11
g12
(dtRp3162
sg22
g1
(g11
g12
(dtRp3163
sbsg24
g25
sg26
g27
((lp3164
g33
ag32
ag29
ag30
atRp3165
sg37
(lp3166
g1
(g2
g3
NtRp3167
(dp3168
g6
g1
(g7
g3
NtRp3169
(dp3170
g10
g1
(g11
g12
(dtRp3171
sg14
g1
(g11
g12
(dtRp3172
sg16
g1
(g11
g12
(dtRp3173
sg18
g1
(g11
g12
(dtRp3174
sg20
g1
(g11
g12
(dtRp3175
sg22
g1
(g11
g12
(dtRp3176
sbsg24
g25
sg26
g27
((lp3177
g33
ag32
ag29
ag30
atRp3178
sg37
(lp3179
g1
(g2
g3
NtRp3180
(dp3181
g6
g1
(g7
g3
NtRp3182
(dp3183
g10
g1
(g11
g12
(dtRp3184
sg14
g1
(g11
g12
(dtRp3185
sg16
g1
(g11
g12
(dtRp3186
sg18
g1
(g11
g12
(dtRp3187
sg20
g1
(g11
g12
(dtRp3188
sg22
g1
(g11
g12
(dtRp3189
sbsg24
S'Lkl'
p3190
sg26
g27
((lp3191
g29
ag30
aS'sequence'
p3192
ag32
ag33
aS'species'
p3193
atRp3194
sg37
(lp3195
sg120
g3167
sg121
S'RWLSTKDLYSRLELPGLNQNVHAMFVMPLGFGNPMGDMFARLNNSFWLPPLSLEGAGTGWTVYPPLSHSGPSVDLAFHLTSSLLGAINFTNMRGPLFWTALLLLSLPVLAGTLLDRNFNTFEGGDPLYHLFWFFGHPEVYIIPGFGSHSTYKKFGMYASIGLGFVWSHHMYVGLDDRAYFLSATMIAPTGIKFSWLATYGGRPMLAFLFLFTGGTGVLNASDAFHDLYYVVHFHYVLSMGAFSLGYYYWPGLYNLFWFNFPMHFLGGMPRRPYPDAGWNSGSSYQLGPDESNEPH'
p3196
sg123
F0.00038999999999999999
sg124
g125
sg33
S'63'
p3197
sg127
g1
(g128
g12
(dp3198
g130
I4
sg131
g132
sg133
g134
sg135
g132
sg136
I01
sg34
g137
sg138
g134
sg139
I0
sg140
I0
sg141
I0
sg142
g134
sg35
g143
sg144
I0
stRp3199
sg146
g147
sg148
F1
sg149
Nsg30
S'LkluyF'
p3200
sbag1
(g2
g3
NtRp3201
(dp3202
g6
g1
(g7
g3
NtRp3203
(dp3204
g10
g1
(g11
g12
(dtRp3205
sg14
g1
(g11
g12
(dtRp3206
sg16
g1
(g11
g12
(dtRp3207
sg18
g1
(g11
g12
(dtRp3208
sg20
g1
(g11
g12
(dtRp3209
sg22
g1
(g11
g12
(dtRp3210
sbsg24
S'Lkl'
p3211
sg26
g27
((lp3212
g29
ag30
aS'sequence'
p3213
ag32
ag33
aS'species'
p3214
atRp3215
sg37
(lp3216
sg120
g3167
sg121
S'RWLSTKDLYSRLELPGLNQNVHAMFVMPLGFGNPMGDMFARLNNSFWLPPLSLEGAGTGWTVYPPLSHSGPSVDLAFHLTSSLLGAINFTNMRGPLFWTALLLLSLPVLAGTLLDRNFNTFEGGDPLYHLFWFFGHPEVYIIPGFGSHSTYKKFGMYASIGLGFVWSHHMYVGLDDRAYFLSATMIAPTGIKFSWLATYGGRPMLAFLFLFTGGTGVLNASDAFHDLYYVVHFHYVLSMGAFSLGYYYWPGLYNLFWFNFPMHFLGGMPRRPYPDAGWNSGSSYQLGPDESNEPH'
p3217
sg123
F0.00038000000000000002
sg124
g125
sg33
S'53'
p3218
sg127
g1
(g128
g12
(dp3219
g130
I4
sg131
g132
sg133
g134
sg135
g132
sg136
I01
sg34
g137
sg138
g134
sg139
I0
sg140
I0
sg141
I0
sg142
g134
sg35
g143
sg144
I0
stRp3220
sg146
g147
sg148
F1
sg149
Nsg30
S'LkluyC'
p3221
sbasg120
g3154
sg123
F1.0000000000000001e-05
sg124
g125
sg33
S'151'
p3222
sg127
g1
(g128
g12
(dp3223
g130
I6
sg131
g132
sg133
g134
sg135
g132
sg136
I01
sg34
g174
sg138
g134
sg139
I0
sg140
I0
sg141
I0
sg142
g134
sg35
g175
sg144
I0
stRp3224
sg146
g147
sg148
F1
sg149
Nsg30
S'NoName'
p3225
sbag1
(g2
g3
NtRp3226
(dp3227
g6
g1
(g7
g3
NtRp3228
(dp3229
g10
g1
(g11
g12
(dtRp3230
sg14
g1
(g11
g12
(dtRp3231
sg16
g1
(g11
g12
(dtRp3232
sg18
g1
(g11
g12
(dtRp3233
sg20
g1
(g11
g12
(dtRp3234
sg22
g1
(g11
g12
(dtRp3235
sbsg24
S'Lkl'
p3236
sg26
g27
((lp3237
g29
ag30
aS'sequence'
p3238
ag32
ag33
aS'species'
p3239
atRp3240
sg37
(lp3241
sg120
g3154
sg121
S'RWLSTKDLYSRLELPGLNQNVHAMFVMPLGFGNPMGDMFARLNNSFWLPPLSLEGAGTGWTVYPPLSHSGPSVDLAFHLTSSLLGAINFTNMRGPLFWTALLLLSLPVLAGTLLDRNFNTFEGGDPLYHLFWFFGHPEVYIIPGFGSHSTYKKFGMYASIGLGFVWSHHMYVGLDDRAYFLSATMIAPTGIKFSWLATYGGRPMLAFLFLFTGGTGVLNASDAFHDLYYVVHFHYVLSMGAFSLGYYYWPGLYNLFWFNFPMHFLGGMPRRPYPDAGWNSGSSYQLGPDESNEPH'
p3242
sg123
F0.00040999999999999999
sg124
g125
sg33
S'204'
p3243
sg127
g1
(g128
g12
(dp3244
g130
I4
sg131
g132
sg133
g134
sg135
g132
sg136
I01
sg34
g137
sg138
g134
sg139
I0
sg140
I0
sg141
I0
sg142
g134
sg35
g143
sg144
I0
stRp3245
sg146
g147
sg148
F1
sg149
Nsg30
S'LkluyB'
p3246
sbasg120
g3141
sg123
F1.0000000000000001e-05
sg124
g125
sg33
S'94'
p3247
sg127
g1
(g128
g12
(dp3248
g130
I6
sg131
g132
sg133
g134
sg135
g132
sg136
I01
sg34
g174
sg138
g134
sg139
I0
sg140
I0
sg141
I0
sg142
g134
sg35
g175
sg144
I0
stRp3249
sg146
g147
sg148
F1
sg149
Nsg30
S'NoName'
p3250
sbag1
(g2
g3
NtRp3251
(dp3252
g6
g1
(g7
g3
NtRp3253
(dp3254
g10
g1
(g11
g12
(dtRp3255
sg14
g1
(g11
g12
(dtRp3256
sg16
g1
(g11
g12
(dtRp3257
sg18
g1
(g11
g12
(dtRp3258
sg20
g1
(g11
g12
(dtRp3259
sg22
g1
(g11
g12
(dtRp3260
sbsg24
S'Lkl'
p3261
sg26
g27
((lp3262
g29
ag30
aS'sequence'
p3263
ag32
ag33
aS'species'
p3264
atRp3265
sg37
(lp3266
sg120
g3141
sg121
S'RWLSTKDLYSRLELPGLNQNVHAMFVMPLGFGNPMGDMFARLNNSFWLPPLSLEGAGTGWTVYPPLSHSGPSVDLAFHLTSSLLGAINFTNMRGPLFWTALLLLSLPVLAGTLLDRNFNTFEGGDPLYHLFWFFGHPEVYIIPGFGSHSTYKKFGMYASIGLGFVWSHHMYVGLDDRAYFLSATMIAPTGIKFSWLATYGGRPMLAFLFLFTGGTGVLNASDAFHDLYYVVHFHYVLSMGAFSLGYYYWPGLYNLFWFNFPMHFLGGMPRRPYPDAGWNSGSSYQLGPDESNEPH'
p3267
sg123
F0.00040999999999999999
sg124
g125
sg33
S'20'
p3268
sg127
g1
(g128
g12
(dp3269
g130
I4
sg131
g132
sg133
g134
sg135
g132
sg136
I01
sg34
g137
sg138
g134
sg139
I0
sg140
I0
sg141
I0
sg142
g134
sg35
g143
sg144
I0
stRp3270
sg146
g147
sg148
F1
sg149
Nsg30
S'LkluyA'
p3271
sbasg120
g3069
sg123
F0.0035300000000000002
sg124
g125
sg33
S'42'
p3272
sg127
g1
(g128
g12
(dp3273
g130
I6
sg131
g132
sg133
g134
sg135
g132
sg136
I01
sg34
g174
sg138
g134
sg139
I0
sg140
I0
sg141
I0
sg142
g134
sg35
g175
sg144
I0
stRp3274
sg146
g147
sg148
F0.91000000000000003
sg149
Nsg30
S'NoName'
p3275
sbasg120
g3056
sg123
F0.054280000000000002
sg124
g125
sg33
S'125'
p3276
sg127
g1
(g128
g12
(dp3277
g130
I6
sg131
g132
sg133
g134
sg135
g132
sg136
I01
sg34
g174
sg138
g134
sg139
I0
sg140
I0
sg141
I0
sg142
g134
sg35
g175
sg144
I0
stRp3278
sg146
g147
sg148
F0.98999999999999999
sg149
Nsg30
S'NoName'
p3279
sbag1
(g2
g3
NtRp3280
(dp3281
g6
g1
(g7
g3
NtRp3282
(dp3283
g10
g1
(g11
g12
(dtRp3284
sg14
g1
(g11
g12
(dtRp3285
sg16
g1
(g11
g12
(dtRp3286
sg18
g1
(g11
g12
(dtRp3287
sg20
g1
(g11
g12
(dtRp3288
sg22
g1
(g11
g12
(dtRp3289
sbsg24
g25
sg26
g27
((lp3290
g33
ag32
ag29
ag30
atRp3291
sg37
(lp3292
g1
(g2
g3
NtRp3293
(dp3294
g6
g1
(g7
g3
NtRp3295
(dp3296
g10
g1
(g11
g12
(dtRp3297
sg14
g1
(g11
g12
(dtRp3298
sg16
g1
(g11
g12
(dtRp3299
sg18
g1
(g11
g12
(dtRp3300
sg20
g1
(g11
g12
(dtRp3301
sg22
g1
(g11
g12
(dtRp3302
sbsg24
S'Lan'
p3303
sg26
g27
((lp3304
g29
ag30
aS'sequence'
p3305
ag32
ag33
aS'species'
p3306
atRp3307
sg37
(lp3308
sg120
g3280
sg121
S'RWLSTKDLYSRLELPGLNQNVHAMFVMPLGFGNPMGDMFARLNNSFWLPPLSLEGAGTGWTLYPPLSHSGPSVDLAFHLTSSLLGAINFTNMRGPLFWTALLLLSLPVLAGTVLDRNFNTFEGGDPLYHLFWFFGHPEVYIIPGFGSHSTYKKFGMYASIGLGFVWSHHMYVGLDDRAYFTSATMIAPTGIKFSWLALYGGRPMLAFLFLFTGGTGVLNASDAFHDTYYVVHFHYVLSMGAFSLGYYYWPGLYNLFWFNFPMHFLGGMPRRPYPDAGWNSGSSYQLGPDESNEPH'
p3309
sg123
F0.10922999999999999
sg124
g125
sg33
S'116'
p3310
sg127
g1
(g128
g12
(dp3311
g130
I4
sg131
g132
sg133
g134
sg135
g132
sg136
I01
sg34
g137
sg138
g134
sg139
I0
sg140
I0
sg141
I0
sg142
g134
sg35
g143
sg144
I0
stRp3312
sg146
g147
sg148
F1
sg149
Nsg30
S'LanspA'
p3313
sbag1
(g2
g3
NtRp3314
(dp3315
g6
g1
(g7
g3
NtRp3316
(dp3317
g10
g1
(g11
g12
(dtRp3318
sg14
g1
(g11
g12
(dtRp3319
sg16
g1
(g11
g12
(dtRp3320
sg18
g1
(g11
g12
(dtRp3321
sg20
g1
(g11
g12
(dtRp3322
sg22
g1
(g11
g12
(dtRp3323
sbsg24
g25
sg26
g27
((lp3324
g33
ag32
ag29
ag30
atRp3325
sg37
(lp3326
g1
(g2
g3
NtRp3327
(dp3328
g6
g1
(g7
g3
NtRp3329
(dp3330
g10
g1
(g11
g12
(dtRp3331
sg14
g1
(g11
g12
(dtRp3332
sg16
g1
(g11
g12
(dtRp3333
sg18
g1
(g11
g12
(dtRp3334
sg20
g1
(g11
g12
(dtRp3335
sg22
g1
(g11
g12
(dtRp3336
sbsg24
g25
sg26
g27
((lp3337
g33
ag32
ag29
ag30
atRp3338
sg37
(lp3339
g1
(g2
g3
NtRp3340
(dp3341
g6
g1
(g7
g3
NtRp3342
(dp3343
g10
g1
(g11
g12
(dtRp3344
sg14
g1
(g11
g12
(dtRp3345
sg16
g1
(g11
g12
(dtRp3346
sg18
g1
(g11
g12
(dtRp3347
sg20
g1
(g11
g12
(dtRp3348
sg22
g1
(g11
g12
(dtRp3349
sbsg24
S'Lno'
p3350
sg26
g27
((lp3351
g29
ag30
aS'sequence'
p3352
ag32
ag33
aS'species'
p3353
atRp3354
sg37
(lp3355
sg120
g3327
sg121
S'RWLSTKDLYSRLELPGLNQNVHAMFVMPLGFGNPMGDMFARLNNSFWLPPLSLEGAGTGWTIYPPLSHSGPSVDLAFHLTSSLLGAINFTNMRGPLFWTALLLLSLPVLAGTILDRNFNTFEGGDPLYHLFWFFGHPEVYIIPGFGSHSTYKKFGMYASIGLGFVWSHHMYVGLDDRAYFTSALMIAPTGIKFSWLALYGGRPMLAFLFLFTGGTGVLNASDAFHDTYYVVHFHYVLSMGAFSLGYYYWPGLYNLFWFNFPMHFLGGMPRRPYPDAGWNSGSSYQLGPDESNEPH'
p3356
sg123
F0.0075199999999999998
sg124
g125
sg33
S'193'
p3357
sg127
g1
(g128
g12
(dp3358
g130
I4
sg131
g132
sg133
g134
sg135
g132
sg136
I01
sg34
g137
sg138
g134
sg139
I0
sg140
I0
sg141
I0
sg142
g134
sg35
g143
sg144
I0
stRp3359
sg146
g147
sg148
F1
sg149
Nsg30
S'LnothA'
p3360
sbag1
(g2
g3
NtRp3361
(dp3362
g6
g1
(g7
g3
NtRp3363
(dp3364
g10
g1
(g11
g12
(dtRp3365
sg14
g1
(g11
g12
(dtRp3366
sg16
g1
(g11
g12
(dtRp3367
sg18
g1
(g11
g12
(dtRp3368
sg20
g1
(g11
g12
(dtRp3369
sg22
g1
(g11
g12
(dtRp3370
sbsg24
g25
sg26
g27
((lp3371
g33
ag32
ag29
ag30
atRp3372
sg37
(lp3373
g1
(g2
g3
NtRp3374
(dp3375
g6
g1
(g7
g3
NtRp3376
(dp3377
g10
g1
(g11
g12
(dtRp3378
sg14
g1
(g11
g12
(dtRp3379
sg16
g1
(g11
g12
(dtRp3380
sg18
g1
(g11
g12
(dtRp3381
sg20
g1
(g11
g12
(dtRp3382
sg22
g1
(g11
g12
(dtRp3383
sbsg24
S'Lda'
p3384
sg26
g27
((lp3385
g29
ag30
aS'sequence'
p3386
ag32
ag33
aS'species'
p3387
atRp3388
sg37
(lp3389
sg120
g3361
sg121
S'RWLSTKDLYSRLELPGLNQNVHAMFVMPLGFGNPMGDMFARLNNSFWLPPLSLEGAGTGWTVYPPLSHSGPSVDLAFHLTSSLLGAINFTNMRGPLFWTALLLLSLPVLAGTILDRNFNTFEGGDPLYHLFWFFGHPEVYIIPGFGSHSTYKKFGMYASIGLGFVWSHHMYVGLDDRAYFTSATMIAPTGIKFSWLALYGGRPMLAFLFLFTGGTGVLNASDAFHDTYYVVHFHYVLSMGAFSLGYYYWPGLYNLFWFNFPMHFLGGMPRRPYPDAGWNSGSSYQLGPDESNEPH'
p3390
sg123
F0.023539999999999998
sg124
g125
sg33
S'177'
p3391
sg127
g1
(g128
g12
(dp3392
g130
I4
sg131
g132
sg133
g134
sg135
g132
sg136
I01
sg34
g137
sg138
g134
sg139
I0
sg140
I0
sg141
I0
sg142
g134
sg35
g143
sg144
I0
stRp3393
sg146
g147
sg148
F1
sg149
Nsg30
S'LdasiA'
p3394
sbag1
(g2
g3
NtRp3395
(dp3396
g6
g1
(g7
g3
NtRp3397
(dp3398
g10
g1
(g11
g12
(dtRp3399
sg14
g1
(g11
g12
(dtRp3400
sg16
g1
(g11
g12
(dtRp3401
sg18
g1
(g11
g12
(dtRp3402
sg20
g1
(g11
g12
(dtRp3403
sg22
g1
(g11
g12
(dtRp3404
sbsg24
g25
sg26
g27
((lp3405
g33
ag32
ag29
ag30
atRp3406
sg37
(lp3407
g1
(g2
g3
NtRp3408
(dp3409
g6
g1
(g7
g3
NtRp3410
(dp3411
g10
g1
(g11
g12
(dtRp3412
sg14
g1
(g11
g12
(dtRp3413
sg16
g1
(g11
g12
(dtRp3414
sg18
g1
(g11
g12
(dtRp3415
sg20
g1
(g11
g12
(dtRp3416
sg22
g1
(g11
g12
(dtRp3417
sbsg24
S'Lme'
p3418
sg26
g27
((lp3419
g29
ag30
aS'sequence'
p3420
ag32
ag33
aS'species'
p3421
atRp3422
sg37
(lp3423
sg120
g3395
sg121
S'RWLSTKDLYSRLELPGLNQNVHAMFVMPLGFGNPMGDMFARLNNSFWLPPLSLEGAGTGWTVYPPLSHSGPSVDLAFHLTSSLLGAINFTNMRGPLFWTALLLLSLPVLAGTILDRNFNTFEGGDPLYHLFWFFGHPEVYIIPGFGSHSTYKKFGMYASIGLGFVWSHHMYVGLDDRAYFTSATMIAPTGIKFSWLALYGGRPMLAFLFLFTGGTGVLNASDAFHDTYYVVHFHYVLSMGAFSLGYYYWPGLYNLFWFNFPMHFLGGMPRRPYPDAGWNSGSSYQLGPDESNEPH'
p3424
sg123
F0.0050299999999999997
sg124
g125
sg33
S'211'
p3425
sg127
g1
(g128
g12
(dp3426
g130
I4
sg131
g132
sg133
g134
sg135
g132
sg136
I01
sg34
g137
sg138
g134
sg139
I0
sg140
I0
sg141
I0
sg142
g134
sg35
g143
sg144
I0
stRp3427
sg146
g147
sg148
F1
sg149
Nsg30
S'LmeyeA'
p3428
sbag1
(g2
g3
NtRp3429
(dp3430
g6
g1
(g7
g3
NtRp3431
(dp3432
g10
g1
(g11
g12
(dtRp3433
sg14
g1
(g11
g12
(dtRp3434
sg16
g1
(g11
g12
(dtRp3435
sg18
g1
(g11
g12
(dtRp3436
sg20
g1
(g11
g12
(dtRp3437
sg22
g1
(g11
g12
(dtRp3438
sbsg24
S'Lan'
p3439
sg26
g27
((lp3440
g29
ag30
aS'sequence'
p3441
ag32
ag33
aS'species'
p3442
atRp3443
sg37
(lp3444
sg120
g3395
sg121
S'RWLSTKDLYSRLELPGLNQNVHAMFVMPLGFGNPMGDMFARLNNSFWLPPLSLEGAGTGWTVYPPLSHSGPSVDLAFHLTSSLLGAINFTNMRGPLFWTALLLLSLPVLAGTILDRNFNTFEGGDPLYHLFWFFGHPEVYIIPGFGSHSTYKKFGMYASIGLGFVWSHHMYVGLDDRAYFTSALMIAPTGIKFSWLALYGGRPMLAFLFLFTGGTGVLNASDAFHDTYYVVHFHYVLSMGAFSLGYYYWPGLYNLFWFNFPMHFLGGMPRRPYPDAGWNSGSSYQLGPDESNEPH'
p3445
sg123
F0.012290000000000001
sg124
g125
sg33
S'49'
p3446
sg127
g1
(g128
g12
(dp3447
g130
I4
sg131
g132
sg133
g134
sg135
g132
sg136
I01
sg34
g137
sg138
g134
sg139
I0
sg140
I0
sg141
I0
sg142
g134
sg35
g143
sg144
I0
stRp3448
sg146
g147
sg148
F1
sg149
Nsg30
S'LanspB'
p3449
sbasg120
g3361
sg123
F0.012070000000000001
sg124
g125
sg33
S'179'
p3450
sg127
g1
(g128
g12
(dp3451
g130
I6
sg131
g132
sg133
g134
sg135
g132
sg136
I01
sg34
g174
sg138
g134
sg139
I0
sg140
I0
sg141
I0
sg142
g134
sg35
g175
sg144
I0
stRp3452
sg146
g147
sg148
F0.98999999999999999
sg149
Nsg30
S'NoName'
p3453
sbasg120
g3327
sg123
F0.0088199999999999997
sg124
g125
sg33
S'131'
p3454
sg127
g1
(g128
g12
(dp3455
g130
I6
sg131
g132
sg133
g134
sg135
g132
sg136
I01
sg34
g174
sg138
g134
sg139
I0
sg140
I0
sg141
I0
sg142
g134
sg35
g175
sg144
I0
stRp3456
sg146
g147
sg148
F0.95999999999999996
sg149
Nsg30
S'NoName'
p3457
sbasg120
g3314
sg123
F0.016570000000000001
sg124
g125
sg33
S'17'
p3458
sg127
g1
(g128
g12
(dp3459
g130
I6
sg131
g132
sg133
g134
sg135
g132
sg136
I01
sg34
g174
sg138
g134
sg139
I0
sg140
I0
sg141
I0
sg142
g134
sg35
g175
sg144
I0
stRp3460
sg146
g147
sg148
F0.94999999999999996
sg149
Nsg30
S'NoName'
p3461
sbag1
(g2
g3
NtRp3462
(dp3463
g6
g1
(g7
g3
NtRp3464
(dp3465
g10
g1
(g11
g12
(dtRp3466
sg14
g1
(g11
g12
(dtRp3467
sg16
g1
(g11
g12
(dtRp3468
sg18
g1
(g11
g12
(dtRp3469
sg20
g1
(g11
g12
(dtRp3470
sg22
g1
(g11
g12
(dtRp3471
sbsg24
S'Kth'
p3472
sg26
g27
((lp3473
g29
ag30
aS'sequence'
p3474
ag32
ag33
aS'species'
p3475
atRp3476
sg37
(lp3477
sg120
g3314
sg121
S'RWLSTKDLYSRLELPGLNQNVHAMFVMPLGFGNPMGDMFARLNNSFWLPPLSLEGAGTGWTVYPPLSHSGPSVDLAFHLTSSLLGAINFTNMRGPLFWTALLLLSLPVLAGTILDRNFNTFEGGDPLYHLFWFFGHPEVYIIPGFGSHSTYKKFGMYASIGLGFVWSHHMYVGLDDRAYFTSATMIAPTGIKFSWLALYGGRPMLAFLFLFTGGTGVLNASDAFHDTYYVVHFHYVLSMGAFSLGYYYWPGLYNLFWFNFPMHFLGGMPRRPYPDAGWNSGSSYQLGPDESNEPH'
p3478
sg123
F0.021499999999999998
sg124
g125
sg33
S'102'
p3479
sg127
g1
(g128
g12
(dp3480
g130
I4
sg131
g132
sg133
g134
sg135
g132
sg136
I01
sg34
g137
sg138
g134
sg139
I0
sg140
I0
sg141
I0
sg142
g134
sg35
g143
sg144
I0
stRp3481
sg146
g147
sg148
F1
sg149
Nsg30
S'KtherA'
p3482
sbasg120
g3280
sg123
F0.033250000000000002
sg124
g125
sg33
S'129'
p3483
sg127
g1
(g128
g12
(dp3484
g130
I6
sg131
g132
sg133
g134
sg135
g132
sg136
I01
sg34
g174
sg138
g134
sg139
I0
sg140
I0
sg141
I0
sg142
g134
sg35
g175
sg144
I0
stRp3485
sg146
g147
sg148
F0.93999999999999995
sg149
Nsg30
S'NoName'
p3486
sbasg120
g3056
sg123
F0.038859999999999999
sg124
g125
sg33
S'30'
p3487
sg127
g1
(g128
g12
(dp3488
g130
I6
sg131
g132
sg133
g134
sg135
g132
sg136
I01
sg34
g174
sg138
g134
sg139
I0
sg140
I0
sg141
I0
sg142
g134
sg35
g175
sg144
I0
stRp3489
sg146
g147
sg148
F0.92000000000000004
sg149
Nsg30
S'NoName'
p3490
sbasg120
g3043
sg123
F0.050380000000000001
sg124
g125
sg33
S'111'
p3491
sg127
g1
(g128
g12
(dp3492
g130
I6
sg131
g132
sg133
g134
sg135
g132
sg136
I01
sg34
g174
sg138
g134
sg139
I0
sg140
I0
sg141
I0
sg142
g134
sg35
g175
sg144
I0
stRp3493
sg146
g147
sg148
F0.89000000000000001
sg149
Nsg30
S'NoName'
p3494
sbag1
(g2
g3
NtRp3495
(dp3496
g6
g1
(g7
g3
NtRp3497
(dp3498
g10
g1
(g11
g12
(dtRp3499
sg14
g1
(g11
g12
(dtRp3500
sg16
g1
(g11
g12
(dtRp3501
sg18
g1
(g11
g12
(dtRp3502
sg20
g1
(g11
g12
(dtRp3503
sg22
g1
(g11
g12
(dtRp3504
sbsg24
g25
sg26
g27
((lp3505
g33
ag32
ag29
ag30
atRp3506
sg37
(lp3507
g1
(g2
g3
NtRp3508
(dp3509
g6
g1
(g7
g3
NtRp3510
(dp3511
g10
g1
(g11
g12
(dtRp3512
sg14
g1
(g11
g12
(dtRp3513
sg16
g1
(g11
g12
(dtRp3514
sg18
g1
(g11
g12
(dtRp3515
sg20
g1
(g11
g12
(dtRp3516
sg22
g1
(g11
g12
(dtRp3517
sbsg24
S'Kma'
p3518
sg26
g27
((lp3519
g29
ag30
aS'sequence'
p3520
ag32
ag33
aS'species'
p3521
atRp3522
sg37
(lp3523
sg120
g3495
sg121
S'RWLSTKDLYSRLELPGLNQNVHAMFVMPLGFGNPMGDMFARLNNSFWLPPLSLEGAGTGWTVYPPLSHSGPSVDLAFHLTSSLLGAINFTNMRGPLFWTALLLLSLPVLAGTLLDRNFNTFEGGDPLYHLFWFFGHPEVYIIPGFGSHSTYKKFGMYASIGLGFVWSHHMYVGLDDRAYFTSATMIAPTGIKFSWLATYGGRPMLAFLFLFTGGTGVLNASDAFHDTYYVVHFHYVLSMGAFSLGYYYWPGLYNLFWFNFPMHFLGGMPRRPYPDAGWNSGSSYQLGPDESNEPH'
p3524
sg123
F0.04018
sg124
g125
sg33
S'120'
p3525
sg127
g1
(g128
g12
(dp3526
g130
I4
sg131
g132
sg133
g134
sg135
g132
sg136
I01
sg34
g137
sg138
g134
sg139
I0
sg140
I0
sg141
I0
sg142
g134
sg35
g143
sg144
I0
stRp3527
sg146
g147
sg148
F1
sg149
Nsg30
S'KmarxA'
p3528
sbag1
(g2
g3
NtRp3529
(dp3530
g6
g1
(g7
g3
NtRp3531
(dp3532
g10
g1
(g11
g12
(dtRp3533
sg14
g1
(g11
g12
(dtRp3534
sg16
g1
(g11
g12
(dtRp3535
sg18
g1
(g11
g12
(dtRp3536
sg20
g1
(g11
g12
(dtRp3537
sg22
g1
(g11
g12
(dtRp3538
sbsg24
S'Kla'
p3539
sg26
g27
((lp3540
g29
ag30
aS'sequence'
p3541
ag32
ag33
aS'species'
p3542
atRp3543
sg37
(lp3544
sg120
g3495
sg121
S'RWLSTKDLYSRLELPGLNQNVHAMFVMPLGFGNPLGDMFARLNNSFWLPPLSLEGAGTGWTVYPPLSHSGPSVDLAFHLTSSLLGAINFTNMRGPLFWTALLLLSLPVLAGTLLDRNFNTFEGGDPLYHLFWFFGHPEVYIIPGFGSHSTYKKFGMYASIGLGFVWSHHMYVGLDDRAYFTSATMIAPTGIKFSWLATYGGRPMLAFLFLFTGGTGVLNASDAFHDTYYVVHFHYVLSMGAFSLGYYYWPGLYNLFWFNFPMHFLGGMPRRPYPDAGWNSGSSYQLGPDESNEPH'
p3545
sg123
F0.043529999999999999
sg124
g125
sg33
S'150'
p3546
sg127
g1
(g128
g12
(dp3547
g130
I4
sg131
g132
sg133
g134
sg135
g132
sg136
I01
sg34
g137
sg138
g134
sg139
I0
sg140
I0
sg141
I0
sg142
g134
sg35
g143
sg144
I0
stRp3548
sg146
g147
sg148
F1
sg149
Nsg30
S'KlactA'
p3549
sbasg120
g3043
sg123
F0.13938999999999999
sg124
g125
sg33
S'4'
sg127
g1
(g128
g12
(dp3550
g130
I6
sg131
g132
sg133
g134
sg135
g132
sg136
I01
sg34
g174
sg138
g134
sg139
I0
sg140
I0
sg141
I0
sg142
g134
sg35
g175
sg144
I0
stRp3551
sg146
g147
sg148
F0.98999999999999999
sg149
Nsg30
S'NoName'
p3552
sbasg120
g3030
sg123
F1.0000000000000001e-05
sg124
g125
sg33
S'169'
p3553
sg127
g1
(g128
g12
(dp3554
g130
I6
sg131
g132
sg133
g134
sg135
g132
sg136
I01
sg34
g174
sg138
g134
sg139
I0
sg140
I0
sg141
I0
sg142
g134
sg35
g175
sg144
I0
stRp3555
sg146
g147
sg148
F1
sg149
Nsg30
S'NoName'
p3556
sbag1
(g2
g3
NtRp3557
(dp3558
g6
g1
(g7
g3
NtRp3559
(dp3560
g10
g1
(g11
g12
(dtRp3561
sg14
g1
(g11
g12
(dtRp3562
sg16
g1
(g11
g12
(dtRp3563
sg18
g1
(g11
g12
(dtRp3564
sg20
g1
(g11
g12
(dtRp3565
sg22
g1
(g11
g12
(dtRp3566
sbsg24
g25
sg26
g27
((lp3567
g33
ag32
ag29
ag30
atRp3568
sg37
(lp3569
g1
(g2
g3
NtRp3570
(dp3571
g6
g1
(g7
g3
NtRp3572
(dp3573
g10
g1
(g11
g12
(dtRp3574
sg14
g1
(g11
g12
(dtRp3575
sg16
g1
(g11
g12
(dtRp3576
sg18
g1
(g11
g12
(dtRp3577
sg20
g1
(g11
g12
(dtRp3578
sg22
g1
(g11
g12
(dtRp3579
sbsg24
S'Huv'
p3580
sg26
g27
((lp3581
g29
ag30
aS'sequence'
p3582
ag32
ag33
aS'species'
p3583
atRp3584
sg37
(lp3585
sg120
g3557
sg121
S'-MITTKDLYSRLELSGINHNSHAMFIMPIGFGNPAGDMFPRLNNSFWLVPVSLEGAGTGWTVYYPLSHSSVSVDLVFHCLSSLLGAINFTNFL-SLFWLALLLLSLPVLVGTLLDRNFNLYEGGDPLYHLFWFFGHPEVYIIPAFGSMSAYSKFGMYASIGLGFVWVHHMFVGLDDRAYFTSATMIAPLGIKFSWLALIGGRPVLAFLVLFLGGTGVLNASDAFHDTYYVVHFHYVLSLGAFGIGYYYWPGLYNLFVVNFPMHYLGGMPRRSYPDSAWNTGASVQLGTDLLPEPH'
p3586
sg123
F3.9441199999999998
sg124
g125
sg33
S'66'
p3587
sg127
g1
(g128
g12
(dp3588
g130
I4
sg131
g132
sg133
g134
sg135
g132
sg136
I01
sg34
g137
sg138
g134
sg139
I0
sg140
I0
sg141
I0
sg142
g134
sg35
g143
sg144
I0
stRp3589
sg146
g147
sg148
F1
sg149
Nsg30
S'HuvarA'
p3590
sbag1
(g2
g3
NtRp3591
(dp3592
g6
g1
(g7
g3
NtRp3593
(dp3594
g10
g1
(g11
g12
(dtRp3595
sg14
g1
(g11
g12
(dtRp3596
sg16
g1
(g11
g12
(dtRp3597
sg18
g1
(g11
g12
(dtRp3598
sg20
g1
(g11
g12
(dtRp3599
sg22
g1
(g11
g12
(dtRp3600
sbsg24
g25
sg26
g27
((lp3601
g33
ag32
ag29
ag30
atRp3602
sg37
(lp3603
g1
(g2
g3
NtRp3604
(dp3605
g6
g1
(g7
g3
NtRp3606
(dp3607
g10
g1
(g11
g12
(dtRp3608
sg14
g1
(g11
g12
(dtRp3609
sg16
g1
(g11
g12
(dtRp3610
sg18
g1
(g11
g12
(dtRp3611
sg20
g1
(g11
g12
(dtRp3612
sg22
g1
(g11
g12
(dtRp3613
sbsg24
g25
sg26
g27
((lp3614
g33
ag32
ag29
ag30
atRp3615
sg37
(lp3616
g1
(g2
g3
NtRp3617
(dp3618
g6
g1
(g7
g3
NtRp3619
(dp3620
g10
g1
(g11
g12
(dtRp3621
sg14
g1
(g11
g12
(dtRp3622
sg16
g1
(g11
g12
(dtRp3623
sg18
g1
(g11
g12
(dtRp3624
sg20
g1
(g11
g12
(dtRp3625
sg22
g1
(g11
g12
(dtRp3626
sbsg24
g25
sg26
g27
((lp3627
g33
ag32
ag29
ag30
atRp3628
sg37
(lp3629
g1
(g2
g3
NtRp3630
(dp3631
g6
g1
(g7
g3
NtRp3632
(dp3633
g10
g1
(g11
g12
(dtRp3634
sg14
g1
(g11
g12
(dtRp3635
sg16
g1
(g11
g12
(dtRp3636
sg18
g1
(g11
g12
(dtRp3637
sg20
g1
(g11
g12
(dtRp3638
sg22
g1
(g11
g12
(dtRp3639
sbsg24
S'Sse'
p3640
sg26
g27
((lp3641
g29
ag30
aS'sequence'
p3642
ag32
ag33
aS'species'
p3643
atRp3644
sg37
(lp3645
sg120
g3617
sg121
S'RWLSTKDMYSRMELPGLNQNVHAMFAMPLGFGNPMGDMFPRINSGFWLPMLSLEGAGTGWTVYPPLSHSGPSVDLAFHLTSSLLGAINFTNMRGPLFWTALLLLSLPVLAGTLLDRNFNTFEGGDPFYHAFWFFGHPEVYIIPGFGSHSTYKKFGMYASIGLGFVWSHHMYVGLDDRAYFTSATMIAPTGIKFSWLALYGGRPMMAFLFLFTGGTGVLNASDAFHDTYYVVHFHYVLSMGAFSLGYYYWPGLYNLFWFNFPMHFLGGMPRRPYPDAGWNSGSSYQIGPDESNEPH'
p3646
sg123
F0.29805999999999999
sg124
g125
sg33
S'157'
p3647
sg127
g1
(g128
g12
(dp3648
g130
I4
sg131
g132
sg133
g134
sg135
g132
sg136
I01
sg34
g137
sg138
g134
sg139
I0
sg140
I0
sg141
I0
sg142
g134
sg35
g143
sg144
I0
stRp3649
sg146
g147
sg148
F1
sg149
Nsg30
S'SservA'
p3650
sbag1
(g2
g3
NtRp3651
(dp3652
g6
g1
(g7
g3
NtRp3653
(dp3654
g10
g1
(g11
g12
(dtRp3655
sg14
g1
(g11
g12
(dtRp3656
sg16
g1
(g11
g12
(dtRp3657
sg18
g1
(g11
g12
(dtRp3658
sg20
g1
(g11
g12
(dtRp3659
sg22
g1
(g11
g12
(dtRp3660
sbsg24
S'Sca'
p3661
sg26
g27
((lp3662
g29
ag30
aS'sequence'
p3663
ag32
ag33
aS'species'
p3664
atRp3665
sg37
(lp3666
sg120
g3617
sg121
S'RWLSTKDLYSRLELPGLNQNVHAMFVMPLGFGNPMGDTFPRINNGFWLPMLSLEGAGTGWTVYPPLAHSGPSVDLAFHMTSSLLGAINFTNMRGPLFWTALLLLTLPVLAGTLLDRNFNTFEGGDPLYHLFWFFGHPEVYIIPGFGSHSTYKKFGMYASIGLGLVWSHHMYVGLDDRAYFTSATMIAPTGIKFSWLATYGGRPMLAFLFLFTGGTGVLNASDAFHDLYYVVHFHYVLSMGAFSLGYYYWPGLYNLFWFNFPMHFLGGMPRRPYPDAGWNSGASYQLGPDESNEPH'
p3667
sg123
F0.30890000000000001
sg124
g125
sg33
S'97'
p3668
sg127
g1
(g128
g12
(dp3669
g130
I4
sg131
g132
sg133
g134
sg135
g132
sg136
I01
sg34
g137
sg138
g134
sg139
I0
sg140
I0
sg141
I0
sg142
g134
sg35
g143
sg144
I0
stRp3670
sg146
g147
sg148
F1
sg149
Nsg30
S'ScastA'
p3671
sbasg120
g3604
sg123
F0.072319999999999995
sg124
g125
sg33
S'154'
p3672
sg127
g1
(g128
g12
(dp3673
g130
I6
sg131
g132
sg133
g134
sg135
g132
sg136
I01
sg34
g174
sg138
g134
sg139
I0
sg140
I0
sg141
I0
sg142
g134
sg35
g175
sg144
I0
stRp3674
sg146
g147
sg148
F0.98999999999999999
sg149
Nsg30
S'NoName'
p3675
sbag1
(g2
g3
NtRp3676
(dp3677
g6
g1
(g7
g3
NtRp3678
(dp3679
g10
g1
(g11
g12
(dtRp3680
sg14
g1
(g11
g12
(dtRp3681
sg16
g1
(g11
g12
(dtRp3682
sg18
g1
(g11
g12
(dtRp3683
sg20
g1
(g11
g12
(dtRp3684
sg22
g1
(g11
g12
(dtRp3685
sbsg24
g25
sg26
g27
((lp3686
g33
ag32
ag29
ag30
atRp3687
sg37
(lp3688
g1
(g2
g3
NtRp3689
(dp3690
g6
g1
(g7
g3
NtRp3691
(dp3692
g10
g1
(g11
g12
(dtRp3693
sg14
g1
(g11
g12
(dtRp3694
sg16
g1
(g11
g12
(dtRp3695
sg18
g1
(g11
g12
(dtRp3696
sg20
g1
(g11
g12
(dtRp3697
sg22
g1
(g11
g12
(dtRp3698
sbsg24
S'Spa'
p3699
sg26
g27
((lp3700
g29
ag30
aS'sequence'
p3701
ag32
ag33
aS'species'
p3702
atRp3703
sg37
(lp3704
sg120
g3676
sg121
S'RWLSTKDLYSRLELPGLNQNVHAMFVMPLGFGNPMGDTFPRINNAFWLPMLSLEGAGTGWTVYPPLSHSGPSVDLAFHLTSSLLGAINFTNMRGPLFWTALLLLSLPVLAGTLLDRNFNTFEGGDPLYHLFWFFGHPEVYIIPGFGSHSTYKKFGMYASIGLGFVWSHHMYVGLDDRAYFLSATMIAPTGIKFSWLATYGGRPMLAFLFLFTGGTGVLNASDAFHDTYYVVHFHYVLSMGAFSLGYYYWPGLYNLFWFNFPMHFLGGMPRRPYPDAGWNSGSSYQLGPDESNEPH'
p3705
sg123
F0.029780000000000001
sg124
g125
sg33
S'24'
p3706
sg127
g1
(g128
g12
(dp3707
g130
I4
sg131
g132
sg133
g134
sg135
g132
sg136
I01
sg34
g137
sg138
g134
sg139
I0
sg140
I0
sg141
I0
sg142
g134
sg35
g143
sg144
I0
stRp3708
sg146
g147
sg148
F1
sg149
Nsg30
S'SpastA'
p3709
sbag1
(g2
g3
NtRp3710
(dp3711
g6
g1
(g7
g3
NtRp3712
(dp3713
g10
g1
(g11
g12
(dtRp3714
sg14
g1
(g11
g12
(dtRp3715
sg16
g1
(g11
g12
(dtRp3716
sg18
g1
(g11
g12
(dtRp3717
sg20
g1
(g11
g12
(dtRp3718
sg22
g1
(g11
g12
(dtRp3719
sbsg24
g25
sg26
g27
((lp3720
g33
ag32
ag29
ag30
atRp3721
sg37
(lp3722
g1
(g2
g3
NtRp3723
(dp3724
g6
g1
(g7
g3
NtRp3725
(dp3726
g10
g1
(g11
g12
(dtRp3727
sg14
g1
(g11
g12
(dtRp3728
sg16
g1
(g11
g12
(dtRp3729
sg18
g1
(g11
g12
(dtRp3730
sg20
g1
(g11
g12
(dtRp3731
sg22
g1
(g11
g12
(dtRp3732
sbsg24
g25
sg26
g27
((lp3733
g33
ag32
ag29
ag30
atRp3734
sg37
(lp3735
g1
(g2
g3
NtRp3736
(dp3737
g6
g1
(g7
g3
NtRp3738
(dp3739
g10
g1
(g11
g12
(dtRp3740
sg14
g1
(g11
g12
(dtRp3741
sg16
g1
(g11
g12
(dtRp3742
sg18
g1
(g11
g12
(dtRp3743
sg20
g1
(g11
g12
(dtRp3744
sg22
g1
(g11
g12
(dtRp3745
sbsg24
S'Sce'
p3746
sg26
g27
((lp3747
g29
ag30
aS'sequence'
p3748
ag32
ag33
aS'species'
p3749
atRp3750
sg37
(lp3751
sg120
g3723
sg121
S'RWLSTKDLYSRLELPGLNQNVHAMFVMPLGFGNPMGDTFPRINNAFWLPMLSLEGAGTGWTVYPPLSHSGPSVDLAFHLTSSLLGAINFTNMRGPLFWTALLLLSLPVLAGTLLDRNFNTFEGGDPLYHLFWFFGHPEVYIIPGFGSHSTYKKFGMYASIGLGFVWSHHMYVGLDDRAYFLSALMIAPTGIKFSWLALYGGRPMLAFLFLFTGGTGVLNASDAFHDTYYVVHFHYVLSMGAFSLGYYYWPGLYNLFWFNFPMHFLGGMPRRPYPDAGWNSGSSYQLGPDESNEPH'
p3752
sg123
F0.0038700000000000002
sg124
g125
sg33
S'202'
p3753
sg127
g1
(g128
g12
(dp3754
g130
I4
sg131
g132
sg133
g134
sg135
g132
sg136
I01
sg34
g137
sg138
g134
sg139
I0
sg140
I0
sg141
I0
sg142
g134
sg35
g143
sg144
I0
stRp3755
sg146
g147
sg148
F1
sg149
Nsg30
S'ScereD'
p3756
sbag1
(g2
g3
NtRp3757
(dp3758
g6
g1
(g7
g3
NtRp3759
(dp3760
g10
g1
(g11
g12
(dtRp3761
sg14
g1
(g11
g12
(dtRp3762
sg16
g1
(g11
g12
(dtRp3763
sg18
g1
(g11
g12
(dtRp3764
sg20
g1
(g11
g12
(dtRp3765
sg22
g1
(g11
g12
(dtRp3766
sbsg24
g25
sg26
g27
((lp3767
g33
ag32
ag29
ag30
atRp3768
sg37
(lp3769
g1
(g2
g3
NtRp3770
(dp3771
g6
g1
(g7
g3
NtRp3772
(dp3773
g10
g1
(g11
g12
(dtRp3774
sg14
g1
(g11
g12
(dtRp3775
sg16
g1
(g11
g12
(dtRp3776
sg18
g1
(g11
g12
(dtRp3777
sg20
g1
(g11
g12
(dtRp3778
sg22
g1
(g11
g12
(dtRp3779
sbsg24
S'Sce'
p3780
sg26
g27
((lp3781
g29
ag30
aS'sequence'
p3782
ag32
ag33
aS'species'
p3783
atRp3784
sg37
(lp3785
sg120
g3757
sg121
S'RWLSTKDLYSRLELPGLNQNVHAMFVMPLGFGNPMGDTFPRINNAFWLPMLSLEGAGTGWTVYPPLSHSGPSVDLAFHLTSSLLGAINFTNMRGPLFWTALLLLSLPVLAGTLLDRNFNTFEGGDPLYHLFWFFGHPEVYIIPGFGSHSTYKKFGMYASIGLGFVWSHHMYVGLDDRAYFLSALMIAPTGIKFSWLALYGGRPMLAFLFLFTGGTGVLNASDAFHDTYYVVHFHYVLSMGAFSLGYYYWPGLYNLFWFNFPMHFLGGMPRRPYPDAGWNSGSSYQLGPDESNEPH'
p3786
sg123
F0.0075900000000000004
sg124
g125
sg33
S'8'
sg127
g1
(g128
g12
(dp3787
g130
I4
sg131
g132
sg133
g134
sg135
g132
sg136
I01
sg34
g137
sg138
g134
sg139
I0
sg140
I0
sg141
I0
sg142
g134
sg35
g143
sg144
I0
stRp3788
sg146
g147
sg148
F1
sg149
Nsg30
S'ScereE'
p3789
sbag1
(g2
g3
NtRp3790
(dp3791
g6
g1
(g7
g3
NtRp3792
(dp3793
g10
g1
(g11
g12
(dtRp3794
sg14
g1
(g11
g12
(dtRp3795
sg16
g1
(g11
g12
(dtRp3796
sg18
g1
(g11
g12
(dtRp3797
sg20
g1
(g11
g12
(dtRp3798
sg22
g1
(g11
g12
(dtRp3799
sbsg24
g25
sg26
g27
((lp3800
g33
ag32
ag29
ag30
atRp3801
sg37
(lp3802
g1
(g2
g3
NtRp3803
(dp3804
g6
g1
(g7
g3
NtRp3805
(dp3806
g10
g1
(g11
g12
(dtRp3807
sg14
g1
(g11
g12
(dtRp3808
sg16
g1
(g11
g12
(dtRp3809
sg18
g1
(g11
g12
(dtRp3810
sg20
g1
(g11
g12
(dtRp3811
sg22
g1
(g11
g12
(dtRp3812
sbsg24
S'Sce'
p3813
sg26
g27
((lp3814
g29
ag30
aS'sequence'
p3815
ag32
ag33
aS'species'
p3816
atRp3817
sg37
(lp3818
sg120
g3790
sg121
S'RWLSTKDLYSRLELPGLNQNVHAMFVMPLGFGNPMGDTFPRINNAFWLPMLSLEGAGTGWTVYPPLSHSGPSVDLAFHLTSSLLGAINFTNMRGPLFWTALLLLSLPVLAGTLLDRNFNTFEGGDPLYHLFWFFGHPEVYIIPGFGSHSTYKKFGMYASIGLGFVWSHHMYVGLDDRAYFLSALMIAPTGIKFSWLALHGGRPMLAFLFLFTGGTGVLNASDAFHDTYYVVHFHYVLSMGAFSLGYYYWPGLYNLFWFNFPMHFLGGMPRRPYPDAGWNSGSSYQLGPDESNEPH'
p3819
sg123
F0.0053899999999999998
sg124
g125
sg33
S'127'
p3820
sg127
g1
(g128
g12
(dp3821
g130
I4
sg131
g132
sg133
g134
sg135
g132
sg136
I01
sg34
g137
sg138
g134
sg139
I0
sg140
I0
sg141
I0
sg142
g134
sg35
g143
sg144
I0
stRp3822
sg146
g147
sg148
F1
sg149
Nsg30
S'ScereC'
p3823
sbag1
(g2
g3
NtRp3824
(dp3825
g6
g1
(g7
g3
NtRp3826
(dp3827
g10
g1
(g11
g12
(dtRp3828
sg14
g1
(g11
g12
(dtRp3829
sg16
g1
(g11
g12
(dtRp3830
sg18
g1
(g11
g12
(dtRp3831
sg20
g1
(g11
g12
(dtRp3832
sg22
g1
(g11
g12
(dtRp3833
sbsg24
S'Sce'
p3834
sg26
g27
((lp3835
g29
ag30
aS'sequence'
p3836
ag32
ag33
aS'species'
p3837
atRp3838
sg37
(lp3839
sg120
g3790
sg121
S'RWLSTKDLYSRLELPGLNQNVHAMFVMPLGFGNPMGDTFPRINNAFWLPMLSLEGAGTGWTVYPPLSHSGPSVDLAFHLTSSLLGAINFTNMRGPLFWTALLLLSLPVLAGTLLDRNFNTFEGGDPLYHLFWFFGHPEVYIIPGFGSHSTYKKFGMYASIGLGFVWSHHMYVGLDDRAYFLSALMIAPTGIKFSWLALYGGRPMLAFLFLFTGGTGVLNASDAFHDTYYVVHFHYVLSMGAFSLGYYYWPGLYNLFWFNFPMHFLGGMPRRPYPDAGWNSGSSYQLGPDESNEPH'
p3840
sg123
F0.0066400000000000001
sg124
g125
sg33
S'74'
p3841
sg127
g1
(g128
g12
(dp3842
g130
I4
sg131
g132
sg133
g134
sg135
g132
sg136
I01
sg34
g137
sg138
g134
sg139
I0
sg140
I0
sg141
I0
sg142
g134
sg35
g143
sg144
I0
stRp3843
sg146
g147
sg148
F1
sg149
Nsg30
S'ScereA'
p3844
sbasg120
g3757
sg123
F0.00596
sg124
g125
sg33
S'82'
p3845
sg127
g1
(g128
g12
(dp3846
g130
I6
sg131
g132
sg133
g134
sg135
g132
sg136
I01
sg34
g174
sg138
g134
sg139
I0
sg140
I0
sg141
I0
sg142
g134
sg35
g175
sg144
I0
stRp3847
sg146
g147
sg148
F0.98999999999999999
sg149
Nsg30
S'NoName'
p3848
sbasg120
g3723
sg123
F0.0050600000000000003
sg124
g125
sg33
S'140'
p3849
sg127
g1
(g128
g12
(dp3850
g130
I6
sg131
g132
sg133
g134
sg135
g132
sg136
I01
sg34
g174
sg138
g134
sg139
I0
sg140
I0
sg141
I0
sg142
g134
sg35
g175
sg144
I0
stRp3851
sg146
g147
sg148
F0.66000000000000003
sg149
Nsg30
S'NoName'
p3852
sbasg120
g3710
sg123
F0.017850000000000001
sg124
g125
sg33
S'81'
p3853
sg127
g1
(g128
g12
(dp3854
g130
I6
sg131
g132
sg133
g134
sg135
g132
sg136
I01
sg34
g174
sg138
g134
sg139
I0
sg140
I0
sg141
I0
sg142
g134
sg35
g175
sg144
I0
stRp3855
sg146
g147
sg148
F0.89000000000000001
sg149
Nsg30
S'NoName'
p3856
sbag1
(g2
g3
NtRp3857
(dp3858
g6
g1
(g7
g3
NtRp3859
(dp3860
g10
g1
(g11
g12
(dtRp3861
sg14
g1
(g11
g12
(dtRp3862
sg16
g1
(g11
g12
(dtRp3863
sg18
g1
(g11
g12
(dtRp3864
sg20
g1
(g11
g12
(dtRp3865
sg22
g1
(g11
g12
(dtRp3866
sbsg24
S'Sar'
p3867
sg26
g27
((lp3868
g29
ag30
aS'sequence'
p3869
ag32
ag33
aS'species'
p3870
atRp3871
sg37
(lp3872
sg120
g3710
sg121
S'RWLSTKDLYSRLELPGLNQNVHAMFVMPLGFGNPMGDTFPRINNAFWLPMLSLEGAGTGWTVYPPLSHSGPSVDLAFHLTSSLLGAINFTNMRGPLFWTALLLLSLPVLAGTLLDRNFNTFEGGDPLYHLFWFFGHPEVYIIPGFGSHSTYKKFGMYASIGLGFVWSHHMYVGLDDRAYFLSALMIAPTGIKFSWLALYGGRPMLAFLFLFTGGTGVLNASDAFHDTYYVVHFHYVLSMGAFSLGYYYWPGLYNLFWFNFPMHFLGGMPRRPYPDAGWNSGSSYQLGPDESNEPH'
p3873
sg123
F0.047230000000000001
sg124
g125
sg33
S'86'
p3874
sg127
g1
(g128
g12
(dp3875
g130
I4
sg131
g132
sg133
g134
sg135
g132
sg136
I01
sg34
g137
sg138
g134
sg139
I0
sg140
I0
sg141
I0
sg142
g134
sg35
g143
sg144
I0
stRp3876
sg146
g147
sg148
F1
sg149
Nsg30
S'SarboA'
p3877
sbasg120
g3676
sg123
F0.023619999999999999
sg124
g125
sg33
S'219'
p3878
sg127
g1
(g128
g12
(dp3879
g130
I6
sg131
g132
sg133
g134
sg135
g132
sg136
I01
sg34
g174
sg138
g134
sg139
I0
sg140
I0
sg141
I0
sg142
g134
sg35
g175
sg144
I0
stRp3880
sg146
g147
sg148
F0.92000000000000004
sg149
Nsg30
S'NoName'
p3881
sbasg120
g3604
sg123
F0.18547
sg124
g125
sg33
S'34'
p3882
sg127
g1
(g128
g12
(dp3883
g130
I6
sg131
g132
sg133
g134
sg135
g132
sg136
I01
sg34
g174
sg138
g134
sg139
I0
sg140
I0
sg141
I0
sg142
g134
sg35
g175
sg144
I0
stRp3884
sg146
g147
sg148
F0.98999999999999999
sg149
Nsg30
S'NoName'
p3885
sbasg120
g3591
sg123
F0.03594
sg124
g125
sg33
S'95'
p3886
sg127
g1
(g128
g12
(dp3887
g130
I6
sg131
g132
sg133
g134
sg135
g132
sg136
I01
sg34
g174
sg138
g134
sg139
I0
sg140
I0
sg141
I0
sg142
g134
sg35
g175
sg144
I0
stRp3888
sg146
g147
sg148
F0.98999999999999999
sg149
Nsg30
S'NoName'
p3889
sbag1
(g2
g3
NtRp3890
(dp3891
g6
g1
(g7
g3
NtRp3892
(dp3893
g10
g1
(g11
g12
(dtRp3894
sg14
g1
(g11
g12
(dtRp3895
sg16
g1
(g11
g12
(dtRp3896
sg18
g1
(g11
g12
(dtRp3897
sg20
g1
(g11
g12
(dtRp3898
sg22
g1
(g11
g12
(dtRp3899
sbsg24
g25
sg26
g27
((lp3900
g33
ag32
ag29
ag30
atRp3901
sg37
(lp3902
g1
(g2
g3
NtRp3903
(dp3904
g6
g1
(g7
g3
NtRp3905
(dp3906
g10
g1
(g11
g12
(dtRp3907
sg14
g1
(g11
g12
(dtRp3908
sg16
g1
(g11
g12
(dtRp3909
sg18
g1
(g11
g12
(dtRp3910
sg20
g1
(g11
g12
(dtRp3911
sg22
g1
(g11
g12
(dtRp3912
sbsg24
g25
sg26
g27
((lp3913
g33
ag32
ag29
ag30
atRp3914
sg37
(lp3915
g1
(g2
g3
NtRp3916
(dp3917
g6
g1
(g7
g3
NtRp3918
(dp3919
g10
g1
(g11
g12
(dtRp3920
sg14
g1
(g11
g12
(dtRp3921
sg16
g1
(g11
g12
(dtRp3922
sg18
g1
(g11
g12
(dtRp3923
sg20
g1
(g11
g12
(dtRp3924
sg22
g1
(g11
g12
(dtRp3925
sbsg24
S'Nde'
p3926
sg26
g27
((lp3927
g29
ag30
aS'sequence'
p3928
ag32
ag33
aS'species'
p3929
atRp3930
sg37
(lp3931
sg120
g3903
sg121
S'RWLSTKDLYSRLELPGLNQNVHAMFVMPLGFGNPMGDMFPRLNNGFWIVPLSLEGAGTGWTVYPPLSHSGPSVDLAFHMTSSLLGAINFTNMRGPLFWTALLLLSLPVFAGTLLDRNFNTFEGGDPLYHLFWFFGHPEVYIIPGFGSHSTYKKFGMYASIGLGFVWSHHMYVGLDDRAYFTSATMIAPTGIKFSWLATYGGRPMLAFLFLFTGGTGVLNASDAFHDTYYVVHFHYVLSMGAFSTGYYYWPGLYNLFWFNFPMHFLGGMPRRPYPDAGWNSGSSYQFGPDESNEPH'
p3932
sg123
F0.063509999999999997
sg124
g125
sg33
S'31'
p3933
sg127
g1
(g128
g12
(dp3934
g130
I4
sg131
g132
sg133
g134
sg135
g132
sg136
I01
sg34
g137
sg138
g134
sg139
I0
sg140
I0
sg141
I0
sg142
g134
sg35
g143
sg144
I0
stRp3935
sg146
g147
sg148
F1
sg149
Nsg30
S'NdelpA'
p3936
sbag1
(g2
g3
NtRp3937
(dp3938
g6
g1
(g7
g3
NtRp3939
(dp3940
g10
g1
(g11
g12
(dtRp3941
sg14
g1
(g11
g12
(dtRp3942
sg16
g1
(g11
g12
(dtRp3943
sg18
g1
(g11
g12
(dtRp3944
sg20
g1
(g11
g12
(dtRp3945
sg22
g1
(g11
g12
(dtRp3946
sbsg24
S'Cgl'
p3947
sg26
g27
((lp3948
g29
ag30
aS'sequence'
p3949
ag32
ag33
aS'species'
p3950
atRp3951
sg37
(lp3952
sg120
g3903
sg121
S'RWLSTKDLYSRLELPGLNQNVHAMFVMPLGFGNPMGDMFPRLNNGFWIVPLSLEGAGTGWTVYPPLSHSGPSVDLAFHLTSSLLGSINFTNMRGPLFWTALLLLSLPVLAGTLLDRNFNTFEGGDPLYHLFWFFGHPEVYIIPGFGSHSTYKKFGMYASIGLGFVWSHHMYVGLDDRAYFTSATMIAPTGIKFSWLATYGGRPMLAFLFLFTGGTGVLNASDAFHDTYYVVHFHYVLSMGAFSTGYYYWPGLYNLFWFNFPMHFLGGMPRRPYPDAGWNSGSSYQFGPDESNEPH'
p3953
sg123
F0.03882
sg124
g125
sg33
S'21'
p3954
sg127
g1
(g128
g12
(dp3955
g130
I4
sg131
g132
sg133
g134
sg135
g132
sg136
I01
sg34
g137
sg138
g134
sg139
I0
sg140
I0
sg141
I0
sg142
g134
sg35
g143
sg144
I0
stRp3956
sg146
g147
sg148
F1
sg149
Nsg30
S'CglabA'
p3957
sbasg120
g3890
sg123
F0.16661999999999999
sg124
g125
sg33
S'167'
p3958
sg127
g1
(g128
g12
(dp3959
g130
I6
sg131
g132
sg133
g134
sg135
g132
sg136
I01
sg34
g174
sg138
g134
sg139
I0
sg140
I0
sg141
I0
sg142
g134
sg35
g175
sg144
I0
stRp3960
sg146
g147
sg148
F0.98999999999999999
sg149
Nsg30
S'NoName'
p3961
sbag1
(g2
g3
NtRp3962
(dp3963
g6
g1
(g7
g3
NtRp3964
(dp3965
g10
g1
(g11
g12
(dtRp3966
sg14
g1
(g11
g12
(dtRp3967
sg16
g1
(g11
g12
(dtRp3968
sg18
g1
(g11
g12
(dtRp3969
sg20
g1
(g11
g12
(dtRp3970
sg22
g1
(g11
g12
(dtRp3971
sbsg24
g25
sg26
g27
((lp3972
g33
ag32
ag29
ag30
atRp3973
sg37
(lp3974
g1
(g2
g3
NtRp3975
(dp3976
g6
g1
(g7
g3
NtRp3977
(dp3978
g10
g1
(g11
g12
(dtRp3979
sg14
g1
(g11
g12
(dtRp3980
sg16
g1
(g11
g12
(dtRp3981
sg18
g1
(g11
g12
(dtRp3982
sg20
g1
(g11
g12
(dtRp3983
sg22
g1
(g11
g12
(dtRp3984
sbsg24
S'Nba'
p3985
sg26
g27
((lp3986
g29
ag30
aS'sequence'
p3987
ag32
ag33
aS'species'
p3988
atRp3989
sg37
(lp3990
sg120
g3962
sg121
S'RWLSTKDLYSRMELPGLNQNVHAMFVMPLGFGNPMGDMFPRLNNGFWMPALSLEGAGTGWTVYPPLSHSGPSVDLAFHLSSSLLGAINFTNMRGPLFWTALLLFSLPVFAGTLLDRNFNTFEGGDPLYHLFWFFGHPEVYIIPGFGSHSTYKKFGMYASIGLGFVWSHHMYVGLDDRAYFTSATMIAPTGIKFSWLALYGGRPMLAFLFLFTGGTGVLNASDAFHDTYYVVHFHYVLSMGAFSVAYYYWPGLYNLFWFNFPMHFLGGMPRRPYPDAGWNSGSSYQLGPDESNEPH'
p3991
sg123
F0.29926999999999998
sg124
g125
sg33
S'26'
p3992
sg127
g1
(g128
g12
(dp3993
g130
I4
sg131
g132
sg133
g134
sg135
g132
sg136
I01
sg34
g137
sg138
g134
sg139
I0
sg140
I0
sg141
I0
sg142
g134
sg35
g143
sg144
I0
stRp3994
sg146
g147
sg148
F1
sg149
Nsg30
S'NbaciA'
p3995
sbag1
(g2
g3
NtRp3996
(dp3997
g6
g1
(g7
g3
NtRp3998
(dp3999
g10
g1
(g11
g12
(dtRp4000
sg14
g1
(g11
g12
(dtRp4001
sg16
g1
(g11
g12
(dtRp4002
sg18
g1
(g11
g12
(dtRp4003
sg20
g1
(g11
g12
(dtRp4004
sg22
g1
(g11
g12
(dtRp4005
sbsg24
S'Cca'
p4006
sg26
g27
((lp4007
g29
ag30
aS'sequence'
p4008
ag32
ag33
aS'species'
p4009
atRp4010
sg37
(lp4011
sg120
g3962
sg121
S'RWLSTKDLYSRLELPGLNQNVHAMFVMPLGIGNPMGDTFPRLNNGFWLPPLSLEGAGTGWTVYPPLSHSGPSVDLAFHLTSSLLGAINFTNMRGPLFWTALLLFSLPVFAGTLLDRNFNTFEGGDPLYHVFWFFGHPEVYIIPGFGSHSTYKKFGMYASIGLGFVWSHHMYVGLDDRAYFTSALMIAPTGIKFSWLATFGGRPMLAFLFLFTGGTGVLNASDAFHDTYYVVHFHYVLSMGAFSLGYYYWPGLYNLFWFNFPMHFLGGMPRRPYPDAGWNSGSSYQLGPDESNEPH'
p4012
sg123
F0.26266
sg124
g125
sg33
S'55'
p4013
sg127
g1
(g128
g12
(dp4014
g130
I4
sg131
g132
sg133
g134
sg135
g132
sg136
I01
sg34
g137
sg138
g134
sg139
I0
sg140
I0
sg141
I0
sg142
g134
sg35
g143
sg144
I0
stRp4015
sg146
g147
sg148
F1
sg149
Nsg30
S'CcastA'
p4016
sbasg120
g3890
sg123
F0.15296999999999999
sg124
g125
sg33
S'28'
p4017
sg127
g1
(g128
g12
(dp4018
g130
I6
sg131
g132
sg133
g134
sg135
g132
sg136
I01
sg34
g174
sg138
g134
sg139
I0
sg140
I0
sg141
I0
sg142
g134
sg35
g175
sg144
I0
stRp4019
sg146
g147
sg148
F0.98999999999999999
sg149
Nsg30
S'NoName'
p4020
sbasg120
g3591
sg123
F0.042560000000000001
sg124
g125
sg33
S'77'
p4021
sg127
g1
(g128
g12
(dp4022
g130
I6
sg131
g132
sg133
g134
sg135
g132
sg136
I01
sg34
g174
sg138
g134
sg139
I0
sg140
I0
sg141
I0
sg142
g134
sg35
g175
sg144
I0
stRp4023
sg146
g147
sg148
F0.84999999999999998
sg149
Nsg30
S'NoName'
p4024
sbasg120
g3557
sg123
F0.094020000000000006
sg124
g125
sg33
S'216'
p4025
sg127
g1
(g128
g12
(dp4026
g130
I6
sg131
g132
sg133
g134
sg135
g132
sg136
I01
sg34
g174
sg138
g134
sg139
I0
sg140
I0
sg141
I0
sg142
g134
sg35
g175
sg144
I0
stRp4027
sg146
g147
sg148
F0.55000000000000004
sg149
Nsg30
S'NoName'
p4028
sbasg120
g3030
sg123
F0.11952
sg124
g125
sg33
S'11'
p4029
sg127
g1
(g128
g12
(dp4030
g130
I6
sg131
g132
sg133
g134
sg135
g132
sg136
I01
sg34
g174
sg138
g134
sg139
I0
sg140
I0
sg141
I0
sg142
g134
sg35
g175
sg144
I0
stRp4031
sg146
g147
sg148
F0.69999999999999996
sg149
Nsg30
S'NoName'
p4032
sbasg120
g3017
sg123
F0.029839999999999998
sg124
g125
sg33
S'14'
p4033
sg127
g1
(g128
g12
(dp4034
g130
I6
sg131
g132
sg133
g134
sg135
g132
sg136
I01
sg34
g174
sg138
g134
sg139
I0
sg140
I0
sg141
I0
sg142
g134
sg35
g175
sg144
I0
stRp4035
sg146
g147
sg148
F0.82999999999999996
sg149
Nsg30
S'NoName'
p4036
sbag1
(g2
g3
NtRp4037
(dp4038
g6
g1
(g7
g3
NtRp4039
(dp4040
g10
g1
(g11
g12
(dtRp4041
sg14
g1
(g11
g12
(dtRp4042
sg16
g1
(g11
g12
(dtRp4043
sg18
g1
(g11
g12
(dtRp4044
sg20
g1
(g11
g12
(dtRp4045
sg22
g1
(g11
g12
(dtRp4046
sbsg24
g25
sg26
g27
((lp4047
g33
ag32
ag29
ag30
atRp4048
sg37
(lp4049
g1
(g2
g3
NtRp4050
(dp4051
g6
g1
(g7
g3
NtRp4052
(dp4053
g10
g1
(g11
g12
(dtRp4054
sg14
g1
(g11
g12
(dtRp4055
sg16
g1
(g11
g12
(dtRp4056
sg18
g1
(g11
g12
(dtRp4057
sg20
g1
(g11
g12
(dtRp4058
sg22
g1
(g11
g12
(dtRp4059
sbsg24
S'Aac'
p4060
sg26
g27
((lp4061
g29
ag30
aS'sequence'
p4062
ag32
ag33
aS'species'
p4063
atRp4064
sg37
(lp4065
sg120
g4037
sg121
S'RWLSTKDLYSRMELPGLQQNVHLMFVMPLGFGNPMGDMFARLNNSFWLPPLSMEGLGTGWTVYPPLAHSGASVDLAFHLTSSLLGLINFTNMRGPLFWTAMLLMSLPVLAGTLLDRNFNTFEGGDPLYHLFWFFGHPEVYIIPLFGSHSTYKKFGMYASIGLGFVWSHHMYVGLDDRAYFTSLTMILPTSIKFSWLLTYGGRPMLAFLFLFTGGTGVLNLSDLFHDTYYVVHFHYVLSLGAFSMGYYYWPGLYNLFWFNFPMHFLGGMPRRPYPDLGWNSGSSYQLGPDESNEPH'
p4066
sg123
F0.028920000000000001
sg124
g125
sg33
S'67'
p4067
sg127
g1
(g128
g12
(dp4068
g130
I4
sg131
g132
sg133
g134
sg135
g132
sg136
I01
sg34
g137
sg138
g134
sg139
I0
sg140
I0
sg141
I0
sg142
g134
sg35
g143
sg144
I0
stRp4069
sg146
g147
sg148
F1
sg149
Nsg30
S'AacerA'
p4070
sbag1
(g2
g3
NtRp4071
(dp4072
g6
g1
(g7
g3
NtRp4073
(dp4074
g10
g1
(g11
g12
(dtRp4075
sg14
g1
(g11
g12
(dtRp4076
sg16
g1
(g11
g12
(dtRp4077
sg18
g1
(g11
g12
(dtRp4078
sg20
g1
(g11
g12
(dtRp4079
sg22
g1
(g11
g12
(dtRp4080
sbsg24
g25
sg26
g27
((lp4081
g33
ag32
ag29
ag30
atRp4082
sg37
(lp4083
g1
(g2
g3
NtRp4084
(dp4085
g6
g1
(g7
g3
NtRp4086
(dp4087
g10
g1
(g11
g12
(dtRp4088
sg14
g1
(g11
g12
(dtRp4089
sg16
g1
(g11
g12
(dtRp4090
sg18
g1
(g11
g12
(dtRp4091
sg20
g1
(g11
g12
(dtRp4092
sg22
g1
(g11
g12
(dtRp4093
sbsg24
S'Ago'
p4094
sg26
g27
((lp4095
g29
ag30
aS'sequence'
p4096
ag32
ag33
aS'species'
p4097
atRp4098
sg37
(lp4099
sg120
g4071
sg121
S'RWLSTKDLYSRMELPGLQQNVHLMFVMPLGFGNPMGDMFARLNNSFWLPPLSMEGLGTGWTVYPPLSHSGASVDLAFHLTSSLLGLINFTNMRGPLFWTAMLLMSLPVLAGTLLDRNFNTFEGGDPLYHLFWFFGHPEVYIIPLFGSHSTYKKFGMYLSISLGFVWSHHMYVGLDDRAYFTSATMILPTSIKFSWLLTYGGRPMLLFLFLFTGGTGVLNLSDAFHDTYYVVHFHYVLSLGAFSMGYYYWPGLYNLFWFNFPMHFLGGMPRRPYPDLGWNSGSSYQLGPDESNEPH'
p4100
sg123
F0.00088000000000000003
sg124
g125
sg33
S'73'
p4101
sg127
g1
(g128
g12
(dp4102
g130
I4
sg131
g132
sg133
g134
sg135
g132
sg136
I01
sg34
g137
sg138
g134
sg139
I0
sg140
I0
sg141
I0
sg142
g134
sg35
g143
sg144
I0
stRp4103
sg146
g147
sg148
F1
sg149
Nsg30
S'AgossB'
p4104
sbag1
(g2
g3
NtRp4105
(dp4106
g6
g1
(g7
g3
NtRp4107
(dp4108
g10
g1
(g11
g12
(dtRp4109
sg14
g1
(g11
g12
(dtRp4110
sg16
g1
(g11
g12
(dtRp4111
sg18
g1
(g11
g12
(dtRp4112
sg20
g1
(g11
g12
(dtRp4113
sg22
g1
(g11
g12
(dtRp4114
sbsg24
S'Ago'
p4115
sg26
g27
((lp4116
g29
ag30
aS'sequence'
p4117
ag32
ag33
aS'species'
p4118
atRp4119
sg37
(lp4120
sg120
g4071
sg121
S'RWLSTKDLYSRMELPGLQQNVHLMFVMPLGFGNPMGDMFARLNNSFWLPPLSMEGLGTGWTVYPPLSHSGASVDLAFHLTSSLLGLINFTNMRGPLFWTAMLLMSLPVLAGTLLDRNFNTFEGGDPLYHLFWFFGHPEVYIIPLFGSHSTYKKFGMYLSISLGFVWSHHMYVGLDDRAYFTSATMILPTSIKFSWLLTYGGRPMLLFLFLFTGGTGVLNLSDAFHDTYYVVHFHYVLSLGAFSMGYYYWPGLYNLFWFNFPMHFLGGMPRRPYPDLGWNSGSSYQLGPDESNEPH'
p4121
sg123
F0.0023999999999999998
sg124
g125
sg33
S'16'
p4122
sg127
g1
(g128
g12
(dp4123
g130
I4
sg131
g132
sg133
g134
sg135
g132
sg136
I01
sg34
g137
sg138
g134
sg139
I0
sg140
I0
sg141
I0
sg142
g134
sg35
g143
sg144
I0
stRp4124
sg146
g147
sg148
F1
sg149
Nsg30
S'AgossA'
p4125
sbasg120
g4037
sg123
F0.075329999999999994
sg124
g125
sg33
S'54'
p4126
sg127
g1
(g128
g12
(dp4127
g130
I6
sg131
g132
sg133
g134
sg135
g132
sg136
I01
sg34
g174
sg138
g134
sg139
I0
sg140
I0
sg141
I0
sg142
g134
sg35
g175
sg144
I0
stRp4128
sg146
g147
sg148
F0.98999999999999999
sg149
Nsg30
S'NoName'
p4129
sbasg120
g3017
sg123
F0.56830999999999998
sg124
g125
sg33
S'64'
p4130
sg127
g1
(g128
g12
(dp4131
g130
I6
sg131
g132
sg133
g134
sg135
g132
sg136
I01
sg34
g174
sg138
g134
sg139
I0
sg140
I0
sg141
I0
sg142
g134
sg35
g175
sg144
I0
stRp4132
sg146
g147
sg148
F0.98999999999999999
sg149
Nsg30
S'NoName'
p4133
sbasg120
g2682
sg123
F0.14305999999999999
sg124
g125
sg33
S'39'
p4134
sg127
g1
(g128
g12
(dp4135
g130
I6
sg131
g132
sg133
g134
sg135
g132
sg136
I01
sg34
g174
sg138
g134
sg139
I0
sg140
I0
sg141
I0
sg142
g134
sg35
g175
sg144
I0
stRp4136
sg146
g147
sg148
F0.96999999999999997
sg149
Nsg30
S'NoName'
p4137
sbasg120
g2496
sg123
F0.26834000000000002
sg124
g125
sg33
S'185'
p4138
sg127
g1
(g128
g12
(dp4139
g130
I6
sg131
g132
sg133
g134
sg135
g132
sg136
I01
sg34
g174
sg138
g134
sg139
I0
sg140
I0
sg141
I0
sg142
g134
sg35
g175
sg144
I0
stRp4140
sg146
g147
sg148
F0.97999999999999998
sg149
Nsg30
S'NoName'
p4141
sbasg120
g680
sg123
F0.062890000000000001
sg124
g125
sg33
S'108'
p4142
sg127
g1
(g128
g12
(dp4143
g130
I6
sg131
g132
sg133
g134
sg135
g132
sg136
I01
sg34
g174
sg138
g134
sg139
I0
sg140
I0
sg141
I0
sg142
g134
sg35
g175
sg144
I0
stRp4144
sg146
g147
sg148
F0.67000000000000004
sg149
Nsg30
S'NoName'
p4145
sbasg120
g266
sg123
F0.52025999999999994
sg124
g125
sg33
S'199'
p4146
sg127
g1
(g128
g12
(dp4147
g130
I6
sg131
g132
sg133
g134
sg135
g132
sg136
I01
sg34
g174
sg138
g134
sg139
I0
sg140
I0
sg141
I0
sg142
g134
sg35
g175
sg144
I0
stRp4148
sg146
g147
sg148
F0.97999999999999998
sg149
Nsg30
S'NoName'
p4149
sbasg120
g52
sg123
F0.11274000000000001
sg124
g125
sg33
S'61'
p4150
sg127
g1
(g128
g12
(dp4151
g130
I6
sg131
g132
sg133
g134
sg135
g132
sg136
I01
sg34
g174
sg138
g134
sg139
I0
sg140
I0
sg141
I0
sg142
g134
sg35
g175
sg144
I0
stRp4152
sg146
g147
sg148
F0.88
sg149
Nsg30
S'NoName'
p4153
sbasg120
g39
sg123
F0.33485999999999999
sg124
g125
sg33
S'60'
p4154
sg127
g1
(g128
g12
(dp4155
g130
I6
sg131
g132
sg133
g134
sg135
g132
sg136
I01
sg34
g174
sg138
g134
sg139
I0
sg140
I0
sg141
I0
sg142
g134
sg35
g175
sg144
I0
stRp4156
sg146
g147
sg148
F0.95999999999999996
sg149
Nsg30
S'NoName'
p4157
sbag1
(g2
g3
NtRp4158
(dp4159
g6
g1
(g7
g3
NtRp4160
(dp4161
g10
g1
(g11
g12
(dtRp4162
sg14
g1
(g11
g12
(dtRp4163
sg16
g1
(g11
g12
(dtRp4164
sg18
g1
(g11
g12
(dtRp4165
sg20
g1
(g11
g12
(dtRp4166
sg22
g1
(g11
g12
(dtRp4167
sbsg24
S'Lst'
p4168
sg26
g27
((lp4169
g29
ag30
aS'sequence'
p4170
ag32
ag33
aS'species'
p4171
atRp4172
sg37
(lp4173
sg120
g39
sg121
S'RWLSTKDLYSRMELPGLNHNVHAMFVMPLGFGNPLGDMFPRLNNSFWLPPLSFEGAGTGWTVYPPLSHSGASVDLAFHLSSSMLGAMNFTNMRGPLFWTALLLLSLPVLGATLLDRNFNTFEGGDPLYHLFWFFGHPEVYIIPGFGSHCTYEKFGMYASMGLGFVWSHHMFVGLDERAYFTAATMIAPTGMKFSWLATYGGTPMVAFLFLFTGGTGVLNASDAFHDTYYVVHFHYVLSMGAFALGYYYWPGLYKYFWFNFPMHFLGGMPRRPYPDAGWNSGSAIQLGPQATKEPH'
p4174
sg123
F1.13117
sg124
g125
sg33
S'32'
p4175
sg127
g1
(g128
g12
(dp4176
g130
I4
sg131
g132
sg133
g134
sg135
g132
sg136
I01
sg34
g137
sg138
g134
sg139
I0
sg140
I0
sg141
I0
sg142
g134
sg35
g143
sg144
I0
stRp4177
sg146
g147
sg148
F1
sg149
Nsg30
S'LstarA'
p4178
sbasg120
g4
sg123
F0.46844999999999998
sg124
g125
sg33
S'33'
p4179
sg127
g1
(g128
g12
(dp4180
g130
I6
sg131
g132
sg133
g134
sg135
g132
sg136
I01
sg34
g174
sg138
g134
sg139
I0
sg140
I0
sg141
I0
sg142
g134
sg35
g175
sg144
I0
stRp4181
sg146
g147
sg148
F1
sg149
Nsg30
S'NoName'
p4182
sbag1
(g2
g3
NtRp4183
(dp4184
g6
g1
(g7
g3
NtRp4185
(dp4186
g10
g1
(g11
g12
(dtRp4187
sg14
g1
(g11
g12
(dtRp4188
sg16
g1
(g11
g12
(dtRp4189
sg18
g1
(g11
g12
(dtRp4190
sg20
g1
(g11
g12
(dtRp4191
sg22
g1
(g11
g12
(dtRp4192
sbsg24
g25
sg26
g27
((lp4193
g33
ag32
ag29
ag30
atRp4194
sg37
(lp4195
g1
(g2
g3
NtRp4196
(dp4197
g6
g1
(g7
g3
NtRp4198
(dp4199
g10
g1
(g11
g12
(dtRp4200
sg14
g1
(g11
g12
(dtRp4201
sg16
g1
(g11
g12
(dtRp4202
sg18
g1
(g11
g12
(dtRp4203
sg20
g1
(g11
g12
(dtRp4204
sg22
g1
(g11
g12
(dtRp4205
sbsg24
S'Sja'
p4206
sg26
g27
((lp4207
g29
ag30
aS'sequence'
p4208
ag32
ag33
aS'species'
p4209
atRp4210
sg37
(lp4211
sg120
g4183
sg121
S'RWLSTKDLYSRLELPGLNQNVHGMFILPLGFGNPLGDVYPRMNNSFWLPPLSLEGPGVGWTMYYPLSHSGLSVDLLMQLTSSTLGSINLTNMRGPLFWTSLLVLTLPVLGGILLDRNWNTFAGGDPLYHLFWFFGHPEVYIIPAFGSHSTFHKFGMYASIALGCVWSHHLYVGLDDRAYFTAATMIAPTGIKFSWLATSGGEPMLVFLILFTGGTGVLNSVDAFHDTYFVVHFHYVLSMGAMGLAYYFWPGLYNMFWFNFPQHFLGNYPRRPYPDAGWNSGSSYQFNPNDSNEPH'
p4212
sg123
F1.0686599999999999
sg124
g125
sg33
S'92'
p4213
sg127
g1
(g128
g12
(dp4214
g130
I4
sg131
g132
sg133
g134
sg135
g132
sg136
I01
sg34
g137
sg138
g134
sg139
I0
sg140
I0
sg141
I0
sg142
g134
sg35
g143
sg144
I0
stRp4215
sg146
g147
sg148
F1
sg149
Nsg30
S'SjapoA'
p4216
sbag1
(g2
g3
NtRp4217
(dp4218
g6
g1
(g7
g3
NtRp4219
(dp4220
g10
g1
(g11
g12
(dtRp4221
sg14
g1
(g11
g12
(dtRp4222
sg16
g1
(g11
g12
(dtRp4223
sg18
g1
(g11
g12
(dtRp4224
sg20
g1
(g11
g12
(dtRp4225
sg22
g1
(g11
g12
(dtRp4226
sbsg24
g25
sg26
g27
((lp4227
g33
ag32
ag29
ag30
atRp4228
sg37
(lp4229
g1
(g2
g3
NtRp4230
(dp4231
g6
g1
(g7
g3
NtRp4232
(dp4233
g10
g1
(g11
g12
(dtRp4234
sg14
g1
(g11
g12
(dtRp4235
sg16
g1
(g11
g12
(dtRp4236
sg18
g1
(g11
g12
(dtRp4237
sg20
g1
(g11
g12
(dtRp4238
sg22
g1
(g11
g12
(dtRp4239
sbsg24
S'Spo'
p4240
sg26
g27
((lp4241
g29
ag30
aS'sequence'
p4242
ag32
ag33
aS'species'
p4243
atRp4244
sg37
(lp4245
sg120
g4217
sg121
S'RWMSTKDLYSRMELPGLNQNVHGMFIIPLGFGNPMGDVYPRVNNTFWLPPLSLEGPGGGWTVYPPLSHSGPAIDLALQLTSSTLGSVNLTNMRGPLFWTSLLLLTLPVLGGFLFDRNLNTFAGGDPLYHLFWFFGHPEVYIIPAFGSHPSLHKFGMWASIALGLVWSHHLFVGLDDRAYFSAATMIAPTGIKFSWLATTGGQPMLAFLILFTGGTGVLNSVDAFHDTYFVVHFHYVLSMGAFGLAYY-WPGLYNLFWFNFPQHFLGGMPRRPYPEAGWNSGSSYQFNPSDDNEPH'
p4246
sg123
F0.12372
sg124
g125
sg33
S'101'
p4247
sg127
g1
(g128
g12
(dp4248
g130
I4
sg131
g132
sg133
g134
sg135
g132
sg136
I01
sg34
g137
sg138
g134
sg139
I0
sg140
I0
sg141
I0
sg142
g134
sg35
g143
sg144
I0
stRp4249
sg146
g147
sg148
F1
sg149
Nsg30
S'SpombA'
p4250
sbag1
(g2
g3
NtRp4251
(dp4252
g6
g1
(g7
g3
NtRp4253
(dp4254
g10
g1
(g11
g12
(dtRp4255
sg14
g1
(g11
g12
(dtRp4256
sg16
g1
(g11
g12
(dtRp4257
sg18
g1
(g11
g12
(dtRp4258
sg20
g1
(g11
g12
(dtRp4259
sg22
g1
(g11
g12
(dtRp4260
sbsg24
g25
sg26
g27
((lp4261
g33
ag32
ag29
ag30
atRp4262
sg37
(lp4263
g1
(g2
g3
NtRp4264
(dp4265
g6
g1
(g7
g3
NtRp4266
(dp4267
g10
g1
(g11
g12
(dtRp4268
sg14
g1
(g11
g12
(dtRp4269
sg16
g1
(g11
g12
(dtRp4270
sg18
g1
(g11
g12
(dtRp4271
sg20
g1
(g11
g12
(dtRp4272
sg22
g1
(g11
g12
(dtRp4273
sbsg24
S'Soc'
p4274
sg26
g27
((lp4275
g29
ag30
aS'sequence'
p4276
ag32
ag33
aS'species'
p4277
atRp4278
sg37
(lp4279
sg120
g4251
sg121
S'RWLSTKDLYSRMELPGLNQNVHGMFIIPLGFGNPMGDVYPRVNNTFWLPPLSLEGPGTGWTVYPPLSHSGPAVDLALQLTSSTLGSLNLTNMRGPLFWTSLLLLTLPVLGGFLFDRNLNTFAGGDPLYHLFWFFGHPEVYIIPAFGSHSTLNKFGMCASIALGLVWSHHLFVGLDDRAYFSAATMIAPTGIKFSWLATTGGQPMLAFLILFTGGTGVLNSVDAFHDTYFVVHFHYVLSMGAFGLAYYFWPGLYNLFWFNFPQHFLGGMPRRPYPDAGWNSGSSYQYNPSDDNEPH'
p4280
sg123
F0.03637
sg124
g125
sg33
S'7'
sg127
g1
(g128
g12
(dp4281
g130
I4
sg131
g132
sg133
g134
sg135
g132
sg136
I01
sg34
g137
sg138
g134
sg139
I0
sg140
I0
sg141
I0
sg142
g134
sg35
g143
sg144
I0
stRp4282
sg146
g147
sg148
F1
sg149
Nsg30
S'SoctoA'
p4283
sbag1
(g2
g3
NtRp4284
(dp4285
g6
g1
(g7
g3
NtRp4286
(dp4287
g10
g1
(g11
g12
(dtRp4288
sg14
g1
(g11
g12
(dtRp4289
sg16
g1
(g11
g12
(dtRp4290
sg18
g1
(g11
g12
(dtRp4291
sg20
g1
(g11
g12
(dtRp4292
sg22
g1
(g11
g12
(dtRp4293
sbsg24
S'Scr'
p4294
sg26
g27
((lp4295
g29
ag30
aS'sequence'
p4296
ag32
ag33
aS'species'
p4297
atRp4298
sg37
(lp4299
sg120
g4251
sg121
S'RWLSTKDLYSRMELPGLNQNVHGMFIIPLGFGNPMGDVYPRVNNTYWLPPLSLEGPGTGWTVYPPLSHSGPSVDLALQLTSSTLGSLNLTNMRGPLFWTSLLLLTLPVLGGFLFDRNLNTFAGGDPLYHLFWFFGHPEVYIIPAFGSHPTLNKFGMCASIALGLVWSHHLFVGLDDRAYFSAATMIAPTGIKFSWLATTGGQPMLAFLILFTGGTGVLNSVDAFHDTYFVVHFHYVLSMGAFGLAYYFWPGLYNLFWFNFPQHFLGGMPRRPYPDAGWNSGSSYQYNPSDDNEPH'
p4300
sg123
F0.036740000000000002
sg124
g125
sg33
S'15'
p4301
sg127
g1
(g128
g12
(dp4302
g130
I4
sg131
g132
sg133
g134
sg135
g132
sg136
I01
sg34
g137
sg138
g134
sg139
I0
sg140
I0
sg141
I0
sg142
g134
sg35
g143
sg144
I0
stRp4303
sg146
g147
sg148
F1
sg149
Nsg30
S'ScryoA'
p4304
sbasg120
g4217
sg123
F0.18453
sg124
g125
sg33
S'78'
p4305
sg127
g1
(g128
g12
(dp4306
g130
I6
sg131
g132
sg133
g134
sg135
g132
sg136
I01
sg34
g174
sg138
g134
sg139
I0
sg140
I0
sg141
I0
sg142
g134
sg35
g175
sg144
I0
stRp4307
sg146
g147
sg148
F0.98999999999999999
sg149
Nsg30
S'NoName'
p4308
sbasg120
g4183
sg123
F0.73307
sg124
g125
sg33
S'134'
p4309
sg127
g1
(g128
g12
(dp4310
g130
I6
sg131
g132
sg133
g134
sg135
g132
sg136
I01
sg34
g174
sg138
g134
sg139
I0
sg140
I0
sg141
I0
sg142
g134
sg35
g175
sg144
I0
stRp4311
sg146
g147
sg148
F0.98999999999999999
sg149
Nsg30
S'NoName'
p4312
sbasg120
g4
sg123
F1.7741899999999999
sg124
g125
sg33
S'184'
p4313
sg127
g1
(g128
g12
(dp4314
g130
I6
sg131
g132
sg133
g134
sg135
g132
sg136
I01
sg34
g174
sg138
g134
sg139
I0
sg140
I0
sg141
I0
sg142
g134
sg35
g175
sg144
I0
stRp4315
sg146
g147
sg148
F1
sg149
Nsg30
S'NoName'
p4316
sbasg31
S'8'
sg120
Nsg123
F0
sg124
g125
sg33
S'58'
p4317
sg34
S'sphere'
p4318
sg127
g1
(g128
g12
(dp4319
g130
I6
sg131
g132
sg133
g134
sg135
g132
sg136
I01
sg34
g174
sg138
g134
sg139
I0
sg140
I0
sg141
I0
sg142
g134
sg35
g175
sg144
I0
stRp4320
sg146
g147
sg148
F1
sg149
Nsg35
S'#833DB4'
p4321
sg30
g125
sb.