ccopy_reg
_reconstructor
p1
(cete2.phylo.phylotree
PhyloNode
p2
c__builtin__
object
p3
NtRp4
(dp5
S'_faces'
p6
g1
(cete2.treeview.main
_FaceAreas
p7
g3
NtRp8
(dp9
S'branch-top'
p10
g1
(cete2.treeview.main
FaceContainer
p11
c__builtin__
dict
p12
(dtRp13
sS'float'
p14
g1
(g11
g12
(dtRp15
sS'branch-bottom'
p16
g1
(g11
g12
(dtRp17
sS'aligned'
p18
g1
(g11
g12
(dtRp19
sS'branch-right'
p20
g1
(g11
g12
(dtRp21
sS'float-behind'
p22
g1
(g11
g12
(dtRp23
sbsS'_species'
p24
S'Unknown'
p25
sS'features'
p26
c__builtin__
set
p27
((lp28
S'dist'
p29
aS'name'
p30
aS'bsize'
p31
aS'support'
p32
aS'_nid'
p33
aS'shape'
p34
aS'fgcolor'
p35
atRp36
sS'_children'
p37
(lp38
g1
(g2
g3
NtRp39
(dp40
g6
g1
(g7
g3
NtRp41
(dp42
g10
g1
(g11
g12
(dtRp43
sg14
g1
(g11
g12
(dtRp44
sg16
g1
(g11
g12
(dtRp45
sg18
g1
(g11
g12
(dtRp46
sg20
g1
(g11
g12
(dtRp47
sg22
g1
(g11
g12
(dtRp48
sbsg24
g25
sg26
g27
((lp49
g33
ag32
ag29
ag30
atRp50
sg37
(lp51
g1
(g2
g3
NtRp52
(dp53
g6
g1
(g7
g3
NtRp54
(dp55
g10
g1
(g11
g12
(dtRp56
sg14
g1
(g11
g12
(dtRp57
sg16
g1
(g11
g12
(dtRp58
sg18
g1
(g11
g12
(dtRp59
sg20
g1
(g11
g12
(dtRp60
sg22
g1
(g11
g12
(dtRp61
sbsg24
g25
sg26
g27
((lp62
g33
ag32
ag29
ag30
atRp63
sg37
(lp64
g1
(g2
g3
NtRp65
(dp66
g6
g1
(g7
g3
NtRp67
(dp68
g10
g1
(g11
g12
(dtRp69
sg14
g1
(g11
g12
(dtRp70
sg16
g1
(g11
g12
(dtRp71
sg18
g1
(g11
g12
(dtRp72
sg20
g1
(g11
g12
(dtRp73
sg22
g1
(g11
g12
(dtRp74
sbsg24
g25
sg26
g27
((lp75
g33
ag32
ag29
ag30
atRp76
sg37
(lp77
g1
(g2
g3
NtRp78
(dp79
g6
g1
(g7
g3
NtRp80
(dp81
g10
g1
(g11
g12
(dtRp82
sg14
g1
(g11
g12
(dtRp83
sg16
g1
(g11
g12
(dtRp84
sg18
g1
(g11
g12
(dtRp85
sg20
g1
(g11
g12
(dtRp86
sg22
g1
(g11
g12
(dtRp87
sbsg24
g25
sg26
g27
((lp88
g33
ag32
ag29
ag30
atRp89
sg37
(lp90
g1
(g2
g3
NtRp91
(dp92
g6
g1
(g7
g3
NtRp93
(dp94
g10
g1
(g11
g12
(dtRp95
sg14
g1
(g11
g12
(dtRp96
sg16
g1
(g11
g12
(dtRp97
sg18
g1
(g11
g12
(dtRp98
sg20
g1
(g11
g12
(dtRp99
sg22
g1
(g11
g12
(dtRp100
sbsg24
g25
sg26
g27
((lp101
g33
ag32
ag29
ag30
atRp102
sg37
(lp103
g1
(g2
g3
NtRp104
(dp105
g6
g1
(g7
g3
NtRp106
(dp107
g10
g1
(g11
g12
(dtRp108
sg14
g1
(g11
g12
(dtRp109
sg16
g1
(g11
g12
(dtRp110
sg18
g1
(g11
g12
(dtRp111
sg20
g1
(g11
g12
(dtRp112
sg22
g1
(g11
g12
(dtRp113
sbsg24
S'Yli'
p114
sg26
g27
((lp115
g29
ag30
aS'sequence'
p116
ag32
ag33
aS'species'
p117
atRp118
sg37
(lp119
sS'_up'
p120
g91
sS'sequence'
p121
S'RWLSTKDLYSRLELTGLNQNVHAMFVMPLGFGNPMGDMFARLNNSFWLVPLSLEGAGTGWTVYFPLAHSGPAVDLAFHLSSSLLGAINFTNMRGPLFWTALLLLSLPVLAGTGIDRNFNTFEGGDALYHLFWFFGHPEVYIIPGFGSHSAISKFGMYASIGLGFVWSHHMFVGLDDRAYFTSATMIAPTSIKFSWLATYGGRTALAFIFLFTGGTGVLNSADPFHDSYYVVHFHYVLSMGAFSIGWYLWPGLYNLFWFNFPMHFLGGMPRRNYPDAGWNSGSAYQLGPSGTNEPH'
p122
sS'_dist'
p123
F0.00011
sS'_name'
p124
S'NoName'
p125
sg33
S'153'
p126
sS'_img_style'
p127
g1
(cete2.treeview.main
NodeStyle
p128
g12
(dp129
S'size'
p130
I4
sS'hz_line_color'
p131
S'#000000'
p132
sS'faces_bgcolor'
p133
S'#FFFFFF'
p134
sS'vt_line_color'
p135
g132
sS'draw_descendants'
p136
I01
sg34
S'square'
p137
sS'bgcolor'
p138
g134
sS'hz_line_type'
p139
I0
sS'vt_line_width'
p140
I0
sS'vt_line_type'
p141
I0
sS'node_bgcolor'
p142
g134
sg35
g132
sS'hz_line_width'
p143
I0
stRp144
sS'_speciesFunction'
p145
cete2.phylo.phylotree
_parse_species
p146
sS'_support'
p147
F1
sS'_temp_faces'
p148
Nsg30
S'YlipoB'
p149
sbag1
(g2
g3
NtRp150
(dp151
g6
g1
(g7
g3
NtRp152
(dp153
g10
g1
(g11
g12
(dtRp154
sg14
g1
(g11
g12
(dtRp155
sg16
g1
(g11
g12
(dtRp156
sg18
g1
(g11
g12
(dtRp157
sg20
g1
(g11
g12
(dtRp158
sg22
g1
(g11
g12
(dtRp159
sbsg24
S'Yli'
p160
sg26
g27
((lp161
g29
ag30
aS'sequence'
p162
ag32
ag33
aS'species'
p163
atRp164
sg37
(lp165
sg120
g91
sg121
S'RWLSTKDLYSRLELTGLNQNVHAMFVMPLGFGNPMGDMFARLNNSFWLVPLSLEGAGTGWTVYFPLAHSGPAVDLAFHLSSSLLGAINFTNMRGPLFWTALLLLSLPVLAGTGIDRNFNTFEGGDALYHLFWFFGHPEVYIIPGFGSHSAISKFGMYASIGLGFVWSHHMFVGLDDRAYFTSATMIAPTSIKFSWLATYGGRTALAFIFLFTGGTGVLNSADPFHDSYYVVHFHYVLSMGAFSIGWYLWPGLYNLFWFNFPMHFLGGMPRRNYPDAGWNSGSAYQLGPSGTNEPH'
p166
sg123
F0.00048000000000000001
sg124
g125
sg33
S'132'
p167
sg127
g1
(g128
g12
(dp168
g130
I4
sg131
g132
sg133
g134
sg135
g132
sg136
I01
sg34
g137
sg138
g134
sg139
I0
sg140
I0
sg141
I0
sg142
g134
sg35
g132
sg143
I0
stRp169
sg145
g146
sg147
F1
sg148
Nsg30
S'YlipoA'
p170
sbasg120
g78
sg123
F0.02656
sg124
g125
sg33
S'131'
p171
sg127
g1
(g128
g12
(dp172
g130
I8
sg131
g132
sg133
g134
sg135
g132
sg136
I01
sg34
S'sphere'
p173
sg138
g134
sg139
I0
sg140
I0
sg141
I0
sg142
g134
sg35
g132
sg143
I0
stRp174
sg145
g146
sg147
F1
sg148
Nsg30
S'NoName'
p175
sbag1
(g2
g3
NtRp176
(dp177
g6
g1
(g7
g3
NtRp178
(dp179
g10
g1
(g11
g12
(dtRp180
sg14
g1
(g11
g12
(dtRp181
sg16
g1
(g11
g12
(dtRp182
sg18
g1
(g11
g12
(dtRp183
sg20
g1
(g11
g12
(dtRp184
sg22
g1
(g11
g12
(dtRp185
sbsg24
g25
sg26
g27
((lp186
g33
ag32
ag29
ag30
atRp187
sg37
(lp188
g1
(g2
g3
NtRp189
(dp190
g6
g1
(g7
g3
NtRp191
(dp192
g10
g1
(g11
g12
(dtRp193
sg14
g1
(g11
g12
(dtRp194
sg16
g1
(g11
g12
(dtRp195
sg18
g1
(g11
g12
(dtRp196
sg20
g1
(g11
g12
(dtRp197
sg22
g1
(g11
g12
(dtRp198
sbsg24
S'Cga'
p199
sg26
g27
((lp200
g29
ag30
aS'sequence'
p201
ag32
ag33
aS'species'
p202
atRp203
sg37
(lp204
sg120
g176
sg121
S'RWLSTKDLYSRLELTGLNQNVHAMFVMPLGFGNPMGDMFARLNNSFWLVPLSLEGAGTGWTVYFPLAHSGPAVDLAFHLSSSLLGAINFTNMRGPLFWTALLLLSLPVLAGTGIDRNFNTFEGGDALYHLFWFFGHPEVYIIPGFGSHSAISKFGMYASIGLGFVWSHHMFVGLDDRAYFTSATMIAPTSIKFSWLSTYGGRTALAFIFLFTGGTGVLNSADPFHDSYYVVHFHYVLSMGAFSIGWYLWPGLYNLFWFNFPMHFLGGMPRRNYPDAGWNSGSAYQLGPSGTNEPH'
p205
sg123
F0.016299999999999999
sg124
g125
sg33
S'135'
p206
sg127
g1
(g128
g12
(dp207
g130
I4
sg131
g132
sg133
g134
sg135
g132
sg136
I01
sg34
g137
sg138
g134
sg139
I0
sg140
I0
sg141
I0
sg142
g134
sg35
g132
sg143
I0
stRp208
sg145
g146
sg147
F1
sg148
Nsg30
S'CgallA'
p209
sbag1
(g2
g3
NtRp210
(dp211
g6
g1
(g7
g3
NtRp212
(dp213
g10
g1
(g11
g12
(dtRp214
sg14
g1
(g11
g12
(dtRp215
sg16
g1
(g11
g12
(dtRp216
sg18
g1
(g11
g12
(dtRp217
sg20
g1
(g11
g12
(dtRp218
sg22
g1
(g11
g12
(dtRp219
sbsg24
S'Cde'
p220
sg26
g27
((lp221
g29
ag30
aS'sequence'
p222
ag32
ag33
aS'species'
p223
atRp224
sg37
(lp225
sg120
g176
sg121
S'RWLSTKDLYSRLELTGLNQNVHAMFVMPLGFGNPMGDMFARLNNSFWLVPLSLEGAGTGWTVYFPLAHSGPAVDLAFHLSSSLLGAINFTNMRGPLFWTALLLLSLPVLAGTGIDRNFNTFEGGDALYHLFFFNGHPEVYIIPGFGSHSAISKFGMYASIGLGFVWSHHMFVGLDDRAYFTSATMIAPTSIKFSWLATYGGRTALAFIFLFTGGTGVLNSADPFHDSYYVVHFHYVLSMGAFSIGWYLWPGLYNLFWFNFPMHFLGGMPRRNYPDAGWNSGSAYQLGPSGTNEPH'
p226
sg123
F0.018610000000000002
sg124
g125
sg33
S'200'
p227
sg127
g1
(g128
g12
(dp228
g130
I4
sg131
g132
sg133
g134
sg135
g132
sg136
I01
sg34
g137
sg138
g134
sg139
I0
sg140
I0
sg141
I0
sg142
g134
sg35
g132
sg143
I0
stRp229
sg145
g146
sg147
F1
sg148
Nsg30
S'CdefoA'
p230
sbasg120
g78
sg123
F0.00282
sg124
g125
sg33
S'143'
p231
sg127
g1
(g128
g12
(dp232
g130
I8
sg131
g132
sg133
g134
sg135
g132
sg136
I01
sg34
g173
sg138
g134
sg139
I0
sg140
I0
sg141
I0
sg142
g134
sg35
g132
sg143
I0
stRp233
sg145
g146
sg147
F0.96999999999999997
sg148
Nsg30
S'NoName'
p234
sbasg120
g65
sg123
F0.00479
sg124
g125
sg33
S'118'
p235
sg127
g1
(g128
g12
(dp236
g130
I8
sg131
g132
sg133
g134
sg135
g132
sg136
I01
sg34
g173
sg138
g134
sg139
I0
sg140
I0
sg141
I0
sg142
g134
sg35
g132
sg143
I0
stRp237
sg145
g146
sg147
F0.80000000000000004
sg148
Nsg30
S'NoName'
p238
sbag1
(g2
g3
NtRp239
(dp240
g6
g1
(g7
g3
NtRp241
(dp242
g10
g1
(g11
g12
(dtRp243
sg14
g1
(g11
g12
(dtRp244
sg16
g1
(g11
g12
(dtRp245
sg18
g1
(g11
g12
(dtRp246
sg20
g1
(g11
g12
(dtRp247
sg22
g1
(g11
g12
(dtRp248
sbsg24
S'Cal'
p249
sg26
g27
((lp250
g29
ag30
aS'sequence'
p251
ag32
ag33
aS'species'
p252
atRp253
sg37
(lp254
sg120
g65
sg121
S'RWLSTKDLYSRLELTGLNQNVHAMFVMPLGFGNPMGDMFARLNNSFWLVPMSLEGAGTGWTVYFPLAHSGPAVDLAFHLASSLLGAINFTNMRGPLFWTALLLLSLPVLAGTGIDRNFNTFEGGDALYHLFWFFGHPEVYIIPGFGSHSAISKFGMYASIGLGFVWSHHMFVGLDDRAYFTSATMIAPTSIKFSWLATYGGRTALAFIFLFTGGTGVLNSADPFHDSYYVVHFHYVLSMGAFSIGWYLWPGLYNLFWFNFPMHFLGGMPRRNYPDAGWNSGSAYQLGPSGTNEPH'
p255
sg123
F0.035970000000000002
sg124
g125
sg33
S'211'
p256
sg127
g1
(g128
g12
(dp257
g130
I4
sg131
g132
sg133
g134
sg135
g132
sg136
I01
sg34
g137
sg138
g134
sg139
I0
sg140
I0
sg141
I0
sg142
g134
sg35
g132
sg143
I0
stRp258
sg145
g146
sg147
F1
sg148
Nsg30
S'CalimA'
p259
sbasg120
g52
sg123
F1.1444799999999999
sg124
g125
sg33
S'122'
p260
sg127
g1
(g128
g12
(dp261
g130
I8
sg131
g132
sg133
g134
sg135
g132
sg136
I01
sg34
g173
sg138
g134
sg139
I0
sg140
I0
sg141
I0
sg142
g134
sg35
g132
sg143
I0
stRp262
sg145
g146
sg147
F0.97999999999999998
sg148
Nsg30
S'NoName'
p263
sbag1
(g2
g3
NtRp264
(dp265
g6
g1
(g7
g3
NtRp266
(dp267
g10
g1
(g11
g12
(dtRp268
sg14
g1
(g11
g12
(dtRp269
sg16
g1
(g11
g12
(dtRp270
sg18
g1
(g11
g12
(dtRp271
sg20
g1
(g11
g12
(dtRp272
sg22
g1
(g11
g12
(dtRp273
sbsg24
g25
sg26
g27
((lp274
g33
ag32
ag29
ag30
atRp275
sg37
(lp276
g1
(g2
g3
NtRp277
(dp278
g6
g1
(g7
g3
NtRp279
(dp280
g10
g1
(g11
g12
(dtRp281
sg14
g1
(g11
g12
(dtRp282
sg16
g1
(g11
g12
(dtRp283
sg18
g1
(g11
g12
(dtRp284
sg20
g1
(g11
g12
(dtRp285
sg22
g1
(g11
g12
(dtRp286
sbsg24
g25
sg26
g27
((lp287
g33
ag32
ag29
ag30
atRp288
sg37
(lp289
g1
(g2
g3
NtRp290
(dp291
g6
g1
(g7
g3
NtRp292
(dp293
g10
g1
(g11
g12
(dtRp294
sg14
g1
(g11
g12
(dtRp295
sg16
g1
(g11
g12
(dtRp296
sg18
g1
(g11
g12
(dtRp297
sg20
g1
(g11
g12
(dtRp298
sg22
g1
(g11
g12
(dtRp299
sbsg24
g25
sg26
g27
((lp300
g33
ag32
ag29
ag30
atRp301
sg37
(lp302
g1
(g2
g3
NtRp303
(dp304
g6
g1
(g7
g3
NtRp305
(dp306
g10
g1
(g11
g12
(dtRp307
sg14
g1
(g11
g12
(dtRp308
sg16
g1
(g11
g12
(dtRp309
sg18
g1
(g11
g12
(dtRp310
sg20
g1
(g11
g12
(dtRp311
sg22
g1
(g11
g12
(dtRp312
sbsg24
g25
sg26
g27
((lp313
g33
ag32
ag29
ag30
atRp314
sg37
(lp315
g1
(g2
g3
NtRp316
(dp317
g6
g1
(g7
g3
NtRp318
(dp319
g10
g1
(g11
g12
(dtRp320
sg14
g1
(g11
g12
(dtRp321
sg16
g1
(g11
g12
(dtRp322
sg18
g1
(g11
g12
(dtRp323
sg20
g1
(g11
g12
(dtRp324
sg22
g1
(g11
g12
(dtRp325
sbsg24
S'Mst'
p326
sg26
g27
((lp327
g29
ag30
aS'sequence'
p328
ag32
ag33
aS'species'
p329
atRp330
sg37
(lp331
sg120
g303
sg121
S'RWLSTKDLYSRLELPTLNQNVHAMFVMPSGFGNPMGDMLARLNNSFWLVPVSLEGAGTGWTVYPPLSHSGASVDLVFHMSSSLLGAINFTNMRGTLFWTALLLLSLPVLSGTLLDRNFNTFEGGDPLYHLFWFFGHPEVYIIPGFGSHSTYKKFGMYASMGLGFVWSHHMYVGLDDRAYFTSATMMAPTGVKFSWLATYGGRPFLAFMFLFTGGTGVLNASDAFHDTYYVVHFHYVLSLGAFSLGYYFWPGLYNLFMFNFPLHFLGGMPRRPYPDAGWNSGSSYQLGPDESNEPH'
p332
sg123
F0.087190000000000004
sg124
g125
sg33
S'42'
p333
sg127
g1
(g128
g12
(dp334
g130
I4
sg131
g132
sg133
g134
sg135
g132
sg136
I01
sg34
g137
sg138
g134
sg139
I0
sg140
I0
sg141
I0
sg142
g134
sg35
g132
sg143
I0
stRp335
sg145
g146
sg147
F1
sg148
Nsg30
S'MstarA'
p336
sbag1
(g2
g3
NtRp337
(dp338
g6
g1
(g7
g3
NtRp339
(dp340
g10
g1
(g11
g12
(dtRp341
sg14
g1
(g11
g12
(dtRp342
sg16
g1
(g11
g12
(dtRp343
sg18
g1
(g11
g12
(dtRp344
sg20
g1
(g11
g12
(dtRp345
sg22
g1
(g11
g12
(dtRp346
sbsg24
S'Min'
p347
sg26
g27
((lp348
g29
ag30
aS'sequence'
p349
ag32
ag33
aS'species'
p350
atRp351
sg37
(lp352
sg120
g303
sg121
S'RWLSTKDLYSRLELPTLNQNVHAMFVMPAGFGNPMGDMLARLNNSFWLVPVSLEGAGTGWTVYPPLSHSGPSVDLVFHISSSLLGSMNFTNMRGTLFWTSLLLLSLPVLSGTLLDRNFNTFEGGDPLYHLFYKMMLFSMYMMPGFGSHSAYKKFGMYASIGLGFVWSHHMYVGLDDRAYFTSATMIAPTGVKFSWLATYGGRPFLAFMFLFTGGTGVLNASDAFHDTYYVVHFHYVLSLGAFSLGYYFWPGLYNLFTFNFPLHFLGGMPRRPYPDAGWNSGSSYQLGPDESNEPH'
p353
sg123
F0.040719999999999999
sg124
g125
sg33
S'150'
p354
sg127
g1
(g128
g12
(dp355
g130
I4
sg131
g132
sg133
g134
sg135
g132
sg136
I01
sg34
g137
sg138
g134
sg139
I0
sg140
I0
sg141
I0
sg142
g134
sg35
g132
sg143
I0
stRp356
sg145
g146
sg147
F1
sg148
Nsg30
S'MingeA'
p357
sbasg120
g290
sg123
F0.037420000000000002
sg124
g125
sg33
S'145'
p358
sg127
g1
(g128
g12
(dp359
g130
I8
sg131
g132
sg133
g134
sg135
g132
sg136
I01
sg34
g173
sg138
g134
sg139
I0
sg140
I0
sg141
I0
sg142
g134
sg35
g132
sg143
I0
stRp360
sg145
g146
sg147
F0.98999999999999999
sg148
Nsg30
S'NoName'
p361
sbag1
(g2
g3
NtRp362
(dp363
g6
g1
(g7
g3
NtRp364
(dp365
g10
g1
(g11
g12
(dtRp366
sg14
g1
(g11
g12
(dtRp367
sg16
g1
(g11
g12
(dtRp368
sg18
g1
(g11
g12
(dtRp369
sg20
g1
(g11
g12
(dtRp370
sg22
g1
(g11
g12
(dtRp371
sbsg24
g25
sg26
g27
((lp372
g33
ag32
ag29
ag30
atRp373
sg37
(lp374
g1
(g2
g3
NtRp375
(dp376
g6
g1
(g7
g3
NtRp377
(dp378
g10
g1
(g11
g12
(dtRp379
sg14
g1
(g11
g12
(dtRp380
sg16
g1
(g11
g12
(dtRp381
sg18
g1
(g11
g12
(dtRp382
sg20
g1
(g11
g12
(dtRp383
sg22
g1
(g11
g12
(dtRp384
sbsg24
g25
sg26
g27
((lp385
g33
ag32
ag29
ag30
atRp386
sg37
(lp387
g1
(g2
g3
NtRp388
(dp389
g6
g1
(g7
g3
NtRp390
(dp391
g10
g1
(g11
g12
(dtRp392
sg14
g1
(g11
g12
(dtRp393
sg16
g1
(g11
g12
(dtRp394
sg18
g1
(g11
g12
(dtRp395
sg20
g1
(g11
g12
(dtRp396
sg22
g1
(g11
g12
(dtRp397
sbsg24
S'Mte'
p398
sg26
g27
((lp399
g29
ag30
aS'sequence'
p400
ag32
ag33
aS'species'
p401
atRp402
sg37
(lp403
sg120
g375
sg121
S'RWLSTKDLYSRLELPTLNQNVHAMFVMPAGFGNPMGDMLARLNNSFWLVPLSLEGAGTGWTVYPPLSHSGPSVDMVFHISSSLLGAINFTNMRGTLFWTALLLLSLPVLSGTLLDRNFNTFEGGDPLYHLFWFFGHPEVYIIPGFGSHSAYKKFGMYASIGLGFVWSHHMYVGLDDRAYFTSATMIAPTGVKFSWLATYGGRPFLAFIFLFTGGTGVLNASDAFHDTYYVVHFHYVLSLGAFSLGYYFWPGLYNLFYFNFPMHALGGMPRRPYPDAGWNSGSSYQLGPDESNEPH'
p404
sg123
F0.042599999999999999
sg124
g125
sg33
S'156'
p405
sg127
g1
(g128
g12
(dp406
g130
I4
sg131
g132
sg133
g134
sg135
g132
sg136
I01
sg34
g137
sg138
g134
sg139
I0
sg140
I0
sg141
I0
sg142
g134
sg35
g132
sg143
I0
stRp407
sg145
g146
sg147
F1
sg148
Nsg30
S'MtetrA'
p408
sbag1
(g2
g3
NtRp409
(dp410
g6
g1
(g7
g3
NtRp411
(dp412
g10
g1
(g11
g12
(dtRp413
sg14
g1
(g11
g12
(dtRp414
sg16
g1
(g11
g12
(dtRp415
sg18
g1
(g11
g12
(dtRp416
sg20
g1
(g11
g12
(dtRp417
sg22
g1
(g11
g12
(dtRp418
sbsg24
g25
sg26
g27
((lp419
g33
ag32
ag29
ag30
atRp420
sg37
(lp421
g1
(g2
g3
NtRp422
(dp423
g6
g1
(g7
g3
NtRp424
(dp425
g10
g1
(g11
g12
(dtRp426
sg14
g1
(g11
g12
(dtRp427
sg16
g1
(g11
g12
(dtRp428
sg18
g1
(g11
g12
(dtRp429
sg20
g1
(g11
g12
(dtRp430
sg22
g1
(g11
g12
(dtRp431
sbsg24
S'Mma'
p432
sg26
g27
((lp433
g29
ag30
aS'sequence'
p434
ag32
ag33
aS'species'
p435
atRp436
sg37
(lp437
sg120
g409
sg121
S'RWLSTKDLYSRLELPTLNQNVHAMFVMPAGFGNPMGDMLARLNNSFWLVPLSLEGPGTGWTVYPPLSHSGPSVDMVFHISSSLLGAINFTNMRGTLFWTALLLLSLPVLSGTLLDRNFNTFEGGDPLYHLFWFFGHPEVYIIPGFGSHSAYKKFGMYASIGLGFVWSHHMYVGLDDRAYFTSATMIAPTGVKFSWLATYGGRPFLAFIFLFTGGTGVLNASDAFHDSYYVVHFHYVLSLGAFSLGYYFWPGLYNLFFFNFPMHALGGMPRRPYPDAGWNSGSSYQLGPDESNEPH'
p438
sg123
F0.00055000000000000003
sg124
g125
sg33
S'159'
p439
sg127
g1
(g128
g12
(dp440
g130
I4
sg131
g132
sg133
g134
sg135
g132
sg136
I01
sg34
g137
sg138
g134
sg139
I0
sg140
I0
sg141
I0
sg142
g134
sg35
g132
sg143
I0
stRp441
sg145
g146
sg147
F1
sg148
Nsg30
S'MmagnB'
p442
sbag1
(g2
g3
NtRp443
(dp444
g6
g1
(g7
g3
NtRp445
(dp446
g10
g1
(g11
g12
(dtRp447
sg14
g1
(g11
g12
(dtRp448
sg16
g1
(g11
g12
(dtRp449
sg18
g1
(g11
g12
(dtRp450
sg20
g1
(g11
g12
(dtRp451
sg22
g1
(g11
g12
(dtRp452
sbsg24
S'Mma'
p453
sg26
g27
((lp454
g29
ag30
aS'sequence'
p455
ag32
ag33
aS'species'
p456
atRp457
sg37
(lp458
sg120
g409
sg121
S'RWLSTKDLYSRLELPTLNQNVHAMFVMPAGFGNPMGDMLARLNNSFWLVPLSLEGPGTGWTVYPPLSHSGPSVDMVFHISSSLLGAINFTNMRGTLFWTALLLLSLPVLSGTLLDRNFNTFEGGDPLYHLFWFFGHPEVYIIPGFGSHSAYKKFGMYASIGLGFVWSHHMYVGLDDRAYFTSATMIAPTGVKFSWLATYGGRPFLAFIFLFTGGTGVLNASDAFHDSYYVVHFHYVLSLGAFSLGYYFWPGLYNLFFFNFPMHALGGMPRRPYPDAGWNSGSSYQLGPDESNEPH'
p459
sg123
F0.00088000000000000003
sg124
g125
sg33
S'161'
p460
sg127
g1
(g128
g12
(dp461
g130
I4
sg131
g132
sg133
g134
sg135
g132
sg136
I01
sg34
g137
sg138
g134
sg139
I0
sg140
I0
sg141
I0
sg142
g134
sg35
g132
sg143
I0
stRp462
sg145
g146
sg147
F1
sg148
Nsg30
S'MmagnA'
p463
sbasg120
g375
sg123
F0.011140000000000001
sg124
g125
sg33
S'75'
p464
sg127
g1
(g128
g12
(dp465
g130
I8
sg131
g132
sg133
g134
sg135
g132
sg136
I01
sg34
g173
sg138
g134
sg139
I0
sg140
I0
sg141
I0
sg142
g134
sg35
g132
sg143
I0
stRp466
sg145
g146
sg147
F0.98999999999999999
sg148
Nsg30
S'NoName'
p467
sbasg120
g362
sg123
F0.11189
sg124
g125
sg33
S'64'
p468
sg127
g1
(g128
g12
(dp469
g130
I8
sg131
g132
sg133
g134
sg135
g132
sg136
I01
sg34
g173
sg138
g134
sg139
I0
sg140
I0
sg141
I0
sg142
g134
sg35
g132
sg143
I0
stRp470
sg145
g146
sg147
F0.98999999999999999
sg148
Nsg30
S'NoName'
p471
sbag1
(g2
g3
NtRp472
(dp473
g6
g1
(g7
g3
NtRp474
(dp475
g10
g1
(g11
g12
(dtRp476
sg14
g1
(g11
g12
(dtRp477
sg16
g1
(g11
g12
(dtRp478
sg18
g1
(g11
g12
(dtRp479
sg20
g1
(g11
g12
(dtRp480
sg22
g1
(g11
g12
(dtRp481
sbsg24
g25
sg26
g27
((lp482
g33
ag32
ag29
ag30
atRp483
sg37
(lp484
g1
(g2
g3
NtRp485
(dp486
g6
g1
(g7
g3
NtRp487
(dp488
g10
g1
(g11
g12
(dtRp489
sg14
g1
(g11
g12
(dtRp490
sg16
g1
(g11
g12
(dtRp491
sg18
g1
(g11
g12
(dtRp492
sg20
g1
(g11
g12
(dtRp493
sg22
g1
(g11
g12
(dtRp494
sbsg24
S'Scl'
p495
sg26
g27
((lp496
g29
ag30
aS'sequence'
p497
ag32
ag33
aS'species'
p498
atRp499
sg37
(lp500
sg120
g472
sg121
S'RWLSTKDLYSRLELPTLNQNVHAMFVMPAGFGNPMGDMLARLNNSFWLVPLSLEGPGTGWTVYPPLSHSGPSVDMVFHMSSSLLGAINFTNMRGTLFWTALLLLSLPVLAGTLLDRNFNTFEGGDPLYHLFWFFGHPEVYMIPGFGSHSTYKKFGMYASMGLGFVWSHHMYVGLDDRAYFTAATMIAPTGVKFSWLATYGGRPFLTFMFLFTGGTGVLNASDAFHDTYYVVHFHYVLSLGAFSLGYYFWPGLYNLFMFNFPLHFLGGMPRRPYPDAGWNSGSSYQLGPDESNEPH'
p501
sg123
F0.020899999999999998
sg124
g125
sg33
S'165'
p502
sg127
g1
(g128
g12
(dp503
g130
I4
sg131
g132
sg133
g134
sg135
g132
sg136
I01
sg34
g137
sg138
g134
sg139
I0
sg140
I0
sg141
I0
sg142
g134
sg35
g132
sg143
I0
stRp504
sg145
g146
sg147
F1
sg148
Nsg30
S'SclavA'
p505
sbag1
(g2
g3
NtRp506
(dp507
g6
g1
(g7
g3
NtRp508
(dp509
g10
g1
(g11
g12
(dtRp510
sg14
g1
(g11
g12
(dtRp511
sg16
g1
(g11
g12
(dtRp512
sg18
g1
(g11
g12
(dtRp513
sg20
g1
(g11
g12
(dtRp514
sg22
g1
(g11
g12
(dtRp515
sbsg24
S'Msp'
p516
sg26
g27
((lp517
g29
ag30
aS'sequence'
p518
ag32
ag33
aS'species'
p519
atRp520
sg37
(lp521
sg120
g472
sg121
S'RWLSTKDLYSRLELPTLNQNVHAMFVMPAGFGNPMGDMLARLNNSFWLVPLSLEGPGTGWTVYPPLSHSGPSVDMVFHMSSSLLGAMNFTNMRGTLFWTALLLLSLPVLAGTLLDRNFNTFEGGDPLYHLFWFFGHPEVYMIPGFGSHSTYKKFGMYASMGLGFVWSHHMYVGLDDRAYFTAATMIAPTGVKFSWLATYGGRPFLTFMFLFTGGTGVLNASDAFHDTYYVVHFHYVLSLGAFSLGYYFWPGLYNLFMFNFPLHFLGGMPRRPYPDAGWNSGSSYQLGPDESNEPH'
p522
sg123
F0.13538
sg124
g125
sg33
S'166'
p523
sg127
g1
(g128
g12
(dp524
g130
I4
sg131
g132
sg133
g134
sg135
g132
sg136
I01
sg34
g137
sg138
g134
sg139
I0
sg140
I0
sg141
I0
sg142
g134
sg35
g132
sg143
I0
stRp525
sg145
g146
sg147
F1
sg148
Nsg30
S'MspicA'
p526
sbasg120
g362
sg123
F0.10536
sg124
g125
sg33
S'91'
p527
sg127
g1
(g128
g12
(dp528
g130
I8
sg131
g132
sg133
g134
sg135
g132
sg136
I01
sg34
g173
sg138
g134
sg139
I0
sg140
I0
sg141
I0
sg142
g134
sg35
g132
sg143
I0
stRp529
sg145
g146
sg147
F0.98999999999999999
sg148
Nsg30
S'NoName'
p530
sbasg120
g290
sg123
F0.03209
sg124
g125
sg33
S'32'
p531
sg127
g1
(g128
g12
(dp532
g130
I8
sg131
g132
sg133
g134
sg135
g132
sg136
I01
sg34
g173
sg138
g134
sg139
I0
sg140
I0
sg141
I0
sg142
g134
sg35
g132
sg143
I0
stRp533
sg145
g146
sg147
F0.98999999999999999
sg148
Nsg30
S'NoName'
p534
sbasg120
g277
sg123
F0.32869999999999999
sg124
g125
sg33
S'8'
sg127
g1
(g128
g12
(dp535
g130
I8
sg131
g132
sg133
g134
sg135
g132
sg136
I01
sg34
g173
sg138
g134
sg139
I0
sg140
I0
sg141
I0
sg142
g134
sg35
g132
sg143
I0
stRp536
sg145
g146
sg147
F0.98999999999999999
sg148
Nsg30
S'NoName'
p537
sbag1
(g2
g3
NtRp538
(dp539
g6
g1
(g7
g3
NtRp540
(dp541
g10
g1
(g11
g12
(dtRp542
sg14
g1
(g11
g12
(dtRp543
sg16
g1
(g11
g12
(dtRp544
sg18
g1
(g11
g12
(dtRp545
sg20
g1
(g11
g12
(dtRp546
sg22
g1
(g11
g12
(dtRp547
sbsg24
g25
sg26
g27
((lp548
g33
ag32
ag29
ag30
atRp549
sg37
(lp550
g1
(g2
g3
NtRp551
(dp552
g6
g1
(g7
g3
NtRp553
(dp554
g10
g1
(g11
g12
(dtRp555
sg14
g1
(g11
g12
(dtRp556
sg16
g1
(g11
g12
(dtRp557
sg18
g1
(g11
g12
(dtRp558
sg20
g1
(g11
g12
(dtRp559
sg22
g1
(g11
g12
(dtRp560
sbsg24
g25
sg26
g27
((lp561
g33
ag32
ag29
ag30
atRp562
sg37
(lp563
g1
(g2
g3
NtRp564
(dp565
g6
g1
(g7
g3
NtRp566
(dp567
g10
g1
(g11
g12
(dtRp568
sg14
g1
(g11
g12
(dtRp569
sg16
g1
(g11
g12
(dtRp570
sg18
g1
(g11
g12
(dtRp571
sg20
g1
(g11
g12
(dtRp572
sg22
g1
(g11
g12
(dtRp573
sbsg24
S'Cze'
p574
sg26
g27
((lp575
g29
ag30
aS'sequence'
p576
ag32
ag33
aS'species'
p577
atRp578
sg37
(lp579
sg120
g551
sg121
S'SWLSTQNLYSRIELPNLNQNVHAMFVMPTGLANPQGDTFPRMNNAFVLLPMSLDGPGSGWTLYPPLTHSGSSMDMAFHLSSSIFGAINLTNMRGPLFWTALMMLALPVLAGTLLDRNFNTFVGGDPLYHIFWFFGHPEVYIIPVFGSQQVYKKFGMYASIGLGFVWSHHMFVGLDDRAYFSGASLIAPTGSKFSWLATYGGRPLLAFMVLFTGGTGVMNSSDMFHDTYYVVHFHYVLSLGVFGVAYYFWPGLYNLFWFNFPLHFLGGLPRRPYPDAGWNSGSSYQFGPDESNEPH'
p580
sg123
F1.5682799999999999
sg124
g125
sg33
S'172'
p581
sg127
g1
(g128
g12
(dp582
g130
I4
sg131
g132
sg133
g134
sg135
g132
sg136
I01
sg34
g137
sg138
g134
sg139
I0
sg140
I0
sg141
I0
sg142
g134
sg35
g132
sg143
I0
stRp583
sg145
g146
sg147
F1
sg148
Nsg30
S'CzempA'
p584
sbag1
(g2
g3
NtRp585
(dp586
g6
g1
(g7
g3
NtRp587
(dp588
g10
g1
(g11
g12
(dtRp589
sg14
g1
(g11
g12
(dtRp590
sg16
g1
(g11
g12
(dtRp591
sg18
g1
(g11
g12
(dtRp592
sg20
g1
(g11
g12
(dtRp593
sg22
g1
(g11
g12
(dtRp594
sbsg24
g25
sg26
g27
((lp595
g33
ag32
ag29
ag30
atRp596
sg37
(lp597
g1
(g2
g3
NtRp598
(dp599
g6
g1
(g7
g3
NtRp600
(dp601
g10
g1
(g11
g12
(dtRp602
sg14
g1
(g11
g12
(dtRp603
sg16
g1
(g11
g12
(dtRp604
sg18
g1
(g11
g12
(dtRp605
sg20
g1
(g11
g12
(dtRp606
sg22
g1
(g11
g12
(dtRp607
sbsg24
S'Csa'
p608
sg26
g27
((lp609
g29
ag30
aS'sequence'
p610
ag32
ag33
aS'species'
p611
atRp612
sg37
(lp613
sg120
g585
sg121
S'----------RLELPNLNQNVHAMFVMPSGFGNPMGDMLARLNNSFWLVPLSLDGPGTGWTMYPPLSHSGASVDLVFHISSSLLGAMNFTNMRGTLFWTALLLLSLPVLSGTLLDRNFNTFEGGDMLYHMFWFFGHPEVYMMPGFGSQSVYKKFGMYASMGLGFVWSHHMFVGLDDRAYFTAATLMAPTGVKFSWLASYGGRPLLAFMFLFTGGTGVLNASDAFHDTYYVVHFHYVLSLGAFSLGYYFWPGLYNLFWFNFPQHFLGAMPRRPYPDAGWNSGSSYQMGPDFSNEPH'
p614
sg123
F0.65920000000000001
sg124
g125
sg33
S'176'
p615
sg127
g1
(g128
g12
(dp616
g130
I4
sg131
g132
sg133
g134
sg135
g132
sg136
I01
sg34
g137
sg138
g134
sg139
I0
sg140
I0
sg141
I0
sg142
g134
sg35
g132
sg143
I0
stRp617
sg145
g146
sg147
F1
sg148
Nsg30
S'CsantA'
p618
sbag1
(g2
g3
NtRp619
(dp620
g6
g1
(g7
g3
NtRp621
(dp622
g10
g1
(g11
g12
(dtRp623
sg14
g1
(g11
g12
(dtRp624
sg16
g1
(g11
g12
(dtRp625
sg18
g1
(g11
g12
(dtRp626
sg20
g1
(g11
g12
(dtRp627
sg22
g1
(g11
g12
(dtRp628
sbsg24
S'Csa'
p629
sg26
g27
((lp630
g29
ag30
aS'sequence'
p631
ag32
ag33
aS'species'
p632
atRp633
sg37
(lp634
sg120
g585
sg121
S'RWLSTKDLYSRLELPAMSQNVHAMFVMPSGFANPMGDTLPRVNNAAILMPMSLEGPGTGWTVYPPLSHSGVSVDLVFHISSSLAGAMNLTNMRGPLFWTALLLLSLPVLAGTLIDRNFNTFDGGDVLYHLFWFFGHPEVYIIPGFGSESRYNKFGMYASIGLGFVWSHHMYVGLDDRSYFTAATLIAPTGVKFSWMATFGGRPFLTFLALFTGGTGVLNASDAFHDTYYVVHFHYVLSLGAFSMGYYYWPGLYNLFWFNFPQHFLGGQPRRSYPDAGWNSGSSYQLGPDESNEPH'
p635
sg123
F1.3581099999999999
sg124
g125
sg33
S'178'
p636
sg127
g1
(g128
g12
(dp637
g130
I4
sg131
g132
sg133
g134
sg135
g132
sg136
I01
sg34
g137
sg138
g134
sg139
I0
sg140
I0
sg141
I0
sg142
g134
sg35
g132
sg143
I0
stRp638
sg145
g146
sg147
F1
sg148
Nsg30
S'CsalmA'
p639
sbasg120
g551
sg123
F0.19968
sg124
g125
sg33
S'170'
p640
sg127
g1
(g128
g12
(dp641
g130
I8
sg131
g132
sg133
g134
sg135
g132
sg136
I01
sg34
g173
sg138
g134
sg139
I0
sg140
I0
sg141
I0
sg142
g134
sg35
g132
sg143
I0
stRp642
sg145
g146
sg147
F0.97999999999999998
sg148
Nsg30
S'NoName'
p643
sbasg120
g538
sg123
F0.14363999999999999
sg124
g125
sg33
S'169'
p644
sg127
g1
(g128
g12
(dp645
g130
I8
sg131
g132
sg133
g134
sg135
g132
sg136
I01
sg34
g173
sg138
g134
sg139
I0
sg140
I0
sg141
I0
sg142
g134
sg35
g132
sg143
I0
stRp646
sg145
g146
sg147
F0.93000000000000005
sg148
Nsg30
S'NoName'
p647
sbag1
(g2
g3
NtRp648
(dp649
g6
g1
(g7
g3
NtRp650
(dp651
g10
g1
(g11
g12
(dtRp652
sg14
g1
(g11
g12
(dtRp653
sg16
g1
(g11
g12
(dtRp654
sg18
g1
(g11
g12
(dtRp655
sg20
g1
(g11
g12
(dtRp656
sg22
g1
(g11
g12
(dtRp657
sbsg24
S'Bar'
p658
sg26
g27
((lp659
g29
ag30
aS'sequence'
p660
ag32
ag33
aS'species'
p661
atRp662
sg37
(lp663
sg120
g538
sg121
S'RWLSTKDLYSRLELPNLNQNSHAMFVMPTGFGNPMGDMLSRLNNSFWLVPLSLEGPGTGWTVYPPLSHSGPSVDLVFHVSSSLLGAMNFTNMRGTLFWTVLLLLALPVLAGTLLDRNFNTFEGGDPLYHMFWFFGHPEVYIIPGFGSQAVYNKFGMYASIGLGFVWSHHMYVGMDDRAYFTAATLIAPTGVKFSWLASYGGRPLLTFIGLFTGGTGVLNAADAFHDSYYVVHFHYVLSLGAFSLGYYFWPGLYNLFWFNFPQHFLGSMPRRPYPDAGWNSGSSVQLGPDVNNEPH'
p664
sg123
F0.74575000000000002
sg124
g125
sg33
S'180'
p665
sg127
g1
(g128
g12
(dp666
g130
I4
sg131
g132
sg133
g134
sg135
g132
sg136
I01
sg34
g137
sg138
g134
sg139
I0
sg140
I0
sg141
I0
sg142
g134
sg35
g132
sg143
I0
stRp667
sg145
g146
sg147
F1
sg148
Nsg30
S'BarxA'
p668
sbasg120
g277
sg123
F0.25233
sg124
g125
sg33
S'163'
p669
sg127
g1
(g128
g12
(dp670
g130
I8
sg131
g132
sg133
g134
sg135
g132
sg136
I01
sg34
g173
sg138
g134
sg139
I0
sg140
I0
sg141
I0
sg142
g134
sg35
g132
sg143
I0
stRp671
sg145
g146
sg147
F0.97999999999999998
sg148
Nsg30
S'NoName'
p672
sbasg120
g264
sg123
F0.42224
sg124
g125
sg33
S'224'
p673
sg127
g1
(g128
g12
(dp674
g130
I8
sg131
g132
sg133
g134
sg135
g132
sg136
I01
sg34
g173
sg138
g134
sg139
I0
sg140
I0
sg141
I0
sg142
g134
sg35
g132
sg143
I0
stRp675
sg145
g146
sg147
F0.97999999999999998
sg148
Nsg30
S'NoName'
p676
sbag1
(g2
g3
NtRp677
(dp678
g6
g1
(g7
g3
NtRp679
(dp680
g10
g1
(g11
g12
(dtRp681
sg14
g1
(g11
g12
(dtRp682
sg16
g1
(g11
g12
(dtRp683
sg18
g1
(g11
g12
(dtRp684
sg20
g1
(g11
g12
(dtRp685
sg22
g1
(g11
g12
(dtRp686
sbsg24
g25
sg26
g27
((lp687
g33
ag32
ag29
ag30
atRp688
sg37
(lp689
g1
(g2
g3
NtRp690
(dp691
g6
g1
(g7
g3
NtRp692
(dp693
g10
g1
(g11
g12
(dtRp694
sg14
g1
(g11
g12
(dtRp695
sg16
g1
(g11
g12
(dtRp696
sg18
g1
(g11
g12
(dtRp697
sg20
g1
(g11
g12
(dtRp698
sg22
g1
(g11
g12
(dtRp699
sbsg24
g25
sg26
g27
((lp700
g33
ag32
ag29
ag30
atRp701
sg37
(lp702
g1
(g2
g3
NtRp703
(dp704
g6
g1
(g7
g3
NtRp705
(dp706
g10
g1
(g11
g12
(dtRp707
sg14
g1
(g11
g12
(dtRp708
sg16
g1
(g11
g12
(dtRp709
sg18
g1
(g11
g12
(dtRp710
sg20
g1
(g11
g12
(dtRp711
sg22
g1
(g11
g12
(dtRp712
sbsg24
g25
sg26
g27
((lp713
g33
ag32
ag29
ag30
atRp714
sg37
(lp715
g1
(g2
g3
NtRp716
(dp717
g6
g1
(g7
g3
NtRp718
(dp719
g10
g1
(g11
g12
(dtRp720
sg14
g1
(g11
g12
(dtRp721
sg16
g1
(g11
g12
(dtRp722
sg18
g1
(g11
g12
(dtRp723
sg20
g1
(g11
g12
(dtRp724
sg22
g1
(g11
g12
(dtRp725
sbsg24
g25
sg26
g27
((lp726
g33
ag32
ag29
ag30
atRp727
sg37
(lp728
g1
(g2
g3
NtRp729
(dp730
g6
g1
(g7
g3
NtRp731
(dp732
g10
g1
(g11
g12
(dtRp733
sg14
g1
(g11
g12
(dtRp734
sg16
g1
(g11
g12
(dtRp735
sg18
g1
(g11
g12
(dtRp736
sg20
g1
(g11
g12
(dtRp737
sg22
g1
(g11
g12
(dtRp738
sbsg24
S'Mfa'
p739
sg26
g27
((lp740
g29
ag30
aS'sequence'
p741
ag32
ag33
aS'species'
p742
atRp743
sg37
(lp744
sg120
g716
sg121
S'RWLSTKDLYSRLELGNLNQNVHAMFVMPLGFGNPLGDMFARLNNSFWLPPLSLEGAGTGWTVYPPLSHSGPSVDLAFHLTSSLLGAINFTNMRGPLFWTALLLLSLPVLAGTLLDRNFNTFEGGDPLYHLFWFFGHPEVYIIPGFGSHSTYKKFGMYASIGLGFVWSHHMYVGLDDRAYFTSATMIAPTGIKFSWLATYGGRPMLAFLFLFTGGTGVLNASDAFHDTYFVVHFHYVLSMGAFSLAYYYWPGLYNLFWFNFPMHFLGGMPRRPYPDAGWNSGSSYQMGPDESNEPH'
p745
sg123
F0.14163999999999999
sg124
g125
sg33
S'189'
p746
sg127
g1
(g128
g12
(dp747
g130
I4
sg131
g132
sg133
g134
sg135
g132
sg136
I01
sg34
g137
sg138
g134
sg139
I0
sg140
I0
sg141
I0
sg142
g134
sg35
g132
sg143
I0
stRp748
sg145
g146
sg147
F1
sg148
Nsg30
S'MfariB'
p749
sbag1
(g2
g3
NtRp750
(dp751
g6
g1
(g7
g3
NtRp752
(dp753
g10
g1
(g11
g12
(dtRp754
sg14
g1
(g11
g12
(dtRp755
sg16
g1
(g11
g12
(dtRp756
sg18
g1
(g11
g12
(dtRp757
sg20
g1
(g11
g12
(dtRp758
sg22
g1
(g11
g12
(dtRp759
sbsg24
S'Csa'
p760
sg26
g27
((lp761
g29
ag30
aS'sequence'
p762
ag32
ag33
aS'species'
p763
atRp764
sg37
(lp765
sg120
g716
sg121
S'RWLSTKDLYSRLELGNFNQNVHAMFVMPLGFGNPLGDMFARLNNSFWLPPLSLEGAGTGWTVYPPLSHSGPSVDLAFHLTSSLLGAINFTNMRGPLFWTALLLLSLPVLAATLLDRNFNTFEGGDPLYHLFWFFGHPEVYIIPGFGSHSTYKKFGMYASMGLGFVWSHHMYVGLDDRAYFTSATMIAPTGMKFSWLATYGGRPMLAFLFLFTGGTGVLNASDAFHDTYYVVHFHYVLSMGAFSLAYYYWPGLYNWFWFNFPMHFLGGMPRRPYPDAGWNSGSSYQMGPDESNEPH'
p766
sg123
F0.069970000000000004
sg124
g125
sg33
S'192'
p767
sg127
g1
(g128
g12
(dp768
g130
I4
sg131
g132
sg133
g134
sg135
g132
sg136
I01
sg34
g137
sg138
g134
sg139
I0
sg140
I0
sg141
I0
sg142
g134
sg35
g132
sg143
I0
stRp769
sg145
g146
sg147
F1
sg148
Nsg30
S'CsakeA'
p770
sbasg120
g703
sg123
F0.048980000000000003
sg124
g125
sg33
S'185'
p771
sg127
g1
(g128
g12
(dp772
g130
I8
sg131
g132
sg133
g134
sg135
g132
sg136
I01
sg34
g173
sg138
g134
sg139
I0
sg140
I0
sg141
I0
sg142
g134
sg35
g132
sg143
I0
stRp773
sg145
g146
sg147
F0.98999999999999999
sg148
Nsg30
S'NoName'
p774
sbag1
(g2
g3
NtRp775
(dp776
g6
g1
(g7
g3
NtRp777
(dp778
g10
g1
(g11
g12
(dtRp779
sg14
g1
(g11
g12
(dtRp780
sg16
g1
(g11
g12
(dtRp781
sg18
g1
(g11
g12
(dtRp782
sg20
g1
(g11
g12
(dtRp783
sg22
g1
(g11
g12
(dtRp784
sbsg24
g25
sg26
g27
((lp785
g33
ag32
ag29
ag30
atRp786
sg37
(lp787
g1
(g2
g3
NtRp788
(dp789
g6
g1
(g7
g3
NtRp790
(dp791
g10
g1
(g11
g12
(dtRp792
sg14
g1
(g11
g12
(dtRp793
sg16
g1
(g11
g12
(dtRp794
sg18
g1
(g11
g12
(dtRp795
sg20
g1
(g11
g12
(dtRp796
sg22
g1
(g11
g12
(dtRp797
sbsg24
g25
sg26
g27
((lp798
g33
ag32
ag29
ag30
atRp799
sg37
(lp800
g1
(g2
g3
NtRp801
(dp802
g6
g1
(g7
g3
NtRp803
(dp804
g10
g1
(g11
g12
(dtRp805
sg14
g1
(g11
g12
(dtRp806
sg16
g1
(g11
g12
(dtRp807
sg18
g1
(g11
g12
(dtRp808
sg20
g1
(g11
g12
(dtRp809
sg22
g1
(g11
g12
(dtRp810
sbsg24
S'Mfa'
p811
sg26
g27
((lp812
g29
ag30
aS'sequence'
p813
ag32
ag33
aS'species'
p814
atRp815
sg37
(lp816
sg120
g788
sg121
S'RWLSTKDLYSRAELGNFNHNVHAMFVMPLGFGNPMGDMFARLNNSFWLPPLSLEGAGTGWTVYPPLSHSGPSVDLAFHLTSSLLGAMNFTNMRGPLFWTALLLLSLPVLAGTLLDRNFNTFEGGDPLYHLFWFFGHPEVYIIPGFGSHSTYKKFGMYASMGLGFVWSHHMYVGLDDRAYFTSATMMAPTGIKFSWLATYGGRPMLAFLFLFTGGTGVLNASDAFHDTYYMYHFHYVLSMGAFSLGYYYWPGLYNWFWFNFPMHFLGGMPRRPYPDAGWNSGSSKQLGPDESNEPH'
p817
sg123
F0.29086000000000001
sg124
g125
sg33
S'198'
p818
sg127
g1
(g128
g12
(dp819
g130
I4
sg131
g132
sg133
g134
sg135
g132
sg136
I01
sg34
g137
sg138
g134
sg139
I0
sg140
I0
sg141
I0
sg142
g134
sg35
g132
sg143
I0
stRp820
sg145
g146
sg147
F1
sg148
Nsg30
S'MfariA'
p821
sbag1
(g2
g3
NtRp822
(dp823
g6
g1
(g7
g3
NtRp824
(dp825
g10
g1
(g11
g12
(dtRp826
sg14
g1
(g11
g12
(dtRp827
sg16
g1
(g11
g12
(dtRp828
sg18
g1
(g11
g12
(dtRp829
sg20
g1
(g11
g12
(dtRp830
sg22
g1
(g11
g12
(dtRp831
sbsg24
S'Dha'
p832
sg26
g27
((lp833
g29
ag30
aS'sequence'
p834
ag32
ag33
aS'species'
p835
atRp836
sg37
(lp837
sg120
g788
sg121
S'RWLSTKDLYSRMELGNFNQNVHAMFIMPWGFGNPLGDMFARLNNSFWLPPLSLEGAGTGWTLYPPLSHSGPSVDLAFHLTSSLLGAMNFTNMRGPLFWTALLLLSLPVLAATLLDRNFNTFEGGDPLYHLFWFFGHPEVYIMPGFGSHSTYKKFGMYASIGLGFVWSHHMFVGLDDRAYFTSATMIAPTGIKFSWLATYGGRPMLAFLFLFTGGTGVLNASDAFHDTYYVVHFHYVLSMGAFSLAYYYWPGLYNLFWFNFPMHFLGGMPRRPYPDAGWNSGSSKQLGPDESNDPH'
p838
sg123
F0.11043
sg124
g125
sg33
S'201'
p839
sg127
g1
(g128
g12
(dp840
g130
I4
sg131
g132
sg133
g134
sg135
g132
sg136
I01
sg34
g137
sg138
g134
sg139
I0
sg140
I0
sg141
I0
sg142
g134
sg35
g132
sg143
I0
stRp841
sg145
g146
sg147
F1
sg148
Nsg30
S'DhansA'
p842
sbasg120
g775
sg123
F0.046699999999999998
sg124
g125
sg33
S'194'
p843
sg127
g1
(g128
g12
(dp844
g130
I8
sg131
g132
sg133
g134
sg135
g132
sg136
I01
sg34
g173
sg138
g134
sg139
I0
sg140
I0
sg141
I0
sg142
g134
sg35
g132
sg143
I0
stRp845
sg145
g146
sg147
F0.65000000000000002
sg148
Nsg30
S'NoName'
p846
sbag1
(g2
g3
NtRp847
(dp848
g6
g1
(g7
g3
NtRp849
(dp850
g10
g1
(g11
g12
(dtRp851
sg14
g1
(g11
g12
(dtRp852
sg16
g1
(g11
g12
(dtRp853
sg18
g1
(g11
g12
(dtRp854
sg20
g1
(g11
g12
(dtRp855
sg22
g1
(g11
g12
(dtRp856
sbsg24
g25
sg26
g27
((lp857
g33
ag32
ag29
ag30
atRp858
sg37
(lp859
g1
(g2
g3
NtRp860
(dp861
g6
g1
(g7
g3
NtRp862
(dp863
g10
g1
(g11
g12
(dtRp864
sg14
g1
(g11
g12
(dtRp865
sg16
g1
(g11
g12
(dtRp866
sg18
g1
(g11
g12
(dtRp867
sg20
g1
(g11
g12
(dtRp868
sg22
g1
(g11
g12
(dtRp869
sbsg24
S'Clu'
p870
sg26
g27
((lp871
g29
ag30
aS'sequence'
p872
ag32
ag33
aS'species'
p873
atRp874
sg37
(lp875
sg120
g847
sg121
S'RWLSTKDLYSRLELPDLNQNVHAMFVMPLGFGNPMGDMFARLNNSFWLPPLSLEGAGTGWTVYPPLSHSGPSVDLAFHLTSSLLGAINFTNMRGPLFWTALLLLSLPVLAGTLLDRNFNTFEGGDPLYHLFWFFGHPEVYMMPGFGSHSTYKKFGMYASMGLGFVWSHHMYVGLDDRAYFTSATMMAPTGMKFSWLATYGGRPMLAFLFLFTGGTGVLNASDAFHDTYYVVHFHYVLSMGAFSLGYYYWPGLYNWFWFNFPMHFLGGMPRRPYPDAGWNSGSSRQLGPDESNEPH'
p876
sg123
F0.037310000000000003
sg124
g125
sg33
S'204'
p877
sg127
g1
(g128
g12
(dp878
g130
I4
sg131
g132
sg133
g134
sg135
g132
sg136
I01
sg34
g137
sg138
g134
sg139
I0
sg140
I0
sg141
I0
sg142
g134
sg35
g132
sg143
I0
stRp879
sg145
g146
sg147
F1
sg148
Nsg30
S'ClusiA'
p880
sbag1
(g2
g3
NtRp881
(dp882
g6
g1
(g7
g3
NtRp883
(dp884
g10
g1
(g11
g12
(dtRp885
sg14
g1
(g11
g12
(dtRp886
sg16
g1
(g11
g12
(dtRp887
sg18
g1
(g11
g12
(dtRp888
sg20
g1
(g11
g12
(dtRp889
sg22
g1
(g11
g12
(dtRp890
sbsg24
g25
sg26
g27
((lp891
g33
ag32
ag29
ag30
atRp892
sg37
(lp893
g1
(g2
g3
NtRp894
(dp895
g6
g1
(g7
g3
NtRp896
(dp897
g10
g1
(g11
g12
(dtRp898
sg14
g1
(g11
g12
(dtRp899
sg16
g1
(g11
g12
(dtRp900
sg18
g1
(g11
g12
(dtRp901
sg20
g1
(g11
g12
(dtRp902
sg22
g1
(g11
g12
(dtRp903
sbsg24
S'Mgu'
p904
sg26
g27
((lp905
g29
ag30
aS'sequence'
p906
ag32
ag33
aS'species'
p907
atRp908
sg37
(lp909
sg120
g881
sg121
S'---------------------------------------------------------------------------------------------------------------------------------------------------------------------------------------------------------------------------------------HFHYVLSMGAFSLGYYYWPGLYNWFWFNFPMHFLGGMPRRPYPDAGWNSGSSKQLGPDESNEPH'
p910
sg123
F0.0044999999999999997
sg124
g125
sg33
S'207'
p911
sg127
g1
(g128
g12
(dp912
g130
I4
sg131
g132
sg133
g134
sg135
g132
sg136
I01
sg34
g137
sg138
g134
sg139
I0
sg140
I0
sg141
I0
sg142
g134
sg35
g132
sg143
I0
stRp913
sg145
g146
sg147
F1
sg148
Nsg30
S'MguilB'
p914
sbag1
(g2
g3
NtRp915
(dp916
g6
g1
(g7
g3
NtRp917
(dp918
g10
g1
(g11
g12
(dtRp919
sg14
g1
(g11
g12
(dtRp920
sg16
g1
(g11
g12
(dtRp921
sg18
g1
(g11
g12
(dtRp922
sg20
g1
(g11
g12
(dtRp923
sg22
g1
(g11
g12
(dtRp924
sbsg24
S'Mgu'
p925
sg26
g27
((lp926
g29
ag30
aS'sequence'
p927
ag32
ag33
aS'species'
p928
atRp929
sg37
(lp930
sg120
g881
sg121
S'RWLSTKDLYSRMELGNFNQNVHAMFVMPIGFGNPMGDMFARLNNSFWLPPLSLEGAGTGWTVYPPLSHSGPSVDMAFHLTSSLLGAMNFTNMRGPLFWTALLLLSLPVLAGTLLDRNFNTFEGGDPLYHLFWFFGHPEVYMMPGFGSHSTYKKFGMYASIGLGFVWSHHMYVGLDDRAYFTSATMMAPTGMKFSWLSTYGGRPMLAFLFLFTGGTGVLNASDAFHDTYYVVHFHYVLSMGAFSLGYYYWPGLYNWFWFNFPMHFLGGMPRRPYPDAGWNSGSSKQLGPDESNEPH'
p931
sg123
F0.0020100000000000001
sg124
g125
sg33
S'209'
p932
sg127
g1
(g128
g12
(dp933
g130
I4
sg131
g132
sg133
g134
sg135
g132
sg136
I01
sg34
g137
sg138
g134
sg139
I0
sg140
I0
sg141
I0
sg142
g134
sg35
g132
sg143
I0
stRp934
sg145
g146
sg147
F1
sg148
Nsg30
S'MguilA'
p935
sbasg120
g847
sg123
F0.25231999999999999
sg124
g125
sg33
S'202'
p936
sg127
g1
(g128
g12
(dp937
g130
I8
sg131
g132
sg133
g134
sg135
g132
sg136
I01
sg34
g173
sg138
g134
sg139
I0
sg140
I0
sg141
I0
sg142
g134
sg35
g132
sg143
I0
stRp938
sg145
g146
sg147
F0.98999999999999999
sg148
Nsg30
S'NoName'
p939
sbasg120
g775
sg123
F0.090679999999999997
sg124
g125
sg33
S'197'
p940
sg127
g1
(g128
g12
(dp941
g130
I8
sg131
g132
sg133
g134
sg135
g132
sg136
I01
sg34
g173
sg138
g134
sg139
I0
sg140
I0
sg141
I0
sg142
g134
sg35
g132
sg143
I0
stRp942
sg145
g146
sg147
F0.98999999999999999
sg148
Nsg30
S'NoName'
p943
sbasg120
g703
sg123
F0.032190000000000003
sg124
g125
sg33
S'188'
p944
sg127
g1
(g128
g12
(dp945
g130
I8
sg131
g132
sg133
g134
sg135
g132
sg136
I01
sg34
g173
sg138
g134
sg139
I0
sg140
I0
sg141
I0
sg142
g134
sg35
g132
sg143
I0
stRp946
sg145
g146
sg147
F0.64000000000000001
sg148
Nsg30
S'NoName'
p947
sbasg120
g690
sg123
F0.12181
sg124
g125
sg33
S'184'
p948
sg127
g1
(g128
g12
(dp949
g130
I8
sg131
g132
sg133
g134
sg135
g132
sg136
I01
sg34
g173
sg138
g134
sg139
I0
sg140
I0
sg141
I0
sg142
g134
sg35
g132
sg143
I0
stRp950
sg145
g146
sg147
F0.98999999999999999
sg148
Nsg30
S'NoName'
p951
sbag1
(g2
g3
NtRp952
(dp953
g6
g1
(g7
g3
NtRp954
(dp955
g10
g1
(g11
g12
(dtRp956
sg14
g1
(g11
g12
(dtRp957
sg16
g1
(g11
g12
(dtRp958
sg18
g1
(g11
g12
(dtRp959
sg20
g1
(g11
g12
(dtRp960
sg22
g1
(g11
g12
(dtRp961
sbsg24
g25
sg26
g27
((lp962
g33
ag32
ag29
ag30
atRp963
sg37
(lp964
g1
(g2
g3
NtRp965
(dp966
g6
g1
(g7
g3
NtRp967
(dp968
g10
g1
(g11
g12
(dtRp969
sg14
g1
(g11
g12
(dtRp970
sg16
g1
(g11
g12
(dtRp971
sg18
g1
(g11
g12
(dtRp972
sg20
g1
(g11
g12
(dtRp973
sg22
g1
(g11
g12
(dtRp974
sbsg24
g25
sg26
g27
((lp975
g33
ag32
ag29
ag30
atRp976
sg37
(lp977
g1
(g2
g3
NtRp978
(dp979
g6
g1
(g7
g3
NtRp980
(dp981
g10
g1
(g11
g12
(dtRp982
sg14
g1
(g11
g12
(dtRp983
sg16
g1
(g11
g12
(dtRp984
sg18
g1
(g11
g12
(dtRp985
sg20
g1
(g11
g12
(dtRp986
sg22
g1
(g11
g12
(dtRp987
sbsg24
S'Cbl'
p988
sg26
g27
((lp989
g29
ag30
aS'sequence'
p990
ag32
ag33
aS'species'
p991
atRp992
sg37
(lp993
sg120
g965
sg121
S'RWLSTKDLYSRLELANLNQNVHAMFVMPLGMGNPMGDMFARLNNSFWLPPLSLEGPGTGWTLYAPLSHSGPSVDMAFHLTSSLLGAINFTNMRGPLYWTALLLLSLPVLAATLLDRNFNTFEGGDPLYHLFWFFGHPEVYMIPGFGSHSTYKKFGMYASIGLGFVWSHHMYVGLDDRAYFTSATMIAPTGIKFSWMATYGGRPMLAFLFLFTGGTGVLNASDAFHDTYYVVHFHYVLSMGAFSLGYYYWPGLYNLFWFNFPMHFLGGMPRRPYPDAGWNSGSSYQLGPDESNEPH'
p994
sg123
F0.36785000000000001
sg124
g125
sg33
S'217'
p995
sg127
g1
(g128
g12
(dp996
g130
I4
sg131
g132
sg133
g134
sg135
g132
sg136
I01
sg34
g137
sg138
g134
sg139
I0
sg140
I0
sg141
I0
sg142
g134
sg35
g132
sg143
I0
stRp997
sg145
g146
sg147
F1
sg148
Nsg30
S'CblacA'
p998
sbag1
(g2
g3
NtRp999
(dp1000
g6
g1
(g7
g3
NtRp1001
(dp1002
g10
g1
(g11
g12
(dtRp1003
sg14
g1
(g11
g12
(dtRp1004
sg16
g1
(g11
g12
(dtRp1005
sg18
g1
(g11
g12
(dtRp1006
sg20
g1
(g11
g12
(dtRp1007
sg22
g1
(g11
g12
(dtRp1008
sbsg24
g25
sg26
g27
((lp1009
g33
ag32
ag29
ag30
atRp1010
sg37
(lp1011
g1
(g2
g3
NtRp1012
(dp1013
g6
g1
(g7
g3
NtRp1014
(dp1015
g10
g1
(g11
g12
(dtRp1016
sg14
g1
(g11
g12
(dtRp1017
sg16
g1
(g11
g12
(dtRp1018
sg18
g1
(g11
g12
(dtRp1019
sg20
g1
(g11
g12
(dtRp1020
sg22
g1
(g11
g12
(dtRp1021
sbsg24
g25
sg26
g27
((lp1022
g33
ag32
ag29
ag30
atRp1023
sg37
(lp1024
g1
(g2
g3
NtRp1025
(dp1026
g6
g1
(g7
g3
NtRp1027
(dp1028
g10
g1
(g11
g12
(dtRp1029
sg14
g1
(g11
g12
(dtRp1030
sg16
g1
(g11
g12
(dtRp1031
sg18
g1
(g11
g12
(dtRp1032
sg20
g1
(g11
g12
(dtRp1033
sg22
g1
(g11
g12
(dtRp1034
sbsg24
g25
sg26
g27
((lp1035
g33
ag32
ag29
ag30
atRp1036
sg37
(lp1037
g1
(g2
g3
NtRp1038
(dp1039
g6
g1
(g7
g3
NtRp1040
(dp1041
g10
g1
(g11
g12
(dtRp1042
sg14
g1
(g11
g12
(dtRp1043
sg16
g1
(g11
g12
(dtRp1044
sg18
g1
(g11
g12
(dtRp1045
sg20
g1
(g11
g12
(dtRp1046
sg22
g1
(g11
g12
(dtRp1047
sbsg24
g25
sg26
g27
((lp1048
g33
ag32
ag29
ag30
atRp1049
sg37
(lp1050
g1
(g2
g3
NtRp1051
(dp1052
g6
g1
(g7
g3
NtRp1053
(dp1054
g10
g1
(g11
g12
(dtRp1055
sg14
g1
(g11
g12
(dtRp1056
sg16
g1
(g11
g12
(dtRp1057
sg18
g1
(g11
g12
(dtRp1058
sg20
g1
(g11
g12
(dtRp1059
sg22
g1
(g11
g12
(dtRp1060
sbsg24
S'Lel'
p1061
sg26
g27
((lp1062
g29
ag30
aS'sequence'
p1063
ag32
ag33
aS'species'
p1064
atRp1065
sg37
(lp1066
sg120
g1038
sg121
S'RWLSTKDLYSRLELPGLDQNVHAMFVMPLGFGNPMGDMFARLNNSFWLPPLSLEGAGTGWTVYPPLSHSGPSVDLAFHLTSSLLGAINFTNMRGPLYWTALLLFSLPVLAGTLLDRNFNTFDGGDPLYHLFWFFGHPEVYIIPGFGSHSTYKKFGMYASIGLGFVWSHHMYVGLDDRAYFTSATMIAPTGIKFSWLATYGGRPMLAFLFLFTGGTGVLNASDAFHDTYYTVHFHYVLSMGAFSLGYYYWYGLYNLFWFNFPMHFLGGMPRRPYPDAGWNSGSSYQLGPDESNEPH'
p1067
sg123
F0.18278
sg124
g125
sg33
S'104'
p1068
sg127
g1
(g128
g12
(dp1069
g130
I4
sg131
g132
sg133
g134
sg135
g132
sg136
I01
sg34
g137
sg138
g134
sg139
I0
sg140
I0
sg141
I0
sg142
g134
sg35
g132
sg143
I0
stRp1070
sg145
g146
sg147
F1
sg148
Nsg30
S'LelonA'
p1071
sbag1
(g2
g3
NtRp1072
(dp1073
g6
g1
(g7
g3
NtRp1074
(dp1075
g10
g1
(g11
g12
(dtRp1076
sg14
g1
(g11
g12
(dtRp1077
sg16
g1
(g11
g12
(dtRp1078
sg18
g1
(g11
g12
(dtRp1079
sg20
g1
(g11
g12
(dtRp1080
sg22
g1
(g11
g12
(dtRp1081
sbsg24
S'Cox'
p1082
sg26
g27
((lp1083
g29
ag30
aS'sequence'
p1084
ag32
ag33
aS'species'
p1085
atRp1086
sg37
(lp1087
sg120
g1038
sg121
S'RWLSTKDLYSRLELSGLDQNVHAMFVMPIGFGNPMGDMFARLNNSFWLPPLSLEGPGVGWTVYPPLSHSGPSVDLAFHLTSSLLGAINFTNMRGPLYWTALLLLSLPVLAGTLLDRNFNTFDGGDPLYHLFWFFGHPEVYMIPGFGSHATYKKFGMYASIGLGFVWSHHMYVGLDDRAYFTSATMIAPTGIKFSWLATYGGRPMLAFLFLFTGGTGILNASDAFHDTYYTVHFHYVLSMGAFSLGYYLWYGLYNIFWFNFPMHFLGGMPRRPYPDAGWNSGSSYQLGPDESNEPH'
p1088
sg123
F0.17860000000000001
sg124
g125
sg33
S'107'
p1089
sg127
g1
(g128
g12
(dp1090
g130
I4
sg131
g132
sg133
g134
sg135
g132
sg136
I01
sg34
g137
sg138
g134
sg139
I0
sg140
I0
sg141
I0
sg142
g134
sg35
g132
sg143
I0
stRp1091
sg145
g146
sg147
F1
sg148
Nsg30
S'CoxycA'
p1092
sbasg120
g1025
sg123
F0.041480000000000003
sg124
g125
sg33
S'223'
p1093
sg127
g1
(g128
g12
(dp1094
g130
I8
sg131
g132
sg133
g134
sg135
g132
sg136
I01
sg34
g173
sg138
g134
sg139
I0
sg140
I0
sg141
I0
sg142
g134
sg35
g132
sg143
I0
stRp1095
sg145
g146
sg147
F0.98999999999999999
sg148
Nsg30
S'NoName'
p1096
sbag1
(g2
g3
NtRp1097
(dp1098
g6
g1
(g7
g3
NtRp1099
(dp1100
g10
g1
(g11
g12
(dtRp1101
sg14
g1
(g11
g12
(dtRp1102
sg16
g1
(g11
g12
(dtRp1103
sg18
g1
(g11
g12
(dtRp1104
sg20
g1
(g11
g12
(dtRp1105
sg22
g1
(g11
g12
(dtRp1106
sbsg24
g25
sg26
g27
((lp1107
g33
ag32
ag29
ag30
atRp1108
sg37
(lp1109
g1
(g2
g3
NtRp1110
(dp1111
g6
g1
(g7
g3
NtRp1112
(dp1113
g10
g1
(g11
g12
(dtRp1114
sg14
g1
(g11
g12
(dtRp1115
sg16
g1
(g11
g12
(dtRp1116
sg18
g1
(g11
g12
(dtRp1117
sg20
g1
(g11
g12
(dtRp1118
sg22
g1
(g11
g12
(dtRp1119
sbsg24
g25
sg26
g27
((lp1120
g33
ag32
ag29
ag30
atRp1121
sg37
(lp1122
g1
(g2
g3
NtRp1123
(dp1124
g6
g1
(g7
g3
NtRp1125
(dp1126
g10
g1
(g11
g12
(dtRp1127
sg14
g1
(g11
g12
(dtRp1128
sg16
g1
(g11
g12
(dtRp1129
sg18
g1
(g11
g12
(dtRp1130
sg20
g1
(g11
g12
(dtRp1131
sg22
g1
(g11
g12
(dtRp1132
sbsg24
g25
sg26
g27
((lp1133
g33
ag32
ag29
ag30
atRp1134
sg37
(lp1135
g1
(g2
g3
NtRp1136
(dp1137
g6
g1
(g7
g3
NtRp1138
(dp1139
g10
g1
(g11
g12
(dtRp1140
sg14
g1
(g11
g12
(dtRp1141
sg16
g1
(g11
g12
(dtRp1142
sg18
g1
(g11
g12
(dtRp1143
sg20
g1
(g11
g12
(dtRp1144
sg22
g1
(g11
g12
(dtRp1145
sbsg24
S'Cth'
p1146
sg26
g27
((lp1147
g29
ag30
aS'sequence'
p1148
ag32
ag33
aS'species'
p1149
atRp1150
sg37
(lp1151
sg120
g1123
sg121
S'RWLSTKDLYSRLELPGLNQNVHAMFVMPLGFGNPMGDMFARLNNSFWLPPLSLEGAGTGWTVYPPLSHSGPSVDLAFHLTSSLLGAINFTNMRGPLYWTALLLLSLPVLAGTLLDRNFNTFEGGDPLYHLFWFFGHPEVYIIPGFGSHSTYKKFGMYASIGLGFVWSHHMYVGLDDRAYFTSATMIAPTGIKFSWLATYGGRPMLAFLFLFTGGTGVLNASDAFHDTYYTVHFHYVLSMGAFSLGYYYWYGLYNLFWFNFPMHFLGGMPRRPYPDAGWNSGSSYQLGPDESNEPH'
p1152
sg123
F0.010059999999999999
sg124
g125
sg33
S'114'
p1153
sg127
g1
(g128
g12
(dp1154
g130
I4
sg131
g132
sg133
g134
sg135
g132
sg136
I01
sg34
g137
sg138
g134
sg139
I0
sg140
I0
sg141
I0
sg142
g134
sg35
g132
sg143
I0
stRp1155
sg145
g146
sg147
F1
sg148
Nsg30
S'CtheaA'
p1156
sbag1
(g2
g3
NtRp1157
(dp1158
g6
g1
(g7
g3
NtRp1159
(dp1160
g10
g1
(g11
g12
(dtRp1161
sg14
g1
(g11
g12
(dtRp1162
sg16
g1
(g11
g12
(dtRp1163
sg18
g1
(g11
g12
(dtRp1164
sg20
g1
(g11
g12
(dtRp1165
sg22
g1
(g11
g12
(dtRp1166
sbsg24
g25
sg26
g27
((lp1167
g33
ag32
ag29
ag30
atRp1168
sg37
(lp1169
g1
(g2
g3
NtRp1170
(dp1171
g6
g1
(g7
g3
NtRp1172
(dp1173
g10
g1
(g11
g12
(dtRp1174
sg14
g1
(g11
g12
(dtRp1175
sg16
g1
(g11
g12
(dtRp1176
sg18
g1
(g11
g12
(dtRp1177
sg20
g1
(g11
g12
(dtRp1178
sg22
g1
(g11
g12
(dtRp1179
sbsg24
g25
sg26
g27
((lp1180
g33
ag32
ag29
ag30
atRp1181
sg37
(lp1182
g1
(g2
g3
NtRp1183
(dp1184
g6
g1
(g7
g3
NtRp1185
(dp1186
g10
g1
(g11
g12
(dtRp1187
sg14
g1
(g11
g12
(dtRp1188
sg16
g1
(g11
g12
(dtRp1189
sg18
g1
(g11
g12
(dtRp1190
sg20
g1
(g11
g12
(dtRp1191
sg22
g1
(g11
g12
(dtRp1192
sbsg24
g25
sg26
g27
((lp1193
g33
ag32
ag29
ag30
atRp1194
sg37
(lp1195
g1
(g2
g3
NtRp1196
(dp1197
g6
g1
(g7
g3
NtRp1198
(dp1199
g10
g1
(g11
g12
(dtRp1200
sg14
g1
(g11
g12
(dtRp1201
sg16
g1
(g11
g12
(dtRp1202
sg18
g1
(g11
g12
(dtRp1203
sg20
g1
(g11
g12
(dtRp1204
sg22
g1
(g11
g12
(dtRp1205
sbsg24
S'Cor'
p1206
sg26
g27
((lp1207
g29
ag30
aS'sequence'
p1208
ag32
ag33
aS'species'
p1209
atRp1210
sg37
(lp1211
sg120
g1183
sg121
S'RWLSTKDLYSRLELPGLNQNVHAMFVMPLGFGNPMGDMFARLNNSFWLPPLSLEGAGTGWTVYPPLSHSGPSVDLAFHLTSSLLGAINFTNMRGPLFWTALLLLSLPVLAGTLLDRNFNTFEGGDPLYHLFWFFGHPEVYIIPGFGSHSTYKKFGMYASIGLGFVWSHHMYVGLDDRAYFTSATMIAPTGIKFSWLATYGGRPMLAFLFLFTGGTGVLNASDAFHDTYYTVHFHYVLSMGAFSLGYYYWYGLYNLFWFNFPMHFLGGMPRRPYPDAGWNSGSSYQLGPDESNEPH'
p1212
sg123
F0.00132
sg124
g125
sg33
S'108'
p1213
sg127
g1
(g128
g12
(dp1214
g130
I4
sg131
g132
sg133
g134
sg135
g132
sg136
I01
sg34
g137
sg138
g134
sg139
I0
sg140
I0
sg141
I0
sg142
g134
sg35
g132
sg143
I0
stRp1215
sg145
g146
sg147
F1
sg148
Nsg30
S'CorthC'
p1216
sbag1
(g2
g3
NtRp1217
(dp1218
g6
g1
(g7
g3
NtRp1219
(dp1220
g10
g1
(g11
g12
(dtRp1221
sg14
g1
(g11
g12
(dtRp1222
sg16
g1
(g11
g12
(dtRp1223
sg18
g1
(g11
g12
(dtRp1224
sg20
g1
(g11
g12
(dtRp1225
sg22
g1
(g11
g12
(dtRp1226
sbsg24
S'Cor'
p1227
sg26
g27
((lp1228
g29
ag30
aS'sequence'
p1229
ag32
ag33
aS'species'
p1230
atRp1231
sg37
(lp1232
sg120
g1183
sg121
S'RWLSTKDLYSRLELPGLNQNVHAMFVMPLGFGNPMGDMFARLNNSFWLPPLSLEGAGTGWTVYPPLSHSGPSVDLAFHLTSSLLGAINFTNMRGPLFWTALLLLSLPVLAGTLLDRNFNTFEGGDPLYHLFWFFGHPEVYIIPGFGSHSTYKKFGMYASIGLGFVWSHHMYVGLDDRAYFTSATMIAPTGIKFSWLATYGGRPMLAFLFLFTGGTGVLNASDAFHDTYYTVHFHYVLSMGAFSLGYYYWYGLYNLFWFNFPMHFLGGMPRRPYPDAGWNSGSSYQLGPDESNEPH'
p1233
sg123
F0.00093000000000000005
sg124
g125
sg33
S'124'
p1234
sg127
g1
(g128
g12
(dp1235
g130
I4
sg131
g132
sg133
g134
sg135
g132
sg136
I01
sg34
g137
sg138
g134
sg139
I0
sg140
I0
sg141
I0
sg142
g134
sg35
g132
sg143
I0
stRp1236
sg145
g146
sg147
F1
sg148
Nsg30
S'CorthB'
p1237
sbasg120
g1170
sg123
F0.00052999999999999998
sg124
g125
sg33
S'117'
p1238
sg127
g1
(g128
g12
(dp1239
g130
I8
sg131
g132
sg133
g134
sg135
g132
sg136
I01
sg34
g173
sg138
g134
sg139
I0
sg140
I0
sg141
I0
sg142
g134
sg35
g132
sg143
I0
stRp1240
sg145
g146
sg147
F0.85999999999999999
sg148
Nsg30
S'NoName'
p1241
sbag1
(g2
g3
NtRp1242
(dp1243
g6
g1
(g7
g3
NtRp1244
(dp1245
g10
g1
(g11
g12
(dtRp1246
sg14
g1
(g11
g12
(dtRp1247
sg16
g1
(g11
g12
(dtRp1248
sg18
g1
(g11
g12
(dtRp1249
sg20
g1
(g11
g12
(dtRp1250
sg22
g1
(g11
g12
(dtRp1251
sbsg24
S'Cor'
p1252
sg26
g27
((lp1253
g29
ag30
aS'sequence'
p1254
ag32
ag33
aS'species'
p1255
atRp1256
sg37
(lp1257
sg120
g1170
sg121
S'RWLSTKDLYSRLELPGLNQNVHAMFVMPLGFGNPMGDMFARLNNSFWLPPLSLEGAGTGWTVYPPLSHSGPSVDLAFHLTSSLLGAINFTNMRGPLFWTALLLLSLPVLAGTLLDRNFNTFEGGDPLYHLFWFFGHPEVYIIPGFGSHSTYKKFGMYASIGLGFVWSHHMYVGLDDRAYFTSATMIAPTGIKFSWLATYGGRPMLAFLFLFTGGTGVLNASDAFHDTYYTVHFHYVLSMGAFSLGYYYWYGLYNLFWFNFPMHFLGGMPRRPYPDAGWNSGSSYQLGPDESNEPH'
p1258
sg123
F0.0021099999999999999
sg124
g125
sg33
S'125'
p1259
sg127
g1
(g128
g12
(dp1260
g130
I4
sg131
g132
sg133
g134
sg135
g132
sg136
I01
sg34
g137
sg138
g134
sg139
I0
sg140
I0
sg141
I0
sg142
g134
sg35
g132
sg143
I0
stRp1261
sg145
g146
sg147
F1
sg148
Nsg30
S'CorthA'
p1262
sbasg120
g1157
sg123
F0.0031199999999999999
sg124
g125
sg33
S'116'
p1263
sg127
g1
(g128
g12
(dp1264
g130
I8
sg131
g132
sg133
g134
sg135
g132
sg136
I01
sg34
g173
sg138
g134
sg139
I0
sg140
I0
sg141
I0
sg142
g134
sg35
g132
sg143
I0
stRp1265
sg145
g146
sg147
F0.98999999999999999
sg148
Nsg30
S'NoName'
p1266
sbag1
(g2
g3
NtRp1267
(dp1268
g6
g1
(g7
g3
NtRp1269
(dp1270
g10
g1
(g11
g12
(dtRp1271
sg14
g1
(g11
g12
(dtRp1272
sg16
g1
(g11
g12
(dtRp1273
sg18
g1
(g11
g12
(dtRp1274
sg20
g1
(g11
g12
(dtRp1275
sg22
g1
(g11
g12
(dtRp1276
sbsg24
g25
sg26
g27
((lp1277
g33
ag32
ag29
ag30
atRp1278
sg37
(lp1279
g1
(g2
g3
NtRp1280
(dp1281
g6
g1
(g7
g3
NtRp1282
(dp1283
g10
g1
(g11
g12
(dtRp1284
sg14
g1
(g11
g12
(dtRp1285
sg16
g1
(g11
g12
(dtRp1286
sg18
g1
(g11
g12
(dtRp1287
sg20
g1
(g11
g12
(dtRp1288
sg22
g1
(g11
g12
(dtRp1289
sbsg24
g25
sg26
g27
((lp1290
g33
ag32
ag29
ag30
atRp1291
sg37
(lp1292
g1
(g2
g3
NtRp1293
(dp1294
g6
g1
(g7
g3
NtRp1295
(dp1296
g10
g1
(g11
g12
(dtRp1297
sg14
g1
(g11
g12
(dtRp1298
sg16
g1
(g11
g12
(dtRp1299
sg18
g1
(g11
g12
(dtRp1300
sg20
g1
(g11
g12
(dtRp1301
sg22
g1
(g11
g12
(dtRp1302
sbsg24
S'Cpa'
p1303
sg26
g27
((lp1304
g29
ag30
aS'sequence'
p1305
ag32
ag33
aS'species'
p1306
atRp1307
sg37
(lp1308
sg120
g1280
sg121
S'RWLSTKDLYSRLELPGLNQNVHAMFVMPLGFGNPMGDMFARLNNSFWLPPLSLEGAGTGWTVYPPLSHSGPSVDLAFHLTSSLLGAINFTNMRGPLFWTALLLLSLPVLAGTLLDRNFNTFEGGDPLYHLFWFFGHPEVYIIPGFGSHSTYKKFGMYASIGLGFVWSHHMYVGLDDRAYFTSATMIAPTSIKFSWLATYGGRTALAFIFLFTGGTGVLNSADPFHDSYYVVHFHYVLSMGAFSIGWYLWPGLYNLFWFNFPMHFLGGMPRRNYPDAGWNSGSAYQLGPSGTNEPH'
p1309
sg123
F0.00012999999999999999
sg124
g125
sg33
S'164'
p1310
sg127
g1
(g128
g12
(dp1311
g130
I4
sg131
g132
sg133
g134
sg135
g132
sg136
I01
sg34
g137
sg138
g134
sg139
I0
sg140
I0
sg141
I0
sg142
g134
sg35
g132
sg143
I0
stRp1312
sg145
g146
sg147
F1
sg148
Nsg30
S'CparaD'
p1313
sbag1
(g2
g3
NtRp1314
(dp1315
g6
g1
(g7
g3
NtRp1316
(dp1317
g10
g1
(g11
g12
(dtRp1318
sg14
g1
(g11
g12
(dtRp1319
sg16
g1
(g11
g12
(dtRp1320
sg18
g1
(g11
g12
(dtRp1321
sg20
g1
(g11
g12
(dtRp1322
sg22
g1
(g11
g12
(dtRp1323
sbsg24
S'Cpa'
p1324
sg26
g27
((lp1325
g29
ag30
aS'sequence'
p1326
ag32
ag33
aS'species'
p1327
atRp1328
sg37
(lp1329
sg120
g1280
sg121
S'RWLSTKDLYSRLELPGLNQNVHAMFVMPLGFGNPMGDMFARLNNSFWLPPLSLEGAGTGWTVYPPLSHSGPSVDLAFHLTSSLLGAINFTNMRGPLFWTALLLLSLPVLAGTLLDRNFNTFEGGDPLYHLFWFFGHPEVYIIPGFGSHSTYKKFGMYASIGLGFVWSHHMYVGLDDRAYFTSATMIAPTGIKFSWLATYGGRPMLAFLFLFTGGTGVVNASDAFHDTYYVVHFHYVLSMGAFSLGYYYWYGLYNLFWFNFPMHFLGGMPRRPYPDAGWNSGSSYSLGPDESNEPH'
p1330
sg123
F0.00012999999999999999
sg124
g125
sg33
S'175'
p1331
sg127
g1
(g128
g12
(dp1332
g130
I4
sg131
g132
sg133
g134
sg135
g132
sg136
I01
sg34
g137
sg138
g134
sg139
I0
sg140
I0
sg141
I0
sg142
g134
sg35
g132
sg143
I0
stRp1333
sg145
g146
sg147
F1
sg148
Nsg30
S'CparaB'
p1334
sbasg120
g1267
sg123
F0.00051000000000000004
sg124
g125
sg33
S'128'
p1335
sg127
g1
(g128
g12
(dp1336
g130
I8
sg131
g132
sg133
g134
sg135
g132
sg136
I01
sg34
g173
sg138
g134
sg139
I0
sg140
I0
sg141
I0
sg142
g134
sg35
g132
sg143
I0
stRp1337
sg145
g146
sg147
F0.98999999999999999
sg148
Nsg30
S'NoName'
p1338
sbag1
(g2
g3
NtRp1339
(dp1340
g6
g1
(g7
g3
NtRp1341
(dp1342
g10
g1
(g11
g12
(dtRp1343
sg14
g1
(g11
g12
(dtRp1344
sg16
g1
(g11
g12
(dtRp1345
sg18
g1
(g11
g12
(dtRp1346
sg20
g1
(g11
g12
(dtRp1347
sg22
g1
(g11
g12
(dtRp1348
sbsg24
S'Cpa'
p1349
sg26
g27
((lp1350
g29
ag30
aS'sequence'
p1351
ag32
ag33
aS'species'
p1352
atRp1353
sg37
(lp1354
sg120
g1267
sg121
S'RWLSTKDLYSRLELPGLNQNVHAMFVMPLGFGNPMGDMFARLNNSFWLPPLSLEGAGTGWTVYPPLSHSGPSVDLAFHLTSSLLGAINFTNMRGPLFWTALLLLSLPVLAGTLLDRNFNTFEGGDPLYHLFWFFGHPEVYIIPGFGSHSTYKKFGMYASIGLGFVWSHHMYVGLDDRAYFTSATMIAPTGIKFSWLATYGGRPMLAFLFLFTGGTGVVNASDAFHDTYYVVHFHYVLSMGAFSLGYYYWYGLYNLFWFNFPMHFLGGMPRRPYPDAGWNSGSSYSLGPDESNEPH'
p1355
sg123
F0.00012
sg124
g125
sg33
S'186'
p1356
sg127
g1
(g128
g12
(dp1357
g130
I4
sg131
g132
sg133
g134
sg135
g132
sg136
I01
sg34
g137
sg138
g134
sg139
I0
sg140
I0
sg141
I0
sg142
g134
sg35
g132
sg143
I0
stRp1358
sg145
g146
sg147
F1
sg148
Nsg30
S'CparaC'
p1359
sbasg120
g1157
sg123
F1.0000000000000001e-05
sg124
g125
sg33
S'119'
p1360
sg127
g1
(g128
g12
(dp1361
g130
I8
sg131
g132
sg133
g134
sg135
g132
sg136
I01
sg34
g173
sg138
g134
sg139
I0
sg140
I0
sg141
I0
sg142
g134
sg35
g132
sg143
I0
stRp1362
sg145
g146
sg147
F1
sg148
Nsg30
S'NoName'
p1363
sbasg120
g1123
sg123
F0.0032599999999999999
sg124
g125
sg33
S'113'
p1364
sg127
g1
(g128
g12
(dp1365
g130
I8
sg131
g132
sg133
g134
sg135
g132
sg136
I01
sg34
g173
sg138
g134
sg139
I0
sg140
I0
sg141
I0
sg142
g134
sg35
g132
sg143
I0
stRp1366
sg145
g146
sg147
F0.97999999999999998
sg148
Nsg30
S'NoName'
p1367
sbasg120
g1110
sg123
F1.0000000000000001e-05
sg124
g125
sg33
S'110'
p1368
sg127
g1
(g128
g12
(dp1369
g130
I8
sg131
g132
sg133
g134
sg135
g132
sg136
I01
sg34
g173
sg138
g134
sg139
I0
sg140
I0
sg141
I0
sg142
g134
sg35
g132
sg143
I0
stRp1370
sg145
g146
sg147
F1
sg148
Nsg30
S'NoName'
p1371
sbag1
(g2
g3
NtRp1372
(dp1373
g6
g1
(g7
g3
NtRp1374
(dp1375
g10
g1
(g11
g12
(dtRp1376
sg14
g1
(g11
g12
(dtRp1377
sg16
g1
(g11
g12
(dtRp1378
sg18
g1
(g11
g12
(dtRp1379
sg20
g1
(g11
g12
(dtRp1380
sg22
g1
(g11
g12
(dtRp1381
sbsg24
g25
sg26
g27
((lp1382
g33
ag32
ag29
ag30
atRp1383
sg37
(lp1384
g1
(g2
g3
NtRp1385
(dp1386
g6
g1
(g7
g3
NtRp1387
(dp1388
g10
g1
(g11
g12
(dtRp1389
sg14
g1
(g11
g12
(dtRp1390
sg16
g1
(g11
g12
(dtRp1391
sg18
g1
(g11
g12
(dtRp1392
sg20
g1
(g11
g12
(dtRp1393
sg22
g1
(g11
g12
(dtRp1394
sbsg24
g25
sg26
g27
((lp1395
g33
ag32
ag29
ag30
atRp1396
sg37
(lp1397
g1
(g2
g3
NtRp1398
(dp1399
g6
g1
(g7
g3
NtRp1400
(dp1401
g10
g1
(g11
g12
(dtRp1402
sg14
g1
(g11
g12
(dtRp1403
sg16
g1
(g11
g12
(dtRp1404
sg18
g1
(g11
g12
(dtRp1405
sg20
g1
(g11
g12
(dtRp1406
sg22
g1
(g11
g12
(dtRp1407
sbsg24
g25
sg26
g27
((lp1408
g33
ag32
ag29
ag30
atRp1409
sg37
(lp1410
g1
(g2
g3
NtRp1411
(dp1412
g6
g1
(g7
g3
NtRp1413
(dp1414
g10
g1
(g11
g12
(dtRp1415
sg14
g1
(g11
g12
(dtRp1416
sg16
g1
(g11
g12
(dtRp1417
sg18
g1
(g11
g12
(dtRp1418
sg20
g1
(g11
g12
(dtRp1419
sg22
g1
(g11
g12
(dtRp1420
sbsg24
g25
sg26
g27
((lp1421
g33
ag32
ag29
ag30
atRp1422
sg37
(lp1423
g1
(g2
g3
NtRp1424
(dp1425
g6
g1
(g7
g3
NtRp1426
(dp1427
g10
g1
(g11
g12
(dtRp1428
sg14
g1
(g11
g12
(dtRp1429
sg16
g1
(g11
g12
(dtRp1430
sg18
g1
(g11
g12
(dtRp1431
sg20
g1
(g11
g12
(dtRp1432
sg22
g1
(g11
g12
(dtRp1433
sbsg24
g25
sg26
g27
((lp1434
g33
ag32
ag29
ag30
atRp1435
sg37
(lp1436
g1
(g2
g3
NtRp1437
(dp1438
g6
g1
(g7
g3
NtRp1439
(dp1440
g10
g1
(g11
g12
(dtRp1441
sg14
g1
(g11
g12
(dtRp1442
sg16
g1
(g11
g12
(dtRp1443
sg18
g1
(g11
g12
(dtRp1444
sg20
g1
(g11
g12
(dtRp1445
sg22
g1
(g11
g12
(dtRp1446
sbsg24
S'Cme'
p1447
sg26
g27
((lp1448
g29
ag30
aS'sequence'
p1449
ag32
ag33
aS'species'
p1450
atRp1451
sg37
(lp1452
sg120
g1424
sg121
S'RWLSTKDLYSRLELPGLNQNVHAMFVMPLGFGNPMGDMFARLNNSFWLPPLSLEGAGTGWTVYPPLSHSGPSVDLAFHLTSSLLGAINFTNMRGPLYWTALLLLSLPVLAGTLLDRNFNTFEGGDPLYHLFWFFGHPEVYIIPGFGSHSTYKKFGMYASIGLGFVWSHHMYVGLDDRAYFTSATMIAPTGIKFSWLATYGGRPMLAFLFLFTGGTGVLNASDAFHDTYYVVHFHYVLSMGAFSLGYYYWYGLYNLFWFNFPMHFLGGMPRRPYPDAGWNSGSSYQLGPDESNEPH'
p1453
sg123
F0.00012999999999999999
sg124
g125
sg33
S'147'
p1454
sg127
g1
(g128
g12
(dp1455
g130
I4
sg131
g132
sg133
g134
sg135
g132
sg136
I01
sg34
g137
sg138
g134
sg139
I0
sg140
I0
sg141
I0
sg142
g134
sg35
g132
sg143
I0
stRp1456
sg145
g146
sg147
F1
sg148
Nsg30
S'CmetaF'
p1457
sbag1
(g2
g3
NtRp1458
(dp1459
g6
g1
(g7
g3
NtRp1460
(dp1461
g10
g1
(g11
g12
(dtRp1462
sg14
g1
(g11
g12
(dtRp1463
sg16
g1
(g11
g12
(dtRp1464
sg18
g1
(g11
g12
(dtRp1465
sg20
g1
(g11
g12
(dtRp1466
sg22
g1
(g11
g12
(dtRp1467
sbsg24
S'Cme'
p1468
sg26
g27
((lp1469
g29
ag30
aS'sequence'
p1470
ag32
ag33
aS'species'
p1471
atRp1472
sg37
(lp1473
sg120
g1424
sg121
S'RWLSTKDLYSRLELPGLNQNVHAMFVMPLGFGNPMGDMFARLNNSFWLPPLSLEGAGTGWTVYPPLSHSGPSVDLAFHLTSSLLGAINFTNMRGPLYWTALLLLSLPVLAGTLLDRNFNTFEGGDPLYHLFWFFGHPEVYIIPGFGSHSTYKKFGMYASIGLGFVWSHHMYVGLDDRAYFTSATMIAPTGIKFSWLATYGGRPMLAFLFLFTGGTGVLNASDAFHDTYYVVHFHYVLSMGAFSLGYYYWYGLYNLFWFNFPMHFLGGMPRRPYPDAGWNSGSSYQLGPDESNEPH'
p1474
sg123
F0.00012
sg124
g125
sg33
S'148'
p1475
sg127
g1
(g128
g12
(dp1476
g130
I4
sg131
g132
sg133
g134
sg135
g132
sg136
I01
sg34
g137
sg138
g134
sg139
I0
sg140
I0
sg141
I0
sg142
g134
sg35
g132
sg143
I0
stRp1477
sg145
g146
sg147
F1
sg148
Nsg30
S'CmetaE'
p1478
sbasg120
g1411
sg123
F1.0000000000000001e-05
sg124
g125
sg33
S'144'
p1479
sg127
g1
(g128
g12
(dp1480
g130
I8
sg131
g132
sg133
g134
sg135
g132
sg136
I01
sg34
g173
sg138
g134
sg139
I0
sg140
I0
sg141
I0
sg142
g134
sg35
g132
sg143
I0
stRp1481
sg145
g146
sg147
F1
sg148
Nsg30
S'NoName'
p1482
sbag1
(g2
g3
NtRp1483
(dp1484
g6
g1
(g7
g3
NtRp1485
(dp1486
g10
g1
(g11
g12
(dtRp1487
sg14
g1
(g11
g12
(dtRp1488
sg16
g1
(g11
g12
(dtRp1489
sg18
g1
(g11
g12
(dtRp1490
sg20
g1
(g11
g12
(dtRp1491
sg22
g1
(g11
g12
(dtRp1492
sbsg24
S'Cme'
p1493
sg26
g27
((lp1494
g29
ag30
aS'sequence'
p1495
ag32
ag33
aS'species'
p1496
atRp1497
sg37
(lp1498
sg120
g1411
sg121
S'RWLSTKDLYSRLELPGLNQNVHAMFVMPLGFGNPMGDMFARLNNSFWLPPLSLEGAGTGWTVYPPLSHSGPSVDLAFHLTSSLLGAINFTNMRGPLYWTALLLLSLPVLAGTLLDRNFNTFEGGDPLYHLFWFFGHPEVYIIPGFGSHSTYKKFGMYASIGLGFVWSHHMYVGLDDRAYFTSATMIAPTGIKFSWLATYGGRPMLAFLFLFTGGTGVLNASDAFHDTYYVVHFHYVLSMGAFSLGYYYWYGLYNLFWFNFPMHFLGGMPRRPYPDAGWNSGSSYQLGPDESNEPH'
p1499
sg123
F0.00020000000000000001
sg124
g125
sg33
S'54'
p1500
sg127
g1
(g128
g12
(dp1501
g130
I4
sg131
g132
sg133
g134
sg135
g132
sg136
I01
sg34
g137
sg138
g134
sg139
I0
sg140
I0
sg141
I0
sg142
g134
sg35
g132
sg143
I0
stRp1502
sg145
g146
sg147
F1
sg148
Nsg30
S'CmetaD'
p1503
sbasg120
g1398
sg123
F1.0000000000000001e-05
sg124
g125
sg33
S'141'
p1504
sg127
g1
(g128
g12
(dp1505
g130
I8
sg131
g132
sg133
g134
sg135
g132
sg136
I01
sg34
g173
sg138
g134
sg139
I0
sg140
I0
sg141
I0
sg142
g134
sg35
g132
sg143
I0
stRp1506
sg145
g146
sg147
F1
sg148
Nsg30
S'NoName'
p1507
sbag1
(g2
g3
NtRp1508
(dp1509
g6
g1
(g7
g3
NtRp1510
(dp1511
g10
g1
(g11
g12
(dtRp1512
sg14
g1
(g11
g12
(dtRp1513
sg16
g1
(g11
g12
(dtRp1514
sg18
g1
(g11
g12
(dtRp1515
sg20
g1
(g11
g12
(dtRp1516
sg22
g1
(g11
g12
(dtRp1517
sbsg24
S'Cme'
p1518
sg26
g27
((lp1519
g29
ag30
aS'sequence'
p1520
ag32
ag33
aS'species'
p1521
atRp1522
sg37
(lp1523
sg120
g1398
sg121
S'RWLSTKDLYSRLELPGLNQNVHAMFVMPLGFGNPMGDMFARLNNSFWLPPLSLEGAGTGWTVYPPLSHSGPSVDLAFHLTSSLLGAINFTNMRGPLYWTALLLLSLPVLAGTLLDRNFNTFEGGDPLYHLFWFFGHPEVYIIPGFGSHSTYKKFGMYASIGLGFVWSHHMYVGLDDRAYFTSATMIAPTGIKFSWLATYGGRPMLAFLFLFTGGTGVLNASDAFHDTYYVVHFHYVLSMGAFSLGYYYWYGLYNLFWFNFPMHFLGGMPRRPYPDAGWNSGSSYQLGPDESNEPH'
p1524
sg123
F0.00052999999999999998
sg124
g125
sg33
S'152'
p1525
sg127
g1
(g128
g12
(dp1526
g130
I4
sg131
g132
sg133
g134
sg135
g132
sg136
I01
sg34
g137
sg138
g134
sg139
I0
sg140
I0
sg141
I0
sg142
g134
sg35
g132
sg143
I0
stRp1527
sg145
g146
sg147
F1
sg148
Nsg30
S'CmetaC'
p1528
sbasg120
g1385
sg123
F1.0000000000000001e-05
sg124
g125
sg33
S'140'
p1529
sg127
g1
(g128
g12
(dp1530
g130
I8
sg131
g132
sg133
g134
sg135
g132
sg136
I01
sg34
g173
sg138
g134
sg139
I0
sg140
I0
sg141
I0
sg142
g134
sg35
g132
sg143
I0
stRp1531
sg145
g146
sg147
F1
sg148
Nsg30
S'NoName'
p1532
sbag1
(g2
g3
NtRp1533
(dp1534
g6
g1
(g7
g3
NtRp1535
(dp1536
g10
g1
(g11
g12
(dtRp1537
sg14
g1
(g11
g12
(dtRp1538
sg16
g1
(g11
g12
(dtRp1539
sg18
g1
(g11
g12
(dtRp1540
sg20
g1
(g11
g12
(dtRp1541
sg22
g1
(g11
g12
(dtRp1542
sbsg24
S'Cme'
p1543
sg26
g27
((lp1544
g29
ag30
aS'sequence'
p1545
ag32
ag33
aS'species'
p1546
atRp1547
sg37
(lp1548
sg120
g1385
sg121
S'RWLSTKDLYSRLELPGLNQNVHAMFVMPLGFGNPMGDMFARLNNSFWLPPLSLEGAGTGWTVYPPLSHSGPSVDLAFHLTSSLLGAINFTNMRGPLYWTALLLLSLPVLAGTLLDRNFNTFEGGDPLYHLFWFFGHPEVYIIPGFGSHSTYKKFGMYASIGLGFVWSHHMYVGLDDRAYFTSATMIAPTGIKFSWLATYGGRPMLAFLFLFTGGTGVLNASDAFHDTYYVVHFHYVLSMGAFSLGYYYWYGLYNLFWFNFPMHFLGGMPRRPYPDAGWNSGSSYQLGPDESNEPH'
p1549
sg123
F0.00012
sg124
g125
sg33
S'155'
p1550
sg127
g1
(g128
g12
(dp1551
g130
I4
sg131
g132
sg133
g134
sg135
g132
sg136
I01
sg34
g137
sg138
g134
sg139
I0
sg140
I0
sg141
I0
sg142
g134
sg35
g132
sg143
I0
stRp1552
sg145
g146
sg147
F1
sg148
Nsg30
S'CmetaB'
p1553
sbasg120
g1372
sg123
F1.0000000000000001e-05
sg124
g125
sg33
S'137'
p1554
sg127
g1
(g128
g12
(dp1555
g130
I8
sg131
g132
sg133
g134
sg135
g132
sg136
I01
sg34
g173
sg138
g134
sg139
I0
sg140
I0
sg141
I0
sg142
g134
sg35
g132
sg143
I0
stRp1556
sg145
g146
sg147
F1
sg148
Nsg30
S'NoName'
p1557
sbag1
(g2
g3
NtRp1558
(dp1559
g6
g1
(g7
g3
NtRp1560
(dp1561
g10
g1
(g11
g12
(dtRp1562
sg14
g1
(g11
g12
(dtRp1563
sg16
g1
(g11
g12
(dtRp1564
sg18
g1
(g11
g12
(dtRp1565
sg20
g1
(g11
g12
(dtRp1566
sg22
g1
(g11
g12
(dtRp1567
sbsg24
S'Cme'
p1568
sg26
g27
((lp1569
g29
ag30
aS'sequence'
p1570
ag32
ag33
aS'species'
p1571
atRp1572
sg37
(lp1573
sg120
g1372
sg121
S'RWLSTKDLYSRLELPGLNQNVHAMFVMPLGFGNPMGDMFARLNNSFWLPPLSLEGAGTGWTVYPPLSHSGPSVDLAFHLTSSLLGAINFTNMRGPLYWTALLLLSLPVLAGTLLDRNFNTFEGGDPLYHLFWFFGHPEVYIIPGFGSHSTYKKFGMYASIGLGFVWSHHMYVGLDDRAYFTSATMIAPTGIKFSWLATYGGRPMLAFLFLFTGGTGVLNASDAFHDTYYVVHFHYVLSMGAFSLGYYYWYGLYNLFWFNFPMHFLGGMPRRPYPDAGWNSGSSYQLGPDESNEPH'
p1574
sg123
F0.00012999999999999999
sg124
g125
sg33
S'85'
p1575
sg127
g1
(g128
g12
(dp1576
g130
I4
sg131
g132
sg133
g134
sg135
g132
sg136
I01
sg34
g137
sg138
g134
sg139
I0
sg140
I0
sg141
I0
sg142
g134
sg35
g132
sg143
I0
stRp1577
sg145
g146
sg147
F1
sg148
Nsg30
S'CmetaA'
p1578
sbasg120
g1110
sg123
F0.020930000000000001
sg124
g125
sg33
S'130'
p1579
sg127
g1
(g128
g12
(dp1580
g130
I8
sg131
g132
sg133
g134
sg135
g132
sg136
I01
sg34
g173
sg138
g134
sg139
I0
sg140
I0
sg141
I0
sg142
g134
sg35
g132
sg143
I0
stRp1581
sg145
g146
sg147
F0.98999999999999999
sg148
Nsg30
S'NoName'
p1582
sbasg120
g1097
sg123
F0.045289999999999997
sg124
g125
sg33
S'109'
p1583
sg127
g1
(g128
g12
(dp1584
g130
I8
sg131
g132
sg133
g134
sg135
g132
sg136
I01
sg34
g173
sg138
g134
sg139
I0
sg140
I0
sg141
I0
sg142
g134
sg35
g132
sg143
I0
stRp1585
sg145
g146
sg147
F0.98999999999999999
sg148
Nsg30
S'NoName'
p1586
sbag1
(g2
g3
NtRp1587
(dp1588
g6
g1
(g7
g3
NtRp1589
(dp1590
g10
g1
(g11
g12
(dtRp1591
sg14
g1
(g11
g12
(dtRp1592
sg16
g1
(g11
g12
(dtRp1593
sg18
g1
(g11
g12
(dtRp1594
sg20
g1
(g11
g12
(dtRp1595
sg22
g1
(g11
g12
(dtRp1596
sbsg24
S'Cji'
p1597
sg26
g27
((lp1598
g29
ag30
aS'sequence'
p1599
ag32
ag33
aS'species'
p1600
atRp1601
sg37
(lp1602
sg120
g1097
sg121
S'RWLSTKDLYSRLELPGLNQNVHAMFVMPLGFGNPMGDMFARLNNSFWLPPLSLEGAGTGWTVYPPLSHSGPSVDLAFHLTSSLLGAINFTNMRGPMFWTALLLLSLPVLAGTLLDRNFNTFDGGDPLYHLFWFFGHPEVYIIPGFGSHSTYKKFGMYASIGLGFVWSHHMYVGLDDRAYFTSATMIAPTGIKFSWLATYGGRPMLAFLFLFTGGTGVLNASDAFHDTYYTVHFHYVLSMGAFSLGYYYWYGLYNLFWFNFPMHFLGGMPRRPYPDAGWNSGSSYQLGPDESNEPH'
p1603
sg123
F0.013140000000000001
sg124
g125
sg33
S'158'
p1604
sg127
g1
(g128
g12
(dp1605
g130
I4
sg131
g132
sg133
g134
sg135
g132
sg136
I01
sg34
g137
sg138
g134
sg139
I0
sg140
I0
sg141
I0
sg142
g134
sg35
g132
sg143
I0
stRp1606
sg145
g146
sg147
F1
sg148
Nsg30
S'CjiufA'
p1607
sbasg120
g1025
sg123
F0.044909999999999999
sg124
g125
sg33
S'102'
p1608
sg127
g1
(g128
g12
(dp1609
g130
I8
sg131
g132
sg133
g134
sg135
g132
sg136
I01
sg34
g173
sg138
g134
sg139
I0
sg140
I0
sg141
I0
sg142
g134
sg35
g132
sg143
I0
stRp1610
sg145
g146
sg147
F0.98999999999999999
sg148
Nsg30
S'NoName'
p1611
sbasg120
g1012
sg123
F0.082199999999999995
sg124
g125
sg33
S'221'
p1612
sg127
g1
(g128
g12
(dp1613
g130
I8
sg131
g132
sg133
g134
sg135
g132
sg136
I01
sg34
g173
sg138
g134
sg139
I0
sg140
I0
sg141
I0
sg142
g134
sg35
g132
sg143
I0
stRp1614
sg145
g146
sg147
F0.98999999999999999
sg148
Nsg30
S'NoName'
p1615
sbag1
(g2
g3
NtRp1616
(dp1617
g6
g1
(g7
g3
NtRp1618
(dp1619
g10
g1
(g11
g12
(dtRp1620
sg14
g1
(g11
g12
(dtRp1621
sg16
g1
(g11
g12
(dtRp1622
sg18
g1
(g11
g12
(dtRp1623
sg20
g1
(g11
g12
(dtRp1624
sg22
g1
(g11
g12
(dtRp1625
sbsg24
g25
sg26
g27
((lp1626
g33
ag32
ag29
ag30
atRp1627
sg37
(lp1628
g1
(g2
g3
NtRp1629
(dp1630
g6
g1
(g7
g3
NtRp1631
(dp1632
g10
g1
(g11
g12
(dtRp1633
sg14
g1
(g11
g12
(dtRp1634
sg16
g1
(g11
g12
(dtRp1635
sg18
g1
(g11
g12
(dtRp1636
sg20
g1
(g11
g12
(dtRp1637
sg22
g1
(g11
g12
(dtRp1638
sbsg24
g25
sg26
g27
((lp1639
g33
ag32
ag29
ag30
atRp1640
sg37
(lp1641
g1
(g2
g3
NtRp1642
(dp1643
g6
g1
(g7
g3
NtRp1644
(dp1645
g10
g1
(g11
g12
(dtRp1646
sg14
g1
(g11
g12
(dtRp1647
sg16
g1
(g11
g12
(dtRp1648
sg18
g1
(g11
g12
(dtRp1649
sg20
g1
(g11
g12
(dtRp1650
sg22
g1
(g11
g12
(dtRp1651
sbsg24
S'Cco'
p1652
sg26
g27
((lp1653
g29
ag30
aS'sequence'
p1654
ag32
ag33
aS'species'
p1655
atRp1656
sg37
(lp1657
sg120
g1629
sg121
S'RWLSTKDLYSRMELPGLNQNVHAMFVMPLGFGNPMGDMFARLNNSFWLPPLSLEGAGTGWTLYAPLSHSGPSVDLAFHLTSSLLGAINFTNMRGPLFWTALLLLSLPVLAATLLDRNFNTFEGGDPLYHLFFVLMHPEVYIIPGFGSHSTYKKFGMYASMGLGFVWSHHMYVGLDDRAYFTSATMIAPTGIKFSWLATYGGRPMLAFLFLFTGGTGVLNASDAFHDTYYIKHFHYVLSMGAFSLGYYYWYGLYNMFWFNFPMHFLGGMPRRPYPDAGWNSGSSYQLGPDESNEPH'
p1658
sg123
F0.057970000000000001
sg124
g125
sg33
S'115'
p1659
sg127
g1
(g128
g12
(dp1660
g130
I4
sg131
g132
sg133
g134
sg135
g132
sg136
I01
sg34
g137
sg138
g134
sg139
I0
sg140
I0
sg141
I0
sg142
g134
sg35
g132
sg143
I0
stRp1661
sg145
g146
sg147
F1
sg148
Nsg30
S'CcoryA'
p1662
sbag1
(g2
g3
NtRp1663
(dp1664
g6
g1
(g7
g3
NtRp1665
(dp1666
g10
g1
(g11
g12
(dtRp1667
sg14
g1
(g11
g12
(dtRp1668
sg16
g1
(g11
g12
(dtRp1669
sg18
g1
(g11
g12
(dtRp1670
sg20
g1
(g11
g12
(dtRp1671
sg22
g1
(g11
g12
(dtRp1672
sbsg24
S'Cch'
p1673
sg26
g27
((lp1674
g29
ag30
aS'sequence'
p1675
ag32
ag33
aS'species'
p1676
atRp1677
sg37
(lp1678
sg120
g1629
sg121
S'RWLSTKDLYSRMELPSLNQNVHAMFVMPLGFGNPMGDMFARLNNSFWLPPLSLEGAGTGWTLYAPLSHSGPSVDLAFHLTSSLLGAINFTNMRGPLFWTALLLLSLPVLAATLLDRNFNTFEGGDPLYHLFWFYMYKDYYIIPGFGSHSTYKKFGMYASIGLGFVWSHHMFVGLDDRAYFTSATMIAPTGIKFSWLATYGGRPMLAFLFLFTGGTGVLNASDAFHDTYYVVHFHYVLSMGAFSLGYYYWYGLYNLFWFNFPMHFLGGMPRRPYPDAGWNSGSSYQLGPDESNEPH'
p1679
sg123
F0.052440000000000001
sg124
g125
sg33
S'127'
p1680
sg127
g1
(g128
g12
(dp1681
g130
I4
sg131
g132
sg133
g134
sg135
g132
sg136
I01
sg34
g137
sg138
g134
sg139
I0
sg140
I0
sg141
I0
sg142
g134
sg35
g132
sg143
I0
stRp1682
sg145
g146
sg147
F1
sg148
Nsg30
S'CchauA'
p1683
sbasg120
g1616
sg123
F0.16861999999999999
sg124
g125
sg33
S'97'
p1684
sg127
g1
(g128
g12
(dp1685
g130
I8
sg131
g132
sg133
g134
sg135
g132
sg136
I01
sg34
g173
sg138
g134
sg139
I0
sg140
I0
sg141
I0
sg142
g134
sg35
g132
sg143
I0
stRp1686
sg145
g146
sg147
F0.98999999999999999
sg148
Nsg30
S'NoName'
p1687
sbag1
(g2
g3
NtRp1688
(dp1689
g6
g1
(g7
g3
NtRp1690
(dp1691
g10
g1
(g11
g12
(dtRp1692
sg14
g1
(g11
g12
(dtRp1693
sg16
g1
(g11
g12
(dtRp1694
sg18
g1
(g11
g12
(dtRp1695
sg20
g1
(g11
g12
(dtRp1696
sg22
g1
(g11
g12
(dtRp1697
sbsg24
S'Cbo'
p1698
sg26
g27
((lp1699
g29
ag30
aS'sequence'
p1700
ag32
ag33
aS'species'
p1701
atRp1702
sg37
(lp1703
sg120
g1616
sg121
S'RWLSTKDLYSRMELPGLNQNVHAMFVMPLGFGNPMGDMFARLNNSFWLPPLSLEGAGTGWTVYPPLSHSGPSVDLAFHLTSSLLGAINFTNMRGPLFWTALLLLSLPVLAATLLDRNFNTFEGGDPLYHLFWFFGHPEVYIIPGFGSHSTYKKFGMYASIGLGFVWSHHMYVGLDDRAYFTSATMIAPTGIKFSWLATYGGRPMLAFLFLFTGGTGVLNASDAFHDTYYVVHFHYVLSMGAFSLAYYYWYGLYNLFWFNFPMHFLGGMPRRPYPDAGWNSGSSYQLGPDESNEPH'
p1704
sg123
F0.20199
sg124
g125
sg33
S'138'
p1705
sg127
g1
(g128
g12
(dp1706
g130
I4
sg131
g132
sg133
g134
sg135
g132
sg136
I01
sg34
g137
sg138
g134
sg139
I0
sg140
I0
sg141
I0
sg142
g134
sg35
g132
sg143
I0
stRp1707
sg145
g146
sg147
F1
sg148
Nsg30
S'CbohiA'
p1708
sbasg120
g1012
sg123
F0.14915999999999999
sg124
g125
sg33
S'19'
p1709
sg127
g1
(g128
g12
(dp1710
g130
I8
sg131
g132
sg133
g134
sg135
g132
sg136
I01
sg34
g173
sg138
g134
sg139
I0
sg140
I0
sg141
I0
sg142
g134
sg35
g132
sg143
I0
stRp1711
sg145
g146
sg147
F0.98999999999999999
sg148
Nsg30
S'NoName'
p1712
sbasg120
g999
sg123
F0.036799999999999999
sg124
g125
sg33
S'218'
p1713
sg127
g1
(g128
g12
(dp1714
g130
I8
sg131
g132
sg133
g134
sg135
g132
sg136
I01
sg34
g173
sg138
g134
sg139
I0
sg140
I0
sg141
I0
sg142
g134
sg35
g132
sg143
I0
stRp1715
sg145
g146
sg147
F0.98999999999999999
sg148
Nsg30
S'NoName'
p1716
sbag1
(g2
g3
NtRp1717
(dp1718
g6
g1
(g7
g3
NtRp1719
(dp1720
g10
g1
(g11
g12
(dtRp1721
sg14
g1
(g11
g12
(dtRp1722
sg16
g1
(g11
g12
(dtRp1723
sg18
g1
(g11
g12
(dtRp1724
sg20
g1
(g11
g12
(dtRp1725
sg22
g1
(g11
g12
(dtRp1726
sbsg24
g25
sg26
g27
((lp1727
g33
ag32
ag29
ag30
atRp1728
sg37
(lp1729
g1
(g2
g3
NtRp1730
(dp1731
g6
g1
(g7
g3
NtRp1732
(dp1733
g10
g1
(g11
g12
(dtRp1734
sg14
g1
(g11
g12
(dtRp1735
sg16
g1
(g11
g12
(dtRp1736
sg18
g1
(g11
g12
(dtRp1737
sg20
g1
(g11
g12
(dtRp1738
sg22
g1
(g11
g12
(dtRp1739
sbsg24
g25
sg26
g27
((lp1740
g33
ag32
ag29
ag30
atRp1741
sg37
(lp1742
g1
(g2
g3
NtRp1743
(dp1744
g6
g1
(g7
g3
NtRp1745
(dp1746
g10
g1
(g11
g12
(dtRp1747
sg14
g1
(g11
g12
(dtRp1748
sg16
g1
(g11
g12
(dtRp1749
sg18
g1
(g11
g12
(dtRp1750
sg20
g1
(g11
g12
(dtRp1751
sg22
g1
(g11
g12
(dtRp1752
sbsg24
S'Cma'
p1753
sg26
g27
((lp1754
g29
ag30
aS'sequence'
p1755
ag32
ag33
aS'species'
p1756
atRp1757
sg37
(lp1758
sg120
g1730
sg121
S'RWLSTKDLYSRLELPGLSQNVHAMFVMPLGFGNPLGDMFARLNNSFWLPPLSLEGAGTGWTVYPPLSHSGPSVDLAFHLTSSLLGAINFTNMRGPLYWTALLLLSLPVLAGTLLDRNFNTFEGGDPLYHLFWFFGHPEVYMIPGFGSHSTYKKFGMYASMGLGFVWSHHMYVGLDDRAYFTSATMIAPTGIKFSWLATYGGRPMLAFLFLFTGGTGVLNASDAFHDTYYVVHFHYVLSMGAFSLGYYYWSGLYNLYWFNFPMHFLGGMPRRPYPDAGWNSGSSYQLGPDESNEPH'
p1759
sg123
F0.24277000000000001
sg124
g125
sg33
S'171'
p1760
sg127
g1
(g128
g12
(dp1761
g130
I4
sg131
g132
sg133
g134
sg135
g132
sg136
I01
sg34
g137
sg138
g134
sg139
I0
sg140
I0
sg141
I0
sg142
g134
sg35
g132
sg143
I0
stRp1762
sg145
g146
sg147
F1
sg148
Nsg30
S'CmaltA'
p1763
sbag1
(g2
g3
NtRp1764
(dp1765
g6
g1
(g7
g3
NtRp1766
(dp1767
g10
g1
(g11
g12
(dtRp1768
sg14
g1
(g11
g12
(dtRp1769
sg16
g1
(g11
g12
(dtRp1770
sg18
g1
(g11
g12
(dtRp1771
sg20
g1
(g11
g12
(dtRp1772
sg22
g1
(g11
g12
(dtRp1773
sbsg24
g25
sg26
g27
((lp1774
g33
ag32
ag29
ag30
atRp1775
sg37
(lp1776
g1
(g2
g3
NtRp1777
(dp1778
g6
g1
(g7
g3
NtRp1779
(dp1780
g10
g1
(g11
g12
(dtRp1781
sg14
g1
(g11
g12
(dtRp1782
sg16
g1
(g11
g12
(dtRp1783
sg18
g1
(g11
g12
(dtRp1784
sg20
g1
(g11
g12
(dtRp1785
sg22
g1
(g11
g12
(dtRp1786
sbsg24
g25
sg26
g27
((lp1787
g33
ag32
ag29
ag30
atRp1788
sg37
(lp1789
g1
(g2
g3
NtRp1790
(dp1791
g6
g1
(g7
g3
NtRp1792
(dp1793
g10
g1
(g11
g12
(dtRp1794
sg14
g1
(g11
g12
(dtRp1795
sg16
g1
(g11
g12
(dtRp1796
sg18
g1
(g11
g12
(dtRp1797
sg20
g1
(g11
g12
(dtRp1798
sg22
g1
(g11
g12
(dtRp1799
sbsg24
g25
sg26
g27
((lp1800
g33
ag32
ag29
ag30
atRp1801
sg37
(lp1802
g1
(g2
g3
NtRp1803
(dp1804
g6
g1
(g7
g3
NtRp1805
(dp1806
g10
g1
(g11
g12
(dtRp1807
sg14
g1
(g11
g12
(dtRp1808
sg16
g1
(g11
g12
(dtRp1809
sg18
g1
(g11
g12
(dtRp1810
sg20
g1
(g11
g12
(dtRp1811
sg22
g1
(g11
g12
(dtRp1812
sbsg24
g25
sg26
g27
((lp1813
g33
ag32
ag29
ag30
atRp1814
sg37
(lp1815
g1
(g2
g3
NtRp1816
(dp1817
g6
g1
(g7
g3
NtRp1818
(dp1819
g10
g1
(g11
g12
(dtRp1820
sg14
g1
(g11
g12
(dtRp1821
sg16
g1
(g11
g12
(dtRp1822
sg18
g1
(g11
g12
(dtRp1823
sg20
g1
(g11
g12
(dtRp1824
sg22
g1
(g11
g12
(dtRp1825
sbsg24
S'Ctr'
p1826
sg26
g27
((lp1827
g29
ag30
aS'sequence'
p1828
ag32
ag33
aS'species'
p1829
atRp1830
sg37
(lp1831
sg120
g1803
sg121
S'RWLSTKDLYSRLELPGLNQNVHAMFVMPLGFGNPMGDMFARLNNSFWLPPLSLEGAGTGWTVYPPLSHSGPSVDLAFHLTSSLLGAINFTNMRGPLFWTALLLLSLPVLAGTLLDRNFNTFEGGDPLYHLFWFFGHPEVYIIPGFGSHSTYKKFGMYASIGLGFVWSHHMYVGLDDRAYFTSATMIAPTGIKFSWLATYGGRPMLAFLFLFTGGTGVLNASDAFHDSYYVVHFHYVLSMGAFSLGYYYWPGLYNLYWFNFPMHFLGGMPRRPYPDAGWNSGSSYQLGPDEANEPH'
p1832
sg123
F0.00064000000000000005
sg124
g125
sg33
S'5'
sg127
g1
(g128
g12
(dp1833
g130
I4
sg131
g132
sg133
g134
sg135
g132
sg136
I01
sg34
g137
sg138
g134
sg139
I0
sg140
I0
sg141
I0
sg142
g134
sg35
g132
sg143
I0
stRp1834
sg145
g146
sg147
F1
sg148
Nsg30
S'CtropB'
p1835
sbag1
(g2
g3
NtRp1836
(dp1837
g6
g1
(g7
g3
NtRp1838
(dp1839
g10
g1
(g11
g12
(dtRp1840
sg14
g1
(g11
g12
(dtRp1841
sg16
g1
(g11
g12
(dtRp1842
sg18
g1
(g11
g12
(dtRp1843
sg20
g1
(g11
g12
(dtRp1844
sg22
g1
(g11
g12
(dtRp1845
sbsg24
S'Ctr'
p1846
sg26
g27
((lp1847
g29
ag30
aS'sequence'
p1848
ag32
ag33
aS'species'
p1849
atRp1850
sg37
(lp1851
sg120
g1803
sg121
S'RWLSTKDLYSRLELPGLNQNVHAMFVMPLGFGNPMGDMFARLNNSFWLPPLSLEGAGTGWTVYPPLSHSGPSVDLAFHLTSSLLGAINFTNMRGPLFWTALLLLSLPVLAGTLLDRNFNTFEGGDPLYHLFWFFGHPEVYIIPGFGSHSTYKKFGMYASIGLGFVWSHHMYVGLDDRAYFTSATMIAPTGIKFSWLATYGGRPMLAFLFLFTGGTGVLNASDAFHDSYYVVHFHYVLSMGAFSLGYYYWPGLYNLYWFNFPMHFLGGMPRRPYPDAGWNSGSSYQLGPDEANEPH'
p1852
sg123
F0.00040000000000000002
sg124
g125
sg33
S'16'
p1853
sg127
g1
(g128
g12
(dp1854
g130
I4
sg131
g132
sg133
g134
sg135
g132
sg136
I01
sg34
g137
sg138
g134
sg139
I0
sg140
I0
sg141
I0
sg142
g134
sg35
g132
sg143
I0
stRp1855
sg145
g146
sg147
F1
sg148
Nsg30
S'CtropA'
p1856
sbasg120
g1790
sg123
F0.032030000000000003
sg124
g125
sg33
S'206'
p1857
sg127
g1
(g128
g12
(dp1858
g130
I8
sg131
g132
sg133
g134
sg135
g132
sg136
I01
sg34
g173
sg138
g134
sg139
I0
sg140
I0
sg141
I0
sg142
g134
sg35
g132
sg143
I0
stRp1859
sg145
g146
sg147
F0.98999999999999999
sg148
Nsg30
S'NoName'
p1860
sbag1
(g2
g3
NtRp1861
(dp1862
g6
g1
(g7
g3
NtRp1863
(dp1864
g10
g1
(g11
g12
(dtRp1865
sg14
g1
(g11
g12
(dtRp1866
sg16
g1
(g11
g12
(dtRp1867
sg18
g1
(g11
g12
(dtRp1868
sg20
g1
(g11
g12
(dtRp1869
sg22
g1
(g11
g12
(dtRp1870
sbsg24
S'Cso'
p1871
sg26
g27
((lp1872
g29
ag30
aS'sequence'
p1873
ag32
ag33
aS'species'
p1874
atRp1875
sg37
(lp1876
sg120
g1790
sg121
S'RWLSTKDLYSRLELPGLNQNVHAMFVMPLGFGNPMGDMFARLNNSFWLPPLSLEGAGTGWTVYPPLSHSGPSVDLAFHLTSSLLGAMNFTNMRGPLFWTALLLLSLPVLAGTLLDRNFNTFEGGDPLYHLFWFFGHPEVYIIPGFGSHSTYKKFGMYASIGLGFVWSHHMYVGLDDRAYFTSATMIAPTGIKFSWLATYGGRPMLAFLFLFTGGTGVLNASDAFHDTYYVVHFHYVLSMGAFSLGYYYWPGLYNLYWFNFPMHFLGGMPRRPYPDAGWNSGSSYQLGPDEANEPH'
p1877
sg123
F0.033649999999999999
sg124
g125
sg33
S'27'
p1878
sg127
g1
(g128
g12
(dp1879
g130
I4
sg131
g132
sg133
g134
sg135
g132
sg136
I01
sg34
g137
sg138
g134
sg139
I0
sg140
I0
sg141
I0
sg142
g134
sg35
g132
sg143
I0
stRp1880
sg145
g146
sg147
F1
sg148
Nsg30
S'CsojaA'
p1881
sbasg120
g1777
sg123
F0.019990000000000001
sg124
g125
sg33
S'195'
p1882
sg127
g1
(g128
g12
(dp1883
g130
I8
sg131
g132
sg133
g134
sg135
g132
sg136
I01
sg34
g173
sg138
g134
sg139
I0
sg140
I0
sg141
I0
sg142
g134
sg35
g132
sg143
I0
stRp1884
sg145
g146
sg147
F0.98999999999999999
sg148
Nsg30
S'NoName'
p1885
sbag1
(g2
g3
NtRp1886
(dp1887
g6
g1
(g7
g3
NtRp1888
(dp1889
g10
g1
(g11
g12
(dtRp1890
sg14
g1
(g11
g12
(dtRp1891
sg16
g1
(g11
g12
(dtRp1892
sg18
g1
(g11
g12
(dtRp1893
sg20
g1
(g11
g12
(dtRp1894
sg22
g1
(g11
g12
(dtRp1895
sbsg24
g25
sg26
g27
((lp1896
g33
ag32
ag29
ag30
atRp1897
sg37
(lp1898
g1
(g2
g3
NtRp1899
(dp1900
g6
g1
(g7
g3
NtRp1901
(dp1902
g10
g1
(g11
g12
(dtRp1903
sg14
g1
(g11
g12
(dtRp1904
sg16
g1
(g11
g12
(dtRp1905
sg18
g1
(g11
g12
(dtRp1906
sg20
g1
(g11
g12
(dtRp1907
sg22
g1
(g11
g12
(dtRp1908
sbsg24
S'Cte'
p1909
sg26
g27
((lp1910
g29
ag30
aS'sequence'
p1911
ag32
ag33
aS'species'
p1912
atRp1913
sg37
(lp1914
sg120
g1886
sg121
S'RWLSTKDLYSRLELPGLNQNVHAMFVMPLGFGNPMGDMFARLNNSFWLPPLSLEGAGTGWTVYPPLSHSGPSVDMAFHLTSSLLGAINFTNMRGPLFWTALLLLSLPVLAGTLLDRNFNTFEGGDPLYHLFWFFGHPEVYIIPGFGSHSTYKKFGMYASIGLGFVWSHHMFVGLDDRAYFTSATMMAPTGIKFSWLATYGGRPMLAFLFLFTGGTGVLNASDSMHDTYYVVHFHYVLSMGAFSLGYYYWPGLYNLYWFNFPMHFLGGMPRRPYPDAGWNSGSSLQLGPDESNEPH'
p1915
sg123
F0.084209999999999993
sg124
g125
sg33
S'51'
p1916
sg127
g1
(g128
g12
(dp1917
g130
I4
sg131
g132
sg133
g134
sg135
g132
sg136
I01
sg34
g137
sg138
g134
sg139
I0
sg140
I0
sg141
I0
sg142
g134
sg35
g132
sg143
I0
stRp1918
sg145
g146
sg147
F1
sg148
Nsg30
S'CtetrA'
p1919
sbag1
(g2
g3
NtRp1920
(dp1921
g6
g1
(g7
g3
NtRp1922
(dp1923
g10
g1
(g11
g12
(dtRp1924
sg14
g1
(g11
g12
(dtRp1925
sg16
g1
(g11
g12
(dtRp1926
sg18
g1
(g11
g12
(dtRp1927
sg20
g1
(g11
g12
(dtRp1928
sg22
g1
(g11
g12
(dtRp1929
sbsg24
g25
sg26
g27
((lp1930
g33
ag32
ag29
ag30
atRp1931
sg37
(lp1932
g1
(g2
g3
NtRp1933
(dp1934
g6
g1
(g7
g3
NtRp1935
(dp1936
g10
g1
(g11
g12
(dtRp1937
sg14
g1
(g11
g12
(dtRp1938
sg16
g1
(g11
g12
(dtRp1939
sg18
g1
(g11
g12
(dtRp1940
sg20
g1
(g11
g12
(dtRp1941
sg22
g1
(g11
g12
(dtRp1942
sbsg24
g25
sg26
g27
((lp1943
g33
ag32
ag29
ag30
atRp1944
sg37
(lp1945
g1
(g2
g3
NtRp1946
(dp1947
g6
g1
(g7
g3
NtRp1948
(dp1949
g10
g1
(g11
g12
(dtRp1950
sg14
g1
(g11
g12
(dtRp1951
sg16
g1
(g11
g12
(dtRp1952
sg18
g1
(g11
g12
(dtRp1953
sg20
g1
(g11
g12
(dtRp1954
sg22
g1
(g11
g12
(dtRp1955
sbsg24
S'Cvi'
p1956
sg26
g27
((lp1957
g29
ag30
aS'sequence'
p1958
ag32
ag33
aS'species'
p1959
atRp1960
sg37
(lp1961
sg120
g1933
sg121
S'RWFSTKDLYSRLELPGLNQNVHAMFVMPLGFGNPMGDMFARLNNSFWLPPLSLEGAGTGWTVYPPLSHSGPSVDLAFHLTSSLLGAINFTNMRGPLFWTALLLLSLPVLAGTLLDRNFNTFDGGDPLYHLFWFFGHPEVYMIPGFGSHSTYKKFGMYASIGLGFVWSHHMYVGLDDRAYFTSATMIAPTGIKFSWLSTYGGRPTLAFLFLFTGGTGVLNASDSMHDTYYVVHFHYVLSMGAFSLGYYYWPGLYNLYWFNFPMHFLGGMPRRPYPDSGWNSGSSFQLGPDESNEPH'
p1962
sg123
F0.03977
sg124
g125
sg33
S'82'
p1963
sg127
g1
(g128
g12
(dp1964
g130
I4
sg131
g132
sg133
g134
sg135
g132
sg136
I01
sg34
g137
sg138
g134
sg139
I0
sg140
I0
sg141
I0
sg142
g134
sg35
g132
sg143
I0
stRp1965
sg145
g146
sg147
F1
sg148
Nsg30
S'CviswA'
p1966
sbag1
(g2
g3
NtRp1967
(dp1968
g6
g1
(g7
g3
NtRp1969
(dp1970
g10
g1
(g11
g12
(dtRp1971
sg14
g1
(g11
g12
(dtRp1972
sg16
g1
(g11
g12
(dtRp1973
sg18
g1
(g11
g12
(dtRp1974
sg20
g1
(g11
g12
(dtRp1975
sg22
g1
(g11
g12
(dtRp1976
sbsg24
S'Csa'
p1977
sg26
g27
((lp1978
g29
ag30
aS'sequence'
p1979
ag32
ag33
aS'species'
p1980
atRp1981
sg37
(lp1982
sg120
g1933
sg121
S'RWFSTKDLYSRLELPGLNQNVHAMFVMPLGFGNPMGDMFARLNNSFWLPPLSLEGAGTGWTVYPPLSHSGPSVDLAFHLTSSLLGAINFTNMRGVLFWTALLLLSLPVLAGTLLDRNFNTFDGGDPLYHLFWFFGHPEVYIIPGFGSHSTFKKFGMYASIGLGFVWSHHMYVGLDDRAYFTSATMIAPTGIKFSWIATYGGRPTLAFLFLFTGGTGVLNASDSMHDTYYVVHFHYVLSMGAFSLGYYYWPGLYNLYWFNFPMHFLGGMPRRPYPDSGWNSGSSYQLGPDEGNEPH'
p1983
sg123
F0.065189999999999998
sg124
g125
sg33
S'87'
p1984
sg127
g1
(g128
g12
(dp1985
g130
I4
sg131
g132
sg133
g134
sg135
g132
sg136
I01
sg34
g137
sg138
g134
sg139
I0
sg140
I0
sg141
I0
sg142
g134
sg35
g132
sg143
I0
stRp1986
sg145
g146
sg147
F1
sg148
Nsg30
S'CsaraA'
p1987
sbasg120
g1920
sg123
F0.029960000000000001
sg124
g125
sg33
S'61'
p1988
sg127
g1
(g128
g12
(dp1989
g130
I8
sg131
g132
sg133
g134
sg135
g132
sg136
I01
sg34
g173
sg138
g134
sg139
I0
sg140
I0
sg141
I0
sg142
g134
sg35
g132
sg143
I0
stRp1990
sg145
g146
sg147
F0.98999999999999999
sg148
Nsg30
S'NoName'
p1991
sbag1
(g2
g3
NtRp1992
(dp1993
g6
g1
(g7
g3
NtRp1994
(dp1995
g10
g1
(g11
g12
(dtRp1996
sg14
g1
(g11
g12
(dtRp1997
sg16
g1
(g11
g12
(dtRp1998
sg18
g1
(g11
g12
(dtRp1999
sg20
g1
(g11
g12
(dtRp2000
sg22
g1
(g11
g12
(dtRp2001
sbsg24
S'Cpr'
p2002
sg26
g27
((lp2003
g29
ag30
aS'sequence'
p2004
ag32
ag33
aS'species'
p2005
atRp2006
sg37
(lp2007
sg120
g1920
sg121
S'RWFSTKDEYSRLELPGLNQNVHAMFVMPLGFGNPMGDMFARLNNSFWLPPLSLEGAGTGWTVYPPLSHSGPSVDLAFHLTSSLLGAINFTNMRGPLFWTALLLLSLPVLTGTLLDRNFNTFDGGDPLYHLFWFFGHPEVYMIPGFGSHSTYKKFGMYASMGLGFVWSHHMFVGLDDRAYFTSATMMAPTGIKFSWLATYGGRPMLAFLFLFTGGTGVLNASDSMHDTYYVVHFHYVLSMGAFSLGYYYWPGLYNLYWFNFPMHFLGGMPRRPYPDSGWNSGSSVQLGPDENNEPH'
p2008
sg123
F0.17724999999999999
sg124
g125
sg33
S'95'
p2009
sg127
g1
(g128
g12
(dp2010
g130
I4
sg131
g132
sg133
g134
sg135
g132
sg136
I01
sg34
g137
sg138
g134
sg139
I0
sg140
I0
sg141
I0
sg142
g134
sg35
g132
sg143
I0
stRp2011
sg145
g146
sg147
F1
sg148
Nsg30
S'CpracA'
p2012
sbasg120
g1886
sg123
F0.02281
sg124
g125
sg33
S'38'
p2013
sg127
g1
(g128
g12
(dp2014
g130
I8
sg131
g132
sg133
g134
sg135
g132
sg136
I01
sg34
g173
sg138
g134
sg139
I0
sg140
I0
sg141
I0
sg142
g134
sg35
g132
sg143
I0
stRp2015
sg145
g146
sg147
F0.98999999999999999
sg148
Nsg30
S'NoName'
p2016
sbasg120
g1777
sg123
F0.01154
sg124
g125
sg33
S'220'
p2017
sg127
g1
(g128
g12
(dp2018
g130
I8
sg131
g132
sg133
g134
sg135
g132
sg136
I01
sg34
g173
sg138
g134
sg139
I0
sg140
I0
sg141
I0
sg142
g134
sg35
g132
sg143
I0
stRp2019
sg145
g146
sg147
F0.98999999999999999
sg148
Nsg30
S'NoName'
p2020
sbasg120
g1764
sg123
F0.02138
sg124
g125
sg33
S'183'
p2021
sg127
g1
(g128
g12
(dp2022
g130
I8
sg131
g132
sg133
g134
sg135
g132
sg136
I01
sg34
g173
sg138
g134
sg139
I0
sg140
I0
sg141
I0
sg142
g134
sg35
g132
sg143
I0
stRp2023
sg145
g146
sg147
F0.98999999999999999
sg148
Nsg30
S'NoName'
p2024
sbag1
(g2
g3
NtRp2025
(dp2026
g6
g1
(g7
g3
NtRp2027
(dp2028
g10
g1
(g11
g12
(dtRp2029
sg14
g1
(g11
g12
(dtRp2030
sg16
g1
(g11
g12
(dtRp2031
sg18
g1
(g11
g12
(dtRp2032
sg20
g1
(g11
g12
(dtRp2033
sg22
g1
(g11
g12
(dtRp2034
sbsg24
g25
sg26
g27
((lp2035
g33
ag32
ag29
ag30
atRp2036
sg37
(lp2037
g1
(g2
g3
NtRp2038
(dp2039
g6
g1
(g7
g3
NtRp2040
(dp2041
g10
g1
(g11
g12
(dtRp2042
sg14
g1
(g11
g12
(dtRp2043
sg16
g1
(g11
g12
(dtRp2044
sg18
g1
(g11
g12
(dtRp2045
sg20
g1
(g11
g12
(dtRp2046
sg22
g1
(g11
g12
(dtRp2047
sbsg24
S'Cne'
p2048
sg26
g27
((lp2049
g29
ag30
aS'sequence'
p2050
ag32
ag33
aS'species'
p2051
atRp2052
sg37
(lp2053
sg120
g2025
sg121
S'RWLSTKDLYSRLELPGLNQNVHAMFVMPLGFGNPMGDMFARLNNSFWLPPLSLEGAGTGWTVYPPLSHSGPSVDLAFHLTSSLLGAINFTNMRGPLFWTALLLLSLPVLAGTLLDRNFNTFDGGDPLYHLFWFFGHPEVYIIPGFGSHSTYKKFGMYASIGLGFVWSHHMYVGLDDRAYFTSATMIAPTGIKFSWLATYGGRPMLAFLFLFTGGTGVLNASDAFHDTYYVVHFHYVLSMGAFSLGYYYWPGLYNLYWFNFPMHFLGGMPRRPYPDSGWNSGSSYQLGPDESNEPH'
p2054
sg123
F0.04879
sg124
g125
sg33
S'111'
p2055
sg127
g1
(g128
g12
(dp2056
g130
I4
sg131
g132
sg133
g134
sg135
g132
sg136
I01
sg34
g137
sg138
g134
sg139
I0
sg140
I0
sg141
I0
sg142
g134
sg35
g132
sg143
I0
stRp2057
sg145
g146
sg147
F1
sg148
Nsg30
S'CneerA'
p2058
sbag1
(g2
g3
NtRp2059
(dp2060
g6
g1
(g7
g3
NtRp2061
(dp2062
g10
g1
(g11
g12
(dtRp2063
sg14
g1
(g11
g12
(dtRp2064
sg16
g1
(g11
g12
(dtRp2065
sg18
g1
(g11
g12
(dtRp2066
sg20
g1
(g11
g12
(dtRp2067
sg22
g1
(g11
g12
(dtRp2068
sbsg24
S'Cfr'
p2069
sg26
g27
((lp2070
g29
ag30
aS'sequence'
p2071
ag32
ag33
aS'species'
p2072
atRp2073
sg37
(lp2074
sg120
g2025
sg121
S'RWLSTKDLYSRLELPGLNQNVHAMFVMPLGFGNPMGDMFARLNNSFWLPPLSLEGAGTGWTVYPPLSHSGPSVDLAFHLTSSLLGAMNFTNMRGPLFWTALLLLSLPVLAGTLLDRNFNTFDGGDPLYHLFWFFGHPEVYIIPGFGSHSTYKKFGMYASIGLGFVWSHHMYVGLDDRAYFTSATMIAPTGIKFSWLSTYGGRPMLAFLFLFTGGTGVLNASDAFHDTYYVVHFHYVLSMGAFSLGYYYWPGLYNLYWFNFPMHFLGGMPRRPYPDSGWNSGSSYQLGPDESNEPH'
p2075
sg123
F0.050279999999999998
sg124
g125
sg33
S'123'
p2076
sg127
g1
(g128
g12
(dp2077
g130
I4
sg131
g132
sg133
g134
sg135
g132
sg136
I01
sg34
g137
sg138
g134
sg139
I0
sg140
I0
sg141
I0
sg142
g134
sg35
g132
sg143
I0
stRp2078
sg145
g146
sg147
F1
sg148
Nsg30
S'CfrijA'
p2079
sbasg120
g1764
sg123
F0.11378000000000001
sg124
g125
sg33
S'72'
p2080
sg127
g1
(g128
g12
(dp2081
g130
I8
sg131
g132
sg133
g134
sg135
g132
sg136
I01
sg34
g173
sg138
g134
sg139
I0
sg140
I0
sg141
I0
sg142
g134
sg35
g132
sg143
I0
stRp2082
sg145
g146
sg147
F0.98999999999999999
sg148
Nsg30
S'NoName'
p2083
sbasg120
g1730
sg123
F0.076910000000000006
sg124
g125
sg33
S'160'
p2084
sg127
g1
(g128
g12
(dp2085
g130
I8
sg131
g132
sg133
g134
sg135
g132
sg136
I01
sg34
g173
sg138
g134
sg139
I0
sg140
I0
sg141
I0
sg142
g134
sg35
g132
sg143
I0
stRp2086
sg145
g146
sg147
F0.98999999999999999
sg148
Nsg30
S'NoName'
p2087
sbasg120
g1717
sg123
F0.022950000000000002
sg124
g125
sg33
S'149'
p2088
sg127
g1
(g128
g12
(dp2089
g130
I8
sg131
g132
sg133
g134
sg135
g132
sg136
I01
sg34
g173
sg138
g134
sg139
I0
sg140
I0
sg141
I0
sg142
g134
sg35
g132
sg143
I0
stRp2090
sg145
g146
sg147
F0.65000000000000002
sg148
Nsg30
S'NoName'
p2091
sbag1
(g2
g3
NtRp2092
(dp2093
g6
g1
(g7
g3
NtRp2094
(dp2095
g10
g1
(g11
g12
(dtRp2096
sg14
g1
(g11
g12
(dtRp2097
sg16
g1
(g11
g12
(dtRp2098
sg18
g1
(g11
g12
(dtRp2099
sg20
g1
(g11
g12
(dtRp2100
sg22
g1
(g11
g12
(dtRp2101
sbsg24
g25
sg26
g27
((lp2102
g33
ag32
ag29
ag30
atRp2103
sg37
(lp2104
g1
(g2
g3
NtRp2105
(dp2106
g6
g1
(g7
g3
NtRp2107
(dp2108
g10
g1
(g11
g12
(dtRp2109
sg14
g1
(g11
g12
(dtRp2110
sg16
g1
(g11
g12
(dtRp2111
sg18
g1
(g11
g12
(dtRp2112
sg20
g1
(g11
g12
(dtRp2113
sg22
g1
(g11
g12
(dtRp2114
sbsg24
g25
sg26
g27
((lp2115
g33
ag32
ag29
ag30
atRp2116
sg37
(lp2117
g1
(g2
g3
NtRp2118
(dp2119
g6
g1
(g7
g3
NtRp2120
(dp2121
g10
g1
(g11
g12
(dtRp2122
sg14
g1
(g11
g12
(dtRp2123
sg16
g1
(g11
g12
(dtRp2124
sg18
g1
(g11
g12
(dtRp2125
sg20
g1
(g11
g12
(dtRp2126
sg22
g1
(g11
g12
(dtRp2127
sbsg24
S'Cgi'
p2128
sg26
g27
((lp2129
g29
ag30
aS'sequence'
p2130
ag32
ag33
aS'species'
p2131
atRp2132
sg37
(lp2133
sg120
g2105
sg121
S'RWLSTKDLYSRLELAGLNQNVHAMFVMPLGFGNPMGDMFARLNNSFWLPPLSLEGAGTGWTVYPPLSHSGPSVDMAFHLTSSLLGAINFTNMRGPLFWTALLLLSLPVLAATLLDRNFNTFEGGDPLYHAFWFFGHPEVYIIPGFGSHSTYKKFGMYASIGLGFVWSHHMYVGLDDRAYFTSATMIAPTGIKFSWLATYGGRPMLAFLFLFTGGTGVLNASDAFHDTYYVVHFHYVLSMGAFSLGYYYWPGLYNLYWFNFPMHFLGGMPRRPYPDAGWNSGSSYQLGPDESNEPH'
p2134
sg123
F0.22796
sg124
g125
sg33
S'157'
p2135
sg127
g1
(g128
g12
(dp2136
g130
I4
sg131
g132
sg133
g134
sg135
g132
sg136
I01
sg34
g137
sg138
g134
sg139
I0
sg140
I0
sg141
I0
sg142
g134
sg35
g132
sg143
I0
stRp2137
sg145
g146
sg147
F1
sg148
Nsg30
S'CgigaA'
p2138
sbag1
(g2
g3
NtRp2139
(dp2140
g6
g1
(g7
g3
NtRp2141
(dp2142
g10
g1
(g11
g12
(dtRp2143
sg14
g1
(g11
g12
(dtRp2144
sg16
g1
(g11
g12
(dtRp2145
sg18
g1
(g11
g12
(dtRp2146
sg20
g1
(g11
g12
(dtRp2147
sg22
g1
(g11
g12
(dtRp2148
sbsg24
S'Cbu'
p2149
sg26
g27
((lp2150
g29
ag30
aS'sequence'
p2151
ag32
ag33
aS'species'
p2152
atRp2153
sg37
(lp2154
sg120
g2105
sg121
S'RWLSTKDLYSRLELAGLNQNVHAMFVMPLGFGNPMGDMFARLNNSFWLPPLSLEGAGTGWTVYPPLSHSGPSVDLAFHLTSSLLGAINFTNMRGPLFWTALLLLSLPVLAGTLLDRNFNTFEGGDPLYHLFWFFGHPEVYIIPGFGSHGTYKKFGMYASIGLGFVWSHHMFVGLDDRAYFTSATMIAPTGIKFSWLATYGGRPMLAFLFLFTGGTGVLNASDAFHDTYYVVHFHYVLSMGAFSLAYYYWPGLYNLFWFNFPMHFLGGMPRRPYPDAGWNSGSSYQLGPDESNEPH'
p2155
sg123
F0.26118000000000002
sg124
g125
sg33
S'168'
p2156
sg127
g1
(g128
g12
(dp2157
g130
I4
sg131
g132
sg133
g134
sg135
g132
sg136
I01
sg34
g137
sg138
g134
sg139
I0
sg140
I0
sg141
I0
sg142
g134
sg35
g132
sg143
I0
stRp2158
sg145
g146
sg147
F1
sg148
Nsg30
S'CbuenA'
p2159
sbasg120
g2092
sg123
F0.037260000000000001
sg124
g125
sg33
S'134'
p2160
sg127
g1
(g128
g12
(dp2161
g130
I8
sg131
g132
sg133
g134
sg135
g132
sg136
I01
sg34
g173
sg138
g134
sg139
I0
sg140
I0
sg141
I0
sg142
g134
sg35
g132
sg143
I0
stRp2162
sg145
g146
sg147
F0.98999999999999999
sg148
Nsg30
S'NoName'
p2163
sbag1
(g2
g3
NtRp2164
(dp2165
g6
g1
(g7
g3
NtRp2166
(dp2167
g10
g1
(g11
g12
(dtRp2168
sg14
g1
(g11
g12
(dtRp2169
sg16
g1
(g11
g12
(dtRp2170
sg18
g1
(g11
g12
(dtRp2171
sg20
g1
(g11
g12
(dtRp2172
sg22
g1
(g11
g12
(dtRp2173
sbsg24
g25
sg26
g27
((lp2174
g33
ag32
ag29
ag30
atRp2175
sg37
(lp2176
g1
(g2
g3
NtRp2177
(dp2178
g6
g1
(g7
g3
NtRp2179
(dp2180
g10
g1
(g11
g12
(dtRp2181
sg14
g1
(g11
g12
(dtRp2182
sg16
g1
(g11
g12
(dtRp2183
sg18
g1
(g11
g12
(dtRp2184
sg20
g1
(g11
g12
(dtRp2185
sg22
g1
(g11
g12
(dtRp2186
sbsg24
S'Cdu'
p2187
sg26
g27
((lp2188
g29
ag30
aS'sequence'
p2189
ag32
ag33
aS'species'
p2190
atRp2191
sg37
(lp2192
sg120
g2164
sg121
S'RWLSTKDLYSRLELPGLNQNVHAMFVMPLGFGNPMGDMFARLNNSFWLPPLSLEGAGTGWTVYPPLSHSGPSVDLAFHLTSSLLGAINFTNMRGPLYWTALLLLSLPVLAGTLLDRNFNTFEGGDPLYHLFWFFGHPEVYIIPGFGSHSTYKKFGMYASIGLGFVWSHHMYVGLDDRAYFTSATMIAPTGIKFSWLATYGGRPMLAFLFLFTGGTGVLNASDAFHDTYYVVHFHYVLSMGAFSLGYYYWPGLYNLYWFNFPMHFLGGMPRRPYPDAGWNSGSSYQLGPDESNEPH'
p2193
sg123
F0.025069999999999999
sg124
g125
sg33
S'190'
p2194
sg127
g1
(g128
g12
(dp2195
g130
I4
sg131
g132
sg133
g134
sg135
g132
sg136
I01
sg34
g137
sg138
g134
sg139
I0
sg140
I0
sg141
I0
sg142
g134
sg35
g132
sg143
I0
stRp2196
sg145
g146
sg147
F1
sg148
Nsg30
S'CdublA'
p2197
sbag1
(g2
g3
NtRp2198
(dp2199
g6
g1
(g7
g3
NtRp2200
(dp2201
g10
g1
(g11
g12
(dtRp2202
sg14
g1
(g11
g12
(dtRp2203
sg16
g1
(g11
g12
(dtRp2204
sg18
g1
(g11
g12
(dtRp2205
sg20
g1
(g11
g12
(dtRp2206
sg22
g1
(g11
g12
(dtRp2207
sbsg24
g25
sg26
g27
((lp2208
g33
ag32
ag29
ag30
atRp2209
sg37
(lp2210
g1
(g2
g3
NtRp2211
(dp2212
g6
g1
(g7
g3
NtRp2213
(dp2214
g10
g1
(g11
g12
(dtRp2215
sg14
g1
(g11
g12
(dtRp2216
sg16
g1
(g11
g12
(dtRp2217
sg18
g1
(g11
g12
(dtRp2218
sg20
g1
(g11
g12
(dtRp2219
sg22
g1
(g11
g12
(dtRp2220
sbsg24
g25
sg26
g27
((lp2221
g33
ag32
ag29
ag30
atRp2222
sg37
(lp2223
g1
(g2
g3
NtRp2224
(dp2225
g6
g1
(g7
g3
NtRp2226
(dp2227
g10
g1
(g11
g12
(dtRp2228
sg14
g1
(g11
g12
(dtRp2229
sg16
g1
(g11
g12
(dtRp2230
sg18
g1
(g11
g12
(dtRp2231
sg20
g1
(g11
g12
(dtRp2232
sg22
g1
(g11
g12
(dtRp2233
sbsg24
g25
sg26
g27
((lp2234
g33
ag32
ag29
ag30
atRp2235
sg37
(lp2236
g1
(g2
g3
NtRp2237
(dp2238
g6
g1
(g7
g3
NtRp2239
(dp2240
g10
g1
(g11
g12
(dtRp2241
sg14
g1
(g11
g12
(dtRp2242
sg16
g1
(g11
g12
(dtRp2243
sg18
g1
(g11
g12
(dtRp2244
sg20
g1
(g11
g12
(dtRp2245
sg22
g1
(g11
g12
(dtRp2246
sbsg24
g25
sg26
g27
((lp2247
g33
ag32
ag29
ag30
atRp2248
sg37
(lp2249
g1
(g2
g3
NtRp2250
(dp2251
g6
g1
(g7
g3
NtRp2252
(dp2253
g10
g1
(g11
g12
(dtRp2254
sg14
g1
(g11
g12
(dtRp2255
sg16
g1
(g11
g12
(dtRp2256
sg18
g1
(g11
g12
(dtRp2257
sg20
g1
(g11
g12
(dtRp2258
sg22
g1
(g11
g12
(dtRp2259
sbsg24
S'Cal'
p2260
sg26
g27
((lp2261
g29
ag30
aS'sequence'
p2262
ag32
ag33
aS'species'
p2263
atRp2264
sg37
(lp2265
sg120
g2237
sg121
S'RWLSTKDLYSRLELPGLNQNVHAMFVMPLGFGNPMGDMFARLNNSFWLPPLSLEGAGTGWTVYPPLSHSGPSVDLAFHLTSSLLGAINFTNMRGPLFWTALLLLSLPVLAGTLLDRNFNTFEGGDPLYHLFWFFGHPEVYIIPGFGSHSTYKKFGMYASIGLGFVWSHHMYVGLDDRAYFTSATMIAPTGIKFSWLATYGGRPMLAFLFLFTGGTGVLNASDAFHDTYYVVHFHYVLSMGAFSLGYYYWPGLYNLYWFNFPMHFLGGMPRRPYPDAGWNSGSSYQLGPDESNEPH'
p2266
sg123
F0.00025000000000000001
sg124
g125
sg33
S'35'
p2267
sg127
g1
(g128
g12
(dp2268
g130
I4
sg131
g132
sg133
g134
sg135
g132
sg136
I01
sg34
g137
sg138
g134
sg139
I0
sg140
I0
sg141
I0
sg142
g134
sg35
g132
sg143
I0
stRp2269
sg145
g146
sg147
F1
sg148
Nsg30
S'CalbiE'
p2270
sbag1
(g2
g3
NtRp2271
(dp2272
g6
g1
(g7
g3
NtRp2273
(dp2274
g10
g1
(g11
g12
(dtRp2275
sg14
g1
(g11
g12
(dtRp2276
sg16
g1
(g11
g12
(dtRp2277
sg18
g1
(g11
g12
(dtRp2278
sg20
g1
(g11
g12
(dtRp2279
sg22
g1
(g11
g12
(dtRp2280
sbsg24
S'Cal'
p2281
sg26
g27
((lp2282
g29
ag30
aS'sequence'
p2283
ag32
ag33
aS'species'
p2284
atRp2285
sg37
(lp2286
sg120
g2237
sg121
S'RWLSTKDLYSRLELPGLNQNVHAMFVMPLGFGNPMGDMFARLNNSFWLPPLSLEGAGTGWTVYPPLSHSGPSVDLAFHLTSSLLGAINFTNMRGPLFWTALLLLSLPVLAGTLLDRNFNTFEGGDPLYHLFWFFGHPEVYIIPGFGSHSTYKKFGMYASIGLGFVWSHHMYVGLDDRAYFTSATMIAPTGIKFSWLATYGGRPMLAFLFLFTGGTGVLNASDAFHDTYYVVHFHYVLSMGAFSLGYYYWPGLYNLYWFNFPMHFLGGMPRRPYPDAGWNSGSSYQLGPDESNEPH'
p2287
sg123
F0.00050000000000000001
sg124
g125
sg33
S'47'
p2288
sg127
g1
(g128
g12
(dp2289
g130
I4
sg131
g132
sg133
g134
sg135
g132
sg136
I01
sg34
g137
sg138
g134
sg139
I0
sg140
I0
sg141
I0
sg142
g134
sg35
g132
sg143
I0
stRp2290
sg145
g146
sg147
F1
sg148
Nsg30
S'CalbiD'
p2291
sbasg120
g2224
sg123
F0.00051999999999999995
sg124
g125
sg33
S'13'
p2292
sg127
g1
(g128
g12
(dp2293
g130
I8
sg131
g132
sg133
g134
sg135
g132
sg136
I01
sg34
g173
sg138
g134
sg139
I0
sg140
I0
sg141
I0
sg142
g134
sg35
g132
sg143
I0
stRp2294
sg145
g146
sg147
F0.73999999999999999
sg148
Nsg30
S'NoName'
p2295
sbag1
(g2
g3
NtRp2296
(dp2297
g6
g1
(g7
g3
NtRp2298
(dp2299
g10
g1
(g11
g12
(dtRp2300
sg14
g1
(g11
g12
(dtRp2301
sg16
g1
(g11
g12
(dtRp2302
sg18
g1
(g11
g12
(dtRp2303
sg20
g1
(g11
g12
(dtRp2304
sg22
g1
(g11
g12
(dtRp2305
sbsg24
S'Cal'
p2306
sg26
g27
((lp2307
g29
ag30
aS'sequence'
p2308
ag32
ag33
aS'species'
p2309
atRp2310
sg37
(lp2311
sg120
g2224
sg121
S'RWLSTKDLYSRLELPGLNQNVHAMFVMPLGFGNPMGDMFARLNNSFWLPPLSLEGAGTGWTVYPPLSHSGPSVDLAFHLTSSLLGAINFTNMRGPLFWTALLLLSLPVLAGTLLDRNFNTFEGGDPLYHLFWFFGHPEVYIIPGFGSHSTYKKFGMYASIGLGFVWSHHMYVGLDDRAYFTSATMIAPTGIKFSWLATYGGRPMLAFLFLFTGGTGVLNASDAFHDTYYVVHFHYVLSMGAFSLGYYYWPGLYNLYWFNFPMHFLGGMPRRPYPDAGWNSGSSYQLGPDESNEPH'
p2312
sg123
F0.00012
sg124
g125
sg33
S'58'
p2313
sg127
g1
(g128
g12
(dp2314
g130
I4
sg131
g132
sg133
g134
sg135
g132
sg136
I01
sg34
g137
sg138
g134
sg139
I0
sg140
I0
sg141
I0
sg142
g134
sg35
g132
sg143
I0
stRp2315
sg145
g146
sg147
F1
sg148
Nsg30
S'CalbiC'
p2316
sbasg120
g2211
sg123
F1.0000000000000001e-05
sg124
g125
sg33
S'216'
p2317
sg127
g1
(g128
g12
(dp2318
g130
I8
sg131
g132
sg133
g134
sg135
g132
sg136
I01
sg34
g173
sg138
g134
sg139
I0
sg140
I0
sg141
I0
sg142
g134
sg35
g132
sg143
I0
stRp2319
sg145
g146
sg147
F1
sg148
Nsg30
S'NoName'
p2320
sbag1
(g2
g3
NtRp2321
(dp2322
g6
g1
(g7
g3
NtRp2323
(dp2324
g10
g1
(g11
g12
(dtRp2325
sg14
g1
(g11
g12
(dtRp2326
sg16
g1
(g11
g12
(dtRp2327
sg18
g1
(g11
g12
(dtRp2328
sg20
g1
(g11
g12
(dtRp2329
sg22
g1
(g11
g12
(dtRp2330
sbsg24
S'Cal'
p2331
sg26
g27
((lp2332
g29
ag30
aS'sequence'
p2333
ag32
ag33
aS'species'
p2334
atRp2335
sg37
(lp2336
sg120
g2211
sg121
S'RWLSTKDLYSRLELPGLNQNVHAMFVMPLGFGNPMGDMFARLNNSFWLPPLSLEGAGTGWTVYPPLSHSGPSVDLAFHLTSSLLGAINFTNMRGPLFWTALLLLSLPVLAGTLLDRNFNTFEGGDPLYHLFWFFGHPEVYIIPGFGSHSTYKKFGMYASIGLGFVWSHHMYVGLDDRAYFTSATMIAPTGIKFSWLATYGGRPMLAFLFLFTGGTGVLNASDAFHDTYYVVHFHYVLSMGAFSLGYYYWPGLYNLYWFNFPMHFLGGMPRRPYPDAGWNSGSSYQLGPDESNEPH'
p2337
sg123
F0.00016000000000000001
sg124
g125
sg33
S'69'
p2338
sg127
g1
(g128
g12
(dp2339
g130
I4
sg131
g132
sg133
g134
sg135
g132
sg136
I01
sg34
g137
sg138
g134
sg139
I0
sg140
I0
sg141
I0
sg142
g134
sg35
g132
sg143
I0
stRp2340
sg145
g146
sg147
F1
sg148
Nsg30
S'CalbiB'
p2341
sbasg120
g2198
sg123
F1.0000000000000001e-05
sg124
g125
sg33
S'203'
p2342
sg127
g1
(g128
g12
(dp2343
g130
I8
sg131
g132
sg133
g134
sg135
g132
sg136
I01
sg34
g173
sg138
g134
sg139
I0
sg140
I0
sg141
I0
sg142
g134
sg35
g132
sg143
I0
stRp2344
sg145
g146
sg147
F1
sg148
Nsg30
S'NoName'
p2345
sbag1
(g2
g3
NtRp2346
(dp2347
g6
g1
(g7
g3
NtRp2348
(dp2349
g10
g1
(g11
g12
(dtRp2350
sg14
g1
(g11
g12
(dtRp2351
sg16
g1
(g11
g12
(dtRp2352
sg18
g1
(g11
g12
(dtRp2353
sg20
g1
(g11
g12
(dtRp2354
sg22
g1
(g11
g12
(dtRp2355
sbsg24
S'Cal'
p2356
sg26
g27
((lp2357
g29
ag30
aS'sequence'
p2358
ag32
ag33
aS'species'
p2359
atRp2360
sg37
(lp2361
sg120
g2198
sg121
S'RWLSTKDLYSRLELPGLNQNVHAMFVMPLGFGNPMGDMFARLNNSFWLPPLSLEGAGTGWTVYPPLSHSGPSVDLAFHLTSSLLGAINFTNMRGPLFWTALLLLSLPVLAGTLLDRNFNTFEGGDPLYHLFWFFGHPEVYIIPGFGSHSTYKKFGMYASIGLGFVWSHHMYVGLDDRAYFTSATMIAPTGIKFSWLATYGGRPMLAFLFLFTGGTGVLNASDAFHDTYYVVHFHYVLSMGAFSLGYYYWPGLYNLYWFNFPMHFLGGMPRRPYPDAGWNSGSSYQLGPDESNEPH'
p2362
sg123
F0.00013999999999999999
sg124
g125
sg33
S'77'
p2363
sg127
g1
(g128
g12
(dp2364
g130
I4
sg131
g132
sg133
g134
sg135
g132
sg136
I01
sg34
g137
sg138
g134
sg139
I0
sg140
I0
sg141
I0
sg142
g134
sg35
g132
sg143
I0
stRp2365
sg145
g146
sg147
F1
sg148
Nsg30
S'CalbiA'
p2366
sbasg120
g2164
sg123
F0.014959999999999999
sg124
g125
sg33
S'179'
p2367
sg127
g1
(g128
g12
(dp2368
g130
I8
sg131
g132
sg133
g134
sg135
g132
sg136
I01
sg34
g173
sg138
g134
sg139
I0
sg140
I0
sg141
I0
sg142
g134
sg35
g132
sg143
I0
stRp2369
sg145
g146
sg147
F0.98999999999999999
sg148
Nsg30
S'NoName'
p2370
sbasg120
g2092
sg123
F0.05287
sg124
g125
sg33
S'146'
p2371
sg127
g1
(g128
g12
(dp2372
g130
I8
sg131
g132
sg133
g134
sg135
g132
sg136
I01
sg34
g173
sg138
g134
sg139
I0
sg140
I0
sg141
I0
sg142
g134
sg35
g132
sg143
I0
stRp2373
sg145
g146
sg147
F0.98999999999999999
sg148
Nsg30
S'NoName'
p2374
sbasg120
g1717
sg123
F0.037499999999999999
sg124
g125
sg33
S'101'
p2375
sg127
g1
(g128
g12
(dp2376
g130
I8
sg131
g132
sg133
g134
sg135
g132
sg136
I01
sg34
g173
sg138
g134
sg139
I0
sg140
I0
sg141
I0
sg142
g134
sg35
g132
sg143
I0
stRp2377
sg145
g146
sg147
F0.98999999999999999
sg148
Nsg30
S'NoName'
p2378
sbasg120
g999
sg123
F0.10766000000000001
sg124
g125
sg33
S'103'
p2379
sg127
g1
(g128
g12
(dp2380
g130
I8
sg131
g132
sg133
g134
sg135
g132
sg136
I01
sg34
g173
sg138
g134
sg139
I0
sg140
I0
sg141
I0
sg142
g134
sg35
g132
sg143
I0
stRp2381
sg145
g146
sg147
F0.98999999999999999
sg148
Nsg30
S'NoName'
p2382
sbasg120
g965
sg123
F0.093560000000000004
sg124
g125
sg33
S'214'
p2383
sg127
g1
(g128
g12
(dp2384
g130
I8
sg131
g132
sg133
g134
sg135
g132
sg136
I01
sg34
g173
sg138
g134
sg139
I0
sg140
I0
sg141
I0
sg142
g134
sg35
g132
sg143
I0
stRp2385
sg145
g146
sg147
F0.97999999999999998
sg148
Nsg30
S'NoName'
p2386
sbasg120
g952
sg123
F0.036760000000000001
sg124
g125
sg33
S'213'
p2387
sg127
g1
(g128
g12
(dp2388
g130
I8
sg131
g132
sg133
g134
sg135
g132
sg136
I01
sg34
g173
sg138
g134
sg139
I0
sg140
I0
sg141
I0
sg142
g134
sg35
g132
sg143
I0
stRp2389
sg145
g146
sg147
F0.97999999999999998
sg148
Nsg30
S'NoName'
p2390
sbag1
(g2
g3
NtRp2391
(dp2392
g6
g1
(g7
g3
NtRp2393
(dp2394
g10
g1
(g11
g12
(dtRp2395
sg14
g1
(g11
g12
(dtRp2396
sg16
g1
(g11
g12
(dtRp2397
sg18
g1
(g11
g12
(dtRp2398
sg20
g1
(g11
g12
(dtRp2399
sg22
g1
(g11
g12
(dtRp2400
sbsg24
g25
sg26
g27
((lp2401
g33
ag32
ag29
ag30
atRp2402
sg37
(lp2403
g1
(g2
g3
NtRp2404
(dp2405
g6
g1
(g7
g3
NtRp2406
(dp2407
g10
g1
(g11
g12
(dtRp2408
sg14
g1
(g11
g12
(dtRp2409
sg16
g1
(g11
g12
(dtRp2410
sg18
g1
(g11
g12
(dtRp2411
sg20
g1
(g11
g12
(dtRp2412
sg22
g1
(g11
g12
(dtRp2413
sbsg24
g25
sg26
g27
((lp2414
g33
ag32
ag29
ag30
atRp2415
sg37
(lp2416
g1
(g2
g3
NtRp2417
(dp2418
g6
g1
(g7
g3
NtRp2419
(dp2420
g10
g1
(g11
g12
(dtRp2421
sg14
g1
(g11
g12
(dtRp2422
sg16
g1
(g11
g12
(dtRp2423
sg18
g1
(g11
g12
(dtRp2424
sg20
g1
(g11
g12
(dtRp2425
sg22
g1
(g11
g12
(dtRp2426
sbsg24
S'Csu'
p2427
sg26
g27
((lp2428
g29
ag30
aS'sequence'
p2429
ag32
ag33
aS'species'
p2430
atRp2431
sg37
(lp2432
sg120
g2404
sg121
S'RWLSTKDLYSRMELPGLNQNVHAMFIMPLGLGNPLGDMFARLNNSFWLPPLSLEGAGTGWTVYPPLSHSGPSVDLAFHLTSSLLGAINFTNMRGPLYWTALLLLSLPVLAATLLDRNFNTFEGGDPLYHLFWFFGHPEVYIIPGFGSHSTYKKFGMYASIGLGFVWSHHMFVGLDDRAYFTSATMIAPTGVKFSWLATYGGRPMLAFLFLFTGGTGVINASDAFHDTYYIVHFHYVLSMGAFSLGFYYWPGLYNLFWFNFPMHFLGGMPRRPYPDAGWNSGSAYQLGPDESNEPH'
p2433
sg123
F0.00012999999999999999
sg124
g125
sg33
S'81'
p2434
sg127
g1
(g128
g12
(dp2435
g130
I4
sg131
g132
sg133
g134
sg135
g132
sg136
I01
sg34
g137
sg138
g134
sg139
I0
sg140
I0
sg141
I0
sg142
g134
sg35
g132
sg143
I0
stRp2436
sg145
g146
sg147
F1
sg148
Nsg30
S'CsubhB'
p2437
sbag1
(g2
g3
NtRp2438
(dp2439
g6
g1
(g7
g3
NtRp2440
(dp2441
g10
g1
(g11
g12
(dtRp2442
sg14
g1
(g11
g12
(dtRp2443
sg16
g1
(g11
g12
(dtRp2444
sg18
g1
(g11
g12
(dtRp2445
sg20
g1
(g11
g12
(dtRp2446
sg22
g1
(g11
g12
(dtRp2447
sbsg24
S'Csu'
p2448
sg26
g27
((lp2449
g29
ag30
aS'sequence'
p2450
ag32
ag33
aS'species'
p2451
atRp2452
sg37
(lp2453
sg120
g2404
sg121
S'RWLSTKDLYSRMELPGLNQNVHAMFIMPLGLGNPLGDMFARLNNSFWLPPLSLEGAGTGWTVYPPLSHSGPSVDLAFHLTSSLLGAINFTNMRGPLYWTALLLLSLPVLAATLLDRNFNTFEGGDPLYHLFWFFGHPEVYIIPGFGSHSTYKKFGMYASIGLGFVWSHHMFVGLDDRAYFTSATMIAPTGVKFSWLATYGGRPMLAFLFLFTGGTGVINASDAFHDTYYIVHFHYVLSMGAFSLGFYYWPGLYNLFWFNFPMHFLGGMPRRPYPDAGWNSGSAYQLGPDESNEPH'
p2454
sg123
F0.00013999999999999999
sg124
g125
sg33
S'106'
p2455
sg127
g1
(g128
g12
(dp2456
g130
I4
sg131
g132
sg133
g134
sg135
g132
sg136
I01
sg34
g137
sg138
g134
sg139
I0
sg140
I0
sg141
I0
sg142
g134
sg35
g132
sg143
I0
stRp2457
sg145
g146
sg147
F1
sg148
Nsg30
S'CsubhA'
p2458
sbasg120
g2391
sg123
F0.59348999999999996
sg124
g125
sg33
S'86'
p2459
sg127
g1
(g128
g12
(dp2460
g130
I8
sg131
g132
sg133
g134
sg135
g132
sg136
I01
sg34
g173
sg138
g134
sg139
I0
sg140
I0
sg141
I0
sg142
g134
sg35
g132
sg143
I0
stRp2461
sg145
g146
sg147
F1
sg148
Nsg30
S'NoName'
p2462
sbag1
(g2
g3
NtRp2463
(dp2464
g6
g1
(g7
g3
NtRp2465
(dp2466
g10
g1
(g11
g12
(dtRp2467
sg14
g1
(g11
g12
(dtRp2468
sg16
g1
(g11
g12
(dtRp2469
sg18
g1
(g11
g12
(dtRp2470
sg20
g1
(g11
g12
(dtRp2471
sg22
g1
(g11
g12
(dtRp2472
sbsg24
S'Cal'
p2473
sg26
g27
((lp2474
g29
ag30
aS'sequence'
p2475
ag32
ag33
aS'species'
p2476
atRp2477
sg37
(lp2478
sg120
g2391
sg121
S'RWLSTKDLYSRMELPGLNQNVHAMFVMPLGFGNPLGDMFARLNNSFWLPPLSLDGPGTGWTVYPPLSHSGASVDFAFHLTSSLLGAINFTNMRGPLFWTALLLLSLPVLVATLLDRNFNTFEGGDPLYHLFWFFGHPEVYMIPGFGSHSTYKKFGMYASIGLGFVWSHHMFVGLDDRAYFTSATMMAPTGIKFSWMATYGGYPMLAFLFLFTGGTGVINASDAFHDTYYIVHFHYVLSMGAFSLGYYYWPGLYNLFWFNFPMHFLGGMPRRPYPDAGWNSGSAYQLGPDESNEPH'
p2479
sg123
F0.40044000000000002
sg124
g125
sg33
S'4'
sg127
g1
(g128
g12
(dp2480
g130
I4
sg131
g132
sg133
g134
sg135
g132
sg136
I01
sg34
g137
sg138
g134
sg139
I0
sg140
I0
sg141
I0
sg142
g134
sg35
g132
sg143
I0
stRp2481
sg145
g146
sg147
F1
sg148
Nsg30
S'CalaiA'
p2482
sbasg120
g952
sg123
F0.080810000000000007
sg124
g125
sg33
S'22'
p2483
sg127
g1
(g128
g12
(dp2484
g130
I8
sg131
g132
sg133
g134
sg135
g132
sg136
I01
sg34
g173
sg138
g134
sg139
I0
sg140
I0
sg141
I0
sg142
g134
sg35
g132
sg143
I0
stRp2485
sg145
g146
sg147
F0.98999999999999999
sg148
Nsg30
S'NoName'
p2486
sbasg120
g690
sg123
F0.075389999999999999
sg124
g125
sg33
S'205'
p2487
sg127
g1
(g128
g12
(dp2488
g130
I8
sg131
g132
sg133
g134
sg135
g132
sg136
I01
sg34
g173
sg138
g134
sg139
I0
sg140
I0
sg141
I0
sg142
g134
sg35
g132
sg143
I0
stRp2489
sg145
g146
sg147
F0.94999999999999996
sg148
Nsg30
S'NoName'
p2490
sbasg120
g677
sg123
F1.2542500000000001
sg124
g125
sg33
S'182'
p2491
sg127
g1
(g128
g12
(dp2492
g130
I8
sg131
g132
sg133
g134
sg135
g132
sg136
I01
sg34
g173
sg138
g134
sg139
I0
sg140
I0
sg141
I0
sg142
g134
sg35
g132
sg143
I0
stRp2493
sg145
g146
sg147
F0.97999999999999998
sg148
Nsg30
S'NoName'
p2494
sbag1
(g2
g3
NtRp2495
(dp2496
g6
g1
(g7
g3
NtRp2497
(dp2498
g10
g1
(g11
g12
(dtRp2499
sg14
g1
(g11
g12
(dtRp2500
sg16
g1
(g11
g12
(dtRp2501
sg18
g1
(g11
g12
(dtRp2502
sg20
g1
(g11
g12
(dtRp2503
sg22
g1
(g11
g12
(dtRp2504
sbsg24
g25
sg26
g27
((lp2505
g33
ag32
ag29
ag30
atRp2506
sg37
(lp2507
g1
(g2
g3
NtRp2508
(dp2509
g6
g1
(g7
g3
NtRp2510
(dp2511
g10
g1
(g11
g12
(dtRp2512
sg14
g1
(g11
g12
(dtRp2513
sg16
g1
(g11
g12
(dtRp2514
sg18
g1
(g11
g12
(dtRp2515
sg20
g1
(g11
g12
(dtRp2516
sg22
g1
(g11
g12
(dtRp2517
sbsg24
g25
sg26
g27
((lp2518
g33
ag32
ag29
ag30
atRp2519
sg37
(lp2520
g1
(g2
g3
NtRp2521
(dp2522
g6
g1
(g7
g3
NtRp2523
(dp2524
g10
g1
(g11
g12
(dtRp2525
sg14
g1
(g11
g12
(dtRp2526
sg16
g1
(g11
g12
(dtRp2527
sg18
g1
(g11
g12
(dtRp2528
sg20
g1
(g11
g12
(dtRp2529
sg22
g1
(g11
g12
(dtRp2530
sbsg24
S'Ppa'
p2531
sg26
g27
((lp2532
g29
ag30
aS'sequence'
p2533
ag32
ag33
aS'species'
p2534
atRp2535
sg37
(lp2536
sg120
g2508
sg121
S'RWLSTKDLYSRLELPGLNQNVHAMFVMPAGFGNPMGDMFARLNNSFWLPPLSLEGAGTGWTVYPPLAHSGPSVDLAFHLTSSLLGAMNFTNMRGPLFWTSLLLLSLPVLAGTLLDRNFNTFEGGDPLYHLFWFFGHPEVYIMPGFGSHSTYKKFGMYASIGLGLVWSHHMYVGLDDRAYFTSATMMAPTGMKFSWLATYGGRPMLAFLFLFTGGSGVLNASDAFHDTYYVIHFHYVLSLGAFSLGYYYWPGLYNLFWFNFPMHFLGGMPRRPYPDAGWNSGSSYQLGPDESNDPH'
p2537
sg123
F0.16184999999999999
sg124
g125
sg33
S'49'
p2538
sg127
g1
(g128
g12
(dp2539
g130
I4
sg131
g132
sg133
g134
sg135
g132
sg136
I01
sg34
g137
sg138
g134
sg139
I0
sg140
I0
sg141
I0
sg142
g134
sg35
g132
sg143
I0
stRp2540
sg145
g146
sg147
F1
sg148
Nsg30
S'PpastA'
p2541
sbag1
(g2
g3
NtRp2542
(dp2543
g6
g1
(g7
g3
NtRp2544
(dp2545
g10
g1
(g11
g12
(dtRp2546
sg14
g1
(g11
g12
(dtRp2547
sg16
g1
(g11
g12
(dtRp2548
sg18
g1
(g11
g12
(dtRp2549
sg20
g1
(g11
g12
(dtRp2550
sg22
g1
(g11
g12
(dtRp2551
sbsg24
g25
sg26
g27
((lp2552
g33
ag32
ag29
ag30
atRp2553
sg37
(lp2554
g1
(g2
g3
NtRp2555
(dp2556
g6
g1
(g7
g3
NtRp2557
(dp2558
g10
g1
(g11
g12
(dtRp2559
sg14
g1
(g11
g12
(dtRp2560
sg16
g1
(g11
g12
(dtRp2561
sg18
g1
(g11
g12
(dtRp2562
sg20
g1
(g11
g12
(dtRp2563
sg22
g1
(g11
g12
(dtRp2564
sbsg24
S'Pta'
p2565
sg26
g27
((lp2566
g29
ag30
aS'sequence'
p2567
ag32
ag33
aS'species'
p2568
atRp2569
sg37
(lp2570
sg120
g2542
sg121
S'RWLSTKDLYSRLELPGLNQNVHAMFVMPAGFGNPMGDMFARLNNSFWLPPLSLEGAGTGWTVYPPLSHSGPSVDLAFHLTSSLLGGMNFTNMRGPLFWTSLLVLTLPVLAGTLLDRNFNTFEGGDPLYHLFWFFGHPEVYIIPGFGSHSAYKKFGMYASIGLGLVWSHHMYVGLDDRAYFTSATMIAPTGIKFSWLATYGGRPMLAFLFLFTGGSGVLNASDAFHDTYYVMHFHYVLSLGAFSLGYYYWPGLYNLFWFNFPMHFLGGMPRRPYPDAGFNSGSSYQLGPDESNEPH'
p2571
sg123
F0.23080999999999999
sg124
g125
sg33
S'46'
p2572
sg127
g1
(g128
g12
(dp2573
g130
I4
sg131
g132
sg133
g134
sg135
g132
sg136
I01
sg34
g137
sg138
g134
sg139
I0
sg140
I0
sg141
I0
sg142
g134
sg35
g132
sg143
I0
stRp2574
sg145
g146
sg147
F1
sg148
Nsg30
S'PtannA'
p2575
sbag1
(g2
g3
NtRp2576
(dp2577
g6
g1
(g7
g3
NtRp2578
(dp2579
g10
g1
(g11
g12
(dtRp2580
sg14
g1
(g11
g12
(dtRp2581
sg16
g1
(g11
g12
(dtRp2582
sg18
g1
(g11
g12
(dtRp2583
sg20
g1
(g11
g12
(dtRp2584
sg22
g1
(g11
g12
(dtRp2585
sbsg24
g25
sg26
g27
((lp2586
g33
ag32
ag29
ag30
atRp2587
sg37
(lp2588
g1
(g2
g3
NtRp2589
(dp2590
g6
g1
(g7
g3
NtRp2591
(dp2592
g10
g1
(g11
g12
(dtRp2593
sg14
g1
(g11
g12
(dtRp2594
sg16
g1
(g11
g12
(dtRp2595
sg18
g1
(g11
g12
(dtRp2596
sg20
g1
(g11
g12
(dtRp2597
sg22
g1
(g11
g12
(dtRp2598
sbsg24
g25
sg26
g27
((lp2599
g33
ag32
ag29
ag30
atRp2600
sg37
(lp2601
g1
(g2
g3
NtRp2602
(dp2603
g6
g1
(g7
g3
NtRp2604
(dp2605
g10
g1
(g11
g12
(dtRp2606
sg14
g1
(g11
g12
(dtRp2607
sg16
g1
(g11
g12
(dtRp2608
sg18
g1
(g11
g12
(dtRp2609
sg20
g1
(g11
g12
(dtRp2610
sg22
g1
(g11
g12
(dtRp2611
sbsg24
S'Pkl'
p2612
sg26
g27
((lp2613
g29
ag30
aS'sequence'
p2614
ag32
ag33
aS'species'
p2615
atRp2616
sg37
(lp2617
sg120
g2589
sg121
S'RWLSTKDLYSRLELPGLNQNVHAMFMMPTGFGNPMGDMFARLNNSFWLPPLSLEGPGTGWTVYPPLSHSGPSVDLAFHLTSSLLGAMNFTNMRGPLFWTALLVMTLPVLAGTLLDRNFNTFEGGDPLYHLFWFFGHPEVYMMPGFGSHSTYKKFGMYASMGLGLVWSHHMYVGLDDRAYFTSATMMAPTGMKFSWLATYGGRPMLAFMFIFTGGSGVLNASDAFHDTYYVMHFHYVLSLGAFAMGYYYWPGLFNLFWFNFPMHFLGGMPRRPYPDAGFNSGASYQLGPDESNEPH'
p2618
sg123
F0.12625
sg124
g125
sg33
S'199'
p2619
sg127
g1
(g128
g12
(dp2620
g130
I4
sg131
g132
sg133
g134
sg135
g132
sg136
I01
sg34
g137
sg138
g134
sg139
I0
sg140
I0
sg141
I0
sg142
g134
sg35
g132
sg143
I0
stRp2621
sg145
g146
sg147
F1
sg148
Nsg30
S'PkluyA'
p2622
sbag1
(g2
g3
NtRp2623
(dp2624
g6
g1
(g7
g3
NtRp2625
(dp2626
g10
g1
(g11
g12
(dtRp2627
sg14
g1
(g11
g12
(dtRp2628
sg16
g1
(g11
g12
(dtRp2629
sg18
g1
(g11
g12
(dtRp2630
sg20
g1
(g11
g12
(dtRp2631
sg22
g1
(g11
g12
(dtRp2632
sbsg24
S'Bcu'
p2633
sg26
g27
((lp2634
g29
ag30
aS'sequence'
p2635
ag32
ag33
aS'species'
p2636
atRp2637
sg37
(lp2638
sg120
g2589
sg121
S'RWLSTKDLYSRLELPGLDQNVHSMFMMPTGFGNPMGDMFARLNNAFWYPPLSLEGPGTGWTVYPPLSHSGPSMDLAFHLTSSMLSSMNFTNMRGPLFWTALLMMTLPVLAGTLLDRNFNTFEGGDPLYHLYWFFGHPEVYIIPVFGSHSNYKKFGMYASMGLGLVWSHHMYVGLDDRAYFTSATMIAPTGIKFSWLATYGGRPMLAFLFMFTGGSGVLNASDAFHDTYFVVHFHYVLSLGVYGVGYYFWPGLYNMFWFNFPMHFLGGMPRRPYPDAGFNSGSAYQLGPDESNEPH'
p2639
sg123
F0.30854999999999999
sg124
g125
sg33
S'31'
p2640
sg127
g1
(g128
g12
(dp2641
g130
I4
sg131
g132
sg133
g134
sg135
g132
sg136
I01
sg34
g137
sg138
g134
sg139
I0
sg140
I0
sg141
I0
sg142
g134
sg35
g132
sg143
I0
stRp2642
sg145
g146
sg147
F1
sg148
Nsg30
S'BcustA'
p2643
sbasg120
g2576
sg123
F0.19120999999999999
sg124
g125
sg33
S'93'
p2644
sg127
g1
(g128
g12
(dp2645
g130
I8
sg131
g132
sg133
g134
sg135
g132
sg136
I01
sg34
g173
sg138
g134
sg139
I0
sg140
I0
sg141
I0
sg142
g134
sg35
g132
sg143
I0
stRp2646
sg145
g146
sg147
F0.98999999999999999
sg148
Nsg30
S'NoName'
p2647
sbag1
(g2
g3
NtRp2648
(dp2649
g6
g1
(g7
g3
NtRp2650
(dp2651
g10
g1
(g11
g12
(dtRp2652
sg14
g1
(g11
g12
(dtRp2653
sg16
g1
(g11
g12
(dtRp2654
sg18
g1
(g11
g12
(dtRp2655
sg20
g1
(g11
g12
(dtRp2656
sg22
g1
(g11
g12
(dtRp2657
sbsg24
S'Oan'
p2658
sg26
g27
((lp2659
g29
ag30
aS'sequence'
p2660
ag32
ag33
aS'species'
p2661
atRp2662
sg37
(lp2663
sg120
g2576
sg121
S'RWLSTKDLYSRLELPGLNQNAHAMFVMPAGFGNPMGDMFARLNNSFWLPPLSLEGAGTGWTVYPPLSHSGPSVDLAFHLTSSLLGAINFTNMRGPLFWTALLLLSLPVLAGTLLDRNFNTFEGGDPLYHLFWFFGHPEVYIIPGFGSHSTYKKFGMYASIGLGLVWSHHMYVGLDDRAYFTSATMIAPTGIKFSWIATYGGRPMLAFLFLFTGGSGVLNASDAFHDTYYVIHFHYVLSLGAFSLGYYYWPGLYNLFWFNFPMHFLGGMPRRPYPDAGYNSGSSYQLGPDESNEPH'
p2664
sg123
F0.025399999999999999
sg124
g125
sg33
S'84'
p2665
sg127
g1
(g128
g12
(dp2666
g130
I4
sg131
g132
sg133
g134
sg135
g132
sg136
I01
sg34
g137
sg138
g134
sg139
I0
sg140
I0
sg141
I0
sg142
g134
sg35
g132
sg143
I0
stRp2667
sg145
g146
sg147
F1
sg148
Nsg30
S'OanguA'
p2668
sbasg120
g2542
sg123
F0.33273999999999998
sg124
g125
sg33
S'215'
p2669
sg127
g1
(g128
g12
(dp2670
g130
I8
sg131
g132
sg133
g134
sg135
g132
sg136
I01
sg34
g173
sg138
g134
sg139
I0
sg140
I0
sg141
I0
sg142
g134
sg35
g132
sg143
I0
stRp2671
sg145
g146
sg147
F0.98999999999999999
sg148
Nsg30
S'NoName'
p2672
sbasg120
g2508
sg123
F0.054379999999999998
sg124
g125
sg33
S'100'
p2673
sg127
g1
(g128
g12
(dp2674
g130
I8
sg131
g132
sg133
g134
sg135
g132
sg136
I01
sg34
g173
sg138
g134
sg139
I0
sg140
I0
sg141
I0
sg142
g134
sg35
g132
sg143
I0
stRp2675
sg145
g146
sg147
F0.96999999999999997
sg148
Nsg30
S'NoName'
p2676
sbasg120
g2495
sg123
F0.76378000000000001
sg124
g125
sg33
S'60'
p2677
sg127
g1
(g128
g12
(dp2678
g130
I8
sg131
g132
sg133
g134
sg135
g132
sg136
I01
sg34
g173
sg138
g134
sg139
I0
sg140
I0
sg141
I0
sg142
g134
sg35
g132
sg143
I0
stRp2679
sg145
g146
sg147
F0.98999999999999999
sg148
Nsg30
S'NoName'
p2680
sbag1
(g2
g3
NtRp2681
(dp2682
g6
g1
(g7
g3
NtRp2683
(dp2684
g10
g1
(g11
g12
(dtRp2685
sg14
g1
(g11
g12
(dtRp2686
sg16
g1
(g11
g12
(dtRp2687
sg18
g1
(g11
g12
(dtRp2688
sg20
g1
(g11
g12
(dtRp2689
sg22
g1
(g11
g12
(dtRp2690
sbsg24
g25
sg26
g27
((lp2691
g33
ag32
ag29
ag30
atRp2692
sg37
(lp2693
g1
(g2
g3
NtRp2694
(dp2695
g6
g1
(g7
g3
NtRp2696
(dp2697
g10
g1
(g11
g12
(dtRp2698
sg14
g1
(g11
g12
(dtRp2699
sg16
g1
(g11
g12
(dtRp2700
sg18
g1
(g11
g12
(dtRp2701
sg20
g1
(g11
g12
(dtRp2702
sg22
g1
(g11
g12
(dtRp2703
sbsg24
g25
sg26
g27
((lp2704
g33
ag32
ag29
ag30
atRp2705
sg37
(lp2706
g1
(g2
g3
NtRp2707
(dp2708
g6
g1
(g7
g3
NtRp2709
(dp2710
g10
g1
(g11
g12
(dtRp2711
sg14
g1
(g11
g12
(dtRp2712
sg16
g1
(g11
g12
(dtRp2713
sg18
g1
(g11
g12
(dtRp2714
sg20
g1
(g11
g12
(dtRp2715
sg22
g1
(g11
g12
(dtRp2716
sbsg24
g25
sg26
g27
((lp2717
g33
ag32
ag29
ag30
atRp2718
sg37
(lp2719
g1
(g2
g3
NtRp2720
(dp2721
g6
g1
(g7
g3
NtRp2722
(dp2723
g10
g1
(g11
g12
(dtRp2724
sg14
g1
(g11
g12
(dtRp2725
sg16
g1
(g11
g12
(dtRp2726
sg18
g1
(g11
g12
(dtRp2727
sg20
g1
(g11
g12
(dtRp2728
sg22
g1
(g11
g12
(dtRp2729
sbsg24
g25
sg26
g27
((lp2730
g33
ag32
ag29
ag30
atRp2731
sg37
(lp2732
g1
(g2
g3
NtRp2733
(dp2734
g6
g1
(g7
g3
NtRp2735
(dp2736
g10
g1
(g11
g12
(dtRp2737
sg14
g1
(g11
g12
(dtRp2738
sg16
g1
(g11
g12
(dtRp2739
sg18
g1
(g11
g12
(dtRp2740
sg20
g1
(g11
g12
(dtRp2741
sg22
g1
(g11
g12
(dtRp2742
sbsg24
S'Cva'
p2743
sg26
g27
((lp2744
g29
ag30
aS'sequence'
p2745
ag32
ag33
aS'species'
p2746
atRp2747
sg37
(lp2748
sg120
g2720
sg121
S'RWLSTKDLYSRLELPGLNQNVHAMFVMPLGFGNPLGDMFARLNNSFWLPPLSLEGAGTGWTIYPPLSHSSPSVDLGFHLTSSLLGAINFTNMRGPLFWTAMLLLSLPVLAGTLLDRNFNTFEGGDPLYHLFWFFGHPEVYIIPGFGSHSTYKKFGMYASIALGFVWSHHMYVGLDDRAYFTSSTMIAPTGIKFSWLATYGGRPMLAFLFLFTGGTGVLNASDAFHDTYYVVHFHYVLSMGAFSLGYYYWPGLYNLFWFNFPMHFLGGMPRRPYPDAGWNSGSSYQLGPDESNEPH'
p2749
sg123
F0.043270000000000003
sg124
g125
sg33
S'68'
p2750
sg127
g1
(g128
g12
(dp2751
g130
I4
sg131
g132
sg133
g134
sg135
g132
sg136
I01
sg34
g137
sg138
g134
sg139
I0
sg140
I0
sg141
I0
sg142
g134
sg35
g132
sg143
I0
stRp2752
sg145
g146
sg147
F1
sg148
Nsg30
S'CvartA'
p2753
sbag1
(g2
g3
NtRp2754
(dp2755
g6
g1
(g7
g3
NtRp2756
(dp2757
g10
g1
(g11
g12
(dtRp2758
sg14
g1
(g11
g12
(dtRp2759
sg16
g1
(g11
g12
(dtRp2760
sg18
g1
(g11
g12
(dtRp2761
sg20
g1
(g11
g12
(dtRp2762
sg22
g1
(g11
g12
(dtRp2763
sbsg24
g25
sg26
g27
((lp2764
g33
ag32
ag29
ag30
atRp2765
sg37
(lp2766
g1
(g2
g3
NtRp2767
(dp2768
g6
g1
(g7
g3
NtRp2769
(dp2770
g10
g1
(g11
g12
(dtRp2771
sg14
g1
(g11
g12
(dtRp2772
sg16
g1
(g11
g12
(dtRp2773
sg18
g1
(g11
g12
(dtRp2774
sg20
g1
(g11
g12
(dtRp2775
sg22
g1
(g11
g12
(dtRp2776
sbsg24
S'Csu'
p2777
sg26
g27
((lp2778
g29
ag30
aS'sequence'
p2779
ag32
ag33
aS'species'
p2780
atRp2781
sg37
(lp2782
sg120
g2754
sg121
S'RWLSTKDLYSRLELPGLNQNVHAMFVMPLGFGNPLGDMFARLNNSFWLPPLSLEGAGTGWTIYPPLSHSSPSVDLGFHLTSSMLGAINFTNMRGPLFWTAMLLLSLPVLAGTLLDRNFNTFEGGDPLYHLFWFFGHPEVYIIPGFGSHSTYKKFGMYASIALGFVWSHHMYVGLDDRAYFTSSTMIAPTGIKFSWLATYGGRPMLAFLFLFTGGTGVLNASDAFHDSYYY-HFHYVLSMGAFSLGYYYWPGLYNLFWFNFPMHFLGGMPRRPYPDAGWNSGSSYQLGPDESNEPH'
p2783
sg123
F0.0043699999999999998
sg124
g125
sg33
S'2'
sg127
g1
(g128
g12
(dp2784
g130
I4
sg131
g132
sg133
g134
sg135
g132
sg136
I01
sg34
g137
sg138
g134
sg139
I0
sg140
I0
sg141
I0
sg142
g134
sg35
g132
sg143
I0
stRp2785
sg145
g146
sg147
F1
sg148
Nsg30
S'CsuavB'
p2786
sbag1
(g2
g3
NtRp2787
(dp2788
g6
g1
(g7
g3
NtRp2789
(dp2790
g10
g1
(g11
g12
(dtRp2791
sg14
g1
(g11
g12
(dtRp2792
sg16
g1
(g11
g12
(dtRp2793
sg18
g1
(g11
g12
(dtRp2794
sg20
g1
(g11
g12
(dtRp2795
sg22
g1
(g11
g12
(dtRp2796
sbsg24
S'Csu'
p2797
sg26
g27
((lp2798
g29
ag30
aS'sequence'
p2799
ag32
ag33
aS'species'
p2800
atRp2801
sg37
(lp2802
sg120
g2754
sg121
S'RWLSTKDLYSRLELPGLNQNVHAMFVMPLGFGNPLGDMFARLNNSFWLPPLSLEGAGTGWTIYPPLSHSSPSVDLGFHLTSSLLGAINFTNMRGPLFWTAMLLLSLPVLAGTLLDRNFNTFEGGDPLYHLFWFFGHPEVYIIPGFGSHSTYKKFGMYASIALGFVWSHHMYVGLDDRAYFTSSTMIAPTGIKFSWLATYGGRPMLAFLFLFTGGTGVLNASDAFHDTYYVVHFHYVLSMGAFSLGYYYWPGLYNLFWFNFPMHFLGGMPRRPYPDAGWNSGSSYQLGPDESNEPH'
p2803
sg123
F0.0025999999999999999
sg124
g125
sg33
S'174'
p2804
sg127
g1
(g128
g12
(dp2805
g130
I4
sg131
g132
sg133
g134
sg135
g132
sg136
I01
sg34
g137
sg138
g134
sg139
I0
sg140
I0
sg141
I0
sg142
g134
sg35
g132
sg143
I0
stRp2806
sg145
g146
sg147
F1
sg148
Nsg30
S'CsuavA'
p2807
sbasg120
g2720
sg123
F0.016740000000000001
sg124
g125
sg33
S'26'
p2808
sg127
g1
(g128
g12
(dp2809
g130
I8
sg131
g132
sg133
g134
sg135
g132
sg136
I01
sg34
g173
sg138
g134
sg139
I0
sg140
I0
sg141
I0
sg142
g134
sg35
g132
sg143
I0
stRp2810
sg145
g146
sg147
F0.98999999999999999
sg148
Nsg30
S'NoName'
p2811
sbasg120
g2707
sg123
F0.01158
sg124
g125
sg33
S'210'
p2812
sg127
g1
(g128
g12
(dp2813
g130
I8
sg131
g132
sg133
g134
sg135
g132
sg136
I01
sg34
g173
sg138
g134
sg139
I0
sg140
I0
sg141
I0
sg142
g134
sg35
g132
sg143
I0
stRp2814
sg145
g146
sg147
F0.97999999999999998
sg148
Nsg30
S'NoName'
p2815
sbag1
(g2
g3
NtRp2816
(dp2817
g6
g1
(g7
g3
NtRp2818
(dp2819
g10
g1
(g11
g12
(dtRp2820
sg14
g1
(g11
g12
(dtRp2821
sg16
g1
(g11
g12
(dtRp2822
sg18
g1
(g11
g12
(dtRp2823
sg20
g1
(g11
g12
(dtRp2824
sg22
g1
(g11
g12
(dtRp2825
sbsg24
S'Cja'
p2826
sg26
g27
((lp2827
g29
ag30
aS'sequence'
p2828
ag32
ag33
aS'species'
p2829
atRp2830
sg37
(lp2831
sg120
g2707
sg121
S'RWLSTKDLYSRLELPGLNQNVHAMFVMPLGFGNPLGDMFARLNNSFWLPPLSLEGAGTGWTIYPPLAHSSPSVDLGFHLTSSLLGAINFTNMRGPLFWTAMLLLSLPVLAGTLLDRNFNTFEGGDPLYHLFWFFGHPEVYIIPGFGSHSTYKKFGMYASIALGFVWSHHMYVGLDDRAYFTSSTMIAPTGIKFSWLATYGGRPMLAFLFLFTGGTGVLNASDAFHDTYYVVHFHYVLSMGAFSLGYYYWPGLYNLFWFNFPMHFLGGMPRRPYPDAGWNSGSSYQLGPDESNEPH'
p2832
sg123
F0.033799999999999997
sg124
g125
sg33
S'219'
p2833
sg127
g1
(g128
g12
(dp2834
g130
I4
sg131
g132
sg133
g134
sg135
g132
sg136
I01
sg34
g137
sg138
g134
sg139
I0
sg140
I0
sg141
I0
sg142
g134
sg35
g132
sg143
I0
stRp2835
sg145
g146
sg147
F1
sg148
Nsg30
S'CjadiA'
p2836
sbasg120
g2694
sg123
F0.10375
sg124
g125
sg33
S'167'
p2837
sg127
g1
(g128
g12
(dp2838
g130
I8
sg131
g132
sg133
g134
sg135
g132
sg136
I01
sg34
g173
sg138
g134
sg139
I0
sg140
I0
sg141
I0
sg142
g134
sg35
g132
sg143
I0
stRp2839
sg145
g146
sg147
F0.98999999999999999
sg148
Nsg30
S'NoName'
p2840
sbag1
(g2
g3
NtRp2841
(dp2842
g6
g1
(g7
g3
NtRp2843
(dp2844
g10
g1
(g11
g12
(dtRp2845
sg14
g1
(g11
g12
(dtRp2846
sg16
g1
(g11
g12
(dtRp2847
sg18
g1
(g11
g12
(dtRp2848
sg20
g1
(g11
g12
(dtRp2849
sg22
g1
(g11
g12
(dtRp2850
sbsg24
g25
sg26
g27
((lp2851
g33
ag32
ag29
ag30
atRp2852
sg37
(lp2853
g1
(g2
g3
NtRp2854
(dp2855
g6
g1
(g7
g3
NtRp2856
(dp2857
g10
g1
(g11
g12
(dtRp2858
sg14
g1
(g11
g12
(dtRp2859
sg16
g1
(g11
g12
(dtRp2860
sg18
g1
(g11
g12
(dtRp2861
sg20
g1
(g11
g12
(dtRp2862
sg22
g1
(g11
g12
(dtRp2863
sbsg24
g25
sg26
g27
((lp2864
g33
ag32
ag29
ag30
atRp2865
sg37
(lp2866
g1
(g2
g3
NtRp2867
(dp2868
g6
g1
(g7
g3
NtRp2869
(dp2870
g10
g1
(g11
g12
(dtRp2871
sg14
g1
(g11
g12
(dtRp2872
sg16
g1
(g11
g12
(dtRp2873
sg18
g1
(g11
g12
(dtRp2874
sg20
g1
(g11
g12
(dtRp2875
sg22
g1
(g11
g12
(dtRp2876
sbsg24
S'Wpi'
p2877
sg26
g27
((lp2878
g29
ag30
aS'sequence'
p2879
ag32
ag33
aS'species'
p2880
atRp2881
sg37
(lp2882
sg120
g2854
sg121
S'RWLSTKDLYSRLELPGLNQNVHAMFVMPLGFGNPLGDMFARLNNSFWLPPLSLEGAGTGWTIYPPLSHSSPSVDLGFHLTSSLLGAINFTNMRGPLFWTAMLLLSLPVLAGTLLDRNFNTFEGGDPLYHLFWFFGHPEVYIIPGFGSHSTYKKFGMYASIALGFVWSHHMYVGLDDRAYFTSSTMIAPTGIKFSWLATYGGRPMLAFLFLFTGGTGVLNASDAFHDTYYVVHFHYVLSMGAFSLGYYYWPGLYNLFWFNFPMHFLGGMPRRPYPDAGWNSGSSFQLGPDESNEPH'
p2883
sg123
F0.051209999999999999
sg124
g125
sg33
S'43'
p2884
sg127
g1
(g128
g12
(dp2885
g130
I4
sg131
g132
sg133
g134
sg135
g132
sg136
I01
sg34
g137
sg138
g134
sg139
I0
sg140
I0
sg141
I0
sg142
g134
sg35
g132
sg143
I0
stRp2886
sg145
g146
sg147
F1
sg148
Nsg30
S'WpijpA'
p2887
sbag1
(g2
g3
NtRp2888
(dp2889
g6
g1
(g7
g3
NtRp2890
(dp2891
g10
g1
(g11
g12
(dtRp2892
sg14
g1
(g11
g12
(dtRp2893
sg16
g1
(g11
g12
(dtRp2894
sg18
g1
(g11
g12
(dtRp2895
sg20
g1
(g11
g12
(dtRp2896
sg22
g1
(g11
g12
(dtRp2897
sbsg24
S'Wmu'
p2898
sg26
g27
((lp2899
g29
ag30
aS'sequence'
p2900
ag32
ag33
aS'species'
p2901
atRp2902
sg37
(lp2903
sg120
g2854
sg121
S'RWLSTKDLYSRLELPGLNQNVHAMFVMPLGFGNPLGDMFARLNNSFWLPPLSLEGAGTGWTIYPPLAHSSPSVDLGFHLTSSLLGAINFTNMRGPLFWTAMLLLSLPVLAGTLLDRNFNTFEGGDPLYHLFWFFGHPEVYIIPGFGSHSTYKKFGMYASIALGFVWSHHMYVGLDDRAYFTSSTMIAPTGIKFSWLATYGGRPMLAFLFLFTGGTGVLNASDAFHDTYYVVHFHYVLSMGAFSLGYYYWPGLYNLFWFNFPMHFLGGMPRRPYPDAGWNSGSSYQLGPDESNEPH'
p2904
sg123
F0.079170000000000004
sg124
g125
sg33
S'92'
p2905
sg127
g1
(g128
g12
(dp2906
g130
I4
sg131
g132
sg133
g134
sg135
g132
sg136
I01
sg34
g137
sg138
g134
sg139
I0
sg140
I0
sg141
I0
sg142
g134
sg35
g132
sg143
I0
stRp2907
sg145
g146
sg147
F1
sg148
Nsg30
S'WmucoA'
p2908
sbasg120
g2841
sg123
F0.14757000000000001
sg124
g125
sg33
S'154'
p2909
sg127
g1
(g128
g12
(dp2910
g130
I8
sg131
g132
sg133
g134
sg135
g132
sg136
I01
sg34
g173
sg138
g134
sg139
I0
sg140
I0
sg141
I0
sg142
g134
sg35
g132
sg143
I0
stRp2911
sg145
g146
sg147
F0.98999999999999999
sg148
Nsg30
S'NoName'
p2912
sbag1
(g2
g3
NtRp2913
(dp2914
g6
g1
(g7
g3
NtRp2915
(dp2916
g10
g1
(g11
g12
(dtRp2917
sg14
g1
(g11
g12
(dtRp2918
sg16
g1
(g11
g12
(dtRp2919
sg18
g1
(g11
g12
(dtRp2920
sg20
g1
(g11
g12
(dtRp2921
sg22
g1
(g11
g12
(dtRp2922
sbsg24
g25
sg26
g27
((lp2923
g33
ag32
ag29
ag30
atRp2924
sg37
(lp2925
g1
(g2
g3
NtRp2926
(dp2927
g6
g1
(g7
g3
NtRp2928
(dp2929
g10
g1
(g11
g12
(dtRp2930
sg14
g1
(g11
g12
(dtRp2931
sg16
g1
(g11
g12
(dtRp2932
sg18
g1
(g11
g12
(dtRp2933
sg20
g1
(g11
g12
(dtRp2934
sg22
g1
(g11
g12
(dtRp2935
sbsg24
S'Pca'
p2936
sg26
g27
((lp2937
g29
ag30
aS'sequence'
p2938
ag32
ag33
aS'species'
p2939
atRp2940
sg37
(lp2941
sg120
g2913
sg121
S'RWLSTKDLYSRLELPGLNQNVHAMFVMPLGFGNPLGDMFARLNNSFWLPPLSLEWAGTGWTIYPPLSHSSPSVDLGFHLTSSLLGAINFTNMRGPLFWTAMLLLSLPVLAGTLLDRNFNTFEGGDPLYHLFWFFGHPEVYIIPGFGSHSTYKKFGMYASIALGFVWSHHMYVGLDDRAYFTSSTMIAPTGIKFSWLATYGGRPMLAFLFLFTGGTGVLNASDAFHDTYYVVHFHYVLSMGAFSLGYYYWPGLFNLFWFNFPMHFLGGMPRRPYPDAGWNSGSSYQLGPDESNEPH'
p2942
sg123
F0.10655000000000001
sg124
g125
sg33
S'196'
p2943
sg127
g1
(g128
g12
(dp2944
g130
I4
sg131
g132
sg133
g134
sg135
g132
sg136
I01
sg34
g137
sg138
g134
sg139
I0
sg140
I0
sg141
I0
sg142
g134
sg35
g132
sg143
I0
stRp2945
sg145
g146
sg147
F1
sg148
Nsg30
S'PcanaA'
p2946
sbag1
(g2
g3
NtRp2947
(dp2948
g6
g1
(g7
g3
NtRp2949
(dp2950
g10
g1
(g11
g12
(dtRp2951
sg14
g1
(g11
g12
(dtRp2952
sg16
g1
(g11
g12
(dtRp2953
sg18
g1
(g11
g12
(dtRp2954
sg20
g1
(g11
g12
(dtRp2955
sg22
g1
(g11
g12
(dtRp2956
sbsg24
g25
sg26
g27
((lp2957
g33
ag32
ag29
ag30
atRp2958
sg37
(lp2959
g1
(g2
g3
NtRp2960
(dp2961
g6
g1
(g7
g3
NtRp2962
(dp2963
g10
g1
(g11
g12
(dtRp2964
sg14
g1
(g11
g12
(dtRp2965
sg16
g1
(g11
g12
(dtRp2966
sg18
g1
(g11
g12
(dtRp2967
sg20
g1
(g11
g12
(dtRp2968
sg22
g1
(g11
g12
(dtRp2969
sbsg24
S'Cno'
p2970
sg26
g27
((lp2971
g29
ag30
aS'sequence'
p2972
ag32
ag33
aS'species'
p2973
atRp2974
sg37
(lp2975
sg120
g2947
sg121
S'RWLSTKDLYSRLELPGLNQNVHAMFVMPLGFGNPLGDMFARLNNSFWLPPLSLEGAGTGWTIYPPLSHSSPSVDLGFHLTSSLLGAMNFTNMRGPLFWTAMLLLSLPVLAGTLLDRNFNTFEGGDPLYHLFWFFGHPEVYMIPGFGSHSTYKKFGMYASMALGFVWSHHMYVGLDDRAYFTSSTMMAPTGMKFSWLATYGGRPMLAFLFLFTGGTGVLNASDAFHDTYYVVHFHYVLSMGAFSLGYYYWPGLYNLFWFNFPMHFLGGMPRRPYPDAGWNSGSSYQLGPDESNEPH'
p2976
sg123
F0.059069999999999998
sg124
g125
sg33
S'83'
p2977
sg127
g1
(g128
g12
(dp2978
g130
I4
sg131
g132
sg133
g134
sg135
g132
sg136
I01
sg34
g137
sg138
g134
sg139
I0
sg140
I0
sg141
I0
sg142
g134
sg35
g132
sg143
I0
stRp2979
sg145
g146
sg147
F1
sg148
Nsg30
S'CnorvA'
p2980
sbag1
(g2
g3
NtRp2981
(dp2982
g6
g1
(g7
g3
NtRp2983
(dp2984
g10
g1
(g11
g12
(dtRp2985
sg14
g1
(g11
g12
(dtRp2986
sg16
g1
(g11
g12
(dtRp2987
sg18
g1
(g11
g12
(dtRp2988
sg20
g1
(g11
g12
(dtRp2989
sg22
g1
(g11
g12
(dtRp2990
sbsg24
S'Bca'
p2991
sg26
g27
((lp2992
g29
ag30
aS'sequence'
p2993
ag32
ag33
aS'species'
p2994
atRp2995
sg37
(lp2996
sg120
g2947
sg121
S'RWLSTKDLYSRLELPGLNQNVHAMFVMPLGFGNPLGDMFARLNNSFWLPPLSLEGAGTGWTIYPPLSHSSPSVDLGFHLTSSLLGAINFTNMRGPLFWTAMLLLSLPVLAGTLLDRNFNTFEGGDPLYHLFWFFGHPEVYIMPGFGSHSTYKKFGMYASIALGFVWSHHMYVGLDDRAYFTSSTMIAPTGIKFSWLATYGGRPMLAFLFLFTGGTGVLNASDAFHDTYYVVHFHYVLSMGAFSLGYYYWPGLYNLFWFNFPMHFLGGMPRRPYPDAGWNSGSSYQLGPDESNEPH'
p2997
sg123
F0.031899999999999998
sg124
g125
sg33
S'112'
p2998
sg127
g1
(g128
g12
(dp2999
g130
I4
sg131
g132
sg133
g134
sg135
g132
sg136
I01
sg34
g137
sg138
g134
sg139
I0
sg140
I0
sg141
I0
sg142
g134
sg35
g132
sg143
I0
stRp3000
sg145
g146
sg147
F1
sg148
Nsg30
S'BcaliA'
p3001
sbasg120
g2913
sg123
F0.09486
sg124
g125
sg33
S'139'
p3002
sg127
g1
(g128
g12
(dp3003
g130
I8
sg131
g132
sg133
g134
sg135
g132
sg136
I01
sg34
g173
sg138
g134
sg139
I0
sg140
I0
sg141
I0
sg142
g134
sg35
g132
sg143
I0
stRp3004
sg145
g146
sg147
F0.97999999999999998
sg148
Nsg30
S'NoName'
p3005
sbasg120
g2841
sg123
F0.054690000000000003
sg124
g125
sg33
S'212'
p3006
sg127
g1
(g128
g12
(dp3007
g130
I8
sg131
g132
sg133
g134
sg135
g132
sg136
I01
sg34
g173
sg138
g134
sg139
I0
sg140
I0
sg141
I0
sg142
g134
sg35
g132
sg143
I0
stRp3008
sg145
g146
sg147
F0.96999999999999997
sg148
Nsg30
S'NoName'
p3009
sbasg120
g2694
sg123
F0.051860000000000003
sg124
g125
sg33
S'96'
p3010
sg127
g1
(g128
g12
(dp3011
g130
I8
sg131
g132
sg133
g134
sg135
g132
sg136
I01
sg34
g173
sg138
g134
sg139
I0
sg140
I0
sg141
I0
sg142
g134
sg35
g132
sg143
I0
stRp3012
sg145
g146
sg147
F0.96999999999999997
sg148
Nsg30
S'NoName'
p3013
sbasg120
g2681
sg123
F0.52095999999999998
sg124
g125
sg33
S'126'
p3014
sg127
g1
(g128
g12
(dp3015
g130
I8
sg131
g132
sg133
g134
sg135
g132
sg136
I01
sg34
g173
sg138
g134
sg139
I0
sg140
I0
sg141
I0
sg142
g134
sg35
g132
sg143
I0
stRp3016
sg145
g146
sg147
F0.98999999999999999
sg148
Nsg30
S'NoName'
p3017
sbag1
(g2
g3
NtRp3018
(dp3019
g6
g1
(g7
g3
NtRp3020
(dp3021
g10
g1
(g11
g12
(dtRp3022
sg14
g1
(g11
g12
(dtRp3023
sg16
g1
(g11
g12
(dtRp3024
sg18
g1
(g11
g12
(dtRp3025
sg20
g1
(g11
g12
(dtRp3026
sg22
g1
(g11
g12
(dtRp3027
sbsg24
g25
sg26
g27
((lp3028
g33
ag32
ag29
ag30
atRp3029
sg37
(lp3030
g1
(g2
g3
NtRp3031
(dp3032
g6
g1
(g7
g3
NtRp3033
(dp3034
g10
g1
(g11
g12
(dtRp3035
sg14
g1
(g11
g12
(dtRp3036
sg16
g1
(g11
g12
(dtRp3037
sg18
g1
(g11
g12
(dtRp3038
sg20
g1
(g11
g12
(dtRp3039
sg22
g1
(g11
g12
(dtRp3040
sbsg24
g25
sg26
g27
((lp3041
g33
ag32
ag29
ag30
atRp3042
sg37
(lp3043
g1
(g2
g3
NtRp3044
(dp3045
g6
g1
(g7
g3
NtRp3046
(dp3047
g10
g1
(g11
g12
(dtRp3048
sg14
g1
(g11
g12
(dtRp3049
sg16
g1
(g11
g12
(dtRp3050
sg18
g1
(g11
g12
(dtRp3051
sg20
g1
(g11
g12
(dtRp3052
sg22
g1
(g11
g12
(dtRp3053
sbsg24
g25
sg26
g27
((lp3054
g33
ag32
ag29
ag30
atRp3055
sg37
(lp3056
g1
(g2
g3
NtRp3057
(dp3058
g6
g1
(g7
g3
NtRp3059
(dp3060
g10
g1
(g11
g12
(dtRp3061
sg14
g1
(g11
g12
(dtRp3062
sg16
g1
(g11
g12
(dtRp3063
sg18
g1
(g11
g12
(dtRp3064
sg20
g1
(g11
g12
(dtRp3065
sg22
g1
(g11
g12
(dtRp3066
sbsg24
g25
sg26
g27
((lp3067
g33
ag32
ag29
ag30
atRp3068
sg37
(lp3069
g1
(g2
g3
NtRp3070
(dp3071
g6
g1
(g7
g3
NtRp3072
(dp3073
g10
g1
(g11
g12
(dtRp3074
sg14
g1
(g11
g12
(dtRp3075
sg16
g1
(g11
g12
(dtRp3076
sg18
g1
(g11
g12
(dtRp3077
sg20
g1
(g11
g12
(dtRp3078
sg22
g1
(g11
g12
(dtRp3079
sbsg24
g25
sg26
g27
((lp3080
g33
ag32
ag29
ag30
atRp3081
sg37
(lp3082
g1
(g2
g3
NtRp3083
(dp3084
g6
g1
(g7
g3
NtRp3085
(dp3086
g10
g1
(g11
g12
(dtRp3087
sg14
g1
(g11
g12
(dtRp3088
sg16
g1
(g11
g12
(dtRp3089
sg18
g1
(g11
g12
(dtRp3090
sg20
g1
(g11
g12
(dtRp3091
sg22
g1
(g11
g12
(dtRp3092
sbsg24
g25
sg26
g27
((lp3093
g33
ag32
ag29
ag30
atRp3094
sg37
(lp3095
g1
(g2
g3
NtRp3096
(dp3097
g6
g1
(g7
g3
NtRp3098
(dp3099
g10
g1
(g11
g12
(dtRp3100
sg14
g1
(g11
g12
(dtRp3101
sg16
g1
(g11
g12
(dtRp3102
sg18
g1
(g11
g12
(dtRp3103
sg20
g1
(g11
g12
(dtRp3104
sg22
g1
(g11
g12
(dtRp3105
sbsg24
S'Lkl'
p3106
sg26
g27
((lp3107
g29
ag30
aS'sequence'
p3108
ag32
ag33
aS'species'
p3109
atRp3110
sg37
(lp3111
sg120
g3083
sg121
S'RWLSTKDLYSRLELPGLNQNVHAMFVMPLGFGNPMGDMFARLNNSFWLPPLSLEGAGTGWTVYPPLSHSGPSVDLAFHLTSSLLGAINFTNMRGPLFWTALLLLSLPVLAGTLLDRNFNTFEGGDPLYHLFWFFGHPEVYIIPGFGSHSTYKKFGMYASIGLGFVWSHHMYVGLDDRAYFLSATMIAPTGIKFSWLATYGGRPMLAFLFLFTGGTGVLNASDAFHDLYYVVHFHYVLSMGAFSLGYYYWPGLYNLFWFNFPMHFLGGMPRRPYPDAGWNSGSSYQLGPDESNEPH'
p3112
sg123
F0.00044999999999999999
sg124
g125
sg33
S'56'
p3113
sg127
g1
(g128
g12
(dp3114
g130
I4
sg131
g132
sg133
g134
sg135
g132
sg136
I01
sg34
g137
sg138
g134
sg139
I0
sg140
I0
sg141
I0
sg142
g134
sg35
g132
sg143
I0
stRp3115
sg145
g146
sg147
F1
sg148
Nsg30
S'LkluyE'
p3116
sbag1
(g2
g3
NtRp3117
(dp3118
g6
g1
(g7
g3
NtRp3119
(dp3120
g10
g1
(g11
g12
(dtRp3121
sg14
g1
(g11
g12
(dtRp3122
sg16
g1
(g11
g12
(dtRp3123
sg18
g1
(g11
g12
(dtRp3124
sg20
g1
(g11
g12
(dtRp3125
sg22
g1
(g11
g12
(dtRp3126
sbsg24
S'Lkl'
p3127
sg26
g27
((lp3128
g29
ag30
aS'sequence'
p3129
ag32
ag33
aS'species'
p3130
atRp3131
sg37
(lp3132
sg120
g3083
sg121
S'RWLSTKDLYSRLELPGLNQNVHAMFVMPLGFGNPMGDMFARLNNSFWLPPLSLEGAGTGWTVYPPLSHSGPSVDLAFHLTSSLLGAINFTNMRGPLFWTALLLLSLPVLAGTLLDRNFNTFEGGDPLYHLFWFFGHPEVYIIPGFGSHSTYKKFGMYASIGLGFVWSHHMYVGLDDRAYFLSATMIAPTGIKFSWLATYGGRPMLAFLFLFTGGTGVLNASDAFHDLYYVVHFHYVLSMGAFSLGYYYWPGLYNLFWFNFPMHFLGGMPRRPYPDAGWNSGSSYQLGPDESNEPH'
p3133
sg123
F0.0077400000000000004
sg124
g125
sg33
S'98'
p3134
sg127
g1
(g128
g12
(dp3135
g130
I4
sg131
g132
sg133
g134
sg135
g132
sg136
I01
sg34
g137
sg138
g134
sg139
I0
sg140
I0
sg141
I0
sg142
g134
sg35
g132
sg143
I0
stRp3136
sg145
g146
sg147
F1
sg148
Nsg30
S'LkluyD'
p3137
sbasg120
g3070
sg123
F0.0017099999999999999
sg124
g125
sg33
S'88'
p3138
sg127
g1
(g128
g12
(dp3139
g130
I8
sg131
g132
sg133
g134
sg135
g132
sg136
I01
sg34
g173
sg138
g134
sg139
I0
sg140
I0
sg141
I0
sg142
g134
sg35
g132
sg143
I0
stRp3140
sg145
g146
sg147
F0.56000000000000005
sg148
Nsg30
S'NoName'
p3141
sbag1
(g2
g3
NtRp3142
(dp3143
g6
g1
(g7
g3
NtRp3144
(dp3145
g10
g1
(g11
g12
(dtRp3146
sg14
g1
(g11
g12
(dtRp3147
sg16
g1
(g11
g12
(dtRp3148
sg18
g1
(g11
g12
(dtRp3149
sg20
g1
(g11
g12
(dtRp3150
sg22
g1
(g11
g12
(dtRp3151
sbsg24
g25
sg26
g27
((lp3152
g33
ag32
ag29
ag30
atRp3153
sg37
(lp3154
g1
(g2
g3
NtRp3155
(dp3156
g6
g1
(g7
g3
NtRp3157
(dp3158
g10
g1
(g11
g12
(dtRp3159
sg14
g1
(g11
g12
(dtRp3160
sg16
g1
(g11
g12
(dtRp3161
sg18
g1
(g11
g12
(dtRp3162
sg20
g1
(g11
g12
(dtRp3163
sg22
g1
(g11
g12
(dtRp3164
sbsg24
g25
sg26
g27
((lp3165
g33
ag32
ag29
ag30
atRp3166
sg37
(lp3167
g1
(g2
g3
NtRp3168
(dp3169
g6
g1
(g7
g3
NtRp3170
(dp3171
g10
g1
(g11
g12
(dtRp3172
sg14
g1
(g11
g12
(dtRp3173
sg16
g1
(g11
g12
(dtRp3174
sg18
g1
(g11
g12
(dtRp3175
sg20
g1
(g11
g12
(dtRp3176
sg22
g1
(g11
g12
(dtRp3177
sbsg24
g25
sg26
g27
((lp3178
g33
ag32
ag29
ag30
atRp3179
sg37
(lp3180
g1
(g2
g3
NtRp3181
(dp3182
g6
g1
(g7
g3
NtRp3183
(dp3184
g10
g1
(g11
g12
(dtRp3185
sg14
g1
(g11
g12
(dtRp3186
sg16
g1
(g11
g12
(dtRp3187
sg18
g1
(g11
g12
(dtRp3188
sg20
g1
(g11
g12
(dtRp3189
sg22
g1
(g11
g12
(dtRp3190
sbsg24
S'Lkl'
p3191
sg26
g27
((lp3192
g29
ag30
aS'sequence'
p3193
ag32
ag33
aS'species'
p3194
atRp3195
sg37
(lp3196
sg120
g3168
sg121
S'RWLSTKDLYSRLELPGLNQNVHAMFVMPLGFGNPMGDMFARLNNSFWLPPLSLEGAGTGWTVYPPLSHSGPSVDLAFHLTSSLLGAINFTNMRGPLFWTALLLLSLPVLAGTLLDRNFNTFEGGDPLYHLFWFFGHPEVYIIPGFGSHSTYKKFGMYASIGLGFVWSHHMYVGLDDRAYFLSATMIAPTGIKFSWLATYGGRPMLAFLFLFTGGTGVLNASDAFHDLYYVVHFHYVLSMGAFSLGYYYWPGLYNLFWFNFPMHFLGGMPRRPYPDAGWNSGSSYQLGPDESNEPH'
p3197
sg123
F0.00038999999999999999
sg124
g125
sg33
S'89'
p3198
sg127
g1
(g128
g12
(dp3199
g130
I4
sg131
g132
sg133
g134
sg135
g132
sg136
I01
sg34
g137
sg138
g134
sg139
I0
sg140
I0
sg141
I0
sg142
g134
sg35
g132
sg143
I0
stRp3200
sg145
g146
sg147
F1
sg148
Nsg30
S'LkluyF'
p3201
sbag1
(g2
g3
NtRp3202
(dp3203
g6
g1
(g7
g3
NtRp3204
(dp3205
g10
g1
(g11
g12
(dtRp3206
sg14
g1
(g11
g12
(dtRp3207
sg16
g1
(g11
g12
(dtRp3208
sg18
g1
(g11
g12
(dtRp3209
sg20
g1
(g11
g12
(dtRp3210
sg22
g1
(g11
g12
(dtRp3211
sbsg24
S'Lkl'
p3212
sg26
g27
((lp3213
g29
ag30
aS'sequence'
p3214
ag32
ag33
aS'species'
p3215
atRp3216
sg37
(lp3217
sg120
g3168
sg121
S'RWLSTKDLYSRLELPGLNQNVHAMFVMPLGFGNPMGDMFARLNNSFWLPPLSLEGAGTGWTVYPPLSHSGPSVDLAFHLTSSLLGAINFTNMRGPLFWTALLLLSLPVLAGTLLDRNFNTFEGGDPLYHLFWFFGHPEVYIIPGFGSHSTYKKFGMYASIGLGFVWSHHMYVGLDDRAYFLSATMIAPTGIKFSWLATYGGRPMLAFLFLFTGGTGVLNASDAFHDLYYVVHFHYVLSMGAFSLGYYYWPGLYNLFWFNFPMHFLGGMPRRPYPDAGWNSGSSYQLGPDESNEPH'
p3218
sg123
F0.00038000000000000002
sg124
g125
sg33
S'136'
p3219
sg127
g1
(g128
g12
(dp3220
g130
I4
sg131
g132
sg133
g134
sg135
g132
sg136
I01
sg34
g137
sg138
g134
sg139
I0
sg140
I0
sg141
I0
sg142
g134
sg35
g132
sg143
I0
stRp3221
sg145
g146
sg147
F1
sg148
Nsg30
S'LkluyC'
p3222
sbasg120
g3155
sg123
F1.0000000000000001e-05
sg124
g125
sg33
S'208'
p3223
sg127
g1
(g128
g12
(dp3224
g130
I8
sg131
g132
sg133
g134
sg135
g132
sg136
I01
sg34
g173
sg138
g134
sg139
I0
sg140
I0
sg141
I0
sg142
g134
sg35
g132
sg143
I0
stRp3225
sg145
g146
sg147
F1
sg148
Nsg30
S'NoName'
p3226
sbag1
(g2
g3
NtRp3227
(dp3228
g6
g1
(g7
g3
NtRp3229
(dp3230
g10
g1
(g11
g12
(dtRp3231
sg14
g1
(g11
g12
(dtRp3232
sg16
g1
(g11
g12
(dtRp3233
sg18
g1
(g11
g12
(dtRp3234
sg20
g1
(g11
g12
(dtRp3235
sg22
g1
(g11
g12
(dtRp3236
sbsg24
S'Lkl'
p3237
sg26
g27
((lp3238
g29
ag30
aS'sequence'
p3239
ag32
ag33
aS'species'
p3240
atRp3241
sg37
(lp3242
sg120
g3155
sg121
S'RWLSTKDLYSRLELPGLNQNVHAMFVMPLGFGNPMGDMFARLNNSFWLPPLSLEGAGTGWTVYPPLSHSGPSVDLAFHLTSSLLGAINFTNMRGPLFWTALLLLSLPVLAGTLLDRNFNTFEGGDPLYHLFWFFGHPEVYIIPGFGSHSTYKKFGMYASIGLGFVWSHHMYVGLDDRAYFLSATMIAPTGIKFSWLATYGGRPMLAFLFLFTGGTGVLNASDAFHDLYYVVHFHYVLSMGAFSLGYYYWPGLYNLFWFNFPMHFLGGMPRRPYPDAGWNSGSSYQLGPDESNEPH'
p3243
sg123
F0.00040999999999999999
sg124
g125
sg33
S'193'
p3244
sg127
g1
(g128
g12
(dp3245
g130
I4
sg131
g132
sg133
g134
sg135
g132
sg136
I01
sg34
g137
sg138
g134
sg139
I0
sg140
I0
sg141
I0
sg142
g134
sg35
g132
sg143
I0
stRp3246
sg145
g146
sg147
F1
sg148
Nsg30
S'LkluyB'
p3247
sbasg120
g3142
sg123
F1.0000000000000001e-05
sg124
g125
sg33
S'151'
p3248
sg127
g1
(g128
g12
(dp3249
g130
I8
sg131
g132
sg133
g134
sg135
g132
sg136
I01
sg34
g173
sg138
g134
sg139
I0
sg140
I0
sg141
I0
sg142
g134
sg35
g132
sg143
I0
stRp3250
sg145
g146
sg147
F1
sg148
Nsg30
S'NoName'
p3251
sbag1
(g2
g3
NtRp3252
(dp3253
g6
g1
(g7
g3
NtRp3254
(dp3255
g10
g1
(g11
g12
(dtRp3256
sg14
g1
(g11
g12
(dtRp3257
sg16
g1
(g11
g12
(dtRp3258
sg18
g1
(g11
g12
(dtRp3259
sg20
g1
(g11
g12
(dtRp3260
sg22
g1
(g11
g12
(dtRp3261
sbsg24
S'Lkl'
p3262
sg26
g27
((lp3263
g29
ag30
aS'sequence'
p3264
ag32
ag33
aS'species'
p3265
atRp3266
sg37
(lp3267
sg120
g3142
sg121
S'RWLSTKDLYSRLELPGLNQNVHAMFVMPLGFGNPMGDMFARLNNSFWLPPLSLEGAGTGWTVYPPLSHSGPSVDLAFHLTSSLLGAINFTNMRGPLFWTALLLLSLPVLAGTLLDRNFNTFEGGDPLYHLFWFFGHPEVYIIPGFGSHSTYKKFGMYASIGLGFVWSHHMYVGLDDRAYFLSATMIAPTGIKFSWLATYGGRPMLAFLFLFTGGTGVLNASDAFHDLYYVVHFHYVLSMGAFSLGYYYWPGLYNLFWFNFPMHFLGGMPRRPYPDAGWNSGSSYQLGPDESNEPH'
p3268
sg123
F0.00040999999999999999
sg124
g125
sg33
S'24'
p3269
sg127
g1
(g128
g12
(dp3270
g130
I4
sg131
g132
sg133
g134
sg135
g132
sg136
I01
sg34
g137
sg138
g134
sg139
I0
sg140
I0
sg141
I0
sg142
g134
sg35
g132
sg143
I0
stRp3271
sg145
g146
sg147
F1
sg148
Nsg30
S'LkluyA'
p3272
sbasg120
g3070
sg123
F0.0035300000000000002
sg124
g125
sg33
S'0'
sg127
g1
(g128
g12
(dp3273
g130
I8
sg131
g132
sg133
g134
sg135
g132
sg136
I01
sg34
g173
sg138
g134
sg139
I0
sg140
I0
sg141
I0
sg142
g134
sg35
g132
sg143
I0
stRp3274
sg145
g146
sg147
F0.91000000000000003
sg148
Nsg30
S'NoName'
p3275
sbasg120
g3057
sg123
F0.054280000000000002
sg124
g125
sg33
S'55'
p3276
sg127
g1
(g128
g12
(dp3277
g130
I8
sg131
g132
sg133
g134
sg135
g132
sg136
I01
sg34
g173
sg138
g134
sg139
I0
sg140
I0
sg141
I0
sg142
g134
sg35
g132
sg143
I0
stRp3278
sg145
g146
sg147
F0.98999999999999999
sg148
Nsg30
S'NoName'
p3279
sbag1
(g2
g3
NtRp3280
(dp3281
g6
g1
(g7
g3
NtRp3282
(dp3283
g10
g1
(g11
g12
(dtRp3284
sg14
g1
(g11
g12
(dtRp3285
sg16
g1
(g11
g12
(dtRp3286
sg18
g1
(g11
g12
(dtRp3287
sg20
g1
(g11
g12
(dtRp3288
sg22
g1
(g11
g12
(dtRp3289
sbsg24
g25
sg26
g27
((lp3290
g33
ag32
ag29
ag30
atRp3291
sg37
(lp3292
g1
(g2
g3
NtRp3293
(dp3294
g6
g1
(g7
g3
NtRp3295
(dp3296
g10
g1
(g11
g12
(dtRp3297
sg14
g1
(g11
g12
(dtRp3298
sg16
g1
(g11
g12
(dtRp3299
sg18
g1
(g11
g12
(dtRp3300
sg20
g1
(g11
g12
(dtRp3301
sg22
g1
(g11
g12
(dtRp3302
sbsg24
S'Lan'
p3303
sg26
g27
((lp3304
g29
ag30
aS'sequence'
p3305
ag32
ag33
aS'species'
p3306
atRp3307
sg37
(lp3308
sg120
g3280
sg121
S'RWLSTKDLYSRLELPGLNQNVHAMFVMPLGFGNPMGDMFARLNNSFWLPPLSLEGAGTGWTLYPPLSHSGPSVDLAFHLTSSLLGAINFTNMRGPLFWTALLLLSLPVLAGTVLDRNFNTFEGGDPLYHLFWFFGHPEVYIIPGFGSHSTYKKFGMYASIGLGFVWSHHMYVGLDDRAYFTSATMIAPTGIKFSWLALYGGRPMLAFLFLFTGGTGVLNASDAFHDTYYVVHFHYVLSMGAFSLGYYYWPGLYNLFWFNFPMHFLGGMPRRPYPDAGWNSGSSYQLGPDESNEPH'
p3309
sg123
F0.10922999999999999
sg124
g125
sg33
S'121'
p3310
sg127
g1
(g128
g12
(dp3311
g130
I4
sg131
g132
sg133
g134
sg135
g132
sg136
I01
sg34
g137
sg138
g134
sg139
I0
sg140
I0
sg141
I0
sg142
g134
sg35
g132
sg143
I0
stRp3312
sg145
g146
sg147
F1
sg148
Nsg30
S'LanspA'
p3313
sbag1
(g2
g3
NtRp3314
(dp3315
g6
g1
(g7
g3
NtRp3316
(dp3317
g10
g1
(g11
g12
(dtRp3318
sg14
g1
(g11
g12
(dtRp3319
sg16
g1
(g11
g12
(dtRp3320
sg18
g1
(g11
g12
(dtRp3321
sg20
g1
(g11
g12
(dtRp3322
sg22
g1
(g11
g12
(dtRp3323
sbsg24
g25
sg26
g27
((lp3324
g33
ag32
ag29
ag30
atRp3325
sg37
(lp3326
g1
(g2
g3
NtRp3327
(dp3328
g6
g1
(g7
g3
NtRp3329
(dp3330
g10
g1
(g11
g12
(dtRp3331
sg14
g1
(g11
g12
(dtRp3332
sg16
g1
(g11
g12
(dtRp3333
sg18
g1
(g11
g12
(dtRp3334
sg20
g1
(g11
g12
(dtRp3335
sg22
g1
(g11
g12
(dtRp3336
sbsg24
g25
sg26
g27
((lp3337
g33
ag32
ag29
ag30
atRp3338
sg37
(lp3339
g1
(g2
g3
NtRp3340
(dp3341
g6
g1
(g7
g3
NtRp3342
(dp3343
g10
g1
(g11
g12
(dtRp3344
sg14
g1
(g11
g12
(dtRp3345
sg16
g1
(g11
g12
(dtRp3346
sg18
g1
(g11
g12
(dtRp3347
sg20
g1
(g11
g12
(dtRp3348
sg22
g1
(g11
g12
(dtRp3349
sbsg24
S'Lno'
p3350
sg26
g27
((lp3351
g29
ag30
aS'sequence'
p3352
ag32
ag33
aS'species'
p3353
atRp3354
sg37
(lp3355
sg120
g3327
sg121
S'RWLSTKDLYSRLELPGLNQNVHAMFVMPLGFGNPMGDMFARLNNSFWLPPLSLEGAGTGWTIYPPLSHSGPSVDLAFHLTSSLLGAINFTNMRGPLFWTALLLLSLPVLAGTILDRNFNTFEGGDPLYHLFWFFGHPEVYIIPGFGSHSTYKKFGMYASIGLGFVWSHHMYVGLDDRAYFTSALMIAPTGIKFSWLALYGGRPMLAFLFLFTGGTGVLNASDAFHDTYYVVHFHYVLSMGAFSLGYYYWPGLYNLFWFNFPMHFLGGMPRRPYPDAGWNSGSSYQLGPDESNEPH'
p3356
sg123
F0.0075199999999999998
sg124
g125
sg33
S'66'
p3357
sg127
g1
(g128
g12
(dp3358
g130
I4
sg131
g132
sg133
g134
sg135
g132
sg136
I01
sg34
g137
sg138
g134
sg139
I0
sg140
I0
sg141
I0
sg142
g134
sg35
g132
sg143
I0
stRp3359
sg145
g146
sg147
F1
sg148
Nsg30
S'LnothA'
p3360
sbag1
(g2
g3
NtRp3361
(dp3362
g6
g1
(g7
g3
NtRp3363
(dp3364
g10
g1
(g11
g12
(dtRp3365
sg14
g1
(g11
g12
(dtRp3366
sg16
g1
(g11
g12
(dtRp3367
sg18
g1
(g11
g12
(dtRp3368
sg20
g1
(g11
g12
(dtRp3369
sg22
g1
(g11
g12
(dtRp3370
sbsg24
g25
sg26
g27
((lp3371
g33
ag32
ag29
ag30
atRp3372
sg37
(lp3373
g1
(g2
g3
NtRp3374
(dp3375
g6
g1
(g7
g3
NtRp3376
(dp3377
g10
g1
(g11
g12
(dtRp3378
sg14
g1
(g11
g12
(dtRp3379
sg16
g1
(g11
g12
(dtRp3380
sg18
g1
(g11
g12
(dtRp3381
sg20
g1
(g11
g12
(dtRp3382
sg22
g1
(g11
g12
(dtRp3383
sbsg24
S'Lda'
p3384
sg26
g27
((lp3385
g29
ag30
aS'sequence'
p3386
ag32
ag33
aS'species'
p3387
atRp3388
sg37
(lp3389
sg120
g3361
sg121
S'RWLSTKDLYSRLELPGLNQNVHAMFVMPLGFGNPMGDMFARLNNSFWLPPLSLEGAGTGWTVYPPLSHSGPSVDLAFHLTSSLLGAINFTNMRGPLFWTALLLLSLPVLAGTILDRNFNTFEGGDPLYHLFWFFGHPEVYIIPGFGSHSTYKKFGMYASIGLGFVWSHHMYVGLDDRAYFTSATMIAPTGIKFSWLALYGGRPMLAFLFLFTGGTGVLNASDAFHDTYYVVHFHYVLSMGAFSLGYYYWPGLYNLFWFNFPMHFLGGMPRRPYPDAGWNSGSSYQLGPDESNEPH'
p3390
sg123
F0.023539999999999998
sg124
g125
sg33
S'162'
p3391
sg127
g1
(g128
g12
(dp3392
g130
I4
sg131
g132
sg133
g134
sg135
g132
sg136
I01
sg34
g137
sg138
g134
sg139
I0
sg140
I0
sg141
I0
sg142
g134
sg35
g132
sg143
I0
stRp3393
sg145
g146
sg147
F1
sg148
Nsg30
S'LdasiA'
p3394
sbag1
(g2
g3
NtRp3395
(dp3396
g6
g1
(g7
g3
NtRp3397
(dp3398
g10
g1
(g11
g12
(dtRp3399
sg14
g1
(g11
g12
(dtRp3400
sg16
g1
(g11
g12
(dtRp3401
sg18
g1
(g11
g12
(dtRp3402
sg20
g1
(g11
g12
(dtRp3403
sg22
g1
(g11
g12
(dtRp3404
sbsg24
g25
sg26
g27
((lp3405
g33
ag32
ag29
ag30
atRp3406
sg37
(lp3407
g1
(g2
g3
NtRp3408
(dp3409
g6
g1
(g7
g3
NtRp3410
(dp3411
g10
g1
(g11
g12
(dtRp3412
sg14
g1
(g11
g12
(dtRp3413
sg16
g1
(g11
g12
(dtRp3414
sg18
g1
(g11
g12
(dtRp3415
sg20
g1
(g11
g12
(dtRp3416
sg22
g1
(g11
g12
(dtRp3417
sbsg24
S'Lme'
p3418
sg26
g27
((lp3419
g29
ag30
aS'sequence'
p3420
ag32
ag33
aS'species'
p3421
atRp3422
sg37
(lp3423
sg120
g3395
sg121
S'RWLSTKDLYSRLELPGLNQNVHAMFVMPLGFGNPMGDMFARLNNSFWLPPLSLEGAGTGWTVYPPLSHSGPSVDLAFHLTSSLLGAINFTNMRGPLFWTALLLLSLPVLAGTILDRNFNTFEGGDPLYHLFWFFGHPEVYIIPGFGSHSTYKKFGMYASIGLGFVWSHHMYVGLDDRAYFTSATMIAPTGIKFSWLALYGGRPMLAFLFLFTGGTGVLNASDAFHDTYYVVHFHYVLSMGAFSLGYYYWPGLYNLFWFNFPMHFLGGMPRRPYPDAGWNSGSSYQLGPDESNEPH'
p3424
sg123
F0.0050299999999999997
sg124
g125
sg33
S'1'
sg127
g1
(g128
g12
(dp3425
g130
I4
sg131
g132
sg133
g134
sg135
g132
sg136
I01
sg34
g137
sg138
g134
sg139
I0
sg140
I0
sg141
I0
sg142
g134
sg35
g132
sg143
I0
stRp3426
sg145
g146
sg147
F1
sg148
Nsg30
S'LmeyeA'
p3427
sbag1
(g2
g3
NtRp3428
(dp3429
g6
g1
(g7
g3
NtRp3430
(dp3431
g10
g1
(g11
g12
(dtRp3432
sg14
g1
(g11
g12
(dtRp3433
sg16
g1
(g11
g12
(dtRp3434
sg18
g1
(g11
g12
(dtRp3435
sg20
g1
(g11
g12
(dtRp3436
sg22
g1
(g11
g12
(dtRp3437
sbsg24
S'Lan'
p3438
sg26
g27
((lp3439
g29
ag30
aS'sequence'
p3440
ag32
ag33
aS'species'
p3441
atRp3442
sg37
(lp3443
sg120
g3395
sg121
S'RWLSTKDLYSRLELPGLNQNVHAMFVMPLGFGNPMGDMFARLNNSFWLPPLSLEGAGTGWTVYPPLSHSGPSVDLAFHLTSSLLGAINFTNMRGPLFWTALLLLSLPVLAGTILDRNFNTFEGGDPLYHLFWFFGHPEVYIIPGFGSHSTYKKFGMYASIGLGFVWSHHMYVGLDDRAYFTSALMIAPTGIKFSWLALYGGRPMLAFLFLFTGGTGVLNASDAFHDTYYVVHFHYVLSMGAFSLGYYYWPGLYNLFWFNFPMHFLGGMPRRPYPDAGWNSGSSYQLGPDESNEPH'
p3444
sg123
F0.012290000000000001
sg124
g125
sg33
S'3'
sg127
g1
(g128
g12
(dp3445
g130
I4
sg131
g132
sg133
g134
sg135
g132
sg136
I01
sg34
g137
sg138
g134
sg139
I0
sg140
I0
sg141
I0
sg142
g134
sg35
g132
sg143
I0
stRp3446
sg145
g146
sg147
F1
sg148
Nsg30
S'LanspB'
p3447
sbasg120
g3361
sg123
F0.012070000000000001
sg124
g125
sg33
S'105'
p3448
sg127
g1
(g128
g12
(dp3449
g130
I8
sg131
g132
sg133
g134
sg135
g132
sg136
I01
sg34
g173
sg138
g134
sg139
I0
sg140
I0
sg141
I0
sg142
g134
sg35
g132
sg143
I0
stRp3450
sg145
g146
sg147
F0.98999999999999999
sg148
Nsg30
S'NoName'
p3451
sbasg120
g3327
sg123
F0.0088199999999999997
sg124
g125
sg33
S'11'
p3452
sg127
g1
(g128
g12
(dp3453
g130
I8
sg131
g132
sg133
g134
sg135
g132
sg136
I01
sg34
g173
sg138
g134
sg139
I0
sg140
I0
sg141
I0
sg142
g134
sg35
g132
sg143
I0
stRp3454
sg145
g146
sg147
F0.95999999999999996
sg148
Nsg30
S'NoName'
p3455
sbasg120
g3314
sg123
F0.016570000000000001
sg124
g125
sg33
S'177'
p3456
sg127
g1
(g128
g12
(dp3457
g130
I8
sg131
g132
sg133
g134
sg135
g132
sg136
I01
sg34
g173
sg138
g134
sg139
I0
sg140
I0
sg141
I0
sg142
g134
sg35
g132
sg143
I0
stRp3458
sg145
g146
sg147
F0.94999999999999996
sg148
Nsg30
S'NoName'
p3459
sbag1
(g2
g3
NtRp3460
(dp3461
g6
g1
(g7
g3
NtRp3462
(dp3463
g10
g1
(g11
g12
(dtRp3464
sg14
g1
(g11
g12
(dtRp3465
sg16
g1
(g11
g12
(dtRp3466
sg18
g1
(g11
g12
(dtRp3467
sg20
g1
(g11
g12
(dtRp3468
sg22
g1
(g11
g12
(dtRp3469
sbsg24
S'Kth'
p3470
sg26
g27
((lp3471
g29
ag30
aS'sequence'
p3472
ag32
ag33
aS'species'
p3473
atRp3474
sg37
(lp3475
sg120
g3314
sg121
S'RWLSTKDLYSRLELPGLNQNVHAMFVMPLGFGNPMGDMFARLNNSFWLPPLSLEGAGTGWTVYPPLSHSGPSVDLAFHLTSSLLGAINFTNMRGPLFWTALLLLSLPVLAGTILDRNFNTFEGGDPLYHLFWFFGHPEVYIIPGFGSHSTYKKFGMYASIGLGFVWSHHMYVGLDDRAYFTSATMIAPTGIKFSWLALYGGRPMLAFLFLFTGGTGVLNASDAFHDTYYVVHFHYVLSMGAFSLGYYYWPGLYNLFWFNFPMHFLGGMPRRPYPDAGWNSGSSYQLGPDESNEPH'
p3476
sg123
F0.021499999999999998
sg124
g125
sg33
S'181'
p3477
sg127
g1
(g128
g12
(dp3478
g130
I4
sg131
g132
sg133
g134
sg135
g132
sg136
I01
sg34
g137
sg138
g134
sg139
I0
sg140
I0
sg141
I0
sg142
g134
sg35
g132
sg143
I0
stRp3479
sg145
g146
sg147
F1
sg148
Nsg30
S'KtherA'
p3480
sbasg120
g3280
sg123
F0.033250000000000002
sg124
g125
sg33
S'80'
p3481
sg127
g1
(g128
g12
(dp3482
g130
I8
sg131
g132
sg133
g134
sg135
g132
sg136
I01
sg34
g173
sg138
g134
sg139
I0
sg140
I0
sg141
I0
sg142
g134
sg35
g132
sg143
I0
stRp3483
sg145
g146
sg147
F0.93999999999999995
sg148
Nsg30
S'NoName'
p3484
sbasg120
g3057
sg123
F0.038859999999999999
sg124
g125
sg33
S'40'
p3485
sg127
g1
(g128
g12
(dp3486
g130
I8
sg131
g132
sg133
g134
sg135
g132
sg136
I01
sg34
g173
sg138
g134
sg139
I0
sg140
I0
sg141
I0
sg142
g134
sg35
g132
sg143
I0
stRp3487
sg145
g146
sg147
F0.92000000000000004
sg148
Nsg30
S'NoName'
p3488
sbasg120
g3044
sg123
F0.050380000000000001
sg124
g125
sg33
S'70'
p3489
sg127
g1
(g128
g12
(dp3490
g130
I8
sg131
g132
sg133
g134
sg135
g132
sg136
I01
sg34
g173
sg138
g134
sg139
I0
sg140
I0
sg141
I0
sg142
g134
sg35
g132
sg143
I0
stRp3491
sg145
g146
sg147
F0.89000000000000001
sg148
Nsg30
S'NoName'
p3492
sbag1
(g2
g3
NtRp3493
(dp3494
g6
g1
(g7
g3
NtRp3495
(dp3496
g10
g1
(g11
g12
(dtRp3497
sg14
g1
(g11
g12
(dtRp3498
sg16
g1
(g11
g12
(dtRp3499
sg18
g1
(g11
g12
(dtRp3500
sg20
g1
(g11
g12
(dtRp3501
sg22
g1
(g11
g12
(dtRp3502
sbsg24
g25
sg26
g27
((lp3503
g33
ag32
ag29
ag30
atRp3504
sg37
(lp3505
g1
(g2
g3
NtRp3506
(dp3507
g6
g1
(g7
g3
NtRp3508
(dp3509
g10
g1
(g11
g12
(dtRp3510
sg14
g1
(g11
g12
(dtRp3511
sg16
g1
(g11
g12
(dtRp3512
sg18
g1
(g11
g12
(dtRp3513
sg20
g1
(g11
g12
(dtRp3514
sg22
g1
(g11
g12
(dtRp3515
sbsg24
S'Kma'
p3516
sg26
g27
((lp3517
g29
ag30
aS'sequence'
p3518
ag32
ag33
aS'species'
p3519
atRp3520
sg37
(lp3521
sg120
g3493
sg121
S'RWLSTKDLYSRLELPGLNQNVHAMFVMPLGFGNPMGDMFARLNNSFWLPPLSLEGAGTGWTVYPPLSHSGPSVDLAFHLTSSLLGAINFTNMRGPLFWTALLLLSLPVLAGTLLDRNFNTFEGGDPLYHLFWFFGHPEVYIIPGFGSHSTYKKFGMYASIGLGFVWSHHMYVGLDDRAYFTSATMIAPTGIKFSWLATYGGRPMLAFLFLFTGGTGVLNASDAFHDTYYVVHFHYVLSMGAFSLGYYYWPGLYNLFWFNFPMHFLGGMPRRPYPDAGWNSGSSYQLGPDESNEPH'
p3522
sg123
F0.04018
sg124
g125
sg33
S'7'
sg127
g1
(g128
g12
(dp3523
g130
I4
sg131
g132
sg133
g134
sg135
g132
sg136
I01
sg34
g137
sg138
g134
sg139
I0
sg140
I0
sg141
I0
sg142
g134
sg35
g132
sg143
I0
stRp3524
sg145
g146
sg147
F1
sg148
Nsg30
S'KmarxA'
p3525
sbag1
(g2
g3
NtRp3526
(dp3527
g6
g1
(g7
g3
NtRp3528
(dp3529
g10
g1
(g11
g12
(dtRp3530
sg14
g1
(g11
g12
(dtRp3531
sg16
g1
(g11
g12
(dtRp3532
sg18
g1
(g11
g12
(dtRp3533
sg20
g1
(g11
g12
(dtRp3534
sg22
g1
(g11
g12
(dtRp3535
sbsg24
S'Kla'
p3536
sg26
g27
((lp3537
g29
ag30
aS'sequence'
p3538
ag32
ag33
aS'species'
p3539
atRp3540
sg37
(lp3541
sg120
g3493
sg121
S'RWLSTKDLYSRLELPGLNQNVHAMFVMPLGFGNPLGDMFARLNNSFWLPPLSLEGAGTGWTVYPPLSHSGPSVDLAFHLTSSLLGAINFTNMRGPLFWTALLLLSLPVLAGTLLDRNFNTFEGGDPLYHLFWFFGHPEVYIIPGFGSHSTYKKFGMYASIGLGFVWSHHMYVGLDDRAYFTSATMIAPTGIKFSWLATYGGRPMLAFLFLFTGGTGVLNASDAFHDTYYVVHFHYVLSMGAFSLGYYYWPGLYNLFWFNFPMHFLGGMPRRPYPDAGWNSGSSYQLGPDESNEPH'
p3542
sg123
F0.043529999999999999
sg124
g125
sg33
S'10'
p3543
sg127
g1
(g128
g12
(dp3544
g130
I4
sg131
g132
sg133
g134
sg135
g132
sg136
I01
sg34
g137
sg138
g134
sg139
I0
sg140
I0
sg141
I0
sg142
g134
sg35
g132
sg143
I0
stRp3545
sg145
g146
sg147
F1
sg148
Nsg30
S'KlactA'
p3546
sbasg120
g3044
sg123
F0.13938999999999999
sg124
g125
sg33
S'222'
p3547
sg127
g1
(g128
g12
(dp3548
g130
I8
sg131
g132
sg133
g134
sg135
g132
sg136
I01
sg34
g173
sg138
g134
sg139
I0
sg140
I0
sg141
I0
sg142
g134
sg35
g132
sg143
I0
stRp3549
sg145
g146
sg147
F0.98999999999999999
sg148
Nsg30
S'NoName'
p3550
sbasg120
g3031
sg123
F1.0000000000000001e-05
sg124
g125
sg33
S'14'
p3551
sg127
g1
(g128
g12
(dp3552
g130
I8
sg131
g132
sg133
g134
sg135
g132
sg136
I01
sg34
g173
sg138
g134
sg139
I0
sg140
I0
sg141
I0
sg142
g134
sg35
g132
sg143
I0
stRp3553
sg145
g146
sg147
F1
sg148
Nsg30
S'NoName'
p3554
sbag1
(g2
g3
NtRp3555
(dp3556
g6
g1
(g7
g3
NtRp3557
(dp3558
g10
g1
(g11
g12
(dtRp3559
sg14
g1
(g11
g12
(dtRp3560
sg16
g1
(g11
g12
(dtRp3561
sg18
g1
(g11
g12
(dtRp3562
sg20
g1
(g11
g12
(dtRp3563
sg22
g1
(g11
g12
(dtRp3564
sbsg24
g25
sg26
g27
((lp3565
g33
ag32
ag29
ag30
atRp3566
sg37
(lp3567
g1
(g2
g3
NtRp3568
(dp3569
g6
g1
(g7
g3
NtRp3570
(dp3571
g10
g1
(g11
g12
(dtRp3572
sg14
g1
(g11
g12
(dtRp3573
sg16
g1
(g11
g12
(dtRp3574
sg18
g1
(g11
g12
(dtRp3575
sg20
g1
(g11
g12
(dtRp3576
sg22
g1
(g11
g12
(dtRp3577
sbsg24
S'Huv'
p3578
sg26
g27
((lp3579
g29
ag30
aS'sequence'
p3580
ag32
ag33
aS'species'
p3581
atRp3582
sg37
(lp3583
sg120
g3555
sg121
S'-MITTKDLYSRLELSGINHNSHAMFIMPIGFGNPAGDMFPRLNNSFWLVPVSLEGAGTGWTVYYPLSHSSVSVDLVFHCLSSLLGAINFTNFL-SLFWLALLLLSLPVLVGTLLDRNFNLYEGGDPLYHLFWFFGHPEVYIIPAFGSMSAYSKFGMYASIGLGFVWVHHMFVGLDDRAYFTSATMIAPLGIKFSWLALIGGRPVLAFLVLFLGGTGVLNASDAFHDTYYVVHFHYVLSLGAFGIGYYYWPGLYNLFVVNFPMHYLGGMPRRSYPDSAWNTGASVQLGTDLLPEPH'
p3584
sg123
F3.9441199999999998
sg124
g125
sg33
S'129'
p3585
sg127
g1
(g128
g12
(dp3586
g130
I4
sg131
g132
sg133
g134
sg135
g132
sg136
I01
sg34
g137
sg138
g134
sg139
I0
sg140
I0
sg141
I0
sg142
g134
sg35
g132
sg143
I0
stRp3587
sg145
g146
sg147
F1
sg148
Nsg30
S'HuvarA'
p3588
sbag1
(g2
g3
NtRp3589
(dp3590
g6
g1
(g7
g3
NtRp3591
(dp3592
g10
g1
(g11
g12
(dtRp3593
sg14
g1
(g11
g12
(dtRp3594
sg16
g1
(g11
g12
(dtRp3595
sg18
g1
(g11
g12
(dtRp3596
sg20
g1
(g11
g12
(dtRp3597
sg22
g1
(g11
g12
(dtRp3598
sbsg24
g25
sg26
g27
((lp3599
g33
ag32
ag29
ag30
atRp3600
sg37
(lp3601
g1
(g2
g3
NtRp3602
(dp3603
g6
g1
(g7
g3
NtRp3604
(dp3605
g10
g1
(g11
g12
(dtRp3606
sg14
g1
(g11
g12
(dtRp3607
sg16
g1
(g11
g12
(dtRp3608
sg18
g1
(g11
g12
(dtRp3609
sg20
g1
(g11
g12
(dtRp3610
sg22
g1
(g11
g12
(dtRp3611
sbsg24
g25
sg26
g27
((lp3612
g33
ag32
ag29
ag30
atRp3613
sg37
(lp3614
g1
(g2
g3
NtRp3615
(dp3616
g6
g1
(g7
g3
NtRp3617
(dp3618
g10
g1
(g11
g12
(dtRp3619
sg14
g1
(g11
g12
(dtRp3620
sg16
g1
(g11
g12
(dtRp3621
sg18
g1
(g11
g12
(dtRp3622
sg20
g1
(g11
g12
(dtRp3623
sg22
g1
(g11
g12
(dtRp3624
sbsg24
g25
sg26
g27
((lp3625
g33
ag32
ag29
ag30
atRp3626
sg37
(lp3627
g1
(g2
g3
NtRp3628
(dp3629
g6
g1
(g7
g3
NtRp3630
(dp3631
g10
g1
(g11
g12
(dtRp3632
sg14
g1
(g11
g12
(dtRp3633
sg16
g1
(g11
g12
(dtRp3634
sg18
g1
(g11
g12
(dtRp3635
sg20
g1
(g11
g12
(dtRp3636
sg22
g1
(g11
g12
(dtRp3637
sbsg24
S'Sse'
p3638
sg26
g27
((lp3639
g29
ag30
aS'sequence'
p3640
ag32
ag33
aS'species'
p3641
atRp3642
sg37
(lp3643
sg120
g3615
sg121
S'RWLSTKDMYSRMELPGLNQNVHAMFAMPLGFGNPMGDMFPRINSGFWLPMLSLEGAGTGWTVYPPLSHSGPSVDLAFHLTSSLLGAINFTNMRGPLFWTALLLLSLPVLAGTLLDRNFNTFEGGDPFYHAFWFFGHPEVYIIPGFGSHSTYKKFGMYASIGLGFVWSHHMYVGLDDRAYFTSATMIAPTGIKFSWLALYGGRPMMAFLFLFTGGTGVLNASDAFHDTYYVVHFHYVLSMGAFSLGYYYWPGLYNLFWFNFPMHFLGGMPRRPYPDAGWNSGSSYQIGPDESNEPH'
p3644
sg123
F0.29805999999999999
sg124
g125
sg33
S'20'
p3645
sg127
g1
(g128
g12
(dp3646
g130
I4
sg131
g132
sg133
g134
sg135
g132
sg136
I01
sg34
g137
sg138
g134
sg139
I0
sg140
I0
sg141
I0
sg142
g134
sg35
g132
sg143
I0
stRp3647
sg145
g146
sg147
F1
sg148
Nsg30
S'SservA'
p3648
sbag1
(g2
g3
NtRp3649
(dp3650
g6
g1
(g7
g3
NtRp3651
(dp3652
g10
g1
(g11
g12
(dtRp3653
sg14
g1
(g11
g12
(dtRp3654
sg16
g1
(g11
g12
(dtRp3655
sg18
g1
(g11
g12
(dtRp3656
sg20
g1
(g11
g12
(dtRp3657
sg22
g1
(g11
g12
(dtRp3658
sbsg24
S'Sca'
p3659
sg26
g27
((lp3660
g29
ag30
aS'sequence'
p3661
ag32
ag33
aS'species'
p3662
atRp3663
sg37
(lp3664
sg120
g3615
sg121
S'RWLSTKDLYSRLELPGLNQNVHAMFVMPLGFGNPMGDTFPRINNGFWLPMLSLEGAGTGWTVYPPLAHSGPSVDLAFHMTSSLLGAINFTNMRGPLFWTALLLLTLPVLAGTLLDRNFNTFEGGDPLYHLFWFFGHPEVYIIPGFGSHSTYKKFGMYASIGLGLVWSHHMYVGLDDRAYFTSATMIAPTGIKFSWLATYGGRPMLAFLFLFTGGTGVLNASDAFHDLYYVVHFHYVLSMGAFSLGYYYWPGLYNLFWFNFPMHFLGGMPRRPYPDAGWNSGASYQLGPDESNEPH'
p3665
sg123
F0.30890000000000001
sg124
g125
sg33
S'21'
p3666
sg127
g1
(g128
g12
(dp3667
g130
I4
sg131
g132
sg133
g134
sg135
g132
sg136
I01
sg34
g137
sg138
g134
sg139
I0
sg140
I0
sg141
I0
sg142
g134
sg35
g132
sg143
I0
stRp3668
sg145
g146
sg147
F1
sg148
Nsg30
S'ScastA'
p3669
sbasg120
g3602
sg123
F0.072319999999999995
sg124
g125
sg33
S'17'
p3670
sg127
g1
(g128
g12
(dp3671
g130
I8
sg131
g132
sg133
g134
sg135
g132
sg136
I01
sg34
g173
sg138
g134
sg139
I0
sg140
I0
sg141
I0
sg142
g134
sg35
g132
sg143
I0
stRp3672
sg145
g146
sg147
F0.98999999999999999
sg148
Nsg30
S'NoName'
p3673
sbag1
(g2
g3
NtRp3674
(dp3675
g6
g1
(g7
g3
NtRp3676
(dp3677
g10
g1
(g11
g12
(dtRp3678
sg14
g1
(g11
g12
(dtRp3679
sg16
g1
(g11
g12
(dtRp3680
sg18
g1
(g11
g12
(dtRp3681
sg20
g1
(g11
g12
(dtRp3682
sg22
g1
(g11
g12
(dtRp3683
sbsg24
g25
sg26
g27
((lp3684
g33
ag32
ag29
ag30
atRp3685
sg37
(lp3686
g1
(g2
g3
NtRp3687
(dp3688
g6
g1
(g7
g3
NtRp3689
(dp3690
g10
g1
(g11
g12
(dtRp3691
sg14
g1
(g11
g12
(dtRp3692
sg16
g1
(g11
g12
(dtRp3693
sg18
g1
(g11
g12
(dtRp3694
sg20
g1
(g11
g12
(dtRp3695
sg22
g1
(g11
g12
(dtRp3696
sbsg24
S'Spa'
p3697
sg26
g27
((lp3698
g29
ag30
aS'sequence'
p3699
ag32
ag33
aS'species'
p3700
atRp3701
sg37
(lp3702
sg120
g3674
sg121
S'RWLSTKDLYSRLELPGLNQNVHAMFVMPLGFGNPMGDTFPRINNAFWLPMLSLEGAGTGWTVYPPLSHSGPSVDLAFHLTSSLLGAINFTNMRGPLFWTALLLLSLPVLAGTLLDRNFNTFEGGDPLYHLFWFFGHPEVYIIPGFGSHSTYKKFGMYASIGLGFVWSHHMYVGLDDRAYFLSATMIAPTGIKFSWLATYGGRPMLAFLFLFTGGTGVLNASDAFHDTYYVVHFHYVLSMGAFSLGYYYWPGLYNLFWFNFPMHFLGGMPRRPYPDAGWNSGSSYQLGPDESNEPH'
p3703
sg123
F0.029780000000000001
sg124
g125
sg33
S'25'
p3704
sg127
g1
(g128
g12
(dp3705
g130
I4
sg131
g132
sg133
g134
sg135
g132
sg136
I01
sg34
g137
sg138
g134
sg139
I0
sg140
I0
sg141
I0
sg142
g134
sg35
g132
sg143
I0
stRp3706
sg145
g146
sg147
F1
sg148
Nsg30
S'SpastA'
p3707
sbag1
(g2
g3
NtRp3708
(dp3709
g6
g1
(g7
g3
NtRp3710
(dp3711
g10
g1
(g11
g12
(dtRp3712
sg14
g1
(g11
g12
(dtRp3713
sg16
g1
(g11
g12
(dtRp3714
sg18
g1
(g11
g12
(dtRp3715
sg20
g1
(g11
g12
(dtRp3716
sg22
g1
(g11
g12
(dtRp3717
sbsg24
g25
sg26
g27
((lp3718
g33
ag32
ag29
ag30
atRp3719
sg37
(lp3720
g1
(g2
g3
NtRp3721
(dp3722
g6
g1
(g7
g3
NtRp3723
(dp3724
g10
g1
(g11
g12
(dtRp3725
sg14
g1
(g11
g12
(dtRp3726
sg16
g1
(g11
g12
(dtRp3727
sg18
g1
(g11
g12
(dtRp3728
sg20
g1
(g11
g12
(dtRp3729
sg22
g1
(g11
g12
(dtRp3730
sbsg24
g25
sg26
g27
((lp3731
g33
ag32
ag29
ag30
atRp3732
sg37
(lp3733
g1
(g2
g3
NtRp3734
(dp3735
g6
g1
(g7
g3
NtRp3736
(dp3737
g10
g1
(g11
g12
(dtRp3738
sg14
g1
(g11
g12
(dtRp3739
sg16
g1
(g11
g12
(dtRp3740
sg18
g1
(g11
g12
(dtRp3741
sg20
g1
(g11
g12
(dtRp3742
sg22
g1
(g11
g12
(dtRp3743
sbsg24
S'Sce'
p3744
sg26
g27
((lp3745
g29
ag30
aS'sequence'
p3746
ag32
ag33
aS'species'
p3747
atRp3748
sg37
(lp3749
sg120
g3721
sg121
S'RWLSTKDLYSRLELPGLNQNVHAMFVMPLGFGNPMGDTFPRINNAFWLPMLSLEGAGTGWTVYPPLSHSGPSVDLAFHLTSSLLGAINFTNMRGPLFWTALLLLSLPVLAGTLLDRNFNTFEGGDPLYHLFWFFGHPEVYIIPGFGSHSTYKKFGMYASIGLGFVWSHHMYVGLDDRAYFLSALMIAPTGIKFSWLALYGGRPMLAFLFLFTGGTGVLNASDAFHDTYYVVHFHYVLSMGAFSLGYYYWPGLYNLFWFNFPMHFLGGMPRRPYPDAGWNSGSSYQLGPDESNEPH'
p3750
sg123
F0.0038700000000000002
sg124
g125
sg33
S'33'
p3751
sg127
g1
(g128
g12
(dp3752
g130
I4
sg131
g132
sg133
g134
sg135
g132
sg136
I01
sg34
g137
sg138
g134
sg139
I0
sg140
I0
sg141
I0
sg142
g134
sg35
g132
sg143
I0
stRp3753
sg145
g146
sg147
F1
sg148
Nsg30
S'ScereD'
p3754
sbag1
(g2
g3
NtRp3755
(dp3756
g6
g1
(g7
g3
NtRp3757
(dp3758
g10
g1
(g11
g12
(dtRp3759
sg14
g1
(g11
g12
(dtRp3760
sg16
g1
(g11
g12
(dtRp3761
sg18
g1
(g11
g12
(dtRp3762
sg20
g1
(g11
g12
(dtRp3763
sg22
g1
(g11
g12
(dtRp3764
sbsg24
g25
sg26
g27
((lp3765
g33
ag32
ag29
ag30
atRp3766
sg37
(lp3767
g1
(g2
g3
NtRp3768
(dp3769
g6
g1
(g7
g3
NtRp3770
(dp3771
g10
g1
(g11
g12
(dtRp3772
sg14
g1
(g11
g12
(dtRp3773
sg16
g1
(g11
g12
(dtRp3774
sg18
g1
(g11
g12
(dtRp3775
sg20
g1
(g11
g12
(dtRp3776
sg22
g1
(g11
g12
(dtRp3777
sbsg24
S'Sce'
p3778
sg26
g27
((lp3779
g29
ag30
aS'sequence'
p3780
ag32
ag33
aS'species'
p3781
atRp3782
sg37
(lp3783
sg120
g3755
sg121
S'RWLSTKDLYSRLELPGLNQNVHAMFVMPLGFGNPMGDTFPRINNAFWLPMLSLEGAGTGWTVYPPLSHSGPSVDLAFHLTSSLLGAINFTNMRGPLFWTALLLLSLPVLAGTLLDRNFNTFEGGDPLYHLFWFFGHPEVYIIPGFGSHSTYKKFGMYASIGLGFVWSHHMYVGLDDRAYFLSALMIAPTGIKFSWLALYGGRPMLAFLFLFTGGTGVLNASDAFHDTYYVVHFHYVLSMGAFSLGYYYWPGLYNLFWFNFPMHFLGGMPRRPYPDAGWNSGSSYQLGPDESNEPH'
p3784
sg123
F0.0075900000000000004
sg124
g125
sg33
S'36'
p3785
sg127
g1
(g128
g12
(dp3786
g130
I4
sg131
g132
sg133
g134
sg135
g132
sg136
I01
sg34
g137
sg138
g134
sg139
I0
sg140
I0
sg141
I0
sg142
g134
sg35
g132
sg143
I0
stRp3787
sg145
g146
sg147
F1
sg148
Nsg30
S'ScereE'
p3788
sbag1
(g2
g3
NtRp3789
(dp3790
g6
g1
(g7
g3
NtRp3791
(dp3792
g10
g1
(g11
g12
(dtRp3793
sg14
g1
(g11
g12
(dtRp3794
sg16
g1
(g11
g12
(dtRp3795
sg18
g1
(g11
g12
(dtRp3796
sg20
g1
(g11
g12
(dtRp3797
sg22
g1
(g11
g12
(dtRp3798
sbsg24
g25
sg26
g27
((lp3799
g33
ag32
ag29
ag30
atRp3800
sg37
(lp3801
g1
(g2
g3
NtRp3802
(dp3803
g6
g1
(g7
g3
NtRp3804
(dp3805
g10
g1
(g11
g12
(dtRp3806
sg14
g1
(g11
g12
(dtRp3807
sg16
g1
(g11
g12
(dtRp3808
sg18
g1
(g11
g12
(dtRp3809
sg20
g1
(g11
g12
(dtRp3810
sg22
g1
(g11
g12
(dtRp3811
sbsg24
S'Sce'
p3812
sg26
g27
((lp3813
g29
ag30
aS'sequence'
p3814
ag32
ag33
aS'species'
p3815
atRp3816
sg37
(lp3817
sg120
g3789
sg121
S'RWLSTKDLYSRLELPGLNQNVHAMFVMPLGFGNPMGDTFPRINNAFWLPMLSLEGAGTGWTVYPPLSHSGPSVDLAFHLTSSLLGAINFTNMRGPLFWTALLLLSLPVLAGTLLDRNFNTFEGGDPLYHLFWFFGHPEVYIIPGFGSHSTYKKFGMYASIGLGFVWSHHMYVGLDDRAYFLSALMIAPTGIKFSWLALHGGRPMLAFLFLFTGGTGVLNASDAFHDTYYVVHFHYVLSMGAFSLGYYYWPGLYNLFWFNFPMHFLGGMPRRPYPDAGWNSGSSYQLGPDESNEPH'
p3818
sg123
F0.0053899999999999998
sg124
g125
sg33
S'39'
p3819
sg127
g1
(g128
g12
(dp3820
g130
I4
sg131
g132
sg133
g134
sg135
g132
sg136
I01
sg34
g137
sg138
g134
sg139
I0
sg140
I0
sg141
I0
sg142
g134
sg35
g132
sg143
I0
stRp3821
sg145
g146
sg147
F1
sg148
Nsg30
S'ScereC'
p3822
sbag1
(g2
g3
NtRp3823
(dp3824
g6
g1
(g7
g3
NtRp3825
(dp3826
g10
g1
(g11
g12
(dtRp3827
sg14
g1
(g11
g12
(dtRp3828
sg16
g1
(g11
g12
(dtRp3829
sg18
g1
(g11
g12
(dtRp3830
sg20
g1
(g11
g12
(dtRp3831
sg22
g1
(g11
g12
(dtRp3832
sbsg24
S'Sce'
p3833
sg26
g27
((lp3834
g29
ag30
aS'sequence'
p3835
ag32
ag33
aS'species'
p3836
atRp3837
sg37
(lp3838
sg120
g3789
sg121
S'RWLSTKDLYSRLELPGLNQNVHAMFVMPLGFGNPMGDTFPRINNAFWLPMLSLEGAGTGWTVYPPLSHSGPSVDLAFHLTSSLLGAINFTNMRGPLFWTALLLLSLPVLAGTLLDRNFNTFEGGDPLYHLFWFFGHPEVYIIPGFGSHSTYKKFGMYASIGLGFVWSHHMYVGLDDRAYFLSALMIAPTGIKFSWLALYGGRPMLAFLFLFTGGTGVLNASDAFHDTYYVVHFHYVLSMGAFSLGYYYWPGLYNLFWFNFPMHFLGGMPRRPYPDAGWNSGSSYQLGPDESNEPH'
p3839
sg123
F0.0066400000000000001
sg124
g125
sg33
S'41'
p3840
sg127
g1
(g128
g12
(dp3841
g130
I4
sg131
g132
sg133
g134
sg135
g132
sg136
I01
sg34
g137
sg138
g134
sg139
I0
sg140
I0
sg141
I0
sg142
g134
sg35
g132
sg143
I0
stRp3842
sg145
g146
sg147
F1
sg148
Nsg30
S'ScereA'
p3843
sbasg120
g3755
sg123
F0.00596
sg124
g125
sg33
S'34'
p3844
sg127
g1
(g128
g12
(dp3845
g130
I8
sg131
g132
sg133
g134
sg135
g132
sg136
I01
sg34
g173
sg138
g134
sg139
I0
sg140
I0
sg141
I0
sg142
g134
sg35
g132
sg143
I0
stRp3846
sg145
g146
sg147
F0.98999999999999999
sg148
Nsg30
S'NoName'
p3847
sbasg120
g3721
sg123
F0.0050600000000000003
sg124
g125
sg33
S'30'
p3848
sg127
g1
(g128
g12
(dp3849
g130
I8
sg131
g132
sg133
g134
sg135
g132
sg136
I01
sg34
g173
sg138
g134
sg139
I0
sg140
I0
sg141
I0
sg142
g134
sg35
g132
sg143
I0
stRp3850
sg145
g146
sg147
F0.66000000000000003
sg148
Nsg30
S'NoName'
p3851
sbasg120
g3708
sg123
F0.017850000000000001
sg124
g125
sg33
S'29'
p3852
sg127
g1
(g128
g12
(dp3853
g130
I8
sg131
g132
sg133
g134
sg135
g132
sg136
I01
sg34
g173
sg138
g134
sg139
I0
sg140
I0
sg141
I0
sg142
g134
sg35
g132
sg143
I0
stRp3854
sg145
g146
sg147
F0.89000000000000001
sg148
Nsg30
S'NoName'
p3855
sbag1
(g2
g3
NtRp3856
(dp3857
g6
g1
(g7
g3
NtRp3858
(dp3859
g10
g1
(g11
g12
(dtRp3860
sg14
g1
(g11
g12
(dtRp3861
sg16
g1
(g11
g12
(dtRp3862
sg18
g1
(g11
g12
(dtRp3863
sg20
g1
(g11
g12
(dtRp3864
sg22
g1
(g11
g12
(dtRp3865
sbsg24
S'Sar'
p3866
sg26
g27
((lp3867
g29
ag30
aS'sequence'
p3868
ag32
ag33
aS'species'
p3869
atRp3870
sg37
(lp3871
sg120
g3708
sg121
S'RWLSTKDLYSRLELPGLNQNVHAMFVMPLGFGNPMGDTFPRINNAFWLPMLSLEGAGTGWTVYPPLSHSGPSVDLAFHLTSSLLGAINFTNMRGPLFWTALLLLSLPVLAGTLLDRNFNTFEGGDPLYHLFWFFGHPEVYIIPGFGSHSTYKKFGMYASIGLGFVWSHHMYVGLDDRAYFLSALMIAPTGIKFSWLALYGGRPMLAFLFLFTGGTGVLNASDAFHDTYYVVHFHYVLSMGAFSLGYYYWPGLYNLFWFNFPMHFLGGMPRRPYPDAGWNSGSSYQLGPDESNEPH'
p3872
sg123
F0.047230000000000001
sg124
g125
sg33
S'44'
p3873
sg127
g1
(g128
g12
(dp3874
g130
I4
sg131
g132
sg133
g134
sg135
g132
sg136
I01
sg34
g137
sg138
g134
sg139
I0
sg140
I0
sg141
I0
sg142
g134
sg35
g132
sg143
I0
stRp3875
sg145
g146
sg147
F1
sg148
Nsg30
S'SarboA'
p3876
sbasg120
g3674
sg123
F0.023619999999999999
sg124
g125
sg33
S'23'
p3877
sg127
g1
(g128
g12
(dp3878
g130
I8
sg131
g132
sg133
g134
sg135
g132
sg136
I01
sg34
g173
sg138
g134
sg139
I0
sg140
I0
sg141
I0
sg142
g134
sg35
g132
sg143
I0
stRp3879
sg145
g146
sg147
F0.92000000000000004
sg148
Nsg30
S'NoName'
p3880
sbasg120
g3602
sg123
F0.18547
sg124
g125
sg33
S'18'
p3881
sg127
g1
(g128
g12
(dp3882
g130
I8
sg131
g132
sg133
g134
sg135
g132
sg136
I01
sg34
g173
sg138
g134
sg139
I0
sg140
I0
sg141
I0
sg142
g134
sg35
g132
sg143
I0
stRp3883
sg145
g146
sg147
F0.98999999999999999
sg148
Nsg30
S'NoName'
p3884
sbasg120
g3589
sg123
F0.03594
sg124
g125
sg33
S'15'
p3885
sg127
g1
(g128
g12
(dp3886
g130
I8
sg131
g132
sg133
g134
sg135
g132
sg136
I01
sg34
g173
sg138
g134
sg139
I0
sg140
I0
sg141
I0
sg142
g134
sg35
g132
sg143
I0
stRp3887
sg145
g146
sg147
F0.98999999999999999
sg148
Nsg30
S'NoName'
p3888
sbag1
(g2
g3
NtRp3889
(dp3890
g6
g1
(g7
g3
NtRp3891
(dp3892
g10
g1
(g11
g12
(dtRp3893
sg14
g1
(g11
g12
(dtRp3894
sg16
g1
(g11
g12
(dtRp3895
sg18
g1
(g11
g12
(dtRp3896
sg20
g1
(g11
g12
(dtRp3897
sg22
g1
(g11
g12
(dtRp3898
sbsg24
g25
sg26
g27
((lp3899
g33
ag32
ag29
ag30
atRp3900
sg37
(lp3901
g1
(g2
g3
NtRp3902
(dp3903
g6
g1
(g7
g3
NtRp3904
(dp3905
g10
g1
(g11
g12
(dtRp3906
sg14
g1
(g11
g12
(dtRp3907
sg16
g1
(g11
g12
(dtRp3908
sg18
g1
(g11
g12
(dtRp3909
sg20
g1
(g11
g12
(dtRp3910
sg22
g1
(g11
g12
(dtRp3911
sbsg24
g25
sg26
g27
((lp3912
g33
ag32
ag29
ag30
atRp3913
sg37
(lp3914
g1
(g2
g3
NtRp3915
(dp3916
g6
g1
(g7
g3
NtRp3917
(dp3918
g10
g1
(g11
g12
(dtRp3919
sg14
g1
(g11
g12
(dtRp3920
sg16
g1
(g11
g12
(dtRp3921
sg18
g1
(g11
g12
(dtRp3922
sg20
g1
(g11
g12
(dtRp3923
sg22
g1
(g11
g12
(dtRp3924
sbsg24
S'Nde'
p3925
sg26
g27
((lp3926
g29
ag30
aS'sequence'
p3927
ag32
ag33
aS'species'
p3928
atRp3929
sg37
(lp3930
sg120
g3902
sg121
S'RWLSTKDLYSRLELPGLNQNVHAMFVMPLGFGNPMGDMFPRLNNGFWIVPLSLEGAGTGWTVYPPLSHSGPSVDLAFHMTSSLLGAINFTNMRGPLFWTALLLLSLPVFAGTLLDRNFNTFEGGDPLYHLFWFFGHPEVYIIPGFGSHSTYKKFGMYASIGLGFVWSHHMYVGLDDRAYFTSATMIAPTGIKFSWLATYGGRPMLAFLFLFTGGTGVLNASDAFHDTYYVVHFHYVLSMGAFSTGYYYWPGLYNLFWFNFPMHFLGGMPRRPYPDAGWNSGSSYQFGPDESNEPH'
p3931
sg123
F0.063509999999999997
sg124
g125
sg33
S'50'
p3932
sg127
g1
(g128
g12
(dp3933
g130
I4
sg131
g132
sg133
g134
sg135
g132
sg136
I01
sg34
g137
sg138
g134
sg139
I0
sg140
I0
sg141
I0
sg142
g134
sg35
g132
sg143
I0
stRp3934
sg145
g146
sg147
F1
sg148
Nsg30
S'NdelpA'
p3935
sbag1
(g2
g3
NtRp3936
(dp3937
g6
g1
(g7
g3
NtRp3938
(dp3939
g10
g1
(g11
g12
(dtRp3940
sg14
g1
(g11
g12
(dtRp3941
sg16
g1
(g11
g12
(dtRp3942
sg18
g1
(g11
g12
(dtRp3943
sg20
g1
(g11
g12
(dtRp3944
sg22
g1
(g11
g12
(dtRp3945
sbsg24
S'Cgl'
p3946
sg26
g27
((lp3947
g29
ag30
aS'sequence'
p3948
ag32
ag33
aS'species'
p3949
atRp3950
sg37
(lp3951
sg120
g3902
sg121
S'RWLSTKDLYSRLELPGLNQNVHAMFVMPLGFGNPMGDMFPRLNNGFWIVPLSLEGAGTGWTVYPPLSHSGPSVDLAFHLTSSLLGSINFTNMRGPLFWTALLLLSLPVLAGTLLDRNFNTFEGGDPLYHLFWFFGHPEVYIIPGFGSHSTYKKFGMYASIGLGFVWSHHMYVGLDDRAYFTSATMIAPTGIKFSWLATYGGRPMLAFLFLFTGGTGVLNASDAFHDTYYVVHFHYVLSMGAFSTGYYYWPGLYNLFWFNFPMHFLGGMPRRPYPDAGWNSGSSYQFGPDESNEPH'
p3952
sg123
F0.03882
sg124
g125
sg33
S'52'
p3953
sg127
g1
(g128
g12
(dp3954
g130
I4
sg131
g132
sg133
g134
sg135
g132
sg136
I01
sg34
g137
sg138
g134
sg139
I0
sg140
I0
sg141
I0
sg142
g134
sg35
g132
sg143
I0
stRp3955
sg145
g146
sg147
F1
sg148
Nsg30
S'CglabA'
p3956
sbasg120
g3889
sg123
F0.16661999999999999
sg124
g125
sg33
S'45'
p3957
sg127
g1
(g128
g12
(dp3958
g130
I8
sg131
g132
sg133
g134
sg135
g132
sg136
I01
sg34
g173
sg138
g134
sg139
I0
sg140
I0
sg141
I0
sg142
g134
sg35
g132
sg143
I0
stRp3959
sg145
g146
sg147
F0.98999999999999999
sg148
Nsg30
S'NoName'
p3960
sbag1
(g2
g3
NtRp3961
(dp3962
g6
g1
(g7
g3
NtRp3963
(dp3964
g10
g1
(g11
g12
(dtRp3965
sg14
g1
(g11
g12
(dtRp3966
sg16
g1
(g11
g12
(dtRp3967
sg18
g1
(g11
g12
(dtRp3968
sg20
g1
(g11
g12
(dtRp3969
sg22
g1
(g11
g12
(dtRp3970
sbsg24
g25
sg26
g27
((lp3971
g33
ag32
ag29
ag30
atRp3972
sg37
(lp3973
g1
(g2
g3
NtRp3974
(dp3975
g6
g1
(g7
g3
NtRp3976
(dp3977
g10
g1
(g11
g12
(dtRp3978
sg14
g1
(g11
g12
(dtRp3979
sg16
g1
(g11
g12
(dtRp3980
sg18
g1
(g11
g12
(dtRp3981
sg20
g1
(g11
g12
(dtRp3982
sg22
g1
(g11
g12
(dtRp3983
sbsg24
S'Nba'
p3984
sg26
g27
((lp3985
g29
ag30
aS'sequence'
p3986
ag32
ag33
aS'species'
p3987
atRp3988
sg37
(lp3989
sg120
g3961
sg121
S'RWLSTKDLYSRMELPGLNQNVHAMFVMPLGFGNPMGDMFPRLNNGFWMPALSLEGAGTGWTVYPPLSHSGPSVDLAFHLSSSLLGAINFTNMRGPLFWTALLLFSLPVFAGTLLDRNFNTFEGGDPLYHLFWFFGHPEVYIIPGFGSHSTYKKFGMYASIGLGFVWSHHMYVGLDDRAYFTSATMIAPTGIKFSWLALYGGRPMLAFLFLFTGGTGVLNASDAFHDTYYVVHFHYVLSMGAFSVAYYYWPGLYNLFWFNFPMHFLGGMPRRPYPDAGWNSGSSYQLGPDESNEPH'
p3990
sg123
F0.29926999999999998
sg124
g125
sg33
S'90'
p3991
sg127
g1
(g128
g12
(dp3992
g130
I4
sg131
g132
sg133
g134
sg135
g132
sg136
I01
sg34
g137
sg138
g134
sg139
I0
sg140
I0
sg141
I0
sg142
g134
sg35
g132
sg143
I0
stRp3993
sg145
g146
sg147
F1
sg148
Nsg30
S'NbaciA'
p3994
sbag1
(g2
g3
NtRp3995
(dp3996
g6
g1
(g7
g3
NtRp3997
(dp3998
g10
g1
(g11
g12
(dtRp3999
sg14
g1
(g11
g12
(dtRp4000
sg16
g1
(g11
g12
(dtRp4001
sg18
g1
(g11
g12
(dtRp4002
sg20
g1
(g11
g12
(dtRp4003
sg22
g1
(g11
g12
(dtRp4004
sbsg24
S'Cca'
p4005
sg26
g27
((lp4006
g29
ag30
aS'sequence'
p4007
ag32
ag33
aS'species'
p4008
atRp4009
sg37
(lp4010
sg120
g3961
sg121
S'RWLSTKDLYSRLELPGLNQNVHAMFVMPLGIGNPMGDTFPRLNNGFWLPPLSLEGAGTGWTVYPPLSHSGPSVDLAFHLTSSLLGAINFTNMRGPLFWTALLLFSLPVFAGTLLDRNFNTFEGGDPLYHVFWFFGHPEVYIIPGFGSHSTYKKFGMYASIGLGFVWSHHMYVGLDDRAYFTSALMIAPTGIKFSWLATFGGRPMLAFLFLFTGGTGVLNASDAFHDTYYVVHFHYVLSMGAFSLGYYYWPGLYNLFWFNFPMHFLGGMPRRPYPDAGWNSGSSYQLGPDESNEPH'
p4011
sg123
F0.26266
sg124
g125
sg33
S'57'
p4012
sg127
g1
(g128
g12
(dp4013
g130
I4
sg131
g132
sg133
g134
sg135
g132
sg136
I01
sg34
g137
sg138
g134
sg139
I0
sg140
I0
sg141
I0
sg142
g134
sg35
g132
sg143
I0
stRp4014
sg145
g146
sg147
F1
sg148
Nsg30
S'CcastA'
p4015
sbasg120
g3889
sg123
F0.15296999999999999
sg124
g125
sg33
S'48'
p4016
sg127
g1
(g128
g12
(dp4017
g130
I8
sg131
g132
sg133
g134
sg135
g132
sg136
I01
sg34
g173
sg138
g134
sg139
I0
sg140
I0
sg141
I0
sg142
g134
sg35
g132
sg143
I0
stRp4018
sg145
g146
sg147
F0.98999999999999999
sg148
Nsg30
S'NoName'
p4019
sbasg120
g3589
sg123
F0.042560000000000001
sg124
g125
sg33
S'37'
p4020
sg127
g1
(g128
g12
(dp4021
g130
I8
sg131
g132
sg133
g134
sg135
g132
sg136
I01
sg34
g173
sg138
g134
sg139
I0
sg140
I0
sg141
I0
sg142
g134
sg35
g132
sg143
I0
stRp4022
sg145
g146
sg147
F0.84999999999999998
sg148
Nsg30
S'NoName'
p4023
sbasg120
g3555
sg123
F0.094020000000000006
sg124
g125
sg33
S'12'
p4024
sg127
g1
(g128
g12
(dp4025
g130
I8
sg131
g132
sg133
g134
sg135
g132
sg136
I01
sg34
g173
sg138
g134
sg139
I0
sg140
I0
sg141
I0
sg142
g134
sg35
g132
sg143
I0
stRp4026
sg145
g146
sg147
F0.55000000000000004
sg148
Nsg30
S'NoName'
p4027
sbasg120
g3031
sg123
F0.11952
sg124
g125
sg33
S'6'
sg127
g1
(g128
g12
(dp4028
g130
I8
sg131
g132
sg133
g134
sg135
g132
sg136
I01
sg34
g173
sg138
g134
sg139
I0
sg140
I0
sg141
I0
sg142
g134
sg35
g132
sg143
I0
stRp4029
sg145
g146
sg147
F0.69999999999999996
sg148
Nsg30
S'NoName'
p4030
sbasg120
g3018
sg123
F0.029839999999999998
sg124
g125
sg33
S'120'
p4031
sg127
g1
(g128
g12
(dp4032
g130
I8
sg131
g132
sg133
g134
sg135
g132
sg136
I01
sg34
g173
sg138
g134
sg139
I0
sg140
I0
sg141
I0
sg142
g134
sg35
g132
sg143
I0
stRp4033
sg145
g146
sg147
F0.82999999999999996
sg148
Nsg30
S'NoName'
p4034
sbag1
(g2
g3
NtRp4035
(dp4036
g6
g1
(g7
g3
NtRp4037
(dp4038
g10
g1
(g11
g12
(dtRp4039
sg14
g1
(g11
g12
(dtRp4040
sg16
g1
(g11
g12
(dtRp4041
sg18
g1
(g11
g12
(dtRp4042
sg20
g1
(g11
g12
(dtRp4043
sg22
g1
(g11
g12
(dtRp4044
sbsg24
g25
sg26
g27
((lp4045
g33
ag32
ag29
ag30
atRp4046
sg37
(lp4047
g1
(g2
g3
NtRp4048
(dp4049
g6
g1
(g7
g3
NtRp4050
(dp4051
g10
g1
(g11
g12
(dtRp4052
sg14
g1
(g11
g12
(dtRp4053
sg16
g1
(g11
g12
(dtRp4054
sg18
g1
(g11
g12
(dtRp4055
sg20
g1
(g11
g12
(dtRp4056
sg22
g1
(g11
g12
(dtRp4057
sbsg24
S'Aac'
p4058
sg26
g27
((lp4059
g29
ag30
aS'sequence'
p4060
ag32
ag33
aS'species'
p4061
atRp4062
sg37
(lp4063
sg120
g4035
sg121
S'RWLSTKDLYSRMELPGLQQNVHLMFVMPLGFGNPMGDMFARLNNSFWLPPLSMEGLGTGWTVYPPLAHSGASVDLAFHLTSSLLGLINFTNMRGPLFWTAMLLMSLPVLAGTLLDRNFNTFEGGDPLYHLFWFFGHPEVYIIPLFGSHSTYKKFGMYASIGLGFVWSHHMYVGLDDRAYFTSLTMILPTSIKFSWLLTYGGRPMLAFLFLFTGGTGVLNLSDLFHDTYYVVHFHYVLSLGAFSMGYYYWPGLYNLFWFNFPMHFLGGMPRRPYPDLGWNSGSSYQLGPDESNEPH'
p4064
sg123
F0.028920000000000001
sg124
g125
sg33
S'191'
p4065
sg127
g1
(g128
g12
(dp4066
g130
I4
sg131
g132
sg133
g134
sg135
g132
sg136
I01
sg34
g137
sg138
g134
sg139
I0
sg140
I0
sg141
I0
sg142
g134
sg35
g132
sg143
I0
stRp4067
sg145
g146
sg147
F1
sg148
Nsg30
S'AacerA'
p4068
sbag1
(g2
g3
NtRp4069
(dp4070
g6
g1
(g7
g3
NtRp4071
(dp4072
g10
g1
(g11
g12
(dtRp4073
sg14
g1
(g11
g12
(dtRp4074
sg16
g1
(g11
g12
(dtRp4075
sg18
g1
(g11
g12
(dtRp4076
sg20
g1
(g11
g12
(dtRp4077
sg22
g1
(g11
g12
(dtRp4078
sbsg24
g25
sg26
g27
((lp4079
g33
ag32
ag29
ag30
atRp4080
sg37
(lp4081
g1
(g2
g3
NtRp4082
(dp4083
g6
g1
(g7
g3
NtRp4084
(dp4085
g10
g1
(g11
g12
(dtRp4086
sg14
g1
(g11
g12
(dtRp4087
sg16
g1
(g11
g12
(dtRp4088
sg18
g1
(g11
g12
(dtRp4089
sg20
g1
(g11
g12
(dtRp4090
sg22
g1
(g11
g12
(dtRp4091
sbsg24
S'Ago'
p4092
sg26
g27
((lp4093
g29
ag30
aS'sequence'
p4094
ag32
ag33
aS'species'
p4095
atRp4096
sg37
(lp4097
sg120
g4069
sg121
S'RWLSTKDLYSRMELPGLQQNVHLMFVMPLGFGNPMGDMFARLNNSFWLPPLSMEGLGTGWTVYPPLSHSGASVDLAFHLTSSLLGLINFTNMRGPLFWTAMLLMSLPVLAGTLLDRNFNTFEGGDPLYHLFWFFGHPEVYIIPLFGSHSTYKKFGMYLSISLGFVWSHHMYVGLDDRAYFTSATMILPTSIKFSWLLTYGGRPMLLFLFLFTGGTGVLNLSDAFHDTYYVVHFHYVLSLGAFSMGYYYWPGLYNLFWFNFPMHFLGGMPRRPYPDLGWNSGSSYQLGPDESNEPH'
p4098
sg123
F0.00088000000000000003
sg124
g125
sg33
S'78'
p4099
sg127
g1
(g128
g12
(dp4100
g130
I4
sg131
g132
sg133
g134
sg135
g132
sg136
I01
sg34
g137
sg138
g134
sg139
I0
sg140
I0
sg141
I0
sg142
g134
sg35
g132
sg143
I0
stRp4101
sg145
g146
sg147
F1
sg148
Nsg30
S'AgossB'
p4102
sbag1
(g2
g3
NtRp4103
(dp4104
g6
g1
(g7
g3
NtRp4105
(dp4106
g10
g1
(g11
g12
(dtRp4107
sg14
g1
(g11
g12
(dtRp4108
sg16
g1
(g11
g12
(dtRp4109
sg18
g1
(g11
g12
(dtRp4110
sg20
g1
(g11
g12
(dtRp4111
sg22
g1
(g11
g12
(dtRp4112
sbsg24
S'Ago'
p4113
sg26
g27
((lp4114
g29
ag30
aS'sequence'
p4115
ag32
ag33
aS'species'
p4116
atRp4117
sg37
(lp4118
sg120
g4069
sg121
S'RWLSTKDLYSRMELPGLQQNVHLMFVMPLGFGNPMGDMFARLNNSFWLPPLSMEGLGTGWTVYPPLSHSGASVDLAFHLTSSLLGLINFTNMRGPLFWTAMLLMSLPVLAGTLLDRNFNTFEGGDPLYHLFWFFGHPEVYIIPLFGSHSTYKKFGMYLSISLGFVWSHHMYVGLDDRAYFTSATMILPTSIKFSWLLTYGGRPMLLFLFLFTGGTGVLNLSDAFHDTYYVVHFHYVLSLGAFSMGYYYWPGLYNLFWFNFPMHFLGGMPRRPYPDLGWNSGSSYQLGPDESNEPH'
p4119
sg123
F0.0023999999999999998
sg124
g125
sg33
S'65'
p4120
sg127
g1
(g128
g12
(dp4121
g130
I4
sg131
g132
sg133
g134
sg135
g132
sg136
I01
sg34
g137
sg138
g134
sg139
I0
sg140
I0
sg141
I0
sg142
g134
sg35
g132
sg143
I0
stRp4122
sg145
g146
sg147
F1
sg148
Nsg30
S'AgossA'
p4123
sbasg120
g4035
sg123
F0.075329999999999994
sg124
g125
sg33
S'59'
p4124
sg127
g1
(g128
g12
(dp4125
g130
I8
sg131
g132
sg133
g134
sg135
g132
sg136
I01
sg34
g173
sg138
g134
sg139
I0
sg140
I0
sg141
I0
sg142
g134
sg35
g132
sg143
I0
stRp4126
sg145
g146
sg147
F0.98999999999999999
sg148
Nsg30
S'NoName'
p4127
sbasg120
g3018
sg123
F0.56830999999999998
sg124
g125
sg33
S'53'
p4128
sg127
g1
(g128
g12
(dp4129
g130
I8
sg131
g132
sg133
g134
sg135
g132
sg136
I01
sg34
g173
sg138
g134
sg139
I0
sg140
I0
sg141
I0
sg142
g134
sg35
g132
sg143
I0
stRp4130
sg145
g146
sg147
F0.98999999999999999
sg148
Nsg30
S'NoName'
p4131
sbasg120
g2681
sg123
F0.14305999999999999
sg124
g125
sg33
S'28'
p4132
sg127
g1
(g128
g12
(dp4133
g130
I8
sg131
g132
sg133
g134
sg135
g132
sg136
I01
sg34
g173
sg138
g134
sg139
I0
sg140
I0
sg141
I0
sg142
g134
sg35
g132
sg143
I0
stRp4134
sg145
g146
sg147
F0.96999999999999997
sg148
Nsg30
S'NoName'
p4135
sbasg120
g2495
sg123
F0.26834000000000002
sg124
g125
sg33
S'142'
p4136
sg127
g1
(g128
g12
(dp4137
g130
I8
sg131
g132
sg133
g134
sg135
g132
sg136
I01
sg34
g173
sg138
g134
sg139
I0
sg140
I0
sg141
I0
sg142
g134
sg35
g132
sg143
I0
stRp4138
sg145
g146
sg147
F0.97999999999999998
sg148
Nsg30
S'NoName'
p4139
sbasg120
g677
sg123
F0.062890000000000001
sg124
g125
sg33
S'74'
p4140
sg127
g1
(g128
g12
(dp4141
g130
I8
sg131
g132
sg133
g134
sg135
g132
sg136
I01
sg34
g173
sg138
g134
sg139
I0
sg140
I0
sg141
I0
sg142
g134
sg35
g132
sg143
I0
stRp4142
sg145
g146
sg147
F0.67000000000000004
sg148
Nsg30
S'NoName'
p4143
sbasg120
g264
sg123
F0.52025999999999994
sg124
g125
sg33
S'173'
p4144
sg127
g1
(g128
g12
(dp4145
g130
I8
sg131
g132
sg133
g134
sg135
g132
sg136
I01
sg34
g173
sg138
g134
sg139
I0
sg140
I0
sg141
I0
sg142
g134
sg35
g132
sg143
I0
stRp4146
sg145
g146
sg147
F0.97999999999999998
sg148
Nsg30
S'NoName'
p4147
sbasg120
g52
sg123
F0.11274000000000001
sg124
g125
sg33
S'133'
p4148
sg127
g1
(g128
g12
(dp4149
g130
I8
sg131
g132
sg133
g134
sg135
g132
sg136
I01
sg34
g173
sg138
g134
sg139
I0
sg140
I0
sg141
I0
sg142
g134
sg35
g132
sg143
I0
stRp4150
sg145
g146
sg147
F0.88
sg148
Nsg30
S'NoName'
p4151
sbasg120
g39
sg123
F0.33485999999999999
sg124
g125
sg33
S'99'
p4152
sg127
g1
(g128
g12
(dp4153
g130
I8
sg131
g132
sg133
g134
sg135
g132
sg136
I01
sg34
g173
sg138
g134
sg139
I0
sg140
I0
sg141
I0
sg142
g134
sg35
g132
sg143
I0
stRp4154
sg145
g146
sg147
F0.95999999999999996
sg148
Nsg30
S'NoName'
p4155
sbag1
(g2
g3
NtRp4156
(dp4157
g6
g1
(g7
g3
NtRp4158
(dp4159
g10
g1
(g11
g12
(dtRp4160
sg14
g1
(g11
g12
(dtRp4161
sg16
g1
(g11
g12
(dtRp4162
sg18
g1
(g11
g12
(dtRp4163
sg20
g1
(g11
g12
(dtRp4164
sg22
g1
(g11
g12
(dtRp4165
sbsg24
S'Lst'
p4166
sg26
g27
((lp4167
g29
ag30
aS'sequence'
p4168
ag32
ag33
aS'species'
p4169
atRp4170
sg37
(lp4171
sg120
g39
sg121
S'RWLSTKDLYSRMELPGLNHNVHAMFVMPLGFGNPLGDMFPRLNNSFWLPPLSFEGAGTGWTVYPPLSHSGASVDLAFHLSSSMLGAMNFTNMRGPLFWTALLLLSLPVLGATLLDRNFNTFEGGDPLYHLFWFFGHPEVYIIPGFGSHCTYEKFGMYASMGLGFVWSHHMFVGLDERAYFTAATMIAPTGMKFSWLATYGGTPMVAFLFLFTGGTGVLNASDAFHDTYYVVHFHYVLSMGAFALGYYYWPGLYKYFWFNFPMHFLGGMPRRPYPDAGWNSGSAIQLGPQATKEPH'
p4172
sg123
F1.13117
sg124
g125
sg33
S'67'
p4173
sg127
g1
(g128
g12
(dp4174
g130
I4
sg131
g132
sg133
g134
sg135
g132
sg136
I01
sg34
g137
sg138
g134
sg139
I0
sg140
I0
sg141
I0
sg142
g134
sg35
g132
sg143
I0
stRp4175
sg145
g146
sg147
F1
sg148
Nsg30
S'LstarA'
p4176
sbasg120
g4
sg123
F0.46844999999999998
sg124
g125
sg33
S'94'
p4177
sg127
g1
(g128
g12
(dp4178
g130
I8
sg131
g132
sg133
g134
sg135
g132
sg136
I01
sg34
g173
sg138
g134
sg139
I0
sg140
I0
sg141
I0
sg142
g134
sg35
g132
sg143
I0
stRp4179
sg145
g146
sg147
F1
sg148
Nsg30
S'NoName'
p4180
sbag1
(g2
g3
NtRp4181
(dp4182
g6
g1
(g7
g3
NtRp4183
(dp4184
g10
g1
(g11
g12
(dtRp4185
sg14
g1
(g11
g12
(dtRp4186
sg16
g1
(g11
g12
(dtRp4187
sg18
g1
(g11
g12
(dtRp4188
sg20
g1
(g11
g12
(dtRp4189
sg22
g1
(g11
g12
(dtRp4190
sbsg24
g25
sg26
g27
((lp4191
g33
ag32
ag29
ag30
atRp4192
sg37
(lp4193
g1
(g2
g3
NtRp4194
(dp4195
g6
g1
(g7
g3
NtRp4196
(dp4197
g10
g1
(g11
g12
(dtRp4198
sg14
g1
(g11
g12
(dtRp4199
sg16
g1
(g11
g12
(dtRp4200
sg18
g1
(g11
g12
(dtRp4201
sg20
g1
(g11
g12
(dtRp4202
sg22
g1
(g11
g12
(dtRp4203
sbsg24
S'Sja'
p4204
sg26
g27
((lp4205
g29
ag30
aS'sequence'
p4206
ag32
ag33
aS'species'
p4207
atRp4208
sg37
(lp4209
sg120
g4181
sg121
S'RWLSTKDLYSRLELPGLNQNVHGMFILPLGFGNPLGDVYPRMNNSFWLPPLSLEGPGVGWTMYYPLSHSGLSVDLLMQLTSSTLGSINLTNMRGPLFWTSLLVLTLPVLGGILLDRNWNTFAGGDPLYHLFWFFGHPEVYIIPAFGSHSTFHKFGMYASIALGCVWSHHLYVGLDDRAYFTAATMIAPTGIKFSWLATSGGEPMLVFLILFTGGTGVLNSVDAFHDTYFVVHFHYVLSMGAMGLAYYFWPGLYNMFWFNFPQHFLGNYPRRPYPDAGWNSGSSYQFNPNDSNEPH'
p4210
sg123
F1.0686599999999999
sg124
g125
sg33
S'71'
p4211
sg127
g1
(g128
g12
(dp4212
g130
I4
sg131
g132
sg133
g134
sg135
g132
sg136
I01
sg34
g137
sg138
g134
sg139
I0
sg140
I0
sg141
I0
sg142
g134
sg35
g132
sg143
I0
stRp4213
sg145
g146
sg147
F1
sg148
Nsg30
S'SjapoA'
p4214
sbag1
(g2
g3
NtRp4215
(dp4216
g6
g1
(g7
g3
NtRp4217
(dp4218
g10
g1
(g11
g12
(dtRp4219
sg14
g1
(g11
g12
(dtRp4220
sg16
g1
(g11
g12
(dtRp4221
sg18
g1
(g11
g12
(dtRp4222
sg20
g1
(g11
g12
(dtRp4223
sg22
g1
(g11
g12
(dtRp4224
sbsg24
g25
sg26
g27
((lp4225
g33
ag32
ag29
ag30
atRp4226
sg37
(lp4227
g1
(g2
g3
NtRp4228
(dp4229
g6
g1
(g7
g3
NtRp4230
(dp4231
g10
g1
(g11
g12
(dtRp4232
sg14
g1
(g11
g12
(dtRp4233
sg16
g1
(g11
g12
(dtRp4234
sg18
g1
(g11
g12
(dtRp4235
sg20
g1
(g11
g12
(dtRp4236
sg22
g1
(g11
g12
(dtRp4237
sbsg24
S'Spo'
p4238
sg26
g27
((lp4239
g29
ag30
aS'sequence'
p4240
ag32
ag33
aS'species'
p4241
atRp4242
sg37
(lp4243
sg120
g4215
sg121
S'RWMSTKDLYSRMELPGLNQNVHGMFIIPLGFGNPMGDVYPRVNNTFWLPPLSLEGPGGGWTVYPPLSHSGPAIDLALQLTSSTLGSVNLTNMRGPLFWTSLLLLTLPVLGGFLFDRNLNTFAGGDPLYHLFWFFGHPEVYIIPAFGSHPSLHKFGMWASIALGLVWSHHLFVGLDDRAYFSAATMIAPTGIKFSWLATTGGQPMLAFLILFTGGTGVLNSVDAFHDTYFVVHFHYVLSMGAFGLAYY-WPGLYNLFWFNFPQHFLGGMPRRPYPEAGWNSGSSYQFNPSDDNEPH'
p4244
sg123
F0.12372
sg124
g125
sg33
S'187'
p4245
sg127
g1
(g128
g12
(dp4246
g130
I4
sg131
g132
sg133
g134
sg135
g132
sg136
I01
sg34
g137
sg138
g134
sg139
I0
sg140
I0
sg141
I0
sg142
g134
sg35
g132
sg143
I0
stRp4247
sg145
g146
sg147
F1
sg148
Nsg30
S'SpombA'
p4248
sbag1
(g2
g3
NtRp4249
(dp4250
g6
g1
(g7
g3
NtRp4251
(dp4252
g10
g1
(g11
g12
(dtRp4253
sg14
g1
(g11
g12
(dtRp4254
sg16
g1
(g11
g12
(dtRp4255
sg18
g1
(g11
g12
(dtRp4256
sg20
g1
(g11
g12
(dtRp4257
sg22
g1
(g11
g12
(dtRp4258
sbsg24
g25
sg26
g27
((lp4259
g33
ag32
ag29
ag30
atRp4260
sg37
(lp4261
g1
(g2
g3
NtRp4262
(dp4263
g6
g1
(g7
g3
NtRp4264
(dp4265
g10
g1
(g11
g12
(dtRp4266
sg14
g1
(g11
g12
(dtRp4267
sg16
g1
(g11
g12
(dtRp4268
sg18
g1
(g11
g12
(dtRp4269
sg20
g1
(g11
g12
(dtRp4270
sg22
g1
(g11
g12
(dtRp4271
sbsg24
S'Soc'
p4272
sg26
g27
((lp4273
g29
ag30
aS'sequence'
p4274
ag32
ag33
aS'species'
p4275
atRp4276
sg37
(lp4277
sg120
g4249
sg121
S'RWLSTKDLYSRMELPGLNQNVHGMFIIPLGFGNPMGDVYPRVNNTFWLPPLSLEGPGTGWTVYPPLSHSGPAVDLALQLTSSTLGSLNLTNMRGPLFWTSLLLLTLPVLGGFLFDRNLNTFAGGDPLYHLFWFFGHPEVYIIPAFGSHSTLNKFGMCASIALGLVWSHHLFVGLDDRAYFSAATMIAPTGIKFSWLATTGGQPMLAFLILFTGGTGVLNSVDAFHDTYFVVHFHYVLSMGAFGLAYYFWPGLYNLFWFNFPQHFLGGMPRRPYPDAGWNSGSSYQYNPSDDNEPH'
p4278
sg123
F0.03637
sg124
g125
sg33
S'76'
p4279
sg127
g1
(g128
g12
(dp4280
g130
I4
sg131
g132
sg133
g134
sg135
g132
sg136
I01
sg34
g137
sg138
g134
sg139
I0
sg140
I0
sg141
I0
sg142
g134
sg35
g132
sg143
I0
stRp4281
sg145
g146
sg147
F1
sg148
Nsg30
S'SoctoA'
p4282
sbag1
(g2
g3
NtRp4283
(dp4284
g6
g1
(g7
g3
NtRp4285
(dp4286
g10
g1
(g11
g12
(dtRp4287
sg14
g1
(g11
g12
(dtRp4288
sg16
g1
(g11
g12
(dtRp4289
sg18
g1
(g11
g12
(dtRp4290
sg20
g1
(g11
g12
(dtRp4291
sg22
g1
(g11
g12
(dtRp4292
sbsg24
S'Scr'
p4293
sg26
g27
((lp4294
g29
ag30
aS'sequence'
p4295
ag32
ag33
aS'species'
p4296
atRp4297
sg37
(lp4298
sg120
g4249
sg121
S'RWLSTKDLYSRMELPGLNQNVHGMFIIPLGFGNPMGDVYPRVNNTYWLPPLSLEGPGTGWTVYPPLSHSGPSVDLALQLTSSTLGSLNLTNMRGPLFWTSLLLLTLPVLGGFLFDRNLNTFAGGDPLYHLFWFFGHPEVYIIPAFGSHPTLNKFGMCASIALGLVWSHHLFVGLDDRAYFSAATMIAPTGIKFSWLATTGGQPMLAFLILFTGGTGVLNSVDAFHDTYFVVHFHYVLSMGAFGLAYYFWPGLYNLFWFNFPQHFLGGMPRRPYPDAGWNSGSSYQYNPSDDNEPH'
p4299
sg123
F0.036740000000000002
sg124
g125
sg33
S'79'
p4300
sg127
g1
(g128
g12
(dp4301
g130
I4
sg131
g132
sg133
g134
sg135
g132
sg136
I01
sg34
g137
sg138
g134
sg139
I0
sg140
I0
sg141
I0
sg142
g134
sg35
g132
sg143
I0
stRp4302
sg145
g146
sg147
F1
sg148
Nsg30
S'ScryoA'
p4303
sbasg120
g4215
sg123
F0.18453
sg124
g125
sg33
S'73'
p4304
sg127
g1
(g128
g12
(dp4305
g130
I8
sg131
g132
sg133
g134
sg135
g132
sg136
I01
sg34
g173
sg138
g134
sg139
I0
sg140
I0
sg141
I0
sg142
g134
sg35
g132
sg143
I0
stRp4306
sg145
g146
sg147
F0.98999999999999999
sg148
Nsg30
S'NoName'
p4307
sbasg120
g4181
sg123
F0.73307
sg124
g125
sg33
S'9'
sg127
g1
(g128
g12
(dp4308
g130
I8
sg131
g132
sg133
g134
sg135
g132
sg136
I01
sg34
g173
sg138
g134
sg139
I0
sg140
I0
sg141
I0
sg142
g134
sg35
g132
sg143
I0
stRp4309
sg145
g146
sg147
F0.98999999999999999
sg148
Nsg30
S'NoName'
p4310
sbasg120
g4
sg123
F1.7741899999999999
sg124
g125
sg33
S'62'
p4311
sg127
g1
(g128
g12
(dp4312
g130
I8
sg131
g132
sg133
g134
sg135
g132
sg136
I01
sg34
g173
sg138
g134
sg139
I0
sg140
I0
sg141
I0
sg142
g134
sg35
g132
sg143
I0
stRp4313
sg145
g146
sg147
F1
sg148
Nsg30
S'NoName'
p4314
sbasg31
S'8'
sg120
Nsg123
F0
sg124
g125
sg33
S'63'
p4315
sg34
g173
sg127
g1
(g128
g12
(dp4316
g130
I8
sg131
g132
sg133
g134
sg135
g132
sg136
I01
sg34
g173
sg138
g134
sg139
I0
sg140
I0
sg141
I0
sg142
g134
sg35
S'#833DB4'
p4317
sg143
I0
stRp4318
sg145
g146
sg147
F1
sg148
Nsg35
g4317
sg30
g125
sb.