ccopy_reg
_reconstructor
p1
(cete2.phylo.phylotree
PhyloNode
p2
c__builtin__
object
p3
NtRp4
(dp5
S'_faces'
p6
g1
(cete2.treeview.main
_FaceAreas
p7
g3
NtRp8
(dp9
S'branch-top'
p10
g1
(cete2.treeview.main
FaceContainer
p11
c__builtin__
dict
p12
(dtRp13
sS'float'
p14
g1
(g11
g12
(dtRp15
sS'branch-bottom'
p16
g1
(g11
g12
(dtRp17
sS'aligned'
p18
g1
(g11
g12
(dtRp19
sS'branch-right'
p20
g1
(g11
g12
(dtRp21
sS'float-behind'
p22
g1
(g11
g12
(dtRp23
sbsS'_species'
p24
S'Unknown'
p25
sS'features'
p26
c__builtin__
set
p27
((lp28
S'dist'
p29
aS'name'
p30
aS'bsize'
p31
aS'support'
p32
aS'_nid'
p33
aS'shape'
p34
aS'fgcolor'
p35
atRp36
sS'_children'
p37
(lp38
g1
(g2
g3
NtRp39
(dp40
g6
g1
(g7
g3
NtRp41
(dp42
g10
g1
(g11
g12
(dtRp43
sg14
g1
(g11
g12
(dtRp44
sg16
g1
(g11
g12
(dtRp45
sg18
g1
(g11
g12
(dtRp46
sg20
g1
(g11
g12
(dtRp47
sg22
g1
(g11
g12
(dtRp48
sbsg24
g25
sg26
g27
((lp49
g33
ag32
ag29
ag30
atRp50
sg37
(lp51
g1
(g2
g3
NtRp52
(dp53
g6
g1
(g7
g3
NtRp54
(dp55
g10
g1
(g11
g12
(dtRp56
sg14
g1
(g11
g12
(dtRp57
sg16
g1
(g11
g12
(dtRp58
sg18
g1
(g11
g12
(dtRp59
sg20
g1
(g11
g12
(dtRp60
sg22
g1
(g11
g12
(dtRp61
sbsg24
g25
sg26
g27
((lp62
g33
ag32
ag29
ag30
atRp63
sg37
(lp64
g1
(g2
g3
NtRp65
(dp66
g6
g1
(g7
g3
NtRp67
(dp68
g10
g1
(g11
g12
(dtRp69
sg14
g1
(g11
g12
(dtRp70
sg16
g1
(g11
g12
(dtRp71
sg18
g1
(g11
g12
(dtRp72
sg20
g1
(g11
g12
(dtRp73
sg22
g1
(g11
g12
(dtRp74
sbsg24
g25
sg26
g27
((lp75
g33
ag32
ag29
ag30
atRp76
sg37
(lp77
g1
(g2
g3
NtRp78
(dp79
g6
g1
(g7
g3
NtRp80
(dp81
g10
g1
(g11
g12
(dtRp82
sg14
g1
(g11
g12
(dtRp83
sg16
g1
(g11
g12
(dtRp84
sg18
g1
(g11
g12
(dtRp85
sg20
g1
(g11
g12
(dtRp86
sg22
g1
(g11
g12
(dtRp87
sbsg24
g25
sg26
g27
((lp88
g33
ag32
ag29
ag30
atRp89
sg37
(lp90
g1
(g2
g3
NtRp91
(dp92
g6
g1
(g7
g3
NtRp93
(dp94
g10
g1
(g11
g12
(dtRp95
sg14
g1
(g11
g12
(dtRp96
sg16
g1
(g11
g12
(dtRp97
sg18
g1
(g11
g12
(dtRp98
sg20
g1
(g11
g12
(dtRp99
sg22
g1
(g11
g12
(dtRp100
sbsg24
g25
sg26
g27
((lp101
g33
ag32
ag29
ag30
atRp102
sg37
(lp103
g1
(g2
g3
NtRp104
(dp105
g6
g1
(g7
g3
NtRp106
(dp107
g10
g1
(g11
g12
(dtRp108
sg14
g1
(g11
g12
(dtRp109
sg16
g1
(g11
g12
(dtRp110
sg18
g1
(g11
g12
(dtRp111
sg20
g1
(g11
g12
(dtRp112
sg22
g1
(g11
g12
(dtRp113
sbsg24
S'Yli'
p114
sg26
g27
((lp115
g29
ag30
aS'sequence'
p116
ag32
ag33
aS'species'
p117
atRp118
sg37
(lp119
sS'_up'
p120
g91
sS'sequence'
p121
S'RWLSTKDLYSRLELTGLNQNVHAMFVMPLGFGNPMGDMFARLNNSFWLVPLSLEGAGTGWTVYFPLAHSGPAVDLAFHLSSSLLGAINFTNMRGPLFWTALLLLSLPVLAGTGIDRNFNTFEGGDALYHLFWFFGHPEVYIIPGFGSHSAISKFGMYASIGLGFVWSHHMFVGLDDRAYFTSATMIAPTSIKFSWLATYGGRTALAFIFLFTGGTGVLNSADPFHDSYYVVHFHYVLSMGAFSIGWYLWPGLYNLFWFNFPMHFLGGMPRRNYPDAGWNSGSAYQLGPSGTNEPH'
p122
sS'_dist'
p123
F0.00011
sS'_name'
p124
S'NoName'
p125
sg33
S'48'
p126
sS'_img_style'
p127
g1
(cete2.treeview.main
NodeStyle
p128
g12
(dp129
S'size'
p130
I4
sS'hz_line_color'
p131
S'#000000'
p132
sS'faces_bgcolor'
p133
S'#FFFFFF'
p134
sS'vt_line_color'
p135
g132
sS'draw_descendants'
p136
I01
sg34
S'square'
p137
sS'bgcolor'
p138
g134
sS'hz_line_type'
p139
I0
sS'vt_line_width'
p140
I0
sS'vt_line_type'
p141
I0
sS'node_bgcolor'
p142
g134
sg35
S'#000000'
p143
sS'hz_line_width'
p144
I0
stRp145
sS'_speciesFunction'
p146
cete2.phylo.phylotree
_parse_species
p147
sS'_support'
p148
F1
sS'_temp_faces'
p149
Nsg30
S'YlipoB'
p150
sbag1
(g2
g3
NtRp151
(dp152
g6
g1
(g7
g3
NtRp153
(dp154
g10
g1
(g11
g12
(dtRp155
sg14
g1
(g11
g12
(dtRp156
sg16
g1
(g11
g12
(dtRp157
sg18
g1
(g11
g12
(dtRp158
sg20
g1
(g11
g12
(dtRp159
sg22
g1
(g11
g12
(dtRp160
sbsg24
S'Yli'
p161
sg26
g27
((lp162
g29
ag30
aS'sequence'
p163
ag32
ag33
aS'species'
p164
atRp165
sg37
(lp166
sg120
g91
sg121
S'RWLSTKDLYSRLELTGLNQNVHAMFVMPLGFGNPMGDMFARLNNSFWLVPLSLEGAGTGWTVYFPLAHSGPAVDLAFHLSSSLLGAINFTNMRGPLFWTALLLLSLPVLAGTGIDRNFNTFEGGDALYHLFWFFGHPEVYIIPGFGSHSAISKFGMYASIGLGFVWSHHMFVGLDDRAYFTSATMIAPTSIKFSWLATYGGRTALAFIFLFTGGTGVLNSADPFHDSYYVVHFHYVLSMGAFSIGWYLWPGLYNLFWFNFPMHFLGGMPRRNYPDAGWNSGSAYQLGPSGTNEPH'
p167
sg123
F0.00048000000000000001
sg124
g125
sg33
S'92'
p168
sg127
g1
(g128
g12
(dp169
g130
I4
sg131
g132
sg133
g134
sg135
g132
sg136
I01
sg34
g137
sg138
g134
sg139
I0
sg140
I0
sg141
I0
sg142
g134
sg35
g143
sg144
I0
stRp170
sg146
g147
sg148
F1
sg149
Nsg30
S'YlipoA'
p171
sbasg120
g78
sg123
F0.02656
sg124
g125
sg33
S'104'
p172
sg127
g1
(g128
g12
(dp173
g130
I6
sg131
g132
sg133
g134
sg135
g132
sg136
I01
sg34
S'circle'
p174
sg138
g134
sg139
I0
sg140
I0
sg141
I0
sg142
g134
sg35
S'#0030c1'
p175
sg144
I0
stRp176
sg146
g147
sg148
F1
sg149
Nsg30
S'NoName'
p177
sbag1
(g2
g3
NtRp178
(dp179
g6
g1
(g7
g3
NtRp180
(dp181
g10
g1
(g11
g12
(dtRp182
sg14
g1
(g11
g12
(dtRp183
sg16
g1
(g11
g12
(dtRp184
sg18
g1
(g11
g12
(dtRp185
sg20
g1
(g11
g12
(dtRp186
sg22
g1
(g11
g12
(dtRp187
sbsg24
g25
sg26
g27
((lp188
g33
ag32
ag29
ag30
atRp189
sg37
(lp190
g1
(g2
g3
NtRp191
(dp192
g6
g1
(g7
g3
NtRp193
(dp194
g10
g1
(g11
g12
(dtRp195
sg14
g1
(g11
g12
(dtRp196
sg16
g1
(g11
g12
(dtRp197
sg18
g1
(g11
g12
(dtRp198
sg20
g1
(g11
g12
(dtRp199
sg22
g1
(g11
g12
(dtRp200
sbsg24
S'Cga'
p201
sg26
g27
((lp202
g29
ag30
aS'sequence'
p203
ag32
ag33
aS'species'
p204
atRp205
sg37
(lp206
sg120
g178
sg121
S'RWLSTKDLYSRLELTGLNQNVHAMFVMPLGFGNPMGDMFARLNNSFWLVPLSLEGAGTGWTVYFPLAHSGPAVDLAFHLSSSLLGAINFTNMRGPLFWTALLLLSLPVLAGTGIDRNFNTFEGGDALYHLFWFFGHPEVYIIPGFGSHSAISKFGMYASIGLGFVWSHHMFVGLDDRAYFTSATMIAPTSIKFSWLSTYGGRTALAFIFLFTGGTGVLNSADPFHDSYYVVHFHYVLSMGAFSIGWYLWPGLYNLFWFNFPMHFLGGMPRRNYPDAGWNSGSAYQLGPSGTNEPH'
p207
sg123
F0.016299999999999999
sg124
g125
sg33
S'90'
p208
sg127
g1
(g128
g12
(dp209
g130
I4
sg131
g132
sg133
g134
sg135
g132
sg136
I01
sg34
g137
sg138
g134
sg139
I0
sg140
I0
sg141
I0
sg142
g134
sg35
g143
sg144
I0
stRp210
sg146
g147
sg148
F1
sg149
Nsg30
S'CgallA'
p211
sbag1
(g2
g3
NtRp212
(dp213
g6
g1
(g7
g3
NtRp214
(dp215
g10
g1
(g11
g12
(dtRp216
sg14
g1
(g11
g12
(dtRp217
sg16
g1
(g11
g12
(dtRp218
sg18
g1
(g11
g12
(dtRp219
sg20
g1
(g11
g12
(dtRp220
sg22
g1
(g11
g12
(dtRp221
sbsg24
S'Cde'
p222
sg26
g27
((lp223
g29
ag30
aS'sequence'
p224
ag32
ag33
aS'species'
p225
atRp226
sg37
(lp227
sg120
g178
sg121
S'RWLSTKDLYSRLELTGLNQNVHAMFVMPLGFGNPMGDMFARLNNSFWLVPLSLEGAGTGWTVYFPLAHSGPAVDLAFHLSSSLLGAINFTNMRGPLFWTALLLLSLPVLAGTGIDRNFNTFEGGDALYHLFFFNGHPEVYIIPGFGSHSAISKFGMYASIGLGFVWSHHMFVGLDDRAYFTSATMIAPTSIKFSWLATYGGRTALAFIFLFTGGTGVLNSADPFHDSYYVVHFHYVLSMGAFSIGWYLWPGLYNLFWFNFPMHFLGGMPRRNYPDAGWNSGSAYQLGPSGTNEPH'
p228
sg123
F0.018610000000000002
sg124
g125
sg33
S'12'
p229
sg127
g1
(g128
g12
(dp230
g130
I4
sg131
g132
sg133
g134
sg135
g132
sg136
I01
sg34
g137
sg138
g134
sg139
I0
sg140
I0
sg141
I0
sg142
g134
sg35
g143
sg144
I0
stRp231
sg146
g147
sg148
F1
sg149
Nsg30
S'CdefoA'
p232
sbasg120
g78
sg123
F0.00282
sg124
g125
sg33
S'29'
p233
sg127
g1
(g128
g12
(dp234
g130
I6
sg131
g132
sg133
g134
sg135
g132
sg136
I01
sg34
g174
sg138
g134
sg139
I0
sg140
I0
sg141
I0
sg142
g134
sg35
g175
sg144
I0
stRp235
sg146
g147
sg148
F0.96999999999999997
sg149
Nsg30
S'NoName'
p236
sbasg120
g65
sg123
F0.00479
sg124
g125
sg33
S'78'
p237
sg127
g1
(g128
g12
(dp238
g130
I6
sg131
g132
sg133
g134
sg135
g132
sg136
I01
sg34
g174
sg138
g134
sg139
I0
sg140
I0
sg141
I0
sg142
g134
sg35
g175
sg144
I0
stRp239
sg146
g147
sg148
F0.80000000000000004
sg149
Nsg30
S'NoName'
p240
sbag1
(g2
g3
NtRp241
(dp242
g6
g1
(g7
g3
NtRp243
(dp244
g10
g1
(g11
g12
(dtRp245
sg14
g1
(g11
g12
(dtRp246
sg16
g1
(g11
g12
(dtRp247
sg18
g1
(g11
g12
(dtRp248
sg20
g1
(g11
g12
(dtRp249
sg22
g1
(g11
g12
(dtRp250
sbsg24
S'Cal'
p251
sg26
g27
((lp252
g29
ag30
aS'sequence'
p253
ag32
ag33
aS'species'
p254
atRp255
sg37
(lp256
sg120
g65
sg121
S'RWLSTKDLYSRLELTGLNQNVHAMFVMPLGFGNPMGDMFARLNNSFWLVPMSLEGAGTGWTVYFPLAHSGPAVDLAFHLASSLLGAINFTNMRGPLFWTALLLLSLPVLAGTGIDRNFNTFEGGDALYHLFWFFGHPEVYIIPGFGSHSAISKFGMYASIGLGFVWSHHMFVGLDDRAYFTSATMIAPTSIKFSWLATYGGRTALAFIFLFTGGTGVLNSADPFHDSYYVVHFHYVLSMGAFSIGWYLWPGLYNLFWFNFPMHFLGGMPRRNYPDAGWNSGSAYQLGPSGTNEPH'
p257
sg123
F0.035970000000000002
sg124
g125
sg33
S'57'
p258
sg127
g1
(g128
g12
(dp259
g130
I4
sg131
g132
sg133
g134
sg135
g132
sg136
I01
sg34
g137
sg138
g134
sg139
I0
sg140
I0
sg141
I0
sg142
g134
sg35
g143
sg144
I0
stRp260
sg146
g147
sg148
F1
sg149
Nsg30
S'CalimA'
p261
sbasg120
g52
sg123
F1.1444799999999999
sg124
g125
sg33
S'56'
p262
sg127
g1
(g128
g12
(dp263
g130
I6
sg131
g132
sg133
g134
sg135
g132
sg136
I01
sg34
g174
sg138
g134
sg139
I0
sg140
I0
sg141
I0
sg142
g134
sg35
g175
sg144
I0
stRp264
sg146
g147
sg148
F0.97999999999999998
sg149
Nsg30
S'NoName'
p265
sbag1
(g2
g3
NtRp266
(dp267
g6
g1
(g7
g3
NtRp268
(dp269
g10
g1
(g11
g12
(dtRp270
sg14
g1
(g11
g12
(dtRp271
sg16
g1
(g11
g12
(dtRp272
sg18
g1
(g11
g12
(dtRp273
sg20
g1
(g11
g12
(dtRp274
sg22
g1
(g11
g12
(dtRp275
sbsg24
g25
sg26
g27
((lp276
g33
ag32
ag29
ag30
atRp277
sg37
(lp278
g1
(g2
g3
NtRp279
(dp280
g6
g1
(g7
g3
NtRp281
(dp282
g10
g1
(g11
g12
(dtRp283
sg14
g1
(g11
g12
(dtRp284
sg16
g1
(g11
g12
(dtRp285
sg18
g1
(g11
g12
(dtRp286
sg20
g1
(g11
g12
(dtRp287
sg22
g1
(g11
g12
(dtRp288
sbsg24
g25
sg26
g27
((lp289
g33
ag32
ag29
ag30
atRp290
sg37
(lp291
g1
(g2
g3
NtRp292
(dp293
g6
g1
(g7
g3
NtRp294
(dp295
g10
g1
(g11
g12
(dtRp296
sg14
g1
(g11
g12
(dtRp297
sg16
g1
(g11
g12
(dtRp298
sg18
g1
(g11
g12
(dtRp299
sg20
g1
(g11
g12
(dtRp300
sg22
g1
(g11
g12
(dtRp301
sbsg24
g25
sg26
g27
((lp302
g33
ag32
ag29
ag30
atRp303
sg37
(lp304
g1
(g2
g3
NtRp305
(dp306
g6
g1
(g7
g3
NtRp307
(dp308
g10
g1
(g11
g12
(dtRp309
sg14
g1
(g11
g12
(dtRp310
sg16
g1
(g11
g12
(dtRp311
sg18
g1
(g11
g12
(dtRp312
sg20
g1
(g11
g12
(dtRp313
sg22
g1
(g11
g12
(dtRp314
sbsg24
g25
sg26
g27
((lp315
g33
ag32
ag29
ag30
atRp316
sg37
(lp317
g1
(g2
g3
NtRp318
(dp319
g6
g1
(g7
g3
NtRp320
(dp321
g10
g1
(g11
g12
(dtRp322
sg14
g1
(g11
g12
(dtRp323
sg16
g1
(g11
g12
(dtRp324
sg18
g1
(g11
g12
(dtRp325
sg20
g1
(g11
g12
(dtRp326
sg22
g1
(g11
g12
(dtRp327
sbsg24
S'Mst'
p328
sg26
g27
((lp329
g29
ag30
aS'sequence'
p330
ag32
ag33
aS'species'
p331
atRp332
sg37
(lp333
sg120
g305
sg121
S'RWLSTKDLYSRLELPTLNQNVHAMFVMPSGFGNPMGDMLARLNNSFWLVPVSLEGAGTGWTVYPPLSHSGASVDLVFHMSSSLLGAINFTNMRGTLFWTALLLLSLPVLSGTLLDRNFNTFEGGDPLYHLFWFFGHPEVYIIPGFGSHSTYKKFGMYASMGLGFVWSHHMYVGLDDRAYFTSATMMAPTGVKFSWLATYGGRPFLAFMFLFTGGTGVLNASDAFHDTYYVVHFHYVLSLGAFSLGYYFWPGLYNLFMFNFPLHFLGGMPRRPYPDAGWNSGSSYQLGPDESNEPH'
p334
sg123
F0.087190000000000004
sg124
g125
sg33
S'9'
sg127
g1
(g128
g12
(dp335
g130
I4
sg131
g132
sg133
g134
sg135
g132
sg136
I01
sg34
g137
sg138
g134
sg139
I0
sg140
I0
sg141
I0
sg142
g134
sg35
g143
sg144
I0
stRp336
sg146
g147
sg148
F1
sg149
Nsg30
S'MstarA'
p337
sbag1
(g2
g3
NtRp338
(dp339
g6
g1
(g7
g3
NtRp340
(dp341
g10
g1
(g11
g12
(dtRp342
sg14
g1
(g11
g12
(dtRp343
sg16
g1
(g11
g12
(dtRp344
sg18
g1
(g11
g12
(dtRp345
sg20
g1
(g11
g12
(dtRp346
sg22
g1
(g11
g12
(dtRp347
sbsg24
S'Min'
p348
sg26
g27
((lp349
g29
ag30
aS'sequence'
p350
ag32
ag33
aS'species'
p351
atRp352
sg37
(lp353
sg120
g305
sg121
S'RWLSTKDLYSRLELPTLNQNVHAMFVMPAGFGNPMGDMLARLNNSFWLVPVSLEGAGTGWTVYPPLSHSGPSVDLVFHISSSLLGSMNFTNMRGTLFWTSLLLLSLPVLSGTLLDRNFNTFEGGDPLYHLFYKMMLFSMYMMPGFGSHSAYKKFGMYASIGLGFVWSHHMYVGLDDRAYFTSATMIAPTGVKFSWLATYGGRPFLAFMFLFTGGTGVLNASDAFHDTYYVVHFHYVLSLGAFSLGYYFWPGLYNLFTFNFPLHFLGGMPRRPYPDAGWNSGSSYQLGPDESNEPH'
p354
sg123
F0.040719999999999999
sg124
g125
sg33
S'37'
p355
sg127
g1
(g128
g12
(dp356
g130
I4
sg131
g132
sg133
g134
sg135
g132
sg136
I01
sg34
g137
sg138
g134
sg139
I0
sg140
I0
sg141
I0
sg142
g134
sg35
g143
sg144
I0
stRp357
sg146
g147
sg148
F1
sg149
Nsg30
S'MingeA'
p358
sbasg120
g292
sg123
F0.037420000000000002
sg124
g125
sg33
S'65'
p359
sg127
g1
(g128
g12
(dp360
g130
I6
sg131
g132
sg133
g134
sg135
g132
sg136
I01
sg34
g174
sg138
g134
sg139
I0
sg140
I0
sg141
I0
sg142
g134
sg35
g175
sg144
I0
stRp361
sg146
g147
sg148
F0.98999999999999999
sg149
Nsg30
S'NoName'
p362
sbag1
(g2
g3
NtRp363
(dp364
g6
g1
(g7
g3
NtRp365
(dp366
g10
g1
(g11
g12
(dtRp367
sg14
g1
(g11
g12
(dtRp368
sg16
g1
(g11
g12
(dtRp369
sg18
g1
(g11
g12
(dtRp370
sg20
g1
(g11
g12
(dtRp371
sg22
g1
(g11
g12
(dtRp372
sbsg24
g25
sg26
g27
((lp373
g33
ag32
ag29
ag30
atRp374
sg37
(lp375
g1
(g2
g3
NtRp376
(dp377
g6
g1
(g7
g3
NtRp378
(dp379
g10
g1
(g11
g12
(dtRp380
sg14
g1
(g11
g12
(dtRp381
sg16
g1
(g11
g12
(dtRp382
sg18
g1
(g11
g12
(dtRp383
sg20
g1
(g11
g12
(dtRp384
sg22
g1
(g11
g12
(dtRp385
sbsg24
g25
sg26
g27
((lp386
g33
ag32
ag29
ag30
atRp387
sg37
(lp388
g1
(g2
g3
NtRp389
(dp390
g6
g1
(g7
g3
NtRp391
(dp392
g10
g1
(g11
g12
(dtRp393
sg14
g1
(g11
g12
(dtRp394
sg16
g1
(g11
g12
(dtRp395
sg18
g1
(g11
g12
(dtRp396
sg20
g1
(g11
g12
(dtRp397
sg22
g1
(g11
g12
(dtRp398
sbsg24
S'Mte'
p399
sg26
g27
((lp400
g29
ag30
aS'sequence'
p401
ag32
ag33
aS'species'
p402
atRp403
sg37
(lp404
sg120
g376
sg121
S'RWLSTKDLYSRLELPTLNQNVHAMFVMPAGFGNPMGDMLARLNNSFWLVPLSLEGAGTGWTVYPPLSHSGPSVDMVFHISSSLLGAINFTNMRGTLFWTALLLLSLPVLSGTLLDRNFNTFEGGDPLYHLFWFFGHPEVYIIPGFGSHSAYKKFGMYASIGLGFVWSHHMYVGLDDRAYFTSATMIAPTGVKFSWLATYGGRPFLAFIFLFTGGTGVLNASDAFHDTYYVVHFHYVLSLGAFSLGYYFWPGLYNLFYFNFPMHALGGMPRRPYPDAGWNSGSSYQLGPDESNEPH'
p405
sg123
F0.042599999999999999
sg124
g125
sg33
S'122'
p406
sg127
g1
(g128
g12
(dp407
g130
I4
sg131
g132
sg133
g134
sg135
g132
sg136
I01
sg34
g137
sg138
g134
sg139
I0
sg140
I0
sg141
I0
sg142
g134
sg35
g143
sg144
I0
stRp408
sg146
g147
sg148
F1
sg149
Nsg30
S'MtetrA'
p409
sbag1
(g2
g3
NtRp410
(dp411
g6
g1
(g7
g3
NtRp412
(dp413
g10
g1
(g11
g12
(dtRp414
sg14
g1
(g11
g12
(dtRp415
sg16
g1
(g11
g12
(dtRp416
sg18
g1
(g11
g12
(dtRp417
sg20
g1
(g11
g12
(dtRp418
sg22
g1
(g11
g12
(dtRp419
sbsg24
g25
sg26
g27
((lp420
g33
ag32
ag29
ag30
atRp421
sg37
(lp422
g1
(g2
g3
NtRp423
(dp424
g6
g1
(g7
g3
NtRp425
(dp426
g10
g1
(g11
g12
(dtRp427
sg14
g1
(g11
g12
(dtRp428
sg16
g1
(g11
g12
(dtRp429
sg18
g1
(g11
g12
(dtRp430
sg20
g1
(g11
g12
(dtRp431
sg22
g1
(g11
g12
(dtRp432
sbsg24
S'Mma'
p433
sg26
g27
((lp434
g29
ag30
aS'sequence'
p435
ag32
ag33
aS'species'
p436
atRp437
sg37
(lp438
sg120
g410
sg121
S'RWLSTKDLYSRLELPTLNQNVHAMFVMPAGFGNPMGDMLARLNNSFWLVPLSLEGPGTGWTVYPPLSHSGPSVDMVFHISSSLLGAINFTNMRGTLFWTALLLLSLPVLSGTLLDRNFNTFEGGDPLYHLFWFFGHPEVYIIPGFGSHSAYKKFGMYASIGLGFVWSHHMYVGLDDRAYFTSATMIAPTGVKFSWLATYGGRPFLAFIFLFTGGTGVLNASDAFHDSYYVVHFHYVLSLGAFSLGYYFWPGLYNLFFFNFPMHALGGMPRRPYPDAGWNSGSSYQLGPDESNEPH'
p439
sg123
F0.00055000000000000003
sg124
g125
sg33
S'113'
p440
sg127
g1
(g128
g12
(dp441
g130
I4
sg131
g132
sg133
g134
sg135
g132
sg136
I01
sg34
g137
sg138
g134
sg139
I0
sg140
I0
sg141
I0
sg142
g134
sg35
g143
sg144
I0
stRp442
sg146
g147
sg148
F1
sg149
Nsg30
S'MmagnB'
p443
sbag1
(g2
g3
NtRp444
(dp445
g6
g1
(g7
g3
NtRp446
(dp447
g10
g1
(g11
g12
(dtRp448
sg14
g1
(g11
g12
(dtRp449
sg16
g1
(g11
g12
(dtRp450
sg18
g1
(g11
g12
(dtRp451
sg20
g1
(g11
g12
(dtRp452
sg22
g1
(g11
g12
(dtRp453
sbsg24
S'Mma'
p454
sg26
g27
((lp455
g29
ag30
aS'sequence'
p456
ag32
ag33
aS'species'
p457
atRp458
sg37
(lp459
sg120
g410
sg121
S'RWLSTKDLYSRLELPTLNQNVHAMFVMPAGFGNPMGDMLARLNNSFWLVPLSLEGPGTGWTVYPPLSHSGPSVDMVFHISSSLLGAINFTNMRGTLFWTALLLLSLPVLSGTLLDRNFNTFEGGDPLYHLFWFFGHPEVYIIPGFGSHSAYKKFGMYASIGLGFVWSHHMYVGLDDRAYFTSATMIAPTGVKFSWLATYGGRPFLAFIFLFTGGTGVLNASDAFHDSYYVVHFHYVLSLGAFSLGYYFWPGLYNLFFFNFPMHALGGMPRRPYPDAGWNSGSSYQLGPDESNEPH'
p460
sg123
F0.00088000000000000003
sg124
g125
sg33
S'114'
p461
sg127
g1
(g128
g12
(dp462
g130
I4
sg131
g132
sg133
g134
sg135
g132
sg136
I01
sg34
g137
sg138
g134
sg139
I0
sg140
I0
sg141
I0
sg142
g134
sg35
g143
sg144
I0
stRp463
sg146
g147
sg148
F1
sg149
Nsg30
S'MmagnA'
p464
sbasg120
g376
sg123
F0.011140000000000001
sg124
g125
sg33
S'117'
p465
sg127
g1
(g128
g12
(dp466
g130
I6
sg131
g132
sg133
g134
sg135
g132
sg136
I01
sg34
g174
sg138
g134
sg139
I0
sg140
I0
sg141
I0
sg142
g134
sg35
g175
sg144
I0
stRp467
sg146
g147
sg148
F0.98999999999999999
sg149
Nsg30
S'NoName'
p468
sbasg120
g363
sg123
F0.11189
sg124
g125
sg33
S'3'
sg127
g1
(g128
g12
(dp469
g130
I6
sg131
g132
sg133
g134
sg135
g132
sg136
I01
sg34
g174
sg138
g134
sg139
I0
sg140
I0
sg141
I0
sg142
g134
sg35
g175
sg144
I0
stRp470
sg146
g147
sg148
F0.98999999999999999
sg149
Nsg30
S'NoName'
p471
sbag1
(g2
g3
NtRp472
(dp473
g6
g1
(g7
g3
NtRp474
(dp475
g10
g1
(g11
g12
(dtRp476
sg14
g1
(g11
g12
(dtRp477
sg16
g1
(g11
g12
(dtRp478
sg18
g1
(g11
g12
(dtRp479
sg20
g1
(g11
g12
(dtRp480
sg22
g1
(g11
g12
(dtRp481
sbsg24
g25
sg26
g27
((lp482
g33
ag32
ag29
ag30
atRp483
sg37
(lp484
g1
(g2
g3
NtRp485
(dp486
g6
g1
(g7
g3
NtRp487
(dp488
g10
g1
(g11
g12
(dtRp489
sg14
g1
(g11
g12
(dtRp490
sg16
g1
(g11
g12
(dtRp491
sg18
g1
(g11
g12
(dtRp492
sg20
g1
(g11
g12
(dtRp493
sg22
g1
(g11
g12
(dtRp494
sbsg24
S'Scl'
p495
sg26
g27
((lp496
g29
ag30
aS'sequence'
p497
ag32
ag33
aS'species'
p498
atRp499
sg37
(lp500
sg120
g472
sg121
S'RWLSTKDLYSRLELPTLNQNVHAMFVMPAGFGNPMGDMLARLNNSFWLVPLSLEGPGTGWTVYPPLSHSGPSVDMVFHMSSSLLGAINFTNMRGTLFWTALLLLSLPVLAGTLLDRNFNTFEGGDPLYHLFWFFGHPEVYMIPGFGSHSTYKKFGMYASMGLGFVWSHHMYVGLDDRAYFTAATMIAPTGVKFSWLATYGGRPFLTFMFLFTGGTGVLNASDAFHDTYYVVHFHYVLSLGAFSLGYYFWPGLYNLFMFNFPLHFLGGMPRRPYPDAGWNSGSSYQLGPDESNEPH'
p501
sg123
F0.020899999999999998
sg124
g125
sg33
S'205'
p502
sg127
g1
(g128
g12
(dp503
g130
I4
sg131
g132
sg133
g134
sg135
g132
sg136
I01
sg34
g137
sg138
g134
sg139
I0
sg140
I0
sg141
I0
sg142
g134
sg35
g143
sg144
I0
stRp504
sg146
g147
sg148
F1
sg149
Nsg30
S'SclavA'
p505
sbag1
(g2
g3
NtRp506
(dp507
g6
g1
(g7
g3
NtRp508
(dp509
g10
g1
(g11
g12
(dtRp510
sg14
g1
(g11
g12
(dtRp511
sg16
g1
(g11
g12
(dtRp512
sg18
g1
(g11
g12
(dtRp513
sg20
g1
(g11
g12
(dtRp514
sg22
g1
(g11
g12
(dtRp515
sbsg24
S'Msp'
p516
sg26
g27
((lp517
g29
ag30
aS'sequence'
p518
ag32
ag33
aS'species'
p519
atRp520
sg37
(lp521
sg120
g472
sg121
S'RWLSTKDLYSRLELPTLNQNVHAMFVMPAGFGNPMGDMLARLNNSFWLVPLSLEGPGTGWTVYPPLSHSGPSVDMVFHMSSSLLGAMNFTNMRGTLFWTALLLLSLPVLAGTLLDRNFNTFEGGDPLYHLFWFFGHPEVYMIPGFGSHSTYKKFGMYASMGLGFVWSHHMYVGLDDRAYFTAATMIAPTGVKFSWLATYGGRPFLTFMFLFTGGTGVLNASDAFHDTYYVVHFHYVLSLGAFSLGYYFWPGLYNLFMFNFPLHFLGGMPRRPYPDAGWNSGSSYQLGPDESNEPH'
p522
sg123
F0.13538
sg124
g125
sg33
S'124'
p523
sg127
g1
(g128
g12
(dp524
g130
I4
sg131
g132
sg133
g134
sg135
g132
sg136
I01
sg34
g137
sg138
g134
sg139
I0
sg140
I0
sg141
I0
sg142
g134
sg35
g143
sg144
I0
stRp525
sg146
g147
sg148
F1
sg149
Nsg30
S'MspicA'
p526
sbasg120
g363
sg123
F0.10536
sg124
g125
sg33
S'118'
p527
sg127
g1
(g128
g12
(dp528
g130
I6
sg131
g132
sg133
g134
sg135
g132
sg136
I01
sg34
g174
sg138
g134
sg139
I0
sg140
I0
sg141
I0
sg142
g134
sg35
g175
sg144
I0
stRp529
sg146
g147
sg148
F0.98999999999999999
sg149
Nsg30
S'NoName'
p530
sbasg120
g292
sg123
F0.03209
sg124
g125
sg33
S'87'
p531
sg127
g1
(g128
g12
(dp532
g130
I6
sg131
g132
sg133
g134
sg135
g132
sg136
I01
sg34
g174
sg138
g134
sg139
I0
sg140
I0
sg141
I0
sg142
g134
sg35
g175
sg144
I0
stRp533
sg146
g147
sg148
F0.98999999999999999
sg149
Nsg30
S'NoName'
p534
sbasg120
g279
sg123
F0.32869999999999999
sg124
g125
sg33
S'76'
p535
sg127
g1
(g128
g12
(dp536
g130
I6
sg131
g132
sg133
g134
sg135
g132
sg136
I01
sg34
g174
sg138
g134
sg139
I0
sg140
I0
sg141
I0
sg142
g134
sg35
g175
sg144
I0
stRp537
sg146
g147
sg148
F0.98999999999999999
sg149
Nsg30
S'NoName'
p538
sbag1
(g2
g3
NtRp539
(dp540
g6
g1
(g7
g3
NtRp541
(dp542
g10
g1
(g11
g12
(dtRp543
sg14
g1
(g11
g12
(dtRp544
sg16
g1
(g11
g12
(dtRp545
sg18
g1
(g11
g12
(dtRp546
sg20
g1
(g11
g12
(dtRp547
sg22
g1
(g11
g12
(dtRp548
sbsg24
g25
sg26
g27
((lp549
g33
ag32
ag29
ag30
atRp550
sg37
(lp551
g1
(g2
g3
NtRp552
(dp553
g6
g1
(g7
g3
NtRp554
(dp555
g10
g1
(g11
g12
(dtRp556
sg14
g1
(g11
g12
(dtRp557
sg16
g1
(g11
g12
(dtRp558
sg18
g1
(g11
g12
(dtRp559
sg20
g1
(g11
g12
(dtRp560
sg22
g1
(g11
g12
(dtRp561
sbsg24
g25
sg26
g27
((lp562
g33
ag32
ag29
ag30
atRp563
sg37
(lp564
g1
(g2
g3
NtRp565
(dp566
g6
g1
(g7
g3
NtRp567
(dp568
g10
g1
(g11
g12
(dtRp569
sg14
g1
(g11
g12
(dtRp570
sg16
g1
(g11
g12
(dtRp571
sg18
g1
(g11
g12
(dtRp572
sg20
g1
(g11
g12
(dtRp573
sg22
g1
(g11
g12
(dtRp574
sbsg24
S'Cze'
p575
sg26
g27
((lp576
g29
ag30
aS'sequence'
p577
ag32
ag33
aS'species'
p578
atRp579
sg37
(lp580
sg120
g552
sg121
S'SWLSTQNLYSRIELPNLNQNVHAMFVMPTGLANPQGDTFPRMNNAFVLLPMSLDGPGSGWTLYPPLTHSGSSMDMAFHLSSSIFGAINLTNMRGPLFWTALMMLALPVLAGTLLDRNFNTFVGGDPLYHIFWFFGHPEVYIIPVFGSQQVYKKFGMYASIGLGFVWSHHMFVGLDDRAYFSGASLIAPTGSKFSWLATYGGRPLLAFMVLFTGGTGVMNSSDMFHDTYYVVHFHYVLSLGVFGVAYYFWPGLYNLFWFNFPLHFLGGLPRRPYPDAGWNSGSSYQFGPDESNEPH'
p581
sg123
F1.5682799999999999
sg124
g125
sg33
S'211'
p582
sg127
g1
(g128
g12
(dp583
g130
I4
sg131
g132
sg133
g134
sg135
g132
sg136
I01
sg34
g137
sg138
g134
sg139
I0
sg140
I0
sg141
I0
sg142
g134
sg35
g143
sg144
I0
stRp584
sg146
g147
sg148
F1
sg149
Nsg30
S'CzempA'
p585
sbag1
(g2
g3
NtRp586
(dp587
g6
g1
(g7
g3
NtRp588
(dp589
g10
g1
(g11
g12
(dtRp590
sg14
g1
(g11
g12
(dtRp591
sg16
g1
(g11
g12
(dtRp592
sg18
g1
(g11
g12
(dtRp593
sg20
g1
(g11
g12
(dtRp594
sg22
g1
(g11
g12
(dtRp595
sbsg24
g25
sg26
g27
((lp596
g33
ag32
ag29
ag30
atRp597
sg37
(lp598
g1
(g2
g3
NtRp599
(dp600
g6
g1
(g7
g3
NtRp601
(dp602
g10
g1
(g11
g12
(dtRp603
sg14
g1
(g11
g12
(dtRp604
sg16
g1
(g11
g12
(dtRp605
sg18
g1
(g11
g12
(dtRp606
sg20
g1
(g11
g12
(dtRp607
sg22
g1
(g11
g12
(dtRp608
sbsg24
S'Csa'
p609
sg26
g27
((lp610
g29
ag30
aS'sequence'
p611
ag32
ag33
aS'species'
p612
atRp613
sg37
(lp614
sg120
g586
sg121
S'----------RLELPNLNQNVHAMFVMPSGFGNPMGDMLARLNNSFWLVPLSLDGPGTGWTMYPPLSHSGASVDLVFHISSSLLGAMNFTNMRGTLFWTALLLLSLPVLSGTLLDRNFNTFEGGDMLYHMFWFFGHPEVYMMPGFGSQSVYKKFGMYASMGLGFVWSHHMFVGLDDRAYFTAATLMAPTGVKFSWLASYGGRPLLAFMFLFTGGTGVLNASDAFHDTYYVVHFHYVLSLGAFSLGYYFWPGLYNLFWFNFPQHFLGAMPRRPYPDAGWNSGSSYQMGPDFSNEPH'
p615
sg123
F0.65920000000000001
sg124
g125
sg33
S'176'
p616
sg127
g1
(g128
g12
(dp617
g130
I4
sg131
g132
sg133
g134
sg135
g132
sg136
I01
sg34
g137
sg138
g134
sg139
I0
sg140
I0
sg141
I0
sg142
g134
sg35
g143
sg144
I0
stRp618
sg146
g147
sg148
F1
sg149
Nsg30
S'CsantA'
p619
sbag1
(g2
g3
NtRp620
(dp621
g6
g1
(g7
g3
NtRp622
(dp623
g10
g1
(g11
g12
(dtRp624
sg14
g1
(g11
g12
(dtRp625
sg16
g1
(g11
g12
(dtRp626
sg18
g1
(g11
g12
(dtRp627
sg20
g1
(g11
g12
(dtRp628
sg22
g1
(g11
g12
(dtRp629
sbsg24
S'Csa'
p630
sg26
g27
((lp631
g29
ag30
aS'sequence'
p632
ag32
ag33
aS'species'
p633
atRp634
sg37
(lp635
sg120
g586
sg121
S'RWLSTKDLYSRLELPAMSQNVHAMFVMPSGFANPMGDTLPRVNNAAILMPMSLEGPGTGWTVYPPLSHSGVSVDLVFHISSSLAGAMNLTNMRGPLFWTALLLLSLPVLAGTLIDRNFNTFDGGDVLYHLFWFFGHPEVYIIPGFGSESRYNKFGMYASIGLGFVWSHHMYVGLDDRSYFTAATLIAPTGVKFSWMATFGGRPFLTFLALFTGGTGVLNASDAFHDTYYVVHFHYVLSLGAFSMGYYYWPGLYNLFWFNFPQHFLGGQPRRSYPDAGWNSGSSYQLGPDESNEPH'
p636
sg123
F1.3581099999999999
sg124
g125
sg33
S'188'
p637
sg127
g1
(g128
g12
(dp638
g130
I4
sg131
g132
sg133
g134
sg135
g132
sg136
I01
sg34
g137
sg138
g134
sg139
I0
sg140
I0
sg141
I0
sg142
g134
sg35
g143
sg144
I0
stRp639
sg146
g147
sg148
F1
sg149
Nsg30
S'CsalmA'
p640
sbasg120
g552
sg123
F0.19968
sg124
g125
sg33
S'49'
p641
sg127
g1
(g128
g12
(dp642
g130
I6
sg131
g132
sg133
g134
sg135
g132
sg136
I01
sg34
g174
sg138
g134
sg139
I0
sg140
I0
sg141
I0
sg142
g134
sg35
g175
sg144
I0
stRp643
sg146
g147
sg148
F0.97999999999999998
sg149
Nsg30
S'NoName'
p644
sbasg120
g539
sg123
F0.14363999999999999
sg124
g125
sg33
S'126'
p645
sg127
g1
(g128
g12
(dp646
g130
I6
sg131
g132
sg133
g134
sg135
g132
sg136
I01
sg34
g174
sg138
g134
sg139
I0
sg140
I0
sg141
I0
sg142
g134
sg35
g175
sg144
I0
stRp647
sg146
g147
sg148
F0.93000000000000005
sg149
Nsg30
S'NoName'
p648
sbag1
(g2
g3
NtRp649
(dp650
g6
g1
(g7
g3
NtRp651
(dp652
g10
g1
(g11
g12
(dtRp653
sg14
g1
(g11
g12
(dtRp654
sg16
g1
(g11
g12
(dtRp655
sg18
g1
(g11
g12
(dtRp656
sg20
g1
(g11
g12
(dtRp657
sg22
g1
(g11
g12
(dtRp658
sbsg24
S'Bar'
p659
sg26
g27
((lp660
g29
ag30
aS'sequence'
p661
ag32
ag33
aS'species'
p662
atRp663
sg37
(lp664
sg120
g539
sg121
S'RWLSTKDLYSRLELPNLNQNSHAMFVMPTGFGNPMGDMLSRLNNSFWLVPLSLEGPGTGWTVYPPLSHSGPSVDLVFHVSSSLLGAMNFTNMRGTLFWTVLLLLALPVLAGTLLDRNFNTFEGGDPLYHMFWFFGHPEVYIIPGFGSQAVYNKFGMYASIGLGFVWSHHMYVGMDDRAYFTAATLIAPTGVKFSWLASYGGRPLLTFIGLFTGGTGVLNAADAFHDSYYVVHFHYVLSLGAFSLGYYFWPGLYNLFWFNFPQHFLGSMPRRPYPDAGWNSGSSVQLGPDVNNEPH'
p665
sg123
F0.74575000000000002
sg124
g125
sg33
S'164'
p666
sg127
g1
(g128
g12
(dp667
g130
I4
sg131
g132
sg133
g134
sg135
g132
sg136
I01
sg34
g137
sg138
g134
sg139
I0
sg140
I0
sg141
I0
sg142
g134
sg35
g143
sg144
I0
stRp668
sg146
g147
sg148
F1
sg149
Nsg30
S'BarxA'
p669
sbasg120
g279
sg123
F0.25233
sg124
g125
sg33
S'130'
p670
sg127
g1
(g128
g12
(dp671
g130
I6
sg131
g132
sg133
g134
sg135
g132
sg136
I01
sg34
g174
sg138
g134
sg139
I0
sg140
I0
sg141
I0
sg142
g134
sg35
g175
sg144
I0
stRp672
sg146
g147
sg148
F0.97999999999999998
sg149
Nsg30
S'NoName'
p673
sbasg120
g266
sg123
F0.42224
sg124
g125
sg33
S'34'
p674
sg127
g1
(g128
g12
(dp675
g130
I6
sg131
g132
sg133
g134
sg135
g132
sg136
I01
sg34
g174
sg138
g134
sg139
I0
sg140
I0
sg141
I0
sg142
g134
sg35
g175
sg144
I0
stRp676
sg146
g147
sg148
F0.97999999999999998
sg149
Nsg30
S'NoName'
p677
sbag1
(g2
g3
NtRp678
(dp679
g6
g1
(g7
g3
NtRp680
(dp681
g10
g1
(g11
g12
(dtRp682
sg14
g1
(g11
g12
(dtRp683
sg16
g1
(g11
g12
(dtRp684
sg18
g1
(g11
g12
(dtRp685
sg20
g1
(g11
g12
(dtRp686
sg22
g1
(g11
g12
(dtRp687
sbsg24
g25
sg26
g27
((lp688
g33
ag32
ag29
ag30
atRp689
sg37
(lp690
g1
(g2
g3
NtRp691
(dp692
g6
g1
(g7
g3
NtRp693
(dp694
g10
g1
(g11
g12
(dtRp695
sg14
g1
(g11
g12
(dtRp696
sg16
g1
(g11
g12
(dtRp697
sg18
g1
(g11
g12
(dtRp698
sg20
g1
(g11
g12
(dtRp699
sg22
g1
(g11
g12
(dtRp700
sbsg24
g25
sg26
g27
((lp701
g33
ag32
ag29
ag30
atRp702
sg37
(lp703
g1
(g2
g3
NtRp704
(dp705
g6
g1
(g7
g3
NtRp706
(dp707
g10
g1
(g11
g12
(dtRp708
sg14
g1
(g11
g12
(dtRp709
sg16
g1
(g11
g12
(dtRp710
sg18
g1
(g11
g12
(dtRp711
sg20
g1
(g11
g12
(dtRp712
sg22
g1
(g11
g12
(dtRp713
sbsg24
g25
sg26
g27
((lp714
g33
ag32
ag29
ag30
atRp715
sg37
(lp716
g1
(g2
g3
NtRp717
(dp718
g6
g1
(g7
g3
NtRp719
(dp720
g10
g1
(g11
g12
(dtRp721
sg14
g1
(g11
g12
(dtRp722
sg16
g1
(g11
g12
(dtRp723
sg18
g1
(g11
g12
(dtRp724
sg20
g1
(g11
g12
(dtRp725
sg22
g1
(g11
g12
(dtRp726
sbsg24
g25
sg26
g27
((lp727
g33
ag32
ag29
ag30
atRp728
sg37
(lp729
g1
(g2
g3
NtRp730
(dp731
g6
g1
(g7
g3
NtRp732
(dp733
g10
g1
(g11
g12
(dtRp734
sg14
g1
(g11
g12
(dtRp735
sg16
g1
(g11
g12
(dtRp736
sg18
g1
(g11
g12
(dtRp737
sg20
g1
(g11
g12
(dtRp738
sg22
g1
(g11
g12
(dtRp739
sbsg24
S'Mfa'
p740
sg26
g27
((lp741
g29
ag30
aS'sequence'
p742
ag32
ag33
aS'species'
p743
atRp744
sg37
(lp745
sg120
g717
sg121
S'RWLSTKDLYSRLELGNLNQNVHAMFVMPLGFGNPLGDMFARLNNSFWLPPLSLEGAGTGWTVYPPLSHSGPSVDLAFHLTSSLLGAINFTNMRGPLFWTALLLLSLPVLAGTLLDRNFNTFEGGDPLYHLFWFFGHPEVYIIPGFGSHSTYKKFGMYASIGLGFVWSHHMYVGLDDRAYFTSATMIAPTGIKFSWLATYGGRPMLAFLFLFTGGTGVLNASDAFHDTYFVVHFHYVLSMGAFSLAYYYWPGLYNLFWFNFPMHFLGGMPRRPYPDAGWNSGSSYQMGPDESNEPH'
p746
sg123
F0.14163999999999999
sg124
g125
sg33
S'202'
p747
sg127
g1
(g128
g12
(dp748
g130
I4
sg131
g132
sg133
g134
sg135
g132
sg136
I01
sg34
g137
sg138
g134
sg139
I0
sg140
I0
sg141
I0
sg142
g134
sg35
g143
sg144
I0
stRp749
sg146
g147
sg148
F1
sg149
Nsg30
S'MfariB'
p750
sbag1
(g2
g3
NtRp751
(dp752
g6
g1
(g7
g3
NtRp753
(dp754
g10
g1
(g11
g12
(dtRp755
sg14
g1
(g11
g12
(dtRp756
sg16
g1
(g11
g12
(dtRp757
sg18
g1
(g11
g12
(dtRp758
sg20
g1
(g11
g12
(dtRp759
sg22
g1
(g11
g12
(dtRp760
sbsg24
S'Csa'
p761
sg26
g27
((lp762
g29
ag30
aS'sequence'
p763
ag32
ag33
aS'species'
p764
atRp765
sg37
(lp766
sg120
g717
sg121
S'RWLSTKDLYSRLELGNFNQNVHAMFVMPLGFGNPLGDMFARLNNSFWLPPLSLEGAGTGWTVYPPLSHSGPSVDLAFHLTSSLLGAINFTNMRGPLFWTALLLLSLPVLAATLLDRNFNTFEGGDPLYHLFWFFGHPEVYIIPGFGSHSTYKKFGMYASMGLGFVWSHHMYVGLDDRAYFTSATMIAPTGMKFSWLATYGGRPMLAFLFLFTGGTGVLNASDAFHDTYYVVHFHYVLSMGAFSLAYYYWPGLYNWFWFNFPMHFLGGMPRRPYPDAGWNSGSSYQMGPDESNEPH'
p767
sg123
F0.069970000000000004
sg124
g125
sg33
S'133'
p768
sg127
g1
(g128
g12
(dp769
g130
I4
sg131
g132
sg133
g134
sg135
g132
sg136
I01
sg34
g137
sg138
g134
sg139
I0
sg140
I0
sg141
I0
sg142
g134
sg35
g143
sg144
I0
stRp770
sg146
g147
sg148
F1
sg149
Nsg30
S'CsakeA'
p771
sbasg120
g704
sg123
F0.048980000000000003
sg124
g125
sg33
S'187'
p772
sg127
g1
(g128
g12
(dp773
g130
I6
sg131
g132
sg133
g134
sg135
g132
sg136
I01
sg34
g174
sg138
g134
sg139
I0
sg140
I0
sg141
I0
sg142
g134
sg35
g175
sg144
I0
stRp774
sg146
g147
sg148
F0.98999999999999999
sg149
Nsg30
S'NoName'
p775
sbag1
(g2
g3
NtRp776
(dp777
g6
g1
(g7
g3
NtRp778
(dp779
g10
g1
(g11
g12
(dtRp780
sg14
g1
(g11
g12
(dtRp781
sg16
g1
(g11
g12
(dtRp782
sg18
g1
(g11
g12
(dtRp783
sg20
g1
(g11
g12
(dtRp784
sg22
g1
(g11
g12
(dtRp785
sbsg24
g25
sg26
g27
((lp786
g33
ag32
ag29
ag30
atRp787
sg37
(lp788
g1
(g2
g3
NtRp789
(dp790
g6
g1
(g7
g3
NtRp791
(dp792
g10
g1
(g11
g12
(dtRp793
sg14
g1
(g11
g12
(dtRp794
sg16
g1
(g11
g12
(dtRp795
sg18
g1
(g11
g12
(dtRp796
sg20
g1
(g11
g12
(dtRp797
sg22
g1
(g11
g12
(dtRp798
sbsg24
g25
sg26
g27
((lp799
g33
ag32
ag29
ag30
atRp800
sg37
(lp801
g1
(g2
g3
NtRp802
(dp803
g6
g1
(g7
g3
NtRp804
(dp805
g10
g1
(g11
g12
(dtRp806
sg14
g1
(g11
g12
(dtRp807
sg16
g1
(g11
g12
(dtRp808
sg18
g1
(g11
g12
(dtRp809
sg20
g1
(g11
g12
(dtRp810
sg22
g1
(g11
g12
(dtRp811
sbsg24
S'Mfa'
p812
sg26
g27
((lp813
g29
ag30
aS'sequence'
p814
ag32
ag33
aS'species'
p815
atRp816
sg37
(lp817
sg120
g789
sg121
S'RWLSTKDLYSRAELGNFNHNVHAMFVMPLGFGNPMGDMFARLNNSFWLPPLSLEGAGTGWTVYPPLSHSGPSVDLAFHLTSSLLGAMNFTNMRGPLFWTALLLLSLPVLAGTLLDRNFNTFEGGDPLYHLFWFFGHPEVYIIPGFGSHSTYKKFGMYASMGLGFVWSHHMYVGLDDRAYFTSATMMAPTGIKFSWLATYGGRPMLAFLFLFTGGTGVLNASDAFHDTYYMYHFHYVLSMGAFSLGYYYWPGLYNWFWFNFPMHFLGGMPRRPYPDAGWNSGSSKQLGPDESNEPH'
p818
sg123
F0.29086000000000001
sg124
g125
sg33
S'105'
p819
sg127
g1
(g128
g12
(dp820
g130
I4
sg131
g132
sg133
g134
sg135
g132
sg136
I01
sg34
g137
sg138
g134
sg139
I0
sg140
I0
sg141
I0
sg142
g134
sg35
g143
sg144
I0
stRp821
sg146
g147
sg148
F1
sg149
Nsg30
S'MfariA'
p822
sbag1
(g2
g3
NtRp823
(dp824
g6
g1
(g7
g3
NtRp825
(dp826
g10
g1
(g11
g12
(dtRp827
sg14
g1
(g11
g12
(dtRp828
sg16
g1
(g11
g12
(dtRp829
sg18
g1
(g11
g12
(dtRp830
sg20
g1
(g11
g12
(dtRp831
sg22
g1
(g11
g12
(dtRp832
sbsg24
S'Dha'
p833
sg26
g27
((lp834
g29
ag30
aS'sequence'
p835
ag32
ag33
aS'species'
p836
atRp837
sg37
(lp838
sg120
g789
sg121
S'RWLSTKDLYSRMELGNFNQNVHAMFIMPWGFGNPLGDMFARLNNSFWLPPLSLEGAGTGWTLYPPLSHSGPSVDLAFHLTSSLLGAMNFTNMRGPLFWTALLLLSLPVLAATLLDRNFNTFEGGDPLYHLFWFFGHPEVYIMPGFGSHSTYKKFGMYASIGLGFVWSHHMFVGLDDRAYFTSATMIAPTGIKFSWLATYGGRPMLAFLFLFTGGTGVLNASDAFHDTYYVVHFHYVLSMGAFSLAYYYWPGLYNLFWFNFPMHFLGGMPRRPYPDAGWNSGSSKQLGPDESNDPH'
p839
sg123
F0.11043
sg124
g125
sg33
S'210'
p840
sg127
g1
(g128
g12
(dp841
g130
I4
sg131
g132
sg133
g134
sg135
g132
sg136
I01
sg34
g137
sg138
g134
sg139
I0
sg140
I0
sg141
I0
sg142
g134
sg35
g143
sg144
I0
stRp842
sg146
g147
sg148
F1
sg149
Nsg30
S'DhansA'
p843
sbasg120
g776
sg123
F0.046699999999999998
sg124
g125
sg33
S'208'
p844
sg127
g1
(g128
g12
(dp845
g130
I6
sg131
g132
sg133
g134
sg135
g132
sg136
I01
sg34
g174
sg138
g134
sg139
I0
sg140
I0
sg141
I0
sg142
g134
sg35
g175
sg144
I0
stRp846
sg146
g147
sg148
F0.65000000000000002
sg149
Nsg30
S'NoName'
p847
sbag1
(g2
g3
NtRp848
(dp849
g6
g1
(g7
g3
NtRp850
(dp851
g10
g1
(g11
g12
(dtRp852
sg14
g1
(g11
g12
(dtRp853
sg16
g1
(g11
g12
(dtRp854
sg18
g1
(g11
g12
(dtRp855
sg20
g1
(g11
g12
(dtRp856
sg22
g1
(g11
g12
(dtRp857
sbsg24
g25
sg26
g27
((lp858
g33
ag32
ag29
ag30
atRp859
sg37
(lp860
g1
(g2
g3
NtRp861
(dp862
g6
g1
(g7
g3
NtRp863
(dp864
g10
g1
(g11
g12
(dtRp865
sg14
g1
(g11
g12
(dtRp866
sg16
g1
(g11
g12
(dtRp867
sg18
g1
(g11
g12
(dtRp868
sg20
g1
(g11
g12
(dtRp869
sg22
g1
(g11
g12
(dtRp870
sbsg24
S'Clu'
p871
sg26
g27
((lp872
g29
ag30
aS'sequence'
p873
ag32
ag33
aS'species'
p874
atRp875
sg37
(lp876
sg120
g848
sg121
S'RWLSTKDLYSRLELPDLNQNVHAMFVMPLGFGNPMGDMFARLNNSFWLPPLSLEGAGTGWTVYPPLSHSGPSVDLAFHLTSSLLGAINFTNMRGPLFWTALLLLSLPVLAGTLLDRNFNTFEGGDPLYHLFWFFGHPEVYMMPGFGSHSTYKKFGMYASMGLGFVWSHHMYVGLDDRAYFTSATMMAPTGMKFSWLATYGGRPMLAFLFLFTGGTGVLNASDAFHDTYYVVHFHYVLSMGAFSLGYYYWPGLYNWFWFNFPMHFLGGMPRRPYPDAGWNSGSSRQLGPDESNEPH'
p877
sg123
F0.037310000000000003
sg124
g125
sg33
S'141'
p878
sg127
g1
(g128
g12
(dp879
g130
I4
sg131
g132
sg133
g134
sg135
g132
sg136
I01
sg34
g137
sg138
g134
sg139
I0
sg140
I0
sg141
I0
sg142
g134
sg35
g143
sg144
I0
stRp880
sg146
g147
sg148
F1
sg149
Nsg30
S'ClusiA'
p881
sbag1
(g2
g3
NtRp882
(dp883
g6
g1
(g7
g3
NtRp884
(dp885
g10
g1
(g11
g12
(dtRp886
sg14
g1
(g11
g12
(dtRp887
sg16
g1
(g11
g12
(dtRp888
sg18
g1
(g11
g12
(dtRp889
sg20
g1
(g11
g12
(dtRp890
sg22
g1
(g11
g12
(dtRp891
sbsg24
g25
sg26
g27
((lp892
g33
ag32
ag29
ag30
atRp893
sg37
(lp894
g1
(g2
g3
NtRp895
(dp896
g6
g1
(g7
g3
NtRp897
(dp898
g10
g1
(g11
g12
(dtRp899
sg14
g1
(g11
g12
(dtRp900
sg16
g1
(g11
g12
(dtRp901
sg18
g1
(g11
g12
(dtRp902
sg20
g1
(g11
g12
(dtRp903
sg22
g1
(g11
g12
(dtRp904
sbsg24
S'Mgu'
p905
sg26
g27
((lp906
g29
ag30
aS'sequence'
p907
ag32
ag33
aS'species'
p908
atRp909
sg37
(lp910
sg120
g882
sg121
S'---------------------------------------------------------------------------------------------------------------------------------------------------------------------------------------------------------------------------------------HFHYVLSMGAFSLGYYYWPGLYNWFWFNFPMHFLGGMPRRPYPDAGWNSGSSKQLGPDESNEPH'
p911
sg123
F0.0044999999999999997
sg124
g125
sg33
S'134'
p912
sg127
g1
(g128
g12
(dp913
g130
I4
sg131
g132
sg133
g134
sg135
g132
sg136
I01
sg34
g137
sg138
g134
sg139
I0
sg140
I0
sg141
I0
sg142
g134
sg35
g143
sg144
I0
stRp914
sg146
g147
sg148
F1
sg149
Nsg30
S'MguilB'
p915
sbag1
(g2
g3
NtRp916
(dp917
g6
g1
(g7
g3
NtRp918
(dp919
g10
g1
(g11
g12
(dtRp920
sg14
g1
(g11
g12
(dtRp921
sg16
g1
(g11
g12
(dtRp922
sg18
g1
(g11
g12
(dtRp923
sg20
g1
(g11
g12
(dtRp924
sg22
g1
(g11
g12
(dtRp925
sbsg24
S'Mgu'
p926
sg26
g27
((lp927
g29
ag30
aS'sequence'
p928
ag32
ag33
aS'species'
p929
atRp930
sg37
(lp931
sg120
g882
sg121
S'RWLSTKDLYSRMELGNFNQNVHAMFVMPIGFGNPMGDMFARLNNSFWLPPLSLEGAGTGWTVYPPLSHSGPSVDMAFHLTSSLLGAMNFTNMRGPLFWTALLLLSLPVLAGTLLDRNFNTFEGGDPLYHLFWFFGHPEVYMMPGFGSHSTYKKFGMYASIGLGFVWSHHMYVGLDDRAYFTSATMMAPTGMKFSWLSTYGGRPMLAFLFLFTGGTGVLNASDAFHDTYYVVHFHYVLSMGAFSLGYYYWPGLYNWFWFNFPMHFLGGMPRRPYPDAGWNSGSSKQLGPDESNEPH'
p932
sg123
F0.0020100000000000001
sg124
g125
sg33
S'146'
p933
sg127
g1
(g128
g12
(dp934
g130
I4
sg131
g132
sg133
g134
sg135
g132
sg136
I01
sg34
g137
sg138
g134
sg139
I0
sg140
I0
sg141
I0
sg142
g134
sg35
g143
sg144
I0
stRp935
sg146
g147
sg148
F1
sg149
Nsg30
S'MguilA'
p936
sbasg120
g848
sg123
F0.25231999999999999
sg124
g125
sg33
S'136'
p937
sg127
g1
(g128
g12
(dp938
g130
I6
sg131
g132
sg133
g134
sg135
g132
sg136
I01
sg34
g174
sg138
g134
sg139
I0
sg140
I0
sg141
I0
sg142
g134
sg35
g175
sg144
I0
stRp939
sg146
g147
sg148
F0.98999999999999999
sg149
Nsg30
S'NoName'
p940
sbasg120
g776
sg123
F0.090679999999999997
sg124
g125
sg33
S'212'
p941
sg127
g1
(g128
g12
(dp942
g130
I6
sg131
g132
sg133
g134
sg135
g132
sg136
I01
sg34
g174
sg138
g134
sg139
I0
sg140
I0
sg141
I0
sg142
g134
sg35
g175
sg144
I0
stRp943
sg146
g147
sg148
F0.98999999999999999
sg149
Nsg30
S'NoName'
p944
sbasg120
g704
sg123
F0.032190000000000003
sg124
g125
sg33
S'190'
p945
sg127
g1
(g128
g12
(dp946
g130
I6
sg131
g132
sg133
g134
sg135
g132
sg136
I01
sg34
g174
sg138
g134
sg139
I0
sg140
I0
sg141
I0
sg142
g134
sg35
g175
sg144
I0
stRp947
sg146
g147
sg148
F0.64000000000000001
sg149
Nsg30
S'NoName'
p948
sbasg120
g691
sg123
F0.12181
sg124
g125
sg33
S'221'
p949
sg127
g1
(g128
g12
(dp950
g130
I6
sg131
g132
sg133
g134
sg135
g132
sg136
I01
sg34
g174
sg138
g134
sg139
I0
sg140
I0
sg141
I0
sg142
g134
sg35
g175
sg144
I0
stRp951
sg146
g147
sg148
F0.98999999999999999
sg149
Nsg30
S'NoName'
p952
sbag1
(g2
g3
NtRp953
(dp954
g6
g1
(g7
g3
NtRp955
(dp956
g10
g1
(g11
g12
(dtRp957
sg14
g1
(g11
g12
(dtRp958
sg16
g1
(g11
g12
(dtRp959
sg18
g1
(g11
g12
(dtRp960
sg20
g1
(g11
g12
(dtRp961
sg22
g1
(g11
g12
(dtRp962
sbsg24
g25
sg26
g27
((lp963
g33
ag32
ag29
ag30
atRp964
sg37
(lp965
g1
(g2
g3
NtRp966
(dp967
g6
g1
(g7
g3
NtRp968
(dp969
g10
g1
(g11
g12
(dtRp970
sg14
g1
(g11
g12
(dtRp971
sg16
g1
(g11
g12
(dtRp972
sg18
g1
(g11
g12
(dtRp973
sg20
g1
(g11
g12
(dtRp974
sg22
g1
(g11
g12
(dtRp975
sbsg24
g25
sg26
g27
((lp976
g33
ag32
ag29
ag30
atRp977
sg37
(lp978
g1
(g2
g3
NtRp979
(dp980
g6
g1
(g7
g3
NtRp981
(dp982
g10
g1
(g11
g12
(dtRp983
sg14
g1
(g11
g12
(dtRp984
sg16
g1
(g11
g12
(dtRp985
sg18
g1
(g11
g12
(dtRp986
sg20
g1
(g11
g12
(dtRp987
sg22
g1
(g11
g12
(dtRp988
sbsg24
S'Cbl'
p989
sg26
g27
((lp990
g29
ag30
aS'sequence'
p991
ag32
ag33
aS'species'
p992
atRp993
sg37
(lp994
sg120
g966
sg121
S'RWLSTKDLYSRLELANLNQNVHAMFVMPLGMGNPMGDMFARLNNSFWLPPLSLEGPGTGWTLYAPLSHSGPSVDMAFHLTSSLLGAINFTNMRGPLYWTALLLLSLPVLAATLLDRNFNTFEGGDPLYHLFWFFGHPEVYMIPGFGSHSTYKKFGMYASIGLGFVWSHHMYVGLDDRAYFTSATMIAPTGIKFSWMATYGGRPMLAFLFLFTGGTGVLNASDAFHDTYYVVHFHYVLSMGAFSLGYYYWPGLYNLFWFNFPMHFLGGMPRRPYPDAGWNSGSSYQLGPDESNEPH'
p995
sg123
F0.36785000000000001
sg124
g125
sg33
S'142'
p996
sg127
g1
(g128
g12
(dp997
g130
I4
sg131
g132
sg133
g134
sg135
g132
sg136
I01
sg34
g137
sg138
g134
sg139
I0
sg140
I0
sg141
I0
sg142
g134
sg35
g143
sg144
I0
stRp998
sg146
g147
sg148
F1
sg149
Nsg30
S'CblacA'
p999
sbag1
(g2
g3
NtRp1000
(dp1001
g6
g1
(g7
g3
NtRp1002
(dp1003
g10
g1
(g11
g12
(dtRp1004
sg14
g1
(g11
g12
(dtRp1005
sg16
g1
(g11
g12
(dtRp1006
sg18
g1
(g11
g12
(dtRp1007
sg20
g1
(g11
g12
(dtRp1008
sg22
g1
(g11
g12
(dtRp1009
sbsg24
g25
sg26
g27
((lp1010
g33
ag32
ag29
ag30
atRp1011
sg37
(lp1012
g1
(g2
g3
NtRp1013
(dp1014
g6
g1
(g7
g3
NtRp1015
(dp1016
g10
g1
(g11
g12
(dtRp1017
sg14
g1
(g11
g12
(dtRp1018
sg16
g1
(g11
g12
(dtRp1019
sg18
g1
(g11
g12
(dtRp1020
sg20
g1
(g11
g12
(dtRp1021
sg22
g1
(g11
g12
(dtRp1022
sbsg24
g25
sg26
g27
((lp1023
g33
ag32
ag29
ag30
atRp1024
sg37
(lp1025
g1
(g2
g3
NtRp1026
(dp1027
g6
g1
(g7
g3
NtRp1028
(dp1029
g10
g1
(g11
g12
(dtRp1030
sg14
g1
(g11
g12
(dtRp1031
sg16
g1
(g11
g12
(dtRp1032
sg18
g1
(g11
g12
(dtRp1033
sg20
g1
(g11
g12
(dtRp1034
sg22
g1
(g11
g12
(dtRp1035
sbsg24
g25
sg26
g27
((lp1036
g33
ag32
ag29
ag30
atRp1037
sg37
(lp1038
g1
(g2
g3
NtRp1039
(dp1040
g6
g1
(g7
g3
NtRp1041
(dp1042
g10
g1
(g11
g12
(dtRp1043
sg14
g1
(g11
g12
(dtRp1044
sg16
g1
(g11
g12
(dtRp1045
sg18
g1
(g11
g12
(dtRp1046
sg20
g1
(g11
g12
(dtRp1047
sg22
g1
(g11
g12
(dtRp1048
sbsg24
g25
sg26
g27
((lp1049
g33
ag32
ag29
ag30
atRp1050
sg37
(lp1051
g1
(g2
g3
NtRp1052
(dp1053
g6
g1
(g7
g3
NtRp1054
(dp1055
g10
g1
(g11
g12
(dtRp1056
sg14
g1
(g11
g12
(dtRp1057
sg16
g1
(g11
g12
(dtRp1058
sg18
g1
(g11
g12
(dtRp1059
sg20
g1
(g11
g12
(dtRp1060
sg22
g1
(g11
g12
(dtRp1061
sbsg24
S'Lel'
p1062
sg26
g27
((lp1063
g29
ag30
aS'sequence'
p1064
ag32
ag33
aS'species'
p1065
atRp1066
sg37
(lp1067
sg120
g1039
sg121
S'RWLSTKDLYSRLELPGLDQNVHAMFVMPLGFGNPMGDMFARLNNSFWLPPLSLEGAGTGWTVYPPLSHSGPSVDLAFHLTSSLLGAINFTNMRGPLYWTALLLFSLPVLAGTLLDRNFNTFDGGDPLYHLFWFFGHPEVYIIPGFGSHSTYKKFGMYASIGLGFVWSHHMYVGLDDRAYFTSATMIAPTGIKFSWLATYGGRPMLAFLFLFTGGTGVLNASDAFHDTYYTVHFHYVLSMGAFSLGYYYWYGLYNLFWFNFPMHFLGGMPRRPYPDAGWNSGSSYQLGPDESNEPH'
p1068
sg123
F0.18278
sg124
g125
sg33
S'218'
p1069
sg127
g1
(g128
g12
(dp1070
g130
I4
sg131
g132
sg133
g134
sg135
g132
sg136
I01
sg34
g137
sg138
g134
sg139
I0
sg140
I0
sg141
I0
sg142
g134
sg35
g143
sg144
I0
stRp1071
sg146
g147
sg148
F1
sg149
Nsg30
S'LelonA'
p1072
sbag1
(g2
g3
NtRp1073
(dp1074
g6
g1
(g7
g3
NtRp1075
(dp1076
g10
g1
(g11
g12
(dtRp1077
sg14
g1
(g11
g12
(dtRp1078
sg16
g1
(g11
g12
(dtRp1079
sg18
g1
(g11
g12
(dtRp1080
sg20
g1
(g11
g12
(dtRp1081
sg22
g1
(g11
g12
(dtRp1082
sbsg24
S'Cox'
p1083
sg26
g27
((lp1084
g29
ag30
aS'sequence'
p1085
ag32
ag33
aS'species'
p1086
atRp1087
sg37
(lp1088
sg120
g1039
sg121
S'RWLSTKDLYSRLELSGLDQNVHAMFVMPIGFGNPMGDMFARLNNSFWLPPLSLEGPGVGWTVYPPLSHSGPSVDLAFHLTSSLLGAINFTNMRGPLYWTALLLLSLPVLAGTLLDRNFNTFDGGDPLYHLFWFFGHPEVYMIPGFGSHATYKKFGMYASIGLGFVWSHHMYVGLDDRAYFTSATMIAPTGIKFSWLATYGGRPMLAFLFLFTGGTGILNASDAFHDTYYTVHFHYVLSMGAFSLGYYLWYGLYNIFWFNFPMHFLGGMPRRPYPDAGWNSGSSYQLGPDESNEPH'
p1089
sg123
F0.17860000000000001
sg124
g125
sg33
S'220'
p1090
sg127
g1
(g128
g12
(dp1091
g130
I4
sg131
g132
sg133
g134
sg135
g132
sg136
I01
sg34
g137
sg138
g134
sg139
I0
sg140
I0
sg141
I0
sg142
g134
sg35
g143
sg144
I0
stRp1092
sg146
g147
sg148
F1
sg149
Nsg30
S'CoxycA'
p1093
sbasg120
g1026
sg123
F0.041480000000000003
sg124
g125
sg33
S'223'
p1094
sg127
g1
(g128
g12
(dp1095
g130
I6
sg131
g132
sg133
g134
sg135
g132
sg136
I01
sg34
g174
sg138
g134
sg139
I0
sg140
I0
sg141
I0
sg142
g134
sg35
g175
sg144
I0
stRp1096
sg146
g147
sg148
F0.98999999999999999
sg149
Nsg30
S'NoName'
p1097
sbag1
(g2
g3
NtRp1098
(dp1099
g6
g1
(g7
g3
NtRp1100
(dp1101
g10
g1
(g11
g12
(dtRp1102
sg14
g1
(g11
g12
(dtRp1103
sg16
g1
(g11
g12
(dtRp1104
sg18
g1
(g11
g12
(dtRp1105
sg20
g1
(g11
g12
(dtRp1106
sg22
g1
(g11
g12
(dtRp1107
sbsg24
g25
sg26
g27
((lp1108
g33
ag32
ag29
ag30
atRp1109
sg37
(lp1110
g1
(g2
g3
NtRp1111
(dp1112
g6
g1
(g7
g3
NtRp1113
(dp1114
g10
g1
(g11
g12
(dtRp1115
sg14
g1
(g11
g12
(dtRp1116
sg16
g1
(g11
g12
(dtRp1117
sg18
g1
(g11
g12
(dtRp1118
sg20
g1
(g11
g12
(dtRp1119
sg22
g1
(g11
g12
(dtRp1120
sbsg24
g25
sg26
g27
((lp1121
g33
ag32
ag29
ag30
atRp1122
sg37
(lp1123
g1
(g2
g3
NtRp1124
(dp1125
g6
g1
(g7
g3
NtRp1126
(dp1127
g10
g1
(g11
g12
(dtRp1128
sg14
g1
(g11
g12
(dtRp1129
sg16
g1
(g11
g12
(dtRp1130
sg18
g1
(g11
g12
(dtRp1131
sg20
g1
(g11
g12
(dtRp1132
sg22
g1
(g11
g12
(dtRp1133
sbsg24
g25
sg26
g27
((lp1134
g33
ag32
ag29
ag30
atRp1135
sg37
(lp1136
g1
(g2
g3
NtRp1137
(dp1138
g6
g1
(g7
g3
NtRp1139
(dp1140
g10
g1
(g11
g12
(dtRp1141
sg14
g1
(g11
g12
(dtRp1142
sg16
g1
(g11
g12
(dtRp1143
sg18
g1
(g11
g12
(dtRp1144
sg20
g1
(g11
g12
(dtRp1145
sg22
g1
(g11
g12
(dtRp1146
sbsg24
S'Cth'
p1147
sg26
g27
((lp1148
g29
ag30
aS'sequence'
p1149
ag32
ag33
aS'species'
p1150
atRp1151
sg37
(lp1152
sg120
g1124
sg121
S'RWLSTKDLYSRLELPGLNQNVHAMFVMPLGFGNPMGDMFARLNNSFWLPPLSLEGAGTGWTVYPPLSHSGPSVDLAFHLTSSLLGAINFTNMRGPLYWTALLLLSLPVLAGTLLDRNFNTFEGGDPLYHLFWFFGHPEVYIIPGFGSHSTYKKFGMYASIGLGFVWSHHMYVGLDDRAYFTSATMIAPTGIKFSWLATYGGRPMLAFLFLFTGGTGVLNASDAFHDTYYTVHFHYVLSMGAFSLGYYYWYGLYNLFWFNFPMHFLGGMPRRPYPDAGWNSGSSYQLGPDESNEPH'
p1153
sg123
F0.010059999999999999
sg124
g125
sg33
S'158'
p1154
sg127
g1
(g128
g12
(dp1155
g130
I4
sg131
g132
sg133
g134
sg135
g132
sg136
I01
sg34
g137
sg138
g134
sg139
I0
sg140
I0
sg141
I0
sg142
g134
sg35
g143
sg144
I0
stRp1156
sg146
g147
sg148
F1
sg149
Nsg30
S'CtheaA'
p1157
sbag1
(g2
g3
NtRp1158
(dp1159
g6
g1
(g7
g3
NtRp1160
(dp1161
g10
g1
(g11
g12
(dtRp1162
sg14
g1
(g11
g12
(dtRp1163
sg16
g1
(g11
g12
(dtRp1164
sg18
g1
(g11
g12
(dtRp1165
sg20
g1
(g11
g12
(dtRp1166
sg22
g1
(g11
g12
(dtRp1167
sbsg24
g25
sg26
g27
((lp1168
g33
ag32
ag29
ag30
atRp1169
sg37
(lp1170
g1
(g2
g3
NtRp1171
(dp1172
g6
g1
(g7
g3
NtRp1173
(dp1174
g10
g1
(g11
g12
(dtRp1175
sg14
g1
(g11
g12
(dtRp1176
sg16
g1
(g11
g12
(dtRp1177
sg18
g1
(g11
g12
(dtRp1178
sg20
g1
(g11
g12
(dtRp1179
sg22
g1
(g11
g12
(dtRp1180
sbsg24
g25
sg26
g27
((lp1181
g33
ag32
ag29
ag30
atRp1182
sg37
(lp1183
g1
(g2
g3
NtRp1184
(dp1185
g6
g1
(g7
g3
NtRp1186
(dp1187
g10
g1
(g11
g12
(dtRp1188
sg14
g1
(g11
g12
(dtRp1189
sg16
g1
(g11
g12
(dtRp1190
sg18
g1
(g11
g12
(dtRp1191
sg20
g1
(g11
g12
(dtRp1192
sg22
g1
(g11
g12
(dtRp1193
sbsg24
g25
sg26
g27
((lp1194
g33
ag32
ag29
ag30
atRp1195
sg37
(lp1196
g1
(g2
g3
NtRp1197
(dp1198
g6
g1
(g7
g3
NtRp1199
(dp1200
g10
g1
(g11
g12
(dtRp1201
sg14
g1
(g11
g12
(dtRp1202
sg16
g1
(g11
g12
(dtRp1203
sg18
g1
(g11
g12
(dtRp1204
sg20
g1
(g11
g12
(dtRp1205
sg22
g1
(g11
g12
(dtRp1206
sbsg24
S'Cor'
p1207
sg26
g27
((lp1208
g29
ag30
aS'sequence'
p1209
ag32
ag33
aS'species'
p1210
atRp1211
sg37
(lp1212
sg120
g1184
sg121
S'RWLSTKDLYSRLELPGLNQNVHAMFVMPLGFGNPMGDMFARLNNSFWLPPLSLEGAGTGWTVYPPLSHSGPSVDLAFHLTSSLLGAINFTNMRGPLFWTALLLLSLPVLAGTLLDRNFNTFEGGDPLYHLFWFFGHPEVYIIPGFGSHSTYKKFGMYASIGLGFVWSHHMYVGLDDRAYFTSATMIAPTGIKFSWLATYGGRPMLAFLFLFTGGTGVLNASDAFHDTYYTVHFHYVLSMGAFSLGYYYWYGLYNLFWFNFPMHFLGGMPRRPYPDAGWNSGSSYQLGPDESNEPH'
p1213
sg123
F0.00132
sg124
g125
sg33
S'163'
p1214
sg127
g1
(g128
g12
(dp1215
g130
I4
sg131
g132
sg133
g134
sg135
g132
sg136
I01
sg34
g137
sg138
g134
sg139
I0
sg140
I0
sg141
I0
sg142
g134
sg35
g143
sg144
I0
stRp1216
sg146
g147
sg148
F1
sg149
Nsg30
S'CorthC'
p1217
sbag1
(g2
g3
NtRp1218
(dp1219
g6
g1
(g7
g3
NtRp1220
(dp1221
g10
g1
(g11
g12
(dtRp1222
sg14
g1
(g11
g12
(dtRp1223
sg16
g1
(g11
g12
(dtRp1224
sg18
g1
(g11
g12
(dtRp1225
sg20
g1
(g11
g12
(dtRp1226
sg22
g1
(g11
g12
(dtRp1227
sbsg24
S'Cor'
p1228
sg26
g27
((lp1229
g29
ag30
aS'sequence'
p1230
ag32
ag33
aS'species'
p1231
atRp1232
sg37
(lp1233
sg120
g1184
sg121
S'RWLSTKDLYSRLELPGLNQNVHAMFVMPLGFGNPMGDMFARLNNSFWLPPLSLEGAGTGWTVYPPLSHSGPSVDLAFHLTSSLLGAINFTNMRGPLFWTALLLLSLPVLAGTLLDRNFNTFEGGDPLYHLFWFFGHPEVYIIPGFGSHSTYKKFGMYASIGLGFVWSHHMYVGLDDRAYFTSATMIAPTGIKFSWLATYGGRPMLAFLFLFTGGTGVLNASDAFHDTYYTVHFHYVLSMGAFSLGYYYWYGLYNLFWFNFPMHFLGGMPRRPYPDAGWNSGSSYQLGPDESNEPH'
p1234
sg123
F0.00093000000000000005
sg124
g125
sg33
S'165'
p1235
sg127
g1
(g128
g12
(dp1236
g130
I4
sg131
g132
sg133
g134
sg135
g132
sg136
I01
sg34
g137
sg138
g134
sg139
I0
sg140
I0
sg141
I0
sg142
g134
sg35
g143
sg144
I0
stRp1237
sg146
g147
sg148
F1
sg149
Nsg30
S'CorthB'
p1238
sbasg120
g1171
sg123
F0.00052999999999999998
sg124
g125
sg33
S'160'
p1239
sg127
g1
(g128
g12
(dp1240
g130
I6
sg131
g132
sg133
g134
sg135
g132
sg136
I01
sg34
g174
sg138
g134
sg139
I0
sg140
I0
sg141
I0
sg142
g134
sg35
g175
sg144
I0
stRp1241
sg146
g147
sg148
F0.85999999999999999
sg149
Nsg30
S'NoName'
p1242
sbag1
(g2
g3
NtRp1243
(dp1244
g6
g1
(g7
g3
NtRp1245
(dp1246
g10
g1
(g11
g12
(dtRp1247
sg14
g1
(g11
g12
(dtRp1248
sg16
g1
(g11
g12
(dtRp1249
sg18
g1
(g11
g12
(dtRp1250
sg20
g1
(g11
g12
(dtRp1251
sg22
g1
(g11
g12
(dtRp1252
sbsg24
S'Cor'
p1253
sg26
g27
((lp1254
g29
ag30
aS'sequence'
p1255
ag32
ag33
aS'species'
p1256
atRp1257
sg37
(lp1258
sg120
g1171
sg121
S'RWLSTKDLYSRLELPGLNQNVHAMFVMPLGFGNPMGDMFARLNNSFWLPPLSLEGAGTGWTVYPPLSHSGPSVDLAFHLTSSLLGAINFTNMRGPLFWTALLLLSLPVLAGTLLDRNFNTFEGGDPLYHLFWFFGHPEVYIIPGFGSHSTYKKFGMYASIGLGFVWSHHMYVGLDDRAYFTSATMIAPTGIKFSWLATYGGRPMLAFLFLFTGGTGVLNASDAFHDTYYTVHFHYVLSMGAFSLGYYYWYGLYNLFWFNFPMHFLGGMPRRPYPDAGWNSGSSYQLGPDESNEPH'
p1259
sg123
F0.0021099999999999999
sg124
g125
sg33
S'120'
p1260
sg127
g1
(g128
g12
(dp1261
g130
I4
sg131
g132
sg133
g134
sg135
g132
sg136
I01
sg34
g137
sg138
g134
sg139
I0
sg140
I0
sg141
I0
sg142
g134
sg35
g143
sg144
I0
stRp1262
sg146
g147
sg148
F1
sg149
Nsg30
S'CorthA'
p1263
sbasg120
g1158
sg123
F0.0031199999999999999
sg124
g125
sg33
S'152'
p1264
sg127
g1
(g128
g12
(dp1265
g130
I6
sg131
g132
sg133
g134
sg135
g132
sg136
I01
sg34
g174
sg138
g134
sg139
I0
sg140
I0
sg141
I0
sg142
g134
sg35
g175
sg144
I0
stRp1266
sg146
g147
sg148
F0.98999999999999999
sg149
Nsg30
S'NoName'
p1267
sbag1
(g2
g3
NtRp1268
(dp1269
g6
g1
(g7
g3
NtRp1270
(dp1271
g10
g1
(g11
g12
(dtRp1272
sg14
g1
(g11
g12
(dtRp1273
sg16
g1
(g11
g12
(dtRp1274
sg18
g1
(g11
g12
(dtRp1275
sg20
g1
(g11
g12
(dtRp1276
sg22
g1
(g11
g12
(dtRp1277
sbsg24
g25
sg26
g27
((lp1278
g33
ag32
ag29
ag30
atRp1279
sg37
(lp1280
g1
(g2
g3
NtRp1281
(dp1282
g6
g1
(g7
g3
NtRp1283
(dp1284
g10
g1
(g11
g12
(dtRp1285
sg14
g1
(g11
g12
(dtRp1286
sg16
g1
(g11
g12
(dtRp1287
sg18
g1
(g11
g12
(dtRp1288
sg20
g1
(g11
g12
(dtRp1289
sg22
g1
(g11
g12
(dtRp1290
sbsg24
g25
sg26
g27
((lp1291
g33
ag32
ag29
ag30
atRp1292
sg37
(lp1293
g1
(g2
g3
NtRp1294
(dp1295
g6
g1
(g7
g3
NtRp1296
(dp1297
g10
g1
(g11
g12
(dtRp1298
sg14
g1
(g11
g12
(dtRp1299
sg16
g1
(g11
g12
(dtRp1300
sg18
g1
(g11
g12
(dtRp1301
sg20
g1
(g11
g12
(dtRp1302
sg22
g1
(g11
g12
(dtRp1303
sbsg24
S'Cpa'
p1304
sg26
g27
((lp1305
g29
ag30
aS'sequence'
p1306
ag32
ag33
aS'species'
p1307
atRp1308
sg37
(lp1309
sg120
g1281
sg121
S'RWLSTKDLYSRLELPGLNQNVHAMFVMPLGFGNPMGDMFARLNNSFWLPPLSLEGAGTGWTVYPPLSHSGPSVDLAFHLTSSLLGAINFTNMRGPLFWTALLLLSLPVLAGTLLDRNFNTFEGGDPLYHLFWFFGHPEVYIIPGFGSHSTYKKFGMYASIGLGFVWSHHMYVGLDDRAYFTSATMIAPTSIKFSWLATYGGRTALAFIFLFTGGTGVLNSADPFHDSYYVVHFHYVLSMGAFSIGWYLWPGLYNLFWFNFPMHFLGGMPRRNYPDAGWNSGSAYQLGPSGTNEPH'
p1310
sg123
F0.00012999999999999999
sg124
g125
sg33
S'173'
p1311
sg127
g1
(g128
g12
(dp1312
g130
I4
sg131
g132
sg133
g134
sg135
g132
sg136
I01
sg34
g137
sg138
g134
sg139
I0
sg140
I0
sg141
I0
sg142
g134
sg35
g143
sg144
I0
stRp1313
sg146
g147
sg148
F1
sg149
Nsg30
S'CparaD'
p1314
sbag1
(g2
g3
NtRp1315
(dp1316
g6
g1
(g7
g3
NtRp1317
(dp1318
g10
g1
(g11
g12
(dtRp1319
sg14
g1
(g11
g12
(dtRp1320
sg16
g1
(g11
g12
(dtRp1321
sg18
g1
(g11
g12
(dtRp1322
sg20
g1
(g11
g12
(dtRp1323
sg22
g1
(g11
g12
(dtRp1324
sbsg24
S'Cpa'
p1325
sg26
g27
((lp1326
g29
ag30
aS'sequence'
p1327
ag32
ag33
aS'species'
p1328
atRp1329
sg37
(lp1330
sg120
g1281
sg121
S'RWLSTKDLYSRLELPGLNQNVHAMFVMPLGFGNPMGDMFARLNNSFWLPPLSLEGAGTGWTVYPPLSHSGPSVDLAFHLTSSLLGAINFTNMRGPLFWTALLLLSLPVLAGTLLDRNFNTFEGGDPLYHLFWFFGHPEVYIIPGFGSHSTYKKFGMYASIGLGFVWSHHMYVGLDDRAYFTSATMIAPTGIKFSWLATYGGRPMLAFLFLFTGGTGVVNASDAFHDTYYVVHFHYVLSMGAFSLGYYYWYGLYNLFWFNFPMHFLGGMPRRPYPDAGWNSGSSYSLGPDESNEPH'
p1331
sg123
F0.00012999999999999999
sg124
g125
sg33
S'170'
p1332
sg127
g1
(g128
g12
(dp1333
g130
I4
sg131
g132
sg133
g134
sg135
g132
sg136
I01
sg34
g137
sg138
g134
sg139
I0
sg140
I0
sg141
I0
sg142
g134
sg35
g143
sg144
I0
stRp1334
sg146
g147
sg148
F1
sg149
Nsg30
S'CparaB'
p1335
sbasg120
g1268
sg123
F0.00051000000000000004
sg124
g125
sg33
S'166'
p1336
sg127
g1
(g128
g12
(dp1337
g130
I6
sg131
g132
sg133
g134
sg135
g132
sg136
I01
sg34
g174
sg138
g134
sg139
I0
sg140
I0
sg141
I0
sg142
g134
sg35
g175
sg144
I0
stRp1338
sg146
g147
sg148
F0.98999999999999999
sg149
Nsg30
S'NoName'
p1339
sbag1
(g2
g3
NtRp1340
(dp1341
g6
g1
(g7
g3
NtRp1342
(dp1343
g10
g1
(g11
g12
(dtRp1344
sg14
g1
(g11
g12
(dtRp1345
sg16
g1
(g11
g12
(dtRp1346
sg18
g1
(g11
g12
(dtRp1347
sg20
g1
(g11
g12
(dtRp1348
sg22
g1
(g11
g12
(dtRp1349
sbsg24
S'Cpa'
p1350
sg26
g27
((lp1351
g29
ag30
aS'sequence'
p1352
ag32
ag33
aS'species'
p1353
atRp1354
sg37
(lp1355
sg120
g1268
sg121
S'RWLSTKDLYSRLELPGLNQNVHAMFVMPLGFGNPMGDMFARLNNSFWLPPLSLEGAGTGWTVYPPLSHSGPSVDLAFHLTSSLLGAINFTNMRGPLFWTALLLLSLPVLAGTLLDRNFNTFEGGDPLYHLFWFFGHPEVYIIPGFGSHSTYKKFGMYASIGLGFVWSHHMYVGLDDRAYFTSATMIAPTGIKFSWLATYGGRPMLAFLFLFTGGTGVVNASDAFHDTYYVVHFHYVLSMGAFSLGYYYWYGLYNLFWFNFPMHFLGGMPRRPYPDAGWNSGSSYSLGPDESNEPH'
p1356
sg123
F0.00012
sg124
g125
sg33
S'171'
p1357
sg127
g1
(g128
g12
(dp1358
g130
I4
sg131
g132
sg133
g134
sg135
g132
sg136
I01
sg34
g137
sg138
g134
sg139
I0
sg140
I0
sg141
I0
sg142
g134
sg35
g143
sg144
I0
stRp1359
sg146
g147
sg148
F1
sg149
Nsg30
S'CparaC'
p1360
sbasg120
g1158
sg123
F1.0000000000000001e-05
sg124
g125
sg33
S'110'
p1361
sg127
g1
(g128
g12
(dp1362
g130
I6
sg131
g132
sg133
g134
sg135
g132
sg136
I01
sg34
g174
sg138
g134
sg139
I0
sg140
I0
sg141
I0
sg142
g134
sg35
g175
sg144
I0
stRp1363
sg146
g147
sg148
F1
sg149
Nsg30
S'NoName'
p1364
sbasg120
g1124
sg123
F0.0032599999999999999
sg124
g125
sg33
S'155'
p1365
sg127
g1
(g128
g12
(dp1366
g130
I6
sg131
g132
sg133
g134
sg135
g132
sg136
I01
sg34
g174
sg138
g134
sg139
I0
sg140
I0
sg141
I0
sg142
g134
sg35
g175
sg144
I0
stRp1367
sg146
g147
sg148
F0.97999999999999998
sg149
Nsg30
S'NoName'
p1368
sbasg120
g1111
sg123
F1.0000000000000001e-05
sg124
g125
sg33
S'132'
p1369
sg127
g1
(g128
g12
(dp1370
g130
I6
sg131
g132
sg133
g134
sg135
g132
sg136
I01
sg34
g174
sg138
g134
sg139
I0
sg140
I0
sg141
I0
sg142
g134
sg35
g175
sg144
I0
stRp1371
sg146
g147
sg148
F1
sg149
Nsg30
S'NoName'
p1372
sbag1
(g2
g3
NtRp1373
(dp1374
g6
g1
(g7
g3
NtRp1375
(dp1376
g10
g1
(g11
g12
(dtRp1377
sg14
g1
(g11
g12
(dtRp1378
sg16
g1
(g11
g12
(dtRp1379
sg18
g1
(g11
g12
(dtRp1380
sg20
g1
(g11
g12
(dtRp1381
sg22
g1
(g11
g12
(dtRp1382
sbsg24
g25
sg26
g27
((lp1383
g33
ag32
ag29
ag30
atRp1384
sg37
(lp1385
g1
(g2
g3
NtRp1386
(dp1387
g6
g1
(g7
g3
NtRp1388
(dp1389
g10
g1
(g11
g12
(dtRp1390
sg14
g1
(g11
g12
(dtRp1391
sg16
g1
(g11
g12
(dtRp1392
sg18
g1
(g11
g12
(dtRp1393
sg20
g1
(g11
g12
(dtRp1394
sg22
g1
(g11
g12
(dtRp1395
sbsg24
g25
sg26
g27
((lp1396
g33
ag32
ag29
ag30
atRp1397
sg37
(lp1398
g1
(g2
g3
NtRp1399
(dp1400
g6
g1
(g7
g3
NtRp1401
(dp1402
g10
g1
(g11
g12
(dtRp1403
sg14
g1
(g11
g12
(dtRp1404
sg16
g1
(g11
g12
(dtRp1405
sg18
g1
(g11
g12
(dtRp1406
sg20
g1
(g11
g12
(dtRp1407
sg22
g1
(g11
g12
(dtRp1408
sbsg24
g25
sg26
g27
((lp1409
g33
ag32
ag29
ag30
atRp1410
sg37
(lp1411
g1
(g2
g3
NtRp1412
(dp1413
g6
g1
(g7
g3
NtRp1414
(dp1415
g10
g1
(g11
g12
(dtRp1416
sg14
g1
(g11
g12
(dtRp1417
sg16
g1
(g11
g12
(dtRp1418
sg18
g1
(g11
g12
(dtRp1419
sg20
g1
(g11
g12
(dtRp1420
sg22
g1
(g11
g12
(dtRp1421
sbsg24
g25
sg26
g27
((lp1422
g33
ag32
ag29
ag30
atRp1423
sg37
(lp1424
g1
(g2
g3
NtRp1425
(dp1426
g6
g1
(g7
g3
NtRp1427
(dp1428
g10
g1
(g11
g12
(dtRp1429
sg14
g1
(g11
g12
(dtRp1430
sg16
g1
(g11
g12
(dtRp1431
sg18
g1
(g11
g12
(dtRp1432
sg20
g1
(g11
g12
(dtRp1433
sg22
g1
(g11
g12
(dtRp1434
sbsg24
g25
sg26
g27
((lp1435
g33
ag32
ag29
ag30
atRp1436
sg37
(lp1437
g1
(g2
g3
NtRp1438
(dp1439
g6
g1
(g7
g3
NtRp1440
(dp1441
g10
g1
(g11
g12
(dtRp1442
sg14
g1
(g11
g12
(dtRp1443
sg16
g1
(g11
g12
(dtRp1444
sg18
g1
(g11
g12
(dtRp1445
sg20
g1
(g11
g12
(dtRp1446
sg22
g1
(g11
g12
(dtRp1447
sbsg24
S'Cme'
p1448
sg26
g27
((lp1449
g29
ag30
aS'sequence'
p1450
ag32
ag33
aS'species'
p1451
atRp1452
sg37
(lp1453
sg120
g1425
sg121
S'RWLSTKDLYSRLELPGLNQNVHAMFVMPLGFGNPMGDMFARLNNSFWLPPLSLEGAGTGWTVYPPLSHSGPSVDLAFHLTSSLLGAINFTNMRGPLYWTALLLLSLPVLAGTLLDRNFNTFEGGDPLYHLFWFFGHPEVYIIPGFGSHSTYKKFGMYASIGLGFVWSHHMYVGLDDRAYFTSATMIAPTGIKFSWLATYGGRPMLAFLFLFTGGTGVLNASDAFHDTYYVVHFHYVLSMGAFSLGYYYWYGLYNLFWFNFPMHFLGGMPRRPYPDAGWNSGSSYQLGPDESNEPH'
p1454
sg123
F0.00012999999999999999
sg124
g125
sg33
S'14'
p1455
sg127
g1
(g128
g12
(dp1456
g130
I4
sg131
g132
sg133
g134
sg135
g132
sg136
I01
sg34
g137
sg138
g134
sg139
I0
sg140
I0
sg141
I0
sg142
g134
sg35
g143
sg144
I0
stRp1457
sg146
g147
sg148
F1
sg149
Nsg30
S'CmetaF'
p1458
sbag1
(g2
g3
NtRp1459
(dp1460
g6
g1
(g7
g3
NtRp1461
(dp1462
g10
g1
(g11
g12
(dtRp1463
sg14
g1
(g11
g12
(dtRp1464
sg16
g1
(g11
g12
(dtRp1465
sg18
g1
(g11
g12
(dtRp1466
sg20
g1
(g11
g12
(dtRp1467
sg22
g1
(g11
g12
(dtRp1468
sbsg24
S'Cme'
p1469
sg26
g27
((lp1470
g29
ag30
aS'sequence'
p1471
ag32
ag33
aS'species'
p1472
atRp1473
sg37
(lp1474
sg120
g1425
sg121
S'RWLSTKDLYSRLELPGLNQNVHAMFVMPLGFGNPMGDMFARLNNSFWLPPLSLEGAGTGWTVYPPLSHSGPSVDLAFHLTSSLLGAINFTNMRGPLYWTALLLLSLPVLAGTLLDRNFNTFEGGDPLYHLFWFFGHPEVYIIPGFGSHSTYKKFGMYASIGLGFVWSHHMYVGLDDRAYFTSATMIAPTGIKFSWLATYGGRPMLAFLFLFTGGTGVLNASDAFHDTYYVVHFHYVLSMGAFSLGYYYWYGLYNLFWFNFPMHFLGGMPRRPYPDAGWNSGSSYQLGPDESNEPH'
p1475
sg123
F0.00012
sg124
g125
sg33
S'199'
p1476
sg127
g1
(g128
g12
(dp1477
g130
I4
sg131
g132
sg133
g134
sg135
g132
sg136
I01
sg34
g137
sg138
g134
sg139
I0
sg140
I0
sg141
I0
sg142
g134
sg35
g143
sg144
I0
stRp1478
sg146
g147
sg148
F1
sg149
Nsg30
S'CmetaE'
p1479
sbasg120
g1412
sg123
F1.0000000000000001e-05
sg124
g125
sg33
S'181'
p1480
sg127
g1
(g128
g12
(dp1481
g130
I6
sg131
g132
sg133
g134
sg135
g132
sg136
I01
sg34
g174
sg138
g134
sg139
I0
sg140
I0
sg141
I0
sg142
g134
sg35
g175
sg144
I0
stRp1482
sg146
g147
sg148
F1
sg149
Nsg30
S'NoName'
p1483
sbag1
(g2
g3
NtRp1484
(dp1485
g6
g1
(g7
g3
NtRp1486
(dp1487
g10
g1
(g11
g12
(dtRp1488
sg14
g1
(g11
g12
(dtRp1489
sg16
g1
(g11
g12
(dtRp1490
sg18
g1
(g11
g12
(dtRp1491
sg20
g1
(g11
g12
(dtRp1492
sg22
g1
(g11
g12
(dtRp1493
sbsg24
S'Cme'
p1494
sg26
g27
((lp1495
g29
ag30
aS'sequence'
p1496
ag32
ag33
aS'species'
p1497
atRp1498
sg37
(lp1499
sg120
g1412
sg121
S'RWLSTKDLYSRLELPGLNQNVHAMFVMPLGFGNPMGDMFARLNNSFWLPPLSLEGAGTGWTVYPPLSHSGPSVDLAFHLTSSLLGAINFTNMRGPLYWTALLLLSLPVLAGTLLDRNFNTFEGGDPLYHLFWFFGHPEVYIIPGFGSHSTYKKFGMYASIGLGFVWSHHMYVGLDDRAYFTSATMIAPTGIKFSWLATYGGRPMLAFLFLFTGGTGVLNASDAFHDTYYVVHFHYVLSMGAFSLGYYYWYGLYNLFWFNFPMHFLGGMPRRPYPDAGWNSGSSYQLGPDESNEPH'
p1500
sg123
F0.00020000000000000001
sg124
g125
sg33
S'196'
p1501
sg127
g1
(g128
g12
(dp1502
g130
I4
sg131
g132
sg133
g134
sg135
g132
sg136
I01
sg34
g137
sg138
g134
sg139
I0
sg140
I0
sg141
I0
sg142
g134
sg35
g143
sg144
I0
stRp1503
sg146
g147
sg148
F1
sg149
Nsg30
S'CmetaD'
p1504
sbasg120
g1399
sg123
F1.0000000000000001e-05
sg124
g125
sg33
S'179'
p1505
sg127
g1
(g128
g12
(dp1506
g130
I6
sg131
g132
sg133
g134
sg135
g132
sg136
I01
sg34
g174
sg138
g134
sg139
I0
sg140
I0
sg141
I0
sg142
g134
sg35
g175
sg144
I0
stRp1507
sg146
g147
sg148
F1
sg149
Nsg30
S'NoName'
p1508
sbag1
(g2
g3
NtRp1509
(dp1510
g6
g1
(g7
g3
NtRp1511
(dp1512
g10
g1
(g11
g12
(dtRp1513
sg14
g1
(g11
g12
(dtRp1514
sg16
g1
(g11
g12
(dtRp1515
sg18
g1
(g11
g12
(dtRp1516
sg20
g1
(g11
g12
(dtRp1517
sg22
g1
(g11
g12
(dtRp1518
sbsg24
S'Cme'
p1519
sg26
g27
((lp1520
g29
ag30
aS'sequence'
p1521
ag32
ag33
aS'species'
p1522
atRp1523
sg37
(lp1524
sg120
g1399
sg121
S'RWLSTKDLYSRLELPGLNQNVHAMFVMPLGFGNPMGDMFARLNNSFWLPPLSLEGAGTGWTVYPPLSHSGPSVDLAFHLTSSLLGAINFTNMRGPLYWTALLLLSLPVLAGTLLDRNFNTFEGGDPLYHLFWFFGHPEVYIIPGFGSHSTYKKFGMYASIGLGFVWSHHMYVGLDDRAYFTSATMIAPTGIKFSWLATYGGRPMLAFLFLFTGGTGVLNASDAFHDTYYVVHFHYVLSMGAFSLGYYYWYGLYNLFWFNFPMHFLGGMPRRPYPDAGWNSGSSYQLGPDESNEPH'
p1525
sg123
F0.00052999999999999998
sg124
g125
sg33
S'27'
p1526
sg127
g1
(g128
g12
(dp1527
g130
I4
sg131
g132
sg133
g134
sg135
g132
sg136
I01
sg34
g137
sg138
g134
sg139
I0
sg140
I0
sg141
I0
sg142
g134
sg35
g143
sg144
I0
stRp1528
sg146
g147
sg148
F1
sg149
Nsg30
S'CmetaC'
p1529
sbasg120
g1386
sg123
F1.0000000000000001e-05
sg124
g125
sg33
S'186'
p1530
sg127
g1
(g128
g12
(dp1531
g130
I6
sg131
g132
sg133
g134
sg135
g132
sg136
I01
sg34
g174
sg138
g134
sg139
I0
sg140
I0
sg141
I0
sg142
g134
sg35
g175
sg144
I0
stRp1532
sg146
g147
sg148
F1
sg149
Nsg30
S'NoName'
p1533
sbag1
(g2
g3
NtRp1534
(dp1535
g6
g1
(g7
g3
NtRp1536
(dp1537
g10
g1
(g11
g12
(dtRp1538
sg14
g1
(g11
g12
(dtRp1539
sg16
g1
(g11
g12
(dtRp1540
sg18
g1
(g11
g12
(dtRp1541
sg20
g1
(g11
g12
(dtRp1542
sg22
g1
(g11
g12
(dtRp1543
sbsg24
S'Cme'
p1544
sg26
g27
((lp1545
g29
ag30
aS'sequence'
p1546
ag32
ag33
aS'species'
p1547
atRp1548
sg37
(lp1549
sg120
g1386
sg121
S'RWLSTKDLYSRLELPGLNQNVHAMFVMPLGFGNPMGDMFARLNNSFWLPPLSLEGAGTGWTVYPPLSHSGPSVDLAFHLTSSLLGAINFTNMRGPLYWTALLLLSLPVLAGTLLDRNFNTFEGGDPLYHLFWFFGHPEVYIIPGFGSHSTYKKFGMYASIGLGFVWSHHMYVGLDDRAYFTSATMIAPTGIKFSWLATYGGRPMLAFLFLFTGGTGVLNASDAFHDTYYVVHFHYVLSMGAFSLGYYYWYGLYNLFWFNFPMHFLGGMPRRPYPDAGWNSGSSYQLGPDESNEPH'
p1550
sg123
F0.00012
sg124
g125
sg33
S'194'
p1551
sg127
g1
(g128
g12
(dp1552
g130
I4
sg131
g132
sg133
g134
sg135
g132
sg136
I01
sg34
g137
sg138
g134
sg139
I0
sg140
I0
sg141
I0
sg142
g134
sg35
g143
sg144
I0
stRp1553
sg146
g147
sg148
F1
sg149
Nsg30
S'CmetaB'
p1554
sbasg120
g1373
sg123
F1.0000000000000001e-05
sg124
g125
sg33
S'175'
p1555
sg127
g1
(g128
g12
(dp1556
g130
I6
sg131
g132
sg133
g134
sg135
g132
sg136
I01
sg34
g174
sg138
g134
sg139
I0
sg140
I0
sg141
I0
sg142
g134
sg35
g175
sg144
I0
stRp1557
sg146
g147
sg148
F1
sg149
Nsg30
S'NoName'
p1558
sbag1
(g2
g3
NtRp1559
(dp1560
g6
g1
(g7
g3
NtRp1561
(dp1562
g10
g1
(g11
g12
(dtRp1563
sg14
g1
(g11
g12
(dtRp1564
sg16
g1
(g11
g12
(dtRp1565
sg18
g1
(g11
g12
(dtRp1566
sg20
g1
(g11
g12
(dtRp1567
sg22
g1
(g11
g12
(dtRp1568
sbsg24
S'Cme'
p1569
sg26
g27
((lp1570
g29
ag30
aS'sequence'
p1571
ag32
ag33
aS'species'
p1572
atRp1573
sg37
(lp1574
sg120
g1373
sg121
S'RWLSTKDLYSRLELPGLNQNVHAMFVMPLGFGNPMGDMFARLNNSFWLPPLSLEGAGTGWTVYPPLSHSGPSVDLAFHLTSSLLGAINFTNMRGPLYWTALLLLSLPVLAGTLLDRNFNTFEGGDPLYHLFWFFGHPEVYIIPGFGSHSTYKKFGMYASIGLGFVWSHHMYVGLDDRAYFTSATMIAPTGIKFSWLATYGGRPMLAFLFLFTGGTGVLNASDAFHDTYYVVHFHYVLSMGAFSLGYYYWYGLYNLFWFNFPMHFLGGMPRRPYPDAGWNSGSSYQLGPDESNEPH'
p1575
sg123
F0.00012999999999999999
sg124
g125
sg33
S'198'
p1576
sg127
g1
(g128
g12
(dp1577
g130
I4
sg131
g132
sg133
g134
sg135
g132
sg136
I01
sg34
g137
sg138
g134
sg139
I0
sg140
I0
sg141
I0
sg142
g134
sg35
g143
sg144
I0
stRp1578
sg146
g147
sg148
F1
sg149
Nsg30
S'CmetaA'
p1579
sbasg120
g1111
sg123
F0.020930000000000001
sg124
g125
sg33
S'177'
p1580
sg127
g1
(g128
g12
(dp1581
g130
I6
sg131
g132
sg133
g134
sg135
g132
sg136
I01
sg34
g174
sg138
g134
sg139
I0
sg140
I0
sg141
I0
sg142
g134
sg35
g175
sg144
I0
stRp1582
sg146
g147
sg148
F0.98999999999999999
sg149
Nsg30
S'NoName'
p1583
sbasg120
g1098
sg123
F0.045289999999999997
sg124
g125
sg33
S'162'
p1584
sg127
g1
(g128
g12
(dp1585
g130
I6
sg131
g132
sg133
g134
sg135
g132
sg136
I01
sg34
g174
sg138
g134
sg139
I0
sg140
I0
sg141
I0
sg142
g134
sg35
g175
sg144
I0
stRp1586
sg146
g147
sg148
F0.98999999999999999
sg149
Nsg30
S'NoName'
p1587
sbag1
(g2
g3
NtRp1588
(dp1589
g6
g1
(g7
g3
NtRp1590
(dp1591
g10
g1
(g11
g12
(dtRp1592
sg14
g1
(g11
g12
(dtRp1593
sg16
g1
(g11
g12
(dtRp1594
sg18
g1
(g11
g12
(dtRp1595
sg20
g1
(g11
g12
(dtRp1596
sg22
g1
(g11
g12
(dtRp1597
sbsg24
S'Cji'
p1598
sg26
g27
((lp1599
g29
ag30
aS'sequence'
p1600
ag32
ag33
aS'species'
p1601
atRp1602
sg37
(lp1603
sg120
g1098
sg121
S'RWLSTKDLYSRLELPGLNQNVHAMFVMPLGFGNPMGDMFARLNNSFWLPPLSLEGAGTGWTVYPPLSHSGPSVDLAFHLTSSLLGAINFTNMRGPMFWTALLLLSLPVLAGTLLDRNFNTFDGGDPLYHLFWFFGHPEVYIIPGFGSHSTYKKFGMYASIGLGFVWSHHMYVGLDDRAYFTSATMIAPTGIKFSWLATYGGRPMLAFLFLFTGGTGVLNASDAFHDTYYTVHFHYVLSMGAFSLGYYYWYGLYNLFWFNFPMHFLGGMPRRPYPDAGWNSGSSYQLGPDESNEPH'
p1604
sg123
F0.013140000000000001
sg124
g125
sg33
S'206'
p1605
sg127
g1
(g128
g12
(dp1606
g130
I4
sg131
g132
sg133
g134
sg135
g132
sg136
I01
sg34
g137
sg138
g134
sg139
I0
sg140
I0
sg141
I0
sg142
g134
sg35
g143
sg144
I0
stRp1607
sg146
g147
sg148
F1
sg149
Nsg30
S'CjiufA'
p1608
sbasg120
g1026
sg123
F0.044909999999999999
sg124
g125
sg33
S'222'
p1609
sg127
g1
(g128
g12
(dp1610
g130
I6
sg131
g132
sg133
g134
sg135
g132
sg136
I01
sg34
g174
sg138
g134
sg139
I0
sg140
I0
sg141
I0
sg142
g134
sg35
g175
sg144
I0
stRp1611
sg146
g147
sg148
F0.98999999999999999
sg149
Nsg30
S'NoName'
p1612
sbasg120
g1013
sg123
F0.082199999999999995
sg124
g125
sg33
S'107'
p1613
sg127
g1
(g128
g12
(dp1614
g130
I6
sg131
g132
sg133
g134
sg135
g132
sg136
I01
sg34
g174
sg138
g134
sg139
I0
sg140
I0
sg141
I0
sg142
g134
sg35
g175
sg144
I0
stRp1615
sg146
g147
sg148
F0.98999999999999999
sg149
Nsg30
S'NoName'
p1616
sbag1
(g2
g3
NtRp1617
(dp1618
g6
g1
(g7
g3
NtRp1619
(dp1620
g10
g1
(g11
g12
(dtRp1621
sg14
g1
(g11
g12
(dtRp1622
sg16
g1
(g11
g12
(dtRp1623
sg18
g1
(g11
g12
(dtRp1624
sg20
g1
(g11
g12
(dtRp1625
sg22
g1
(g11
g12
(dtRp1626
sbsg24
g25
sg26
g27
((lp1627
g33
ag32
ag29
ag30
atRp1628
sg37
(lp1629
g1
(g2
g3
NtRp1630
(dp1631
g6
g1
(g7
g3
NtRp1632
(dp1633
g10
g1
(g11
g12
(dtRp1634
sg14
g1
(g11
g12
(dtRp1635
sg16
g1
(g11
g12
(dtRp1636
sg18
g1
(g11
g12
(dtRp1637
sg20
g1
(g11
g12
(dtRp1638
sg22
g1
(g11
g12
(dtRp1639
sbsg24
g25
sg26
g27
((lp1640
g33
ag32
ag29
ag30
atRp1641
sg37
(lp1642
g1
(g2
g3
NtRp1643
(dp1644
g6
g1
(g7
g3
NtRp1645
(dp1646
g10
g1
(g11
g12
(dtRp1647
sg14
g1
(g11
g12
(dtRp1648
sg16
g1
(g11
g12
(dtRp1649
sg18
g1
(g11
g12
(dtRp1650
sg20
g1
(g11
g12
(dtRp1651
sg22
g1
(g11
g12
(dtRp1652
sbsg24
S'Cco'
p1653
sg26
g27
((lp1654
g29
ag30
aS'sequence'
p1655
ag32
ag33
aS'species'
p1656
atRp1657
sg37
(lp1658
sg120
g1630
sg121
S'RWLSTKDLYSRMELPGLNQNVHAMFVMPLGFGNPMGDMFARLNNSFWLPPLSLEGAGTGWTLYAPLSHSGPSVDLAFHLTSSLLGAINFTNMRGPLFWTALLLLSLPVLAATLLDRNFNTFEGGDPLYHLFFVLMHPEVYIIPGFGSHSTYKKFGMYASMGLGFVWSHHMYVGLDDRAYFTSATMIAPTGIKFSWLATYGGRPMLAFLFLFTGGTGVLNASDAFHDTYYIKHFHYVLSMGAFSLGYYYWYGLYNMFWFNFPMHFLGGMPRRPYPDAGWNSGSSYQLGPDESNEPH'
p1659
sg123
F0.057970000000000001
sg124
g125
sg33
S'93'
p1660
sg127
g1
(g128
g12
(dp1661
g130
I4
sg131
g132
sg133
g134
sg135
g132
sg136
I01
sg34
g137
sg138
g134
sg139
I0
sg140
I0
sg141
I0
sg142
g134
sg35
g143
sg144
I0
stRp1662
sg146
g147
sg148
F1
sg149
Nsg30
S'CcoryA'
p1663
sbag1
(g2
g3
NtRp1664
(dp1665
g6
g1
(g7
g3
NtRp1666
(dp1667
g10
g1
(g11
g12
(dtRp1668
sg14
g1
(g11
g12
(dtRp1669
sg16
g1
(g11
g12
(dtRp1670
sg18
g1
(g11
g12
(dtRp1671
sg20
g1
(g11
g12
(dtRp1672
sg22
g1
(g11
g12
(dtRp1673
sbsg24
S'Cch'
p1674
sg26
g27
((lp1675
g29
ag30
aS'sequence'
p1676
ag32
ag33
aS'species'
p1677
atRp1678
sg37
(lp1679
sg120
g1630
sg121
S'RWLSTKDLYSRMELPSLNQNVHAMFVMPLGFGNPMGDMFARLNNSFWLPPLSLEGAGTGWTLYAPLSHSGPSVDLAFHLTSSLLGAINFTNMRGPLFWTALLLLSLPVLAATLLDRNFNTFEGGDPLYHLFWFYMYKDYYIIPGFGSHSTYKKFGMYASIGLGFVWSHHMFVGLDDRAYFTSATMIAPTGIKFSWLATYGGRPMLAFLFLFTGGTGVLNASDAFHDTYYVVHFHYVLSMGAFSLGYYYWYGLYNLFWFNFPMHFLGGMPRRPYPDAGWNSGSSYQLGPDESNEPH'
p1680
sg123
F0.052440000000000001
sg124
g125
sg33
S'55'
p1681
sg127
g1
(g128
g12
(dp1682
g130
I4
sg131
g132
sg133
g134
sg135
g132
sg136
I01
sg34
g137
sg138
g134
sg139
I0
sg140
I0
sg141
I0
sg142
g134
sg35
g143
sg144
I0
stRp1683
sg146
g147
sg148
F1
sg149
Nsg30
S'CchauA'
p1684
sbasg120
g1617
sg123
F0.16861999999999999
sg124
g125
sg33
S'201'
p1685
sg127
g1
(g128
g12
(dp1686
g130
I6
sg131
g132
sg133
g134
sg135
g132
sg136
I01
sg34
g174
sg138
g134
sg139
I0
sg140
I0
sg141
I0
sg142
g134
sg35
g175
sg144
I0
stRp1687
sg146
g147
sg148
F0.98999999999999999
sg149
Nsg30
S'NoName'
p1688
sbag1
(g2
g3
NtRp1689
(dp1690
g6
g1
(g7
g3
NtRp1691
(dp1692
g10
g1
(g11
g12
(dtRp1693
sg14
g1
(g11
g12
(dtRp1694
sg16
g1
(g11
g12
(dtRp1695
sg18
g1
(g11
g12
(dtRp1696
sg20
g1
(g11
g12
(dtRp1697
sg22
g1
(g11
g12
(dtRp1698
sbsg24
S'Cbo'
p1699
sg26
g27
((lp1700
g29
ag30
aS'sequence'
p1701
ag32
ag33
aS'species'
p1702
atRp1703
sg37
(lp1704
sg120
g1617
sg121
S'RWLSTKDLYSRMELPGLNQNVHAMFVMPLGFGNPMGDMFARLNNSFWLPPLSLEGAGTGWTVYPPLSHSGPSVDLAFHLTSSLLGAINFTNMRGPLFWTALLLLSLPVLAATLLDRNFNTFEGGDPLYHLFWFFGHPEVYIIPGFGSHSTYKKFGMYASIGLGFVWSHHMYVGLDDRAYFTSATMIAPTGIKFSWLATYGGRPMLAFLFLFTGGTGVLNASDAFHDTYYVVHFHYVLSMGAFSLAYYYWYGLYNLFWFNFPMHFLGGMPRRPYPDAGWNSGSSYQLGPDESNEPH'
p1705
sg123
F0.20199
sg124
g125
sg33
S'33'
p1706
sg127
g1
(g128
g12
(dp1707
g130
I4
sg131
g132
sg133
g134
sg135
g132
sg136
I01
sg34
g137
sg138
g134
sg139
I0
sg140
I0
sg141
I0
sg142
g134
sg35
g143
sg144
I0
stRp1708
sg146
g147
sg148
F1
sg149
Nsg30
S'CbohiA'
p1709
sbasg120
g1013
sg123
F0.14915999999999999
sg124
g125
sg33
S'183'
p1710
sg127
g1
(g128
g12
(dp1711
g130
I6
sg131
g132
sg133
g134
sg135
g132
sg136
I01
sg34
g174
sg138
g134
sg139
I0
sg140
I0
sg141
I0
sg142
g134
sg35
g175
sg144
I0
stRp1712
sg146
g147
sg148
F0.98999999999999999
sg149
Nsg30
S'NoName'
p1713
sbasg120
g1000
sg123
F0.036799999999999999
sg124
g125
sg33
S'143'
p1714
sg127
g1
(g128
g12
(dp1715
g130
I6
sg131
g132
sg133
g134
sg135
g132
sg136
I01
sg34
g174
sg138
g134
sg139
I0
sg140
I0
sg141
I0
sg142
g134
sg35
g175
sg144
I0
stRp1716
sg146
g147
sg148
F0.98999999999999999
sg149
Nsg30
S'NoName'
p1717
sbag1
(g2
g3
NtRp1718
(dp1719
g6
g1
(g7
g3
NtRp1720
(dp1721
g10
g1
(g11
g12
(dtRp1722
sg14
g1
(g11
g12
(dtRp1723
sg16
g1
(g11
g12
(dtRp1724
sg18
g1
(g11
g12
(dtRp1725
sg20
g1
(g11
g12
(dtRp1726
sg22
g1
(g11
g12
(dtRp1727
sbsg24
g25
sg26
g27
((lp1728
g33
ag32
ag29
ag30
atRp1729
sg37
(lp1730
g1
(g2
g3
NtRp1731
(dp1732
g6
g1
(g7
g3
NtRp1733
(dp1734
g10
g1
(g11
g12
(dtRp1735
sg14
g1
(g11
g12
(dtRp1736
sg16
g1
(g11
g12
(dtRp1737
sg18
g1
(g11
g12
(dtRp1738
sg20
g1
(g11
g12
(dtRp1739
sg22
g1
(g11
g12
(dtRp1740
sbsg24
g25
sg26
g27
((lp1741
g33
ag32
ag29
ag30
atRp1742
sg37
(lp1743
g1
(g2
g3
NtRp1744
(dp1745
g6
g1
(g7
g3
NtRp1746
(dp1747
g10
g1
(g11
g12
(dtRp1748
sg14
g1
(g11
g12
(dtRp1749
sg16
g1
(g11
g12
(dtRp1750
sg18
g1
(g11
g12
(dtRp1751
sg20
g1
(g11
g12
(dtRp1752
sg22
g1
(g11
g12
(dtRp1753
sbsg24
S'Cma'
p1754
sg26
g27
((lp1755
g29
ag30
aS'sequence'
p1756
ag32
ag33
aS'species'
p1757
atRp1758
sg37
(lp1759
sg120
g1731
sg121
S'RWLSTKDLYSRLELPGLSQNVHAMFVMPLGFGNPLGDMFARLNNSFWLPPLSLEGAGTGWTVYPPLSHSGPSVDLAFHLTSSLLGAINFTNMRGPLYWTALLLLSLPVLAGTLLDRNFNTFEGGDPLYHLFWFFGHPEVYMIPGFGSHSTYKKFGMYASMGLGFVWSHHMYVGLDDRAYFTSATMIAPTGIKFSWLATYGGRPMLAFLFLFTGGTGVLNASDAFHDTYYVVHFHYVLSMGAFSLGYYYWSGLYNLYWFNFPMHFLGGMPRRPYPDAGWNSGSSYQLGPDESNEPH'
p1760
sg123
F0.24277000000000001
sg124
g125
sg33
S'45'
p1761
sg127
g1
(g128
g12
(dp1762
g130
I4
sg131
g132
sg133
g134
sg135
g132
sg136
I01
sg34
g137
sg138
g134
sg139
I0
sg140
I0
sg141
I0
sg142
g134
sg35
g143
sg144
I0
stRp1763
sg146
g147
sg148
F1
sg149
Nsg30
S'CmaltA'
p1764
sbag1
(g2
g3
NtRp1765
(dp1766
g6
g1
(g7
g3
NtRp1767
(dp1768
g10
g1
(g11
g12
(dtRp1769
sg14
g1
(g11
g12
(dtRp1770
sg16
g1
(g11
g12
(dtRp1771
sg18
g1
(g11
g12
(dtRp1772
sg20
g1
(g11
g12
(dtRp1773
sg22
g1
(g11
g12
(dtRp1774
sbsg24
g25
sg26
g27
((lp1775
g33
ag32
ag29
ag30
atRp1776
sg37
(lp1777
g1
(g2
g3
NtRp1778
(dp1779
g6
g1
(g7
g3
NtRp1780
(dp1781
g10
g1
(g11
g12
(dtRp1782
sg14
g1
(g11
g12
(dtRp1783
sg16
g1
(g11
g12
(dtRp1784
sg18
g1
(g11
g12
(dtRp1785
sg20
g1
(g11
g12
(dtRp1786
sg22
g1
(g11
g12
(dtRp1787
sbsg24
g25
sg26
g27
((lp1788
g33
ag32
ag29
ag30
atRp1789
sg37
(lp1790
g1
(g2
g3
NtRp1791
(dp1792
g6
g1
(g7
g3
NtRp1793
(dp1794
g10
g1
(g11
g12
(dtRp1795
sg14
g1
(g11
g12
(dtRp1796
sg16
g1
(g11
g12
(dtRp1797
sg18
g1
(g11
g12
(dtRp1798
sg20
g1
(g11
g12
(dtRp1799
sg22
g1
(g11
g12
(dtRp1800
sbsg24
g25
sg26
g27
((lp1801
g33
ag32
ag29
ag30
atRp1802
sg37
(lp1803
g1
(g2
g3
NtRp1804
(dp1805
g6
g1
(g7
g3
NtRp1806
(dp1807
g10
g1
(g11
g12
(dtRp1808
sg14
g1
(g11
g12
(dtRp1809
sg16
g1
(g11
g12
(dtRp1810
sg18
g1
(g11
g12
(dtRp1811
sg20
g1
(g11
g12
(dtRp1812
sg22
g1
(g11
g12
(dtRp1813
sbsg24
g25
sg26
g27
((lp1814
g33
ag32
ag29
ag30
atRp1815
sg37
(lp1816
g1
(g2
g3
NtRp1817
(dp1818
g6
g1
(g7
g3
NtRp1819
(dp1820
g10
g1
(g11
g12
(dtRp1821
sg14
g1
(g11
g12
(dtRp1822
sg16
g1
(g11
g12
(dtRp1823
sg18
g1
(g11
g12
(dtRp1824
sg20
g1
(g11
g12
(dtRp1825
sg22
g1
(g11
g12
(dtRp1826
sbsg24
S'Ctr'
p1827
sg26
g27
((lp1828
g29
ag30
aS'sequence'
p1829
ag32
ag33
aS'species'
p1830
atRp1831
sg37
(lp1832
sg120
g1804
sg121
S'RWLSTKDLYSRLELPGLNQNVHAMFVMPLGFGNPMGDMFARLNNSFWLPPLSLEGAGTGWTVYPPLSHSGPSVDLAFHLTSSLLGAINFTNMRGPLFWTALLLLSLPVLAGTLLDRNFNTFEGGDPLYHLFWFFGHPEVYIIPGFGSHSTYKKFGMYASIGLGFVWSHHMYVGLDDRAYFTSATMIAPTGIKFSWLATYGGRPMLAFLFLFTGGTGVLNASDAFHDSYYVVHFHYVLSMGAFSLGYYYWPGLYNLYWFNFPMHFLGGMPRRPYPDAGWNSGSSYQLGPDEANEPH'
p1833
sg123
F0.00064000000000000005
sg124
g125
sg33
S'111'
p1834
sg127
g1
(g128
g12
(dp1835
g130
I4
sg131
g132
sg133
g134
sg135
g132
sg136
I01
sg34
g137
sg138
g134
sg139
I0
sg140
I0
sg141
I0
sg142
g134
sg35
g143
sg144
I0
stRp1836
sg146
g147
sg148
F1
sg149
Nsg30
S'CtropB'
p1837
sbag1
(g2
g3
NtRp1838
(dp1839
g6
g1
(g7
g3
NtRp1840
(dp1841
g10
g1
(g11
g12
(dtRp1842
sg14
g1
(g11
g12
(dtRp1843
sg16
g1
(g11
g12
(dtRp1844
sg18
g1
(g11
g12
(dtRp1845
sg20
g1
(g11
g12
(dtRp1846
sg22
g1
(g11
g12
(dtRp1847
sbsg24
S'Ctr'
p1848
sg26
g27
((lp1849
g29
ag30
aS'sequence'
p1850
ag32
ag33
aS'species'
p1851
atRp1852
sg37
(lp1853
sg120
g1804
sg121
S'RWLSTKDLYSRLELPGLNQNVHAMFVMPLGFGNPMGDMFARLNNSFWLPPLSLEGAGTGWTVYPPLSHSGPSVDLAFHLTSSLLGAINFTNMRGPLFWTALLLLSLPVLAGTLLDRNFNTFEGGDPLYHLFWFFGHPEVYIIPGFGSHSTYKKFGMYASIGLGFVWSHHMYVGLDDRAYFTSATMIAPTGIKFSWLATYGGRPMLAFLFLFTGGTGVLNASDAFHDSYYVVHFHYVLSMGAFSLGYYYWPGLYNLYWFNFPMHFLGGMPRRPYPDAGWNSGSSYQLGPDEANEPH'
p1854
sg123
F0.00040000000000000002
sg124
g125
sg33
S'168'
p1855
sg127
g1
(g128
g12
(dp1856
g130
I4
sg131
g132
sg133
g134
sg135
g132
sg136
I01
sg34
g137
sg138
g134
sg139
I0
sg140
I0
sg141
I0
sg142
g134
sg35
g143
sg144
I0
stRp1857
sg146
g147
sg148
F1
sg149
Nsg30
S'CtropA'
p1858
sbasg120
g1791
sg123
F0.032030000000000003
sg124
g125
sg33
S'74'
p1859
sg127
g1
(g128
g12
(dp1860
g130
I6
sg131
g132
sg133
g134
sg135
g132
sg136
I01
sg34
g174
sg138
g134
sg139
I0
sg140
I0
sg141
I0
sg142
g134
sg35
g175
sg144
I0
stRp1861
sg146
g147
sg148
F0.98999999999999999
sg149
Nsg30
S'NoName'
p1862
sbag1
(g2
g3
NtRp1863
(dp1864
g6
g1
(g7
g3
NtRp1865
(dp1866
g10
g1
(g11
g12
(dtRp1867
sg14
g1
(g11
g12
(dtRp1868
sg16
g1
(g11
g12
(dtRp1869
sg18
g1
(g11
g12
(dtRp1870
sg20
g1
(g11
g12
(dtRp1871
sg22
g1
(g11
g12
(dtRp1872
sbsg24
S'Cso'
p1873
sg26
g27
((lp1874
g29
ag30
aS'sequence'
p1875
ag32
ag33
aS'species'
p1876
atRp1877
sg37
(lp1878
sg120
g1791
sg121
S'RWLSTKDLYSRLELPGLNQNVHAMFVMPLGFGNPMGDMFARLNNSFWLPPLSLEGAGTGWTVYPPLSHSGPSVDLAFHLTSSLLGAMNFTNMRGPLFWTALLLLSLPVLAGTLLDRNFNTFEGGDPLYHLFWFFGHPEVYIIPGFGSHSTYKKFGMYASIGLGFVWSHHMYVGLDDRAYFTSATMIAPTGIKFSWLATYGGRPMLAFLFLFTGGTGVLNASDAFHDTYYVVHFHYVLSMGAFSLGYYYWPGLYNLYWFNFPMHFLGGMPRRPYPDAGWNSGSSYQLGPDEANEPH'
p1879
sg123
F0.033649999999999999
sg124
g125
sg33
S'144'
p1880
sg127
g1
(g128
g12
(dp1881
g130
I4
sg131
g132
sg133
g134
sg135
g132
sg136
I01
sg34
g137
sg138
g134
sg139
I0
sg140
I0
sg141
I0
sg142
g134
sg35
g143
sg144
I0
stRp1882
sg146
g147
sg148
F1
sg149
Nsg30
S'CsojaA'
p1883
sbasg120
g1778
sg123
F0.019990000000000001
sg124
g125
sg33
S'64'
p1884
sg127
g1
(g128
g12
(dp1885
g130
I6
sg131
g132
sg133
g134
sg135
g132
sg136
I01
sg34
g174
sg138
g134
sg139
I0
sg140
I0
sg141
I0
sg142
g134
sg35
g175
sg144
I0
stRp1886
sg146
g147
sg148
F0.98999999999999999
sg149
Nsg30
S'NoName'
p1887
sbag1
(g2
g3
NtRp1888
(dp1889
g6
g1
(g7
g3
NtRp1890
(dp1891
g10
g1
(g11
g12
(dtRp1892
sg14
g1
(g11
g12
(dtRp1893
sg16
g1
(g11
g12
(dtRp1894
sg18
g1
(g11
g12
(dtRp1895
sg20
g1
(g11
g12
(dtRp1896
sg22
g1
(g11
g12
(dtRp1897
sbsg24
g25
sg26
g27
((lp1898
g33
ag32
ag29
ag30
atRp1899
sg37
(lp1900
g1
(g2
g3
NtRp1901
(dp1902
g6
g1
(g7
g3
NtRp1903
(dp1904
g10
g1
(g11
g12
(dtRp1905
sg14
g1
(g11
g12
(dtRp1906
sg16
g1
(g11
g12
(dtRp1907
sg18
g1
(g11
g12
(dtRp1908
sg20
g1
(g11
g12
(dtRp1909
sg22
g1
(g11
g12
(dtRp1910
sbsg24
S'Cte'
p1911
sg26
g27
((lp1912
g29
ag30
aS'sequence'
p1913
ag32
ag33
aS'species'
p1914
atRp1915
sg37
(lp1916
sg120
g1888
sg121
S'RWLSTKDLYSRLELPGLNQNVHAMFVMPLGFGNPMGDMFARLNNSFWLPPLSLEGAGTGWTVYPPLSHSGPSVDMAFHLTSSLLGAINFTNMRGPLFWTALLLLSLPVLAGTLLDRNFNTFEGGDPLYHLFWFFGHPEVYIIPGFGSHSTYKKFGMYASIGLGFVWSHHMFVGLDDRAYFTSATMMAPTGIKFSWLATYGGRPMLAFLFLFTGGTGVLNASDSMHDTYYVVHFHYVLSMGAFSLGYYYWPGLYNLYWFNFPMHFLGGMPRRPYPDAGWNSGSSLQLGPDESNEPH'
p1917
sg123
F0.084209999999999993
sg124
g125
sg33
S'131'
p1918
sg127
g1
(g128
g12
(dp1919
g130
I4
sg131
g132
sg133
g134
sg135
g132
sg136
I01
sg34
g137
sg138
g134
sg139
I0
sg140
I0
sg141
I0
sg142
g134
sg35
g143
sg144
I0
stRp1920
sg146
g147
sg148
F1
sg149
Nsg30
S'CtetrA'
p1921
sbag1
(g2
g3
NtRp1922
(dp1923
g6
g1
(g7
g3
NtRp1924
(dp1925
g10
g1
(g11
g12
(dtRp1926
sg14
g1
(g11
g12
(dtRp1927
sg16
g1
(g11
g12
(dtRp1928
sg18
g1
(g11
g12
(dtRp1929
sg20
g1
(g11
g12
(dtRp1930
sg22
g1
(g11
g12
(dtRp1931
sbsg24
g25
sg26
g27
((lp1932
g33
ag32
ag29
ag30
atRp1933
sg37
(lp1934
g1
(g2
g3
NtRp1935
(dp1936
g6
g1
(g7
g3
NtRp1937
(dp1938
g10
g1
(g11
g12
(dtRp1939
sg14
g1
(g11
g12
(dtRp1940
sg16
g1
(g11
g12
(dtRp1941
sg18
g1
(g11
g12
(dtRp1942
sg20
g1
(g11
g12
(dtRp1943
sg22
g1
(g11
g12
(dtRp1944
sbsg24
g25
sg26
g27
((lp1945
g33
ag32
ag29
ag30
atRp1946
sg37
(lp1947
g1
(g2
g3
NtRp1948
(dp1949
g6
g1
(g7
g3
NtRp1950
(dp1951
g10
g1
(g11
g12
(dtRp1952
sg14
g1
(g11
g12
(dtRp1953
sg16
g1
(g11
g12
(dtRp1954
sg18
g1
(g11
g12
(dtRp1955
sg20
g1
(g11
g12
(dtRp1956
sg22
g1
(g11
g12
(dtRp1957
sbsg24
S'Cvi'
p1958
sg26
g27
((lp1959
g29
ag30
aS'sequence'
p1960
ag32
ag33
aS'species'
p1961
atRp1962
sg37
(lp1963
sg120
g1935
sg121
S'RWFSTKDLYSRLELPGLNQNVHAMFVMPLGFGNPMGDMFARLNNSFWLPPLSLEGAGTGWTVYPPLSHSGPSVDLAFHLTSSLLGAINFTNMRGPLFWTALLLLSLPVLAGTLLDRNFNTFDGGDPLYHLFWFFGHPEVYMIPGFGSHSTYKKFGMYASIGLGFVWSHHMYVGLDDRAYFTSATMIAPTGIKFSWLSTYGGRPTLAFLFLFTGGTGVLNASDSMHDTYYVVHFHYVLSMGAFSLGYYYWPGLYNLYWFNFPMHFLGGMPRRPYPDSGWNSGSSFQLGPDESNEPH'
p1964
sg123
F0.03977
sg124
g125
sg33
S'180'
p1965
sg127
g1
(g128
g12
(dp1966
g130
I4
sg131
g132
sg133
g134
sg135
g132
sg136
I01
sg34
g137
sg138
g134
sg139
I0
sg140
I0
sg141
I0
sg142
g134
sg35
g143
sg144
I0
stRp1967
sg146
g147
sg148
F1
sg149
Nsg30
S'CviswA'
p1968
sbag1
(g2
g3
NtRp1969
(dp1970
g6
g1
(g7
g3
NtRp1971
(dp1972
g10
g1
(g11
g12
(dtRp1973
sg14
g1
(g11
g12
(dtRp1974
sg16
g1
(g11
g12
(dtRp1975
sg18
g1
(g11
g12
(dtRp1976
sg20
g1
(g11
g12
(dtRp1977
sg22
g1
(g11
g12
(dtRp1978
sbsg24
S'Csa'
p1979
sg26
g27
((lp1980
g29
ag30
aS'sequence'
p1981
ag32
ag33
aS'species'
p1982
atRp1983
sg37
(lp1984
sg120
g1935
sg121
S'RWFSTKDLYSRLELPGLNQNVHAMFVMPLGFGNPMGDMFARLNNSFWLPPLSLEGAGTGWTVYPPLSHSGPSVDLAFHLTSSLLGAINFTNMRGVLFWTALLLLSLPVLAGTLLDRNFNTFDGGDPLYHLFWFFGHPEVYIIPGFGSHSTFKKFGMYASIGLGFVWSHHMYVGLDDRAYFTSATMIAPTGIKFSWIATYGGRPTLAFLFLFTGGTGVLNASDSMHDTYYVVHFHYVLSMGAFSLGYYYWPGLYNLYWFNFPMHFLGGMPRRPYPDSGWNSGSSYQLGPDEGNEPH'
p1985
sg123
F0.065189999999999998
sg124
g125
sg33
S'140'
p1986
sg127
g1
(g128
g12
(dp1987
g130
I4
sg131
g132
sg133
g134
sg135
g132
sg136
I01
sg34
g137
sg138
g134
sg139
I0
sg140
I0
sg141
I0
sg142
g134
sg35
g143
sg144
I0
stRp1988
sg146
g147
sg148
F1
sg149
Nsg30
S'CsaraA'
p1989
sbasg120
g1922
sg123
F0.029960000000000001
sg124
g125
sg33
S'157'
p1990
sg127
g1
(g128
g12
(dp1991
g130
I6
sg131
g132
sg133
g134
sg135
g132
sg136
I01
sg34
g174
sg138
g134
sg139
I0
sg140
I0
sg141
I0
sg142
g134
sg35
g175
sg144
I0
stRp1992
sg146
g147
sg148
F0.98999999999999999
sg149
Nsg30
S'NoName'
p1993
sbag1
(g2
g3
NtRp1994
(dp1995
g6
g1
(g7
g3
NtRp1996
(dp1997
g10
g1
(g11
g12
(dtRp1998
sg14
g1
(g11
g12
(dtRp1999
sg16
g1
(g11
g12
(dtRp2000
sg18
g1
(g11
g12
(dtRp2001
sg20
g1
(g11
g12
(dtRp2002
sg22
g1
(g11
g12
(dtRp2003
sbsg24
S'Cpr'
p2004
sg26
g27
((lp2005
g29
ag30
aS'sequence'
p2006
ag32
ag33
aS'species'
p2007
atRp2008
sg37
(lp2009
sg120
g1922
sg121
S'RWFSTKDEYSRLELPGLNQNVHAMFVMPLGFGNPMGDMFARLNNSFWLPPLSLEGAGTGWTVYPPLSHSGPSVDLAFHLTSSLLGAINFTNMRGPLFWTALLLLSLPVLTGTLLDRNFNTFDGGDPLYHLFWFFGHPEVYMIPGFGSHSTYKKFGMYASMGLGFVWSHHMFVGLDDRAYFTSATMMAPTGIKFSWLATYGGRPMLAFLFLFTGGTGVLNASDSMHDTYYVVHFHYVLSMGAFSLGYYYWPGLYNLYWFNFPMHFLGGMPRRPYPDSGWNSGSSVQLGPDENNEPH'
p2010
sg123
F0.17724999999999999
sg124
g125
sg33
S'203'
p2011
sg127
g1
(g128
g12
(dp2012
g130
I4
sg131
g132
sg133
g134
sg135
g132
sg136
I01
sg34
g137
sg138
g134
sg139
I0
sg140
I0
sg141
I0
sg142
g134
sg35
g143
sg144
I0
stRp2013
sg146
g147
sg148
F1
sg149
Nsg30
S'CpracA'
p2014
sbasg120
g1888
sg123
F0.02281
sg124
g125
sg33
S'123'
p2015
sg127
g1
(g128
g12
(dp2016
g130
I6
sg131
g132
sg133
g134
sg135
g132
sg136
I01
sg34
g174
sg138
g134
sg139
I0
sg140
I0
sg141
I0
sg142
g134
sg35
g175
sg144
I0
stRp2017
sg146
g147
sg148
F0.98999999999999999
sg149
Nsg30
S'NoName'
p2018
sbasg120
g1778
sg123
F0.01154
sg124
g125
sg33
S'82'
p2019
sg127
g1
(g128
g12
(dp2020
g130
I6
sg131
g132
sg133
g134
sg135
g132
sg136
I01
sg34
g174
sg138
g134
sg139
I0
sg140
I0
sg141
I0
sg142
g134
sg35
g175
sg144
I0
stRp2021
sg146
g147
sg148
F0.98999999999999999
sg149
Nsg30
S'NoName'
p2022
sbasg120
g1765
sg123
F0.02138
sg124
g125
sg33
S'91'
p2023
sg127
g1
(g128
g12
(dp2024
g130
I6
sg131
g132
sg133
g134
sg135
g132
sg136
I01
sg34
g174
sg138
g134
sg139
I0
sg140
I0
sg141
I0
sg142
g134
sg35
g175
sg144
I0
stRp2025
sg146
g147
sg148
F0.98999999999999999
sg149
Nsg30
S'NoName'
p2026
sbag1
(g2
g3
NtRp2027
(dp2028
g6
g1
(g7
g3
NtRp2029
(dp2030
g10
g1
(g11
g12
(dtRp2031
sg14
g1
(g11
g12
(dtRp2032
sg16
g1
(g11
g12
(dtRp2033
sg18
g1
(g11
g12
(dtRp2034
sg20
g1
(g11
g12
(dtRp2035
sg22
g1
(g11
g12
(dtRp2036
sbsg24
g25
sg26
g27
((lp2037
g33
ag32
ag29
ag30
atRp2038
sg37
(lp2039
g1
(g2
g3
NtRp2040
(dp2041
g6
g1
(g7
g3
NtRp2042
(dp2043
g10
g1
(g11
g12
(dtRp2044
sg14
g1
(g11
g12
(dtRp2045
sg16
g1
(g11
g12
(dtRp2046
sg18
g1
(g11
g12
(dtRp2047
sg20
g1
(g11
g12
(dtRp2048
sg22
g1
(g11
g12
(dtRp2049
sbsg24
S'Cne'
p2050
sg26
g27
((lp2051
g29
ag30
aS'sequence'
p2052
ag32
ag33
aS'species'
p2053
atRp2054
sg37
(lp2055
sg120
g2027
sg121
S'RWLSTKDLYSRLELPGLNQNVHAMFVMPLGFGNPMGDMFARLNNSFWLPPLSLEGAGTGWTVYPPLSHSGPSVDLAFHLTSSLLGAINFTNMRGPLFWTALLLLSLPVLAGTLLDRNFNTFDGGDPLYHLFWFFGHPEVYIIPGFGSHSTYKKFGMYASIGLGFVWSHHMYVGLDDRAYFTSATMIAPTGIKFSWLATYGGRPMLAFLFLFTGGTGVLNASDAFHDTYYVVHFHYVLSMGAFSLGYYYWPGLYNLYWFNFPMHFLGGMPRRPYPDSGWNSGSSYQLGPDESNEPH'
p2056
sg123
F0.04879
sg124
g125
sg33
S'184'
p2057
sg127
g1
(g128
g12
(dp2058
g130
I4
sg131
g132
sg133
g134
sg135
g132
sg136
I01
sg34
g137
sg138
g134
sg139
I0
sg140
I0
sg141
I0
sg142
g134
sg35
g143
sg144
I0
stRp2059
sg146
g147
sg148
F1
sg149
Nsg30
S'CneerA'
p2060
sbag1
(g2
g3
NtRp2061
(dp2062
g6
g1
(g7
g3
NtRp2063
(dp2064
g10
g1
(g11
g12
(dtRp2065
sg14
g1
(g11
g12
(dtRp2066
sg16
g1
(g11
g12
(dtRp2067
sg18
g1
(g11
g12
(dtRp2068
sg20
g1
(g11
g12
(dtRp2069
sg22
g1
(g11
g12
(dtRp2070
sbsg24
S'Cfr'
p2071
sg26
g27
((lp2072
g29
ag30
aS'sequence'
p2073
ag32
ag33
aS'species'
p2074
atRp2075
sg37
(lp2076
sg120
g2027
sg121
S'RWLSTKDLYSRLELPGLNQNVHAMFVMPLGFGNPMGDMFARLNNSFWLPPLSLEGAGTGWTVYPPLSHSGPSVDLAFHLTSSLLGAMNFTNMRGPLFWTALLLLSLPVLAGTLLDRNFNTFDGGDPLYHLFWFFGHPEVYIIPGFGSHSTYKKFGMYASIGLGFVWSHHMYVGLDDRAYFTSATMIAPTGIKFSWLSTYGGRPMLAFLFLFTGGTGVLNASDAFHDTYYVVHFHYVLSMGAFSLGYYYWPGLYNLYWFNFPMHFLGGMPRRPYPDSGWNSGSSYQLGPDESNEPH'
p2077
sg123
F0.050279999999999998
sg124
g125
sg33
S'215'
p2078
sg127
g1
(g128
g12
(dp2079
g130
I4
sg131
g132
sg133
g134
sg135
g132
sg136
I01
sg34
g137
sg138
g134
sg139
I0
sg140
I0
sg141
I0
sg142
g134
sg35
g143
sg144
I0
stRp2080
sg146
g147
sg148
F1
sg149
Nsg30
S'CfrijA'
p2081
sbasg120
g1765
sg123
F0.11378000000000001
sg124
g125
sg33
S'214'
p2082
sg127
g1
(g128
g12
(dp2083
g130
I6
sg131
g132
sg133
g134
sg135
g132
sg136
I01
sg34
g174
sg138
g134
sg139
I0
sg140
I0
sg141
I0
sg142
g134
sg35
g175
sg144
I0
stRp2084
sg146
g147
sg148
F0.98999999999999999
sg149
Nsg30
S'NoName'
p2085
sbasg120
g1731
sg123
F0.076910000000000006
sg124
g125
sg33
S'109'
p2086
sg127
g1
(g128
g12
(dp2087
g130
I6
sg131
g132
sg133
g134
sg135
g132
sg136
I01
sg34
g174
sg138
g134
sg139
I0
sg140
I0
sg141
I0
sg142
g134
sg35
g175
sg144
I0
stRp2088
sg146
g147
sg148
F0.98999999999999999
sg149
Nsg30
S'NoName'
p2089
sbasg120
g1718
sg123
F0.022950000000000002
sg124
g125
sg33
S'10'
p2090
sg127
g1
(g128
g12
(dp2091
g130
I6
sg131
g132
sg133
g134
sg135
g132
sg136
I01
sg34
g174
sg138
g134
sg139
I0
sg140
I0
sg141
I0
sg142
g134
sg35
g175
sg144
I0
stRp2092
sg146
g147
sg148
F0.65000000000000002
sg149
Nsg30
S'NoName'
p2093
sbag1
(g2
g3
NtRp2094
(dp2095
g6
g1
(g7
g3
NtRp2096
(dp2097
g10
g1
(g11
g12
(dtRp2098
sg14
g1
(g11
g12
(dtRp2099
sg16
g1
(g11
g12
(dtRp2100
sg18
g1
(g11
g12
(dtRp2101
sg20
g1
(g11
g12
(dtRp2102
sg22
g1
(g11
g12
(dtRp2103
sbsg24
g25
sg26
g27
((lp2104
g33
ag32
ag29
ag30
atRp2105
sg37
(lp2106
g1
(g2
g3
NtRp2107
(dp2108
g6
g1
(g7
g3
NtRp2109
(dp2110
g10
g1
(g11
g12
(dtRp2111
sg14
g1
(g11
g12
(dtRp2112
sg16
g1
(g11
g12
(dtRp2113
sg18
g1
(g11
g12
(dtRp2114
sg20
g1
(g11
g12
(dtRp2115
sg22
g1
(g11
g12
(dtRp2116
sbsg24
g25
sg26
g27
((lp2117
g33
ag32
ag29
ag30
atRp2118
sg37
(lp2119
g1
(g2
g3
NtRp2120
(dp2121
g6
g1
(g7
g3
NtRp2122
(dp2123
g10
g1
(g11
g12
(dtRp2124
sg14
g1
(g11
g12
(dtRp2125
sg16
g1
(g11
g12
(dtRp2126
sg18
g1
(g11
g12
(dtRp2127
sg20
g1
(g11
g12
(dtRp2128
sg22
g1
(g11
g12
(dtRp2129
sbsg24
S'Cgi'
p2130
sg26
g27
((lp2131
g29
ag30
aS'sequence'
p2132
ag32
ag33
aS'species'
p2133
atRp2134
sg37
(lp2135
sg120
g2107
sg121
S'RWLSTKDLYSRLELAGLNQNVHAMFVMPLGFGNPMGDMFARLNNSFWLPPLSLEGAGTGWTVYPPLSHSGPSVDMAFHLTSSLLGAINFTNMRGPLFWTALLLLSLPVLAATLLDRNFNTFEGGDPLYHAFWFFGHPEVYIIPGFGSHSTYKKFGMYASIGLGFVWSHHMYVGLDDRAYFTSATMIAPTGIKFSWLATYGGRPMLAFLFLFTGGTGVLNASDAFHDTYYVVHFHYVLSMGAFSLGYYYWPGLYNLYWFNFPMHFLGGMPRRPYPDAGWNSGSSYQLGPDESNEPH'
p2136
sg123
F0.22796
sg124
g125
sg33
S'172'
p2137
sg127
g1
(g128
g12
(dp2138
g130
I4
sg131
g132
sg133
g134
sg135
g132
sg136
I01
sg34
g137
sg138
g134
sg139
I0
sg140
I0
sg141
I0
sg142
g134
sg35
g143
sg144
I0
stRp2139
sg146
g147
sg148
F1
sg149
Nsg30
S'CgigaA'
p2140
sbag1
(g2
g3
NtRp2141
(dp2142
g6
g1
(g7
g3
NtRp2143
(dp2144
g10
g1
(g11
g12
(dtRp2145
sg14
g1
(g11
g12
(dtRp2146
sg16
g1
(g11
g12
(dtRp2147
sg18
g1
(g11
g12
(dtRp2148
sg20
g1
(g11
g12
(dtRp2149
sg22
g1
(g11
g12
(dtRp2150
sbsg24
S'Cbu'
p2151
sg26
g27
((lp2152
g29
ag30
aS'sequence'
p2153
ag32
ag33
aS'species'
p2154
atRp2155
sg37
(lp2156
sg120
g2107
sg121
S'RWLSTKDLYSRLELAGLNQNVHAMFVMPLGFGNPMGDMFARLNNSFWLPPLSLEGAGTGWTVYPPLSHSGPSVDLAFHLTSSLLGAINFTNMRGPLFWTALLLLSLPVLAGTLLDRNFNTFEGGDPLYHLFWFFGHPEVYIIPGFGSHGTYKKFGMYASIGLGFVWSHHMFVGLDDRAYFTSATMIAPTGIKFSWLATYGGRPMLAFLFLFTGGTGVLNASDAFHDTYYVVHFHYVLSMGAFSLAYYYWPGLYNLFWFNFPMHFLGGMPRRPYPDAGWNSGSSYQLGPDESNEPH'
p2157
sg123
F0.26118000000000002
sg124
g125
sg33
S'197'
p2158
sg127
g1
(g128
g12
(dp2159
g130
I4
sg131
g132
sg133
g134
sg135
g132
sg136
I01
sg34
g137
sg138
g134
sg139
I0
sg140
I0
sg141
I0
sg142
g134
sg35
g143
sg144
I0
stRp2160
sg146
g147
sg148
F1
sg149
Nsg30
S'CbuenA'
p2161
sbasg120
g2094
sg123
F0.037260000000000001
sg124
g125
sg33
S'139'
p2162
sg127
g1
(g128
g12
(dp2163
g130
I6
sg131
g132
sg133
g134
sg135
g132
sg136
I01
sg34
g174
sg138
g134
sg139
I0
sg140
I0
sg141
I0
sg142
g134
sg35
g175
sg144
I0
stRp2164
sg146
g147
sg148
F0.98999999999999999
sg149
Nsg30
S'NoName'
p2165
sbag1
(g2
g3
NtRp2166
(dp2167
g6
g1
(g7
g3
NtRp2168
(dp2169
g10
g1
(g11
g12
(dtRp2170
sg14
g1
(g11
g12
(dtRp2171
sg16
g1
(g11
g12
(dtRp2172
sg18
g1
(g11
g12
(dtRp2173
sg20
g1
(g11
g12
(dtRp2174
sg22
g1
(g11
g12
(dtRp2175
sbsg24
g25
sg26
g27
((lp2176
g33
ag32
ag29
ag30
atRp2177
sg37
(lp2178
g1
(g2
g3
NtRp2179
(dp2180
g6
g1
(g7
g3
NtRp2181
(dp2182
g10
g1
(g11
g12
(dtRp2183
sg14
g1
(g11
g12
(dtRp2184
sg16
g1
(g11
g12
(dtRp2185
sg18
g1
(g11
g12
(dtRp2186
sg20
g1
(g11
g12
(dtRp2187
sg22
g1
(g11
g12
(dtRp2188
sbsg24
S'Cdu'
p2189
sg26
g27
((lp2190
g29
ag30
aS'sequence'
p2191
ag32
ag33
aS'species'
p2192
atRp2193
sg37
(lp2194
sg120
g2166
sg121
S'RWLSTKDLYSRLELPGLNQNVHAMFVMPLGFGNPMGDMFARLNNSFWLPPLSLEGAGTGWTVYPPLSHSGPSVDLAFHLTSSLLGAINFTNMRGPLYWTALLLLSLPVLAGTLLDRNFNTFEGGDPLYHLFWFFGHPEVYIIPGFGSHSTYKKFGMYASIGLGFVWSHHMYVGLDDRAYFTSATMIAPTGIKFSWLATYGGRPMLAFLFLFTGGTGVLNASDAFHDTYYVVHFHYVLSMGAFSLGYYYWPGLYNLYWFNFPMHFLGGMPRRPYPDAGWNSGSSYQLGPDESNEPH'
p2195
sg123
F0.025069999999999999
sg124
g125
sg33
S'217'
p2196
sg127
g1
(g128
g12
(dp2197
g130
I4
sg131
g132
sg133
g134
sg135
g132
sg136
I01
sg34
g137
sg138
g134
sg139
I0
sg140
I0
sg141
I0
sg142
g134
sg35
g143
sg144
I0
stRp2198
sg146
g147
sg148
F1
sg149
Nsg30
S'CdublA'
p2199
sbag1
(g2
g3
NtRp2200
(dp2201
g6
g1
(g7
g3
NtRp2202
(dp2203
g10
g1
(g11
g12
(dtRp2204
sg14
g1
(g11
g12
(dtRp2205
sg16
g1
(g11
g12
(dtRp2206
sg18
g1
(g11
g12
(dtRp2207
sg20
g1
(g11
g12
(dtRp2208
sg22
g1
(g11
g12
(dtRp2209
sbsg24
g25
sg26
g27
((lp2210
g33
ag32
ag29
ag30
atRp2211
sg37
(lp2212
g1
(g2
g3
NtRp2213
(dp2214
g6
g1
(g7
g3
NtRp2215
(dp2216
g10
g1
(g11
g12
(dtRp2217
sg14
g1
(g11
g12
(dtRp2218
sg16
g1
(g11
g12
(dtRp2219
sg18
g1
(g11
g12
(dtRp2220
sg20
g1
(g11
g12
(dtRp2221
sg22
g1
(g11
g12
(dtRp2222
sbsg24
g25
sg26
g27
((lp2223
g33
ag32
ag29
ag30
atRp2224
sg37
(lp2225
g1
(g2
g3
NtRp2226
(dp2227
g6
g1
(g7
g3
NtRp2228
(dp2229
g10
g1
(g11
g12
(dtRp2230
sg14
g1
(g11
g12
(dtRp2231
sg16
g1
(g11
g12
(dtRp2232
sg18
g1
(g11
g12
(dtRp2233
sg20
g1
(g11
g12
(dtRp2234
sg22
g1
(g11
g12
(dtRp2235
sbsg24
g25
sg26
g27
((lp2236
g33
ag32
ag29
ag30
atRp2237
sg37
(lp2238
g1
(g2
g3
NtRp2239
(dp2240
g6
g1
(g7
g3
NtRp2241
(dp2242
g10
g1
(g11
g12
(dtRp2243
sg14
g1
(g11
g12
(dtRp2244
sg16
g1
(g11
g12
(dtRp2245
sg18
g1
(g11
g12
(dtRp2246
sg20
g1
(g11
g12
(dtRp2247
sg22
g1
(g11
g12
(dtRp2248
sbsg24
g25
sg26
g27
((lp2249
g33
ag32
ag29
ag30
atRp2250
sg37
(lp2251
g1
(g2
g3
NtRp2252
(dp2253
g6
g1
(g7
g3
NtRp2254
(dp2255
g10
g1
(g11
g12
(dtRp2256
sg14
g1
(g11
g12
(dtRp2257
sg16
g1
(g11
g12
(dtRp2258
sg18
g1
(g11
g12
(dtRp2259
sg20
g1
(g11
g12
(dtRp2260
sg22
g1
(g11
g12
(dtRp2261
sbsg24
S'Cal'
p2262
sg26
g27
((lp2263
g29
ag30
aS'sequence'
p2264
ag32
ag33
aS'species'
p2265
atRp2266
sg37
(lp2267
sg120
g2239
sg121
S'RWLSTKDLYSRLELPGLNQNVHAMFVMPLGFGNPMGDMFARLNNSFWLPPLSLEGAGTGWTVYPPLSHSGPSVDLAFHLTSSLLGAINFTNMRGPLFWTALLLLSLPVLAGTLLDRNFNTFEGGDPLYHLFWFFGHPEVYIIPGFGSHSTYKKFGMYASIGLGFVWSHHMYVGLDDRAYFTSATMIAPTGIKFSWLATYGGRPMLAFLFLFTGGTGVLNASDAFHDTYYVVHFHYVLSMGAFSLGYYYWPGLYNLYWFNFPMHFLGGMPRRPYPDAGWNSGSSYQLGPDESNEPH'
p2268
sg123
F0.00025000000000000001
sg124
g125
sg33
S'148'
p2269
sg127
g1
(g128
g12
(dp2270
g130
I4
sg131
g132
sg133
g134
sg135
g132
sg136
I01
sg34
g137
sg138
g134
sg139
I0
sg140
I0
sg141
I0
sg142
g134
sg35
g143
sg144
I0
stRp2271
sg146
g147
sg148
F1
sg149
Nsg30
S'CalbiE'
p2272
sbag1
(g2
g3
NtRp2273
(dp2274
g6
g1
(g7
g3
NtRp2275
(dp2276
g10
g1
(g11
g12
(dtRp2277
sg14
g1
(g11
g12
(dtRp2278
sg16
g1
(g11
g12
(dtRp2279
sg18
g1
(g11
g12
(dtRp2280
sg20
g1
(g11
g12
(dtRp2281
sg22
g1
(g11
g12
(dtRp2282
sbsg24
S'Cal'
p2283
sg26
g27
((lp2284
g29
ag30
aS'sequence'
p2285
ag32
ag33
aS'species'
p2286
atRp2287
sg37
(lp2288
sg120
g2239
sg121
S'RWLSTKDLYSRLELPGLNQNVHAMFVMPLGFGNPMGDMFARLNNSFWLPPLSLEGAGTGWTVYPPLSHSGPSVDLAFHLTSSLLGAINFTNMRGPLFWTALLLLSLPVLAGTLLDRNFNTFEGGDPLYHLFWFFGHPEVYIIPGFGSHSTYKKFGMYASIGLGFVWSHHMYVGLDDRAYFTSATMIAPTGIKFSWLATYGGRPMLAFLFLFTGGTGVLNASDAFHDTYYVVHFHYVLSMGAFSLGYYYWPGLYNLYWFNFPMHFLGGMPRRPYPDAGWNSGSSYQLGPDESNEPH'
p2289
sg123
F0.00050000000000000001
sg124
g125
sg33
S'52'
p2290
sg127
g1
(g128
g12
(dp2291
g130
I4
sg131
g132
sg133
g134
sg135
g132
sg136
I01
sg34
g137
sg138
g134
sg139
I0
sg140
I0
sg141
I0
sg142
g134
sg35
g143
sg144
I0
stRp2292
sg146
g147
sg148
F1
sg149
Nsg30
S'CalbiD'
p2293
sbasg120
g2226
sg123
F0.00051999999999999995
sg124
g125
sg33
S'150'
p2294
sg127
g1
(g128
g12
(dp2295
g130
I6
sg131
g132
sg133
g134
sg135
g132
sg136
I01
sg34
g174
sg138
g134
sg139
I0
sg140
I0
sg141
I0
sg142
g134
sg35
g175
sg144
I0
stRp2296
sg146
g147
sg148
F0.73999999999999999
sg149
Nsg30
S'NoName'
p2297
sbag1
(g2
g3
NtRp2298
(dp2299
g6
g1
(g7
g3
NtRp2300
(dp2301
g10
g1
(g11
g12
(dtRp2302
sg14
g1
(g11
g12
(dtRp2303
sg16
g1
(g11
g12
(dtRp2304
sg18
g1
(g11
g12
(dtRp2305
sg20
g1
(g11
g12
(dtRp2306
sg22
g1
(g11
g12
(dtRp2307
sbsg24
S'Cal'
p2308
sg26
g27
((lp2309
g29
ag30
aS'sequence'
p2310
ag32
ag33
aS'species'
p2311
atRp2312
sg37
(lp2313
sg120
g2226
sg121
S'RWLSTKDLYSRLELPGLNQNVHAMFVMPLGFGNPMGDMFARLNNSFWLPPLSLEGAGTGWTVYPPLSHSGPSVDLAFHLTSSLLGAINFTNMRGPLFWTALLLLSLPVLAGTLLDRNFNTFEGGDPLYHLFWFFGHPEVYIIPGFGSHSTYKKFGMYASIGLGFVWSHHMYVGLDDRAYFTSATMIAPTGIKFSWLATYGGRPMLAFLFLFTGGTGVLNASDAFHDTYYVVHFHYVLSMGAFSLGYYYWPGLYNLYWFNFPMHFLGGMPRRPYPDAGWNSGSSYQLGPDESNEPH'
p2314
sg123
F0.00012
sg124
g125
sg33
S'97'
p2315
sg127
g1
(g128
g12
(dp2316
g130
I4
sg131
g132
sg133
g134
sg135
g132
sg136
I01
sg34
g137
sg138
g134
sg139
I0
sg140
I0
sg141
I0
sg142
g134
sg35
g143
sg144
I0
stRp2317
sg146
g147
sg148
F1
sg149
Nsg30
S'CalbiC'
p2318
sbasg120
g2213
sg123
F1.0000000000000001e-05
sg124
g125
sg33
S'60'
p2319
sg127
g1
(g128
g12
(dp2320
g130
I6
sg131
g132
sg133
g134
sg135
g132
sg136
I01
sg34
g174
sg138
g134
sg139
I0
sg140
I0
sg141
I0
sg142
g134
sg35
g175
sg144
I0
stRp2321
sg146
g147
sg148
F1
sg149
Nsg30
S'NoName'
p2322
sbag1
(g2
g3
NtRp2323
(dp2324
g6
g1
(g7
g3
NtRp2325
(dp2326
g10
g1
(g11
g12
(dtRp2327
sg14
g1
(g11
g12
(dtRp2328
sg16
g1
(g11
g12
(dtRp2329
sg18
g1
(g11
g12
(dtRp2330
sg20
g1
(g11
g12
(dtRp2331
sg22
g1
(g11
g12
(dtRp2332
sbsg24
S'Cal'
p2333
sg26
g27
((lp2334
g29
ag30
aS'sequence'
p2335
ag32
ag33
aS'species'
p2336
atRp2337
sg37
(lp2338
sg120
g2213
sg121
S'RWLSTKDLYSRLELPGLNQNVHAMFVMPLGFGNPMGDMFARLNNSFWLPPLSLEGAGTGWTVYPPLSHSGPSVDLAFHLTSSLLGAINFTNMRGPLFWTALLLLSLPVLAGTLLDRNFNTFEGGDPLYHLFWFFGHPEVYIIPGFGSHSTYKKFGMYASIGLGFVWSHHMYVGLDDRAYFTSATMIAPTGIKFSWLATYGGRPMLAFLFLFTGGTGVLNASDAFHDTYYVVHFHYVLSMGAFSLGYYYWPGLYNLYWFNFPMHFLGGMPRRPYPDAGWNSGSSYQLGPDESNEPH'
p2339
sg123
F0.00016000000000000001
sg124
g125
sg33
S'71'
p2340
sg127
g1
(g128
g12
(dp2341
g130
I4
sg131
g132
sg133
g134
sg135
g132
sg136
I01
sg34
g137
sg138
g134
sg139
I0
sg140
I0
sg141
I0
sg142
g134
sg35
g143
sg144
I0
stRp2342
sg146
g147
sg148
F1
sg149
Nsg30
S'CalbiB'
p2343
sbasg120
g2200
sg123
F1.0000000000000001e-05
sg124
g125
sg33
S'8'
sg127
g1
(g128
g12
(dp2344
g130
I6
sg131
g132
sg133
g134
sg135
g132
sg136
I01
sg34
g174
sg138
g134
sg139
I0
sg140
I0
sg141
I0
sg142
g134
sg35
g175
sg144
I0
stRp2345
sg146
g147
sg148
F1
sg149
Nsg30
S'NoName'
p2346
sbag1
(g2
g3
NtRp2347
(dp2348
g6
g1
(g7
g3
NtRp2349
(dp2350
g10
g1
(g11
g12
(dtRp2351
sg14
g1
(g11
g12
(dtRp2352
sg16
g1
(g11
g12
(dtRp2353
sg18
g1
(g11
g12
(dtRp2354
sg20
g1
(g11
g12
(dtRp2355
sg22
g1
(g11
g12
(dtRp2356
sbsg24
S'Cal'
p2357
sg26
g27
((lp2358
g29
ag30
aS'sequence'
p2359
ag32
ag33
aS'species'
p2360
atRp2361
sg37
(lp2362
sg120
g2200
sg121
S'RWLSTKDLYSRLELPGLNQNVHAMFVMPLGFGNPMGDMFARLNNSFWLPPLSLEGAGTGWTVYPPLSHSGPSVDLAFHLTSSLLGAINFTNMRGPLFWTALLLLSLPVLAGTLLDRNFNTFEGGDPLYHLFWFFGHPEVYIIPGFGSHSTYKKFGMYASIGLGFVWSHHMYVGLDDRAYFTSATMIAPTGIKFSWLATYGGRPMLAFLFLFTGGTGVLNASDAFHDTYYVVHFHYVLSMGAFSLGYYYWPGLYNLYWFNFPMHFLGGMPRRPYPDAGWNSGSSYQLGPDESNEPH'
p2363
sg123
F0.00013999999999999999
sg124
g125
sg33
S'79'
p2364
sg127
g1
(g128
g12
(dp2365
g130
I4
sg131
g132
sg133
g134
sg135
g132
sg136
I01
sg34
g137
sg138
g134
sg139
I0
sg140
I0
sg141
I0
sg142
g134
sg35
g143
sg144
I0
stRp2366
sg146
g147
sg148
F1
sg149
Nsg30
S'CalbiA'
p2367
sbasg120
g2166
sg123
F0.014959999999999999
sg124
g125
sg33
S'207'
p2368
sg127
g1
(g128
g12
(dp2369
g130
I6
sg131
g132
sg133
g134
sg135
g132
sg136
I01
sg34
g174
sg138
g134
sg139
I0
sg140
I0
sg141
I0
sg142
g134
sg35
g175
sg144
I0
stRp2370
sg146
g147
sg148
F0.98999999999999999
sg149
Nsg30
S'NoName'
p2371
sbasg120
g2094
sg123
F0.05287
sg124
g125
sg33
S'213'
p2372
sg127
g1
(g128
g12
(dp2373
g130
I6
sg131
g132
sg133
g134
sg135
g132
sg136
I01
sg34
g174
sg138
g134
sg139
I0
sg140
I0
sg141
I0
sg142
g134
sg35
g175
sg144
I0
stRp2374
sg146
g147
sg148
F0.98999999999999999
sg149
Nsg30
S'NoName'
p2375
sbasg120
g1718
sg123
F0.037499999999999999
sg124
g125
sg33
S'128'
p2376
sg127
g1
(g128
g12
(dp2377
g130
I6
sg131
g132
sg133
g134
sg135
g132
sg136
I01
sg34
g174
sg138
g134
sg139
I0
sg140
I0
sg141
I0
sg142
g134
sg35
g175
sg144
I0
stRp2378
sg146
g147
sg148
F0.98999999999999999
sg149
Nsg30
S'NoName'
p2379
sbasg120
g1000
sg123
F0.10766000000000001
sg124
g125
sg33
S'85'
p2380
sg127
g1
(g128
g12
(dp2381
g130
I6
sg131
g132
sg133
g134
sg135
g132
sg136
I01
sg34
g174
sg138
g134
sg139
I0
sg140
I0
sg141
I0
sg142
g134
sg35
g175
sg144
I0
stRp2382
sg146
g147
sg148
F0.98999999999999999
sg149
Nsg30
S'NoName'
p2383
sbasg120
g966
sg123
F0.093560000000000004
sg124
g125
sg33
S'145'
p2384
sg127
g1
(g128
g12
(dp2385
g130
I6
sg131
g132
sg133
g134
sg135
g132
sg136
I01
sg34
g174
sg138
g134
sg139
I0
sg140
I0
sg141
I0
sg142
g134
sg35
g175
sg144
I0
stRp2386
sg146
g147
sg148
F0.97999999999999998
sg149
Nsg30
S'NoName'
p2387
sbasg120
g953
sg123
F0.036760000000000001
sg124
g125
sg33
S'216'
p2388
sg127
g1
(g128
g12
(dp2389
g130
I6
sg131
g132
sg133
g134
sg135
g132
sg136
I01
sg34
g174
sg138
g134
sg139
I0
sg140
I0
sg141
I0
sg142
g134
sg35
g175
sg144
I0
stRp2390
sg146
g147
sg148
F0.97999999999999998
sg149
Nsg30
S'NoName'
p2391
sbag1
(g2
g3
NtRp2392
(dp2393
g6
g1
(g7
g3
NtRp2394
(dp2395
g10
g1
(g11
g12
(dtRp2396
sg14
g1
(g11
g12
(dtRp2397
sg16
g1
(g11
g12
(dtRp2398
sg18
g1
(g11
g12
(dtRp2399
sg20
g1
(g11
g12
(dtRp2400
sg22
g1
(g11
g12
(dtRp2401
sbsg24
g25
sg26
g27
((lp2402
g33
ag32
ag29
ag30
atRp2403
sg37
(lp2404
g1
(g2
g3
NtRp2405
(dp2406
g6
g1
(g7
g3
NtRp2407
(dp2408
g10
g1
(g11
g12
(dtRp2409
sg14
g1
(g11
g12
(dtRp2410
sg16
g1
(g11
g12
(dtRp2411
sg18
g1
(g11
g12
(dtRp2412
sg20
g1
(g11
g12
(dtRp2413
sg22
g1
(g11
g12
(dtRp2414
sbsg24
g25
sg26
g27
((lp2415
g33
ag32
ag29
ag30
atRp2416
sg37
(lp2417
g1
(g2
g3
NtRp2418
(dp2419
g6
g1
(g7
g3
NtRp2420
(dp2421
g10
g1
(g11
g12
(dtRp2422
sg14
g1
(g11
g12
(dtRp2423
sg16
g1
(g11
g12
(dtRp2424
sg18
g1
(g11
g12
(dtRp2425
sg20
g1
(g11
g12
(dtRp2426
sg22
g1
(g11
g12
(dtRp2427
sbsg24
S'Csu'
p2428
sg26
g27
((lp2429
g29
ag30
aS'sequence'
p2430
ag32
ag33
aS'species'
p2431
atRp2432
sg37
(lp2433
sg120
g2405
sg121
S'RWLSTKDLYSRMELPGLNQNVHAMFIMPLGLGNPLGDMFARLNNSFWLPPLSLEGAGTGWTVYPPLSHSGPSVDLAFHLTSSLLGAINFTNMRGPLYWTALLLLSLPVLAATLLDRNFNTFEGGDPLYHLFWFFGHPEVYIIPGFGSHSTYKKFGMYASIGLGFVWSHHMFVGLDDRAYFTSATMIAPTGVKFSWLATYGGRPMLAFLFLFTGGTGVINASDAFHDTYYIVHFHYVLSMGAFSLGFYYWPGLYNLFWFNFPMHFLGGMPRRPYPDAGWNSGSAYQLGPDESNEPH'
p2434
sg123
F0.00012999999999999999
sg124
g125
sg33
S'156'
p2435
sg127
g1
(g128
g12
(dp2436
g130
I4
sg131
g132
sg133
g134
sg135
g132
sg136
I01
sg34
g137
sg138
g134
sg139
I0
sg140
I0
sg141
I0
sg142
g134
sg35
g143
sg144
I0
stRp2437
sg146
g147
sg148
F1
sg149
Nsg30
S'CsubhB'
p2438
sbag1
(g2
g3
NtRp2439
(dp2440
g6
g1
(g7
g3
NtRp2441
(dp2442
g10
g1
(g11
g12
(dtRp2443
sg14
g1
(g11
g12
(dtRp2444
sg16
g1
(g11
g12
(dtRp2445
sg18
g1
(g11
g12
(dtRp2446
sg20
g1
(g11
g12
(dtRp2447
sg22
g1
(g11
g12
(dtRp2448
sbsg24
S'Csu'
p2449
sg26
g27
((lp2450
g29
ag30
aS'sequence'
p2451
ag32
ag33
aS'species'
p2452
atRp2453
sg37
(lp2454
sg120
g2405
sg121
S'RWLSTKDLYSRMELPGLNQNVHAMFIMPLGLGNPLGDMFARLNNSFWLPPLSLEGAGTGWTVYPPLSHSGPSVDLAFHLTSSLLGAINFTNMRGPLYWTALLLLSLPVLAATLLDRNFNTFEGGDPLYHLFWFFGHPEVYIIPGFGSHSTYKKFGMYASIGLGFVWSHHMFVGLDDRAYFTSATMIAPTGVKFSWLATYGGRPMLAFLFLFTGGTGVINASDAFHDTYYIVHFHYVLSMGAFSLGFYYWPGLYNLFWFNFPMHFLGGMPRRPYPDAGWNSGSAYQLGPDESNEPH'
p2455
sg123
F0.00013999999999999999
sg124
g125
sg33
S'58'
p2456
sg127
g1
(g128
g12
(dp2457
g130
I4
sg131
g132
sg133
g134
sg135
g132
sg136
I01
sg34
g137
sg138
g134
sg139
I0
sg140
I0
sg141
I0
sg142
g134
sg35
g143
sg144
I0
stRp2458
sg146
g147
sg148
F1
sg149
Nsg30
S'CsubhA'
p2459
sbasg120
g2392
sg123
F0.59348999999999996
sg124
g125
sg33
S'88'
p2460
sg127
g1
(g128
g12
(dp2461
g130
I6
sg131
g132
sg133
g134
sg135
g132
sg136
I01
sg34
g174
sg138
g134
sg139
I0
sg140
I0
sg141
I0
sg142
g134
sg35
g175
sg144
I0
stRp2462
sg146
g147
sg148
F1
sg149
Nsg30
S'NoName'
p2463
sbag1
(g2
g3
NtRp2464
(dp2465
g6
g1
(g7
g3
NtRp2466
(dp2467
g10
g1
(g11
g12
(dtRp2468
sg14
g1
(g11
g12
(dtRp2469
sg16
g1
(g11
g12
(dtRp2470
sg18
g1
(g11
g12
(dtRp2471
sg20
g1
(g11
g12
(dtRp2472
sg22
g1
(g11
g12
(dtRp2473
sbsg24
S'Cal'
p2474
sg26
g27
((lp2475
g29
ag30
aS'sequence'
p2476
ag32
ag33
aS'species'
p2477
atRp2478
sg37
(lp2479
sg120
g2392
sg121
S'RWLSTKDLYSRMELPGLNQNVHAMFVMPLGFGNPLGDMFARLNNSFWLPPLSLDGPGTGWTVYPPLSHSGASVDFAFHLTSSLLGAINFTNMRGPLFWTALLLLSLPVLVATLLDRNFNTFEGGDPLYHLFWFFGHPEVYMIPGFGSHSTYKKFGMYASIGLGFVWSHHMFVGLDDRAYFTSATMMAPTGIKFSWMATYGGYPMLAFLFLFTGGTGVINASDAFHDTYYIVHFHYVLSMGAFSLGYYYWPGLYNLFWFNFPMHFLGGMPRRPYPDAGWNSGSAYQLGPDESNEPH'
p2480
sg123
F0.40044000000000002
sg124
g125
sg33
S'224'
p2481
sg127
g1
(g128
g12
(dp2482
g130
I4
sg131
g132
sg133
g134
sg135
g132
sg136
I01
sg34
g137
sg138
g134
sg139
I0
sg140
I0
sg141
I0
sg142
g134
sg35
g143
sg144
I0
stRp2483
sg146
g147
sg148
F1
sg149
Nsg30
S'CalaiA'
p2484
sbasg120
g953
sg123
F0.080810000000000007
sg124
g125
sg33
S'18'
p2485
sg127
g1
(g128
g12
(dp2486
g130
I6
sg131
g132
sg133
g134
sg135
g132
sg136
I01
sg34
g174
sg138
g134
sg139
I0
sg140
I0
sg141
I0
sg142
g134
sg35
g175
sg144
I0
stRp2487
sg146
g147
sg148
F0.98999999999999999
sg149
Nsg30
S'NoName'
p2488
sbasg120
g691
sg123
F0.075389999999999999
sg124
g125
sg33
S'137'
p2489
sg127
g1
(g128
g12
(dp2490
g130
I6
sg131
g132
sg133
g134
sg135
g132
sg136
I01
sg34
g174
sg138
g134
sg139
I0
sg140
I0
sg141
I0
sg142
g134
sg35
g175
sg144
I0
stRp2491
sg146
g147
sg148
F0.94999999999999996
sg149
Nsg30
S'NoName'
p2492
sbasg120
g678
sg123
F1.2542500000000001
sg124
g125
sg33
S'200'
p2493
sg127
g1
(g128
g12
(dp2494
g130
I6
sg131
g132
sg133
g134
sg135
g132
sg136
I01
sg34
g174
sg138
g134
sg139
I0
sg140
I0
sg141
I0
sg142
g134
sg35
g175
sg144
I0
stRp2495
sg146
g147
sg148
F0.97999999999999998
sg149
Nsg30
S'NoName'
p2496
sbag1
(g2
g3
NtRp2497
(dp2498
g6
g1
(g7
g3
NtRp2499
(dp2500
g10
g1
(g11
g12
(dtRp2501
sg14
g1
(g11
g12
(dtRp2502
sg16
g1
(g11
g12
(dtRp2503
sg18
g1
(g11
g12
(dtRp2504
sg20
g1
(g11
g12
(dtRp2505
sg22
g1
(g11
g12
(dtRp2506
sbsg24
g25
sg26
g27
((lp2507
g33
ag32
ag29
ag30
atRp2508
sg37
(lp2509
g1
(g2
g3
NtRp2510
(dp2511
g6
g1
(g7
g3
NtRp2512
(dp2513
g10
g1
(g11
g12
(dtRp2514
sg14
g1
(g11
g12
(dtRp2515
sg16
g1
(g11
g12
(dtRp2516
sg18
g1
(g11
g12
(dtRp2517
sg20
g1
(g11
g12
(dtRp2518
sg22
g1
(g11
g12
(dtRp2519
sbsg24
g25
sg26
g27
((lp2520
g33
ag32
ag29
ag30
atRp2521
sg37
(lp2522
g1
(g2
g3
NtRp2523
(dp2524
g6
g1
(g7
g3
NtRp2525
(dp2526
g10
g1
(g11
g12
(dtRp2527
sg14
g1
(g11
g12
(dtRp2528
sg16
g1
(g11
g12
(dtRp2529
sg18
g1
(g11
g12
(dtRp2530
sg20
g1
(g11
g12
(dtRp2531
sg22
g1
(g11
g12
(dtRp2532
sbsg24
S'Ppa'
p2533
sg26
g27
((lp2534
g29
ag30
aS'sequence'
p2535
ag32
ag33
aS'species'
p2536
atRp2537
sg37
(lp2538
sg120
g2510
sg121
S'RWLSTKDLYSRLELPGLNQNVHAMFVMPAGFGNPMGDMFARLNNSFWLPPLSLEGAGTGWTVYPPLAHSGPSVDLAFHLTSSLLGAMNFTNMRGPLFWTSLLLLSLPVLAGTLLDRNFNTFEGGDPLYHLFWFFGHPEVYIMPGFGSHSTYKKFGMYASIGLGLVWSHHMYVGLDDRAYFTSATMMAPTGMKFSWLATYGGRPMLAFLFLFTGGSGVLNASDAFHDTYYVIHFHYVLSLGAFSLGYYYWPGLYNLFWFNFPMHFLGGMPRRPYPDAGWNSGSSYQLGPDESNDPH'
p2539
sg123
F0.16184999999999999
sg124
g125
sg33
S'50'
p2540
sg127
g1
(g128
g12
(dp2541
g130
I4
sg131
g132
sg133
g134
sg135
g132
sg136
I01
sg34
g137
sg138
g134
sg139
I0
sg140
I0
sg141
I0
sg142
g134
sg35
g143
sg144
I0
stRp2542
sg146
g147
sg148
F1
sg149
Nsg30
S'PpastA'
p2543
sbag1
(g2
g3
NtRp2544
(dp2545
g6
g1
(g7
g3
NtRp2546
(dp2547
g10
g1
(g11
g12
(dtRp2548
sg14
g1
(g11
g12
(dtRp2549
sg16
g1
(g11
g12
(dtRp2550
sg18
g1
(g11
g12
(dtRp2551
sg20
g1
(g11
g12
(dtRp2552
sg22
g1
(g11
g12
(dtRp2553
sbsg24
g25
sg26
g27
((lp2554
g33
ag32
ag29
ag30
atRp2555
sg37
(lp2556
g1
(g2
g3
NtRp2557
(dp2558
g6
g1
(g7
g3
NtRp2559
(dp2560
g10
g1
(g11
g12
(dtRp2561
sg14
g1
(g11
g12
(dtRp2562
sg16
g1
(g11
g12
(dtRp2563
sg18
g1
(g11
g12
(dtRp2564
sg20
g1
(g11
g12
(dtRp2565
sg22
g1
(g11
g12
(dtRp2566
sbsg24
S'Pta'
p2567
sg26
g27
((lp2568
g29
ag30
aS'sequence'
p2569
ag32
ag33
aS'species'
p2570
atRp2571
sg37
(lp2572
sg120
g2544
sg121
S'RWLSTKDLYSRLELPGLNQNVHAMFVMPAGFGNPMGDMFARLNNSFWLPPLSLEGAGTGWTVYPPLSHSGPSVDLAFHLTSSLLGGMNFTNMRGPLFWTSLLVLTLPVLAGTLLDRNFNTFEGGDPLYHLFWFFGHPEVYIIPGFGSHSAYKKFGMYASIGLGLVWSHHMYVGLDDRAYFTSATMIAPTGIKFSWLATYGGRPMLAFLFLFTGGSGVLNASDAFHDTYYVMHFHYVLSLGAFSLGYYYWPGLYNLFWFNFPMHFLGGMPRRPYPDAGFNSGSSYQLGPDESNEPH'
p2573
sg123
F0.23080999999999999
sg124
g125
sg33
S'53'
p2574
sg127
g1
(g128
g12
(dp2575
g130
I4
sg131
g132
sg133
g134
sg135
g132
sg136
I01
sg34
g137
sg138
g134
sg139
I0
sg140
I0
sg141
I0
sg142
g134
sg35
g143
sg144
I0
stRp2576
sg146
g147
sg148
F1
sg149
Nsg30
S'PtannA'
p2577
sbag1
(g2
g3
NtRp2578
(dp2579
g6
g1
(g7
g3
NtRp2580
(dp2581
g10
g1
(g11
g12
(dtRp2582
sg14
g1
(g11
g12
(dtRp2583
sg16
g1
(g11
g12
(dtRp2584
sg18
g1
(g11
g12
(dtRp2585
sg20
g1
(g11
g12
(dtRp2586
sg22
g1
(g11
g12
(dtRp2587
sbsg24
g25
sg26
g27
((lp2588
g33
ag32
ag29
ag30
atRp2589
sg37
(lp2590
g1
(g2
g3
NtRp2591
(dp2592
g6
g1
(g7
g3
NtRp2593
(dp2594
g10
g1
(g11
g12
(dtRp2595
sg14
g1
(g11
g12
(dtRp2596
sg16
g1
(g11
g12
(dtRp2597
sg18
g1
(g11
g12
(dtRp2598
sg20
g1
(g11
g12
(dtRp2599
sg22
g1
(g11
g12
(dtRp2600
sbsg24
g25
sg26
g27
((lp2601
g33
ag32
ag29
ag30
atRp2602
sg37
(lp2603
g1
(g2
g3
NtRp2604
(dp2605
g6
g1
(g7
g3
NtRp2606
(dp2607
g10
g1
(g11
g12
(dtRp2608
sg14
g1
(g11
g12
(dtRp2609
sg16
g1
(g11
g12
(dtRp2610
sg18
g1
(g11
g12
(dtRp2611
sg20
g1
(g11
g12
(dtRp2612
sg22
g1
(g11
g12
(dtRp2613
sbsg24
S'Pkl'
p2614
sg26
g27
((lp2615
g29
ag30
aS'sequence'
p2616
ag32
ag33
aS'species'
p2617
atRp2618
sg37
(lp2619
sg120
g2591
sg121
S'RWLSTKDLYSRLELPGLNQNVHAMFMMPTGFGNPMGDMFARLNNSFWLPPLSLEGPGTGWTVYPPLSHSGPSVDLAFHLTSSLLGAMNFTNMRGPLFWTALLVMTLPVLAGTLLDRNFNTFEGGDPLYHLFWFFGHPEVYMMPGFGSHSTYKKFGMYASMGLGLVWSHHMYVGLDDRAYFTSATMMAPTGMKFSWLATYGGRPMLAFMFIFTGGSGVLNASDAFHDTYYVMHFHYVLSLGAFAMGYYYWPGLFNLFWFNFPMHFLGGMPRRPYPDAGFNSGASYQLGPDESNEPH'
p2620
sg123
F0.12625
sg124
g125
sg33
S'16'
p2621
sg127
g1
(g128
g12
(dp2622
g130
I4
sg131
g132
sg133
g134
sg135
g132
sg136
I01
sg34
g137
sg138
g134
sg139
I0
sg140
I0
sg141
I0
sg142
g134
sg35
g143
sg144
I0
stRp2623
sg146
g147
sg148
F1
sg149
Nsg30
S'PkluyA'
p2624
sbag1
(g2
g3
NtRp2625
(dp2626
g6
g1
(g7
g3
NtRp2627
(dp2628
g10
g1
(g11
g12
(dtRp2629
sg14
g1
(g11
g12
(dtRp2630
sg16
g1
(g11
g12
(dtRp2631
sg18
g1
(g11
g12
(dtRp2632
sg20
g1
(g11
g12
(dtRp2633
sg22
g1
(g11
g12
(dtRp2634
sbsg24
S'Bcu'
p2635
sg26
g27
((lp2636
g29
ag30
aS'sequence'
p2637
ag32
ag33
aS'species'
p2638
atRp2639
sg37
(lp2640
sg120
g2591
sg121
S'RWLSTKDLYSRLELPGLDQNVHSMFMMPTGFGNPMGDMFARLNNAFWYPPLSLEGPGTGWTVYPPLSHSGPSMDLAFHLTSSMLSSMNFTNMRGPLFWTALLMMTLPVLAGTLLDRNFNTFEGGDPLYHLYWFFGHPEVYIIPVFGSHSNYKKFGMYASMGLGLVWSHHMYVGLDDRAYFTSATMIAPTGIKFSWLATYGGRPMLAFLFMFTGGSGVLNASDAFHDTYFVVHFHYVLSLGVYGVGYYFWPGLYNMFWFNFPMHFLGGMPRRPYPDAGFNSGSAYQLGPDESNEPH'
p2641
sg123
F0.30854999999999999
sg124
g125
sg33
S'81'
p2642
sg127
g1
(g128
g12
(dp2643
g130
I4
sg131
g132
sg133
g134
sg135
g132
sg136
I01
sg34
g137
sg138
g134
sg139
I0
sg140
I0
sg141
I0
sg142
g134
sg35
g143
sg144
I0
stRp2644
sg146
g147
sg148
F1
sg149
Nsg30
S'BcustA'
p2645
sbasg120
g2578
sg123
F0.19120999999999999
sg124
g125
sg33
S'191'
p2646
sg127
g1
(g128
g12
(dp2647
g130
I6
sg131
g132
sg133
g134
sg135
g132
sg136
I01
sg34
g174
sg138
g134
sg139
I0
sg140
I0
sg141
I0
sg142
g134
sg35
g175
sg144
I0
stRp2648
sg146
g147
sg148
F0.98999999999999999
sg149
Nsg30
S'NoName'
p2649
sbag1
(g2
g3
NtRp2650
(dp2651
g6
g1
(g7
g3
NtRp2652
(dp2653
g10
g1
(g11
g12
(dtRp2654
sg14
g1
(g11
g12
(dtRp2655
sg16
g1
(g11
g12
(dtRp2656
sg18
g1
(g11
g12
(dtRp2657
sg20
g1
(g11
g12
(dtRp2658
sg22
g1
(g11
g12
(dtRp2659
sbsg24
S'Oan'
p2660
sg26
g27
((lp2661
g29
ag30
aS'sequence'
p2662
ag32
ag33
aS'species'
p2663
atRp2664
sg37
(lp2665
sg120
g2578
sg121
S'RWLSTKDLYSRLELPGLNQNAHAMFVMPAGFGNPMGDMFARLNNSFWLPPLSLEGAGTGWTVYPPLSHSGPSVDLAFHLTSSLLGAINFTNMRGPLFWTALLLLSLPVLAGTLLDRNFNTFEGGDPLYHLFWFFGHPEVYIIPGFGSHSTYKKFGMYASIGLGLVWSHHMYVGLDDRAYFTSATMIAPTGIKFSWIATYGGRPMLAFLFLFTGGSGVLNASDAFHDTYYVIHFHYVLSLGAFSLGYYYWPGLYNLFWFNFPMHFLGGMPRRPYPDAGYNSGSSYQLGPDESNEPH'
p2666
sg123
F0.025399999999999999
sg124
g125
sg33
S'89'
p2667
sg127
g1
(g128
g12
(dp2668
g130
I4
sg131
g132
sg133
g134
sg135
g132
sg136
I01
sg34
g137
sg138
g134
sg139
I0
sg140
I0
sg141
I0
sg142
g134
sg35
g143
sg144
I0
stRp2669
sg146
g147
sg148
F1
sg149
Nsg30
S'OanguA'
p2670
sbasg120
g2544
sg123
F0.33273999999999998
sg124
g125
sg33
S'98'
p2671
sg127
g1
(g128
g12
(dp2672
g130
I6
sg131
g132
sg133
g134
sg135
g132
sg136
I01
sg34
g174
sg138
g134
sg139
I0
sg140
I0
sg141
I0
sg142
g134
sg35
g175
sg144
I0
stRp2673
sg146
g147
sg148
F0.98999999999999999
sg149
Nsg30
S'NoName'
p2674
sbasg120
g2510
sg123
F0.054379999999999998
sg124
g125
sg33
S'115'
p2675
sg127
g1
(g128
g12
(dp2676
g130
I6
sg131
g132
sg133
g134
sg135
g132
sg136
I01
sg34
g174
sg138
g134
sg139
I0
sg140
I0
sg141
I0
sg142
g134
sg35
g175
sg144
I0
stRp2677
sg146
g147
sg148
F0.96999999999999997
sg149
Nsg30
S'NoName'
p2678
sbasg120
g2497
sg123
F0.76378000000000001
sg124
g125
sg33
S'43'
p2679
sg127
g1
(g128
g12
(dp2680
g130
I6
sg131
g132
sg133
g134
sg135
g132
sg136
I01
sg34
g174
sg138
g134
sg139
I0
sg140
I0
sg141
I0
sg142
g134
sg35
g175
sg144
I0
stRp2681
sg146
g147
sg148
F0.98999999999999999
sg149
Nsg30
S'NoName'
p2682
sbag1
(g2
g3
NtRp2683
(dp2684
g6
g1
(g7
g3
NtRp2685
(dp2686
g10
g1
(g11
g12
(dtRp2687
sg14
g1
(g11
g12
(dtRp2688
sg16
g1
(g11
g12
(dtRp2689
sg18
g1
(g11
g12
(dtRp2690
sg20
g1
(g11
g12
(dtRp2691
sg22
g1
(g11
g12
(dtRp2692
sbsg24
g25
sg26
g27
((lp2693
g33
ag32
ag29
ag30
atRp2694
sg37
(lp2695
g1
(g2
g3
NtRp2696
(dp2697
g6
g1
(g7
g3
NtRp2698
(dp2699
g10
g1
(g11
g12
(dtRp2700
sg14
g1
(g11
g12
(dtRp2701
sg16
g1
(g11
g12
(dtRp2702
sg18
g1
(g11
g12
(dtRp2703
sg20
g1
(g11
g12
(dtRp2704
sg22
g1
(g11
g12
(dtRp2705
sbsg24
g25
sg26
g27
((lp2706
g33
ag32
ag29
ag30
atRp2707
sg37
(lp2708
g1
(g2
g3
NtRp2709
(dp2710
g6
g1
(g7
g3
NtRp2711
(dp2712
g10
g1
(g11
g12
(dtRp2713
sg14
g1
(g11
g12
(dtRp2714
sg16
g1
(g11
g12
(dtRp2715
sg18
g1
(g11
g12
(dtRp2716
sg20
g1
(g11
g12
(dtRp2717
sg22
g1
(g11
g12
(dtRp2718
sbsg24
g25
sg26
g27
((lp2719
g33
ag32
ag29
ag30
atRp2720
sg37
(lp2721
g1
(g2
g3
NtRp2722
(dp2723
g6
g1
(g7
g3
NtRp2724
(dp2725
g10
g1
(g11
g12
(dtRp2726
sg14
g1
(g11
g12
(dtRp2727
sg16
g1
(g11
g12
(dtRp2728
sg18
g1
(g11
g12
(dtRp2729
sg20
g1
(g11
g12
(dtRp2730
sg22
g1
(g11
g12
(dtRp2731
sbsg24
g25
sg26
g27
((lp2732
g33
ag32
ag29
ag30
atRp2733
sg37
(lp2734
g1
(g2
g3
NtRp2735
(dp2736
g6
g1
(g7
g3
NtRp2737
(dp2738
g10
g1
(g11
g12
(dtRp2739
sg14
g1
(g11
g12
(dtRp2740
sg16
g1
(g11
g12
(dtRp2741
sg18
g1
(g11
g12
(dtRp2742
sg20
g1
(g11
g12
(dtRp2743
sg22
g1
(g11
g12
(dtRp2744
sbsg24
S'Cva'
p2745
sg26
g27
((lp2746
g29
ag30
aS'sequence'
p2747
ag32
ag33
aS'species'
p2748
atRp2749
sg37
(lp2750
sg120
g2722
sg121
S'RWLSTKDLYSRLELPGLNQNVHAMFVMPLGFGNPLGDMFARLNNSFWLPPLSLEGAGTGWTIYPPLSHSSPSVDLGFHLTSSLLGAINFTNMRGPLFWTAMLLLSLPVLAGTLLDRNFNTFEGGDPLYHLFWFFGHPEVYIIPGFGSHSTYKKFGMYASIALGFVWSHHMYVGLDDRAYFTSSTMIAPTGIKFSWLATYGGRPMLAFLFLFTGGTGVLNASDAFHDTYYVVHFHYVLSMGAFSLGYYYWPGLYNLFWFNFPMHFLGGMPRRPYPDAGWNSGSSYQLGPDESNEPH'
p2751
sg123
F0.043270000000000003
sg124
g125
sg33
S'159'
p2752
sg127
g1
(g128
g12
(dp2753
g130
I4
sg131
g132
sg133
g134
sg135
g132
sg136
I01
sg34
g137
sg138
g134
sg139
I0
sg140
I0
sg141
I0
sg142
g134
sg35
g143
sg144
I0
stRp2754
sg146
g147
sg148
F1
sg149
Nsg30
S'CvartA'
p2755
sbag1
(g2
g3
NtRp2756
(dp2757
g6
g1
(g7
g3
NtRp2758
(dp2759
g10
g1
(g11
g12
(dtRp2760
sg14
g1
(g11
g12
(dtRp2761
sg16
g1
(g11
g12
(dtRp2762
sg18
g1
(g11
g12
(dtRp2763
sg20
g1
(g11
g12
(dtRp2764
sg22
g1
(g11
g12
(dtRp2765
sbsg24
g25
sg26
g27
((lp2766
g33
ag32
ag29
ag30
atRp2767
sg37
(lp2768
g1
(g2
g3
NtRp2769
(dp2770
g6
g1
(g7
g3
NtRp2771
(dp2772
g10
g1
(g11
g12
(dtRp2773
sg14
g1
(g11
g12
(dtRp2774
sg16
g1
(g11
g12
(dtRp2775
sg18
g1
(g11
g12
(dtRp2776
sg20
g1
(g11
g12
(dtRp2777
sg22
g1
(g11
g12
(dtRp2778
sbsg24
S'Csu'
p2779
sg26
g27
((lp2780
g29
ag30
aS'sequence'
p2781
ag32
ag33
aS'species'
p2782
atRp2783
sg37
(lp2784
sg120
g2756
sg121
S'RWLSTKDLYSRLELPGLNQNVHAMFVMPLGFGNPLGDMFARLNNSFWLPPLSLEGAGTGWTIYPPLSHSSPSVDLGFHLTSSMLGAINFTNMRGPLFWTAMLLLSLPVLAGTLLDRNFNTFEGGDPLYHLFWFFGHPEVYIIPGFGSHSTYKKFGMYASIALGFVWSHHMYVGLDDRAYFTSSTMIAPTGIKFSWLATYGGRPMLAFLFLFTGGTGVLNASDAFHDSYYY-HFHYVLSMGAFSLGYYYWPGLYNLFWFNFPMHFLGGMPRRPYPDAGWNSGSSYQLGPDESNEPH'
p2785
sg123
F0.0043699999999999998
sg124
g125
sg33
S'17'
p2786
sg127
g1
(g128
g12
(dp2787
g130
I4
sg131
g132
sg133
g134
sg135
g132
sg136
I01
sg34
g137
sg138
g134
sg139
I0
sg140
I0
sg141
I0
sg142
g134
sg35
g143
sg144
I0
stRp2788
sg146
g147
sg148
F1
sg149
Nsg30
S'CsuavB'
p2789
sbag1
(g2
g3
NtRp2790
(dp2791
g6
g1
(g7
g3
NtRp2792
(dp2793
g10
g1
(g11
g12
(dtRp2794
sg14
g1
(g11
g12
(dtRp2795
sg16
g1
(g11
g12
(dtRp2796
sg18
g1
(g11
g12
(dtRp2797
sg20
g1
(g11
g12
(dtRp2798
sg22
g1
(g11
g12
(dtRp2799
sbsg24
S'Csu'
p2800
sg26
g27
((lp2801
g29
ag30
aS'sequence'
p2802
ag32
ag33
aS'species'
p2803
atRp2804
sg37
(lp2805
sg120
g2756
sg121
S'RWLSTKDLYSRLELPGLNQNVHAMFVMPLGFGNPLGDMFARLNNSFWLPPLSLEGAGTGWTIYPPLSHSSPSVDLGFHLTSSLLGAINFTNMRGPLFWTAMLLLSLPVLAGTLLDRNFNTFEGGDPLYHLFWFFGHPEVYIIPGFGSHSTYKKFGMYASIALGFVWSHHMYVGLDDRAYFTSSTMIAPTGIKFSWLATYGGRPMLAFLFLFTGGTGVLNASDAFHDTYYVVHFHYVLSMGAFSLGYYYWPGLYNLFWFNFPMHFLGGMPRRPYPDAGWNSGSSYQLGPDESNEPH'
p2806
sg123
F0.0025999999999999999
sg124
g125
sg33
S'11'
p2807
sg127
g1
(g128
g12
(dp2808
g130
I4
sg131
g132
sg133
g134
sg135
g132
sg136
I01
sg34
g137
sg138
g134
sg139
I0
sg140
I0
sg141
I0
sg142
g134
sg35
g143
sg144
I0
stRp2809
sg146
g147
sg148
F1
sg149
Nsg30
S'CsuavA'
p2810
sbasg120
g2722
sg123
F0.016740000000000001
sg124
g125
sg33
S'99'
p2811
sg127
g1
(g128
g12
(dp2812
g130
I6
sg131
g132
sg133
g134
sg135
g132
sg136
I01
sg34
g174
sg138
g134
sg139
I0
sg140
I0
sg141
I0
sg142
g134
sg35
g175
sg144
I0
stRp2813
sg146
g147
sg148
F0.98999999999999999
sg149
Nsg30
S'NoName'
p2814
sbasg120
g2709
sg123
F0.01158
sg124
g125
sg33
S'174'
p2815
sg127
g1
(g128
g12
(dp2816
g130
I6
sg131
g132
sg133
g134
sg135
g132
sg136
I01
sg34
g174
sg138
g134
sg139
I0
sg140
I0
sg141
I0
sg142
g134
sg35
g175
sg144
I0
stRp2817
sg146
g147
sg148
F0.97999999999999998
sg149
Nsg30
S'NoName'
p2818
sbag1
(g2
g3
NtRp2819
(dp2820
g6
g1
(g7
g3
NtRp2821
(dp2822
g10
g1
(g11
g12
(dtRp2823
sg14
g1
(g11
g12
(dtRp2824
sg16
g1
(g11
g12
(dtRp2825
sg18
g1
(g11
g12
(dtRp2826
sg20
g1
(g11
g12
(dtRp2827
sg22
g1
(g11
g12
(dtRp2828
sbsg24
S'Cja'
p2829
sg26
g27
((lp2830
g29
ag30
aS'sequence'
p2831
ag32
ag33
aS'species'
p2832
atRp2833
sg37
(lp2834
sg120
g2709
sg121
S'RWLSTKDLYSRLELPGLNQNVHAMFVMPLGFGNPLGDMFARLNNSFWLPPLSLEGAGTGWTIYPPLAHSSPSVDLGFHLTSSLLGAINFTNMRGPLFWTAMLLLSLPVLAGTLLDRNFNTFEGGDPLYHLFWFFGHPEVYIIPGFGSHSTYKKFGMYASIALGFVWSHHMYVGLDDRAYFTSSTMIAPTGIKFSWLATYGGRPMLAFLFLFTGGTGVLNASDAFHDTYYVVHFHYVLSMGAFSLGYYYWPGLYNLFWFNFPMHFLGGMPRRPYPDAGWNSGSSYQLGPDESNEPH'
p2835
sg123
F0.033799999999999997
sg124
g125
sg33
S'19'
p2836
sg127
g1
(g128
g12
(dp2837
g130
I4
sg131
g132
sg133
g134
sg135
g132
sg136
I01
sg34
g137
sg138
g134
sg139
I0
sg140
I0
sg141
I0
sg142
g134
sg35
g143
sg144
I0
stRp2838
sg146
g147
sg148
F1
sg149
Nsg30
S'CjadiA'
p2839
sbasg120
g2696
sg123
F0.10375
sg124
g125
sg33
S'51'
p2840
sg127
g1
(g128
g12
(dp2841
g130
I6
sg131
g132
sg133
g134
sg135
g132
sg136
I01
sg34
g174
sg138
g134
sg139
I0
sg140
I0
sg141
I0
sg142
g134
sg35
g175
sg144
I0
stRp2842
sg146
g147
sg148
F0.98999999999999999
sg149
Nsg30
S'NoName'
p2843
sbag1
(g2
g3
NtRp2844
(dp2845
g6
g1
(g7
g3
NtRp2846
(dp2847
g10
g1
(g11
g12
(dtRp2848
sg14
g1
(g11
g12
(dtRp2849
sg16
g1
(g11
g12
(dtRp2850
sg18
g1
(g11
g12
(dtRp2851
sg20
g1
(g11
g12
(dtRp2852
sg22
g1
(g11
g12
(dtRp2853
sbsg24
g25
sg26
g27
((lp2854
g33
ag32
ag29
ag30
atRp2855
sg37
(lp2856
g1
(g2
g3
NtRp2857
(dp2858
g6
g1
(g7
g3
NtRp2859
(dp2860
g10
g1
(g11
g12
(dtRp2861
sg14
g1
(g11
g12
(dtRp2862
sg16
g1
(g11
g12
(dtRp2863
sg18
g1
(g11
g12
(dtRp2864
sg20
g1
(g11
g12
(dtRp2865
sg22
g1
(g11
g12
(dtRp2866
sbsg24
g25
sg26
g27
((lp2867
g33
ag32
ag29
ag30
atRp2868
sg37
(lp2869
g1
(g2
g3
NtRp2870
(dp2871
g6
g1
(g7
g3
NtRp2872
(dp2873
g10
g1
(g11
g12
(dtRp2874
sg14
g1
(g11
g12
(dtRp2875
sg16
g1
(g11
g12
(dtRp2876
sg18
g1
(g11
g12
(dtRp2877
sg20
g1
(g11
g12
(dtRp2878
sg22
g1
(g11
g12
(dtRp2879
sbsg24
S'Wpi'
p2880
sg26
g27
((lp2881
g29
ag30
aS'sequence'
p2882
ag32
ag33
aS'species'
p2883
atRp2884
sg37
(lp2885
sg120
g2857
sg121
S'RWLSTKDLYSRLELPGLNQNVHAMFVMPLGFGNPLGDMFARLNNSFWLPPLSLEGAGTGWTIYPPLSHSSPSVDLGFHLTSSLLGAINFTNMRGPLFWTAMLLLSLPVLAGTLLDRNFNTFEGGDPLYHLFWFFGHPEVYIIPGFGSHSTYKKFGMYASIALGFVWSHHMYVGLDDRAYFTSSTMIAPTGIKFSWLATYGGRPMLAFLFLFTGGTGVLNASDAFHDTYYVVHFHYVLSMGAFSLGYYYWPGLYNLFWFNFPMHFLGGMPRRPYPDAGWNSGSSFQLGPDESNEPH'
p2886
sg123
F0.051209999999999999
sg124
g125
sg33
S'25'
p2887
sg127
g1
(g128
g12
(dp2888
g130
I4
sg131
g132
sg133
g134
sg135
g132
sg136
I01
sg34
g137
sg138
g134
sg139
I0
sg140
I0
sg141
I0
sg142
g134
sg35
g143
sg144
I0
stRp2889
sg146
g147
sg148
F1
sg149
Nsg30
S'WpijpA'
p2890
sbag1
(g2
g3
NtRp2891
(dp2892
g6
g1
(g7
g3
NtRp2893
(dp2894
g10
g1
(g11
g12
(dtRp2895
sg14
g1
(g11
g12
(dtRp2896
sg16
g1
(g11
g12
(dtRp2897
sg18
g1
(g11
g12
(dtRp2898
sg20
g1
(g11
g12
(dtRp2899
sg22
g1
(g11
g12
(dtRp2900
sbsg24
S'Wmu'
p2901
sg26
g27
((lp2902
g29
ag30
aS'sequence'
p2903
ag32
ag33
aS'species'
p2904
atRp2905
sg37
(lp2906
sg120
g2857
sg121
S'RWLSTKDLYSRLELPGLNQNVHAMFVMPLGFGNPLGDMFARLNNSFWLPPLSLEGAGTGWTIYPPLAHSSPSVDLGFHLTSSLLGAINFTNMRGPLFWTAMLLLSLPVLAGTLLDRNFNTFEGGDPLYHLFWFFGHPEVYIIPGFGSHSTYKKFGMYASIALGFVWSHHMYVGLDDRAYFTSSTMIAPTGIKFSWLATYGGRPMLAFLFLFTGGTGVLNASDAFHDTYYVVHFHYVLSMGAFSLGYYYWPGLYNLFWFNFPMHFLGGMPRRPYPDAGWNSGSSYQLGPDESNEPH'
p2907
sg123
F0.079170000000000004
sg124
g125
sg33
S'28'
p2908
sg127
g1
(g128
g12
(dp2909
g130
I4
sg131
g132
sg133
g134
sg135
g132
sg136
I01
sg34
g137
sg138
g134
sg139
I0
sg140
I0
sg141
I0
sg142
g134
sg35
g143
sg144
I0
stRp2910
sg146
g147
sg148
F1
sg149
Nsg30
S'WmucoA'
p2911
sbasg120
g2844
sg123
F0.14757000000000001
sg124
g125
sg33
S'15'
p2912
sg127
g1
(g128
g12
(dp2913
g130
I6
sg131
g132
sg133
g134
sg135
g132
sg136
I01
sg34
g174
sg138
g134
sg139
I0
sg140
I0
sg141
I0
sg142
g134
sg35
g175
sg144
I0
stRp2914
sg146
g147
sg148
F0.98999999999999999
sg149
Nsg30
S'NoName'
p2915
sbag1
(g2
g3
NtRp2916
(dp2917
g6
g1
(g7
g3
NtRp2918
(dp2919
g10
g1
(g11
g12
(dtRp2920
sg14
g1
(g11
g12
(dtRp2921
sg16
g1
(g11
g12
(dtRp2922
sg18
g1
(g11
g12
(dtRp2923
sg20
g1
(g11
g12
(dtRp2924
sg22
g1
(g11
g12
(dtRp2925
sbsg24
g25
sg26
g27
((lp2926
g33
ag32
ag29
ag30
atRp2927
sg37
(lp2928
g1
(g2
g3
NtRp2929
(dp2930
g6
g1
(g7
g3
NtRp2931
(dp2932
g10
g1
(g11
g12
(dtRp2933
sg14
g1
(g11
g12
(dtRp2934
sg16
g1
(g11
g12
(dtRp2935
sg18
g1
(g11
g12
(dtRp2936
sg20
g1
(g11
g12
(dtRp2937
sg22
g1
(g11
g12
(dtRp2938
sbsg24
S'Pca'
p2939
sg26
g27
((lp2940
g29
ag30
aS'sequence'
p2941
ag32
ag33
aS'species'
p2942
atRp2943
sg37
(lp2944
sg120
g2916
sg121
S'RWLSTKDLYSRLELPGLNQNVHAMFVMPLGFGNPLGDMFARLNNSFWLPPLSLEWAGTGWTIYPPLSHSSPSVDLGFHLTSSLLGAINFTNMRGPLFWTAMLLLSLPVLAGTLLDRNFNTFEGGDPLYHLFWFFGHPEVYIIPGFGSHSTYKKFGMYASIALGFVWSHHMYVGLDDRAYFTSSTMIAPTGIKFSWLATYGGRPMLAFLFLFTGGTGVLNASDAFHDTYYVVHFHYVLSMGAFSLGYYYWPGLFNLFWFNFPMHFLGGMPRRPYPDAGWNSGSSYQLGPDESNEPH'
p2945
sg123
F0.10655000000000001
sg124
g125
sg33
S'24'
p2946
sg127
g1
(g128
g12
(dp2947
g130
I4
sg131
g132
sg133
g134
sg135
g132
sg136
I01
sg34
g137
sg138
g134
sg139
I0
sg140
I0
sg141
I0
sg142
g134
sg35
g143
sg144
I0
stRp2948
sg146
g147
sg148
F1
sg149
Nsg30
S'PcanaA'
p2949
sbag1
(g2
g3
NtRp2950
(dp2951
g6
g1
(g7
g3
NtRp2952
(dp2953
g10
g1
(g11
g12
(dtRp2954
sg14
g1
(g11
g12
(dtRp2955
sg16
g1
(g11
g12
(dtRp2956
sg18
g1
(g11
g12
(dtRp2957
sg20
g1
(g11
g12
(dtRp2958
sg22
g1
(g11
g12
(dtRp2959
sbsg24
g25
sg26
g27
((lp2960
g33
ag32
ag29
ag30
atRp2961
sg37
(lp2962
g1
(g2
g3
NtRp2963
(dp2964
g6
g1
(g7
g3
NtRp2965
(dp2966
g10
g1
(g11
g12
(dtRp2967
sg14
g1
(g11
g12
(dtRp2968
sg16
g1
(g11
g12
(dtRp2969
sg18
g1
(g11
g12
(dtRp2970
sg20
g1
(g11
g12
(dtRp2971
sg22
g1
(g11
g12
(dtRp2972
sbsg24
S'Cno'
p2973
sg26
g27
((lp2974
g29
ag30
aS'sequence'
p2975
ag32
ag33
aS'species'
p2976
atRp2977
sg37
(lp2978
sg120
g2950
sg121
S'RWLSTKDLYSRLELPGLNQNVHAMFVMPLGFGNPLGDMFARLNNSFWLPPLSLEGAGTGWTIYPPLSHSSPSVDLGFHLTSSLLGAMNFTNMRGPLFWTAMLLLSLPVLAGTLLDRNFNTFEGGDPLYHLFWFFGHPEVYMIPGFGSHSTYKKFGMYASMALGFVWSHHMYVGLDDRAYFTSSTMMAPTGMKFSWLATYGGRPMLAFLFLFTGGTGVLNASDAFHDTYYVVHFHYVLSMGAFSLGYYYWPGLYNLFWFNFPMHFLGGMPRRPYPDAGWNSGSSYQLGPDESNEPH'
p2979
sg123
F0.059069999999999998
sg124
g125
sg33
S'77'
p2980
sg127
g1
(g128
g12
(dp2981
g130
I4
sg131
g132
sg133
g134
sg135
g132
sg136
I01
sg34
g137
sg138
g134
sg139
I0
sg140
I0
sg141
I0
sg142
g134
sg35
g143
sg144
I0
stRp2982
sg146
g147
sg148
F1
sg149
Nsg30
S'CnorvA'
p2983
sbag1
(g2
g3
NtRp2984
(dp2985
g6
g1
(g7
g3
NtRp2986
(dp2987
g10
g1
(g11
g12
(dtRp2988
sg14
g1
(g11
g12
(dtRp2989
sg16
g1
(g11
g12
(dtRp2990
sg18
g1
(g11
g12
(dtRp2991
sg20
g1
(g11
g12
(dtRp2992
sg22
g1
(g11
g12
(dtRp2993
sbsg24
S'Bca'
p2994
sg26
g27
((lp2995
g29
ag30
aS'sequence'
p2996
ag32
ag33
aS'species'
p2997
atRp2998
sg37
(lp2999
sg120
g2950
sg121
S'RWLSTKDLYSRLELPGLNQNVHAMFVMPLGFGNPLGDMFARLNNSFWLPPLSLEGAGTGWTIYPPLSHSSPSVDLGFHLTSSLLGAINFTNMRGPLFWTAMLLLSLPVLAGTLLDRNFNTFEGGDPLYHLFWFFGHPEVYIMPGFGSHSTYKKFGMYASIALGFVWSHHMYVGLDDRAYFTSSTMIAPTGIKFSWLATYGGRPMLAFLFLFTGGTGVLNASDAFHDTYYVVHFHYVLSMGAFSLGYYYWPGLYNLFWFNFPMHFLGGMPRRPYPDAGWNSGSSYQLGPDESNEPH'
p3000
sg123
F0.031899999999999998
sg124
g125
sg33
S'69'
p3001
sg127
g1
(g128
g12
(dp3002
g130
I4
sg131
g132
sg133
g134
sg135
g132
sg136
I01
sg34
g137
sg138
g134
sg139
I0
sg140
I0
sg141
I0
sg142
g134
sg35
g143
sg144
I0
stRp3003
sg146
g147
sg148
F1
sg149
Nsg30
S'BcaliA'
p3004
sbasg120
g2916
sg123
F0.09486
sg124
g125
sg33
S'21'
p3005
sg127
g1
(g128
g12
(dp3006
g130
I6
sg131
g132
sg133
g134
sg135
g132
sg136
I01
sg34
g174
sg138
g134
sg139
I0
sg140
I0
sg141
I0
sg142
g134
sg35
g175
sg144
I0
stRp3007
sg146
g147
sg148
F0.97999999999999998
sg149
Nsg30
S'NoName'
p3008
sbasg120
g2844
sg123
F0.054690000000000003
sg124
g125
sg33
S'129'
p3009
sg127
g1
(g128
g12
(dp3010
g130
I6
sg131
g132
sg133
g134
sg135
g132
sg136
I01
sg34
g174
sg138
g134
sg139
I0
sg140
I0
sg141
I0
sg142
g134
sg35
g175
sg144
I0
stRp3011
sg146
g147
sg148
F0.96999999999999997
sg149
Nsg30
S'NoName'
p3012
sbasg120
g2696
sg123
F0.051860000000000003
sg124
g125
sg33
S'125'
p3013
sg127
g1
(g128
g12
(dp3014
g130
I6
sg131
g132
sg133
g134
sg135
g132
sg136
I01
sg34
g174
sg138
g134
sg139
I0
sg140
I0
sg141
I0
sg142
g134
sg35
g175
sg144
I0
stRp3015
sg146
g147
sg148
F0.96999999999999997
sg149
Nsg30
S'NoName'
p3016
sbasg120
g2683
sg123
F0.52095999999999998
sg124
g125
sg33
S'101'
p3017
sg127
g1
(g128
g12
(dp3018
g130
I6
sg131
g132
sg133
g134
sg135
g132
sg136
I01
sg34
g174
sg138
g134
sg139
I0
sg140
I0
sg141
I0
sg142
g134
sg35
g175
sg144
I0
stRp3019
sg146
g147
sg148
F0.98999999999999999
sg149
Nsg30
S'NoName'
p3020
sbag1
(g2
g3
NtRp3021
(dp3022
g6
g1
(g7
g3
NtRp3023
(dp3024
g10
g1
(g11
g12
(dtRp3025
sg14
g1
(g11
g12
(dtRp3026
sg16
g1
(g11
g12
(dtRp3027
sg18
g1
(g11
g12
(dtRp3028
sg20
g1
(g11
g12
(dtRp3029
sg22
g1
(g11
g12
(dtRp3030
sbsg24
g25
sg26
g27
((lp3031
g33
ag32
ag29
ag30
atRp3032
sg37
(lp3033
g1
(g2
g3
NtRp3034
(dp3035
g6
g1
(g7
g3
NtRp3036
(dp3037
g10
g1
(g11
g12
(dtRp3038
sg14
g1
(g11
g12
(dtRp3039
sg16
g1
(g11
g12
(dtRp3040
sg18
g1
(g11
g12
(dtRp3041
sg20
g1
(g11
g12
(dtRp3042
sg22
g1
(g11
g12
(dtRp3043
sbsg24
g25
sg26
g27
((lp3044
g33
ag32
ag29
ag30
atRp3045
sg37
(lp3046
g1
(g2
g3
NtRp3047
(dp3048
g6
g1
(g7
g3
NtRp3049
(dp3050
g10
g1
(g11
g12
(dtRp3051
sg14
g1
(g11
g12
(dtRp3052
sg16
g1
(g11
g12
(dtRp3053
sg18
g1
(g11
g12
(dtRp3054
sg20
g1
(g11
g12
(dtRp3055
sg22
g1
(g11
g12
(dtRp3056
sbsg24
g25
sg26
g27
((lp3057
g33
ag32
ag29
ag30
atRp3058
sg37
(lp3059
g1
(g2
g3
NtRp3060
(dp3061
g6
g1
(g7
g3
NtRp3062
(dp3063
g10
g1
(g11
g12
(dtRp3064
sg14
g1
(g11
g12
(dtRp3065
sg16
g1
(g11
g12
(dtRp3066
sg18
g1
(g11
g12
(dtRp3067
sg20
g1
(g11
g12
(dtRp3068
sg22
g1
(g11
g12
(dtRp3069
sbsg24
g25
sg26
g27
((lp3070
g33
ag32
ag29
ag30
atRp3071
sg37
(lp3072
g1
(g2
g3
NtRp3073
(dp3074
g6
g1
(g7
g3
NtRp3075
(dp3076
g10
g1
(g11
g12
(dtRp3077
sg14
g1
(g11
g12
(dtRp3078
sg16
g1
(g11
g12
(dtRp3079
sg18
g1
(g11
g12
(dtRp3080
sg20
g1
(g11
g12
(dtRp3081
sg22
g1
(g11
g12
(dtRp3082
sbsg24
g25
sg26
g27
((lp3083
g33
ag32
ag29
ag30
atRp3084
sg37
(lp3085
g1
(g2
g3
NtRp3086
(dp3087
g6
g1
(g7
g3
NtRp3088
(dp3089
g10
g1
(g11
g12
(dtRp3090
sg14
g1
(g11
g12
(dtRp3091
sg16
g1
(g11
g12
(dtRp3092
sg18
g1
(g11
g12
(dtRp3093
sg20
g1
(g11
g12
(dtRp3094
sg22
g1
(g11
g12
(dtRp3095
sbsg24
g25
sg26
g27
((lp3096
g33
ag32
ag29
ag30
atRp3097
sg37
(lp3098
g1
(g2
g3
NtRp3099
(dp3100
g6
g1
(g7
g3
NtRp3101
(dp3102
g10
g1
(g11
g12
(dtRp3103
sg14
g1
(g11
g12
(dtRp3104
sg16
g1
(g11
g12
(dtRp3105
sg18
g1
(g11
g12
(dtRp3106
sg20
g1
(g11
g12
(dtRp3107
sg22
g1
(g11
g12
(dtRp3108
sbsg24
S'Lkl'
p3109
sg26
g27
((lp3110
g29
ag30
aS'sequence'
p3111
ag32
ag33
aS'species'
p3112
atRp3113
sg37
(lp3114
sg120
g3086
sg121
S'RWLSTKDLYSRLELPGLNQNVHAMFVMPLGFGNPMGDMFARLNNSFWLPPLSLEGAGTGWTVYPPLSHSGPSVDLAFHLTSSLLGAINFTNMRGPLFWTALLLLSLPVLAGTLLDRNFNTFEGGDPLYHLFWFFGHPEVYIIPGFGSHSTYKKFGMYASIGLGFVWSHHMYVGLDDRAYFLSATMIAPTGIKFSWLATYGGRPMLAFLFLFTGGTGVLNASDAFHDLYYVVHFHYVLSMGAFSLGYYYWPGLYNLFWFNFPMHFLGGMPRRPYPDAGWNSGSSYQLGPDESNEPH'
p3115
sg123
F0.00044999999999999999
sg124
g125
sg33
S'7'
sg127
g1
(g128
g12
(dp3116
g130
I4
sg131
g132
sg133
g134
sg135
g132
sg136
I01
sg34
g137
sg138
g134
sg139
I0
sg140
I0
sg141
I0
sg142
g134
sg35
g143
sg144
I0
stRp3117
sg146
g147
sg148
F1
sg149
Nsg30
S'LkluyE'
p3118
sbag1
(g2
g3
NtRp3119
(dp3120
g6
g1
(g7
g3
NtRp3121
(dp3122
g10
g1
(g11
g12
(dtRp3123
sg14
g1
(g11
g12
(dtRp3124
sg16
g1
(g11
g12
(dtRp3125
sg18
g1
(g11
g12
(dtRp3126
sg20
g1
(g11
g12
(dtRp3127
sg22
g1
(g11
g12
(dtRp3128
sbsg24
S'Lkl'
p3129
sg26
g27
((lp3130
g29
ag30
aS'sequence'
p3131
ag32
ag33
aS'species'
p3132
atRp3133
sg37
(lp3134
sg120
g3086
sg121
S'RWLSTKDLYSRLELPGLNQNVHAMFVMPLGFGNPMGDMFARLNNSFWLPPLSLEGAGTGWTVYPPLSHSGPSVDLAFHLTSSLLGAINFTNMRGPLFWTALLLLSLPVLAGTLLDRNFNTFEGGDPLYHLFWFFGHPEVYIIPGFGSHSTYKKFGMYASIGLGFVWSHHMYVGLDDRAYFLSATMIAPTGIKFSWLATYGGRPMLAFLFLFTGGTGVLNASDAFHDLYYVVHFHYVLSMGAFSLGYYYWPGLYNLFWFNFPMHFLGGMPRRPYPDAGWNSGSSYQLGPDESNEPH'
p3135
sg123
F0.0077400000000000004
sg124
g125
sg33
S'63'
p3136
sg127
g1
(g128
g12
(dp3137
g130
I4
sg131
g132
sg133
g134
sg135
g132
sg136
I01
sg34
g137
sg138
g134
sg139
I0
sg140
I0
sg141
I0
sg142
g134
sg35
g143
sg144
I0
stRp3138
sg146
g147
sg148
F1
sg149
Nsg30
S'LkluyD'
p3139
sbasg120
g3073
sg123
F0.0017099999999999999
sg124
g125
sg33
S'83'
p3140
sg127
g1
(g128
g12
(dp3141
g130
I6
sg131
g132
sg133
g134
sg135
g132
sg136
I01
sg34
g174
sg138
g134
sg139
I0
sg140
I0
sg141
I0
sg142
g134
sg35
g175
sg144
I0
stRp3142
sg146
g147
sg148
F0.56000000000000005
sg149
Nsg30
S'NoName'
p3143
sbag1
(g2
g3
NtRp3144
(dp3145
g6
g1
(g7
g3
NtRp3146
(dp3147
g10
g1
(g11
g12
(dtRp3148
sg14
g1
(g11
g12
(dtRp3149
sg16
g1
(g11
g12
(dtRp3150
sg18
g1
(g11
g12
(dtRp3151
sg20
g1
(g11
g12
(dtRp3152
sg22
g1
(g11
g12
(dtRp3153
sbsg24
g25
sg26
g27
((lp3154
g33
ag32
ag29
ag30
atRp3155
sg37
(lp3156
g1
(g2
g3
NtRp3157
(dp3158
g6
g1
(g7
g3
NtRp3159
(dp3160
g10
g1
(g11
g12
(dtRp3161
sg14
g1
(g11
g12
(dtRp3162
sg16
g1
(g11
g12
(dtRp3163
sg18
g1
(g11
g12
(dtRp3164
sg20
g1
(g11
g12
(dtRp3165
sg22
g1
(g11
g12
(dtRp3166
sbsg24
g25
sg26
g27
((lp3167
g33
ag32
ag29
ag30
atRp3168
sg37
(lp3169
g1
(g2
g3
NtRp3170
(dp3171
g6
g1
(g7
g3
NtRp3172
(dp3173
g10
g1
(g11
g12
(dtRp3174
sg14
g1
(g11
g12
(dtRp3175
sg16
g1
(g11
g12
(dtRp3176
sg18
g1
(g11
g12
(dtRp3177
sg20
g1
(g11
g12
(dtRp3178
sg22
g1
(g11
g12
(dtRp3179
sbsg24
g25
sg26
g27
((lp3180
g33
ag32
ag29
ag30
atRp3181
sg37
(lp3182
g1
(g2
g3
NtRp3183
(dp3184
g6
g1
(g7
g3
NtRp3185
(dp3186
g10
g1
(g11
g12
(dtRp3187
sg14
g1
(g11
g12
(dtRp3188
sg16
g1
(g11
g12
(dtRp3189
sg18
g1
(g11
g12
(dtRp3190
sg20
g1
(g11
g12
(dtRp3191
sg22
g1
(g11
g12
(dtRp3192
sbsg24
S'Lkl'
p3193
sg26
g27
((lp3194
g29
ag30
aS'sequence'
p3195
ag32
ag33
aS'species'
p3196
atRp3197
sg37
(lp3198
sg120
g3170
sg121
S'RWLSTKDLYSRLELPGLNQNVHAMFVMPLGFGNPMGDMFARLNNSFWLPPLSLEGAGTGWTVYPPLSHSGPSVDLAFHLTSSLLGAINFTNMRGPLFWTALLLLSLPVLAGTLLDRNFNTFEGGDPLYHLFWFFGHPEVYIIPGFGSHSTYKKFGMYASIGLGFVWSHHMYVGLDDRAYFLSATMIAPTGIKFSWLATYGGRPMLAFLFLFTGGTGVLNASDAFHDLYYVVHFHYVLSMGAFSLGYYYWPGLYNLFWFNFPMHFLGGMPRRPYPDAGWNSGSSYQLGPDESNEPH'
p3199
sg123
F0.00038999999999999999
sg124
g125
sg33
S'31'
p3200
sg127
g1
(g128
g12
(dp3201
g130
I4
sg131
g132
sg133
g134
sg135
g132
sg136
I01
sg34
g137
sg138
g134
sg139
I0
sg140
I0
sg141
I0
sg142
g134
sg35
g143
sg144
I0
stRp3202
sg146
g147
sg148
F1
sg149
Nsg30
S'LkluyF'
p3203
sbag1
(g2
g3
NtRp3204
(dp3205
g6
g1
(g7
g3
NtRp3206
(dp3207
g10
g1
(g11
g12
(dtRp3208
sg14
g1
(g11
g12
(dtRp3209
sg16
g1
(g11
g12
(dtRp3210
sg18
g1
(g11
g12
(dtRp3211
sg20
g1
(g11
g12
(dtRp3212
sg22
g1
(g11
g12
(dtRp3213
sbsg24
S'Lkl'
p3214
sg26
g27
((lp3215
g29
ag30
aS'sequence'
p3216
ag32
ag33
aS'species'
p3217
atRp3218
sg37
(lp3219
sg120
g3170
sg121
S'RWLSTKDLYSRLELPGLNQNVHAMFVMPLGFGNPMGDMFARLNNSFWLPPLSLEGAGTGWTVYPPLSHSGPSVDLAFHLTSSLLGAINFTNMRGPLFWTALLLLSLPVLAGTLLDRNFNTFEGGDPLYHLFWFFGHPEVYIIPGFGSHSTYKKFGMYASIGLGFVWSHHMYVGLDDRAYFLSATMIAPTGIKFSWLATYGGRPMLAFLFLFTGGTGVLNASDAFHDLYYVVHFHYVLSMGAFSLGYYYWPGLYNLFWFNFPMHFLGGMPRRPYPDAGWNSGSSYQLGPDESNEPH'
p3220
sg123
F0.00038000000000000002
sg124
g125
sg33
S'23'
p3221
sg127
g1
(g128
g12
(dp3222
g130
I4
sg131
g132
sg133
g134
sg135
g132
sg136
I01
sg34
g137
sg138
g134
sg139
I0
sg140
I0
sg141
I0
sg142
g134
sg35
g143
sg144
I0
stRp3223
sg146
g147
sg148
F1
sg149
Nsg30
S'LkluyC'
p3224
sbasg120
g3157
sg123
F1.0000000000000001e-05
sg124
g125
sg33
S'151'
p3225
sg127
g1
(g128
g12
(dp3226
g130
I6
sg131
g132
sg133
g134
sg135
g132
sg136
I01
sg34
g174
sg138
g134
sg139
I0
sg140
I0
sg141
I0
sg142
g134
sg35
g175
sg144
I0
stRp3227
sg146
g147
sg148
F1
sg149
Nsg30
S'NoName'
p3228
sbag1
(g2
g3
NtRp3229
(dp3230
g6
g1
(g7
g3
NtRp3231
(dp3232
g10
g1
(g11
g12
(dtRp3233
sg14
g1
(g11
g12
(dtRp3234
sg16
g1
(g11
g12
(dtRp3235
sg18
g1
(g11
g12
(dtRp3236
sg20
g1
(g11
g12
(dtRp3237
sg22
g1
(g11
g12
(dtRp3238
sbsg24
S'Lkl'
p3239
sg26
g27
((lp3240
g29
ag30
aS'sequence'
p3241
ag32
ag33
aS'species'
p3242
atRp3243
sg37
(lp3244
sg120
g3157
sg121
S'RWLSTKDLYSRLELPGLNQNVHAMFVMPLGFGNPMGDMFARLNNSFWLPPLSLEGAGTGWTVYPPLSHSGPSVDLAFHLTSSLLGAINFTNMRGPLFWTALLLLSLPVLAGTLLDRNFNTFEGGDPLYHLFWFFGHPEVYIIPGFGSHSTYKKFGMYASIGLGFVWSHHMYVGLDDRAYFLSATMIAPTGIKFSWLATYGGRPMLAFLFLFTGGTGVLNASDAFHDLYYVVHFHYVLSMGAFSLGYYYWPGLYNLFWFNFPMHFLGGMPRRPYPDAGWNSGSSYQLGPDESNEPH'
p3245
sg123
F0.00040999999999999999
sg124
g125
sg33
S'4'
sg127
g1
(g128
g12
(dp3246
g130
I4
sg131
g132
sg133
g134
sg135
g132
sg136
I01
sg34
g137
sg138
g134
sg139
I0
sg140
I0
sg141
I0
sg142
g134
sg35
g143
sg144
I0
stRp3247
sg146
g147
sg148
F1
sg149
Nsg30
S'LkluyB'
p3248
sbasg120
g3144
sg123
F1.0000000000000001e-05
sg124
g125
sg33
S'59'
p3249
sg127
g1
(g128
g12
(dp3250
g130
I6
sg131
g132
sg133
g134
sg135
g132
sg136
I01
sg34
g174
sg138
g134
sg139
I0
sg140
I0
sg141
I0
sg142
g134
sg35
g175
sg144
I0
stRp3251
sg146
g147
sg148
F1
sg149
Nsg30
S'NoName'
p3252
sbag1
(g2
g3
NtRp3253
(dp3254
g6
g1
(g7
g3
NtRp3255
(dp3256
g10
g1
(g11
g12
(dtRp3257
sg14
g1
(g11
g12
(dtRp3258
sg16
g1
(g11
g12
(dtRp3259
sg18
g1
(g11
g12
(dtRp3260
sg20
g1
(g11
g12
(dtRp3261
sg22
g1
(g11
g12
(dtRp3262
sbsg24
S'Lkl'
p3263
sg26
g27
((lp3264
g29
ag30
aS'sequence'
p3265
ag32
ag33
aS'species'
p3266
atRp3267
sg37
(lp3268
sg120
g3144
sg121
S'RWLSTKDLYSRLELPGLNQNVHAMFVMPLGFGNPMGDMFARLNNSFWLPPLSLEGAGTGWTVYPPLSHSGPSVDLAFHLTSSLLGAINFTNMRGPLFWTALLLLSLPVLAGTLLDRNFNTFEGGDPLYHLFWFFGHPEVYIIPGFGSHSTYKKFGMYASIGLGFVWSHHMYVGLDDRAYFLSATMIAPTGIKFSWLATYGGRPMLAFLFLFTGGTGVLNASDAFHDLYYVVHFHYVLSMGAFSLGYYYWPGLYNLFWFNFPMHFLGGMPRRPYPDAGWNSGSSYQLGPDESNEPH'
p3269
sg123
F0.00040999999999999999
sg124
g125
sg33
S'6'
sg127
g1
(g128
g12
(dp3270
g130
I4
sg131
g132
sg133
g134
sg135
g132
sg136
I01
sg34
g137
sg138
g134
sg139
I0
sg140
I0
sg141
I0
sg142
g134
sg35
g143
sg144
I0
stRp3271
sg146
g147
sg148
F1
sg149
Nsg30
S'LkluyA'
p3272
sbasg120
g3073
sg123
F0.0035300000000000002
sg124
g125
sg33
S'193'
p3273
sg127
g1
(g128
g12
(dp3274
g130
I6
sg131
g132
sg133
g134
sg135
g132
sg136
I01
sg34
g174
sg138
g134
sg139
I0
sg140
I0
sg141
I0
sg142
g134
sg35
g175
sg144
I0
stRp3275
sg146
g147
sg148
F0.91000000000000003
sg149
Nsg30
S'NoName'
p3276
sbasg120
g3060
sg123
F0.054280000000000002
sg124
g125
sg33
S'106'
p3277
sg127
g1
(g128
g12
(dp3278
g130
I6
sg131
g132
sg133
g134
sg135
g132
sg136
I01
sg34
g174
sg138
g134
sg139
I0
sg140
I0
sg141
I0
sg142
g134
sg35
g175
sg144
I0
stRp3279
sg146
g147
sg148
F0.98999999999999999
sg149
Nsg30
S'NoName'
p3280
sbag1
(g2
g3
NtRp3281
(dp3282
g6
g1
(g7
g3
NtRp3283
(dp3284
g10
g1
(g11
g12
(dtRp3285
sg14
g1
(g11
g12
(dtRp3286
sg16
g1
(g11
g12
(dtRp3287
sg18
g1
(g11
g12
(dtRp3288
sg20
g1
(g11
g12
(dtRp3289
sg22
g1
(g11
g12
(dtRp3290
sbsg24
g25
sg26
g27
((lp3291
g33
ag32
ag29
ag30
atRp3292
sg37
(lp3293
g1
(g2
g3
NtRp3294
(dp3295
g6
g1
(g7
g3
NtRp3296
(dp3297
g10
g1
(g11
g12
(dtRp3298
sg14
g1
(g11
g12
(dtRp3299
sg16
g1
(g11
g12
(dtRp3300
sg18
g1
(g11
g12
(dtRp3301
sg20
g1
(g11
g12
(dtRp3302
sg22
g1
(g11
g12
(dtRp3303
sbsg24
S'Lan'
p3304
sg26
g27
((lp3305
g29
ag30
aS'sequence'
p3306
ag32
ag33
aS'species'
p3307
atRp3308
sg37
(lp3309
sg120
g3281
sg121
S'RWLSTKDLYSRLELPGLNQNVHAMFVMPLGFGNPMGDMFARLNNSFWLPPLSLEGAGTGWTLYPPLSHSGPSVDLAFHLTSSLLGAINFTNMRGPLFWTALLLLSLPVLAGTVLDRNFNTFEGGDPLYHLFWFFGHPEVYIIPGFGSHSTYKKFGMYASIGLGFVWSHHMYVGLDDRAYFTSATMIAPTGIKFSWLALYGGRPMLAFLFLFTGGTGVLNASDAFHDTYYVVHFHYVLSMGAFSLGYYYWPGLYNLFWFNFPMHFLGGMPRRPYPDAGWNSGSSYQLGPDESNEPH'
p3310
sg123
F0.10922999999999999
sg124
g125
sg33
S'44'
p3311
sg127
g1
(g128
g12
(dp3312
g130
I4
sg131
g132
sg133
g134
sg135
g132
sg136
I01
sg34
g137
sg138
g134
sg139
I0
sg140
I0
sg141
I0
sg142
g134
sg35
g143
sg144
I0
stRp3313
sg146
g147
sg148
F1
sg149
Nsg30
S'LanspA'
p3314
sbag1
(g2
g3
NtRp3315
(dp3316
g6
g1
(g7
g3
NtRp3317
(dp3318
g10
g1
(g11
g12
(dtRp3319
sg14
g1
(g11
g12
(dtRp3320
sg16
g1
(g11
g12
(dtRp3321
sg18
g1
(g11
g12
(dtRp3322
sg20
g1
(g11
g12
(dtRp3323
sg22
g1
(g11
g12
(dtRp3324
sbsg24
g25
sg26
g27
((lp3325
g33
ag32
ag29
ag30
atRp3326
sg37
(lp3327
g1
(g2
g3
NtRp3328
(dp3329
g6
g1
(g7
g3
NtRp3330
(dp3331
g10
g1
(g11
g12
(dtRp3332
sg14
g1
(g11
g12
(dtRp3333
sg16
g1
(g11
g12
(dtRp3334
sg18
g1
(g11
g12
(dtRp3335
sg20
g1
(g11
g12
(dtRp3336
sg22
g1
(g11
g12
(dtRp3337
sbsg24
g25
sg26
g27
((lp3338
g33
ag32
ag29
ag30
atRp3339
sg37
(lp3340
g1
(g2
g3
NtRp3341
(dp3342
g6
g1
(g7
g3
NtRp3343
(dp3344
g10
g1
(g11
g12
(dtRp3345
sg14
g1
(g11
g12
(dtRp3346
sg16
g1
(g11
g12
(dtRp3347
sg18
g1
(g11
g12
(dtRp3348
sg20
g1
(g11
g12
(dtRp3349
sg22
g1
(g11
g12
(dtRp3350
sbsg24
S'Lno'
p3351
sg26
g27
((lp3352
g29
ag30
aS'sequence'
p3353
ag32
ag33
aS'species'
p3354
atRp3355
sg37
(lp3356
sg120
g3328
sg121
S'RWLSTKDLYSRLELPGLNQNVHAMFVMPLGFGNPMGDMFARLNNSFWLPPLSLEGAGTGWTIYPPLSHSGPSVDLAFHLTSSLLGAINFTNMRGPLFWTALLLLSLPVLAGTILDRNFNTFEGGDPLYHLFWFFGHPEVYIIPGFGSHSTYKKFGMYASIGLGFVWSHHMYVGLDDRAYFTSALMIAPTGIKFSWLALYGGRPMLAFLFLFTGGTGVLNASDAFHDTYYVVHFHYVLSMGAFSLGYYYWPGLYNLFWFNFPMHFLGGMPRRPYPDAGWNSGSSYQLGPDESNEPH'
p3357
sg123
F0.0075199999999999998
sg124
g125
sg33
S'39'
p3358
sg127
g1
(g128
g12
(dp3359
g130
I4
sg131
g132
sg133
g134
sg135
g132
sg136
I01
sg34
g137
sg138
g134
sg139
I0
sg140
I0
sg141
I0
sg142
g134
sg35
g143
sg144
I0
stRp3360
sg146
g147
sg148
F1
sg149
Nsg30
S'LnothA'
p3361
sbag1
(g2
g3
NtRp3362
(dp3363
g6
g1
(g7
g3
NtRp3364
(dp3365
g10
g1
(g11
g12
(dtRp3366
sg14
g1
(g11
g12
(dtRp3367
sg16
g1
(g11
g12
(dtRp3368
sg18
g1
(g11
g12
(dtRp3369
sg20
g1
(g11
g12
(dtRp3370
sg22
g1
(g11
g12
(dtRp3371
sbsg24
g25
sg26
g27
((lp3372
g33
ag32
ag29
ag30
atRp3373
sg37
(lp3374
g1
(g2
g3
NtRp3375
(dp3376
g6
g1
(g7
g3
NtRp3377
(dp3378
g10
g1
(g11
g12
(dtRp3379
sg14
g1
(g11
g12
(dtRp3380
sg16
g1
(g11
g12
(dtRp3381
sg18
g1
(g11
g12
(dtRp3382
sg20
g1
(g11
g12
(dtRp3383
sg22
g1
(g11
g12
(dtRp3384
sbsg24
S'Lda'
p3385
sg26
g27
((lp3386
g29
ag30
aS'sequence'
p3387
ag32
ag33
aS'species'
p3388
atRp3389
sg37
(lp3390
sg120
g3362
sg121
S'RWLSTKDLYSRLELPGLNQNVHAMFVMPLGFGNPMGDMFARLNNSFWLPPLSLEGAGTGWTVYPPLSHSGPSVDLAFHLTSSLLGAINFTNMRGPLFWTALLLLSLPVLAGTILDRNFNTFEGGDPLYHLFWFFGHPEVYIIPGFGSHSTYKKFGMYASIGLGFVWSHHMYVGLDDRAYFTSATMIAPTGIKFSWLALYGGRPMLAFLFLFTGGTGVLNASDAFHDTYYVVHFHYVLSMGAFSLGYYYWPGLYNLFWFNFPMHFLGGMPRRPYPDAGWNSGSSYQLGPDESNEPH'
p3391
sg123
F0.023539999999999998
sg124
g125
sg33
S'46'
p3392
sg127
g1
(g128
g12
(dp3393
g130
I4
sg131
g132
sg133
g134
sg135
g132
sg136
I01
sg34
g137
sg138
g134
sg139
I0
sg140
I0
sg141
I0
sg142
g134
sg35
g143
sg144
I0
stRp3394
sg146
g147
sg148
F1
sg149
Nsg30
S'LdasiA'
p3395
sbag1
(g2
g3
NtRp3396
(dp3397
g6
g1
(g7
g3
NtRp3398
(dp3399
g10
g1
(g11
g12
(dtRp3400
sg14
g1
(g11
g12
(dtRp3401
sg16
g1
(g11
g12
(dtRp3402
sg18
g1
(g11
g12
(dtRp3403
sg20
g1
(g11
g12
(dtRp3404
sg22
g1
(g11
g12
(dtRp3405
sbsg24
g25
sg26
g27
((lp3406
g33
ag32
ag29
ag30
atRp3407
sg37
(lp3408
g1
(g2
g3
NtRp3409
(dp3410
g6
g1
(g7
g3
NtRp3411
(dp3412
g10
g1
(g11
g12
(dtRp3413
sg14
g1
(g11
g12
(dtRp3414
sg16
g1
(g11
g12
(dtRp3415
sg18
g1
(g11
g12
(dtRp3416
sg20
g1
(g11
g12
(dtRp3417
sg22
g1
(g11
g12
(dtRp3418
sbsg24
S'Lme'
p3419
sg26
g27
((lp3420
g29
ag30
aS'sequence'
p3421
ag32
ag33
aS'species'
p3422
atRp3423
sg37
(lp3424
sg120
g3396
sg121
S'RWLSTKDLYSRLELPGLNQNVHAMFVMPLGFGNPMGDMFARLNNSFWLPPLSLEGAGTGWTVYPPLSHSGPSVDLAFHLTSSLLGAINFTNMRGPLFWTALLLLSLPVLAGTILDRNFNTFEGGDPLYHLFWFFGHPEVYIIPGFGSHSTYKKFGMYASIGLGFVWSHHMYVGLDDRAYFTSATMIAPTGIKFSWLALYGGRPMLAFLFLFTGGTGVLNASDAFHDTYYVVHFHYVLSMGAFSLGYYYWPGLYNLFWFNFPMHFLGGMPRRPYPDAGWNSGSSYQLGPDESNEPH'
p3425
sg123
F0.0050299999999999997
sg124
g125
sg33
S'102'
p3426
sg127
g1
(g128
g12
(dp3427
g130
I4
sg131
g132
sg133
g134
sg135
g132
sg136
I01
sg34
g137
sg138
g134
sg139
I0
sg140
I0
sg141
I0
sg142
g134
sg35
g143
sg144
I0
stRp3428
sg146
g147
sg148
F1
sg149
Nsg30
S'LmeyeA'
p3429
sbag1
(g2
g3
NtRp3430
(dp3431
g6
g1
(g7
g3
NtRp3432
(dp3433
g10
g1
(g11
g12
(dtRp3434
sg14
g1
(g11
g12
(dtRp3435
sg16
g1
(g11
g12
(dtRp3436
sg18
g1
(g11
g12
(dtRp3437
sg20
g1
(g11
g12
(dtRp3438
sg22
g1
(g11
g12
(dtRp3439
sbsg24
S'Lan'
p3440
sg26
g27
((lp3441
g29
ag30
aS'sequence'
p3442
ag32
ag33
aS'species'
p3443
atRp3444
sg37
(lp3445
sg120
g3396
sg121
S'RWLSTKDLYSRLELPGLNQNVHAMFVMPLGFGNPMGDMFARLNNSFWLPPLSLEGAGTGWTVYPPLSHSGPSVDLAFHLTSSLLGAINFTNMRGPLFWTALLLLSLPVLAGTILDRNFNTFEGGDPLYHLFWFFGHPEVYIIPGFGSHSTYKKFGMYASIGLGFVWSHHMYVGLDDRAYFTSALMIAPTGIKFSWLALYGGRPMLAFLFLFTGGTGVLNASDAFHDTYYVVHFHYVLSMGAFSLGYYYWPGLYNLFWFNFPMHFLGGMPRRPYPDAGWNSGSSYQLGPDESNEPH'
p3446
sg123
F0.012290000000000001
sg124
g125
sg33
S'35'
p3447
sg127
g1
(g128
g12
(dp3448
g130
I4
sg131
g132
sg133
g134
sg135
g132
sg136
I01
sg34
g137
sg138
g134
sg139
I0
sg140
I0
sg141
I0
sg142
g134
sg35
g143
sg144
I0
stRp3449
sg146
g147
sg148
F1
sg149
Nsg30
S'LanspB'
p3450
sbasg120
g3362
sg123
F0.012070000000000001
sg124
g125
sg33
S'30'
p3451
sg127
g1
(g128
g12
(dp3452
g130
I6
sg131
g132
sg133
g134
sg135
g132
sg136
I01
sg34
g174
sg138
g134
sg139
I0
sg140
I0
sg141
I0
sg142
g134
sg35
g175
sg144
I0
stRp3453
sg146
g147
sg148
F0.98999999999999999
sg149
Nsg30
S'NoName'
p3454
sbasg120
g3328
sg123
F0.0088199999999999997
sg124
g125
sg33
S'138'
p3455
sg127
g1
(g128
g12
(dp3456
g130
I6
sg131
g132
sg133
g134
sg135
g132
sg136
I01
sg34
g174
sg138
g134
sg139
I0
sg140
I0
sg141
I0
sg142
g134
sg35
g175
sg144
I0
stRp3457
sg146
g147
sg148
F0.95999999999999996
sg149
Nsg30
S'NoName'
p3458
sbasg120
g3315
sg123
F0.016570000000000001
sg124
g125
sg33
S'153'
p3459
sg127
g1
(g128
g12
(dp3460
g130
I6
sg131
g132
sg133
g134
sg135
g132
sg136
I01
sg34
g174
sg138
g134
sg139
I0
sg140
I0
sg141
I0
sg142
g134
sg35
g175
sg144
I0
stRp3461
sg146
g147
sg148
F0.94999999999999996
sg149
Nsg30
S'NoName'
p3462
sbag1
(g2
g3
NtRp3463
(dp3464
g6
g1
(g7
g3
NtRp3465
(dp3466
g10
g1
(g11
g12
(dtRp3467
sg14
g1
(g11
g12
(dtRp3468
sg16
g1
(g11
g12
(dtRp3469
sg18
g1
(g11
g12
(dtRp3470
sg20
g1
(g11
g12
(dtRp3471
sg22
g1
(g11
g12
(dtRp3472
sbsg24
S'Kth'
p3473
sg26
g27
((lp3474
g29
ag30
aS'sequence'
p3475
ag32
ag33
aS'species'
p3476
atRp3477
sg37
(lp3478
sg120
g3315
sg121
S'RWLSTKDLYSRLELPGLNQNVHAMFVMPLGFGNPMGDMFARLNNSFWLPPLSLEGAGTGWTVYPPLSHSGPSVDLAFHLTSSLLGAINFTNMRGPLFWTALLLLSLPVLAGTILDRNFNTFEGGDPLYHLFWFFGHPEVYIIPGFGSHSTYKKFGMYASIGLGFVWSHHMYVGLDDRAYFTSATMIAPTGIKFSWLALYGGRPMLAFLFLFTGGTGVLNASDAFHDTYYVVHFHYVLSMGAFSLGYYYWPGLYNLFWFNFPMHFLGGMPRRPYPDAGWNSGSSYQLGPDESNEPH'
p3479
sg123
F0.021499999999999998
sg124
g125
sg33
S'54'
p3480
sg127
g1
(g128
g12
(dp3481
g130
I4
sg131
g132
sg133
g134
sg135
g132
sg136
I01
sg34
g137
sg138
g134
sg139
I0
sg140
I0
sg141
I0
sg142
g134
sg35
g143
sg144
I0
stRp3482
sg146
g147
sg148
F1
sg149
Nsg30
S'KtherA'
p3483
sbasg120
g3281
sg123
F0.033250000000000002
sg124
g125
sg33
S'32'
p3484
sg127
g1
(g128
g12
(dp3485
g130
I6
sg131
g132
sg133
g134
sg135
g132
sg136
I01
sg34
g174
sg138
g134
sg139
I0
sg140
I0
sg141
I0
sg142
g134
sg35
g175
sg144
I0
stRp3486
sg146
g147
sg148
F0.93999999999999995
sg149
Nsg30
S'NoName'
p3487
sbasg120
g3060
sg123
F0.038859999999999999
sg124
g125
sg33
S'1'
sg127
g1
(g128
g12
(dp3488
g130
I6
sg131
g132
sg133
g134
sg135
g132
sg136
I01
sg34
g174
sg138
g134
sg139
I0
sg140
I0
sg141
I0
sg142
g134
sg35
g175
sg144
I0
stRp3489
sg146
g147
sg148
F0.92000000000000004
sg149
Nsg30
S'NoName'
p3490
sbasg120
g3047
sg123
F0.050380000000000001
sg124
g125
sg33
S'73'
p3491
sg127
g1
(g128
g12
(dp3492
g130
I6
sg131
g132
sg133
g134
sg135
g132
sg136
I01
sg34
g174
sg138
g134
sg139
I0
sg140
I0
sg141
I0
sg142
g134
sg35
g175
sg144
I0
stRp3493
sg146
g147
sg148
F0.89000000000000001
sg149
Nsg30
S'NoName'
p3494
sbag1
(g2
g3
NtRp3495
(dp3496
g6
g1
(g7
g3
NtRp3497
(dp3498
g10
g1
(g11
g12
(dtRp3499
sg14
g1
(g11
g12
(dtRp3500
sg16
g1
(g11
g12
(dtRp3501
sg18
g1
(g11
g12
(dtRp3502
sg20
g1
(g11
g12
(dtRp3503
sg22
g1
(g11
g12
(dtRp3504
sbsg24
g25
sg26
g27
((lp3505
g33
ag32
ag29
ag30
atRp3506
sg37
(lp3507
g1
(g2
g3
NtRp3508
(dp3509
g6
g1
(g7
g3
NtRp3510
(dp3511
g10
g1
(g11
g12
(dtRp3512
sg14
g1
(g11
g12
(dtRp3513
sg16
g1
(g11
g12
(dtRp3514
sg18
g1
(g11
g12
(dtRp3515
sg20
g1
(g11
g12
(dtRp3516
sg22
g1
(g11
g12
(dtRp3517
sbsg24
S'Kma'
p3518
sg26
g27
((lp3519
g29
ag30
aS'sequence'
p3520
ag32
ag33
aS'species'
p3521
atRp3522
sg37
(lp3523
sg120
g3495
sg121
S'RWLSTKDLYSRLELPGLNQNVHAMFVMPLGFGNPMGDMFARLNNSFWLPPLSLEGAGTGWTVYPPLSHSGPSVDLAFHLTSSLLGAINFTNMRGPLFWTALLLLSLPVLAGTLLDRNFNTFEGGDPLYHLFWFFGHPEVYIIPGFGSHSTYKKFGMYASIGLGFVWSHHMYVGLDDRAYFTSATMIAPTGIKFSWLATYGGRPMLAFLFLFTGGTGVLNASDAFHDTYYVVHFHYVLSMGAFSLGYYYWPGLYNLFWFNFPMHFLGGMPRRPYPDAGWNSGSSYQLGPDESNEPH'
p3524
sg123
F0.04018
sg124
g125
sg33
S'182'
p3525
sg127
g1
(g128
g12
(dp3526
g130
I4
sg131
g132
sg133
g134
sg135
g132
sg136
I01
sg34
g137
sg138
g134
sg139
I0
sg140
I0
sg141
I0
sg142
g134
sg35
g143
sg144
I0
stRp3527
sg146
g147
sg148
F1
sg149
Nsg30
S'KmarxA'
p3528
sbag1
(g2
g3
NtRp3529
(dp3530
g6
g1
(g7
g3
NtRp3531
(dp3532
g10
g1
(g11
g12
(dtRp3533
sg14
g1
(g11
g12
(dtRp3534
sg16
g1
(g11
g12
(dtRp3535
sg18
g1
(g11
g12
(dtRp3536
sg20
g1
(g11
g12
(dtRp3537
sg22
g1
(g11
g12
(dtRp3538
sbsg24
S'Kla'
p3539
sg26
g27
((lp3540
g29
ag30
aS'sequence'
p3541
ag32
ag33
aS'species'
p3542
atRp3543
sg37
(lp3544
sg120
g3495
sg121
S'RWLSTKDLYSRLELPGLNQNVHAMFVMPLGFGNPLGDMFARLNNSFWLPPLSLEGAGTGWTVYPPLSHSGPSVDLAFHLTSSLLGAINFTNMRGPLFWTALLLLSLPVLAGTLLDRNFNTFEGGDPLYHLFWFFGHPEVYIIPGFGSHSTYKKFGMYASIGLGFVWSHHMYVGLDDRAYFTSATMIAPTGIKFSWLATYGGRPMLAFLFLFTGGTGVLNASDAFHDTYYVVHFHYVLSMGAFSLGYYYWPGLYNLFWFNFPMHFLGGMPRRPYPDAGWNSGSSYQLGPDESNEPH'
p3545
sg123
F0.043529999999999999
sg124
g125
sg33
S'149'
p3546
sg127
g1
(g128
g12
(dp3547
g130
I4
sg131
g132
sg133
g134
sg135
g132
sg136
I01
sg34
g137
sg138
g134
sg139
I0
sg140
I0
sg141
I0
sg142
g134
sg35
g143
sg144
I0
stRp3548
sg146
g147
sg148
F1
sg149
Nsg30
S'KlactA'
p3549
sbasg120
g3047
sg123
F0.13938999999999999
sg124
g125
sg33
S'209'
p3550
sg127
g1
(g128
g12
(dp3551
g130
I6
sg131
g132
sg133
g134
sg135
g132
sg136
I01
sg34
g174
sg138
g134
sg139
I0
sg140
I0
sg141
I0
sg142
g134
sg35
g175
sg144
I0
stRp3552
sg146
g147
sg148
F0.98999999999999999
sg149
Nsg30
S'NoName'
p3553
sbasg120
g3034
sg123
F1.0000000000000001e-05
sg124
g125
sg33
S'36'
p3554
sg127
g1
(g128
g12
(dp3555
g130
I6
sg131
g132
sg133
g134
sg135
g132
sg136
I01
sg34
g174
sg138
g134
sg139
I0
sg140
I0
sg141
I0
sg142
g134
sg35
g175
sg144
I0
stRp3556
sg146
g147
sg148
F1
sg149
Nsg30
S'NoName'
p3557
sbag1
(g2
g3
NtRp3558
(dp3559
g6
g1
(g7
g3
NtRp3560
(dp3561
g10
g1
(g11
g12
(dtRp3562
sg14
g1
(g11
g12
(dtRp3563
sg16
g1
(g11
g12
(dtRp3564
sg18
g1
(g11
g12
(dtRp3565
sg20
g1
(g11
g12
(dtRp3566
sg22
g1
(g11
g12
(dtRp3567
sbsg24
g25
sg26
g27
((lp3568
g33
ag32
ag29
ag30
atRp3569
sg37
(lp3570
g1
(g2
g3
NtRp3571
(dp3572
g6
g1
(g7
g3
NtRp3573
(dp3574
g10
g1
(g11
g12
(dtRp3575
sg14
g1
(g11
g12
(dtRp3576
sg16
g1
(g11
g12
(dtRp3577
sg18
g1
(g11
g12
(dtRp3578
sg20
g1
(g11
g12
(dtRp3579
sg22
g1
(g11
g12
(dtRp3580
sbsg24
S'Huv'
p3581
sg26
g27
((lp3582
g29
ag30
aS'sequence'
p3583
ag32
ag33
aS'species'
p3584
atRp3585
sg37
(lp3586
sg120
g3558
sg121
S'-MITTKDLYSRLELSGINHNSHAMFIMPIGFGNPAGDMFPRLNNSFWLVPVSLEGAGTGWTVYYPLSHSSVSVDLVFHCLSSLLGAINFTNFL-SLFWLALLLLSLPVLVGTLLDRNFNLYEGGDPLYHLFWFFGHPEVYIIPAFGSMSAYSKFGMYASIGLGFVWVHHMFVGLDDRAYFTSATMIAPLGIKFSWLALIGGRPVLAFLVLFLGGTGVLNASDAFHDTYYVVHFHYVLSLGAFGIGYYYWPGLYNLFVVNFPMHYLGGMPRRSYPDSAWNTGASVQLGTDLLPEPH'
p3587
sg123
F3.9441199999999998
sg124
g125
sg33
S'103'
p3588
sg127
g1
(g128
g12
(dp3589
g130
I4
sg131
g132
sg133
g134
sg135
g132
sg136
I01
sg34
g137
sg138
g134
sg139
I0
sg140
I0
sg141
I0
sg142
g134
sg35
g143
sg144
I0
stRp3590
sg146
g147
sg148
F1
sg149
Nsg30
S'HuvarA'
p3591
sbag1
(g2
g3
NtRp3592
(dp3593
g6
g1
(g7
g3
NtRp3594
(dp3595
g10
g1
(g11
g12
(dtRp3596
sg14
g1
(g11
g12
(dtRp3597
sg16
g1
(g11
g12
(dtRp3598
sg18
g1
(g11
g12
(dtRp3599
sg20
g1
(g11
g12
(dtRp3600
sg22
g1
(g11
g12
(dtRp3601
sbsg24
g25
sg26
g27
((lp3602
g33
ag32
ag29
ag30
atRp3603
sg37
(lp3604
g1
(g2
g3
NtRp3605
(dp3606
g6
g1
(g7
g3
NtRp3607
(dp3608
g10
g1
(g11
g12
(dtRp3609
sg14
g1
(g11
g12
(dtRp3610
sg16
g1
(g11
g12
(dtRp3611
sg18
g1
(g11
g12
(dtRp3612
sg20
g1
(g11
g12
(dtRp3613
sg22
g1
(g11
g12
(dtRp3614
sbsg24
g25
sg26
g27
((lp3615
g33
ag32
ag29
ag30
atRp3616
sg37
(lp3617
g1
(g2
g3
NtRp3618
(dp3619
g6
g1
(g7
g3
NtRp3620
(dp3621
g10
g1
(g11
g12
(dtRp3622
sg14
g1
(g11
g12
(dtRp3623
sg16
g1
(g11
g12
(dtRp3624
sg18
g1
(g11
g12
(dtRp3625
sg20
g1
(g11
g12
(dtRp3626
sg22
g1
(g11
g12
(dtRp3627
sbsg24
g25
sg26
g27
((lp3628
g33
ag32
ag29
ag30
atRp3629
sg37
(lp3630
g1
(g2
g3
NtRp3631
(dp3632
g6
g1
(g7
g3
NtRp3633
(dp3634
g10
g1
(g11
g12
(dtRp3635
sg14
g1
(g11
g12
(dtRp3636
sg16
g1
(g11
g12
(dtRp3637
sg18
g1
(g11
g12
(dtRp3638
sg20
g1
(g11
g12
(dtRp3639
sg22
g1
(g11
g12
(dtRp3640
sbsg24
S'Sse'
p3641
sg26
g27
((lp3642
g29
ag30
aS'sequence'
p3643
ag32
ag33
aS'species'
p3644
atRp3645
sg37
(lp3646
sg120
g3618
sg121
S'RWLSTKDMYSRMELPGLNQNVHAMFAMPLGFGNPMGDMFPRINSGFWLPMLSLEGAGTGWTVYPPLSHSGPSVDLAFHLTSSLLGAINFTNMRGPLFWTALLLLSLPVLAGTLLDRNFNTFEGGDPFYHAFWFFGHPEVYIIPGFGSHSTYKKFGMYASIGLGFVWSHHMYVGLDDRAYFTSATMIAPTGIKFSWLALYGGRPMMAFLFLFTGGTGVLNASDAFHDTYYVVHFHYVLSMGAFSLGYYYWPGLYNLFWFNFPMHFLGGMPRRPYPDAGWNSGSSYQIGPDESNEPH'
p3647
sg123
F0.29805999999999999
sg124
g125
sg33
S'127'
p3648
sg127
g1
(g128
g12
(dp3649
g130
I4
sg131
g132
sg133
g134
sg135
g132
sg136
I01
sg34
g137
sg138
g134
sg139
I0
sg140
I0
sg141
I0
sg142
g134
sg35
g143
sg144
I0
stRp3650
sg146
g147
sg148
F1
sg149
Nsg30
S'SservA'
p3651
sbag1
(g2
g3
NtRp3652
(dp3653
g6
g1
(g7
g3
NtRp3654
(dp3655
g10
g1
(g11
g12
(dtRp3656
sg14
g1
(g11
g12
(dtRp3657
sg16
g1
(g11
g12
(dtRp3658
sg18
g1
(g11
g12
(dtRp3659
sg20
g1
(g11
g12
(dtRp3660
sg22
g1
(g11
g12
(dtRp3661
sbsg24
S'Sca'
p3662
sg26
g27
((lp3663
g29
ag30
aS'sequence'
p3664
ag32
ag33
aS'species'
p3665
atRp3666
sg37
(lp3667
sg120
g3618
sg121
S'RWLSTKDLYSRLELPGLNQNVHAMFVMPLGFGNPMGDTFPRINNGFWLPMLSLEGAGTGWTVYPPLAHSGPSVDLAFHMTSSLLGAINFTNMRGPLFWTALLLLTLPVLAGTLLDRNFNTFEGGDPLYHLFWFFGHPEVYIIPGFGSHSTYKKFGMYASIGLGLVWSHHMYVGLDDRAYFTSATMIAPTGIKFSWLATYGGRPMLAFLFLFTGGTGVLNASDAFHDLYYVVHFHYVLSMGAFSLGYYYWPGLYNLFWFNFPMHFLGGMPRRPYPDAGWNSGASYQLGPDESNEPH'
p3668
sg123
F0.30890000000000001
sg124
g125
sg33
S'66'
p3669
sg127
g1
(g128
g12
(dp3670
g130
I4
sg131
g132
sg133
g134
sg135
g132
sg136
I01
sg34
g137
sg138
g134
sg139
I0
sg140
I0
sg141
I0
sg142
g134
sg35
g143
sg144
I0
stRp3671
sg146
g147
sg148
F1
sg149
Nsg30
S'ScastA'
p3672
sbasg120
g3605
sg123
F0.072319999999999995
sg124
g125
sg33
S'42'
p3673
sg127
g1
(g128
g12
(dp3674
g130
I6
sg131
g132
sg133
g134
sg135
g132
sg136
I01
sg34
g174
sg138
g134
sg139
I0
sg140
I0
sg141
I0
sg142
g134
sg35
g175
sg144
I0
stRp3675
sg146
g147
sg148
F0.98999999999999999
sg149
Nsg30
S'NoName'
p3676
sbag1
(g2
g3
NtRp3677
(dp3678
g6
g1
(g7
g3
NtRp3679
(dp3680
g10
g1
(g11
g12
(dtRp3681
sg14
g1
(g11
g12
(dtRp3682
sg16
g1
(g11
g12
(dtRp3683
sg18
g1
(g11
g12
(dtRp3684
sg20
g1
(g11
g12
(dtRp3685
sg22
g1
(g11
g12
(dtRp3686
sbsg24
g25
sg26
g27
((lp3687
g33
ag32
ag29
ag30
atRp3688
sg37
(lp3689
g1
(g2
g3
NtRp3690
(dp3691
g6
g1
(g7
g3
NtRp3692
(dp3693
g10
g1
(g11
g12
(dtRp3694
sg14
g1
(g11
g12
(dtRp3695
sg16
g1
(g11
g12
(dtRp3696
sg18
g1
(g11
g12
(dtRp3697
sg20
g1
(g11
g12
(dtRp3698
sg22
g1
(g11
g12
(dtRp3699
sbsg24
S'Spa'
p3700
sg26
g27
((lp3701
g29
ag30
aS'sequence'
p3702
ag32
ag33
aS'species'
p3703
atRp3704
sg37
(lp3705
sg120
g3677
sg121
S'RWLSTKDLYSRLELPGLNQNVHAMFVMPLGFGNPMGDTFPRINNAFWLPMLSLEGAGTGWTVYPPLSHSGPSVDLAFHLTSSLLGAINFTNMRGPLFWTALLLLSLPVLAGTLLDRNFNTFEGGDPLYHLFWFFGHPEVYIIPGFGSHSTYKKFGMYASIGLGFVWSHHMYVGLDDRAYFLSATMIAPTGIKFSWLATYGGRPMLAFLFLFTGGTGVLNASDAFHDTYYVVHFHYVLSMGAFSLGYYYWPGLYNLFWFNFPMHFLGGMPRRPYPDAGWNSGSSYQLGPDESNEPH'
p3706
sg123
F0.029780000000000001
sg124
g125
sg33
S'2'
sg127
g1
(g128
g12
(dp3707
g130
I4
sg131
g132
sg133
g134
sg135
g132
sg136
I01
sg34
g137
sg138
g134
sg139
I0
sg140
I0
sg141
I0
sg142
g134
sg35
g143
sg144
I0
stRp3708
sg146
g147
sg148
F1
sg149
Nsg30
S'SpastA'
p3709
sbag1
(g2
g3
NtRp3710
(dp3711
g6
g1
(g7
g3
NtRp3712
(dp3713
g10
g1
(g11
g12
(dtRp3714
sg14
g1
(g11
g12
(dtRp3715
sg16
g1
(g11
g12
(dtRp3716
sg18
g1
(g11
g12
(dtRp3717
sg20
g1
(g11
g12
(dtRp3718
sg22
g1
(g11
g12
(dtRp3719
sbsg24
g25
sg26
g27
((lp3720
g33
ag32
ag29
ag30
atRp3721
sg37
(lp3722
g1
(g2
g3
NtRp3723
(dp3724
g6
g1
(g7
g3
NtRp3725
(dp3726
g10
g1
(g11
g12
(dtRp3727
sg14
g1
(g11
g12
(dtRp3728
sg16
g1
(g11
g12
(dtRp3729
sg18
g1
(g11
g12
(dtRp3730
sg20
g1
(g11
g12
(dtRp3731
sg22
g1
(g11
g12
(dtRp3732
sbsg24
g25
sg26
g27
((lp3733
g33
ag32
ag29
ag30
atRp3734
sg37
(lp3735
g1
(g2
g3
NtRp3736
(dp3737
g6
g1
(g7
g3
NtRp3738
(dp3739
g10
g1
(g11
g12
(dtRp3740
sg14
g1
(g11
g12
(dtRp3741
sg16
g1
(g11
g12
(dtRp3742
sg18
g1
(g11
g12
(dtRp3743
sg20
g1
(g11
g12
(dtRp3744
sg22
g1
(g11
g12
(dtRp3745
sbsg24
S'Sce'
p3746
sg26
g27
((lp3747
g29
ag30
aS'sequence'
p3748
ag32
ag33
aS'species'
p3749
atRp3750
sg37
(lp3751
sg120
g3723
sg121
S'RWLSTKDLYSRLELPGLNQNVHAMFVMPLGFGNPMGDTFPRINNAFWLPMLSLEGAGTGWTVYPPLSHSGPSVDLAFHLTSSLLGAINFTNMRGPLFWTALLLLSLPVLAGTLLDRNFNTFEGGDPLYHLFWFFGHPEVYIIPGFGSHSTYKKFGMYASIGLGFVWSHHMYVGLDDRAYFLSALMIAPTGIKFSWLALYGGRPMLAFLFLFTGGTGVLNASDAFHDTYYVVHFHYVLSMGAFSLGYYYWPGLYNLFWFNFPMHFLGGMPRRPYPDAGWNSGSSYQLGPDESNEPH'
p3752
sg123
F0.0038700000000000002
sg124
g125
sg33
S'167'
p3753
sg127
g1
(g128
g12
(dp3754
g130
I4
sg131
g132
sg133
g134
sg135
g132
sg136
I01
sg34
g137
sg138
g134
sg139
I0
sg140
I0
sg141
I0
sg142
g134
sg35
g143
sg144
I0
stRp3755
sg146
g147
sg148
F1
sg149
Nsg30
S'ScereD'
p3756
sbag1
(g2
g3
NtRp3757
(dp3758
g6
g1
(g7
g3
NtRp3759
(dp3760
g10
g1
(g11
g12
(dtRp3761
sg14
g1
(g11
g12
(dtRp3762
sg16
g1
(g11
g12
(dtRp3763
sg18
g1
(g11
g12
(dtRp3764
sg20
g1
(g11
g12
(dtRp3765
sg22
g1
(g11
g12
(dtRp3766
sbsg24
g25
sg26
g27
((lp3767
g33
ag32
ag29
ag30
atRp3768
sg37
(lp3769
g1
(g2
g3
NtRp3770
(dp3771
g6
g1
(g7
g3
NtRp3772
(dp3773
g10
g1
(g11
g12
(dtRp3774
sg14
g1
(g11
g12
(dtRp3775
sg16
g1
(g11
g12
(dtRp3776
sg18
g1
(g11
g12
(dtRp3777
sg20
g1
(g11
g12
(dtRp3778
sg22
g1
(g11
g12
(dtRp3779
sbsg24
S'Sce'
p3780
sg26
g27
((lp3781
g29
ag30
aS'sequence'
p3782
ag32
ag33
aS'species'
p3783
atRp3784
sg37
(lp3785
sg120
g3757
sg121
S'RWLSTKDLYSRLELPGLNQNVHAMFVMPLGFGNPMGDTFPRINNAFWLPMLSLEGAGTGWTVYPPLSHSGPSVDLAFHLTSSLLGAINFTNMRGPLFWTALLLLSLPVLAGTLLDRNFNTFEGGDPLYHLFWFFGHPEVYIIPGFGSHSTYKKFGMYASIGLGFVWSHHMYVGLDDRAYFLSALMIAPTGIKFSWLALYGGRPMLAFLFLFTGGTGVLNASDAFHDTYYVVHFHYVLSMGAFSLGYYYWPGLYNLFWFNFPMHFLGGMPRRPYPDAGWNSGSSYQLGPDESNEPH'
p3786
sg123
F0.0075900000000000004
sg124
g125
sg33
S'13'
p3787
sg127
g1
(g128
g12
(dp3788
g130
I4
sg131
g132
sg133
g134
sg135
g132
sg136
I01
sg34
g137
sg138
g134
sg139
I0
sg140
I0
sg141
I0
sg142
g134
sg35
g143
sg144
I0
stRp3789
sg146
g147
sg148
F1
sg149
Nsg30
S'ScereE'
p3790
sbag1
(g2
g3
NtRp3791
(dp3792
g6
g1
(g7
g3
NtRp3793
(dp3794
g10
g1
(g11
g12
(dtRp3795
sg14
g1
(g11
g12
(dtRp3796
sg16
g1
(g11
g12
(dtRp3797
sg18
g1
(g11
g12
(dtRp3798
sg20
g1
(g11
g12
(dtRp3799
sg22
g1
(g11
g12
(dtRp3800
sbsg24
g25
sg26
g27
((lp3801
g33
ag32
ag29
ag30
atRp3802
sg37
(lp3803
g1
(g2
g3
NtRp3804
(dp3805
g6
g1
(g7
g3
NtRp3806
(dp3807
g10
g1
(g11
g12
(dtRp3808
sg14
g1
(g11
g12
(dtRp3809
sg16
g1
(g11
g12
(dtRp3810
sg18
g1
(g11
g12
(dtRp3811
sg20
g1
(g11
g12
(dtRp3812
sg22
g1
(g11
g12
(dtRp3813
sbsg24
S'Sce'
p3814
sg26
g27
((lp3815
g29
ag30
aS'sequence'
p3816
ag32
ag33
aS'species'
p3817
atRp3818
sg37
(lp3819
sg120
g3791
sg121
S'RWLSTKDLYSRLELPGLNQNVHAMFVMPLGFGNPMGDTFPRINNAFWLPMLSLEGAGTGWTVYPPLSHSGPSVDLAFHLTSSLLGAINFTNMRGPLFWTALLLLSLPVLAGTLLDRNFNTFEGGDPLYHLFWFFGHPEVYIIPGFGSHSTYKKFGMYASIGLGFVWSHHMYVGLDDRAYFLSALMIAPTGIKFSWLALHGGRPMLAFLFLFTGGTGVLNASDAFHDTYYVVHFHYVLSMGAFSLGYYYWPGLYNLFWFNFPMHFLGGMPRRPYPDAGWNSGSSYQLGPDESNEPH'
p3820
sg123
F0.0053899999999999998
sg124
g125
sg33
S'80'
p3821
sg127
g1
(g128
g12
(dp3822
g130
I4
sg131
g132
sg133
g134
sg135
g132
sg136
I01
sg34
g137
sg138
g134
sg139
I0
sg140
I0
sg141
I0
sg142
g134
sg35
g143
sg144
I0
stRp3823
sg146
g147
sg148
F1
sg149
Nsg30
S'ScereC'
p3824
sbag1
(g2
g3
NtRp3825
(dp3826
g6
g1
(g7
g3
NtRp3827
(dp3828
g10
g1
(g11
g12
(dtRp3829
sg14
g1
(g11
g12
(dtRp3830
sg16
g1
(g11
g12
(dtRp3831
sg18
g1
(g11
g12
(dtRp3832
sg20
g1
(g11
g12
(dtRp3833
sg22
g1
(g11
g12
(dtRp3834
sbsg24
S'Sce'
p3835
sg26
g27
((lp3836
g29
ag30
aS'sequence'
p3837
ag32
ag33
aS'species'
p3838
atRp3839
sg37
(lp3840
sg120
g3791
sg121
S'RWLSTKDLYSRLELPGLNQNVHAMFVMPLGFGNPMGDTFPRINNAFWLPMLSLEGAGTGWTVYPPLSHSGPSVDLAFHLTSSLLGAINFTNMRGPLFWTALLLLSLPVLAGTLLDRNFNTFEGGDPLYHLFWFFGHPEVYIIPGFGSHSTYKKFGMYASIGLGFVWSHHMYVGLDDRAYFLSALMIAPTGIKFSWLALYGGRPMLAFLFLFTGGTGVLNASDAFHDTYYVVHFHYVLSMGAFSLGYYYWPGLYNLFWFNFPMHFLGGMPRRPYPDAGWNSGSSYQLGPDESNEPH'
p3841
sg123
F0.0066400000000000001
sg124
g125
sg33
S'204'
p3842
sg127
g1
(g128
g12
(dp3843
g130
I4
sg131
g132
sg133
g134
sg135
g132
sg136
I01
sg34
g137
sg138
g134
sg139
I0
sg140
I0
sg141
I0
sg142
g134
sg35
g143
sg144
I0
stRp3844
sg146
g147
sg148
F1
sg149
Nsg30
S'ScereA'
p3845
sbasg120
g3757
sg123
F0.00596
sg124
g125
sg33
S'22'
p3846
sg127
g1
(g128
g12
(dp3847
g130
I6
sg131
g132
sg133
g134
sg135
g132
sg136
I01
sg34
g174
sg138
g134
sg139
I0
sg140
I0
sg141
I0
sg142
g134
sg35
g175
sg144
I0
stRp3848
sg146
g147
sg148
F0.98999999999999999
sg149
Nsg30
S'NoName'
p3849
sbasg120
g3723
sg123
F0.0050600000000000003
sg124
g125
sg33
S'108'
p3850
sg127
g1
(g128
g12
(dp3851
g130
I6
sg131
g132
sg133
g134
sg135
g132
sg136
I01
sg34
g174
sg138
g134
sg139
I0
sg140
I0
sg141
I0
sg142
g134
sg35
g175
sg144
I0
stRp3852
sg146
g147
sg148
F0.66000000000000003
sg149
Nsg30
S'NoName'
p3853
sbasg120
g3710
sg123
F0.017850000000000001
sg124
g125
sg33
S'112'
p3854
sg127
g1
(g128
g12
(dp3855
g130
I6
sg131
g132
sg133
g134
sg135
g132
sg136
I01
sg34
g174
sg138
g134
sg139
I0
sg140
I0
sg141
I0
sg142
g134
sg35
g175
sg144
I0
stRp3856
sg146
g147
sg148
F0.89000000000000001
sg149
Nsg30
S'NoName'
p3857
sbag1
(g2
g3
NtRp3858
(dp3859
g6
g1
(g7
g3
NtRp3860
(dp3861
g10
g1
(g11
g12
(dtRp3862
sg14
g1
(g11
g12
(dtRp3863
sg16
g1
(g11
g12
(dtRp3864
sg18
g1
(g11
g12
(dtRp3865
sg20
g1
(g11
g12
(dtRp3866
sg22
g1
(g11
g12
(dtRp3867
sbsg24
S'Sar'
p3868
sg26
g27
((lp3869
g29
ag30
aS'sequence'
p3870
ag32
ag33
aS'species'
p3871
atRp3872
sg37
(lp3873
sg120
g3710
sg121
S'RWLSTKDLYSRLELPGLNQNVHAMFVMPLGFGNPMGDTFPRINNAFWLPMLSLEGAGTGWTVYPPLSHSGPSVDLAFHLTSSLLGAINFTNMRGPLFWTALLLLSLPVLAGTLLDRNFNTFEGGDPLYHLFWFFGHPEVYIIPGFGSHSTYKKFGMYASIGLGFVWSHHMYVGLDDRAYFLSALMIAPTGIKFSWLALYGGRPMLAFLFLFTGGTGVLNASDAFHDTYYVVHFHYVLSMGAFSLGYYYWPGLYNLFWFNFPMHFLGGMPRRPYPDAGWNSGSSYQLGPDESNEPH'
p3874
sg123
F0.047230000000000001
sg124
g125
sg33
S'100'
p3875
sg127
g1
(g128
g12
(dp3876
g130
I4
sg131
g132
sg133
g134
sg135
g132
sg136
I01
sg34
g137
sg138
g134
sg139
I0
sg140
I0
sg141
I0
sg142
g134
sg35
g143
sg144
I0
stRp3877
sg146
g147
sg148
F1
sg149
Nsg30
S'SarboA'
p3878
sbasg120
g3677
sg123
F0.023619999999999999
sg124
g125
sg33
S'169'
p3879
sg127
g1
(g128
g12
(dp3880
g130
I6
sg131
g132
sg133
g134
sg135
g132
sg136
I01
sg34
g174
sg138
g134
sg139
I0
sg140
I0
sg141
I0
sg142
g134
sg35
g175
sg144
I0
stRp3881
sg146
g147
sg148
F0.92000000000000004
sg149
Nsg30
S'NoName'
p3882
sbasg120
g3605
sg123
F0.18547
sg124
g125
sg33
S'135'
p3883
sg127
g1
(g128
g12
(dp3884
g130
I6
sg131
g132
sg133
g134
sg135
g132
sg136
I01
sg34
g174
sg138
g134
sg139
I0
sg140
I0
sg141
I0
sg142
g134
sg35
g175
sg144
I0
stRp3885
sg146
g147
sg148
F0.98999999999999999
sg149
Nsg30
S'NoName'
p3886
sbasg120
g3592
sg123
F0.03594
sg124
g125
sg33
S'185'
p3887
sg127
g1
(g128
g12
(dp3888
g130
I6
sg131
g132
sg133
g134
sg135
g132
sg136
I01
sg34
g174
sg138
g134
sg139
I0
sg140
I0
sg141
I0
sg142
g134
sg35
g175
sg144
I0
stRp3889
sg146
g147
sg148
F0.98999999999999999
sg149
Nsg30
S'NoName'
p3890
sbag1
(g2
g3
NtRp3891
(dp3892
g6
g1
(g7
g3
NtRp3893
(dp3894
g10
g1
(g11
g12
(dtRp3895
sg14
g1
(g11
g12
(dtRp3896
sg16
g1
(g11
g12
(dtRp3897
sg18
g1
(g11
g12
(dtRp3898
sg20
g1
(g11
g12
(dtRp3899
sg22
g1
(g11
g12
(dtRp3900
sbsg24
g25
sg26
g27
((lp3901
g33
ag32
ag29
ag30
atRp3902
sg37
(lp3903
g1
(g2
g3
NtRp3904
(dp3905
g6
g1
(g7
g3
NtRp3906
(dp3907
g10
g1
(g11
g12
(dtRp3908
sg14
g1
(g11
g12
(dtRp3909
sg16
g1
(g11
g12
(dtRp3910
sg18
g1
(g11
g12
(dtRp3911
sg20
g1
(g11
g12
(dtRp3912
sg22
g1
(g11
g12
(dtRp3913
sbsg24
g25
sg26
g27
((lp3914
g33
ag32
ag29
ag30
atRp3915
sg37
(lp3916
g1
(g2
g3
NtRp3917
(dp3918
g6
g1
(g7
g3
NtRp3919
(dp3920
g10
g1
(g11
g12
(dtRp3921
sg14
g1
(g11
g12
(dtRp3922
sg16
g1
(g11
g12
(dtRp3923
sg18
g1
(g11
g12
(dtRp3924
sg20
g1
(g11
g12
(dtRp3925
sg22
g1
(g11
g12
(dtRp3926
sbsg24
S'Nde'
p3927
sg26
g27
((lp3928
g29
ag30
aS'sequence'
p3929
ag32
ag33
aS'species'
p3930
atRp3931
sg37
(lp3932
sg120
g3904
sg121
S'RWLSTKDLYSRLELPGLNQNVHAMFVMPLGFGNPMGDMFPRLNNGFWIVPLSLEGAGTGWTVYPPLSHSGPSVDLAFHMTSSLLGAINFTNMRGPLFWTALLLLSLPVFAGTLLDRNFNTFEGGDPLYHLFWFFGHPEVYIIPGFGSHSTYKKFGMYASIGLGFVWSHHMYVGLDDRAYFTSATMIAPTGIKFSWLATYGGRPMLAFLFLFTGGTGVLNASDAFHDTYYVVHFHYVLSMGAFSTGYYYWPGLYNLFWFNFPMHFLGGMPRRPYPDAGWNSGSSYQFGPDESNEPH'
p3933
sg123
F0.063509999999999997
sg124
g125
sg33
S'0'
sg127
g1
(g128
g12
(dp3934
g130
I4
sg131
g132
sg133
g134
sg135
g132
sg136
I01
sg34
g137
sg138
g134
sg139
I0
sg140
I0
sg141
I0
sg142
g134
sg35
g143
sg144
I0
stRp3935
sg146
g147
sg148
F1
sg149
Nsg30
S'NdelpA'
p3936
sbag1
(g2
g3
NtRp3937
(dp3938
g6
g1
(g7
g3
NtRp3939
(dp3940
g10
g1
(g11
g12
(dtRp3941
sg14
g1
(g11
g12
(dtRp3942
sg16
g1
(g11
g12
(dtRp3943
sg18
g1
(g11
g12
(dtRp3944
sg20
g1
(g11
g12
(dtRp3945
sg22
g1
(g11
g12
(dtRp3946
sbsg24
S'Cgl'
p3947
sg26
g27
((lp3948
g29
ag30
aS'sequence'
p3949
ag32
ag33
aS'species'
p3950
atRp3951
sg37
(lp3952
sg120
g3904
sg121
S'RWLSTKDLYSRLELPGLNQNVHAMFVMPLGFGNPMGDMFPRLNNGFWIVPLSLEGAGTGWTVYPPLSHSGPSVDLAFHLTSSLLGSINFTNMRGPLFWTALLLLSLPVLAGTLLDRNFNTFEGGDPLYHLFWFFGHPEVYIIPGFGSHSTYKKFGMYASIGLGFVWSHHMYVGLDDRAYFTSATMIAPTGIKFSWLATYGGRPMLAFLFLFTGGTGVLNASDAFHDTYYVVHFHYVLSMGAFSTGYYYWPGLYNLFWFNFPMHFLGGMPRRPYPDAGWNSGSSYQFGPDESNEPH'
p3953
sg123
F0.03882
sg124
g125
sg33
S'40'
p3954
sg127
g1
(g128
g12
(dp3955
g130
I4
sg131
g132
sg133
g134
sg135
g132
sg136
I01
sg34
g137
sg138
g134
sg139
I0
sg140
I0
sg141
I0
sg142
g134
sg35
g143
sg144
I0
stRp3956
sg146
g147
sg148
F1
sg149
Nsg30
S'CglabA'
p3957
sbasg120
g3891
sg123
F0.16661999999999999
sg124
g125
sg33
S'95'
p3958
sg127
g1
(g128
g12
(dp3959
g130
I6
sg131
g132
sg133
g134
sg135
g132
sg136
I01
sg34
g174
sg138
g134
sg139
I0
sg140
I0
sg141
I0
sg142
g134
sg35
g175
sg144
I0
stRp3960
sg146
g147
sg148
F0.98999999999999999
sg149
Nsg30
S'NoName'
p3961
sbag1
(g2
g3
NtRp3962
(dp3963
g6
g1
(g7
g3
NtRp3964
(dp3965
g10
g1
(g11
g12
(dtRp3966
sg14
g1
(g11
g12
(dtRp3967
sg16
g1
(g11
g12
(dtRp3968
sg18
g1
(g11
g12
(dtRp3969
sg20
g1
(g11
g12
(dtRp3970
sg22
g1
(g11
g12
(dtRp3971
sbsg24
g25
sg26
g27
((lp3972
g33
ag32
ag29
ag30
atRp3973
sg37
(lp3974
g1
(g2
g3
NtRp3975
(dp3976
g6
g1
(g7
g3
NtRp3977
(dp3978
g10
g1
(g11
g12
(dtRp3979
sg14
g1
(g11
g12
(dtRp3980
sg16
g1
(g11
g12
(dtRp3981
sg18
g1
(g11
g12
(dtRp3982
sg20
g1
(g11
g12
(dtRp3983
sg22
g1
(g11
g12
(dtRp3984
sbsg24
S'Nba'
p3985
sg26
g27
((lp3986
g29
ag30
aS'sequence'
p3987
ag32
ag33
aS'species'
p3988
atRp3989
sg37
(lp3990
sg120
g3962
sg121
S'RWLSTKDLYSRMELPGLNQNVHAMFVMPLGFGNPMGDMFPRLNNGFWMPALSLEGAGTGWTVYPPLSHSGPSVDLAFHLSSSLLGAINFTNMRGPLFWTALLLFSLPVFAGTLLDRNFNTFEGGDPLYHLFWFFGHPEVYIIPGFGSHSTYKKFGMYASIGLGFVWSHHMYVGLDDRAYFTSATMIAPTGIKFSWLALYGGRPMLAFLFLFTGGTGVLNASDAFHDTYYVVHFHYVLSMGAFSVAYYYWPGLYNLFWFNFPMHFLGGMPRRPYPDAGWNSGSSYQLGPDESNEPH'
p3991
sg123
F0.29926999999999998
sg124
g125
sg33
S'20'
p3992
sg127
g1
(g128
g12
(dp3993
g130
I4
sg131
g132
sg133
g134
sg135
g132
sg136
I01
sg34
g137
sg138
g134
sg139
I0
sg140
I0
sg141
I0
sg142
g134
sg35
g143
sg144
I0
stRp3994
sg146
g147
sg148
F1
sg149
Nsg30
S'NbaciA'
p3995
sbag1
(g2
g3
NtRp3996
(dp3997
g6
g1
(g7
g3
NtRp3998
(dp3999
g10
g1
(g11
g12
(dtRp4000
sg14
g1
(g11
g12
(dtRp4001
sg16
g1
(g11
g12
(dtRp4002
sg18
g1
(g11
g12
(dtRp4003
sg20
g1
(g11
g12
(dtRp4004
sg22
g1
(g11
g12
(dtRp4005
sbsg24
S'Cca'
p4006
sg26
g27
((lp4007
g29
ag30
aS'sequence'
p4008
ag32
ag33
aS'species'
p4009
atRp4010
sg37
(lp4011
sg120
g3962
sg121
S'RWLSTKDLYSRLELPGLNQNVHAMFVMPLGIGNPMGDTFPRLNNGFWLPPLSLEGAGTGWTVYPPLSHSGPSVDLAFHLTSSLLGAINFTNMRGPLFWTALLLFSLPVFAGTLLDRNFNTFEGGDPLYHVFWFFGHPEVYIIPGFGSHSTYKKFGMYASIGLGFVWSHHMYVGLDDRAYFTSALMIAPTGIKFSWLATFGGRPMLAFLFLFTGGTGVLNASDAFHDTYYVVHFHYVLSMGAFSLGYYYWPGLYNLFWFNFPMHFLGGMPRRPYPDAGWNSGSSYQLGPDESNEPH'
p4012
sg123
F0.26266
sg124
g125
sg33
S'68'
p4013
sg127
g1
(g128
g12
(dp4014
g130
I4
sg131
g132
sg133
g134
sg135
g132
sg136
I01
sg34
g137
sg138
g134
sg139
I0
sg140
I0
sg141
I0
sg142
g134
sg35
g143
sg144
I0
stRp4015
sg146
g147
sg148
F1
sg149
Nsg30
S'CcastA'
p4016
sbasg120
g3891
sg123
F0.15296999999999999
sg124
g125
sg33
S'154'
p4017
sg127
g1
(g128
g12
(dp4018
g130
I6
sg131
g132
sg133
g134
sg135
g132
sg136
I01
sg34
g174
sg138
g134
sg139
I0
sg140
I0
sg141
I0
sg142
g134
sg35
g175
sg144
I0
stRp4019
sg146
g147
sg148
F0.98999999999999999
sg149
Nsg30
S'NoName'
p4020
sbasg120
g3592
sg123
F0.042560000000000001
sg124
g125
sg33
S'189'
p4021
sg127
g1
(g128
g12
(dp4022
g130
I6
sg131
g132
sg133
g134
sg135
g132
sg136
I01
sg34
g174
sg138
g134
sg139
I0
sg140
I0
sg141
I0
sg142
g134
sg35
g175
sg144
I0
stRp4023
sg146
g147
sg148
F0.84999999999999998
sg149
Nsg30
S'NoName'
p4024
sbasg120
g3558
sg123
F0.094020000000000006
sg124
g125
sg33
S'86'
p4025
sg127
g1
(g128
g12
(dp4026
g130
I6
sg131
g132
sg133
g134
sg135
g132
sg136
I01
sg34
g174
sg138
g134
sg139
I0
sg140
I0
sg141
I0
sg142
g134
sg35
g175
sg144
I0
stRp4027
sg146
g147
sg148
F0.55000000000000004
sg149
Nsg30
S'NoName'
p4028
sbasg120
g3034
sg123
F0.11952
sg124
g125
sg33
S'161'
p4029
sg127
g1
(g128
g12
(dp4030
g130
I6
sg131
g132
sg133
g134
sg135
g132
sg136
I01
sg34
g174
sg138
g134
sg139
I0
sg140
I0
sg141
I0
sg142
g134
sg35
g175
sg144
I0
stRp4031
sg146
g147
sg148
F0.69999999999999996
sg149
Nsg30
S'NoName'
p4032
sbasg120
g3021
sg123
F0.029839999999999998
sg124
g125
sg33
S'75'
p4033
sg127
g1
(g128
g12
(dp4034
g130
I6
sg131
g132
sg133
g134
sg135
g132
sg136
I01
sg34
g174
sg138
g134
sg139
I0
sg140
I0
sg141
I0
sg142
g134
sg35
g175
sg144
I0
stRp4035
sg146
g147
sg148
F0.82999999999999996
sg149
Nsg30
S'NoName'
p4036
sbag1
(g2
g3
NtRp4037
(dp4038
g6
g1
(g7
g3
NtRp4039
(dp4040
g10
g1
(g11
g12
(dtRp4041
sg14
g1
(g11
g12
(dtRp4042
sg16
g1
(g11
g12
(dtRp4043
sg18
g1
(g11
g12
(dtRp4044
sg20
g1
(g11
g12
(dtRp4045
sg22
g1
(g11
g12
(dtRp4046
sbsg24
g25
sg26
g27
((lp4047
g33
ag32
ag29
ag30
atRp4048
sg37
(lp4049
g1
(g2
g3
NtRp4050
(dp4051
g6
g1
(g7
g3
NtRp4052
(dp4053
g10
g1
(g11
g12
(dtRp4054
sg14
g1
(g11
g12
(dtRp4055
sg16
g1
(g11
g12
(dtRp4056
sg18
g1
(g11
g12
(dtRp4057
sg20
g1
(g11
g12
(dtRp4058
sg22
g1
(g11
g12
(dtRp4059
sbsg24
S'Aac'
p4060
sg26
g27
((lp4061
g29
ag30
aS'sequence'
p4062
ag32
ag33
aS'species'
p4063
atRp4064
sg37
(lp4065
sg120
g4037
sg121
S'RWLSTKDLYSRMELPGLQQNVHLMFVMPLGFGNPMGDMFARLNNSFWLPPLSMEGLGTGWTVYPPLAHSGASVDLAFHLTSSLLGLINFTNMRGPLFWTAMLLMSLPVLAGTLLDRNFNTFEGGDPLYHLFWFFGHPEVYIIPLFGSHSTYKKFGMYASIGLGFVWSHHMYVGLDDRAYFTSLTMILPTSIKFSWLLTYGGRPMLAFLFLFTGGTGVLNLSDLFHDTYYVVHFHYVLSLGAFSMGYYYWPGLYNLFWFNFPMHFLGGMPRRPYPDLGWNSGSSYQLGPDESNEPH'
p4066
sg123
F0.028920000000000001
sg124
g125
sg33
S'70'
p4067
sg127
g1
(g128
g12
(dp4068
g130
I4
sg131
g132
sg133
g134
sg135
g132
sg136
I01
sg34
g137
sg138
g134
sg139
I0
sg140
I0
sg141
I0
sg142
g134
sg35
g143
sg144
I0
stRp4069
sg146
g147
sg148
F1
sg149
Nsg30
S'AacerA'
p4070
sbag1
(g2
g3
NtRp4071
(dp4072
g6
g1
(g7
g3
NtRp4073
(dp4074
g10
g1
(g11
g12
(dtRp4075
sg14
g1
(g11
g12
(dtRp4076
sg16
g1
(g11
g12
(dtRp4077
sg18
g1
(g11
g12
(dtRp4078
sg20
g1
(g11
g12
(dtRp4079
sg22
g1
(g11
g12
(dtRp4080
sbsg24
g25
sg26
g27
((lp4081
g33
ag32
ag29
ag30
atRp4082
sg37
(lp4083
g1
(g2
g3
NtRp4084
(dp4085
g6
g1
(g7
g3
NtRp4086
(dp4087
g10
g1
(g11
g12
(dtRp4088
sg14
g1
(g11
g12
(dtRp4089
sg16
g1
(g11
g12
(dtRp4090
sg18
g1
(g11
g12
(dtRp4091
sg20
g1
(g11
g12
(dtRp4092
sg22
g1
(g11
g12
(dtRp4093
sbsg24
S'Ago'
p4094
sg26
g27
((lp4095
g29
ag30
aS'sequence'
p4096
ag32
ag33
aS'species'
p4097
atRp4098
sg37
(lp4099
sg120
g4071
sg121
S'RWLSTKDLYSRMELPGLQQNVHLMFVMPLGFGNPMGDMFARLNNSFWLPPLSMEGLGTGWTVYPPLSHSGASVDLAFHLTSSLLGLINFTNMRGPLFWTAMLLMSLPVLAGTLLDRNFNTFEGGDPLYHLFWFFGHPEVYIIPLFGSHSTYKKFGMYLSISLGFVWSHHMYVGLDDRAYFTSATMILPTSIKFSWLLTYGGRPMLLFLFLFTGGTGVLNLSDAFHDTYYVVHFHYVLSLGAFSMGYYYWPGLYNLFWFNFPMHFLGGMPRRPYPDLGWNSGSSYQLGPDESNEPH'
p4100
sg123
F0.00088000000000000003
sg124
g125
sg33
S'119'
p4101
sg127
g1
(g128
g12
(dp4102
g130
I4
sg131
g132
sg133
g134
sg135
g132
sg136
I01
sg34
g137
sg138
g134
sg139
I0
sg140
I0
sg141
I0
sg142
g134
sg35
g143
sg144
I0
stRp4103
sg146
g147
sg148
F1
sg149
Nsg30
S'AgossB'
p4104
sbag1
(g2
g3
NtRp4105
(dp4106
g6
g1
(g7
g3
NtRp4107
(dp4108
g10
g1
(g11
g12
(dtRp4109
sg14
g1
(g11
g12
(dtRp4110
sg16
g1
(g11
g12
(dtRp4111
sg18
g1
(g11
g12
(dtRp4112
sg20
g1
(g11
g12
(dtRp4113
sg22
g1
(g11
g12
(dtRp4114
sbsg24
S'Ago'
p4115
sg26
g27
((lp4116
g29
ag30
aS'sequence'
p4117
ag32
ag33
aS'species'
p4118
atRp4119
sg37
(lp4120
sg120
g4071
sg121
S'RWLSTKDLYSRMELPGLQQNVHLMFVMPLGFGNPMGDMFARLNNSFWLPPLSMEGLGTGWTVYPPLSHSGASVDLAFHLTSSLLGLINFTNMRGPLFWTAMLLMSLPVLAGTLLDRNFNTFEGGDPLYHLFWFFGHPEVYIIPLFGSHSTYKKFGMYLSISLGFVWSHHMYVGLDDRAYFTSATMILPTSIKFSWLLTYGGRPMLLFLFLFTGGTGVLNLSDAFHDTYYVVHFHYVLSLGAFSMGYYYWPGLYNLFWFNFPMHFLGGMPRRPYPDLGWNSGSSYQLGPDESNEPH'
p4121
sg123
F0.0023999999999999998
sg124
g125
sg33
S'116'
p4122
sg127
g1
(g128
g12
(dp4123
g130
I4
sg131
g132
sg133
g134
sg135
g132
sg136
I01
sg34
g137
sg138
g134
sg139
I0
sg140
I0
sg141
I0
sg142
g134
sg35
g143
sg144
I0
stRp4124
sg146
g147
sg148
F1
sg149
Nsg30
S'AgossA'
p4125
sbasg120
g4037
sg123
F0.075329999999999994
sg124
g125
sg33
S'219'
p4126
sg127
g1
(g128
g12
(dp4127
g130
I6
sg131
g132
sg133
g134
sg135
g132
sg136
I01
sg34
g174
sg138
g134
sg139
I0
sg140
I0
sg141
I0
sg142
g134
sg35
g175
sg144
I0
stRp4128
sg146
g147
sg148
F0.98999999999999999
sg149
Nsg30
S'NoName'
p4129
sbasg120
g3021
sg123
F0.56830999999999998
sg124
g125
sg33
S'5'
sg127
g1
(g128
g12
(dp4130
g130
I6
sg131
g132
sg133
g134
sg135
g132
sg136
I01
sg34
g174
sg138
g134
sg139
I0
sg140
I0
sg141
I0
sg142
g134
sg35
g175
sg144
I0
stRp4131
sg146
g147
sg148
F0.98999999999999999
sg149
Nsg30
S'NoName'
p4132
sbasg120
g2683
sg123
F0.14305999999999999
sg124
g125
sg33
S'72'
p4133
sg127
g1
(g128
g12
(dp4134
g130
I6
sg131
g132
sg133
g134
sg135
g132
sg136
I01
sg34
g174
sg138
g134
sg139
I0
sg140
I0
sg141
I0
sg142
g134
sg35
g175
sg144
I0
stRp4135
sg146
g147
sg148
F0.96999999999999997
sg149
Nsg30
S'NoName'
p4136
sbasg120
g2497
sg123
F0.26834000000000002
sg124
g125
sg33
S'94'
p4137
sg127
g1
(g128
g12
(dp4138
g130
I6
sg131
g132
sg133
g134
sg135
g132
sg136
I01
sg34
g174
sg138
g134
sg139
I0
sg140
I0
sg141
I0
sg142
g134
sg35
g175
sg144
I0
stRp4139
sg146
g147
sg148
F0.97999999999999998
sg149
Nsg30
S'NoName'
p4140
sbasg120
g678
sg123
F0.062890000000000001
sg124
g125
sg33
S'26'
p4141
sg127
g1
(g128
g12
(dp4142
g130
I6
sg131
g132
sg133
g134
sg135
g132
sg136
I01
sg34
g174
sg138
g134
sg139
I0
sg140
I0
sg141
I0
sg142
g134
sg35
g175
sg144
I0
stRp4143
sg146
g147
sg148
F0.67000000000000004
sg149
Nsg30
S'NoName'
p4144
sbasg120
g266
sg123
F0.52025999999999994
sg124
g125
sg33
S'192'
p4145
sg127
g1
(g128
g12
(dp4146
g130
I6
sg131
g132
sg133
g134
sg135
g132
sg136
I01
sg34
g174
sg138
g134
sg139
I0
sg140
I0
sg141
I0
sg142
g134
sg35
g175
sg144
I0
stRp4147
sg146
g147
sg148
F0.97999999999999998
sg149
Nsg30
S'NoName'
p4148
sbasg120
g52
sg123
F0.11274000000000001
sg124
g125
sg33
S'61'
p4149
sg127
g1
(g128
g12
(dp4150
g130
I6
sg131
g132
sg133
g134
sg135
g132
sg136
I01
sg34
g174
sg138
g134
sg139
I0
sg140
I0
sg141
I0
sg142
g134
sg35
g175
sg144
I0
stRp4151
sg146
g147
sg148
F0.88
sg149
Nsg30
S'NoName'
p4152
sbasg120
g39
sg123
F0.33485999999999999
sg124
g125
sg33
S'96'
p4153
sg127
g1
(g128
g12
(dp4154
g130
I6
sg131
g132
sg133
g134
sg135
g132
sg136
I01
sg34
g174
sg138
g134
sg139
I0
sg140
I0
sg141
I0
sg142
g134
sg35
g175
sg144
I0
stRp4155
sg146
g147
sg148
F0.95999999999999996
sg149
Nsg30
S'NoName'
p4156
sbag1
(g2
g3
NtRp4157
(dp4158
g6
g1
(g7
g3
NtRp4159
(dp4160
g10
g1
(g11
g12
(dtRp4161
sg14
g1
(g11
g12
(dtRp4162
sg16
g1
(g11
g12
(dtRp4163
sg18
g1
(g11
g12
(dtRp4164
sg20
g1
(g11
g12
(dtRp4165
sg22
g1
(g11
g12
(dtRp4166
sbsg24
S'Lst'
p4167
sg26
g27
((lp4168
g29
ag30
aS'sequence'
p4169
ag32
ag33
aS'species'
p4170
atRp4171
sg37
(lp4172
sg120
g39
sg121
S'RWLSTKDLYSRMELPGLNHNVHAMFVMPLGFGNPLGDMFPRLNNSFWLPPLSFEGAGTGWTVYPPLSHSGASVDLAFHLSSSMLGAMNFTNMRGPLFWTALLLLSLPVLGATLLDRNFNTFEGGDPLYHLFWFFGHPEVYIIPGFGSHCTYEKFGMYASMGLGFVWSHHMFVGLDERAYFTAATMIAPTGMKFSWLATYGGTPMVAFLFLFTGGTGVLNASDAFHDTYYVVHFHYVLSMGAFALGYYYWPGLYKYFWFNFPMHFLGGMPRRPYPDAGWNSGSAIQLGPQATKEPH'
p4173
sg123
F1.13117
sg124
g125
sg33
S'147'
p4174
sg127
g1
(g128
g12
(dp4175
g130
I4
sg131
g132
sg133
g134
sg135
g132
sg136
I01
sg34
g137
sg138
g134
sg139
I0
sg140
I0
sg141
I0
sg142
g134
sg35
g143
sg144
I0
stRp4176
sg146
g147
sg148
F1
sg149
Nsg30
S'LstarA'
p4177
sbasg120
g4
sg123
F0.46844999999999998
sg124
g125
sg33
S'41'
p4178
sg127
g1
(g128
g12
(dp4179
g130
I6
sg131
g132
sg133
g134
sg135
g132
sg136
I01
sg34
g174
sg138
g134
sg139
I0
sg140
I0
sg141
I0
sg142
g134
sg35
g175
sg144
I0
stRp4180
sg146
g147
sg148
F1
sg149
Nsg30
S'NoName'
p4181
sbag1
(g2
g3
NtRp4182
(dp4183
g6
g1
(g7
g3
NtRp4184
(dp4185
g10
g1
(g11
g12
(dtRp4186
sg14
g1
(g11
g12
(dtRp4187
sg16
g1
(g11
g12
(dtRp4188
sg18
g1
(g11
g12
(dtRp4189
sg20
g1
(g11
g12
(dtRp4190
sg22
g1
(g11
g12
(dtRp4191
sbsg24
g25
sg26
g27
((lp4192
g33
ag32
ag29
ag30
atRp4193
sg37
(lp4194
g1
(g2
g3
NtRp4195
(dp4196
g6
g1
(g7
g3
NtRp4197
(dp4198
g10
g1
(g11
g12
(dtRp4199
sg14
g1
(g11
g12
(dtRp4200
sg16
g1
(g11
g12
(dtRp4201
sg18
g1
(g11
g12
(dtRp4202
sg20
g1
(g11
g12
(dtRp4203
sg22
g1
(g11
g12
(dtRp4204
sbsg24
S'Sja'
p4205
sg26
g27
((lp4206
g29
ag30
aS'sequence'
p4207
ag32
ag33
aS'species'
p4208
atRp4209
sg37
(lp4210
sg120
g4182
sg121
S'RWLSTKDLYSRLELPGLNQNVHGMFILPLGFGNPLGDVYPRMNNSFWLPPLSLEGPGVGWTMYYPLSHSGLSVDLLMQLTSSTLGSINLTNMRGPLFWTSLLVLTLPVLGGILLDRNWNTFAGGDPLYHLFWFFGHPEVYIIPAFGSHSTFHKFGMYASIALGCVWSHHLYVGLDDRAYFTAATMIAPTGIKFSWLATSGGEPMLVFLILFTGGTGVLNSVDAFHDTYFVVHFHYVLSMGAMGLAYYFWPGLYNMFWFNFPQHFLGNYPRRPYPDAGWNSGSSYQFNPNDSNEPH'
p4211
sg123
F1.0686599999999999
sg124
g125
sg33
S'178'
p4212
sg127
g1
(g128
g12
(dp4213
g130
I4
sg131
g132
sg133
g134
sg135
g132
sg136
I01
sg34
g137
sg138
g134
sg139
I0
sg140
I0
sg141
I0
sg142
g134
sg35
g143
sg144
I0
stRp4214
sg146
g147
sg148
F1
sg149
Nsg30
S'SjapoA'
p4215
sbag1
(g2
g3
NtRp4216
(dp4217
g6
g1
(g7
g3
NtRp4218
(dp4219
g10
g1
(g11
g12
(dtRp4220
sg14
g1
(g11
g12
(dtRp4221
sg16
g1
(g11
g12
(dtRp4222
sg18
g1
(g11
g12
(dtRp4223
sg20
g1
(g11
g12
(dtRp4224
sg22
g1
(g11
g12
(dtRp4225
sbsg24
g25
sg26
g27
((lp4226
g33
ag32
ag29
ag30
atRp4227
sg37
(lp4228
g1
(g2
g3
NtRp4229
(dp4230
g6
g1
(g7
g3
NtRp4231
(dp4232
g10
g1
(g11
g12
(dtRp4233
sg14
g1
(g11
g12
(dtRp4234
sg16
g1
(g11
g12
(dtRp4235
sg18
g1
(g11
g12
(dtRp4236
sg20
g1
(g11
g12
(dtRp4237
sg22
g1
(g11
g12
(dtRp4238
sbsg24
S'Spo'
p4239
sg26
g27
((lp4240
g29
ag30
aS'sequence'
p4241
ag32
ag33
aS'species'
p4242
atRp4243
sg37
(lp4244
sg120
g4216
sg121
S'RWMSTKDLYSRMELPGLNQNVHGMFIIPLGFGNPMGDVYPRVNNTFWLPPLSLEGPGGGWTVYPPLSHSGPAIDLALQLTSSTLGSVNLTNMRGPLFWTSLLLLTLPVLGGFLFDRNLNTFAGGDPLYHLFWFFGHPEVYIIPAFGSHPSLHKFGMWASIALGLVWSHHLFVGLDDRAYFSAATMIAPTGIKFSWLATTGGQPMLAFLILFTGGTGVLNSVDAFHDTYFVVHFHYVLSMGAFGLAYY-WPGLYNLFWFNFPQHFLGGMPRRPYPEAGWNSGSSYQFNPSDDNEPH'
p4245
sg123
F0.12372
sg124
g125
sg33
S'67'
p4246
sg127
g1
(g128
g12
(dp4247
g130
I4
sg131
g132
sg133
g134
sg135
g132
sg136
I01
sg34
g137
sg138
g134
sg139
I0
sg140
I0
sg141
I0
sg142
g134
sg35
g143
sg144
I0
stRp4248
sg146
g147
sg148
F1
sg149
Nsg30
S'SpombA'
p4249
sbag1
(g2
g3
NtRp4250
(dp4251
g6
g1
(g7
g3
NtRp4252
(dp4253
g10
g1
(g11
g12
(dtRp4254
sg14
g1
(g11
g12
(dtRp4255
sg16
g1
(g11
g12
(dtRp4256
sg18
g1
(g11
g12
(dtRp4257
sg20
g1
(g11
g12
(dtRp4258
sg22
g1
(g11
g12
(dtRp4259
sbsg24
g25
sg26
g27
((lp4260
g33
ag32
ag29
ag30
atRp4261
sg37
(lp4262
g1
(g2
g3
NtRp4263
(dp4264
g6
g1
(g7
g3
NtRp4265
(dp4266
g10
g1
(g11
g12
(dtRp4267
sg14
g1
(g11
g12
(dtRp4268
sg16
g1
(g11
g12
(dtRp4269
sg18
g1
(g11
g12
(dtRp4270
sg20
g1
(g11
g12
(dtRp4271
sg22
g1
(g11
g12
(dtRp4272
sbsg24
S'Soc'
p4273
sg26
g27
((lp4274
g29
ag30
aS'sequence'
p4275
ag32
ag33
aS'species'
p4276
atRp4277
sg37
(lp4278
sg120
g4250
sg121
S'RWLSTKDLYSRMELPGLNQNVHGMFIIPLGFGNPMGDVYPRVNNTFWLPPLSLEGPGTGWTVYPPLSHSGPAVDLALQLTSSTLGSLNLTNMRGPLFWTSLLLLTLPVLGGFLFDRNLNTFAGGDPLYHLFWFFGHPEVYIIPAFGSHSTLNKFGMCASIALGLVWSHHLFVGLDDRAYFSAATMIAPTGIKFSWLATTGGQPMLAFLILFTGGTGVLNSVDAFHDTYFVVHFHYVLSMGAFGLAYYFWPGLYNLFWFNFPQHFLGGMPRRPYPDAGWNSGSSYQYNPSDDNEPH'
p4279
sg123
F0.03637
sg124
g125
sg33
S'38'
p4280
sg127
g1
(g128
g12
(dp4281
g130
I4
sg131
g132
sg133
g134
sg135
g132
sg136
I01
sg34
g137
sg138
g134
sg139
I0
sg140
I0
sg141
I0
sg142
g134
sg35
g143
sg144
I0
stRp4282
sg146
g147
sg148
F1
sg149
Nsg30
S'SoctoA'
p4283
sbag1
(g2
g3
NtRp4284
(dp4285
g6
g1
(g7
g3
NtRp4286
(dp4287
g10
g1
(g11
g12
(dtRp4288
sg14
g1
(g11
g12
(dtRp4289
sg16
g1
(g11
g12
(dtRp4290
sg18
g1
(g11
g12
(dtRp4291
sg20
g1
(g11
g12
(dtRp4292
sg22
g1
(g11
g12
(dtRp4293
sbsg24
S'Scr'
p4294
sg26
g27
((lp4295
g29
ag30
aS'sequence'
p4296
ag32
ag33
aS'species'
p4297
atRp4298
sg37
(lp4299
sg120
g4250
sg121
S'RWLSTKDLYSRMELPGLNQNVHGMFIIPLGFGNPMGDVYPRVNNTYWLPPLSLEGPGTGWTVYPPLSHSGPSVDLALQLTSSTLGSLNLTNMRGPLFWTSLLLLTLPVLGGFLFDRNLNTFAGGDPLYHLFWFFGHPEVYIIPAFGSHPTLNKFGMCASIALGLVWSHHLFVGLDDRAYFSAATMIAPTGIKFSWLATTGGQPMLAFLILFTGGTGVLNSVDAFHDTYFVVHFHYVLSMGAFGLAYYFWPGLYNLFWFNFPQHFLGGMPRRPYPDAGWNSGSSYQYNPSDDNEPH'
p4300
sg123
F0.036740000000000002
sg124
g125
sg33
S'62'
p4301
sg127
g1
(g128
g12
(dp4302
g130
I4
sg131
g132
sg133
g134
sg135
g132
sg136
I01
sg34
g137
sg138
g134
sg139
I0
sg140
I0
sg141
I0
sg142
g134
sg35
g143
sg144
I0
stRp4303
sg146
g147
sg148
F1
sg149
Nsg30
S'ScryoA'
p4304
sbasg120
g4216
sg123
F0.18453
sg124
g125
sg33
S'84'
p4305
sg127
g1
(g128
g12
(dp4306
g130
I6
sg131
g132
sg133
g134
sg135
g132
sg136
I01
sg34
g174
sg138
g134
sg139
I0
sg140
I0
sg141
I0
sg142
g134
sg35
g175
sg144
I0
stRp4307
sg146
g147
sg148
F0.98999999999999999
sg149
Nsg30
S'NoName'
p4308
sbasg120
g4182
sg123
F0.73307
sg124
g125
sg33
S'47'
p4309
sg127
g1
(g128
g12
(dp4310
g130
I6
sg131
g132
sg133
g134
sg135
g132
sg136
I01
sg34
g174
sg138
g134
sg139
I0
sg140
I0
sg141
I0
sg142
g134
sg35
g175
sg144
I0
stRp4311
sg146
g147
sg148
F0.98999999999999999
sg149
Nsg30
S'NoName'
p4312
sbasg120
g4
sg123
F1.7741899999999999
sg124
g125
sg33
S'195'
p4313
sg127
g1
(g128
g12
(dp4314
g130
I6
sg131
g132
sg133
g134
sg135
g132
sg136
I01
sg34
g174
sg138
g134
sg139
I0
sg140
I0
sg141
I0
sg142
g134
sg35
g175
sg144
I0
stRp4315
sg146
g147
sg148
F1
sg149
Nsg30
S'NoName'
p4316
sbasg31
S'8'
sg120
Nsg123
F0
sg124
g125
sg33
S'121'
p4317
sg34
S'sphere'
p4318
sg127
g1
(g128
g12
(dp4319
g130
I6
sg131
g132
sg133
g134
sg135
g132
sg136
I01
sg34
g174
sg138
g134
sg139
I0
sg140
I0
sg141
I0
sg142
g134
sg35
g175
sg144
I0
stRp4320
sg146
g147
sg148
F1
sg149
Nsg35
S'#833DB4'
p4321
sg30
g125
sb.