ccopy_reg
_reconstructor
p1
(cete2.phylo.phylotree
PhyloNode
p2
c__builtin__
object
p3
NtRp4
(dp5
S'_faces'
p6
g1
(cete2.treeview.main
_FaceAreas
p7
g3
NtRp8
(dp9
S'branch-top'
p10
g1
(cete2.treeview.main
FaceContainer
p11
c__builtin__
dict
p12
(dtRp13
sS'float'
p14
g1
(g11
g12
(dtRp15
sS'branch-bottom'
p16
g1
(g11
g12
(dtRp17
sS'aligned'
p18
g1
(g11
g12
(dtRp19
sS'branch-right'
p20
g1
(g11
g12
(dtRp21
sS'float-behind'
p22
g1
(g11
g12
(dtRp23
sbsS'_species'
p24
S'Unknown'
p25
sS'features'
p26
c__builtin__
set
p27
((lp28
S'dist'
p29
aS'name'
p30
aS'bsize'
p31
aS'support'
p32
aS'_nid'
p33
aS'shape'
p34
aS'fgcolor'
p35
atRp36
sS'_children'
p37
(lp38
g1
(g2
g3
NtRp39
(dp40
g6
g1
(g7
g3
NtRp41
(dp42
g10
g1
(g11
g12
(dtRp43
sg14
g1
(g11
g12
(dtRp44
sg16
g1
(g11
g12
(dtRp45
sg18
g1
(g11
g12
(dtRp46
sg20
g1
(g11
g12
(dtRp47
sg22
g1
(g11
g12
(dtRp48
sbsg24
g25
sS'hide'
p49
I1
sg26
g27
((lp50
g49
ag30
ag31
ag32
ag33
ag34
ag29
ag35
atRp51
sg37
(lp52
g1
(g2
g3
NtRp53
(dp54
g6
g1
(g7
g3
NtRp55
(dp56
g10
g1
(g11
g12
(dtRp57
sg14
g1
(g11
g12
(dtRp58
sg16
g1
(g11
g12
(dtRp59
sg18
g1
(g11
g12
(dtRp60
sg20
g1
(g11
g12
(dtRp61
sg22
g1
(g11
g12
(dtRp62
sbsg24
g25
sg49
I1
sg26
g27
((lp63
g49
ag30
ag31
ag32
ag33
ag34
ag29
ag35
atRp64
sg37
(lp65
g1
(g2
g3
NtRp66
(dp67
g6
g1
(g7
g3
NtRp68
(dp69
g10
g1
(g11
g12
(dtRp70
sg14
g1
(g11
g12
(dtRp71
sg16
g1
(g11
g12
(dtRp72
sg18
g1
(g11
g12
(dtRp73
sg20
g1
(g11
g12
(dtRp74
sg22
g1
(g11
g12
(dtRp75
sbsg24
g25
sg26
g27
((lp76
g33
ag32
ag29
ag30
atRp77
sg37
(lp78
g1
(g2
g3
NtRp79
(dp80
g6
g1
(g7
g3
NtRp81
(dp82
g10
g1
(g11
g12
(dtRp83
sg14
g1
(g11
g12
(dtRp84
sg16
g1
(g11
g12
(dtRp85
sg18
g1
(g11
g12
(dtRp86
sg20
g1
(g11
g12
(dtRp87
sg22
g1
(g11
g12
(dtRp88
sbsg24
g25
sg26
g27
((lp89
g33
ag32
ag29
ag30
atRp90
sg37
(lp91
g1
(g2
g3
NtRp92
(dp93
g6
g1
(g7
g3
NtRp94
(dp95
g10
g1
(g11
g12
(dtRp96
sg14
g1
(g11
g12
(dtRp97
sg16
g1
(g11
g12
(dtRp98
sg18
g1
(g11
g12
(dtRp99
sg20
g1
(g11
g12
(dtRp100
sg22
g1
(g11
g12
(dtRp101
sbsg24
g25
sg26
g27
((lp102
g33
ag32
ag29
ag30
atRp103
sg37
(lp104
g1
(g2
g3
NtRp105
(dp106
g6
g1
(g7
g3
NtRp107
(dp108
g10
g1
(g11
g12
(dtRp109
sg14
g1
(g11
g12
(dtRp110
sg16
g1
(g11
g12
(dtRp111
sg18
g1
(g11
g12
(dtRp112
sg20
g1
(g11
g12
(dtRp113
sg22
g1
(g11
g12
(dtRp114
sbsg24
S'Yli'
p115
sg26
g27
((lp116
g29
ag30
aS'sequence'
p117
ag32
ag33
aS'species'
p118
atRp119
sg37
(lp120
sS'_up'
p121
g92
sS'sequence'
p122
S'RWLSTKDLYSRLELTGLNQNVHAMFVMPLGFGNPMGDMFARLNNSFWLVPLSLEGAGTGWTVYFPLAHSGPAVDLAFHLSSSLLGAINFTNMRGPLFWTALLLLSLPVLAGTGIDRNFNTFEGGDALYHLFWFFGHPEVYIIPGFGSHSAISKFGMYASIGLGFVWSHHMFVGLDDRAYFTSATMIAPTSIKFSWLATYGGRTALAFIFLFTGGTGVLNSADPFHDSYYVVHFHYVLSMGAFSIGWYLWPGLYNLFWFNFPMHFLGGMPRRNYPDAGWNSGSAYQLGPSGTNEPH'
p123
sS'_dist'
p124
F0.00011
sS'_name'
p125
S'NoName'
p126
sg33
S'185'
p127
sS'_img_style'
p128
g1
(cete2.treeview.main
NodeStyle
p129
g12
(dp130
S'size'
p131
I4
sS'hz_line_color'
p132
S'#000000'
p133
sS'faces_bgcolor'
p134
S'#FFFFFF'
p135
sS'vt_line_color'
p136
g133
sS'draw_descendants'
p137
I01
sg34
S'square'
p138
sS'bgcolor'
p139
g135
sS'hz_line_type'
p140
I0
sS'vt_line_width'
p141
I0
sS'vt_line_type'
p142
I0
sS'node_bgcolor'
p143
g135
sg35
S'#000000'
p144
sS'hz_line_width'
p145
I0
stRp146
sS'_speciesFunction'
p147
cete2.phylo.phylotree
_parse_species
p148
sS'_support'
p149
F1
sS'_temp_faces'
p150
Nsg30
S'YlipoB'
p151
sbag1
(g2
g3
NtRp152
(dp153
g6
g1
(g7
g3
NtRp154
(dp155
g10
g1
(g11
g12
(dtRp156
sg14
g1
(g11
g12
(dtRp157
sg16
g1
(g11
g12
(dtRp158
sg18
g1
(g11
g12
(dtRp159
sg20
g1
(g11
g12
(dtRp160
sg22
g1
(g11
g12
(dtRp161
sbsg24
S'Yli'
p162
sg26
g27
((lp163
g29
ag30
aS'sequence'
p164
ag32
ag33
aS'species'
p165
atRp166
sg37
(lp167
sg121
g92
sg122
S'RWLSTKDLYSRLELTGLNQNVHAMFVMPLGFGNPMGDMFARLNNSFWLVPLSLEGAGTGWTVYFPLAHSGPAVDLAFHLSSSLLGAINFTNMRGPLFWTALLLLSLPVLAGTGIDRNFNTFEGGDALYHLFWFFGHPEVYIIPGFGSHSAISKFGMYASIGLGFVWSHHMFVGLDDRAYFTSATMIAPTSIKFSWLATYGGRTALAFIFLFTGGTGVLNSADPFHDSYYVVHFHYVLSMGAFSIGWYLWPGLYNLFWFNFPMHFLGGMPRRNYPDAGWNSGSAYQLGPSGTNEPH'
p168
sg124
F0.00048000000000000001
sg125
g126
sg33
S'187'
p169
sg128
g1
(g129
g12
(dp170
g131
I4
sg132
g133
sg134
g135
sg136
g133
sg137
I01
sg34
g138
sg139
g135
sg140
I0
sg141
I0
sg142
I0
sg143
g135
sg35
g144
sg145
I0
stRp171
sg147
g148
sg149
F1
sg150
Nsg30
S'YlipoA'
p172
sbasg121
g79
sg124
F0.02656
sg125
g126
sg33
S'182'
p173
sg128
g1
(g129
g12
(dp174
g131
I6
sg132
g133
sg134
g135
sg136
g133
sg137
I01
sg34
S'circle'
p175
sg139
g135
sg140
I0
sg141
I0
sg142
I0
sg143
g135
sg35
S'#0030c1'
p176
sg145
I0
stRp177
sg147
g148
sg149
F1
sg150
Nsg30
S'NoName'
p178
sbag1
(g2
g3
NtRp179
(dp180
g6
g1
(g7
g3
NtRp181
(dp182
g10
g1
(g11
g12
(dtRp183
sg14
g1
(g11
g12
(dtRp184
sg16
g1
(g11
g12
(dtRp185
sg18
g1
(g11
g12
(dtRp186
sg20
g1
(g11
g12
(dtRp187
sg22
g1
(g11
g12
(dtRp188
sbsg24
g25
sg26
g27
((lp189
g33
ag32
ag29
ag30
atRp190
sg37
(lp191
g1
(g2
g3
NtRp192
(dp193
g6
g1
(g7
g3
NtRp194
(dp195
g10
g1
(g11
g12
(dtRp196
sg14
g1
(g11
g12
(dtRp197
sg16
g1
(g11
g12
(dtRp198
sg18
g1
(g11
g12
(dtRp199
sg20
g1
(g11
g12
(dtRp200
sg22
g1
(g11
g12
(dtRp201
sbsg24
S'Cga'
p202
sg26
g27
((lp203
g29
ag30
aS'sequence'
p204
ag32
ag33
aS'species'
p205
atRp206
sg37
(lp207
sg121
g179
sg122
S'RWLSTKDLYSRLELTGLNQNVHAMFVMPLGFGNPMGDMFARLNNSFWLVPLSLEGAGTGWTVYFPLAHSGPAVDLAFHLSSSLLGAINFTNMRGPLFWTALLLLSLPVLAGTGIDRNFNTFEGGDALYHLFWFFGHPEVYIIPGFGSHSAISKFGMYASIGLGFVWSHHMFVGLDDRAYFTSATMIAPTSIKFSWLSTYGGRTALAFIFLFTGGTGVLNSADPFHDSYYVVHFHYVLSMGAFSIGWYLWPGLYNLFWFNFPMHFLGGMPRRNYPDAGWNSGSAYQLGPSGTNEPH'
p208
sg124
F0.016299999999999999
sg125
g126
sg33
S'190'
p209
sg128
g1
(g129
g12
(dp210
g131
I4
sg132
g133
sg134
g135
sg136
g133
sg137
I01
sg34
g138
sg139
g135
sg140
I0
sg141
I0
sg142
I0
sg143
g135
sg35
g144
sg145
I0
stRp211
sg147
g148
sg149
F1
sg150
Nsg30
S'CgallA'
p212
sbag1
(g2
g3
NtRp213
(dp214
g6
g1
(g7
g3
NtRp215
(dp216
g10
g1
(g11
g12
(dtRp217
sg14
g1
(g11
g12
(dtRp218
sg16
g1
(g11
g12
(dtRp219
sg18
g1
(g11
g12
(dtRp220
sg20
g1
(g11
g12
(dtRp221
sg22
g1
(g11
g12
(dtRp222
sbsg24
S'Cde'
p223
sg26
g27
((lp224
g29
ag30
aS'sequence'
p225
ag32
ag33
aS'species'
p226
atRp227
sg37
(lp228
sg121
g179
sg122
S'RWLSTKDLYSRLELTGLNQNVHAMFVMPLGFGNPMGDMFARLNNSFWLVPLSLEGAGTGWTVYFPLAHSGPAVDLAFHLSSSLLGAINFTNMRGPLFWTALLLLSLPVLAGTGIDRNFNTFEGGDALYHLFFFNGHPEVYIIPGFGSHSAISKFGMYASIGLGFVWSHHMFVGLDDRAYFTSATMIAPTSIKFSWLATYGGRTALAFIFLFTGGTGVLNSADPFHDSYYVVHFHYVLSMGAFSIGWYLWPGLYNLFWFNFPMHFLGGMPRRNYPDAGWNSGSAYQLGPSGTNEPH'
p229
sg124
F0.018610000000000002
sg125
g126
sg33
S'192'
p230
sg128
g1
(g129
g12
(dp231
g131
I4
sg132
g133
sg134
g135
sg136
g133
sg137
I01
sg34
g138
sg139
g135
sg140
I0
sg141
I0
sg142
I0
sg143
g135
sg35
g144
sg145
I0
stRp232
sg147
g148
sg149
F1
sg150
Nsg30
S'CdefoA'
p233
sbasg121
g79
sg124
F0.00282
sg125
g126
sg33
S'184'
p234
sg128
g1
(g129
g12
(dp235
g131
I6
sg132
g133
sg134
g135
sg136
g133
sg137
I01
sg34
g175
sg139
g135
sg140
I0
sg141
I0
sg142
I0
sg143
g135
sg35
g176
sg145
I0
stRp236
sg147
g148
sg149
F0.96999999999999997
sg150
Nsg30
S'NoName'
p237
sbasg121
g66
sg124
F0.00479
sg125
g126
sg33
S'180'
p238
sg128
g1
(g129
g12
(dp239
g131
I6
sg132
g133
sg134
g135
sg136
g133
sg137
I01
sg34
g175
sg139
g135
sg140
I0
sg141
I0
sg142
I0
sg143
g135
sg35
g176
sg145
I0
stRp240
sg147
g148
sg149
F0.80000000000000004
sg150
Nsg30
S'NoName'
p241
sbag1
(g2
g3
NtRp242
(dp243
g6
g1
(g7
g3
NtRp244
(dp245
g10
g1
(g11
g12
(dtRp246
sg14
g1
(g11
g12
(dtRp247
sg16
g1
(g11
g12
(dtRp248
sg18
g1
(g11
g12
(dtRp249
sg20
g1
(g11
g12
(dtRp250
sg22
g1
(g11
g12
(dtRp251
sbsg24
S'Cal'
p252
sg26
g27
((lp253
g29
ag30
aS'sequence'
p254
ag32
ag33
aS'species'
p255
atRp256
sg37
(lp257
sg121
g66
sg122
S'RWLSTKDLYSRLELTGLNQNVHAMFVMPLGFGNPMGDMFARLNNSFWLVPMSLEGAGTGWTVYFPLAHSGPAVDLAFHLASSLLGAINFTNMRGPLFWTALLLLSLPVLAGTGIDRNFNTFEGGDALYHLFWFFGHPEVYIIPGFGSHSAISKFGMYASIGLGFVWSHHMFVGLDDRAYFTSATMIAPTSIKFSWLATYGGRTALAFIFLFTGGTGVLNSADPFHDSYYVVHFHYVLSMGAFSIGWYLWPGLYNLFWFNFPMHFLGGMPRRNYPDAGWNSGSAYQLGPSGTNEPH'
p258
sg124
F0.035970000000000002
sg125
g126
sg33
S'194'
p259
sg128
g1
(g129
g12
(dp260
g131
I4
sg132
g133
sg134
g135
sg136
g133
sg137
I01
sg34
g138
sg139
g135
sg140
I0
sg141
I0
sg142
I0
sg143
g135
sg35
g144
sg145
I0
stRp261
sg147
g148
sg149
F1
sg150
Nsg30
S'CalimA'
p262
sbasg121
g53
sg124
F1.1444799999999999
sg125
g126
sg33
S'178'
p263
sg128
g1
(g129
g12
(dp264
g131
I6
sg132
g133
sg134
g135
sg136
g133
sg137
I01
sg34
g175
sg139
g135
sg140
I0
sg141
I0
sg142
I0
sg143
g135
sg35
g176
sg145
I0
stRp265
sg147
g148
sg149
F0.97999999999999998
sg150
Nsg30
S'NoName'
p266
sbag1
(g2
g3
NtRp267
(dp268
g6
g1
(g7
g3
NtRp269
(dp270
g10
g1
(g11
g12
(dtRp271
sg14
g1
(g11
g12
(dtRp272
sg16
g1
(g11
g12
(dtRp273
sg18
g1
(g11
g12
(dtRp274
sg20
g1
(g11
g12
(dtRp275
sg22
g1
(g11
g12
(dtRp276
sbsg24
g25
sg26
g27
((lp277
g33
ag32
ag29
ag30
atRp278
sg37
(lp279
g1
(g2
g3
NtRp280
(dp281
g6
g1
(g7
g3
NtRp282
(dp283
g10
g1
(g11
g12
(dtRp284
sg14
g1
(g11
g12
(dtRp285
sg16
g1
(g11
g12
(dtRp286
sg18
g1
(g11
g12
(dtRp287
sg20
g1
(g11
g12
(dtRp288
sg22
g1
(g11
g12
(dtRp289
sbsg24
g25
sg26
g27
((lp290
g33
ag32
ag29
ag30
atRp291
sg37
(lp292
g1
(g2
g3
NtRp293
(dp294
g6
g1
(g7
g3
NtRp295
(dp296
g10
g1
(g11
g12
(dtRp297
sg14
g1
(g11
g12
(dtRp298
sg16
g1
(g11
g12
(dtRp299
sg18
g1
(g11
g12
(dtRp300
sg20
g1
(g11
g12
(dtRp301
sg22
g1
(g11
g12
(dtRp302
sbsg24
g25
sg26
g27
((lp303
g33
ag32
ag29
ag30
atRp304
sg37
(lp305
g1
(g2
g3
NtRp306
(dp307
g6
g1
(g7
g3
NtRp308
(dp309
g10
g1
(g11
g12
(dtRp310
sg14
g1
(g11
g12
(dtRp311
sg16
g1
(g11
g12
(dtRp312
sg18
g1
(g11
g12
(dtRp313
sg20
g1
(g11
g12
(dtRp314
sg22
g1
(g11
g12
(dtRp315
sbsg24
g25
sg26
g27
((lp316
g33
ag32
ag29
ag30
atRp317
sg37
(lp318
g1
(g2
g3
NtRp319
(dp320
g6
g1
(g7
g3
NtRp321
(dp322
g10
g1
(g11
g12
(dtRp323
sg14
g1
(g11
g12
(dtRp324
sg16
g1
(g11
g12
(dtRp325
sg18
g1
(g11
g12
(dtRp326
sg20
g1
(g11
g12
(dtRp327
sg22
g1
(g11
g12
(dtRp328
sbsg24
S'Mst'
p329
sg26
g27
((lp330
g29
ag30
aS'sequence'
p331
ag32
ag33
aS'species'
p332
atRp333
sg37
(lp334
sg121
g306
sg122
S'RWLSTKDLYSRLELPTLNQNVHAMFVMPSGFGNPMGDMLARLNNSFWLVPVSLEGAGTGWTVYPPLSHSGASVDLVFHMSSSLLGAINFTNMRGTLFWTALLLLSLPVLSGTLLDRNFNTFEGGDPLYHLFWFFGHPEVYIIPGFGSHSTYKKFGMYASMGLGFVWSHHMYVGLDDRAYFTSATMMAPTGVKFSWLATYGGRPFLAFMFLFTGGTGVLNASDAFHDTYYVVHFHYVLSLGAFSLGYYFWPGLYNLFMFNFPLHFLGGMPRRPYPDAGWNSGSSYQLGPDESNEPH'
p335
sg124
F0.087190000000000004
sg125
g126
sg33
S'202'
p336
sg128
g1
(g129
g12
(dp337
g131
I4
sg132
g133
sg134
g135
sg136
g133
sg137
I01
sg34
g138
sg139
g135
sg140
I0
sg141
I0
sg142
I0
sg143
g135
sg35
g144
sg145
I0
stRp338
sg147
g148
sg149
F1
sg150
Nsg30
S'MstarA'
p339
sbag1
(g2
g3
NtRp340
(dp341
g6
g1
(g7
g3
NtRp342
(dp343
g10
g1
(g11
g12
(dtRp344
sg14
g1
(g11
g12
(dtRp345
sg16
g1
(g11
g12
(dtRp346
sg18
g1
(g11
g12
(dtRp347
sg20
g1
(g11
g12
(dtRp348
sg22
g1
(g11
g12
(dtRp349
sbsg24
S'Min'
p350
sg26
g27
((lp351
g29
ag30
aS'sequence'
p352
ag32
ag33
aS'species'
p353
atRp354
sg37
(lp355
sg121
g306
sg122
S'RWLSTKDLYSRLELPTLNQNVHAMFVMPAGFGNPMGDMLARLNNSFWLVPVSLEGAGTGWTVYPPLSHSGPSVDLVFHISSSLLGSMNFTNMRGTLFWTSLLLLSLPVLSGTLLDRNFNTFEGGDPLYHLFYKMMLFSMYMMPGFGSHSAYKKFGMYASIGLGFVWSHHMYVGLDDRAYFTSATMIAPTGVKFSWLATYGGRPFLAFMFLFTGGTGVLNASDAFHDTYYVVHFHYVLSLGAFSLGYYFWPGLYNLFTFNFPLHFLGGMPRRPYPDAGWNSGSSYQLGPDESNEPH'
p356
sg124
F0.040719999999999999
sg125
g126
sg33
S'204'
p357
sg128
g1
(g129
g12
(dp358
g131
I4
sg132
g133
sg134
g135
sg136
g133
sg137
I01
sg34
g138
sg139
g135
sg140
I0
sg141
I0
sg142
I0
sg143
g135
sg35
g144
sg145
I0
stRp359
sg147
g148
sg149
F1
sg150
Nsg30
S'MingeA'
p360
sbasg121
g293
sg124
F0.037420000000000002
sg125
g126
sg33
S'199'
p361
sg128
g1
(g129
g12
(dp362
g131
I6
sg132
g133
sg134
g135
sg136
g133
sg137
I01
sg34
g175
sg139
g135
sg140
I0
sg141
I0
sg142
I0
sg143
g135
sg35
g176
sg145
I0
stRp363
sg147
g148
sg149
F0.98999999999999999
sg150
Nsg30
S'NoName'
p364
sbag1
(g2
g3
NtRp365
(dp366
g6
g1
(g7
g3
NtRp367
(dp368
g10
g1
(g11
g12
(dtRp369
sg14
g1
(g11
g12
(dtRp370
sg16
g1
(g11
g12
(dtRp371
sg18
g1
(g11
g12
(dtRp372
sg20
g1
(g11
g12
(dtRp373
sg22
g1
(g11
g12
(dtRp374
sbsg24
g25
sg26
g27
((lp375
g33
ag32
ag29
ag30
atRp376
sg37
(lp377
g1
(g2
g3
NtRp378
(dp379
g6
g1
(g7
g3
NtRp380
(dp381
g10
g1
(g11
g12
(dtRp382
sg14
g1
(g11
g12
(dtRp383
sg16
g1
(g11
g12
(dtRp384
sg18
g1
(g11
g12
(dtRp385
sg20
g1
(g11
g12
(dtRp386
sg22
g1
(g11
g12
(dtRp387
sbsg24
g25
sg26
g27
((lp388
g33
ag32
ag29
ag30
atRp389
sg37
(lp390
g1
(g2
g3
NtRp391
(dp392
g6
g1
(g7
g3
NtRp393
(dp394
g10
g1
(g11
g12
(dtRp395
sg14
g1
(g11
g12
(dtRp396
sg16
g1
(g11
g12
(dtRp397
sg18
g1
(g11
g12
(dtRp398
sg20
g1
(g11
g12
(dtRp399
sg22
g1
(g11
g12
(dtRp400
sbsg24
S'Mte'
p401
sg26
g27
((lp402
g29
ag30
aS'sequence'
p403
ag32
ag33
aS'species'
p404
atRp405
sg37
(lp406
sg121
g378
sg122
S'RWLSTKDLYSRLELPTLNQNVHAMFVMPAGFGNPMGDMLARLNNSFWLVPLSLEGAGTGWTVYPPLSHSGPSVDMVFHISSSLLGAINFTNMRGTLFWTALLLLSLPVLSGTLLDRNFNTFEGGDPLYHLFWFFGHPEVYIIPGFGSHSAYKKFGMYASIGLGFVWSHHMYVGLDDRAYFTSATMIAPTGVKFSWLATYGGRPFLAFIFLFTGGTGVLNASDAFHDTYYVVHFHYVLSLGAFSLGYYFWPGLYNLFYFNFPMHALGGMPRRPYPDAGWNSGSSYQLGPDESNEPH'
p407
sg124
F0.042599999999999999
sg125
g126
sg33
S'209'
p408
sg128
g1
(g129
g12
(dp409
g131
I4
sg132
g133
sg134
g135
sg136
g133
sg137
I01
sg34
g138
sg139
g135
sg140
I0
sg141
I0
sg142
I0
sg143
g135
sg35
g144
sg145
I0
stRp410
sg147
g148
sg149
F1
sg150
Nsg30
S'MtetrA'
p411
sbag1
(g2
g3
NtRp412
(dp413
g6
g1
(g7
g3
NtRp414
(dp415
g10
g1
(g11
g12
(dtRp416
sg14
g1
(g11
g12
(dtRp417
sg16
g1
(g11
g12
(dtRp418
sg18
g1
(g11
g12
(dtRp419
sg20
g1
(g11
g12
(dtRp420
sg22
g1
(g11
g12
(dtRp421
sbsg24
g25
sg26
g27
((lp422
g33
ag32
ag29
ag30
atRp423
sg37
(lp424
g1
(g2
g3
NtRp425
(dp426
g6
g1
(g7
g3
NtRp427
(dp428
g10
g1
(g11
g12
(dtRp429
sg14
g1
(g11
g12
(dtRp430
sg16
g1
(g11
g12
(dtRp431
sg18
g1
(g11
g12
(dtRp432
sg20
g1
(g11
g12
(dtRp433
sg22
g1
(g11
g12
(dtRp434
sbsg24
S'Mma'
p435
sg26
g27
((lp436
g29
ag30
aS'sequence'
p437
ag32
ag33
aS'species'
p438
atRp439
sg37
(lp440
sg121
g412
sg122
S'RWLSTKDLYSRLELPTLNQNVHAMFVMPAGFGNPMGDMLARLNNSFWLVPLSLEGPGTGWTVYPPLSHSGPSVDMVFHISSSLLGAINFTNMRGTLFWTALLLLSLPVLSGTLLDRNFNTFEGGDPLYHLFWFFGHPEVYIIPGFGSHSAYKKFGMYASIGLGFVWSHHMYVGLDDRAYFTSATMIAPTGVKFSWLATYGGRPFLAFIFLFTGGTGVLNASDAFHDSYYVVHFHYVLSLGAFSLGYYFWPGLYNLFFFNFPMHALGGMPRRPYPDAGWNSGSSYQLGPDESNEPH'
p441
sg124
F0.00055000000000000003
sg125
g126
sg33
S'212'
p442
sg128
g1
(g129
g12
(dp443
g131
I4
sg132
g133
sg134
g135
sg136
g133
sg137
I01
sg34
g138
sg139
g135
sg140
I0
sg141
I0
sg142
I0
sg143
g135
sg35
g144
sg145
I0
stRp444
sg147
g148
sg149
F1
sg150
Nsg30
S'MmagnB'
p445
sbag1
(g2
g3
NtRp446
(dp447
g6
g1
(g7
g3
NtRp448
(dp449
g10
g1
(g11
g12
(dtRp450
sg14
g1
(g11
g12
(dtRp451
sg16
g1
(g11
g12
(dtRp452
sg18
g1
(g11
g12
(dtRp453
sg20
g1
(g11
g12
(dtRp454
sg22
g1
(g11
g12
(dtRp455
sbsg24
S'Mma'
p456
sg26
g27
((lp457
g29
ag30
aS'sequence'
p458
ag32
ag33
aS'species'
p459
atRp460
sg37
(lp461
sg121
g412
sg122
S'RWLSTKDLYSRLELPTLNQNVHAMFVMPAGFGNPMGDMLARLNNSFWLVPLSLEGPGTGWTVYPPLSHSGPSVDMVFHISSSLLGAINFTNMRGTLFWTALLLLSLPVLSGTLLDRNFNTFEGGDPLYHLFWFFGHPEVYIIPGFGSHSAYKKFGMYASIGLGFVWSHHMYVGLDDRAYFTSATMIAPTGVKFSWLATYGGRPFLAFIFLFTGGTGVLNASDAFHDSYYVVHFHYVLSLGAFSLGYYFWPGLYNLFFFNFPMHALGGMPRRPYPDAGWNSGSSYQLGPDESNEPH'
p462
sg124
F0.00088000000000000003
sg125
g126
sg33
S'214'
p463
sg128
g1
(g129
g12
(dp464
g131
I4
sg132
g133
sg134
g135
sg136
g133
sg137
I01
sg34
g138
sg139
g135
sg140
I0
sg141
I0
sg142
I0
sg143
g135
sg35
g144
sg145
I0
stRp465
sg147
g148
sg149
F1
sg150
Nsg30
S'MmagnA'
p466
sbasg121
g378
sg124
F0.011140000000000001
sg125
g126
sg33
S'208'
p467
sg128
g1
(g129
g12
(dp468
g131
I6
sg132
g133
sg134
g135
sg136
g133
sg137
I01
sg34
g175
sg139
g135
sg140
I0
sg141
I0
sg142
I0
sg143
g135
sg35
g176
sg145
I0
stRp469
sg147
g148
sg149
F0.98999999999999999
sg150
Nsg30
S'NoName'
p470
sbasg121
g365
sg124
F0.11189
sg125
g126
sg33
S'206'
p471
sg128
g1
(g129
g12
(dp472
g131
I6
sg132
g133
sg134
g135
sg136
g133
sg137
I01
sg34
g175
sg139
g135
sg140
I0
sg141
I0
sg142
I0
sg143
g135
sg35
g176
sg145
I0
stRp473
sg147
g148
sg149
F0.98999999999999999
sg150
Nsg30
S'NoName'
p474
sbag1
(g2
g3
NtRp475
(dp476
g6
g1
(g7
g3
NtRp477
(dp478
g10
g1
(g11
g12
(dtRp479
sg14
g1
(g11
g12
(dtRp480
sg16
g1
(g11
g12
(dtRp481
sg18
g1
(g11
g12
(dtRp482
sg20
g1
(g11
g12
(dtRp483
sg22
g1
(g11
g12
(dtRp484
sbsg24
g25
sg26
g27
((lp485
g33
ag32
ag29
ag30
atRp486
sg37
(lp487
g1
(g2
g3
NtRp488
(dp489
g6
g1
(g7
g3
NtRp490
(dp491
g10
g1
(g11
g12
(dtRp492
sg14
g1
(g11
g12
(dtRp493
sg16
g1
(g11
g12
(dtRp494
sg18
g1
(g11
g12
(dtRp495
sg20
g1
(g11
g12
(dtRp496
sg22
g1
(g11
g12
(dtRp497
sbsg24
S'Scl'
p498
sg26
g27
((lp499
g29
ag30
aS'sequence'
p500
ag32
ag33
aS'species'
p501
atRp502
sg37
(lp503
sg121
g475
sg122
S'RWLSTKDLYSRLELPTLNQNVHAMFVMPAGFGNPMGDMLARLNNSFWLVPLSLEGPGTGWTVYPPLSHSGPSVDMVFHMSSSLLGAINFTNMRGTLFWTALLLLSLPVLAGTLLDRNFNTFEGGDPLYHLFWFFGHPEVYMIPGFGSHSTYKKFGMYASMGLGFVWSHHMYVGLDDRAYFTAATMIAPTGVKFSWLATYGGRPFLTFMFLFTGGTGVLNASDAFHDTYYVVHFHYVLSLGAFSLGYYFWPGLYNLFMFNFPLHFLGGMPRRPYPDAGWNSGSSYQLGPDESNEPH'
p504
sg124
F0.020899999999999998
sg125
g126
sg33
S'217'
p505
sg128
g1
(g129
g12
(dp506
g131
I4
sg132
g133
sg134
g135
sg136
g133
sg137
I01
sg34
g138
sg139
g135
sg140
I0
sg141
I0
sg142
I0
sg143
g135
sg35
g144
sg145
I0
stRp507
sg147
g148
sg149
F1
sg150
Nsg30
S'SclavA'
p508
sbag1
(g2
g3
NtRp509
(dp510
g6
g1
(g7
g3
NtRp511
(dp512
g10
g1
(g11
g12
(dtRp513
sg14
g1
(g11
g12
(dtRp514
sg16
g1
(g11
g12
(dtRp515
sg18
g1
(g11
g12
(dtRp516
sg20
g1
(g11
g12
(dtRp517
sg22
g1
(g11
g12
(dtRp518
sbsg24
S'Msp'
p519
sg26
g27
((lp520
g29
ag30
aS'sequence'
p521
ag32
ag33
aS'species'
p522
atRp523
sg37
(lp524
sg121
g475
sg122
S'RWLSTKDLYSRLELPTLNQNVHAMFVMPAGFGNPMGDMLARLNNSFWLVPLSLEGPGTGWTVYPPLSHSGPSVDMVFHMSSSLLGAMNFTNMRGTLFWTALLLLSLPVLAGTLLDRNFNTFEGGDPLYHLFWFFGHPEVYMIPGFGSHSTYKKFGMYASMGLGFVWSHHMYVGLDDRAYFTAATMIAPTGVKFSWLATYGGRPFLTFMFLFTGGTGVLNASDAFHDTYYVVHFHYVLSLGAFSLGYYFWPGLYNLFMFNFPLHFLGGMPRRPYPDAGWNSGSSYQLGPDESNEPH'
p525
sg124
F0.13538
sg125
g126
sg33
S'219'
p526
sg128
g1
(g129
g12
(dp527
g131
I4
sg132
g133
sg134
g135
sg136
g133
sg137
I01
sg34
g138
sg139
g135
sg140
I0
sg141
I0
sg142
I0
sg143
g135
sg35
g144
sg145
I0
stRp528
sg147
g148
sg149
F1
sg150
Nsg30
S'MspicA'
p529
sbasg121
g365
sg124
F0.10536
sg125
g126
sg33
S'211'
p530
sg128
g1
(g129
g12
(dp531
g131
I6
sg132
g133
sg134
g135
sg136
g133
sg137
I01
sg34
g175
sg139
g135
sg140
I0
sg141
I0
sg142
I0
sg143
g135
sg35
g176
sg145
I0
stRp532
sg147
g148
sg149
F0.98999999999999999
sg150
Nsg30
S'NoName'
p533
sbasg121
g293
sg124
F0.03209
sg125
g126
sg33
S'201'
p534
sg128
g1
(g129
g12
(dp535
g131
I6
sg132
g133
sg134
g135
sg136
g133
sg137
I01
sg34
g175
sg139
g135
sg140
I0
sg141
I0
sg142
I0
sg143
g135
sg35
g176
sg145
I0
stRp536
sg147
g148
sg149
F0.98999999999999999
sg150
Nsg30
S'NoName'
p537
sbasg121
g280
sg124
F0.32869999999999999
sg125
g126
sg33
S'198'
p538
sg128
g1
(g129
g12
(dp539
g131
I6
sg132
g133
sg134
g135
sg136
g133
sg137
I01
sg34
g175
sg139
g135
sg140
I0
sg141
I0
sg142
I0
sg143
g135
sg35
g176
sg145
I0
stRp540
sg147
g148
sg149
F0.98999999999999999
sg150
Nsg30
S'NoName'
p541
sbag1
(g2
g3
NtRp542
(dp543
g6
g1
(g7
g3
NtRp544
(dp545
g10
g1
(g11
g12
(dtRp546
sg14
g1
(g11
g12
(dtRp547
sg16
g1
(g11
g12
(dtRp548
sg18
g1
(g11
g12
(dtRp549
sg20
g1
(g11
g12
(dtRp550
sg22
g1
(g11
g12
(dtRp551
sbsg24
g25
sg26
g27
((lp552
g33
ag32
ag29
ag30
atRp553
sg37
(lp554
g1
(g2
g3
NtRp555
(dp556
g6
g1
(g7
g3
NtRp557
(dp558
g10
g1
(g11
g12
(dtRp559
sg14
g1
(g11
g12
(dtRp560
sg16
g1
(g11
g12
(dtRp561
sg18
g1
(g11
g12
(dtRp562
sg20
g1
(g11
g12
(dtRp563
sg22
g1
(g11
g12
(dtRp564
sbsg24
g25
sg26
g27
((lp565
g33
ag32
ag29
ag30
atRp566
sg37
(lp567
g1
(g2
g3
NtRp568
(dp569
g6
g1
(g7
g3
NtRp570
(dp571
g10
g1
(g11
g12
(dtRp572
sg14
g1
(g11
g12
(dtRp573
sg16
g1
(g11
g12
(dtRp574
sg18
g1
(g11
g12
(dtRp575
sg20
g1
(g11
g12
(dtRp576
sg22
g1
(g11
g12
(dtRp577
sbsg24
S'Cze'
p578
sg26
g27
((lp579
g29
ag30
aS'sequence'
p580
ag32
ag33
aS'species'
p581
atRp582
sg37
(lp583
sg121
g555
sg122
S'SWLSTQNLYSRIELPNLNQNVHAMFVMPTGLANPQGDTFPRMNNAFVLLPMSLDGPGSGWTLYPPLTHSGSSMDMAFHLSSSIFGAINLTNMRGPLFWTALMMLALPVLAGTLLDRNFNTFVGGDPLYHIFWFFGHPEVYIIPVFGSQQVYKKFGMYASIGLGFVWSHHMFVGLDDRAYFSGASLIAPTGSKFSWLATYGGRPLLAFMVLFTGGTGVMNSSDMFHDTYYVVHFHYVLSLGVFGVAYYFWPGLYNLFWFNFPLHFLGGLPRRPYPDAGWNSGSSYQFGPDESNEPH'
p584
sg124
F1.5682799999999999
sg125
g126
sg33
S'1'
sg128
g1
(g129
g12
(dp585
g131
I4
sg132
g133
sg134
g135
sg136
g133
sg137
I01
sg34
g138
sg139
g135
sg140
I0
sg141
I0
sg142
I0
sg143
g135
sg35
g144
sg145
I0
stRp586
sg147
g148
sg149
F1
sg150
Nsg30
S'CzempA'
p587
sbag1
(g2
g3
NtRp588
(dp589
g6
g1
(g7
g3
NtRp590
(dp591
g10
g1
(g11
g12
(dtRp592
sg14
g1
(g11
g12
(dtRp593
sg16
g1
(g11
g12
(dtRp594
sg18
g1
(g11
g12
(dtRp595
sg20
g1
(g11
g12
(dtRp596
sg22
g1
(g11
g12
(dtRp597
sbsg24
g25
sg26
g27
((lp598
g33
ag32
ag29
ag30
atRp599
sg37
(lp600
g1
(g2
g3
NtRp601
(dp602
g6
g1
(g7
g3
NtRp603
(dp604
g10
g1
(g11
g12
(dtRp605
sg14
g1
(g11
g12
(dtRp606
sg16
g1
(g11
g12
(dtRp607
sg18
g1
(g11
g12
(dtRp608
sg20
g1
(g11
g12
(dtRp609
sg22
g1
(g11
g12
(dtRp610
sbsg24
S'Csa'
p611
sg26
g27
((lp612
g29
ag30
aS'sequence'
p613
ag32
ag33
aS'species'
p614
atRp615
sg37
(lp616
sg121
g588
sg122
S'----------RLELPNLNQNVHAMFVMPSGFGNPMGDMLARLNNSFWLVPLSLDGPGTGWTMYPPLSHSGASVDLVFHISSSLLGAMNFTNMRGTLFWTALLLLSLPVLSGTLLDRNFNTFEGGDMLYHMFWFFGHPEVYMMPGFGSQSVYKKFGMYASMGLGFVWSHHMFVGLDDRAYFTAATLMAPTGVKFSWLASYGGRPLLAFMFLFTGGTGVLNASDAFHDTYYVVHFHYVLSLGAFSLGYYFWPGLYNLFWFNFPQHFLGAMPRRPYPDAGWNSGSSYQMGPDFSNEPH'
p617
sg124
F0.65920000000000001
sg125
g126
sg33
S'4'
sg128
g1
(g129
g12
(dp618
g131
I4
sg132
g133
sg134
g135
sg136
g133
sg137
I01
sg34
g138
sg139
g135
sg140
I0
sg141
I0
sg142
I0
sg143
g135
sg35
g144
sg145
I0
stRp619
sg147
g148
sg149
F1
sg150
Nsg30
S'CsantA'
p620
sbag1
(g2
g3
NtRp621
(dp622
g6
g1
(g7
g3
NtRp623
(dp624
g10
g1
(g11
g12
(dtRp625
sg14
g1
(g11
g12
(dtRp626
sg16
g1
(g11
g12
(dtRp627
sg18
g1
(g11
g12
(dtRp628
sg20
g1
(g11
g12
(dtRp629
sg22
g1
(g11
g12
(dtRp630
sbsg24
S'Csa'
p631
sg26
g27
((lp632
g29
ag30
aS'sequence'
p633
ag32
ag33
aS'species'
p634
atRp635
sg37
(lp636
sg121
g588
sg122
S'RWLSTKDLYSRLELPAMSQNVHAMFVMPSGFANPMGDTLPRVNNAAILMPMSLEGPGTGWTVYPPLSHSGVSVDLVFHISSSLAGAMNLTNMRGPLFWTALLLLSLPVLAGTLIDRNFNTFDGGDVLYHLFWFFGHPEVYIIPGFGSESRYNKFGMYASIGLGFVWSHHMYVGLDDRSYFTAATLIAPTGVKFSWMATFGGRPFLTFLALFTGGTGVLNASDAFHDTYYVVHFHYVLSLGAFSMGYYYWPGLYNLFWFNFPQHFLGGQPRRSYPDAGWNSGSSYQLGPDESNEPH'
p637
sg124
F1.3581099999999999
sg125
g126
sg33
S'6'
sg128
g1
(g129
g12
(dp638
g131
I4
sg132
g133
sg134
g135
sg136
g133
sg137
I01
sg34
g138
sg139
g135
sg140
I0
sg141
I0
sg142
I0
sg143
g135
sg35
g144
sg145
I0
stRp639
sg147
g148
sg149
F1
sg150
Nsg30
S'CsalmA'
p640
sbasg121
g555
sg124
F0.19968
sg125
g126
sg33
S'223'
p641
sg128
g1
(g129
g12
(dp642
g131
I6
sg132
g133
sg134
g135
sg136
g133
sg137
I01
sg34
g175
sg139
g135
sg140
I0
sg141
I0
sg142
I0
sg143
g135
sg35
g176
sg145
I0
stRp643
sg147
g148
sg149
F0.97999999999999998
sg150
Nsg30
S'NoName'
p644
sbasg121
g542
sg124
F0.14363999999999999
sg125
g126
sg33
S'222'
p645
sg128
g1
(g129
g12
(dp646
g131
I6
sg132
g133
sg134
g135
sg136
g133
sg137
I01
sg34
g175
sg139
g135
sg140
I0
sg141
I0
sg142
I0
sg143
g135
sg35
g176
sg145
I0
stRp647
sg147
g148
sg149
F0.93000000000000005
sg150
Nsg30
S'NoName'
p648
sbag1
(g2
g3
NtRp649
(dp650
g6
g1
(g7
g3
NtRp651
(dp652
g10
g1
(g11
g12
(dtRp653
sg14
g1
(g11
g12
(dtRp654
sg16
g1
(g11
g12
(dtRp655
sg18
g1
(g11
g12
(dtRp656
sg20
g1
(g11
g12
(dtRp657
sg22
g1
(g11
g12
(dtRp658
sbsg24
S'Bar'
p659
sg26
g27
((lp660
g29
ag30
aS'sequence'
p661
ag32
ag33
aS'species'
p662
atRp663
sg37
(lp664
sg121
g542
sg122
S'RWLSTKDLYSRLELPNLNQNSHAMFVMPTGFGNPMGDMLSRLNNSFWLVPLSLEGPGTGWTVYPPLSHSGPSVDLVFHVSSSLLGAMNFTNMRGTLFWTVLLLLALPVLAGTLLDRNFNTFEGGDPLYHMFWFFGHPEVYIIPGFGSQAVYNKFGMYASIGLGFVWSHHMYVGMDDRAYFTAATLIAPTGVKFSWLASYGGRPLLTFIGLFTGGTGVLNAADAFHDSYYVVHFHYVLSLGAFSLGYYFWPGLYNLFWFNFPQHFLGSMPRRPYPDAGWNSGSSVQLGPDVNNEPH'
p665
sg124
F0.74575000000000002
sg125
g126
sg33
S'8'
sg128
g1
(g129
g12
(dp666
g131
I4
sg132
g133
sg134
g135
sg136
g133
sg137
I01
sg34
g138
sg139
g135
sg140
I0
sg141
I0
sg142
I0
sg143
g135
sg35
g144
sg145
I0
stRp667
sg147
g148
sg149
F1
sg150
Nsg30
S'BarxA'
p668
sbasg121
g280
sg124
F0.25233
sg125
g126
sg33
S'215'
p669
sg128
g1
(g129
g12
(dp670
g131
I6
sg132
g133
sg134
g135
sg136
g133
sg137
I01
sg34
g175
sg139
g135
sg140
I0
sg141
I0
sg142
I0
sg143
g135
sg35
g176
sg145
I0
stRp671
sg147
g148
sg149
F0.97999999999999998
sg150
Nsg30
S'NoName'
p672
sbasg121
g267
sg124
F0.42224
sg125
g126
sg33
S'195'
p673
sg128
g1
(g129
g12
(dp674
g131
I6
sg132
g133
sg134
g135
sg136
g133
sg137
I01
sg34
g175
sg139
g135
sg140
I0
sg141
I0
sg142
I0
sg143
g135
sg35
g176
sg145
I0
stRp675
sg147
g148
sg149
F0.97999999999999998
sg150
Nsg30
S'NoName'
p676
sbag1
(g2
g3
NtRp677
(dp678
g6
g1
(g7
g3
NtRp679
(dp680
g10
g1
(g11
g12
(dtRp681
sg14
g1
(g11
g12
(dtRp682
sg16
g1
(g11
g12
(dtRp683
sg18
g1
(g11
g12
(dtRp684
sg20
g1
(g11
g12
(dtRp685
sg22
g1
(g11
g12
(dtRp686
sbsg24
g25
sg26
g27
((lp687
g33
ag32
ag29
ag30
atRp688
sg37
(lp689
g1
(g2
g3
NtRp690
(dp691
g6
g1
(g7
g3
NtRp692
(dp693
g10
g1
(g11
g12
(dtRp694
sg14
g1
(g11
g12
(dtRp695
sg16
g1
(g11
g12
(dtRp696
sg18
g1
(g11
g12
(dtRp697
sg20
g1
(g11
g12
(dtRp698
sg22
g1
(g11
g12
(dtRp699
sbsg24
g25
sg26
g27
((lp700
g33
ag32
ag29
ag30
atRp701
sg37
(lp702
g1
(g2
g3
NtRp703
(dp704
g6
g1
(g7
g3
NtRp705
(dp706
g10
g1
(g11
g12
(dtRp707
sg14
g1
(g11
g12
(dtRp708
sg16
g1
(g11
g12
(dtRp709
sg18
g1
(g11
g12
(dtRp710
sg20
g1
(g11
g12
(dtRp711
sg22
g1
(g11
g12
(dtRp712
sbsg24
g25
sg26
g27
((lp713
g33
ag32
ag29
ag30
atRp714
sg37
(lp715
g1
(g2
g3
NtRp716
(dp717
g6
g1
(g7
g3
NtRp718
(dp719
g10
g1
(g11
g12
(dtRp720
sg14
g1
(g11
g12
(dtRp721
sg16
g1
(g11
g12
(dtRp722
sg18
g1
(g11
g12
(dtRp723
sg20
g1
(g11
g12
(dtRp724
sg22
g1
(g11
g12
(dtRp725
sbsg24
g25
sg26
g27
((lp726
g33
ag32
ag29
ag30
atRp727
sg37
(lp728
g1
(g2
g3
NtRp729
(dp730
g6
g1
(g7
g3
NtRp731
(dp732
g10
g1
(g11
g12
(dtRp733
sg14
g1
(g11
g12
(dtRp734
sg16
g1
(g11
g12
(dtRp735
sg18
g1
(g11
g12
(dtRp736
sg20
g1
(g11
g12
(dtRp737
sg22
g1
(g11
g12
(dtRp738
sbsg24
S'Mfa'
p739
sg26
g27
((lp740
g29
ag30
aS'sequence'
p741
ag32
ag33
aS'species'
p742
atRp743
sg37
(lp744
sg121
g716
sg122
S'RWLSTKDLYSRLELGNLNQNVHAMFVMPLGFGNPLGDMFARLNNSFWLPPLSLEGAGTGWTVYPPLSHSGPSVDLAFHLTSSLLGAINFTNMRGPLFWTALLLLSLPVLAGTLLDRNFNTFEGGDPLYHLFWFFGHPEVYIIPGFGSHSTYKKFGMYASIGLGFVWSHHMYVGLDDRAYFTSATMIAPTGIKFSWLATYGGRPMLAFLFLFTGGTGVLNASDAFHDTYFVVHFHYVLSMGAFSLAYYYWPGLYNLFWFNFPMHFLGGMPRRPYPDAGWNSGSSYQMGPDESNEPH'
p745
sg124
F0.14163999999999999
sg125
g126
sg33
S'16'
p746
sg128
g1
(g129
g12
(dp747
g131
I4
sg132
g133
sg134
g135
sg136
g133
sg137
I01
sg34
g138
sg139
g135
sg140
I0
sg141
I0
sg142
I0
sg143
g135
sg35
g144
sg145
I0
stRp748
sg147
g148
sg149
F1
sg150
Nsg30
S'MfariB'
p749
sbag1
(g2
g3
NtRp750
(dp751
g6
g1
(g7
g3
NtRp752
(dp753
g10
g1
(g11
g12
(dtRp754
sg14
g1
(g11
g12
(dtRp755
sg16
g1
(g11
g12
(dtRp756
sg18
g1
(g11
g12
(dtRp757
sg20
g1
(g11
g12
(dtRp758
sg22
g1
(g11
g12
(dtRp759
sbsg24
S'Csa'
p760
sg26
g27
((lp761
g29
ag30
aS'sequence'
p762
ag32
ag33
aS'species'
p763
atRp764
sg37
(lp765
sg121
g716
sg122
S'RWLSTKDLYSRLELGNFNQNVHAMFVMPLGFGNPLGDMFARLNNSFWLPPLSLEGAGTGWTVYPPLSHSGPSVDLAFHLTSSLLGAINFTNMRGPLFWTALLLLSLPVLAATLLDRNFNTFEGGDPLYHLFWFFGHPEVYIIPGFGSHSTYKKFGMYASMGLGFVWSHHMYVGLDDRAYFTSATMIAPTGMKFSWLATYGGRPMLAFLFLFTGGTGVLNASDAFHDTYYVVHFHYVLSMGAFSLAYYYWPGLYNWFWFNFPMHFLGGMPRRPYPDAGWNSGSSYQMGPDESNEPH'
p766
sg124
F0.069970000000000004
sg125
g126
sg33
S'18'
p767
sg128
g1
(g129
g12
(dp768
g131
I4
sg132
g133
sg134
g135
sg136
g133
sg137
I01
sg34
g138
sg139
g135
sg140
I0
sg141
I0
sg142
I0
sg143
g135
sg35
g144
sg145
I0
stRp769
sg147
g148
sg149
F1
sg150
Nsg30
S'CsakeA'
p770
sbasg121
g703
sg124
F0.048980000000000003
sg125
g126
sg33
S'13'
p771
sg128
g1
(g129
g12
(dp772
g131
I6
sg132
g133
sg134
g135
sg136
g133
sg137
I01
sg34
g175
sg139
g135
sg140
I0
sg141
I0
sg142
I0
sg143
g135
sg35
g176
sg145
I0
stRp773
sg147
g148
sg149
F0.98999999999999999
sg150
Nsg30
S'NoName'
p774
sbag1
(g2
g3
NtRp775
(dp776
g6
g1
(g7
g3
NtRp777
(dp778
g10
g1
(g11
g12
(dtRp779
sg14
g1
(g11
g12
(dtRp780
sg16
g1
(g11
g12
(dtRp781
sg18
g1
(g11
g12
(dtRp782
sg20
g1
(g11
g12
(dtRp783
sg22
g1
(g11
g12
(dtRp784
sbsg24
g25
sg26
g27
((lp785
g33
ag32
ag29
ag30
atRp786
sg37
(lp787
g1
(g2
g3
NtRp788
(dp789
g6
g1
(g7
g3
NtRp790
(dp791
g10
g1
(g11
g12
(dtRp792
sg14
g1
(g11
g12
(dtRp793
sg16
g1
(g11
g12
(dtRp794
sg18
g1
(g11
g12
(dtRp795
sg20
g1
(g11
g12
(dtRp796
sg22
g1
(g11
g12
(dtRp797
sbsg24
g25
sg49
I1
sg26
g27
((lp798
g49
ag30
ag31
ag32
ag33
ag34
ag29
ag35
atRp799
sg37
(lp800
g1
(g2
g3
NtRp801
(dp802
g6
g1
(g7
g3
NtRp803
(dp804
g10
g1
(g11
g12
(dtRp805
sg14
g1
(g11
g12
(dtRp806
sg16
g1
(g11
g12
(dtRp807
sg18
g1
(g11
g12
(dtRp808
sg20
g1
(g11
g12
(dtRp809
sg22
g1
(g11
g12
(dtRp810
sbsg24
S'Mfa'
p811
sg26
g27
((lp812
g29
ag30
aS'sequence'
p813
ag32
ag33
aS'species'
p814
atRp815
sg37
(lp816
sg121
g788
sg122
S'RWLSTKDLYSRAELGNFNHNVHAMFVMPLGFGNPMGDMFARLNNSFWLPPLSLEGAGTGWTVYPPLSHSGPSVDLAFHLTSSLLGAMNFTNMRGPLFWTALLLLSLPVLAGTLLDRNFNTFEGGDPLYHLFWFFGHPEVYIIPGFGSHSTYKKFGMYASMGLGFVWSHHMYVGLDDRAYFTSATMMAPTGIKFSWLATYGGRPMLAFLFLFTGGTGVLNASDAFHDTYYMYHFHYVLSMGAFSLGYYYWPGLYNWFWFNFPMHFLGGMPRRPYPDAGWNSGSSKQLGPDESNEPH'
p817
sg124
F0.29086000000000001
sg125
g126
sg33
S'23'
p818
sg128
g1
(g129
g12
(dp819
g131
I4
sg132
g133
sg134
g135
sg136
g133
sg137
I01
sg34
g138
sg139
g135
sg140
I0
sg141
I0
sg142
I0
sg143
g135
sg35
g144
sg145
I0
stRp820
sg147
g148
sg149
F1
sg150
Nsg30
S'MfariA'
p821
sbag1
(g2
g3
NtRp822
(dp823
g6
g1
(g7
g3
NtRp824
(dp825
g10
g1
(g11
g12
(dtRp826
sg14
g1
(g11
g12
(dtRp827
sg16
g1
(g11
g12
(dtRp828
sg18
g1
(g11
g12
(dtRp829
sg20
g1
(g11
g12
(dtRp830
sg22
g1
(g11
g12
(dtRp831
sbsg24
S'Dha'
p832
sg26
g27
((lp833
g29
ag30
aS'sequence'
p834
ag32
ag33
aS'species'
p835
atRp836
sg37
(lp837
sg121
g788
sg122
S'RWLSTKDLYSRMELGNFNQNVHAMFIMPWGFGNPLGDMFARLNNSFWLPPLSLEGAGTGWTLYPPLSHSGPSVDLAFHLTSSLLGAMNFTNMRGPLFWTALLLLSLPVLAATLLDRNFNTFEGGDPLYHLFWFFGHPEVYIMPGFGSHSTYKKFGMYASIGLGFVWSHHMFVGLDDRAYFTSATMIAPTGIKFSWLATYGGRPMLAFLFLFTGGTGVLNASDAFHDTYYVVHFHYVLSMGAFSLAYYYWPGLYNLFWFNFPMHFLGGMPRRPYPDAGWNSGSSKQLGPDESNDPH'
p838
sg124
F0.11043
sg125
g126
sg33
S'24'
p839
sg128
g1
(g129
g12
(dp840
g131
I4
sg132
g133
sg134
g135
sg136
g133
sg137
I01
sg34
g138
sg139
g135
sg140
I0
sg141
I0
sg142
I0
sg143
g135
sg35
g144
sg145
I0
stRp841
sg147
g148
sg149
F1
sg150
Nsg30
S'DhansA'
p842
sbasg31
I25
sg121
g775
sg124
F0.046699999999999998
sg125
g126
sg33
S'20'
p843
sg34
S'sphere'
p844
sg128
g1
(g129
g12
(dp845
g131
I6
sg132
g133
sg134
g135
sg136
g133
sg137
I01
sg34
g175
sg139
g135
sg140
I0
sg141
I0
sg142
I0
sg143
g135
sg35
g176
sg145
I0
stRp846
sg147
g148
sg149
F0.65000000000000002
sg150
Nsg35
S'#bbbbbb'
p847
sg30
S'NoName'
p848
sbag1
(g2
g3
NtRp849
(dp850
g6
g1
(g7
g3
NtRp851
(dp852
g10
g1
(g11
g12
(dtRp853
sg14
g1
(g11
g12
(dtRp854
sg16
g1
(g11
g12
(dtRp855
sg18
g1
(g11
g12
(dtRp856
sg20
g1
(g11
g12
(dtRp857
sg22
g1
(g11
g12
(dtRp858
sbsg24
g25
sg26
g27
((lp859
g33
ag32
ag29
ag30
atRp860
sg37
(lp861
g1
(g2
g3
NtRp862
(dp863
g6
g1
(g7
g3
NtRp864
(dp865
g10
g1
(g11
g12
(dtRp866
sg14
g1
(g11
g12
(dtRp867
sg16
g1
(g11
g12
(dtRp868
sg18
g1
(g11
g12
(dtRp869
sg20
g1
(g11
g12
(dtRp870
sg22
g1
(g11
g12
(dtRp871
sbsg24
S'Clu'
p872
sg26
g27
((lp873
g29
ag30
aS'sequence'
p874
ag32
ag33
aS'species'
p875
atRp876
sg37
(lp877
sg121
g849
sg122
S'RWLSTKDLYSRLELPDLNQNVHAMFVMPLGFGNPMGDMFARLNNSFWLPPLSLEGAGTGWTVYPPLSHSGPSVDLAFHLTSSLLGAINFTNMRGPLFWTALLLLSLPVLAGTLLDRNFNTFEGGDPLYHLFWFFGHPEVYMMPGFGSHSTYKKFGMYASMGLGFVWSHHMYVGLDDRAYFTSATMMAPTGMKFSWLATYGGRPMLAFLFLFTGGTGVLNASDAFHDTYYVVHFHYVLSMGAFSLGYYYWPGLYNWFWFNFPMHFLGGMPRRPYPDAGWNSGSSRQLGPDESNEPH'
p878
sg124
F0.037310000000000003
sg125
g126
sg33
S'27'
p879
sg128
g1
(g129
g12
(dp880
g131
I4
sg132
g133
sg134
g135
sg136
g133
sg137
I01
sg34
g138
sg139
g135
sg140
I0
sg141
I0
sg142
I0
sg143
g135
sg35
g144
sg145
I0
stRp881
sg147
g148
sg149
F1
sg150
Nsg30
S'ClusiA'
p882
sbag1
(g2
g3
NtRp883
(dp884
g6
g1
(g7
g3
NtRp885
(dp886
g10
g1
(g11
g12
(dtRp887
sg14
g1
(g11
g12
(dtRp888
sg16
g1
(g11
g12
(dtRp889
sg18
g1
(g11
g12
(dtRp890
sg20
g1
(g11
g12
(dtRp891
sg22
g1
(g11
g12
(dtRp892
sbsg24
g25
sg26
g27
((lp893
g33
ag32
ag29
ag30
atRp894
sg37
(lp895
g1
(g2
g3
NtRp896
(dp897
g6
g1
(g7
g3
NtRp898
(dp899
g10
g1
(g11
g12
(dtRp900
sg14
g1
(g11
g12
(dtRp901
sg16
g1
(g11
g12
(dtRp902
sg18
g1
(g11
g12
(dtRp903
sg20
g1
(g11
g12
(dtRp904
sg22
g1
(g11
g12
(dtRp905
sbsg24
S'Mgu'
p906
sg26
g27
((lp907
g29
ag30
aS'sequence'
p908
ag32
ag33
aS'species'
p909
atRp910
sg37
(lp911
sg121
g883
sg122
S'---------------------------------------------------------------------------------------------------------------------------------------------------------------------------------------------------------------------------------------HFHYVLSMGAFSLGYYYWPGLYNWFWFNFPMHFLGGMPRRPYPDAGWNSGSSKQLGPDESNEPH'
p912
sg124
F0.0044999999999999997
sg125
g126
sg33
S'31'
p913
sg128
g1
(g129
g12
(dp914
g131
I4
sg132
g133
sg134
g135
sg136
g133
sg137
I01
sg34
g138
sg139
g135
sg140
I0
sg141
I0
sg142
I0
sg143
g135
sg35
g144
sg145
I0
stRp915
sg147
g148
sg149
F1
sg150
Nsg30
S'MguilB'
p916
sbag1
(g2
g3
NtRp917
(dp918
g6
g1
(g7
g3
NtRp919
(dp920
g10
g1
(g11
g12
(dtRp921
sg14
g1
(g11
g12
(dtRp922
sg16
g1
(g11
g12
(dtRp923
sg18
g1
(g11
g12
(dtRp924
sg20
g1
(g11
g12
(dtRp925
sg22
g1
(g11
g12
(dtRp926
sbsg24
S'Mgu'
p927
sg26
g27
((lp928
g29
ag30
aS'sequence'
p929
ag32
ag33
aS'species'
p930
atRp931
sg37
(lp932
sg121
g883
sg122
S'RWLSTKDLYSRMELGNFNQNVHAMFVMPIGFGNPMGDMFARLNNSFWLPPLSLEGAGTGWTVYPPLSHSGPSVDMAFHLTSSLLGAMNFTNMRGPLFWTALLLLSLPVLAGTLLDRNFNTFEGGDPLYHLFWFFGHPEVYMMPGFGSHSTYKKFGMYASIGLGFVWSHHMYVGLDDRAYFTSATMMAPTGMKFSWLSTYGGRPMLAFLFLFTGGTGVLNASDAFHDTYYVVHFHYVLSMGAFSLGYYYWPGLYNWFWFNFPMHFLGGMPRRPYPDAGWNSGSSKQLGPDESNEPH'
p933
sg124
F0.0020100000000000001
sg125
g126
sg33
S'34'
p934
sg128
g1
(g129
g12
(dp935
g131
I4
sg132
g133
sg134
g135
sg136
g133
sg137
I01
sg34
g138
sg139
g135
sg140
I0
sg141
I0
sg142
I0
sg143
g135
sg35
g144
sg145
I0
stRp936
sg147
g148
sg149
F1
sg150
Nsg30
S'MguilA'
p937
sbasg121
g849
sg124
F0.25231999999999999
sg125
g126
sg33
S'26'
p938
sg128
g1
(g129
g12
(dp939
g131
I6
sg132
g133
sg134
g135
sg136
g133
sg137
I01
sg34
g175
sg139
g135
sg140
I0
sg141
I0
sg142
I0
sg143
g135
sg35
g176
sg145
I0
stRp940
sg147
g148
sg149
F0.98999999999999999
sg150
Nsg30
S'NoName'
p941
sbasg121
g775
sg124
F0.090679999999999997
sg125
g126
sg33
S'21'
p942
sg128
g1
(g129
g12
(dp943
g131
I6
sg132
g133
sg134
g135
sg136
g133
sg137
I01
sg34
g175
sg139
g135
sg140
I0
sg141
I0
sg142
I0
sg143
g135
sg35
g176
sg145
I0
stRp944
sg147
g148
sg149
F0.98999999999999999
sg150
Nsg30
S'NoName'
p945
sbasg121
g703
sg124
F0.032190000000000003
sg125
g126
sg33
S'14'
p946
sg128
g1
(g129
g12
(dp947
g131
I6
sg132
g133
sg134
g135
sg136
g133
sg137
I01
sg34
g175
sg139
g135
sg140
I0
sg141
I0
sg142
I0
sg143
g135
sg35
g176
sg145
I0
stRp948
sg147
g148
sg149
F0.64000000000000001
sg150
Nsg30
S'NoName'
p949
sbasg121
g690
sg124
F0.12181
sg125
g126
sg33
S'11'
p950
sg128
g1
(g129
g12
(dp951
g131
I6
sg132
g133
sg134
g135
sg136
g133
sg137
I01
sg34
g175
sg139
g135
sg140
I0
sg141
I0
sg142
I0
sg143
g135
sg35
g176
sg145
I0
stRp952
sg147
g148
sg149
F0.98999999999999999
sg150
Nsg30
S'NoName'
p953
sbag1
(g2
g3
NtRp954
(dp955
g6
g1
(g7
g3
NtRp956
(dp957
g10
g1
(g11
g12
(dtRp958
sg14
g1
(g11
g12
(dtRp959
sg16
g1
(g11
g12
(dtRp960
sg18
g1
(g11
g12
(dtRp961
sg20
g1
(g11
g12
(dtRp962
sg22
g1
(g11
g12
(dtRp963
sbsg24
g25
sg26
g27
((lp964
g33
ag32
ag29
ag30
atRp965
sg37
(lp966
g1
(g2
g3
NtRp967
(dp968
g6
g1
(g7
g3
NtRp969
(dp970
g10
g1
(g11
g12
(dtRp971
sg14
g1
(g11
g12
(dtRp972
sg16
g1
(g11
g12
(dtRp973
sg18
g1
(g11
g12
(dtRp974
sg20
g1
(g11
g12
(dtRp975
sg22
g1
(g11
g12
(dtRp976
sbsg24
g25
sg26
g27
((lp977
g33
ag32
ag29
ag30
atRp978
sg37
(lp979
g1
(g2
g3
NtRp980
(dp981
g6
g1
(g7
g3
NtRp982
(dp983
g10
g1
(g11
g12
(dtRp984
sg14
g1
(g11
g12
(dtRp985
sg16
g1
(g11
g12
(dtRp986
sg18
g1
(g11
g12
(dtRp987
sg20
g1
(g11
g12
(dtRp988
sg22
g1
(g11
g12
(dtRp989
sbsg24
S'Cbl'
p990
sg26
g27
((lp991
g29
ag30
aS'sequence'
p992
ag32
ag33
aS'species'
p993
atRp994
sg37
(lp995
sg121
g967
sg122
S'RWLSTKDLYSRLELANLNQNVHAMFVMPLGMGNPMGDMFARLNNSFWLPPLSLEGPGTGWTLYAPLSHSGPSVDMAFHLTSSLLGAINFTNMRGPLYWTALLLLSLPVLAATLLDRNFNTFEGGDPLYHLFWFFGHPEVYMIPGFGSHSTYKKFGMYASIGLGFVWSHHMYVGLDDRAYFTSATMIAPTGIKFSWMATYGGRPMLAFLFLFTGGTGVLNASDAFHDTYYVVHFHYVLSMGAFSLGYYYWPGLYNLFWFNFPMHFLGGMPRRPYPDAGWNSGSSYQLGPDESNEPH'
p996
sg124
F0.36785000000000001
sg125
g126
sg33
S'39'
p997
sg128
g1
(g129
g12
(dp998
g131
I4
sg132
g133
sg134
g135
sg136
g133
sg137
I01
sg34
g138
sg139
g135
sg140
I0
sg141
I0
sg142
I0
sg143
g135
sg35
g144
sg145
I0
stRp999
sg147
g148
sg149
F1
sg150
Nsg30
S'CblacA'
p1000
sbag1
(g2
g3
NtRp1001
(dp1002
g6
g1
(g7
g3
NtRp1003
(dp1004
g10
g1
(g11
g12
(dtRp1005
sg14
g1
(g11
g12
(dtRp1006
sg16
g1
(g11
g12
(dtRp1007
sg18
g1
(g11
g12
(dtRp1008
sg20
g1
(g11
g12
(dtRp1009
sg22
g1
(g11
g12
(dtRp1010
sbsg24
g25
sg26
g27
((lp1011
g33
ag32
ag29
ag30
atRp1012
sg37
(lp1013
g1
(g2
g3
NtRp1014
(dp1015
g6
g1
(g7
g3
NtRp1016
(dp1017
g10
g1
(g11
g12
(dtRp1018
sg14
g1
(g11
g12
(dtRp1019
sg16
g1
(g11
g12
(dtRp1020
sg18
g1
(g11
g12
(dtRp1021
sg20
g1
(g11
g12
(dtRp1022
sg22
g1
(g11
g12
(dtRp1023
sbsg24
g25
sg26
g27
((lp1024
g33
ag32
ag29
ag30
atRp1025
sg37
(lp1026
g1
(g2
g3
NtRp1027
(dp1028
g6
g1
(g7
g3
NtRp1029
(dp1030
g10
g1
(g11
g12
(dtRp1031
sg14
g1
(g11
g12
(dtRp1032
sg16
g1
(g11
g12
(dtRp1033
sg18
g1
(g11
g12
(dtRp1034
sg20
g1
(g11
g12
(dtRp1035
sg22
g1
(g11
g12
(dtRp1036
sbsg24
g25
sg26
g27
((lp1037
g33
ag32
ag29
ag30
atRp1038
sg37
(lp1039
g1
(g2
g3
NtRp1040
(dp1041
g6
g1
(g7
g3
NtRp1042
(dp1043
g10
g1
(g11
g12
(dtRp1044
sg14
g1
(g11
g12
(dtRp1045
sg16
g1
(g11
g12
(dtRp1046
sg18
g1
(g11
g12
(dtRp1047
sg20
g1
(g11
g12
(dtRp1048
sg22
g1
(g11
g12
(dtRp1049
sbsg24
g25
sg26
g27
((lp1050
g33
ag32
ag29
ag30
atRp1051
sg37
(lp1052
g1
(g2
g3
NtRp1053
(dp1054
g6
g1
(g7
g3
NtRp1055
(dp1056
g10
g1
(g11
g12
(dtRp1057
sg14
g1
(g11
g12
(dtRp1058
sg16
g1
(g11
g12
(dtRp1059
sg18
g1
(g11
g12
(dtRp1060
sg20
g1
(g11
g12
(dtRp1061
sg22
g1
(g11
g12
(dtRp1062
sbsg24
S'Lel'
p1063
sg26
g27
((lp1064
g29
ag30
aS'sequence'
p1065
ag32
ag33
aS'species'
p1066
atRp1067
sg37
(lp1068
sg121
g1040
sg122
S'RWLSTKDLYSRLELPGLDQNVHAMFVMPLGFGNPMGDMFARLNNSFWLPPLSLEGAGTGWTVYPPLSHSGPSVDLAFHLTSSLLGAINFTNMRGPLYWTALLLFSLPVLAGTLLDRNFNTFDGGDPLYHLFWFFGHPEVYIIPGFGSHSTYKKFGMYASIGLGFVWSHHMYVGLDDRAYFTSATMIAPTGIKFSWLATYGGRPMLAFLFLFTGGTGVLNASDAFHDTYYTVHFHYVLSMGAFSLGYYYWYGLYNLFWFNFPMHFLGGMPRRPYPDAGWNSGSSYQLGPDESNEPH'
p1069
sg124
F0.18278
sg125
g126
sg33
S'49'
p1070
sg128
g1
(g129
g12
(dp1071
g131
I4
sg132
g133
sg134
g135
sg136
g133
sg137
I01
sg34
g138
sg139
g135
sg140
I0
sg141
I0
sg142
I0
sg143
g135
sg35
g144
sg145
I0
stRp1072
sg147
g148
sg149
F1
sg150
Nsg30
S'LelonA'
p1073
sbag1
(g2
g3
NtRp1074
(dp1075
g6
g1
(g7
g3
NtRp1076
(dp1077
g10
g1
(g11
g12
(dtRp1078
sg14
g1
(g11
g12
(dtRp1079
sg16
g1
(g11
g12
(dtRp1080
sg18
g1
(g11
g12
(dtRp1081
sg20
g1
(g11
g12
(dtRp1082
sg22
g1
(g11
g12
(dtRp1083
sbsg24
S'Cox'
p1084
sg26
g27
((lp1085
g29
ag30
aS'sequence'
p1086
ag32
ag33
aS'species'
p1087
atRp1088
sg37
(lp1089
sg121
g1040
sg122
S'RWLSTKDLYSRLELSGLDQNVHAMFVMPIGFGNPMGDMFARLNNSFWLPPLSLEGPGVGWTVYPPLSHSGPSVDLAFHLTSSLLGAINFTNMRGPLYWTALLLLSLPVLAGTLLDRNFNTFDGGDPLYHLFWFFGHPEVYMIPGFGSHATYKKFGMYASIGLGFVWSHHMYVGLDDRAYFTSATMIAPTGIKFSWLATYGGRPMLAFLFLFTGGTGILNASDAFHDTYYTVHFHYVLSMGAFSLGYYLWYGLYNIFWFNFPMHFLGGMPRRPYPDAGWNSGSSYQLGPDESNEPH'
p1090
sg124
F0.17860000000000001
sg125
g126
sg33
S'50'
p1091
sg128
g1
(g129
g12
(dp1092
g131
I4
sg132
g133
sg134
g135
sg136
g133
sg137
I01
sg34
g138
sg139
g135
sg140
I0
sg141
I0
sg142
I0
sg143
g135
sg35
g144
sg145
I0
stRp1093
sg147
g148
sg149
F1
sg150
Nsg30
S'CoxycA'
p1094
sbasg121
g1027
sg124
F0.041480000000000003
sg125
g126
sg33
S'44'
p1095
sg128
g1
(g129
g12
(dp1096
g131
I6
sg132
g133
sg134
g135
sg136
g133
sg137
I01
sg34
g175
sg139
g135
sg140
I0
sg141
I0
sg142
I0
sg143
g135
sg35
g176
sg145
I0
stRp1097
sg147
g148
sg149
F0.98999999999999999
sg150
Nsg30
S'NoName'
p1098
sbag1
(g2
g3
NtRp1099
(dp1100
g6
g1
(g7
g3
NtRp1101
(dp1102
g10
g1
(g11
g12
(dtRp1103
sg14
g1
(g11
g12
(dtRp1104
sg16
g1
(g11
g12
(dtRp1105
sg18
g1
(g11
g12
(dtRp1106
sg20
g1
(g11
g12
(dtRp1107
sg22
g1
(g11
g12
(dtRp1108
sbsg24
g25
sg26
g27
((lp1109
g33
ag32
ag29
ag30
atRp1110
sg37
(lp1111
g1
(g2
g3
NtRp1112
(dp1113
g6
g1
(g7
g3
NtRp1114
(dp1115
g10
g1
(g11
g12
(dtRp1116
sg14
g1
(g11
g12
(dtRp1117
sg16
g1
(g11
g12
(dtRp1118
sg18
g1
(g11
g12
(dtRp1119
sg20
g1
(g11
g12
(dtRp1120
sg22
g1
(g11
g12
(dtRp1121
sbsg24
g25
sg26
g27
((lp1122
g33
ag32
ag29
ag30
atRp1123
sg37
(lp1124
g1
(g2
g3
NtRp1125
(dp1126
g6
g1
(g7
g3
NtRp1127
(dp1128
g10
g1
(g11
g12
(dtRp1129
sg14
g1
(g11
g12
(dtRp1130
sg16
g1
(g11
g12
(dtRp1131
sg18
g1
(g11
g12
(dtRp1132
sg20
g1
(g11
g12
(dtRp1133
sg22
g1
(g11
g12
(dtRp1134
sbsg24
g25
sg26
g27
((lp1135
g33
ag32
ag29
ag30
atRp1136
sg37
(lp1137
g1
(g2
g3
NtRp1138
(dp1139
g6
g1
(g7
g3
NtRp1140
(dp1141
g10
g1
(g11
g12
(dtRp1142
sg14
g1
(g11
g12
(dtRp1143
sg16
g1
(g11
g12
(dtRp1144
sg18
g1
(g11
g12
(dtRp1145
sg20
g1
(g11
g12
(dtRp1146
sg22
g1
(g11
g12
(dtRp1147
sbsg24
S'Cth'
p1148
sg26
g27
((lp1149
g29
ag30
aS'sequence'
p1150
ag32
ag33
aS'species'
p1151
atRp1152
sg37
(lp1153
sg121
g1125
sg122
S'RWLSTKDLYSRLELPGLNQNVHAMFVMPLGFGNPMGDMFARLNNSFWLPPLSLEGAGTGWTVYPPLSHSGPSVDLAFHLTSSLLGAINFTNMRGPLYWTALLLLSLPVLAGTLLDRNFNTFEGGDPLYHLFWFFGHPEVYIIPGFGSHSTYKKFGMYASIGLGFVWSHHMYVGLDDRAYFTSATMIAPTGIKFSWLATYGGRPMLAFLFLFTGGTGVLNASDAFHDTYYTVHFHYVLSMGAFSLGYYYWYGLYNLFWFNFPMHFLGGMPRRPYPDAGWNSGSSYQLGPDESNEPH'
p1154
sg124
F0.010059999999999999
sg125
g126
sg33
S'57'
p1155
sg128
g1
(g129
g12
(dp1156
g131
I4
sg132
g133
sg134
g135
sg136
g133
sg137
I01
sg34
g138
sg139
g135
sg140
I0
sg141
I0
sg142
I0
sg143
g135
sg35
g144
sg145
I0
stRp1157
sg147
g148
sg149
F1
sg150
Nsg30
S'CtheaA'
p1158
sbag1
(g2
g3
NtRp1159
(dp1160
g6
g1
(g7
g3
NtRp1161
(dp1162
g10
g1
(g11
g12
(dtRp1163
sg14
g1
(g11
g12
(dtRp1164
sg16
g1
(g11
g12
(dtRp1165
sg18
g1
(g11
g12
(dtRp1166
sg20
g1
(g11
g12
(dtRp1167
sg22
g1
(g11
g12
(dtRp1168
sbsg24
g25
sg26
g27
((lp1169
g33
ag32
ag29
ag30
atRp1170
sg37
(lp1171
g1
(g2
g3
NtRp1172
(dp1173
g6
g1
(g7
g3
NtRp1174
(dp1175
g10
g1
(g11
g12
(dtRp1176
sg14
g1
(g11
g12
(dtRp1177
sg16
g1
(g11
g12
(dtRp1178
sg18
g1
(g11
g12
(dtRp1179
sg20
g1
(g11
g12
(dtRp1180
sg22
g1
(g11
g12
(dtRp1181
sbsg24
g25
sg26
g27
((lp1182
g33
ag32
ag29
ag30
atRp1183
sg37
(lp1184
g1
(g2
g3
NtRp1185
(dp1186
g6
g1
(g7
g3
NtRp1187
(dp1188
g10
g1
(g11
g12
(dtRp1189
sg14
g1
(g11
g12
(dtRp1190
sg16
g1
(g11
g12
(dtRp1191
sg18
g1
(g11
g12
(dtRp1192
sg20
g1
(g11
g12
(dtRp1193
sg22
g1
(g11
g12
(dtRp1194
sbsg24
g25
sg26
g27
((lp1195
g33
ag32
ag29
ag30
atRp1196
sg37
(lp1197
g1
(g2
g3
NtRp1198
(dp1199
g6
g1
(g7
g3
NtRp1200
(dp1201
g10
g1
(g11
g12
(dtRp1202
sg14
g1
(g11
g12
(dtRp1203
sg16
g1
(g11
g12
(dtRp1204
sg18
g1
(g11
g12
(dtRp1205
sg20
g1
(g11
g12
(dtRp1206
sg22
g1
(g11
g12
(dtRp1207
sbsg24
S'Cor'
p1208
sg26
g27
((lp1209
g29
ag30
aS'sequence'
p1210
ag32
ag33
aS'species'
p1211
atRp1212
sg37
(lp1213
sg121
g1185
sg122
S'RWLSTKDLYSRLELPGLNQNVHAMFVMPLGFGNPMGDMFARLNNSFWLPPLSLEGAGTGWTVYPPLSHSGPSVDLAFHLTSSLLGAINFTNMRGPLFWTALLLLSLPVLAGTLLDRNFNTFEGGDPLYHLFWFFGHPEVYIIPGFGSHSTYKKFGMYASIGLGFVWSHHMYVGLDDRAYFTSATMIAPTGIKFSWLATYGGRPMLAFLFLFTGGTGVLNASDAFHDTYYTVHFHYVLSMGAFSLGYYYWYGLYNLFWFNFPMHFLGGMPRRPYPDAGWNSGSSYQLGPDESNEPH'
p1214
sg124
F0.00132
sg125
g126
sg33
S'64'
p1215
sg128
g1
(g129
g12
(dp1216
g131
I4
sg132
g133
sg134
g135
sg136
g133
sg137
I01
sg34
g138
sg139
g135
sg140
I0
sg141
I0
sg142
I0
sg143
g135
sg35
g144
sg145
I0
stRp1217
sg147
g148
sg149
F1
sg150
Nsg30
S'CorthC'
p1218
sbag1
(g2
g3
NtRp1219
(dp1220
g6
g1
(g7
g3
NtRp1221
(dp1222
g10
g1
(g11
g12
(dtRp1223
sg14
g1
(g11
g12
(dtRp1224
sg16
g1
(g11
g12
(dtRp1225
sg18
g1
(g11
g12
(dtRp1226
sg20
g1
(g11
g12
(dtRp1227
sg22
g1
(g11
g12
(dtRp1228
sbsg24
S'Cor'
p1229
sg26
g27
((lp1230
g29
ag30
aS'sequence'
p1231
ag32
ag33
aS'species'
p1232
atRp1233
sg37
(lp1234
sg121
g1185
sg122
S'RWLSTKDLYSRLELPGLNQNVHAMFVMPLGFGNPMGDMFARLNNSFWLPPLSLEGAGTGWTVYPPLSHSGPSVDLAFHLTSSLLGAINFTNMRGPLFWTALLLLSLPVLAGTLLDRNFNTFEGGDPLYHLFWFFGHPEVYIIPGFGSHSTYKKFGMYASIGLGFVWSHHMYVGLDDRAYFTSATMIAPTGIKFSWLATYGGRPMLAFLFLFTGGTGVLNASDAFHDTYYTVHFHYVLSMGAFSLGYYYWYGLYNLFWFNFPMHFLGGMPRRPYPDAGWNSGSSYQLGPDESNEPH'
p1235
sg124
F0.00093000000000000005
sg125
g126
sg33
S'67'
p1236
sg128
g1
(g129
g12
(dp1237
g131
I4
sg132
g133
sg134
g135
sg136
g133
sg137
I01
sg34
g138
sg139
g135
sg140
I0
sg141
I0
sg142
I0
sg143
g135
sg35
g144
sg145
I0
stRp1238
sg147
g148
sg149
F1
sg150
Nsg30
S'CorthB'
p1239
sbasg121
g1172
sg124
F0.00052999999999999998
sg125
g126
sg33
S'61'
p1240
sg128
g1
(g129
g12
(dp1241
g131
I6
sg132
g133
sg134
g135
sg136
g133
sg137
I01
sg34
g175
sg139
g135
sg140
I0
sg141
I0
sg142
I0
sg143
g135
sg35
g176
sg145
I0
stRp1242
sg147
g148
sg149
F0.85999999999999999
sg150
Nsg30
S'NoName'
p1243
sbag1
(g2
g3
NtRp1244
(dp1245
g6
g1
(g7
g3
NtRp1246
(dp1247
g10
g1
(g11
g12
(dtRp1248
sg14
g1
(g11
g12
(dtRp1249
sg16
g1
(g11
g12
(dtRp1250
sg18
g1
(g11
g12
(dtRp1251
sg20
g1
(g11
g12
(dtRp1252
sg22
g1
(g11
g12
(dtRp1253
sbsg24
S'Cor'
p1254
sg26
g27
((lp1255
g29
ag30
aS'sequence'
p1256
ag32
ag33
aS'species'
p1257
atRp1258
sg37
(lp1259
sg121
g1172
sg122
S'RWLSTKDLYSRLELPGLNQNVHAMFVMPLGFGNPMGDMFARLNNSFWLPPLSLEGAGTGWTVYPPLSHSGPSVDLAFHLTSSLLGAINFTNMRGPLFWTALLLLSLPVLAGTLLDRNFNTFEGGDPLYHLFWFFGHPEVYIIPGFGSHSTYKKFGMYASIGLGFVWSHHMYVGLDDRAYFTSATMIAPTGIKFSWLATYGGRPMLAFLFLFTGGTGVLNASDAFHDTYYTVHFHYVLSMGAFSLGYYYWYGLYNLFWFNFPMHFLGGMPRRPYPDAGWNSGSSYQLGPDESNEPH'
p1260
sg124
F0.0021099999999999999
sg125
g126
sg33
S'68'
p1261
sg128
g1
(g129
g12
(dp1262
g131
I4
sg132
g133
sg134
g135
sg136
g133
sg137
I01
sg34
g138
sg139
g135
sg140
I0
sg141
I0
sg142
I0
sg143
g135
sg35
g144
sg145
I0
stRp1263
sg147
g148
sg149
F1
sg150
Nsg30
S'CorthA'
p1264
sbasg121
g1159
sg124
F0.0031199999999999999
sg125
g126
sg33
S'59'
p1265
sg128
g1
(g129
g12
(dp1266
g131
I6
sg132
g133
sg134
g135
sg136
g133
sg137
I01
sg34
g175
sg139
g135
sg140
I0
sg141
I0
sg142
I0
sg143
g135
sg35
g176
sg145
I0
stRp1267
sg147
g148
sg149
F0.98999999999999999
sg150
Nsg30
S'NoName'
p1268
sbag1
(g2
g3
NtRp1269
(dp1270
g6
g1
(g7
g3
NtRp1271
(dp1272
g10
g1
(g11
g12
(dtRp1273
sg14
g1
(g11
g12
(dtRp1274
sg16
g1
(g11
g12
(dtRp1275
sg18
g1
(g11
g12
(dtRp1276
sg20
g1
(g11
g12
(dtRp1277
sg22
g1
(g11
g12
(dtRp1278
sbsg24
g25
sg26
g27
((lp1279
g33
ag32
ag29
ag30
atRp1280
sg37
(lp1281
g1
(g2
g3
NtRp1282
(dp1283
g6
g1
(g7
g3
NtRp1284
(dp1285
g10
g1
(g11
g12
(dtRp1286
sg14
g1
(g11
g12
(dtRp1287
sg16
g1
(g11
g12
(dtRp1288
sg18
g1
(g11
g12
(dtRp1289
sg20
g1
(g11
g12
(dtRp1290
sg22
g1
(g11
g12
(dtRp1291
sbsg24
g25
sg26
g27
((lp1292
g33
ag32
ag29
ag30
atRp1293
sg37
(lp1294
g1
(g2
g3
NtRp1295
(dp1296
g6
g1
(g7
g3
NtRp1297
(dp1298
g10
g1
(g11
g12
(dtRp1299
sg14
g1
(g11
g12
(dtRp1300
sg16
g1
(g11
g12
(dtRp1301
sg18
g1
(g11
g12
(dtRp1302
sg20
g1
(g11
g12
(dtRp1303
sg22
g1
(g11
g12
(dtRp1304
sbsg24
S'Cpa'
p1305
sg26
g27
((lp1306
g29
ag30
aS'sequence'
p1307
ag32
ag33
aS'species'
p1308
atRp1309
sg37
(lp1310
sg121
g1282
sg122
S'RWLSTKDLYSRLELPGLNQNVHAMFVMPLGFGNPMGDMFARLNNSFWLPPLSLEGAGTGWTVYPPLSHSGPSVDLAFHLTSSLLGAINFTNMRGPLFWTALLLLSLPVLAGTLLDRNFNTFEGGDPLYHLFWFFGHPEVYIIPGFGSHSTYKKFGMYASIGLGFVWSHHMYVGLDDRAYFTSATMIAPTSIKFSWLATYGGRTALAFIFLFTGGTGVLNSADPFHDSYYVVHFHYVLSMGAFSIGWYLWPGLYNLFWFNFPMHFLGGMPRRNYPDAGWNSGSAYQLGPSGTNEPH'
p1311
sg124
F0.00012999999999999999
sg125
g126
sg33
S'74'
p1312
sg128
g1
(g129
g12
(dp1313
g131
I4
sg132
g133
sg134
g135
sg136
g133
sg137
I01
sg34
g138
sg139
g135
sg140
I0
sg141
I0
sg142
I0
sg143
g135
sg35
g144
sg145
I0
stRp1314
sg147
g148
sg149
F1
sg150
Nsg30
S'CparaD'
p1315
sbag1
(g2
g3
NtRp1316
(dp1317
g6
g1
(g7
g3
NtRp1318
(dp1319
g10
g1
(g11
g12
(dtRp1320
sg14
g1
(g11
g12
(dtRp1321
sg16
g1
(g11
g12
(dtRp1322
sg18
g1
(g11
g12
(dtRp1323
sg20
g1
(g11
g12
(dtRp1324
sg22
g1
(g11
g12
(dtRp1325
sbsg24
S'Cpa'
p1326
sg26
g27
((lp1327
g29
ag30
aS'sequence'
p1328
ag32
ag33
aS'species'
p1329
atRp1330
sg37
(lp1331
sg121
g1282
sg122
S'RWLSTKDLYSRLELPGLNQNVHAMFVMPLGFGNPMGDMFARLNNSFWLPPLSLEGAGTGWTVYPPLSHSGPSVDLAFHLTSSLLGAINFTNMRGPLFWTALLLLSLPVLAGTLLDRNFNTFEGGDPLYHLFWFFGHPEVYIIPGFGSHSTYKKFGMYASIGLGFVWSHHMYVGLDDRAYFTSATMIAPTGIKFSWLATYGGRPMLAFLFLFTGGTGVVNASDAFHDTYYVVHFHYVLSMGAFSLGYYYWYGLYNLFWFNFPMHFLGGMPRRPYPDAGWNSGSSYSLGPDESNEPH'
p1332
sg124
F0.00012999999999999999
sg125
g126
sg33
S'75'
p1333
sg128
g1
(g129
g12
(dp1334
g131
I4
sg132
g133
sg134
g135
sg136
g133
sg137
I01
sg34
g138
sg139
g135
sg140
I0
sg141
I0
sg142
I0
sg143
g135
sg35
g144
sg145
I0
stRp1335
sg147
g148
sg149
F1
sg150
Nsg30
S'CparaB'
p1336
sbasg121
g1269
sg124
F0.00051000000000000004
sg125
g126
sg33
S'70'
p1337
sg128
g1
(g129
g12
(dp1338
g131
I6
sg132
g133
sg134
g135
sg136
g133
sg137
I01
sg34
g175
sg139
g135
sg140
I0
sg141
I0
sg142
I0
sg143
g135
sg35
g176
sg145
I0
stRp1339
sg147
g148
sg149
F0.98999999999999999
sg150
Nsg30
S'NoName'
p1340
sbag1
(g2
g3
NtRp1341
(dp1342
g6
g1
(g7
g3
NtRp1343
(dp1344
g10
g1
(g11
g12
(dtRp1345
sg14
g1
(g11
g12
(dtRp1346
sg16
g1
(g11
g12
(dtRp1347
sg18
g1
(g11
g12
(dtRp1348
sg20
g1
(g11
g12
(dtRp1349
sg22
g1
(g11
g12
(dtRp1350
sbsg24
S'Cpa'
p1351
sg26
g27
((lp1352
g29
ag30
aS'sequence'
p1353
ag32
ag33
aS'species'
p1354
atRp1355
sg37
(lp1356
sg121
g1269
sg122
S'RWLSTKDLYSRLELPGLNQNVHAMFVMPLGFGNPMGDMFARLNNSFWLPPLSLEGAGTGWTVYPPLSHSGPSVDLAFHLTSSLLGAINFTNMRGPLFWTALLLLSLPVLAGTLLDRNFNTFEGGDPLYHLFWFFGHPEVYIIPGFGSHSTYKKFGMYASIGLGFVWSHHMYVGLDDRAYFTSATMIAPTGIKFSWLATYGGRPMLAFLFLFTGGTGVVNASDAFHDTYYVVHFHYVLSMGAFSLGYYYWYGLYNLFWFNFPMHFLGGMPRRPYPDAGWNSGSSYSLGPDESNEPH'
p1357
sg124
F0.00012
sg125
g126
sg33
S'77'
p1358
sg128
g1
(g129
g12
(dp1359
g131
I4
sg132
g133
sg134
g135
sg136
g133
sg137
I01
sg34
g138
sg139
g135
sg140
I0
sg141
I0
sg142
I0
sg143
g135
sg35
g144
sg145
I0
stRp1360
sg147
g148
sg149
F1
sg150
Nsg30
S'CparaC'
p1361
sbasg121
g1159
sg124
F1.0000000000000001e-05
sg125
g126
sg33
S'63'
p1362
sg128
g1
(g129
g12
(dp1363
g131
I6
sg132
g133
sg134
g135
sg136
g133
sg137
I01
sg34
g175
sg139
g135
sg140
I0
sg141
I0
sg142
I0
sg143
g135
sg35
g176
sg145
I0
stRp1364
sg147
g148
sg149
F1
sg150
Nsg30
S'NoName'
p1365
sbasg121
g1125
sg124
F0.0032599999999999999
sg125
g126
sg33
S'56'
p1366
sg128
g1
(g129
g12
(dp1367
g131
I6
sg132
g133
sg134
g135
sg136
g133
sg137
I01
sg34
g175
sg139
g135
sg140
I0
sg141
I0
sg142
I0
sg143
g135
sg35
g176
sg145
I0
stRp1368
sg147
g148
sg149
F0.97999999999999998
sg150
Nsg30
S'NoName'
p1369
sbasg121
g1112
sg124
F1.0000000000000001e-05
sg125
g126
sg33
S'54'
p1370
sg128
g1
(g129
g12
(dp1371
g131
I6
sg132
g133
sg134
g135
sg136
g133
sg137
I01
sg34
g175
sg139
g135
sg140
I0
sg141
I0
sg142
I0
sg143
g135
sg35
g176
sg145
I0
stRp1372
sg147
g148
sg149
F1
sg150
Nsg30
S'NoName'
p1373
sbag1
(g2
g3
NtRp1374
(dp1375
g6
g1
(g7
g3
NtRp1376
(dp1377
g10
g1
(g11
g12
(dtRp1378
sg14
g1
(g11
g12
(dtRp1379
sg16
g1
(g11
g12
(dtRp1380
sg18
g1
(g11
g12
(dtRp1381
sg20
g1
(g11
g12
(dtRp1382
sg22
g1
(g11
g12
(dtRp1383
sbsg24
g25
sg26
g27
((lp1384
g33
ag32
ag29
ag30
atRp1385
sg37
(lp1386
g1
(g2
g3
NtRp1387
(dp1388
g6
g1
(g7
g3
NtRp1389
(dp1390
g10
g1
(g11
g12
(dtRp1391
sg14
g1
(g11
g12
(dtRp1392
sg16
g1
(g11
g12
(dtRp1393
sg18
g1
(g11
g12
(dtRp1394
sg20
g1
(g11
g12
(dtRp1395
sg22
g1
(g11
g12
(dtRp1396
sbsg24
g25
sg26
g27
((lp1397
g33
ag32
ag29
ag30
atRp1398
sg37
(lp1399
g1
(g2
g3
NtRp1400
(dp1401
g6
g1
(g7
g3
NtRp1402
(dp1403
g10
g1
(g11
g12
(dtRp1404
sg14
g1
(g11
g12
(dtRp1405
sg16
g1
(g11
g12
(dtRp1406
sg18
g1
(g11
g12
(dtRp1407
sg20
g1
(g11
g12
(dtRp1408
sg22
g1
(g11
g12
(dtRp1409
sbsg24
g25
sg26
g27
((lp1410
g33
ag32
ag29
ag30
atRp1411
sg37
(lp1412
g1
(g2
g3
NtRp1413
(dp1414
g6
g1
(g7
g3
NtRp1415
(dp1416
g10
g1
(g11
g12
(dtRp1417
sg14
g1
(g11
g12
(dtRp1418
sg16
g1
(g11
g12
(dtRp1419
sg18
g1
(g11
g12
(dtRp1420
sg20
g1
(g11
g12
(dtRp1421
sg22
g1
(g11
g12
(dtRp1422
sbsg24
g25
sg26
g27
((lp1423
g33
ag32
ag29
ag30
atRp1424
sg37
(lp1425
g1
(g2
g3
NtRp1426
(dp1427
g6
g1
(g7
g3
NtRp1428
(dp1429
g10
g1
(g11
g12
(dtRp1430
sg14
g1
(g11
g12
(dtRp1431
sg16
g1
(g11
g12
(dtRp1432
sg18
g1
(g11
g12
(dtRp1433
sg20
g1
(g11
g12
(dtRp1434
sg22
g1
(g11
g12
(dtRp1435
sbsg24
g25
sg26
g27
((lp1436
g33
ag32
ag29
ag30
atRp1437
sg37
(lp1438
g1
(g2
g3
NtRp1439
(dp1440
g6
g1
(g7
g3
NtRp1441
(dp1442
g10
g1
(g11
g12
(dtRp1443
sg14
g1
(g11
g12
(dtRp1444
sg16
g1
(g11
g12
(dtRp1445
sg18
g1
(g11
g12
(dtRp1446
sg20
g1
(g11
g12
(dtRp1447
sg22
g1
(g11
g12
(dtRp1448
sbsg24
S'Cme'
p1449
sg26
g27
((lp1450
g29
ag30
aS'sequence'
p1451
ag32
ag33
aS'species'
p1452
atRp1453
sg37
(lp1454
sg121
g1426
sg122
S'RWLSTKDLYSRLELPGLNQNVHAMFVMPLGFGNPMGDMFARLNNSFWLPPLSLEGAGTGWTVYPPLSHSGPSVDLAFHLTSSLLGAINFTNMRGPLYWTALLLLSLPVLAGTLLDRNFNTFEGGDPLYHLFWFFGHPEVYIIPGFGSHSTYKKFGMYASIGLGFVWSHHMYVGLDDRAYFTSATMIAPTGIKFSWLATYGGRPMLAFLFLFTGGTGVLNASDAFHDTYYVVHFHYVLSMGAFSLGYYYWYGLYNLFWFNFPMHFLGGMPRRPYPDAGWNSGSSYQLGPDESNEPH'
p1455
sg124
F0.00012999999999999999
sg125
g126
sg33
S'87'
p1456
sg128
g1
(g129
g12
(dp1457
g131
I4
sg132
g133
sg134
g135
sg136
g133
sg137
I01
sg34
g138
sg139
g135
sg140
I0
sg141
I0
sg142
I0
sg143
g135
sg35
g144
sg145
I0
stRp1458
sg147
g148
sg149
F1
sg150
Nsg30
S'CmetaF'
p1459
sbag1
(g2
g3
NtRp1460
(dp1461
g6
g1
(g7
g3
NtRp1462
(dp1463
g10
g1
(g11
g12
(dtRp1464
sg14
g1
(g11
g12
(dtRp1465
sg16
g1
(g11
g12
(dtRp1466
sg18
g1
(g11
g12
(dtRp1467
sg20
g1
(g11
g12
(dtRp1468
sg22
g1
(g11
g12
(dtRp1469
sbsg24
S'Cme'
p1470
sg26
g27
((lp1471
g29
ag30
aS'sequence'
p1472
ag32
ag33
aS'species'
p1473
atRp1474
sg37
(lp1475
sg121
g1426
sg122
S'RWLSTKDLYSRLELPGLNQNVHAMFVMPLGFGNPMGDMFARLNNSFWLPPLSLEGAGTGWTVYPPLSHSGPSVDLAFHLTSSLLGAINFTNMRGPLYWTALLLLSLPVLAGTLLDRNFNTFEGGDPLYHLFWFFGHPEVYIIPGFGSHSTYKKFGMYASIGLGFVWSHHMYVGLDDRAYFTSATMIAPTGIKFSWLATYGGRPMLAFLFLFTGGTGVLNASDAFHDTYYVVHFHYVLSMGAFSLGYYYWYGLYNLFWFNFPMHFLGGMPRRPYPDAGWNSGSSYQLGPDESNEPH'
p1476
sg124
F0.00012
sg125
g126
sg33
S'88'
p1477
sg128
g1
(g129
g12
(dp1478
g131
I4
sg132
g133
sg134
g135
sg136
g133
sg137
I01
sg34
g138
sg139
g135
sg140
I0
sg141
I0
sg142
I0
sg143
g135
sg35
g144
sg145
I0
stRp1479
sg147
g148
sg149
F1
sg150
Nsg30
S'CmetaE'
p1480
sbasg121
g1413
sg124
F1.0000000000000001e-05
sg125
g126
sg33
S'83'
p1481
sg128
g1
(g129
g12
(dp1482
g131
I6
sg132
g133
sg134
g135
sg136
g133
sg137
I01
sg34
g175
sg139
g135
sg140
I0
sg141
I0
sg142
I0
sg143
g135
sg35
g176
sg145
I0
stRp1483
sg147
g148
sg149
F1
sg150
Nsg30
S'NoName'
p1484
sbag1
(g2
g3
NtRp1485
(dp1486
g6
g1
(g7
g3
NtRp1487
(dp1488
g10
g1
(g11
g12
(dtRp1489
sg14
g1
(g11
g12
(dtRp1490
sg16
g1
(g11
g12
(dtRp1491
sg18
g1
(g11
g12
(dtRp1492
sg20
g1
(g11
g12
(dtRp1493
sg22
g1
(g11
g12
(dtRp1494
sbsg24
S'Cme'
p1495
sg26
g27
((lp1496
g29
ag30
aS'sequence'
p1497
ag32
ag33
aS'species'
p1498
atRp1499
sg37
(lp1500
sg121
g1413
sg122
S'RWLSTKDLYSRLELPGLNQNVHAMFVMPLGFGNPMGDMFARLNNSFWLPPLSLEGAGTGWTVYPPLSHSGPSVDLAFHLTSSLLGAINFTNMRGPLYWTALLLLSLPVLAGTLLDRNFNTFEGGDPLYHLFWFFGHPEVYIIPGFGSHSTYKKFGMYASIGLGFVWSHHMYVGLDDRAYFTSATMIAPTGIKFSWLATYGGRPMLAFLFLFTGGTGVLNASDAFHDTYYVVHFHYVLSMGAFSLGYYYWYGLYNLFWFNFPMHFLGGMPRRPYPDAGWNSGSSYQLGPDESNEPH'
p1501
sg124
F0.00020000000000000001
sg125
g126
sg33
S'90'
p1502
sg128
g1
(g129
g12
(dp1503
g131
I4
sg132
g133
sg134
g135
sg136
g133
sg137
I01
sg34
g138
sg139
g135
sg140
I0
sg141
I0
sg142
I0
sg143
g135
sg35
g144
sg145
I0
stRp1504
sg147
g148
sg149
F1
sg150
Nsg30
S'CmetaD'
p1505
sbasg121
g1400
sg124
F1.0000000000000001e-05
sg125
g126
sg33
S'81'
p1506
sg128
g1
(g129
g12
(dp1507
g131
I6
sg132
g133
sg134
g135
sg136
g133
sg137
I01
sg34
g175
sg139
g135
sg140
I0
sg141
I0
sg142
I0
sg143
g135
sg35
g176
sg145
I0
stRp1508
sg147
g148
sg149
F1
sg150
Nsg30
S'NoName'
p1509
sbag1
(g2
g3
NtRp1510
(dp1511
g6
g1
(g7
g3
NtRp1512
(dp1513
g10
g1
(g11
g12
(dtRp1514
sg14
g1
(g11
g12
(dtRp1515
sg16
g1
(g11
g12
(dtRp1516
sg18
g1
(g11
g12
(dtRp1517
sg20
g1
(g11
g12
(dtRp1518
sg22
g1
(g11
g12
(dtRp1519
sbsg24
S'Cme'
p1520
sg26
g27
((lp1521
g29
ag30
aS'sequence'
p1522
ag32
ag33
aS'species'
p1523
atRp1524
sg37
(lp1525
sg121
g1400
sg122
S'RWLSTKDLYSRLELPGLNQNVHAMFVMPLGFGNPMGDMFARLNNSFWLPPLSLEGAGTGWTVYPPLSHSGPSVDLAFHLTSSLLGAINFTNMRGPLYWTALLLLSLPVLAGTLLDRNFNTFEGGDPLYHLFWFFGHPEVYIIPGFGSHSTYKKFGMYASIGLGFVWSHHMYVGLDDRAYFTSATMIAPTGIKFSWLATYGGRPMLAFLFLFTGGTGVLNASDAFHDTYYVVHFHYVLSMGAFSLGYYYWYGLYNLFWFNFPMHFLGGMPRRPYPDAGWNSGSSYQLGPDESNEPH'
p1526
sg124
F0.00052999999999999998
sg125
g126
sg33
S'92'
p1527
sg128
g1
(g129
g12
(dp1528
g131
I4
sg132
g133
sg134
g135
sg136
g133
sg137
I01
sg34
g138
sg139
g135
sg140
I0
sg141
I0
sg142
I0
sg143
g135
sg35
g144
sg145
I0
stRp1529
sg147
g148
sg149
F1
sg150
Nsg30
S'CmetaC'
p1530
sbasg121
g1387
sg124
F1.0000000000000001e-05
sg125
g126
sg33
S'80'
p1531
sg128
g1
(g129
g12
(dp1532
g131
I6
sg132
g133
sg134
g135
sg136
g133
sg137
I01
sg34
g175
sg139
g135
sg140
I0
sg141
I0
sg142
I0
sg143
g135
sg35
g176
sg145
I0
stRp1533
sg147
g148
sg149
F1
sg150
Nsg30
S'NoName'
p1534
sbag1
(g2
g3
NtRp1535
(dp1536
g6
g1
(g7
g3
NtRp1537
(dp1538
g10
g1
(g11
g12
(dtRp1539
sg14
g1
(g11
g12
(dtRp1540
sg16
g1
(g11
g12
(dtRp1541
sg18
g1
(g11
g12
(dtRp1542
sg20
g1
(g11
g12
(dtRp1543
sg22
g1
(g11
g12
(dtRp1544
sbsg24
S'Cme'
p1545
sg26
g27
((lp1546
g29
ag30
aS'sequence'
p1547
ag32
ag33
aS'species'
p1548
atRp1549
sg37
(lp1550
sg121
g1387
sg122
S'RWLSTKDLYSRLELPGLNQNVHAMFVMPLGFGNPMGDMFARLNNSFWLPPLSLEGAGTGWTVYPPLSHSGPSVDLAFHLTSSLLGAINFTNMRGPLYWTALLLLSLPVLAGTLLDRNFNTFEGGDPLYHLFWFFGHPEVYIIPGFGSHSTYKKFGMYASIGLGFVWSHHMYVGLDDRAYFTSATMIAPTGIKFSWLATYGGRPMLAFLFLFTGGTGVLNASDAFHDTYYVVHFHYVLSMGAFSLGYYYWYGLYNLFWFNFPMHFLGGMPRRPYPDAGWNSGSSYQLGPDESNEPH'
p1551
sg124
F0.00012
sg125
g126
sg33
S'94'
p1552
sg128
g1
(g129
g12
(dp1553
g131
I4
sg132
g133
sg134
g135
sg136
g133
sg137
I01
sg34
g138
sg139
g135
sg140
I0
sg141
I0
sg142
I0
sg143
g135
sg35
g144
sg145
I0
stRp1554
sg147
g148
sg149
F1
sg150
Nsg30
S'CmetaB'
p1555
sbasg121
g1374
sg124
F1.0000000000000001e-05
sg125
g126
sg33
S'78'
p1556
sg128
g1
(g129
g12
(dp1557
g131
I6
sg132
g133
sg134
g135
sg136
g133
sg137
I01
sg34
g175
sg139
g135
sg140
I0
sg141
I0
sg142
I0
sg143
g135
sg35
g176
sg145
I0
stRp1558
sg147
g148
sg149
F1
sg150
Nsg30
S'NoName'
p1559
sbag1
(g2
g3
NtRp1560
(dp1561
g6
g1
(g7
g3
NtRp1562
(dp1563
g10
g1
(g11
g12
(dtRp1564
sg14
g1
(g11
g12
(dtRp1565
sg16
g1
(g11
g12
(dtRp1566
sg18
g1
(g11
g12
(dtRp1567
sg20
g1
(g11
g12
(dtRp1568
sg22
g1
(g11
g12
(dtRp1569
sbsg24
S'Cme'
p1570
sg26
g27
((lp1571
g29
ag30
aS'sequence'
p1572
ag32
ag33
aS'species'
p1573
atRp1574
sg37
(lp1575
sg121
g1374
sg122
S'RWLSTKDLYSRLELPGLNQNVHAMFVMPLGFGNPMGDMFARLNNSFWLPPLSLEGAGTGWTVYPPLSHSGPSVDLAFHLTSSLLGAINFTNMRGPLYWTALLLLSLPVLAGTLLDRNFNTFEGGDPLYHLFWFFGHPEVYIIPGFGSHSTYKKFGMYASIGLGFVWSHHMYVGLDDRAYFTSATMIAPTGIKFSWLATYGGRPMLAFLFLFTGGTGVLNASDAFHDTYYVVHFHYVLSMGAFSLGYYYWYGLYNLFWFNFPMHFLGGMPRRPYPDAGWNSGSSYQLGPDESNEPH'
p1576
sg124
F0.00012999999999999999
sg125
g126
sg33
S'95'
p1577
sg128
g1
(g129
g12
(dp1578
g131
I4
sg132
g133
sg134
g135
sg136
g133
sg137
I01
sg34
g138
sg139
g135
sg140
I0
sg141
I0
sg142
I0
sg143
g135
sg35
g144
sg145
I0
stRp1579
sg147
g148
sg149
F1
sg150
Nsg30
S'CmetaA'
p1580
sbasg121
g1112
sg124
F0.020930000000000001
sg125
g126
sg33
S'72'
p1581
sg128
g1
(g129
g12
(dp1582
g131
I6
sg132
g133
sg134
g135
sg136
g133
sg137
I01
sg34
g175
sg139
g135
sg140
I0
sg141
I0
sg142
I0
sg143
g135
sg35
g176
sg145
I0
stRp1583
sg147
g148
sg149
F0.98999999999999999
sg150
Nsg30
S'NoName'
p1584
sbasg121
g1099
sg124
F0.045289999999999997
sg125
g126
sg33
S'52'
p1585
sg128
g1
(g129
g12
(dp1586
g131
I6
sg132
g133
sg134
g135
sg136
g133
sg137
I01
sg34
g175
sg139
g135
sg140
I0
sg141
I0
sg142
I0
sg143
g135
sg35
g176
sg145
I0
stRp1587
sg147
g148
sg149
F0.98999999999999999
sg150
Nsg30
S'NoName'
p1588
sbag1
(g2
g3
NtRp1589
(dp1590
g6
g1
(g7
g3
NtRp1591
(dp1592
g10
g1
(g11
g12
(dtRp1593
sg14
g1
(g11
g12
(dtRp1594
sg16
g1
(g11
g12
(dtRp1595
sg18
g1
(g11
g12
(dtRp1596
sg20
g1
(g11
g12
(dtRp1597
sg22
g1
(g11
g12
(dtRp1598
sbsg24
S'Cji'
p1599
sg26
g27
((lp1600
g29
ag30
aS'sequence'
p1601
ag32
ag33
aS'species'
p1602
atRp1603
sg37
(lp1604
sg121
g1099
sg122
S'RWLSTKDLYSRLELPGLNQNVHAMFVMPLGFGNPMGDMFARLNNSFWLPPLSLEGAGTGWTVYPPLSHSGPSVDLAFHLTSSLLGAINFTNMRGPMFWTALLLLSLPVLAGTLLDRNFNTFDGGDPLYHLFWFFGHPEVYIIPGFGSHSTYKKFGMYASIGLGFVWSHHMYVGLDDRAYFTSATMIAPTGIKFSWLATYGGRPMLAFLFLFTGGTGVLNASDAFHDTYYTVHFHYVLSMGAFSLGYYYWYGLYNLFWFNFPMHFLGGMPRRPYPDAGWNSGSSYQLGPDESNEPH'
p1605
sg124
F0.013140000000000001
sg125
g126
sg33
S'98'
p1606
sg128
g1
(g129
g12
(dp1607
g131
I4
sg132
g133
sg134
g135
sg136
g133
sg137
I01
sg34
g138
sg139
g135
sg140
I0
sg141
I0
sg142
I0
sg143
g135
sg35
g144
sg145
I0
stRp1608
sg147
g148
sg149
F1
sg150
Nsg30
S'CjiufA'
p1609
sbasg121
g1027
sg124
F0.044909999999999999
sg125
g126
sg33
S'46'
p1610
sg128
g1
(g129
g12
(dp1611
g131
I6
sg132
g133
sg134
g135
sg136
g133
sg137
I01
sg34
g175
sg139
g135
sg140
I0
sg141
I0
sg142
I0
sg143
g135
sg35
g176
sg145
I0
stRp1612
sg147
g148
sg149
F0.98999999999999999
sg150
Nsg30
S'NoName'
p1613
sbasg121
g1014
sg124
F0.082199999999999995
sg125
g126
sg33
S'42'
p1614
sg128
g1
(g129
g12
(dp1615
g131
I6
sg132
g133
sg134
g135
sg136
g133
sg137
I01
sg34
g175
sg139
g135
sg140
I0
sg141
I0
sg142
I0
sg143
g135
sg35
g176
sg145
I0
stRp1616
sg147
g148
sg149
F0.98999999999999999
sg150
Nsg30
S'NoName'
p1617
sbag1
(g2
g3
NtRp1618
(dp1619
g6
g1
(g7
g3
NtRp1620
(dp1621
g10
g1
(g11
g12
(dtRp1622
sg14
g1
(g11
g12
(dtRp1623
sg16
g1
(g11
g12
(dtRp1624
sg18
g1
(g11
g12
(dtRp1625
sg20
g1
(g11
g12
(dtRp1626
sg22
g1
(g11
g12
(dtRp1627
sbsg24
g25
sg26
g27
((lp1628
g33
ag32
ag29
ag30
atRp1629
sg37
(lp1630
g1
(g2
g3
NtRp1631
(dp1632
g6
g1
(g7
g3
NtRp1633
(dp1634
g10
g1
(g11
g12
(dtRp1635
sg14
g1
(g11
g12
(dtRp1636
sg16
g1
(g11
g12
(dtRp1637
sg18
g1
(g11
g12
(dtRp1638
sg20
g1
(g11
g12
(dtRp1639
sg22
g1
(g11
g12
(dtRp1640
sbsg24
g25
sg26
g27
((lp1641
g33
ag32
ag29
ag30
atRp1642
sg37
(lp1643
g1
(g2
g3
NtRp1644
(dp1645
g6
g1
(g7
g3
NtRp1646
(dp1647
g10
g1
(g11
g12
(dtRp1648
sg14
g1
(g11
g12
(dtRp1649
sg16
g1
(g11
g12
(dtRp1650
sg18
g1
(g11
g12
(dtRp1651
sg20
g1
(g11
g12
(dtRp1652
sg22
g1
(g11
g12
(dtRp1653
sbsg24
S'Cco'
p1654
sg26
g27
((lp1655
g29
ag30
aS'sequence'
p1656
ag32
ag33
aS'species'
p1657
atRp1658
sg37
(lp1659
sg121
g1631
sg122
S'RWLSTKDLYSRMELPGLNQNVHAMFVMPLGFGNPMGDMFARLNNSFWLPPLSLEGAGTGWTLYAPLSHSGPSVDLAFHLTSSLLGAINFTNMRGPLFWTALLLLSLPVLAATLLDRNFNTFEGGDPLYHLFFVLMHPEVYIIPGFGSHSTYKKFGMYASMGLGFVWSHHMYVGLDDRAYFTSATMIAPTGIKFSWLATYGGRPMLAFLFLFTGGTGVLNASDAFHDTYYIKHFHYVLSMGAFSLGYYYWYGLYNMFWFNFPMHFLGGMPRRPYPDAGWNSGSSYQLGPDESNEPH'
p1660
sg124
F0.057970000000000001
sg125
g126
sg33
S'104'
p1661
sg128
g1
(g129
g12
(dp1662
g131
I4
sg132
g133
sg134
g135
sg136
g133
sg137
I01
sg34
g138
sg139
g135
sg140
I0
sg141
I0
sg142
I0
sg143
g135
sg35
g144
sg145
I0
stRp1663
sg147
g148
sg149
F1
sg150
Nsg30
S'CcoryA'
p1664
sbag1
(g2
g3
NtRp1665
(dp1666
g6
g1
(g7
g3
NtRp1667
(dp1668
g10
g1
(g11
g12
(dtRp1669
sg14
g1
(g11
g12
(dtRp1670
sg16
g1
(g11
g12
(dtRp1671
sg18
g1
(g11
g12
(dtRp1672
sg20
g1
(g11
g12
(dtRp1673
sg22
g1
(g11
g12
(dtRp1674
sbsg24
S'Cch'
p1675
sg26
g27
((lp1676
g29
ag30
aS'sequence'
p1677
ag32
ag33
aS'species'
p1678
atRp1679
sg37
(lp1680
sg121
g1631
sg122
S'RWLSTKDLYSRMELPSLNQNVHAMFVMPLGFGNPMGDMFARLNNSFWLPPLSLEGAGTGWTLYAPLSHSGPSVDLAFHLTSSLLGAINFTNMRGPLFWTALLLLSLPVLAATLLDRNFNTFEGGDPLYHLFWFYMYKDYYIIPGFGSHSTYKKFGMYASIGLGFVWSHHMFVGLDDRAYFTSATMIAPTGIKFSWLATYGGRPMLAFLFLFTGGTGVLNASDAFHDTYYVVHFHYVLSMGAFSLGYYYWYGLYNLFWFNFPMHFLGGMPRRPYPDAGWNSGSSYQLGPDESNEPH'
p1681
sg124
F0.052440000000000001
sg125
g126
sg33
S'106'
p1682
sg128
g1
(g129
g12
(dp1683
g131
I4
sg132
g133
sg134
g135
sg136
g133
sg137
I01
sg34
g138
sg139
g135
sg140
I0
sg141
I0
sg142
I0
sg143
g135
sg35
g144
sg145
I0
stRp1684
sg147
g148
sg149
F1
sg150
Nsg30
S'CchauA'
p1685
sbasg121
g1618
sg124
F0.16861999999999999
sg125
g126
sg33
S'100'
p1686
sg128
g1
(g129
g12
(dp1687
g131
I6
sg132
g133
sg134
g135
sg136
g133
sg137
I01
sg34
g175
sg139
g135
sg140
I0
sg141
I0
sg142
I0
sg143
g135
sg35
g176
sg145
I0
stRp1688
sg147
g148
sg149
F0.98999999999999999
sg150
Nsg30
S'NoName'
p1689
sbag1
(g2
g3
NtRp1690
(dp1691
g6
g1
(g7
g3
NtRp1692
(dp1693
g10
g1
(g11
g12
(dtRp1694
sg14
g1
(g11
g12
(dtRp1695
sg16
g1
(g11
g12
(dtRp1696
sg18
g1
(g11
g12
(dtRp1697
sg20
g1
(g11
g12
(dtRp1698
sg22
g1
(g11
g12
(dtRp1699
sbsg24
S'Cbo'
p1700
sg26
g27
((lp1701
g29
ag30
aS'sequence'
p1702
ag32
ag33
aS'species'
p1703
atRp1704
sg37
(lp1705
sg121
g1618
sg122
S'RWLSTKDLYSRMELPGLNQNVHAMFVMPLGFGNPMGDMFARLNNSFWLPPLSLEGAGTGWTVYPPLSHSGPSVDLAFHLTSSLLGAINFTNMRGPLFWTALLLLSLPVLAATLLDRNFNTFEGGDPLYHLFWFFGHPEVYIIPGFGSHSTYKKFGMYASIGLGFVWSHHMYVGLDDRAYFTSATMIAPTGIKFSWLATYGGRPMLAFLFLFTGGTGVLNASDAFHDTYYVVHFHYVLSMGAFSLAYYYWYGLYNLFWFNFPMHFLGGMPRRPYPDAGWNSGSSYQLGPDESNEPH'
p1706
sg124
F0.20199
sg125
g126
sg33
S'109'
p1707
sg128
g1
(g129
g12
(dp1708
g131
I4
sg132
g133
sg134
g135
sg136
g133
sg137
I01
sg34
g138
sg139
g135
sg140
I0
sg141
I0
sg142
I0
sg143
g135
sg35
g144
sg145
I0
stRp1709
sg147
g148
sg149
F1
sg150
Nsg30
S'CbohiA'
p1710
sbasg121
g1014
sg124
F0.14915999999999999
sg125
g126
sg33
S'85'
p1711
sg128
g1
(g129
g12
(dp1712
g131
I6
sg132
g133
sg134
g135
sg136
g133
sg137
I01
sg34
g175
sg139
g135
sg140
I0
sg141
I0
sg142
I0
sg143
g135
sg35
g176
sg145
I0
stRp1713
sg147
g148
sg149
F0.98999999999999999
sg150
Nsg30
S'NoName'
p1714
sbasg121
g1001
sg124
F0.036799999999999999
sg125
g126
sg33
S'41'
p1715
sg128
g1
(g129
g12
(dp1716
g131
I6
sg132
g133
sg134
g135
sg136
g133
sg137
I01
sg34
g175
sg139
g135
sg140
I0
sg141
I0
sg142
I0
sg143
g135
sg35
g176
sg145
I0
stRp1717
sg147
g148
sg149
F0.98999999999999999
sg150
Nsg30
S'NoName'
p1718
sbag1
(g2
g3
NtRp1719
(dp1720
g6
g1
(g7
g3
NtRp1721
(dp1722
g10
g1
(g11
g12
(dtRp1723
sg14
g1
(g11
g12
(dtRp1724
sg16
g1
(g11
g12
(dtRp1725
sg18
g1
(g11
g12
(dtRp1726
sg20
g1
(g11
g12
(dtRp1727
sg22
g1
(g11
g12
(dtRp1728
sbsg24
g25
sg26
g27
((lp1729
g33
ag32
ag29
ag30
atRp1730
sg37
(lp1731
g1
(g2
g3
NtRp1732
(dp1733
g6
g1
(g7
g3
NtRp1734
(dp1735
g10
g1
(g11
g12
(dtRp1736
sg14
g1
(g11
g12
(dtRp1737
sg16
g1
(g11
g12
(dtRp1738
sg18
g1
(g11
g12
(dtRp1739
sg20
g1
(g11
g12
(dtRp1740
sg22
g1
(g11
g12
(dtRp1741
sbsg24
g25
sg26
g27
((lp1742
g33
ag32
ag29
ag30
atRp1743
sg37
(lp1744
g1
(g2
g3
NtRp1745
(dp1746
g6
g1
(g7
g3
NtRp1747
(dp1748
g10
g1
(g11
g12
(dtRp1749
sg14
g1
(g11
g12
(dtRp1750
sg16
g1
(g11
g12
(dtRp1751
sg18
g1
(g11
g12
(dtRp1752
sg20
g1
(g11
g12
(dtRp1753
sg22
g1
(g11
g12
(dtRp1754
sbsg24
S'Cma'
p1755
sg26
g27
((lp1756
g29
ag30
aS'sequence'
p1757
ag32
ag33
aS'species'
p1758
atRp1759
sg37
(lp1760
sg121
g1732
sg122
S'RWLSTKDLYSRLELPGLSQNVHAMFVMPLGFGNPLGDMFARLNNSFWLPPLSLEGAGTGWTVYPPLSHSGPSVDLAFHLTSSLLGAINFTNMRGPLYWTALLLLSLPVLAGTLLDRNFNTFEGGDPLYHLFWFFGHPEVYMIPGFGSHSTYKKFGMYASMGLGFVWSHHMYVGLDDRAYFTSATMIAPTGIKFSWLATYGGRPMLAFLFLFTGGTGVLNASDAFHDTYYVVHFHYVLSMGAFSLGYYYWSGLYNLYWFNFPMHFLGGMPRRPYPDAGWNSGSSYQLGPDESNEPH'
p1761
sg124
F0.24277000000000001
sg125
g126
sg33
S'115'
p1762
sg128
g1
(g129
g12
(dp1763
g131
I4
sg132
g133
sg134
g135
sg136
g133
sg137
I01
sg34
g138
sg139
g135
sg140
I0
sg141
I0
sg142
I0
sg143
g135
sg35
g144
sg145
I0
stRp1764
sg147
g148
sg149
F1
sg150
Nsg30
S'CmaltA'
p1765
sbag1
(g2
g3
NtRp1766
(dp1767
g6
g1
(g7
g3
NtRp1768
(dp1769
g10
g1
(g11
g12
(dtRp1770
sg14
g1
(g11
g12
(dtRp1771
sg16
g1
(g11
g12
(dtRp1772
sg18
g1
(g11
g12
(dtRp1773
sg20
g1
(g11
g12
(dtRp1774
sg22
g1
(g11
g12
(dtRp1775
sbsg24
g25
sg26
g27
((lp1776
g33
ag32
ag29
ag30
atRp1777
sg37
(lp1778
g1
(g2
g3
NtRp1779
(dp1780
g6
g1
(g7
g3
NtRp1781
(dp1782
g10
g1
(g11
g12
(dtRp1783
sg14
g1
(g11
g12
(dtRp1784
sg16
g1
(g11
g12
(dtRp1785
sg18
g1
(g11
g12
(dtRp1786
sg20
g1
(g11
g12
(dtRp1787
sg22
g1
(g11
g12
(dtRp1788
sbsg24
g25
sg26
g27
((lp1789
g33
ag32
ag29
ag30
atRp1790
sg37
(lp1791
g1
(g2
g3
NtRp1792
(dp1793
g6
g1
(g7
g3
NtRp1794
(dp1795
g10
g1
(g11
g12
(dtRp1796
sg14
g1
(g11
g12
(dtRp1797
sg16
g1
(g11
g12
(dtRp1798
sg18
g1
(g11
g12
(dtRp1799
sg20
g1
(g11
g12
(dtRp1800
sg22
g1
(g11
g12
(dtRp1801
sbsg24
g25
sg26
g27
((lp1802
g33
ag32
ag29
ag30
atRp1803
sg37
(lp1804
g1
(g2
g3
NtRp1805
(dp1806
g6
g1
(g7
g3
NtRp1807
(dp1808
g10
g1
(g11
g12
(dtRp1809
sg14
g1
(g11
g12
(dtRp1810
sg16
g1
(g11
g12
(dtRp1811
sg18
g1
(g11
g12
(dtRp1812
sg20
g1
(g11
g12
(dtRp1813
sg22
g1
(g11
g12
(dtRp1814
sbsg24
g25
sg26
g27
((lp1815
g33
ag32
ag29
ag30
atRp1816
sg37
(lp1817
g1
(g2
g3
NtRp1818
(dp1819
g6
g1
(g7
g3
NtRp1820
(dp1821
g10
g1
(g11
g12
(dtRp1822
sg14
g1
(g11
g12
(dtRp1823
sg16
g1
(g11
g12
(dtRp1824
sg18
g1
(g11
g12
(dtRp1825
sg20
g1
(g11
g12
(dtRp1826
sg22
g1
(g11
g12
(dtRp1827
sbsg24
S'Ctr'
p1828
sg26
g27
((lp1829
g29
ag30
aS'sequence'
p1830
ag32
ag33
aS'species'
p1831
atRp1832
sg37
(lp1833
sg121
g1805
sg122
S'RWLSTKDLYSRLELPGLNQNVHAMFVMPLGFGNPMGDMFARLNNSFWLPPLSLEGAGTGWTVYPPLSHSGPSVDLAFHLTSSLLGAINFTNMRGPLFWTALLLLSLPVLAGTLLDRNFNTFEGGDPLYHLFWFFGHPEVYIIPGFGSHSTYKKFGMYASIGLGFVWSHHMYVGLDDRAYFTSATMIAPTGIKFSWLATYGGRPMLAFLFLFTGGTGVLNASDAFHDSYYVVHFHYVLSMGAFSLGYYYWPGLYNLYWFNFPMHFLGGMPRRPYPDAGWNSGSSYQLGPDEANEPH'
p1834
sg124
F0.00064000000000000005
sg125
g126
sg33
S'123'
p1835
sg128
g1
(g129
g12
(dp1836
g131
I4
sg132
g133
sg134
g135
sg136
g133
sg137
I01
sg34
g138
sg139
g135
sg140
I0
sg141
I0
sg142
I0
sg143
g135
sg35
g144
sg145
I0
stRp1837
sg147
g148
sg149
F1
sg150
Nsg30
S'CtropB'
p1838
sbag1
(g2
g3
NtRp1839
(dp1840
g6
g1
(g7
g3
NtRp1841
(dp1842
g10
g1
(g11
g12
(dtRp1843
sg14
g1
(g11
g12
(dtRp1844
sg16
g1
(g11
g12
(dtRp1845
sg18
g1
(g11
g12
(dtRp1846
sg20
g1
(g11
g12
(dtRp1847
sg22
g1
(g11
g12
(dtRp1848
sbsg24
S'Ctr'
p1849
sg26
g27
((lp1850
g29
ag30
aS'sequence'
p1851
ag32
ag33
aS'species'
p1852
atRp1853
sg37
(lp1854
sg121
g1805
sg122
S'RWLSTKDLYSRLELPGLNQNVHAMFVMPLGFGNPMGDMFARLNNSFWLPPLSLEGAGTGWTVYPPLSHSGPSVDLAFHLTSSLLGAINFTNMRGPLFWTALLLLSLPVLAGTLLDRNFNTFEGGDPLYHLFWFFGHPEVYIIPGFGSHSTYKKFGMYASIGLGFVWSHHMYVGLDDRAYFTSATMIAPTGIKFSWLATYGGRPMLAFLFLFTGGTGVLNASDAFHDSYYVVHFHYVLSMGAFSLGYYYWPGLYNLYWFNFPMHFLGGMPRRPYPDAGWNSGSSYQLGPDEANEPH'
p1855
sg124
F0.00040000000000000002
sg125
g126
sg33
S'124'
p1856
sg128
g1
(g129
g12
(dp1857
g131
I4
sg132
g133
sg134
g135
sg136
g133
sg137
I01
sg34
g138
sg139
g135
sg140
I0
sg141
I0
sg142
I0
sg143
g135
sg35
g144
sg145
I0
stRp1858
sg147
g148
sg149
F1
sg150
Nsg30
S'CtropA'
p1859
sbasg121
g1792
sg124
F0.032030000000000003
sg125
g126
sg33
S'120'
p1860
sg128
g1
(g129
g12
(dp1861
g131
I6
sg132
g133
sg134
g135
sg136
g133
sg137
I01
sg34
g175
sg139
g135
sg140
I0
sg141
I0
sg142
I0
sg143
g135
sg35
g176
sg145
I0
stRp1862
sg147
g148
sg149
F0.98999999999999999
sg150
Nsg30
S'NoName'
p1863
sbag1
(g2
g3
NtRp1864
(dp1865
g6
g1
(g7
g3
NtRp1866
(dp1867
g10
g1
(g11
g12
(dtRp1868
sg14
g1
(g11
g12
(dtRp1869
sg16
g1
(g11
g12
(dtRp1870
sg18
g1
(g11
g12
(dtRp1871
sg20
g1
(g11
g12
(dtRp1872
sg22
g1
(g11
g12
(dtRp1873
sbsg24
S'Cso'
p1874
sg26
g27
((lp1875
g29
ag30
aS'sequence'
p1876
ag32
ag33
aS'species'
p1877
atRp1878
sg37
(lp1879
sg121
g1792
sg122
S'RWLSTKDLYSRLELPGLNQNVHAMFVMPLGFGNPMGDMFARLNNSFWLPPLSLEGAGTGWTVYPPLSHSGPSVDLAFHLTSSLLGAMNFTNMRGPLFWTALLLLSLPVLAGTLLDRNFNTFEGGDPLYHLFWFFGHPEVYIIPGFGSHSTYKKFGMYASIGLGFVWSHHMYVGLDDRAYFTSATMIAPTGIKFSWLATYGGRPMLAFLFLFTGGTGVLNASDAFHDTYYVVHFHYVLSMGAFSLGYYYWPGLYNLYWFNFPMHFLGGMPRRPYPDAGWNSGSSYQLGPDEANEPH'
p1880
sg124
F0.033649999999999999
sg125
g126
sg33
S'126'
p1881
sg128
g1
(g129
g12
(dp1882
g131
I4
sg132
g133
sg134
g135
sg136
g133
sg137
I01
sg34
g138
sg139
g135
sg140
I0
sg141
I0
sg142
I0
sg143
g135
sg35
g144
sg145
I0
stRp1883
sg147
g148
sg149
F1
sg150
Nsg30
S'CsojaA'
p1884
sbasg121
g1779
sg124
F0.019990000000000001
sg125
g126
sg33
S'118'
p1885
sg128
g1
(g129
g12
(dp1886
g131
I6
sg132
g133
sg134
g135
sg136
g133
sg137
I01
sg34
g175
sg139
g135
sg140
I0
sg141
I0
sg142
I0
sg143
g135
sg35
g176
sg145
I0
stRp1887
sg147
g148
sg149
F0.98999999999999999
sg150
Nsg30
S'NoName'
p1888
sbag1
(g2
g3
NtRp1889
(dp1890
g6
g1
(g7
g3
NtRp1891
(dp1892
g10
g1
(g11
g12
(dtRp1893
sg14
g1
(g11
g12
(dtRp1894
sg16
g1
(g11
g12
(dtRp1895
sg18
g1
(g11
g12
(dtRp1896
sg20
g1
(g11
g12
(dtRp1897
sg22
g1
(g11
g12
(dtRp1898
sbsg24
g25
sg26
g27
((lp1899
g33
ag32
ag29
ag30
atRp1900
sg37
(lp1901
g1
(g2
g3
NtRp1902
(dp1903
g6
g1
(g7
g3
NtRp1904
(dp1905
g10
g1
(g11
g12
(dtRp1906
sg14
g1
(g11
g12
(dtRp1907
sg16
g1
(g11
g12
(dtRp1908
sg18
g1
(g11
g12
(dtRp1909
sg20
g1
(g11
g12
(dtRp1910
sg22
g1
(g11
g12
(dtRp1911
sbsg24
S'Cte'
p1912
sg26
g27
((lp1913
g29
ag30
aS'sequence'
p1914
ag32
ag33
aS'species'
p1915
atRp1916
sg37
(lp1917
sg121
g1889
sg122
S'RWLSTKDLYSRLELPGLNQNVHAMFVMPLGFGNPMGDMFARLNNSFWLPPLSLEGAGTGWTVYPPLSHSGPSVDMAFHLTSSLLGAINFTNMRGPLFWTALLLLSLPVLAGTLLDRNFNTFEGGDPLYHLFWFFGHPEVYIIPGFGSHSTYKKFGMYASIGLGFVWSHHMFVGLDDRAYFTSATMMAPTGIKFSWLATYGGRPMLAFLFLFTGGTGVLNASDSMHDTYYVVHFHYVLSMGAFSLGYYYWPGLYNLYWFNFPMHFLGGMPRRPYPDAGWNSGSSLQLGPDESNEPH'
p1918
sg124
F0.084209999999999993
sg125
g126
sg33
S'130'
p1919
sg128
g1
(g129
g12
(dp1920
g131
I4
sg132
g133
sg134
g135
sg136
g133
sg137
I01
sg34
g138
sg139
g135
sg140
I0
sg141
I0
sg142
I0
sg143
g135
sg35
g144
sg145
I0
stRp1921
sg147
g148
sg149
F1
sg150
Nsg30
S'CtetrA'
p1922
sbag1
(g2
g3
NtRp1923
(dp1924
g6
g1
(g7
g3
NtRp1925
(dp1926
g10
g1
(g11
g12
(dtRp1927
sg14
g1
(g11
g12
(dtRp1928
sg16
g1
(g11
g12
(dtRp1929
sg18
g1
(g11
g12
(dtRp1930
sg20
g1
(g11
g12
(dtRp1931
sg22
g1
(g11
g12
(dtRp1932
sbsg24
g25
sg26
g27
((lp1933
g33
ag32
ag29
ag30
atRp1934
sg37
(lp1935
g1
(g2
g3
NtRp1936
(dp1937
g6
g1
(g7
g3
NtRp1938
(dp1939
g10
g1
(g11
g12
(dtRp1940
sg14
g1
(g11
g12
(dtRp1941
sg16
g1
(g11
g12
(dtRp1942
sg18
g1
(g11
g12
(dtRp1943
sg20
g1
(g11
g12
(dtRp1944
sg22
g1
(g11
g12
(dtRp1945
sbsg24
g25
sg26
g27
((lp1946
g33
ag32
ag29
ag30
atRp1947
sg37
(lp1948
g1
(g2
g3
NtRp1949
(dp1950
g6
g1
(g7
g3
NtRp1951
(dp1952
g10
g1
(g11
g12
(dtRp1953
sg14
g1
(g11
g12
(dtRp1954
sg16
g1
(g11
g12
(dtRp1955
sg18
g1
(g11
g12
(dtRp1956
sg20
g1
(g11
g12
(dtRp1957
sg22
g1
(g11
g12
(dtRp1958
sbsg24
S'Cvi'
p1959
sg26
g27
((lp1960
g29
ag30
aS'sequence'
p1961
ag32
ag33
aS'species'
p1962
atRp1963
sg37
(lp1964
sg121
g1936
sg122
S'RWFSTKDLYSRLELPGLNQNVHAMFVMPLGFGNPMGDMFARLNNSFWLPPLSLEGAGTGWTVYPPLSHSGPSVDLAFHLTSSLLGAINFTNMRGPLFWTALLLLSLPVLAGTLLDRNFNTFDGGDPLYHLFWFFGHPEVYMIPGFGSHSTYKKFGMYASIGLGFVWSHHMYVGLDDRAYFTSATMIAPTGIKFSWLSTYGGRPTLAFLFLFTGGTGVLNASDSMHDTYYVVHFHYVLSMGAFSLGYYYWPGLYNLYWFNFPMHFLGGMPRRPYPDSGWNSGSSFQLGPDESNEPH'
p1965
sg124
F0.03977
sg125
g126
sg33
S'134'
p1966
sg128
g1
(g129
g12
(dp1967
g131
I4
sg132
g133
sg134
g135
sg136
g133
sg137
I01
sg34
g138
sg139
g135
sg140
I0
sg141
I0
sg142
I0
sg143
g135
sg35
g144
sg145
I0
stRp1968
sg147
g148
sg149
F1
sg150
Nsg30
S'CviswA'
p1969
sbag1
(g2
g3
NtRp1970
(dp1971
g6
g1
(g7
g3
NtRp1972
(dp1973
g10
g1
(g11
g12
(dtRp1974
sg14
g1
(g11
g12
(dtRp1975
sg16
g1
(g11
g12
(dtRp1976
sg18
g1
(g11
g12
(dtRp1977
sg20
g1
(g11
g12
(dtRp1978
sg22
g1
(g11
g12
(dtRp1979
sbsg24
S'Csa'
p1980
sg26
g27
((lp1981
g29
ag30
aS'sequence'
p1982
ag32
ag33
aS'species'
p1983
atRp1984
sg37
(lp1985
sg121
g1936
sg122
S'RWFSTKDLYSRLELPGLNQNVHAMFVMPLGFGNPMGDMFARLNNSFWLPPLSLEGAGTGWTVYPPLSHSGPSVDLAFHLTSSLLGAINFTNMRGVLFWTALLLLSLPVLAGTLLDRNFNTFDGGDPLYHLFWFFGHPEVYIIPGFGSHSTFKKFGMYASIGLGFVWSHHMYVGLDDRAYFTSATMIAPTGIKFSWIATYGGRPTLAFLFLFTGGTGVLNASDSMHDTYYVVHFHYVLSMGAFSLGYYYWPGLYNLYWFNFPMHFLGGMPRRPYPDSGWNSGSSYQLGPDEGNEPH'
p1986
sg124
F0.065189999999999998
sg125
g126
sg33
S'136'
p1987
sg128
g1
(g129
g12
(dp1988
g131
I4
sg132
g133
sg134
g135
sg136
g133
sg137
I01
sg34
g138
sg139
g135
sg140
I0
sg141
I0
sg142
I0
sg143
g135
sg35
g144
sg145
I0
stRp1989
sg147
g148
sg149
F1
sg150
Nsg30
S'CsaraA'
p1990
sbasg121
g1923
sg124
F0.029960000000000001
sg125
g126
sg33
S'131'
p1991
sg128
g1
(g129
g12
(dp1992
g131
I6
sg132
g133
sg134
g135
sg136
g133
sg137
I01
sg34
g175
sg139
g135
sg140
I0
sg141
I0
sg142
I0
sg143
g135
sg35
g176
sg145
I0
stRp1993
sg147
g148
sg149
F0.98999999999999999
sg150
Nsg30
S'NoName'
p1994
sbag1
(g2
g3
NtRp1995
(dp1996
g6
g1
(g7
g3
NtRp1997
(dp1998
g10
g1
(g11
g12
(dtRp1999
sg14
g1
(g11
g12
(dtRp2000
sg16
g1
(g11
g12
(dtRp2001
sg18
g1
(g11
g12
(dtRp2002
sg20
g1
(g11
g12
(dtRp2003
sg22
g1
(g11
g12
(dtRp2004
sbsg24
S'Cpr'
p2005
sg26
g27
((lp2006
g29
ag30
aS'sequence'
p2007
ag32
ag33
aS'species'
p2008
atRp2009
sg37
(lp2010
sg121
g1923
sg122
S'RWFSTKDEYSRLELPGLNQNVHAMFVMPLGFGNPMGDMFARLNNSFWLPPLSLEGAGTGWTVYPPLSHSGPSVDLAFHLTSSLLGAINFTNMRGPLFWTALLLLSLPVLTGTLLDRNFNTFDGGDPLYHLFWFFGHPEVYMIPGFGSHSTYKKFGMYASMGLGFVWSHHMFVGLDDRAYFTSATMMAPTGIKFSWLATYGGRPMLAFLFLFTGGTGVLNASDSMHDTYYVVHFHYVLSMGAFSLGYYYWPGLYNLYWFNFPMHFLGGMPRRPYPDSGWNSGSSVQLGPDENNEPH'
p2011
sg124
F0.17724999999999999
sg125
g126
sg33
S'138'
p2012
sg128
g1
(g129
g12
(dp2013
g131
I4
sg132
g133
sg134
g135
sg136
g133
sg137
I01
sg34
g138
sg139
g135
sg140
I0
sg141
I0
sg142
I0
sg143
g135
sg35
g144
sg145
I0
stRp2014
sg147
g148
sg149
F1
sg150
Nsg30
S'CpracA'
p2015
sbasg121
g1889
sg124
F0.02281
sg125
g126
sg33
S'127'
p2016
sg128
g1
(g129
g12
(dp2017
g131
I6
sg132
g133
sg134
g135
sg136
g133
sg137
I01
sg34
g175
sg139
g135
sg140
I0
sg141
I0
sg142
I0
sg143
g135
sg35
g176
sg145
I0
stRp2018
sg147
g148
sg149
F0.98999999999999999
sg150
Nsg30
S'NoName'
p2019
sbasg121
g1779
sg124
F0.01154
sg125
g126
sg33
S'121'
p2020
sg128
g1
(g129
g12
(dp2021
g131
I6
sg132
g133
sg134
g135
sg136
g133
sg137
I01
sg34
g175
sg139
g135
sg140
I0
sg141
I0
sg142
I0
sg143
g135
sg35
g176
sg145
I0
stRp2022
sg147
g148
sg149
F0.98999999999999999
sg150
Nsg30
S'NoName'
p2023
sbasg121
g1766
sg124
F0.02138
sg125
g126
sg33
S'117'
p2024
sg128
g1
(g129
g12
(dp2025
g131
I6
sg132
g133
sg134
g135
sg136
g133
sg137
I01
sg34
g175
sg139
g135
sg140
I0
sg141
I0
sg142
I0
sg143
g135
sg35
g176
sg145
I0
stRp2026
sg147
g148
sg149
F0.98999999999999999
sg150
Nsg30
S'NoName'
p2027
sbag1
(g2
g3
NtRp2028
(dp2029
g6
g1
(g7
g3
NtRp2030
(dp2031
g10
g1
(g11
g12
(dtRp2032
sg14
g1
(g11
g12
(dtRp2033
sg16
g1
(g11
g12
(dtRp2034
sg18
g1
(g11
g12
(dtRp2035
sg20
g1
(g11
g12
(dtRp2036
sg22
g1
(g11
g12
(dtRp2037
sbsg24
g25
sg26
g27
((lp2038
g33
ag32
ag29
ag30
atRp2039
sg37
(lp2040
g1
(g2
g3
NtRp2041
(dp2042
g6
g1
(g7
g3
NtRp2043
(dp2044
g10
g1
(g11
g12
(dtRp2045
sg14
g1
(g11
g12
(dtRp2046
sg16
g1
(g11
g12
(dtRp2047
sg18
g1
(g11
g12
(dtRp2048
sg20
g1
(g11
g12
(dtRp2049
sg22
g1
(g11
g12
(dtRp2050
sbsg24
S'Cne'
p2051
sg26
g27
((lp2052
g29
ag30
aS'sequence'
p2053
ag32
ag33
aS'species'
p2054
atRp2055
sg37
(lp2056
sg121
g2028
sg122
S'RWLSTKDLYSRLELPGLNQNVHAMFVMPLGFGNPMGDMFARLNNSFWLPPLSLEGAGTGWTVYPPLSHSGPSVDLAFHLTSSLLGAINFTNMRGPLFWTALLLLSLPVLAGTLLDRNFNTFDGGDPLYHLFWFFGHPEVYIIPGFGSHSTYKKFGMYASIGLGFVWSHHMYVGLDDRAYFTSATMIAPTGIKFSWLATYGGRPMLAFLFLFTGGTGVLNASDAFHDTYYVVHFHYVLSMGAFSLGYYYWPGLYNLYWFNFPMHFLGGMPRRPYPDSGWNSGSSYQLGPDESNEPH'
p2057
sg124
F0.04879
sg125
g126
sg33
S'141'
p2058
sg128
g1
(g129
g12
(dp2059
g131
I4
sg132
g133
sg134
g135
sg136
g133
sg137
I01
sg34
g138
sg139
g135
sg140
I0
sg141
I0
sg142
I0
sg143
g135
sg35
g144
sg145
I0
stRp2060
sg147
g148
sg149
F1
sg150
Nsg30
S'CneerA'
p2061
sbag1
(g2
g3
NtRp2062
(dp2063
g6
g1
(g7
g3
NtRp2064
(dp2065
g10
g1
(g11
g12
(dtRp2066
sg14
g1
(g11
g12
(dtRp2067
sg16
g1
(g11
g12
(dtRp2068
sg18
g1
(g11
g12
(dtRp2069
sg20
g1
(g11
g12
(dtRp2070
sg22
g1
(g11
g12
(dtRp2071
sbsg24
S'Cfr'
p2072
sg26
g27
((lp2073
g29
ag30
aS'sequence'
p2074
ag32
ag33
aS'species'
p2075
atRp2076
sg37
(lp2077
sg121
g2028
sg122
S'RWLSTKDLYSRLELPGLNQNVHAMFVMPLGFGNPMGDMFARLNNSFWLPPLSLEGAGTGWTVYPPLSHSGPSVDLAFHLTSSLLGAMNFTNMRGPLFWTALLLLSLPVLAGTLLDRNFNTFDGGDPLYHLFWFFGHPEVYIIPGFGSHSTYKKFGMYASIGLGFVWSHHMYVGLDDRAYFTSATMIAPTGIKFSWLSTYGGRPMLAFLFLFTGGTGVLNASDAFHDTYYVVHFHYVLSMGAFSLGYYYWPGLYNLYWFNFPMHFLGGMPRRPYPDSGWNSGSSYQLGPDESNEPH'
p2078
sg124
F0.050279999999999998
sg125
g126
sg33
S'143'
p2079
sg128
g1
(g129
g12
(dp2080
g131
I4
sg132
g133
sg134
g135
sg136
g133
sg137
I01
sg34
g138
sg139
g135
sg140
I0
sg141
I0
sg142
I0
sg143
g135
sg35
g144
sg145
I0
stRp2081
sg147
g148
sg149
F1
sg150
Nsg30
S'CfrijA'
p2082
sbasg121
g1766
sg124
F0.11378000000000001
sg125
g126
sg33
S'133'
p2083
sg128
g1
(g129
g12
(dp2084
g131
I6
sg132
g133
sg134
g135
sg136
g133
sg137
I01
sg34
g175
sg139
g135
sg140
I0
sg141
I0
sg142
I0
sg143
g135
sg35
g176
sg145
I0
stRp2085
sg147
g148
sg149
F0.98999999999999999
sg150
Nsg30
S'NoName'
p2086
sbasg121
g1732
sg124
F0.076910000000000006
sg125
g126
sg33
S'112'
p2087
sg128
g1
(g129
g12
(dp2088
g131
I6
sg132
g133
sg134
g135
sg136
g133
sg137
I01
sg34
g175
sg139
g135
sg140
I0
sg141
I0
sg142
I0
sg143
g135
sg35
g176
sg145
I0
stRp2089
sg147
g148
sg149
F0.98999999999999999
sg150
Nsg30
S'NoName'
p2090
sbasg121
g1719
sg124
F0.022950000000000002
sg125
g126
sg33
S'111'
p2091
sg128
g1
(g129
g12
(dp2092
g131
I6
sg132
g133
sg134
g135
sg136
g133
sg137
I01
sg34
g175
sg139
g135
sg140
I0
sg141
I0
sg142
I0
sg143
g135
sg35
g176
sg145
I0
stRp2093
sg147
g148
sg149
F0.65000000000000002
sg150
Nsg30
S'NoName'
p2094
sbag1
(g2
g3
NtRp2095
(dp2096
g6
g1
(g7
g3
NtRp2097
(dp2098
g10
g1
(g11
g12
(dtRp2099
sg14
g1
(g11
g12
(dtRp2100
sg16
g1
(g11
g12
(dtRp2101
sg18
g1
(g11
g12
(dtRp2102
sg20
g1
(g11
g12
(dtRp2103
sg22
g1
(g11
g12
(dtRp2104
sbsg24
g25
sg26
g27
((lp2105
g33
ag32
ag29
ag30
atRp2106
sg37
(lp2107
g1
(g2
g3
NtRp2108
(dp2109
g6
g1
(g7
g3
NtRp2110
(dp2111
g10
g1
(g11
g12
(dtRp2112
sg14
g1
(g11
g12
(dtRp2113
sg16
g1
(g11
g12
(dtRp2114
sg18
g1
(g11
g12
(dtRp2115
sg20
g1
(g11
g12
(dtRp2116
sg22
g1
(g11
g12
(dtRp2117
sbsg24
g25
sg26
g27
((lp2118
g33
ag32
ag29
ag30
atRp2119
sg37
(lp2120
g1
(g2
g3
NtRp2121
(dp2122
g6
g1
(g7
g3
NtRp2123
(dp2124
g10
g1
(g11
g12
(dtRp2125
sg14
g1
(g11
g12
(dtRp2126
sg16
g1
(g11
g12
(dtRp2127
sg18
g1
(g11
g12
(dtRp2128
sg20
g1
(g11
g12
(dtRp2129
sg22
g1
(g11
g12
(dtRp2130
sbsg24
S'Cgi'
p2131
sg26
g27
((lp2132
g29
ag30
aS'sequence'
p2133
ag32
ag33
aS'species'
p2134
atRp2135
sg37
(lp2136
sg121
g2108
sg122
S'RWLSTKDLYSRLELAGLNQNVHAMFVMPLGFGNPMGDMFARLNNSFWLPPLSLEGAGTGWTVYPPLSHSGPSVDMAFHLTSSLLGAINFTNMRGPLFWTALLLLSLPVLAATLLDRNFNTFEGGDPLYHAFWFFGHPEVYIIPGFGSHSTYKKFGMYASIGLGFVWSHHMYVGLDDRAYFTSATMIAPTGIKFSWLATYGGRPMLAFLFLFTGGTGVLNASDAFHDTYYVVHFHYVLSMGAFSLGYYYWPGLYNLYWFNFPMHFLGGMPRRPYPDAGWNSGSSYQLGPDESNEPH'
p2137
sg124
F0.22796
sg125
g126
sg33
S'147'
p2138
sg128
g1
(g129
g12
(dp2139
g131
I4
sg132
g133
sg134
g135
sg136
g133
sg137
I01
sg34
g138
sg139
g135
sg140
I0
sg141
I0
sg142
I0
sg143
g135
sg35
g144
sg145
I0
stRp2140
sg147
g148
sg149
F1
sg150
Nsg30
S'CgigaA'
p2141
sbag1
(g2
g3
NtRp2142
(dp2143
g6
g1
(g7
g3
NtRp2144
(dp2145
g10
g1
(g11
g12
(dtRp2146
sg14
g1
(g11
g12
(dtRp2147
sg16
g1
(g11
g12
(dtRp2148
sg18
g1
(g11
g12
(dtRp2149
sg20
g1
(g11
g12
(dtRp2150
sg22
g1
(g11
g12
(dtRp2151
sbsg24
S'Cbu'
p2152
sg26
g27
((lp2153
g29
ag30
aS'sequence'
p2154
ag32
ag33
aS'species'
p2155
atRp2156
sg37
(lp2157
sg121
g2108
sg122
S'RWLSTKDLYSRLELAGLNQNVHAMFVMPLGFGNPMGDMFARLNNSFWLPPLSLEGAGTGWTVYPPLSHSGPSVDLAFHLTSSLLGAINFTNMRGPLFWTALLLLSLPVLAGTLLDRNFNTFEGGDPLYHLFWFFGHPEVYIIPGFGSHGTYKKFGMYASIGLGFVWSHHMFVGLDDRAYFTSATMIAPTGIKFSWLATYGGRPMLAFLFLFTGGTGVLNASDAFHDTYYVVHFHYVLSMGAFSLAYYYWPGLYNLFWFNFPMHFLGGMPRRPYPDAGWNSGSSYQLGPDESNEPH'
p2158
sg124
F0.26118000000000002
sg125
g126
sg33
S'149'
p2159
sg128
g1
(g129
g12
(dp2160
g131
I4
sg132
g133
sg134
g135
sg136
g133
sg137
I01
sg34
g138
sg139
g135
sg140
I0
sg141
I0
sg142
I0
sg143
g135
sg35
g144
sg145
I0
stRp2161
sg147
g148
sg149
F1
sg150
Nsg30
S'CbuenA'
p2162
sbasg121
g2095
sg124
F0.037260000000000001
sg125
g126
sg33
S'144'
p2163
sg128
g1
(g129
g12
(dp2164
g131
I6
sg132
g133
sg134
g135
sg136
g133
sg137
I01
sg34
g175
sg139
g135
sg140
I0
sg141
I0
sg142
I0
sg143
g135
sg35
g176
sg145
I0
stRp2165
sg147
g148
sg149
F0.98999999999999999
sg150
Nsg30
S'NoName'
p2166
sbag1
(g2
g3
NtRp2167
(dp2168
g6
g1
(g7
g3
NtRp2169
(dp2170
g10
g1
(g11
g12
(dtRp2171
sg14
g1
(g11
g12
(dtRp2172
sg16
g1
(g11
g12
(dtRp2173
sg18
g1
(g11
g12
(dtRp2174
sg20
g1
(g11
g12
(dtRp2175
sg22
g1
(g11
g12
(dtRp2176
sbsg24
g25
sg26
g27
((lp2177
g33
ag32
ag29
ag30
atRp2178
sg37
(lp2179
g1
(g2
g3
NtRp2180
(dp2181
g6
g1
(g7
g3
NtRp2182
(dp2183
g10
g1
(g11
g12
(dtRp2184
sg14
g1
(g11
g12
(dtRp2185
sg16
g1
(g11
g12
(dtRp2186
sg18
g1
(g11
g12
(dtRp2187
sg20
g1
(g11
g12
(dtRp2188
sg22
g1
(g11
g12
(dtRp2189
sbsg24
S'Cdu'
p2190
sg26
g27
((lp2191
g29
ag30
aS'sequence'
p2192
ag32
ag33
aS'species'
p2193
atRp2194
sg37
(lp2195
sg121
g2167
sg122
S'RWLSTKDLYSRLELPGLNQNVHAMFVMPLGFGNPMGDMFARLNNSFWLPPLSLEGAGTGWTVYPPLSHSGPSVDLAFHLTSSLLGAINFTNMRGPLYWTALLLLSLPVLAGTLLDRNFNTFEGGDPLYHLFWFFGHPEVYIIPGFGSHSTYKKFGMYASIGLGFVWSHHMYVGLDDRAYFTSATMIAPTGIKFSWLATYGGRPMLAFLFLFTGGTGVLNASDAFHDTYYVVHFHYVLSMGAFSLGYYYWPGLYNLYWFNFPMHFLGGMPRRPYPDAGWNSGSSYQLGPDESNEPH'
p2196
sg124
F0.025069999999999999
sg125
g126
sg33
S'154'
p2197
sg128
g1
(g129
g12
(dp2198
g131
I4
sg132
g133
sg134
g135
sg136
g133
sg137
I01
sg34
g138
sg139
g135
sg140
I0
sg141
I0
sg142
I0
sg143
g135
sg35
g144
sg145
I0
stRp2199
sg147
g148
sg149
F1
sg150
Nsg30
S'CdublA'
p2200
sbag1
(g2
g3
NtRp2201
(dp2202
g6
g1
(g7
g3
NtRp2203
(dp2204
g10
g1
(g11
g12
(dtRp2205
sg14
g1
(g11
g12
(dtRp2206
sg16
g1
(g11
g12
(dtRp2207
sg18
g1
(g11
g12
(dtRp2208
sg20
g1
(g11
g12
(dtRp2209
sg22
g1
(g11
g12
(dtRp2210
sbsg24
g25
sg26
g27
((lp2211
g33
ag32
ag29
ag30
atRp2212
sg37
(lp2213
g1
(g2
g3
NtRp2214
(dp2215
g6
g1
(g7
g3
NtRp2216
(dp2217
g10
g1
(g11
g12
(dtRp2218
sg14
g1
(g11
g12
(dtRp2219
sg16
g1
(g11
g12
(dtRp2220
sg18
g1
(g11
g12
(dtRp2221
sg20
g1
(g11
g12
(dtRp2222
sg22
g1
(g11
g12
(dtRp2223
sbsg24
g25
sg26
g27
((lp2224
g33
ag32
ag29
ag30
atRp2225
sg37
(lp2226
g1
(g2
g3
NtRp2227
(dp2228
g6
g1
(g7
g3
NtRp2229
(dp2230
g10
g1
(g11
g12
(dtRp2231
sg14
g1
(g11
g12
(dtRp2232
sg16
g1
(g11
g12
(dtRp2233
sg18
g1
(g11
g12
(dtRp2234
sg20
g1
(g11
g12
(dtRp2235
sg22
g1
(g11
g12
(dtRp2236
sbsg24
g25
sg26
g27
((lp2237
g33
ag32
ag29
ag30
atRp2238
sg37
(lp2239
g1
(g2
g3
NtRp2240
(dp2241
g6
g1
(g7
g3
NtRp2242
(dp2243
g10
g1
(g11
g12
(dtRp2244
sg14
g1
(g11
g12
(dtRp2245
sg16
g1
(g11
g12
(dtRp2246
sg18
g1
(g11
g12
(dtRp2247
sg20
g1
(g11
g12
(dtRp2248
sg22
g1
(g11
g12
(dtRp2249
sbsg24
g25
sg26
g27
((lp2250
g33
ag32
ag29
ag30
atRp2251
sg37
(lp2252
g1
(g2
g3
NtRp2253
(dp2254
g6
g1
(g7
g3
NtRp2255
(dp2256
g10
g1
(g11
g12
(dtRp2257
sg14
g1
(g11
g12
(dtRp2258
sg16
g1
(g11
g12
(dtRp2259
sg18
g1
(g11
g12
(dtRp2260
sg20
g1
(g11
g12
(dtRp2261
sg22
g1
(g11
g12
(dtRp2262
sbsg24
S'Cal'
p2263
sg26
g27
((lp2264
g29
ag30
aS'sequence'
p2265
ag32
ag33
aS'species'
p2266
atRp2267
sg37
(lp2268
sg121
g2240
sg122
S'RWLSTKDLYSRLELPGLNQNVHAMFVMPLGFGNPMGDMFARLNNSFWLPPLSLEGAGTGWTVYPPLSHSGPSVDLAFHLTSSLLGAINFTNMRGPLFWTALLLLSLPVLAGTLLDRNFNTFEGGDPLYHLFWFFGHPEVYIIPGFGSHSTYKKFGMYASIGLGFVWSHHMYVGLDDRAYFTSATMIAPTGIKFSWLATYGGRPMLAFLFLFTGGTGVLNASDAFHDTYYVVHFHYVLSMGAFSLGYYYWPGLYNLYWFNFPMHFLGGMPRRPYPDAGWNSGSSYQLGPDESNEPH'
p2269
sg124
F0.00025000000000000001
sg125
g126
sg33
S'163'
p2270
sg128
g1
(g129
g12
(dp2271
g131
I4
sg132
g133
sg134
g135
sg136
g133
sg137
I01
sg34
g138
sg139
g135
sg140
I0
sg141
I0
sg142
I0
sg143
g135
sg35
g144
sg145
I0
stRp2272
sg147
g148
sg149
F1
sg150
Nsg30
S'CalbiE'
p2273
sbag1
(g2
g3
NtRp2274
(dp2275
g6
g1
(g7
g3
NtRp2276
(dp2277
g10
g1
(g11
g12
(dtRp2278
sg14
g1
(g11
g12
(dtRp2279
sg16
g1
(g11
g12
(dtRp2280
sg18
g1
(g11
g12
(dtRp2281
sg20
g1
(g11
g12
(dtRp2282
sg22
g1
(g11
g12
(dtRp2283
sbsg24
S'Cal'
p2284
sg26
g27
((lp2285
g29
ag30
aS'sequence'
p2286
ag32
ag33
aS'species'
p2287
atRp2288
sg37
(lp2289
sg121
g2240
sg122
S'RWLSTKDLYSRLELPGLNQNVHAMFVMPLGFGNPMGDMFARLNNSFWLPPLSLEGAGTGWTVYPPLSHSGPSVDLAFHLTSSLLGAINFTNMRGPLFWTALLLLSLPVLAGTLLDRNFNTFEGGDPLYHLFWFFGHPEVYIIPGFGSHSTYKKFGMYASIGLGFVWSHHMYVGLDDRAYFTSATMIAPTGIKFSWLATYGGRPMLAFLFLFTGGTGVLNASDAFHDTYYVVHFHYVLSMGAFSLGYYYWPGLYNLYWFNFPMHFLGGMPRRPYPDAGWNSGSSYQLGPDESNEPH'
p2290
sg124
F0.00050000000000000001
sg125
g126
sg33
S'166'
p2291
sg128
g1
(g129
g12
(dp2292
g131
I4
sg132
g133
sg134
g135
sg136
g133
sg137
I01
sg34
g138
sg139
g135
sg140
I0
sg141
I0
sg142
I0
sg143
g135
sg35
g144
sg145
I0
stRp2293
sg147
g148
sg149
F1
sg150
Nsg30
S'CalbiD'
p2294
sbasg121
g2227
sg124
F0.00051999999999999995
sg125
g126
sg33
S'159'
p2295
sg128
g1
(g129
g12
(dp2296
g131
I6
sg132
g133
sg134
g135
sg136
g133
sg137
I01
sg34
g175
sg139
g135
sg140
I0
sg141
I0
sg142
I0
sg143
g135
sg35
g176
sg145
I0
stRp2297
sg147
g148
sg149
F0.73999999999999999
sg150
Nsg30
S'NoName'
p2298
sbag1
(g2
g3
NtRp2299
(dp2300
g6
g1
(g7
g3
NtRp2301
(dp2302
g10
g1
(g11
g12
(dtRp2303
sg14
g1
(g11
g12
(dtRp2304
sg16
g1
(g11
g12
(dtRp2305
sg18
g1
(g11
g12
(dtRp2306
sg20
g1
(g11
g12
(dtRp2307
sg22
g1
(g11
g12
(dtRp2308
sbsg24
S'Cal'
p2309
sg26
g27
((lp2310
g29
ag30
aS'sequence'
p2311
ag32
ag33
aS'species'
p2312
atRp2313
sg37
(lp2314
sg121
g2227
sg122
S'RWLSTKDLYSRLELPGLNQNVHAMFVMPLGFGNPMGDMFARLNNSFWLPPLSLEGAGTGWTVYPPLSHSGPSVDLAFHLTSSLLGAINFTNMRGPLFWTALLLLSLPVLAGTLLDRNFNTFEGGDPLYHLFWFFGHPEVYIIPGFGSHSTYKKFGMYASIGLGFVWSHHMYVGLDDRAYFTSATMIAPTGIKFSWLATYGGRPMLAFLFLFTGGTGVLNASDAFHDTYYVVHFHYVLSMGAFSLGYYYWPGLYNLYWFNFPMHFLGGMPRRPYPDAGWNSGSSYQLGPDESNEPH'
p2315
sg124
F0.00012
sg125
g126
sg33
S'168'
p2316
sg128
g1
(g129
g12
(dp2317
g131
I4
sg132
g133
sg134
g135
sg136
g133
sg137
I01
sg34
g138
sg139
g135
sg140
I0
sg141
I0
sg142
I0
sg143
g135
sg35
g144
sg145
I0
stRp2318
sg147
g148
sg149
F1
sg150
Nsg30
S'CalbiC'
p2319
sbasg121
g2214
sg124
F1.0000000000000001e-05
sg125
g126
sg33
S'157'
p2320
sg128
g1
(g129
g12
(dp2321
g131
I6
sg132
g133
sg134
g135
sg136
g133
sg137
I01
sg34
g175
sg139
g135
sg140
I0
sg141
I0
sg142
I0
sg143
g135
sg35
g176
sg145
I0
stRp2322
sg147
g148
sg149
F1
sg150
Nsg30
S'NoName'
p2323
sbag1
(g2
g3
NtRp2324
(dp2325
g6
g1
(g7
g3
NtRp2326
(dp2327
g10
g1
(g11
g12
(dtRp2328
sg14
g1
(g11
g12
(dtRp2329
sg16
g1
(g11
g12
(dtRp2330
sg18
g1
(g11
g12
(dtRp2331
sg20
g1
(g11
g12
(dtRp2332
sg22
g1
(g11
g12
(dtRp2333
sbsg24
S'Cal'
p2334
sg26
g27
((lp2335
g29
ag30
aS'sequence'
p2336
ag32
ag33
aS'species'
p2337
atRp2338
sg37
(lp2339
sg121
g2214
sg122
S'RWLSTKDLYSRLELPGLNQNVHAMFVMPLGFGNPMGDMFARLNNSFWLPPLSLEGAGTGWTVYPPLSHSGPSVDLAFHLTSSLLGAINFTNMRGPLFWTALLLLSLPVLAGTLLDRNFNTFEGGDPLYHLFWFFGHPEVYIIPGFGSHSTYKKFGMYASIGLGFVWSHHMYVGLDDRAYFTSATMIAPTGIKFSWLATYGGRPMLAFLFLFTGGTGVLNASDAFHDTYYVVHFHYVLSMGAFSLGYYYWPGLYNLYWFNFPMHFLGGMPRRPYPDAGWNSGSSYQLGPDESNEPH'
p2340
sg124
F0.00016000000000000001
sg125
g126
sg33
S'171'
p2341
sg128
g1
(g129
g12
(dp2342
g131
I4
sg132
g133
sg134
g135
sg136
g133
sg137
I01
sg34
g138
sg139
g135
sg140
I0
sg141
I0
sg142
I0
sg143
g135
sg35
g144
sg145
I0
stRp2343
sg147
g148
sg149
F1
sg150
Nsg30
S'CalbiB'
p2344
sbasg121
g2201
sg124
F1.0000000000000001e-05
sg125
g126
sg33
S'155'
p2345
sg128
g1
(g129
g12
(dp2346
g131
I6
sg132
g133
sg134
g135
sg136
g133
sg137
I01
sg34
g175
sg139
g135
sg140
I0
sg141
I0
sg142
I0
sg143
g135
sg35
g176
sg145
I0
stRp2347
sg147
g148
sg149
F1
sg150
Nsg30
S'NoName'
p2348
sbag1
(g2
g3
NtRp2349
(dp2350
g6
g1
(g7
g3
NtRp2351
(dp2352
g10
g1
(g11
g12
(dtRp2353
sg14
g1
(g11
g12
(dtRp2354
sg16
g1
(g11
g12
(dtRp2355
sg18
g1
(g11
g12
(dtRp2356
sg20
g1
(g11
g12
(dtRp2357
sg22
g1
(g11
g12
(dtRp2358
sbsg24
S'Cal'
p2359
sg26
g27
((lp2360
g29
ag30
aS'sequence'
p2361
ag32
ag33
aS'species'
p2362
atRp2363
sg37
(lp2364
sg121
g2201
sg122
S'RWLSTKDLYSRLELPGLNQNVHAMFVMPLGFGNPMGDMFARLNNSFWLPPLSLEGAGTGWTVYPPLSHSGPSVDLAFHLTSSLLGAINFTNMRGPLFWTALLLLSLPVLAGTLLDRNFNTFEGGDPLYHLFWFFGHPEVYIIPGFGSHSTYKKFGMYASIGLGFVWSHHMYVGLDDRAYFTSATMIAPTGIKFSWLATYGGRPMLAFLFLFTGGTGVLNASDAFHDTYYVVHFHYVLSMGAFSLGYYYWPGLYNLYWFNFPMHFLGGMPRRPYPDAGWNSGSSYQLGPDESNEPH'
p2365
sg124
F0.00013999999999999999
sg125
g126
sg33
S'172'
p2366
sg128
g1
(g129
g12
(dp2367
g131
I4
sg132
g133
sg134
g135
sg136
g133
sg137
I01
sg34
g138
sg139
g135
sg140
I0
sg141
I0
sg142
I0
sg143
g135
sg35
g144
sg145
I0
stRp2368
sg147
g148
sg149
F1
sg150
Nsg30
S'CalbiA'
p2369
sbasg121
g2167
sg124
F0.014959999999999999
sg125
g126
sg33
S'151'
p2370
sg128
g1
(g129
g12
(dp2371
g131
I6
sg132
g133
sg134
g135
sg136
g133
sg137
I01
sg34
g175
sg139
g135
sg140
I0
sg141
I0
sg142
I0
sg143
g135
sg35
g176
sg145
I0
stRp2372
sg147
g148
sg149
F0.98999999999999999
sg150
Nsg30
S'NoName'
p2373
sbasg121
g2095
sg124
F0.05287
sg125
g126
sg33
S'146'
p2374
sg128
g1
(g129
g12
(dp2375
g131
I6
sg132
g133
sg134
g135
sg136
g133
sg137
I01
sg34
g175
sg139
g135
sg140
I0
sg141
I0
sg142
I0
sg143
g135
sg35
g176
sg145
I0
stRp2376
sg147
g148
sg149
F0.98999999999999999
sg150
Nsg30
S'NoName'
p2377
sbasg121
g1719
sg124
F0.037499999999999999
sg125
g126
sg33
S'140'
p2378
sg128
g1
(g129
g12
(dp2379
g131
I6
sg132
g133
sg134
g135
sg136
g133
sg137
I01
sg34
g175
sg139
g135
sg140
I0
sg141
I0
sg142
I0
sg143
g135
sg35
g176
sg145
I0
stRp2380
sg147
g148
sg149
F0.98999999999999999
sg150
Nsg30
S'NoName'
p2381
sbasg121
g1001
sg124
F0.10766000000000001
sg125
g126
sg33
S'103'
p2382
sg128
g1
(g129
g12
(dp2383
g131
I6
sg132
g133
sg134
g135
sg136
g133
sg137
I01
sg34
g175
sg139
g135
sg140
I0
sg141
I0
sg142
I0
sg143
g135
sg35
g176
sg145
I0
stRp2384
sg147
g148
sg149
F0.98999999999999999
sg150
Nsg30
S'NoName'
p2385
sbasg121
g967
sg124
F0.093560000000000004
sg125
g126
sg33
S'37'
p2386
sg128
g1
(g129
g12
(dp2387
g131
I6
sg132
g133
sg134
g135
sg136
g133
sg137
I01
sg34
g175
sg139
g135
sg140
I0
sg141
I0
sg142
I0
sg143
g135
sg35
g176
sg145
I0
stRp2388
sg147
g148
sg149
F0.97999999999999998
sg150
Nsg30
S'NoName'
p2389
sbasg121
g954
sg124
F0.036760000000000001
sg125
g126
sg33
S'35'
p2390
sg128
g1
(g129
g12
(dp2391
g131
I6
sg132
g133
sg134
g135
sg136
g133
sg137
I01
sg34
g175
sg139
g135
sg140
I0
sg141
I0
sg142
I0
sg143
g135
sg35
g176
sg145
I0
stRp2392
sg147
g148
sg149
F0.97999999999999998
sg150
Nsg30
S'NoName'
p2393
sbag1
(g2
g3
NtRp2394
(dp2395
g6
g1
(g7
g3
NtRp2396
(dp2397
g10
g1
(g11
g12
(dtRp2398
sg14
g1
(g11
g12
(dtRp2399
sg16
g1
(g11
g12
(dtRp2400
sg18
g1
(g11
g12
(dtRp2401
sg20
g1
(g11
g12
(dtRp2402
sg22
g1
(g11
g12
(dtRp2403
sbsg24
g25
sg26
g27
((lp2404
g33
ag32
ag29
ag30
atRp2405
sg37
(lp2406
g1
(g2
g3
NtRp2407
(dp2408
g6
g1
(g7
g3
NtRp2409
(dp2410
g10
g1
(g11
g12
(dtRp2411
sg14
g1
(g11
g12
(dtRp2412
sg16
g1
(g11
g12
(dtRp2413
sg18
g1
(g11
g12
(dtRp2414
sg20
g1
(g11
g12
(dtRp2415
sg22
g1
(g11
g12
(dtRp2416
sbsg24
g25
sg26
g27
((lp2417
g33
ag32
ag29
ag30
atRp2418
sg37
(lp2419
g1
(g2
g3
NtRp2420
(dp2421
g6
g1
(g7
g3
NtRp2422
(dp2423
g10
g1
(g11
g12
(dtRp2424
sg14
g1
(g11
g12
(dtRp2425
sg16
g1
(g11
g12
(dtRp2426
sg18
g1
(g11
g12
(dtRp2427
sg20
g1
(g11
g12
(dtRp2428
sg22
g1
(g11
g12
(dtRp2429
sbsg24
S'Csu'
p2430
sg26
g27
((lp2431
g29
ag30
aS'sequence'
p2432
ag32
ag33
aS'species'
p2433
atRp2434
sg37
(lp2435
sg121
g2407
sg122
S'RWLSTKDLYSRMELPGLNQNVHAMFIMPLGLGNPLGDMFARLNNSFWLPPLSLEGAGTGWTVYPPLSHSGPSVDLAFHLTSSLLGAINFTNMRGPLYWTALLLLSLPVLAATLLDRNFNTFEGGDPLYHLFWFFGHPEVYIIPGFGSHSTYKKFGMYASIGLGFVWSHHMFVGLDDRAYFTSATMIAPTGVKFSWLATYGGRPMLAFLFLFTGGTGVINASDAFHDTYYIVHFHYVLSMGAFSLGFYYWPGLYNLFWFNFPMHFLGGMPRRPYPDAGWNSGSAYQLGPDESNEPH'
p2436
sg124
F0.00012999999999999999
sg125
g126
sg33
S'156'
p2437
sg128
g1
(g129
g12
(dp2438
g131
I4
sg132
g133
sg134
g135
sg136
g133
sg137
I01
sg34
g138
sg139
g135
sg140
I0
sg141
I0
sg142
I0
sg143
g135
sg35
g144
sg145
I0
stRp2439
sg147
g148
sg149
F1
sg150
Nsg30
S'CsubhB'
p2440
sbag1
(g2
g3
NtRp2441
(dp2442
g6
g1
(g7
g3
NtRp2443
(dp2444
g10
g1
(g11
g12
(dtRp2445
sg14
g1
(g11
g12
(dtRp2446
sg16
g1
(g11
g12
(dtRp2447
sg18
g1
(g11
g12
(dtRp2448
sg20
g1
(g11
g12
(dtRp2449
sg22
g1
(g11
g12
(dtRp2450
sbsg24
S'Csu'
p2451
sg26
g27
((lp2452
g29
ag30
aS'sequence'
p2453
ag32
ag33
aS'species'
p2454
atRp2455
sg37
(lp2456
sg121
g2407
sg122
S'RWLSTKDLYSRMELPGLNQNVHAMFIMPLGLGNPLGDMFARLNNSFWLPPLSLEGAGTGWTVYPPLSHSGPSVDLAFHLTSSLLGAINFTNMRGPLYWTALLLLSLPVLAATLLDRNFNTFEGGDPLYHLFWFFGHPEVYIIPGFGSHSTYKKFGMYASIGLGFVWSHHMFVGLDDRAYFTSATMIAPTGVKFSWLATYGGRPMLAFLFLFTGGTGVINASDAFHDTYYIVHFHYVLSMGAFSLGFYYWPGLYNLFWFNFPMHFLGGMPRRPYPDAGWNSGSAYQLGPDESNEPH'
p2457
sg124
F0.00013999999999999999
sg125
g126
sg33
S'169'
p2458
sg128
g1
(g129
g12
(dp2459
g131
I4
sg132
g133
sg134
g135
sg136
g133
sg137
I01
sg34
g138
sg139
g135
sg140
I0
sg141
I0
sg142
I0
sg143
g135
sg35
g144
sg145
I0
stRp2460
sg147
g148
sg149
F1
sg150
Nsg30
S'CsubhA'
p2461
sbasg121
g2394
sg124
F0.59348999999999996
sg125
g126
sg33
S'174'
p2462
sg128
g1
(g129
g12
(dp2463
g131
I6
sg132
g133
sg134
g135
sg136
g133
sg137
I01
sg34
g175
sg139
g135
sg140
I0
sg141
I0
sg142
I0
sg143
g135
sg35
g176
sg145
I0
stRp2464
sg147
g148
sg149
F1
sg150
Nsg30
S'NoName'
p2465
sbag1
(g2
g3
NtRp2466
(dp2467
g6
g1
(g7
g3
NtRp2468
(dp2469
g10
g1
(g11
g12
(dtRp2470
sg14
g1
(g11
g12
(dtRp2471
sg16
g1
(g11
g12
(dtRp2472
sg18
g1
(g11
g12
(dtRp2473
sg20
g1
(g11
g12
(dtRp2474
sg22
g1
(g11
g12
(dtRp2475
sbsg24
S'Cal'
p2476
sg26
g27
((lp2477
g29
ag30
aS'sequence'
p2478
ag32
ag33
aS'species'
p2479
atRp2480
sg37
(lp2481
sg121
g2394
sg122
S'RWLSTKDLYSRMELPGLNQNVHAMFVMPLGFGNPLGDMFARLNNSFWLPPLSLDGPGTGWTVYPPLSHSGASVDFAFHLTSSLLGAINFTNMRGPLFWTALLLLSLPVLVATLLDRNFNTFEGGDPLYHLFWFFGHPEVYMIPGFGSHSTYKKFGMYASIGLGFVWSHHMFVGLDDRAYFTSATMMAPTGIKFSWMATYGGYPMLAFLFLFTGGTGVINASDAFHDTYYIVHFHYVLSMGAFSLGYYYWPGLYNLFWFNFPMHFLGGMPRRPYPDAGWNSGSAYQLGPDESNEPH'
p2482
sg124
F0.40044000000000002
sg125
g126
sg33
S'179'
p2483
sg128
g1
(g129
g12
(dp2484
g131
I4
sg132
g133
sg134
g135
sg136
g133
sg137
I01
sg34
g138
sg139
g135
sg140
I0
sg141
I0
sg142
I0
sg143
g135
sg35
g144
sg145
I0
stRp2485
sg147
g148
sg149
F1
sg150
Nsg30
S'CalaiA'
p2486
sbasg121
g954
sg124
F0.080810000000000007
sg125
g126
sg33
S'162'
p2487
sg128
g1
(g129
g12
(dp2488
g131
I6
sg132
g133
sg134
g135
sg136
g133
sg137
I01
sg34
g175
sg139
g135
sg140
I0
sg141
I0
sg142
I0
sg143
g135
sg35
g176
sg145
I0
stRp2489
sg147
g148
sg149
F0.98999999999999999
sg150
Nsg30
S'NoName'
p2490
sbasg121
g690
sg124
F0.075389999999999999
sg125
g126
sg33
S'29'
p2491
sg128
g1
(g129
g12
(dp2492
g131
I6
sg132
g133
sg134
g135
sg136
g133
sg137
I01
sg34
g175
sg139
g135
sg140
I0
sg141
I0
sg142
I0
sg143
g135
sg35
g176
sg145
I0
stRp2493
sg147
g148
sg149
F0.94999999999999996
sg150
Nsg30
S'NoName'
p2494
sbasg121
g677
sg124
F1.2542500000000001
sg125
g126
sg33
S'10'
p2495
sg128
g1
(g129
g12
(dp2496
g131
I6
sg132
g133
sg134
g135
sg136
g133
sg137
I01
sg34
g175
sg139
g135
sg140
I0
sg141
I0
sg142
I0
sg143
g135
sg35
g176
sg145
I0
stRp2497
sg147
g148
sg149
F0.97999999999999998
sg150
Nsg30
S'NoName'
p2498
sbag1
(g2
g3
NtRp2499
(dp2500
g6
g1
(g7
g3
NtRp2501
(dp2502
g10
g1
(g11
g12
(dtRp2503
sg14
g1
(g11
g12
(dtRp2504
sg16
g1
(g11
g12
(dtRp2505
sg18
g1
(g11
g12
(dtRp2506
sg20
g1
(g11
g12
(dtRp2507
sg22
g1
(g11
g12
(dtRp2508
sbsg24
g25
sg26
g27
((lp2509
g33
ag32
ag29
ag30
atRp2510
sg37
(lp2511
g1
(g2
g3
NtRp2512
(dp2513
g6
g1
(g7
g3
NtRp2514
(dp2515
g10
g1
(g11
g12
(dtRp2516
sg14
g1
(g11
g12
(dtRp2517
sg16
g1
(g11
g12
(dtRp2518
sg18
g1
(g11
g12
(dtRp2519
sg20
g1
(g11
g12
(dtRp2520
sg22
g1
(g11
g12
(dtRp2521
sbsg24
g25
sg26
g27
((lp2522
g33
ag32
ag29
ag30
atRp2523
sg37
(lp2524
g1
(g2
g3
NtRp2525
(dp2526
g6
g1
(g7
g3
NtRp2527
(dp2528
g10
g1
(g11
g12
(dtRp2529
sg14
g1
(g11
g12
(dtRp2530
sg16
g1
(g11
g12
(dtRp2531
sg18
g1
(g11
g12
(dtRp2532
sg20
g1
(g11
g12
(dtRp2533
sg22
g1
(g11
g12
(dtRp2534
sbsg24
S'Ppa'
p2535
sg26
g27
((lp2536
g29
ag30
aS'sequence'
p2537
ag32
ag33
aS'species'
p2538
atRp2539
sg37
(lp2540
sg121
g2512
sg122
S'RWLSTKDLYSRLELPGLNQNVHAMFVMPAGFGNPMGDMFARLNNSFWLPPLSLEGAGTGWTVYPPLAHSGPSVDLAFHLTSSLLGAMNFTNMRGPLFWTSLLLLSLPVLAGTLLDRNFNTFEGGDPLYHLFWFFGHPEVYIMPGFGSHSTYKKFGMYASIGLGLVWSHHMYVGLDDRAYFTSATMMAPTGMKFSWLATYGGRPMLAFLFLFTGGSGVLNASDAFHDTYYVIHFHYVLSLGAFSLGYYYWPGLYNLFWFNFPMHFLGGMPRRPYPDAGWNSGSSYQLGPDESNDPH'
p2541
sg124
F0.16184999999999999
sg125
g126
sg33
S'210'
p2542
sg128
g1
(g129
g12
(dp2543
g131
I4
sg132
g133
sg134
g135
sg136
g133
sg137
I01
sg34
g138
sg139
g135
sg140
I0
sg141
I0
sg142
I0
sg143
g135
sg35
g144
sg145
I0
stRp2544
sg147
g148
sg149
F1
sg150
Nsg30
S'PpastA'
p2545
sbag1
(g2
g3
NtRp2546
(dp2547
g6
g1
(g7
g3
NtRp2548
(dp2549
g10
g1
(g11
g12
(dtRp2550
sg14
g1
(g11
g12
(dtRp2551
sg16
g1
(g11
g12
(dtRp2552
sg18
g1
(g11
g12
(dtRp2553
sg20
g1
(g11
g12
(dtRp2554
sg22
g1
(g11
g12
(dtRp2555
sbsg24
g25
sg26
g27
((lp2556
g33
ag32
ag29
ag30
atRp2557
sg37
(lp2558
g1
(g2
g3
NtRp2559
(dp2560
g6
g1
(g7
g3
NtRp2561
(dp2562
g10
g1
(g11
g12
(dtRp2563
sg14
g1
(g11
g12
(dtRp2564
sg16
g1
(g11
g12
(dtRp2565
sg18
g1
(g11
g12
(dtRp2566
sg20
g1
(g11
g12
(dtRp2567
sg22
g1
(g11
g12
(dtRp2568
sbsg24
S'Pta'
p2569
sg26
g27
((lp2570
g29
ag30
aS'sequence'
p2571
ag32
ag33
aS'species'
p2572
atRp2573
sg37
(lp2574
sg121
g2546
sg122
S'RWLSTKDLYSRLELPGLNQNVHAMFVMPAGFGNPMGDMFARLNNSFWLPPLSLEGAGTGWTVYPPLSHSGPSVDLAFHLTSSLLGGMNFTNMRGPLFWTSLLVLTLPVLAGTLLDRNFNTFEGGDPLYHLFWFFGHPEVYIIPGFGSHSAYKKFGMYASIGLGLVWSHHMYVGLDDRAYFTSATMIAPTGIKFSWLATYGGRPMLAFLFLFTGGSGVLNASDAFHDTYYVMHFHYVLSLGAFSLGYYYWPGLYNLFWFNFPMHFLGGMPRRPYPDAGFNSGSSYQLGPDESNEPH'
p2575
sg124
F0.23080999999999999
sg125
g126
sg33
S'5'
sg128
g1
(g129
g12
(dp2576
g131
I4
sg132
g133
sg134
g135
sg136
g133
sg137
I01
sg34
g138
sg139
g135
sg140
I0
sg141
I0
sg142
I0
sg143
g135
sg35
g144
sg145
I0
stRp2577
sg147
g148
sg149
F1
sg150
Nsg30
S'PtannA'
p2578
sbag1
(g2
g3
NtRp2579
(dp2580
g6
g1
(g7
g3
NtRp2581
(dp2582
g10
g1
(g11
g12
(dtRp2583
sg14
g1
(g11
g12
(dtRp2584
sg16
g1
(g11
g12
(dtRp2585
sg18
g1
(g11
g12
(dtRp2586
sg20
g1
(g11
g12
(dtRp2587
sg22
g1
(g11
g12
(dtRp2588
sbsg24
g25
sg26
g27
((lp2589
g33
ag32
ag29
ag30
atRp2590
sg37
(lp2591
g1
(g2
g3
NtRp2592
(dp2593
g6
g1
(g7
g3
NtRp2594
(dp2595
g10
g1
(g11
g12
(dtRp2596
sg14
g1
(g11
g12
(dtRp2597
sg16
g1
(g11
g12
(dtRp2598
sg18
g1
(g11
g12
(dtRp2599
sg20
g1
(g11
g12
(dtRp2600
sg22
g1
(g11
g12
(dtRp2601
sbsg24
g25
sg26
g27
((lp2602
g33
ag32
ag29
ag30
atRp2603
sg37
(lp2604
g1
(g2
g3
NtRp2605
(dp2606
g6
g1
(g7
g3
NtRp2607
(dp2608
g10
g1
(g11
g12
(dtRp2609
sg14
g1
(g11
g12
(dtRp2610
sg16
g1
(g11
g12
(dtRp2611
sg18
g1
(g11
g12
(dtRp2612
sg20
g1
(g11
g12
(dtRp2613
sg22
g1
(g11
g12
(dtRp2614
sbsg24
S'Pkl'
p2615
sg26
g27
((lp2616
g29
ag30
aS'sequence'
p2617
ag32
ag33
aS'species'
p2618
atRp2619
sg37
(lp2620
sg121
g2592
sg122
S'RWLSTKDLYSRLELPGLNQNVHAMFMMPTGFGNPMGDMFARLNNSFWLPPLSLEGPGTGWTVYPPLSHSGPSVDLAFHLTSSLLGAMNFTNMRGPLFWTALLVMTLPVLAGTLLDRNFNTFEGGDPLYHLFWFFGHPEVYMMPGFGSHSTYKKFGMYASMGLGLVWSHHMYVGLDDRAYFTSATMMAPTGMKFSWLATYGGRPMLAFMFIFTGGSGVLNASDAFHDTYYVMHFHYVLSLGAFAMGYYYWPGLFNLFWFNFPMHFLGGMPRRPYPDAGFNSGASYQLGPDESNEPH'
p2621
sg124
F0.12625
sg125
g126
sg33
S'36'
p2622
sg128
g1
(g129
g12
(dp2623
g131
I4
sg132
g133
sg134
g135
sg136
g133
sg137
I01
sg34
g138
sg139
g135
sg140
I0
sg141
I0
sg142
I0
sg143
g135
sg35
g144
sg145
I0
stRp2624
sg147
g148
sg149
F1
sg150
Nsg30
S'PkluyA'
p2625
sbag1
(g2
g3
NtRp2626
(dp2627
g6
g1
(g7
g3
NtRp2628
(dp2629
g10
g1
(g11
g12
(dtRp2630
sg14
g1
(g11
g12
(dtRp2631
sg16
g1
(g11
g12
(dtRp2632
sg18
g1
(g11
g12
(dtRp2633
sg20
g1
(g11
g12
(dtRp2634
sg22
g1
(g11
g12
(dtRp2635
sbsg24
S'Bcu'
p2636
sg26
g27
((lp2637
g29
ag30
aS'sequence'
p2638
ag32
ag33
aS'species'
p2639
atRp2640
sg37
(lp2641
sg121
g2592
sg122
S'RWLSTKDLYSRLELPGLDQNVHSMFMMPTGFGNPMGDMFARLNNAFWYPPLSLEGPGTGWTVYPPLSHSGPSMDLAFHLTSSMLSSMNFTNMRGPLFWTALLMMTLPVLAGTLLDRNFNTFEGGDPLYHLYWFFGHPEVYIIPVFGSHSNYKKFGMYASMGLGLVWSHHMYVGLDDRAYFTSATMIAPTGIKFSWLATYGGRPMLAFLFMFTGGSGVLNASDAFHDTYFVVHFHYVLSLGVYGVGYYFWPGLYNMFWFNFPMHFLGGMPRRPYPDAGFNSGSAYQLGPDESNEPH'
p2642
sg124
F0.30854999999999999
sg125
g126
sg33
S'47'
p2643
sg128
g1
(g129
g12
(dp2644
g131
I4
sg132
g133
sg134
g135
sg136
g133
sg137
I01
sg34
g138
sg139
g135
sg140
I0
sg141
I0
sg142
I0
sg143
g135
sg35
g144
sg145
I0
stRp2645
sg147
g148
sg149
F1
sg150
Nsg30
S'BcustA'
p2646
sbasg121
g2579
sg124
F0.19120999999999999
sg125
g126
sg33
S'15'
p2647
sg128
g1
(g129
g12
(dp2648
g131
I6
sg132
g133
sg134
g135
sg136
g133
sg137
I01
sg34
g175
sg139
g135
sg140
I0
sg141
I0
sg142
I0
sg143
g135
sg35
g176
sg145
I0
stRp2649
sg147
g148
sg149
F0.98999999999999999
sg150
Nsg30
S'NoName'
p2650
sbag1
(g2
g3
NtRp2651
(dp2652
g6
g1
(g7
g3
NtRp2653
(dp2654
g10
g1
(g11
g12
(dtRp2655
sg14
g1
(g11
g12
(dtRp2656
sg16
g1
(g11
g12
(dtRp2657
sg18
g1
(g11
g12
(dtRp2658
sg20
g1
(g11
g12
(dtRp2659
sg22
g1
(g11
g12
(dtRp2660
sbsg24
S'Oan'
p2661
sg26
g27
((lp2662
g29
ag30
aS'sequence'
p2663
ag32
ag33
aS'species'
p2664
atRp2665
sg37
(lp2666
sg121
g2579
sg122
S'RWLSTKDLYSRLELPGLNQNAHAMFVMPAGFGNPMGDMFARLNNSFWLPPLSLEGAGTGWTVYPPLSHSGPSVDLAFHLTSSLLGAINFTNMRGPLFWTALLLLSLPVLAGTLLDRNFNTFEGGDPLYHLFWFFGHPEVYIIPGFGSHSTYKKFGMYASIGLGLVWSHHMYVGLDDRAYFTSATMIAPTGIKFSWIATYGGRPMLAFLFLFTGGSGVLNASDAFHDTYYVIHFHYVLSLGAFSLGYYYWPGLYNLFWFNFPMHFLGGMPRRPYPDAGYNSGSSYQLGPDESNEPH'
p2667
sg124
F0.025399999999999999
sg125
g126
sg33
S'58'
p2668
sg128
g1
(g129
g12
(dp2669
g131
I4
sg132
g133
sg134
g135
sg136
g133
sg137
I01
sg34
g138
sg139
g135
sg140
I0
sg141
I0
sg142
I0
sg143
g135
sg35
g144
sg145
I0
stRp2670
sg147
g148
sg149
F1
sg150
Nsg30
S'OanguA'
p2671
sbasg121
g2546
sg124
F0.33273999999999998
sg125
g126
sg33
S'220'
p2672
sg128
g1
(g129
g12
(dp2673
g131
I6
sg132
g133
sg134
g135
sg136
g133
sg137
I01
sg34
g175
sg139
g135
sg140
I0
sg141
I0
sg142
I0
sg143
g135
sg35
g176
sg145
I0
stRp2674
sg147
g148
sg149
F0.98999999999999999
sg150
Nsg30
S'NoName'
p2675
sbasg121
g2512
sg124
F0.054379999999999998
sg125
g126
sg33
S'200'
p2676
sg128
g1
(g129
g12
(dp2677
g131
I6
sg132
g133
sg134
g135
sg136
g133
sg137
I01
sg34
g175
sg139
g135
sg140
I0
sg141
I0
sg142
I0
sg143
g135
sg35
g176
sg145
I0
stRp2678
sg147
g148
sg149
F0.96999999999999997
sg150
Nsg30
S'NoName'
p2679
sbasg121
g2499
sg124
F0.76378000000000001
sg125
g126
sg33
S'189'
p2680
sg128
g1
(g129
g12
(dp2681
g131
I6
sg132
g133
sg134
g135
sg136
g133
sg137
I01
sg34
g175
sg139
g135
sg140
I0
sg141
I0
sg142
I0
sg143
g135
sg35
g176
sg145
I0
stRp2682
sg147
g148
sg149
F0.98999999999999999
sg150
Nsg30
S'NoName'
p2683
sbag1
(g2
g3
NtRp2684
(dp2685
g6
g1
(g7
g3
NtRp2686
(dp2687
g10
g1
(g11
g12
(dtRp2688
sg14
g1
(g11
g12
(dtRp2689
sg16
g1
(g11
g12
(dtRp2690
sg18
g1
(g11
g12
(dtRp2691
sg20
g1
(g11
g12
(dtRp2692
sg22
g1
(g11
g12
(dtRp2693
sbsg24
g25
sg26
g27
((lp2694
g33
ag32
ag29
ag30
atRp2695
sg37
(lp2696
g1
(g2
g3
NtRp2697
(dp2698
g6
g1
(g7
g3
NtRp2699
(dp2700
g10
g1
(g11
g12
(dtRp2701
sg14
g1
(g11
g12
(dtRp2702
sg16
g1
(g11
g12
(dtRp2703
sg18
g1
(g11
g12
(dtRp2704
sg20
g1
(g11
g12
(dtRp2705
sg22
g1
(g11
g12
(dtRp2706
sbsg24
g25
sg26
g27
((lp2707
g33
ag32
ag29
ag30
atRp2708
sg37
(lp2709
g1
(g2
g3
NtRp2710
(dp2711
g6
g1
(g7
g3
NtRp2712
(dp2713
g10
g1
(g11
g12
(dtRp2714
sg14
g1
(g11
g12
(dtRp2715
sg16
g1
(g11
g12
(dtRp2716
sg18
g1
(g11
g12
(dtRp2717
sg20
g1
(g11
g12
(dtRp2718
sg22
g1
(g11
g12
(dtRp2719
sbsg24
g25
sg26
g27
((lp2720
g33
ag32
ag29
ag30
atRp2721
sg37
(lp2722
g1
(g2
g3
NtRp2723
(dp2724
g6
g1
(g7
g3
NtRp2725
(dp2726
g10
g1
(g11
g12
(dtRp2727
sg14
g1
(g11
g12
(dtRp2728
sg16
g1
(g11
g12
(dtRp2729
sg18
g1
(g11
g12
(dtRp2730
sg20
g1
(g11
g12
(dtRp2731
sg22
g1
(g11
g12
(dtRp2732
sbsg24
g25
sg26
g27
((lp2733
g33
ag32
ag29
ag30
atRp2734
sg37
(lp2735
g1
(g2
g3
NtRp2736
(dp2737
g6
g1
(g7
g3
NtRp2738
(dp2739
g10
g1
(g11
g12
(dtRp2740
sg14
g1
(g11
g12
(dtRp2741
sg16
g1
(g11
g12
(dtRp2742
sg18
g1
(g11
g12
(dtRp2743
sg20
g1
(g11
g12
(dtRp2744
sg22
g1
(g11
g12
(dtRp2745
sbsg24
S'Cva'
p2746
sg26
g27
((lp2747
g29
ag30
aS'sequence'
p2748
ag32
ag33
aS'species'
p2749
atRp2750
sg37
(lp2751
sg121
g2723
sg122
S'RWLSTKDLYSRLELPGLNQNVHAMFVMPLGFGNPLGDMFARLNNSFWLPPLSLEGAGTGWTIYPPLSHSSPSVDLGFHLTSSLLGAINFTNMRGPLFWTAMLLLSLPVLAGTLLDRNFNTFEGGDPLYHLFWFFGHPEVYIIPGFGSHSTYKKFGMYASIALGFVWSHHMYVGLDDRAYFTSSTMIAPTGIKFSWLATYGGRPMLAFLFLFTGGTGVLNASDAFHDTYYVVHFHYVLSMGAFSLGYYYWPGLYNLFWFNFPMHFLGGMPRRPYPDAGWNSGSSYQLGPDESNEPH'
p2752
sg124
F0.043270000000000003
sg125
g126
sg33
S'113'
p2753
sg128
g1
(g129
g12
(dp2754
g131
I4
sg132
g133
sg134
g135
sg136
g133
sg137
I01
sg34
g138
sg139
g135
sg140
I0
sg141
I0
sg142
I0
sg143
g135
sg35
g144
sg145
I0
stRp2755
sg147
g148
sg149
F1
sg150
Nsg30
S'CvartA'
p2756
sbag1
(g2
g3
NtRp2757
(dp2758
g6
g1
(g7
g3
NtRp2759
(dp2760
g10
g1
(g11
g12
(dtRp2761
sg14
g1
(g11
g12
(dtRp2762
sg16
g1
(g11
g12
(dtRp2763
sg18
g1
(g11
g12
(dtRp2764
sg20
g1
(g11
g12
(dtRp2765
sg22
g1
(g11
g12
(dtRp2766
sbsg24
g25
sg26
g27
((lp2767
g33
ag32
ag29
ag30
atRp2768
sg37
(lp2769
g1
(g2
g3
NtRp2770
(dp2771
g6
g1
(g7
g3
NtRp2772
(dp2773
g10
g1
(g11
g12
(dtRp2774
sg14
g1
(g11
g12
(dtRp2775
sg16
g1
(g11
g12
(dtRp2776
sg18
g1
(g11
g12
(dtRp2777
sg20
g1
(g11
g12
(dtRp2778
sg22
g1
(g11
g12
(dtRp2779
sbsg24
S'Csu'
p2780
sg26
g27
((lp2781
g29
ag30
aS'sequence'
p2782
ag32
ag33
aS'species'
p2783
atRp2784
sg37
(lp2785
sg121
g2757
sg122
S'RWLSTKDLYSRLELPGLNQNVHAMFVMPLGFGNPLGDMFARLNNSFWLPPLSLEGAGTGWTIYPPLSHSSPSVDLGFHLTSSMLGAINFTNMRGPLFWTAMLLLSLPVLAGTLLDRNFNTFEGGDPLYHLFWFFGHPEVYIIPGFGSHSTYKKFGMYASIALGFVWSHHMYVGLDDRAYFTSSTMIAPTGIKFSWLATYGGRPMLAFLFLFTGGTGVLNASDAFHDSYYY-HFHYVLSMGAFSLGYYYWPGLYNLFWFNFPMHFLGGMPRRPYPDAGWNSGSSYQLGPDESNEPH'
p2786
sg124
F0.0043699999999999998
sg125
g126
sg33
S'132'
p2787
sg128
g1
(g129
g12
(dp2788
g131
I4
sg132
g133
sg134
g135
sg136
g133
sg137
I01
sg34
g138
sg139
g135
sg140
I0
sg141
I0
sg142
I0
sg143
g135
sg35
g144
sg145
I0
stRp2789
sg147
g148
sg149
F1
sg150
Nsg30
S'CsuavB'
p2790
sbag1
(g2
g3
NtRp2791
(dp2792
g6
g1
(g7
g3
NtRp2793
(dp2794
g10
g1
(g11
g12
(dtRp2795
sg14
g1
(g11
g12
(dtRp2796
sg16
g1
(g11
g12
(dtRp2797
sg18
g1
(g11
g12
(dtRp2798
sg20
g1
(g11
g12
(dtRp2799
sg22
g1
(g11
g12
(dtRp2800
sbsg24
S'Csu'
p2801
sg26
g27
((lp2802
g29
ag30
aS'sequence'
p2803
ag32
ag33
aS'species'
p2804
atRp2805
sg37
(lp2806
sg121
g2757
sg122
S'RWLSTKDLYSRLELPGLNQNVHAMFVMPLGFGNPLGDMFARLNNSFWLPPLSLEGAGTGWTIYPPLSHSSPSVDLGFHLTSSLLGAINFTNMRGPLFWTAMLLLSLPVLAGTLLDRNFNTFEGGDPLYHLFWFFGHPEVYIIPGFGSHSTYKKFGMYASIALGFVWSHHMYVGLDDRAYFTSSTMIAPTGIKFSWLATYGGRPMLAFLFLFTGGTGVLNASDAFHDTYYVVHFHYVLSMGAFSLGYYYWPGLYNLFWFNFPMHFLGGMPRRPYPDAGWNSGSSYQLGPDESNEPH'
p2807
sg124
F0.0025999999999999999
sg125
g126
sg33
S'107'
p2808
sg128
g1
(g129
g12
(dp2809
g131
I4
sg132
g133
sg134
g135
sg136
g133
sg137
I01
sg34
g138
sg139
g135
sg140
I0
sg141
I0
sg142
I0
sg143
g135
sg35
g144
sg145
I0
stRp2810
sg147
g148
sg149
F1
sg150
Nsg30
S'CsuavA'
p2811
sbasg121
g2723
sg124
F0.016740000000000001
sg125
g126
sg33
S'101'
p2812
sg128
g1
(g129
g12
(dp2813
g131
I6
sg132
g133
sg134
g135
sg136
g133
sg137
I01
sg34
g175
sg139
g135
sg140
I0
sg141
I0
sg142
I0
sg143
g135
sg35
g176
sg145
I0
stRp2814
sg147
g148
sg149
F0.98999999999999999
sg150
Nsg30
S'NoName'
p2815
sbasg121
g2710
sg124
F0.01158
sg125
g126
sg33
S'89'
p2816
sg128
g1
(g129
g12
(dp2817
g131
I6
sg132
g133
sg134
g135
sg136
g133
sg137
I01
sg34
g175
sg139
g135
sg140
I0
sg141
I0
sg142
I0
sg143
g135
sg35
g176
sg145
I0
stRp2818
sg147
g148
sg149
F0.97999999999999998
sg150
Nsg30
S'NoName'
p2819
sbag1
(g2
g3
NtRp2820
(dp2821
g6
g1
(g7
g3
NtRp2822
(dp2823
g10
g1
(g11
g12
(dtRp2824
sg14
g1
(g11
g12
(dtRp2825
sg16
g1
(g11
g12
(dtRp2826
sg18
g1
(g11
g12
(dtRp2827
sg20
g1
(g11
g12
(dtRp2828
sg22
g1
(g11
g12
(dtRp2829
sbsg24
S'Cja'
p2830
sg26
g27
((lp2831
g29
ag30
aS'sequence'
p2832
ag32
ag33
aS'species'
p2833
atRp2834
sg37
(lp2835
sg121
g2710
sg122
S'RWLSTKDLYSRLELPGLNQNVHAMFVMPLGFGNPLGDMFARLNNSFWLPPLSLEGAGTGWTIYPPLAHSSPSVDLGFHLTSSLLGAINFTNMRGPLFWTAMLLLSLPVLAGTLLDRNFNTFEGGDPLYHLFWFFGHPEVYIIPGFGSHSTYKKFGMYASIALGFVWSHHMYVGLDDRAYFTSSTMIAPTGIKFSWLATYGGRPMLAFLFLFTGGTGVLNASDAFHDTYYVVHFHYVLSMGAFSLGYYYWPGLYNLFWFNFPMHFLGGMPRRPYPDAGWNSGSSYQLGPDESNEPH'
p2836
sg124
F0.033799999999999997
sg125
g126
sg33
S'152'
p2837
sg128
g1
(g129
g12
(dp2838
g131
I4
sg132
g133
sg134
g135
sg136
g133
sg137
I01
sg34
g138
sg139
g135
sg140
I0
sg141
I0
sg142
I0
sg143
g135
sg35
g144
sg145
I0
stRp2839
sg147
g148
sg149
F1
sg150
Nsg30
S'CjadiA'
p2840
sbasg121
g2697
sg124
F0.10375
sg125
g126
sg33
S'79'
p2841
sg128
g1
(g129
g12
(dp2842
g131
I6
sg132
g133
sg134
g135
sg136
g133
sg137
I01
sg34
g175
sg139
g135
sg140
I0
sg141
I0
sg142
I0
sg143
g135
sg35
g176
sg145
I0
stRp2843
sg147
g148
sg149
F0.98999999999999999
sg150
Nsg30
S'NoName'
p2844
sbag1
(g2
g3
NtRp2845
(dp2846
g6
g1
(g7
g3
NtRp2847
(dp2848
g10
g1
(g11
g12
(dtRp2849
sg14
g1
(g11
g12
(dtRp2850
sg16
g1
(g11
g12
(dtRp2851
sg18
g1
(g11
g12
(dtRp2852
sg20
g1
(g11
g12
(dtRp2853
sg22
g1
(g11
g12
(dtRp2854
sbsg24
g25
sg26
g27
((lp2855
g33
ag32
ag29
ag30
atRp2856
sg37
(lp2857
g1
(g2
g3
NtRp2858
(dp2859
g6
g1
(g7
g3
NtRp2860
(dp2861
g10
g1
(g11
g12
(dtRp2862
sg14
g1
(g11
g12
(dtRp2863
sg16
g1
(g11
g12
(dtRp2864
sg18
g1
(g11
g12
(dtRp2865
sg20
g1
(g11
g12
(dtRp2866
sg22
g1
(g11
g12
(dtRp2867
sbsg24
g25
sg26
g27
((lp2868
g33
ag32
ag29
ag30
atRp2869
sg37
(lp2870
g1
(g2
g3
NtRp2871
(dp2872
g6
g1
(g7
g3
NtRp2873
(dp2874
g10
g1
(g11
g12
(dtRp2875
sg14
g1
(g11
g12
(dtRp2876
sg16
g1
(g11
g12
(dtRp2877
sg18
g1
(g11
g12
(dtRp2878
sg20
g1
(g11
g12
(dtRp2879
sg22
g1
(g11
g12
(dtRp2880
sbsg24
S'Wpi'
p2881
sg26
g27
((lp2882
g29
ag30
aS'sequence'
p2883
ag32
ag33
aS'species'
p2884
atRp2885
sg37
(lp2886
sg121
g2858
sg122
S'RWLSTKDLYSRLELPGLNQNVHAMFVMPLGFGNPLGDMFARLNNSFWLPPLSLEGAGTGWTIYPPLSHSSPSVDLGFHLTSSLLGAINFTNMRGPLFWTAMLLLSLPVLAGTLLDRNFNTFEGGDPLYHLFWFFGHPEVYIIPGFGSHSTYKKFGMYASIALGFVWSHHMYVGLDDRAYFTSSTMIAPTGIKFSWLATYGGRPMLAFLFLFTGGTGVLNASDAFHDTYYVVHFHYVLSMGAFSLGYYYWPGLYNLFWFNFPMHFLGGMPRRPYPDAGWNSGSSFQLGPDESNEPH'
p2887
sg124
F0.051209999999999999
sg125
g126
sg33
S'186'
p2888
sg128
g1
(g129
g12
(dp2889
g131
I4
sg132
g133
sg134
g135
sg136
g133
sg137
I01
sg34
g138
sg139
g135
sg140
I0
sg141
I0
sg142
I0
sg143
g135
sg35
g144
sg145
I0
stRp2890
sg147
g148
sg149
F1
sg150
Nsg30
S'WpijpA'
p2891
sbag1
(g2
g3
NtRp2892
(dp2893
g6
g1
(g7
g3
NtRp2894
(dp2895
g10
g1
(g11
g12
(dtRp2896
sg14
g1
(g11
g12
(dtRp2897
sg16
g1
(g11
g12
(dtRp2898
sg18
g1
(g11
g12
(dtRp2899
sg20
g1
(g11
g12
(dtRp2900
sg22
g1
(g11
g12
(dtRp2901
sbsg24
S'Wmu'
p2902
sg26
g27
((lp2903
g29
ag30
aS'sequence'
p2904
ag32
ag33
aS'species'
p2905
atRp2906
sg37
(lp2907
sg121
g2858
sg122
S'RWLSTKDLYSRLELPGLNQNVHAMFVMPLGFGNPLGDMFARLNNSFWLPPLSLEGAGTGWTIYPPLAHSSPSVDLGFHLTSSLLGAINFTNMRGPLFWTAMLLLSLPVLAGTLLDRNFNTFEGGDPLYHLFWFFGHPEVYIIPGFGSHSTYKKFGMYASIALGFVWSHHMYVGLDDRAYFTSSTMIAPTGIKFSWLATYGGRPMLAFLFLFTGGTGVLNASDAFHDTYYVVHFHYVLSMGAFSLGYYYWPGLYNLFWFNFPMHFLGGMPRRPYPDAGWNSGSSYQLGPDESNEPH'
p2908
sg124
F0.079170000000000004
sg125
g126
sg33
S'197'
p2909
sg128
g1
(g129
g12
(dp2910
g131
I4
sg132
g133
sg134
g135
sg136
g133
sg137
I01
sg34
g138
sg139
g135
sg140
I0
sg141
I0
sg142
I0
sg143
g135
sg35
g144
sg145
I0
stRp2911
sg147
g148
sg149
F1
sg150
Nsg30
S'WmucoA'
p2912
sbasg121
g2845
sg124
F0.14757000000000001
sg125
g126
sg33
S'165'
p2913
sg128
g1
(g129
g12
(dp2914
g131
I6
sg132
g133
sg134
g135
sg136
g133
sg137
I01
sg34
g175
sg139
g135
sg140
I0
sg141
I0
sg142
I0
sg143
g135
sg35
g176
sg145
I0
stRp2915
sg147
g148
sg149
F0.98999999999999999
sg150
Nsg30
S'NoName'
p2916
sbag1
(g2
g3
NtRp2917
(dp2918
g6
g1
(g7
g3
NtRp2919
(dp2920
g10
g1
(g11
g12
(dtRp2921
sg14
g1
(g11
g12
(dtRp2922
sg16
g1
(g11
g12
(dtRp2923
sg18
g1
(g11
g12
(dtRp2924
sg20
g1
(g11
g12
(dtRp2925
sg22
g1
(g11
g12
(dtRp2926
sbsg24
g25
sg26
g27
((lp2927
g33
ag32
ag29
ag30
atRp2928
sg37
(lp2929
g1
(g2
g3
NtRp2930
(dp2931
g6
g1
(g7
g3
NtRp2932
(dp2933
g10
g1
(g11
g12
(dtRp2934
sg14
g1
(g11
g12
(dtRp2935
sg16
g1
(g11
g12
(dtRp2936
sg18
g1
(g11
g12
(dtRp2937
sg20
g1
(g11
g12
(dtRp2938
sg22
g1
(g11
g12
(dtRp2939
sbsg24
S'Pca'
p2940
sg26
g27
((lp2941
g29
ag30
aS'sequence'
p2942
ag32
ag33
aS'species'
p2943
atRp2944
sg37
(lp2945
sg121
g2917
sg122
S'RWLSTKDLYSRLELPGLNQNVHAMFVMPLGFGNPLGDMFARLNNSFWLPPLSLEWAGTGWTIYPPLSHSSPSVDLGFHLTSSLLGAINFTNMRGPLFWTAMLLLSLPVLAGTLLDRNFNTFEGGDPLYHLFWFFGHPEVYIIPGFGSHSTYKKFGMYASIALGFVWSHHMYVGLDDRAYFTSSTMIAPTGIKFSWLATYGGRPMLAFLFLFTGGTGVLNASDAFHDTYYVVHFHYVLSMGAFSLGYYYWPGLFNLFWFNFPMHFLGGMPRRPYPDAGWNSGSSYQLGPDESNEPH'
p2946
sg124
F0.10655000000000001
sg125
g126
sg33
S'216'
p2947
sg128
g1
(g129
g12
(dp2948
g131
I4
sg132
g133
sg134
g135
sg136
g133
sg137
I01
sg34
g138
sg139
g135
sg140
I0
sg141
I0
sg142
I0
sg143
g135
sg35
g144
sg145
I0
stRp2949
sg147
g148
sg149
F1
sg150
Nsg30
S'PcanaA'
p2950
sbag1
(g2
g3
NtRp2951
(dp2952
g6
g1
(g7
g3
NtRp2953
(dp2954
g10
g1
(g11
g12
(dtRp2955
sg14
g1
(g11
g12
(dtRp2956
sg16
g1
(g11
g12
(dtRp2957
sg18
g1
(g11
g12
(dtRp2958
sg20
g1
(g11
g12
(dtRp2959
sg22
g1
(g11
g12
(dtRp2960
sbsg24
g25
sg26
g27
((lp2961
g33
ag32
ag29
ag30
atRp2962
sg37
(lp2963
g1
(g2
g3
NtRp2964
(dp2965
g6
g1
(g7
g3
NtRp2966
(dp2967
g10
g1
(g11
g12
(dtRp2968
sg14
g1
(g11
g12
(dtRp2969
sg16
g1
(g11
g12
(dtRp2970
sg18
g1
(g11
g12
(dtRp2971
sg20
g1
(g11
g12
(dtRp2972
sg22
g1
(g11
g12
(dtRp2973
sbsg24
S'Cno'
p2974
sg26
g27
((lp2975
g29
ag30
aS'sequence'
p2976
ag32
ag33
aS'species'
p2977
atRp2978
sg37
(lp2979
sg121
g2951
sg122
S'RWLSTKDLYSRLELPGLNQNVHAMFVMPLGFGNPLGDMFARLNNSFWLPPLSLEGAGTGWTIYPPLSHSSPSVDLGFHLTSSLLGAMNFTNMRGPLFWTAMLLLSLPVLAGTLLDRNFNTFEGGDPLYHLFWFFGHPEVYMIPGFGSHSTYKKFGMYASMALGFVWSHHMYVGLDDRAYFTSSTMMAPTGMKFSWLATYGGRPMLAFLFLFTGGTGVLNASDAFHDTYYVVHFHYVLSMGAFSLGYYYWPGLYNLFWFNFPMHFLGGMPRRPYPDAGWNSGSSYQLGPDESNEPH'
p2980
sg124
F0.059069999999999998
sg125
g126
sg33
S'22'
p2981
sg128
g1
(g129
g12
(dp2982
g131
I4
sg132
g133
sg134
g135
sg136
g133
sg137
I01
sg34
g138
sg139
g135
sg140
I0
sg141
I0
sg142
I0
sg143
g135
sg35
g144
sg145
I0
stRp2983
sg147
g148
sg149
F1
sg150
Nsg30
S'CnorvA'
p2984
sbag1
(g2
g3
NtRp2985
(dp2986
g6
g1
(g7
g3
NtRp2987
(dp2988
g10
g1
(g11
g12
(dtRp2989
sg14
g1
(g11
g12
(dtRp2990
sg16
g1
(g11
g12
(dtRp2991
sg18
g1
(g11
g12
(dtRp2992
sg20
g1
(g11
g12
(dtRp2993
sg22
g1
(g11
g12
(dtRp2994
sbsg24
S'Bca'
p2995
sg26
g27
((lp2996
g29
ag30
aS'sequence'
p2997
ag32
ag33
aS'species'
p2998
atRp2999
sg37
(lp3000
sg121
g2951
sg122
S'RWLSTKDLYSRLELPGLNQNVHAMFVMPLGFGNPLGDMFARLNNSFWLPPLSLEGAGTGWTIYPPLSHSSPSVDLGFHLTSSLLGAINFTNMRGPLFWTAMLLLSLPVLAGTLLDRNFNTFEGGDPLYHLFWFFGHPEVYIMPGFGSHSTYKKFGMYASIALGFVWSHHMYVGLDDRAYFTSSTMIAPTGIKFSWLATYGGRPMLAFLFLFTGGTGVLNASDAFHDTYYVVHFHYVLSMGAFSLGYYYWPGLYNLFWFNFPMHFLGGMPRRPYPDAGWNSGSSYQLGPDESNEPH'
p3001
sg124
F0.031899999999999998
sg125
g126
sg33
S'33'
p3002
sg128
g1
(g129
g12
(dp3003
g131
I4
sg132
g133
sg134
g135
sg136
g133
sg137
I01
sg34
g138
sg139
g135
sg140
I0
sg141
I0
sg142
I0
sg143
g135
sg35
g144
sg145
I0
stRp3004
sg147
g148
sg149
F1
sg150
Nsg30
S'BcaliA'
p3005
sbasg121
g2917
sg124
F0.09486
sg125
g126
sg33
S'207'
p3006
sg128
g1
(g129
g12
(dp3007
g131
I6
sg132
g133
sg134
g135
sg136
g133
sg137
I01
sg34
g175
sg139
g135
sg140
I0
sg141
I0
sg142
I0
sg143
g135
sg35
g176
sg145
I0
stRp3008
sg147
g148
sg149
F0.97999999999999998
sg150
Nsg30
S'NoName'
p3009
sbasg121
g2845
sg124
F0.054690000000000003
sg125
g126
sg33
S'176'
p3010
sg128
g1
(g129
g12
(dp3011
g131
I6
sg132
g133
sg134
g135
sg136
g133
sg137
I01
sg34
g175
sg139
g135
sg140
I0
sg141
I0
sg142
I0
sg143
g135
sg35
g176
sg145
I0
stRp3012
sg147
g148
sg149
F0.96999999999999997
sg150
Nsg30
S'NoName'
p3013
sbasg121
g2697
sg124
F0.051860000000000003
sg125
g126
sg33
S'122'
p3014
sg128
g1
(g129
g12
(dp3015
g131
I6
sg132
g133
sg134
g135
sg136
g133
sg137
I01
sg34
g175
sg139
g135
sg140
I0
sg141
I0
sg142
I0
sg143
g135
sg35
g176
sg145
I0
stRp3016
sg147
g148
sg149
F0.96999999999999997
sg150
Nsg30
S'NoName'
p3017
sbasg121
g2684
sg124
F0.52095999999999998
sg125
g126
sg33
S'69'
p3018
sg128
g1
(g129
g12
(dp3019
g131
I6
sg132
g133
sg134
g135
sg136
g133
sg137
I01
sg34
g175
sg139
g135
sg140
I0
sg141
I0
sg142
I0
sg143
g135
sg35
g176
sg145
I0
stRp3020
sg147
g148
sg149
F0.98999999999999999
sg150
Nsg30
S'NoName'
p3021
sbag1
(g2
g3
NtRp3022
(dp3023
g6
g1
(g7
g3
NtRp3024
(dp3025
g10
g1
(g11
g12
(dtRp3026
sg14
g1
(g11
g12
(dtRp3027
sg16
g1
(g11
g12
(dtRp3028
sg18
g1
(g11
g12
(dtRp3029
sg20
g1
(g11
g12
(dtRp3030
sg22
g1
(g11
g12
(dtRp3031
sbsg24
g25
sg49
I1
sg26
g27
((lp3032
g49
ag30
ag31
ag32
ag33
ag34
ag29
ag35
atRp3033
sg37
(lp3034
g1
(g2
g3
NtRp3035
(dp3036
g6
g1
(g7
g3
NtRp3037
(dp3038
g10
g1
(g11
g12
(dtRp3039
sg14
g1
(g11
g12
(dtRp3040
sg16
g1
(g11
g12
(dtRp3041
sg18
g1
(g11
g12
(dtRp3042
sg20
g1
(g11
g12
(dtRp3043
sg22
g1
(g11
g12
(dtRp3044
sbsg24
g25
sg26
g27
((lp3045
g33
ag32
ag29
ag30
atRp3046
sg37
(lp3047
g1
(g2
g3
NtRp3048
(dp3049
g6
g1
(g7
g3
NtRp3050
(dp3051
g10
g1
(g11
g12
(dtRp3052
sg14
g1
(g11
g12
(dtRp3053
sg16
g1
(g11
g12
(dtRp3054
sg18
g1
(g11
g12
(dtRp3055
sg20
g1
(g11
g12
(dtRp3056
sg22
g1
(g11
g12
(dtRp3057
sbsg24
g25
sg26
g27
((lp3058
g33
ag32
ag29
ag30
atRp3059
sg37
(lp3060
g1
(g2
g3
NtRp3061
(dp3062
g6
g1
(g7
g3
NtRp3063
(dp3064
g10
g1
(g11
g12
(dtRp3065
sg14
g1
(g11
g12
(dtRp3066
sg16
g1
(g11
g12
(dtRp3067
sg18
g1
(g11
g12
(dtRp3068
sg20
g1
(g11
g12
(dtRp3069
sg22
g1
(g11
g12
(dtRp3070
sbsg24
g25
sg26
g27
((lp3071
g33
ag32
ag29
ag30
atRp3072
sg37
(lp3073
g1
(g2
g3
NtRp3074
(dp3075
g6
g1
(g7
g3
NtRp3076
(dp3077
g10
g1
(g11
g12
(dtRp3078
sg14
g1
(g11
g12
(dtRp3079
sg16
g1
(g11
g12
(dtRp3080
sg18
g1
(g11
g12
(dtRp3081
sg20
g1
(g11
g12
(dtRp3082
sg22
g1
(g11
g12
(dtRp3083
sbsg24
g25
sg26
g27
((lp3084
g33
ag32
ag29
ag30
atRp3085
sg37
(lp3086
g1
(g2
g3
NtRp3087
(dp3088
g6
g1
(g7
g3
NtRp3089
(dp3090
g10
g1
(g11
g12
(dtRp3091
sg14
g1
(g11
g12
(dtRp3092
sg16
g1
(g11
g12
(dtRp3093
sg18
g1
(g11
g12
(dtRp3094
sg20
g1
(g11
g12
(dtRp3095
sg22
g1
(g11
g12
(dtRp3096
sbsg24
g25
sg26
g27
((lp3097
g33
ag32
ag29
ag30
atRp3098
sg37
(lp3099
g1
(g2
g3
NtRp3100
(dp3101
g6
g1
(g7
g3
NtRp3102
(dp3103
g10
g1
(g11
g12
(dtRp3104
sg14
g1
(g11
g12
(dtRp3105
sg16
g1
(g11
g12
(dtRp3106
sg18
g1
(g11
g12
(dtRp3107
sg20
g1
(g11
g12
(dtRp3108
sg22
g1
(g11
g12
(dtRp3109
sbsg24
S'Lkl'
p3110
sg26
g27
((lp3111
g29
ag30
aS'sequence'
p3112
ag32
ag33
aS'species'
p3113
atRp3114
sg37
(lp3115
sg121
g3087
sg122
S'RWLSTKDLYSRLELPGLNQNVHAMFVMPLGFGNPMGDMFARLNNSFWLPPLSLEGAGTGWTVYPPLSHSGPSVDLAFHLTSSLLGAINFTNMRGPLFWTALLLLSLPVLAGTLLDRNFNTFEGGDPLYHLFWFFGHPEVYIIPGFGSHSTYKKFGMYASIGLGFVWSHHMYVGLDDRAYFLSATMIAPTGIKFSWLATYGGRPMLAFLFLFTGGTGVLNASDAFHDLYYVVHFHYVLSMGAFSLGYYYWPGLYNLFWFNFPMHFLGGMPRRPYPDAGWNSGSSYQLGPDESNEPH'
p3116
sg124
F0.00044999999999999999
sg125
g126
sg33
S'110'
p3117
sg128
g1
(g129
g12
(dp3118
g131
I4
sg132
g133
sg134
g135
sg136
g133
sg137
I01
sg34
g138
sg139
g135
sg140
I0
sg141
I0
sg142
I0
sg143
g135
sg35
g144
sg145
I0
stRp3119
sg147
g148
sg149
F1
sg150
Nsg30
S'LkluyE'
p3120
sbag1
(g2
g3
NtRp3121
(dp3122
g6
g1
(g7
g3
NtRp3123
(dp3124
g10
g1
(g11
g12
(dtRp3125
sg14
g1
(g11
g12
(dtRp3126
sg16
g1
(g11
g12
(dtRp3127
sg18
g1
(g11
g12
(dtRp3128
sg20
g1
(g11
g12
(dtRp3129
sg22
g1
(g11
g12
(dtRp3130
sbsg24
S'Lkl'
p3131
sg26
g27
((lp3132
g29
ag30
aS'sequence'
p3133
ag32
ag33
aS'species'
p3134
atRp3135
sg37
(lp3136
sg121
g3087
sg122
S'RWLSTKDLYSRLELPGLNQNVHAMFVMPLGFGNPMGDMFARLNNSFWLPPLSLEGAGTGWTVYPPLSHSGPSVDLAFHLTSSLLGAINFTNMRGPLFWTALLLLSLPVLAGTLLDRNFNTFEGGDPLYHLFWFFGHPEVYIIPGFGSHSTYKKFGMYASIGLGFVWSHHMYVGLDDRAYFLSATMIAPTGIKFSWLATYGGRPMLAFLFLFTGGTGVLNASDAFHDLYYVVHFHYVLSMGAFSLGYYYWPGLYNLFWFNFPMHFLGGMPRRPYPDAGWNSGSSYQLGPDESNEPH'
p3137
sg124
F0.0077400000000000004
sg125
g126
sg33
S'119'
p3138
sg128
g1
(g129
g12
(dp3139
g131
I4
sg132
g133
sg134
g135
sg136
g133
sg137
I01
sg34
g138
sg139
g135
sg140
I0
sg141
I0
sg142
I0
sg143
g135
sg35
g144
sg145
I0
stRp3140
sg147
g148
sg149
F1
sg150
Nsg30
S'LkluyD'
p3141
sbasg121
g3074
sg124
F0.0017099999999999999
sg125
g126
sg33
S'86'
p3142
sg128
g1
(g129
g12
(dp3143
g131
I6
sg132
g133
sg134
g135
sg136
g133
sg137
I01
sg34
g175
sg139
g135
sg140
I0
sg141
I0
sg142
I0
sg143
g135
sg35
g176
sg145
I0
stRp3144
sg147
g148
sg149
F0.56000000000000005
sg150
Nsg30
S'NoName'
p3145
sbag1
(g2
g3
NtRp3146
(dp3147
g6
g1
(g7
g3
NtRp3148
(dp3149
g10
g1
(g11
g12
(dtRp3150
sg14
g1
(g11
g12
(dtRp3151
sg16
g1
(g11
g12
(dtRp3152
sg18
g1
(g11
g12
(dtRp3153
sg20
g1
(g11
g12
(dtRp3154
sg22
g1
(g11
g12
(dtRp3155
sbsg24
g25
sg26
g27
((lp3156
g33
ag32
ag29
ag30
atRp3157
sg37
(lp3158
g1
(g2
g3
NtRp3159
(dp3160
g6
g1
(g7
g3
NtRp3161
(dp3162
g10
g1
(g11
g12
(dtRp3163
sg14
g1
(g11
g12
(dtRp3164
sg16
g1
(g11
g12
(dtRp3165
sg18
g1
(g11
g12
(dtRp3166
sg20
g1
(g11
g12
(dtRp3167
sg22
g1
(g11
g12
(dtRp3168
sbsg24
g25
sg26
g27
((lp3169
g33
ag32
ag29
ag30
atRp3170
sg37
(lp3171
g1
(g2
g3
NtRp3172
(dp3173
g6
g1
(g7
g3
NtRp3174
(dp3175
g10
g1
(g11
g12
(dtRp3176
sg14
g1
(g11
g12
(dtRp3177
sg16
g1
(g11
g12
(dtRp3178
sg18
g1
(g11
g12
(dtRp3179
sg20
g1
(g11
g12
(dtRp3180
sg22
g1
(g11
g12
(dtRp3181
sbsg24
g25
sg26
g27
((lp3182
g33
ag32
ag29
ag30
atRp3183
sg37
(lp3184
g1
(g2
g3
NtRp3185
(dp3186
g6
g1
(g7
g3
NtRp3187
(dp3188
g10
g1
(g11
g12
(dtRp3189
sg14
g1
(g11
g12
(dtRp3190
sg16
g1
(g11
g12
(dtRp3191
sg18
g1
(g11
g12
(dtRp3192
sg20
g1
(g11
g12
(dtRp3193
sg22
g1
(g11
g12
(dtRp3194
sbsg24
S'Lkl'
p3195
sg26
g27
((lp3196
g29
ag30
aS'sequence'
p3197
ag32
ag33
aS'species'
p3198
atRp3199
sg37
(lp3200
sg121
g3172
sg122
S'RWLSTKDLYSRLELPGLNQNVHAMFVMPLGFGNPMGDMFARLNNSFWLPPLSLEGAGTGWTVYPPLSHSGPSVDLAFHLTSSLLGAINFTNMRGPLFWTALLLLSLPVLAGTLLDRNFNTFEGGDPLYHLFWFFGHPEVYIIPGFGSHSTYKKFGMYASIGLGFVWSHHMYVGLDDRAYFLSATMIAPTGIKFSWLATYGGRPMLAFLFLFTGGTGVLNASDAFHDLYYVVHFHYVLSMGAFSLGYYYWPGLYNLFWFNFPMHFLGGMPRRPYPDAGWNSGSSYQLGPDESNEPH'
p3201
sg124
F0.00038999999999999999
sg125
g126
sg33
S'161'
p3202
sg128
g1
(g129
g12
(dp3203
g131
I4
sg132
g133
sg134
g135
sg136
g133
sg137
I01
sg34
g138
sg139
g135
sg140
I0
sg141
I0
sg142
I0
sg143
g135
sg35
g144
sg145
I0
stRp3204
sg147
g148
sg149
F1
sg150
Nsg30
S'LkluyF'
p3205
sbag1
(g2
g3
NtRp3206
(dp3207
g6
g1
(g7
g3
NtRp3208
(dp3209
g10
g1
(g11
g12
(dtRp3210
sg14
g1
(g11
g12
(dtRp3211
sg16
g1
(g11
g12
(dtRp3212
sg18
g1
(g11
g12
(dtRp3213
sg20
g1
(g11
g12
(dtRp3214
sg22
g1
(g11
g12
(dtRp3215
sbsg24
S'Lkl'
p3216
sg26
g27
((lp3217
g29
ag30
aS'sequence'
p3218
ag32
ag33
aS'species'
p3219
atRp3220
sg37
(lp3221
sg121
g3172
sg122
S'RWLSTKDLYSRLELPGLNQNVHAMFVMPLGFGNPMGDMFARLNNSFWLPPLSLEGAGTGWTVYPPLSHSGPSVDLAFHLTSSLLGAINFTNMRGPLFWTALLLLSLPVLAGTLLDRNFNTFEGGDPLYHLFWFFGHPEVYIIPGFGSHSTYKKFGMYASIGLGFVWSHHMYVGLDDRAYFLSATMIAPTGIKFSWLATYGGRPMLAFLFLFTGGTGVLNASDAFHDLYYVVHFHYVLSMGAFSLGYYYWPGLYNLFWFNFPMHFLGGMPRRPYPDAGWNSGSSYQLGPDESNEPH'
p3222
sg124
F0.00038000000000000002
sg125
g126
sg33
S'173'
p3223
sg128
g1
(g129
g12
(dp3224
g131
I4
sg132
g133
sg134
g135
sg136
g133
sg137
I01
sg34
g138
sg139
g135
sg140
I0
sg141
I0
sg142
I0
sg143
g135
sg35
g144
sg145
I0
stRp3225
sg147
g148
sg149
F1
sg150
Nsg30
S'LkluyC'
p3226
sbasg121
g3159
sg124
F1.0000000000000001e-05
sg125
g126
sg33
S'139'
p3227
sg128
g1
(g129
g12
(dp3228
g131
I6
sg132
g133
sg134
g135
sg136
g133
sg137
I01
sg34
g175
sg139
g135
sg140
I0
sg141
I0
sg142
I0
sg143
g135
sg35
g176
sg145
I0
stRp3229
sg147
g148
sg149
F1
sg150
Nsg30
S'NoName'
p3230
sbag1
(g2
g3
NtRp3231
(dp3232
g6
g1
(g7
g3
NtRp3233
(dp3234
g10
g1
(g11
g12
(dtRp3235
sg14
g1
(g11
g12
(dtRp3236
sg16
g1
(g11
g12
(dtRp3237
sg18
g1
(g11
g12
(dtRp3238
sg20
g1
(g11
g12
(dtRp3239
sg22
g1
(g11
g12
(dtRp3240
sbsg24
S'Lkl'
p3241
sg26
g27
((lp3242
g29
ag30
aS'sequence'
p3243
ag32
ag33
aS'species'
p3244
atRp3245
sg37
(lp3246
sg121
g3159
sg122
S'RWLSTKDLYSRLELPGLNQNVHAMFVMPLGFGNPMGDMFARLNNSFWLPPLSLEGAGTGWTVYPPLSHSGPSVDLAFHLTSSLLGAINFTNMRGPLFWTALLLLSLPVLAGTLLDRNFNTFEGGDPLYHLFWFFGHPEVYIIPGFGSHSTYKKFGMYASIGLGFVWSHHMYVGLDDRAYFLSATMIAPTGIKFSWLATYGGRPMLAFLFLFTGGTGVLNASDAFHDLYYVVHFHYVLSMGAFSLGYYYWPGLYNLFWFNFPMHFLGGMPRRPYPDAGWNSGSSYQLGPDESNEPH'
p3247
sg124
F0.00040999999999999999
sg125
g126
sg33
S'183'
p3248
sg128
g1
(g129
g12
(dp3249
g131
I4
sg132
g133
sg134
g135
sg136
g133
sg137
I01
sg34
g138
sg139
g135
sg140
I0
sg141
I0
sg142
I0
sg143
g135
sg35
g144
sg145
I0
stRp3250
sg147
g148
sg149
F1
sg150
Nsg30
S'LkluyB'
p3251
sbasg121
g3146
sg124
F1.0000000000000001e-05
sg125
g126
sg33
S'129'
p3252
sg128
g1
(g129
g12
(dp3253
g131
I6
sg132
g133
sg134
g135
sg136
g133
sg137
I01
sg34
g175
sg139
g135
sg140
I0
sg141
I0
sg142
I0
sg143
g135
sg35
g176
sg145
I0
stRp3254
sg147
g148
sg149
F1
sg150
Nsg30
S'NoName'
p3255
sbag1
(g2
g3
NtRp3256
(dp3257
g6
g1
(g7
g3
NtRp3258
(dp3259
g10
g1
(g11
g12
(dtRp3260
sg14
g1
(g11
g12
(dtRp3261
sg16
g1
(g11
g12
(dtRp3262
sg18
g1
(g11
g12
(dtRp3263
sg20
g1
(g11
g12
(dtRp3264
sg22
g1
(g11
g12
(dtRp3265
sbsg24
S'Lkl'
p3266
sg26
g27
((lp3267
g29
ag30
aS'sequence'
p3268
ag32
ag33
aS'species'
p3269
atRp3270
sg37
(lp3271
sg121
g3146
sg122
S'RWLSTKDLYSRLELPGLNQNVHAMFVMPLGFGNPMGDMFARLNNSFWLPPLSLEGAGTGWTVYPPLSHSGPSVDLAFHLTSSLLGAINFTNMRGPLFWTALLLLSLPVLAGTLLDRNFNTFEGGDPLYHLFWFFGHPEVYIIPGFGSHSTYKKFGMYASIGLGFVWSHHMYVGLDDRAYFLSATMIAPTGIKFSWLATYGGRPMLAFLFLFTGGTGVLNASDAFHDLYYVVHFHYVLSMGAFSLGYYYWPGLYNLFWFNFPMHFLGGMPRRPYPDAGWNSGSSYQLGPDESNEPH'
p3272
sg124
F0.00040999999999999999
sg125
g126
sg33
S'193'
p3273
sg128
g1
(g129
g12
(dp3274
g131
I4
sg132
g133
sg134
g135
sg136
g133
sg137
I01
sg34
g138
sg139
g135
sg140
I0
sg141
I0
sg142
I0
sg143
g135
sg35
g144
sg145
I0
stRp3275
sg147
g148
sg149
F1
sg150
Nsg30
S'LkluyA'
p3276
sbasg121
g3074
sg124
F0.0035300000000000002
sg125
g126
sg33
S'97'
p3277
sg128
g1
(g129
g12
(dp3278
g131
I6
sg132
g133
sg134
g135
sg136
g133
sg137
I01
sg34
g175
sg139
g135
sg140
I0
sg141
I0
sg142
I0
sg143
g135
sg35
g176
sg145
I0
stRp3279
sg147
g148
sg149
F0.91000000000000003
sg150
Nsg30
S'NoName'
p3280
sbasg121
g3061
sg124
F0.054280000000000002
sg125
g126
sg33
S'76'
p3281
sg128
g1
(g129
g12
(dp3282
g131
I6
sg132
g133
sg134
g135
sg136
g133
sg137
I01
sg34
g175
sg139
g135
sg140
I0
sg141
I0
sg142
I0
sg143
g135
sg35
g176
sg145
I0
stRp3283
sg147
g148
sg149
F0.98999999999999999
sg150
Nsg30
S'NoName'
p3284
sbag1
(g2
g3
NtRp3285
(dp3286
g6
g1
(g7
g3
NtRp3287
(dp3288
g10
g1
(g11
g12
(dtRp3289
sg14
g1
(g11
g12
(dtRp3290
sg16
g1
(g11
g12
(dtRp3291
sg18
g1
(g11
g12
(dtRp3292
sg20
g1
(g11
g12
(dtRp3293
sg22
g1
(g11
g12
(dtRp3294
sbsg24
g25
sg26
g27
((lp3295
g33
ag32
ag29
ag30
atRp3296
sg37
(lp3297
g1
(g2
g3
NtRp3298
(dp3299
g6
g1
(g7
g3
NtRp3300
(dp3301
g10
g1
(g11
g12
(dtRp3302
sg14
g1
(g11
g12
(dtRp3303
sg16
g1
(g11
g12
(dtRp3304
sg18
g1
(g11
g12
(dtRp3305
sg20
g1
(g11
g12
(dtRp3306
sg22
g1
(g11
g12
(dtRp3307
sbsg24
S'Lan'
p3308
sg26
g27
((lp3309
g29
ag30
aS'sequence'
p3310
ag32
ag33
aS'species'
p3311
atRp3312
sg37
(lp3313
sg121
g3285
sg122
S'RWLSTKDLYSRLELPGLNQNVHAMFVMPLGFGNPMGDMFARLNNSFWLPPLSLEGAGTGWTLYPPLSHSGPSVDLAFHLTSSLLGAINFTNMRGPLFWTALLLLSLPVLAGTVLDRNFNTFEGGDPLYHLFWFFGHPEVYIIPGFGSHSTYKKFGMYASIGLGFVWSHHMYVGLDDRAYFTSATMIAPTGIKFSWLALYGGRPMLAFLFLFTGGTGVLNASDAFHDTYYVVHFHYVLSMGAFSLGYYYWPGLYNLFWFNFPMHFLGGMPRRPYPDAGWNSGSSYQLGPDESNEPH'
p3314
sg124
F0.10922999999999999
sg125
g126
sg33
S'213'
p3315
sg128
g1
(g129
g12
(dp3316
g131
I4
sg132
g133
sg134
g135
sg136
g133
sg137
I01
sg34
g138
sg139
g135
sg140
I0
sg141
I0
sg142
I0
sg143
g135
sg35
g144
sg145
I0
stRp3317
sg147
g148
sg149
F1
sg150
Nsg30
S'LanspA'
p3318
sbag1
(g2
g3
NtRp3319
(dp3320
g6
g1
(g7
g3
NtRp3321
(dp3322
g10
g1
(g11
g12
(dtRp3323
sg14
g1
(g11
g12
(dtRp3324
sg16
g1
(g11
g12
(dtRp3325
sg18
g1
(g11
g12
(dtRp3326
sg20
g1
(g11
g12
(dtRp3327
sg22
g1
(g11
g12
(dtRp3328
sbsg24
g25
sg26
g27
((lp3329
g33
ag32
ag29
ag30
atRp3330
sg37
(lp3331
g1
(g2
g3
NtRp3332
(dp3333
g6
g1
(g7
g3
NtRp3334
(dp3335
g10
g1
(g11
g12
(dtRp3336
sg14
g1
(g11
g12
(dtRp3337
sg16
g1
(g11
g12
(dtRp3338
sg18
g1
(g11
g12
(dtRp3339
sg20
g1
(g11
g12
(dtRp3340
sg22
g1
(g11
g12
(dtRp3341
sbsg24
g25
sg26
g27
((lp3342
g33
ag32
ag29
ag30
atRp3343
sg37
(lp3344
g1
(g2
g3
NtRp3345
(dp3346
g6
g1
(g7
g3
NtRp3347
(dp3348
g10
g1
(g11
g12
(dtRp3349
sg14
g1
(g11
g12
(dtRp3350
sg16
g1
(g11
g12
(dtRp3351
sg18
g1
(g11
g12
(dtRp3352
sg20
g1
(g11
g12
(dtRp3353
sg22
g1
(g11
g12
(dtRp3354
sbsg24
S'Lno'
p3355
sg26
g27
((lp3356
g29
ag30
aS'sequence'
p3357
ag32
ag33
aS'species'
p3358
atRp3359
sg37
(lp3360
sg121
g3332
sg122
S'RWLSTKDLYSRLELPGLNQNVHAMFVMPLGFGNPMGDMFARLNNSFWLPPLSLEGAGTGWTIYPPLSHSGPSVDLAFHLTSSLLGAINFTNMRGPLFWTALLLLSLPVLAGTILDRNFNTFEGGDPLYHLFWFFGHPEVYIIPGFGSHSTYKKFGMYASIGLGFVWSHHMYVGLDDRAYFTSALMIAPTGIKFSWLALYGGRPMLAFLFLFTGGTGVLNASDAFHDTYYVVHFHYVLSMGAFSLGYYYWPGLYNLFWFNFPMHFLGGMPRRPYPDAGWNSGSSYQLGPDESNEPH'
p3361
sg124
F0.0075199999999999998
sg125
g126
sg33
S'19'
p3362
sg128
g1
(g129
g12
(dp3363
g131
I4
sg132
g133
sg134
g135
sg136
g133
sg137
I01
sg34
g138
sg139
g135
sg140
I0
sg141
I0
sg142
I0
sg143
g135
sg35
g144
sg145
I0
stRp3364
sg147
g148
sg149
F1
sg150
Nsg30
S'LnothA'
p3365
sbag1
(g2
g3
NtRp3366
(dp3367
g6
g1
(g7
g3
NtRp3368
(dp3369
g10
g1
(g11
g12
(dtRp3370
sg14
g1
(g11
g12
(dtRp3371
sg16
g1
(g11
g12
(dtRp3372
sg18
g1
(g11
g12
(dtRp3373
sg20
g1
(g11
g12
(dtRp3374
sg22
g1
(g11
g12
(dtRp3375
sbsg24
g25
sg26
g27
((lp3376
g33
ag32
ag29
ag30
atRp3377
sg37
(lp3378
g1
(g2
g3
NtRp3379
(dp3380
g6
g1
(g7
g3
NtRp3381
(dp3382
g10
g1
(g11
g12
(dtRp3383
sg14
g1
(g11
g12
(dtRp3384
sg16
g1
(g11
g12
(dtRp3385
sg18
g1
(g11
g12
(dtRp3386
sg20
g1
(g11
g12
(dtRp3387
sg22
g1
(g11
g12
(dtRp3388
sbsg24
S'Lda'
p3389
sg26
g27
((lp3390
g29
ag30
aS'sequence'
p3391
ag32
ag33
aS'species'
p3392
atRp3393
sg37
(lp3394
sg121
g3366
sg122
S'RWLSTKDLYSRLELPGLNQNVHAMFVMPLGFGNPMGDMFARLNNSFWLPPLSLEGAGTGWTVYPPLSHSGPSVDLAFHLTSSLLGAINFTNMRGPLFWTALLLLSLPVLAGTILDRNFNTFEGGDPLYHLFWFFGHPEVYIIPGFGSHSTYKKFGMYASIGLGFVWSHHMYVGLDDRAYFTSATMIAPTGIKFSWLALYGGRPMLAFLFLFTGGTGVLNASDAFHDTYYVVHFHYVLSMGAFSLGYYYWPGLYNLFWFNFPMHFLGGMPRRPYPDAGWNSGSSYQLGPDESNEPH'
p3395
sg124
F0.023539999999999998
sg125
g126
sg33
S'40'
p3396
sg128
g1
(g129
g12
(dp3397
g131
I4
sg132
g133
sg134
g135
sg136
g133
sg137
I01
sg34
g138
sg139
g135
sg140
I0
sg141
I0
sg142
I0
sg143
g135
sg35
g144
sg145
I0
stRp3398
sg147
g148
sg149
F1
sg150
Nsg30
S'LdasiA'
p3399
sbag1
(g2
g3
NtRp3400
(dp3401
g6
g1
(g7
g3
NtRp3402
(dp3403
g10
g1
(g11
g12
(dtRp3404
sg14
g1
(g11
g12
(dtRp3405
sg16
g1
(g11
g12
(dtRp3406
sg18
g1
(g11
g12
(dtRp3407
sg20
g1
(g11
g12
(dtRp3408
sg22
g1
(g11
g12
(dtRp3409
sbsg24
g25
sg26
g27
((lp3410
g33
ag32
ag29
ag30
atRp3411
sg37
(lp3412
g1
(g2
g3
NtRp3413
(dp3414
g6
g1
(g7
g3
NtRp3415
(dp3416
g10
g1
(g11
g12
(dtRp3417
sg14
g1
(g11
g12
(dtRp3418
sg16
g1
(g11
g12
(dtRp3419
sg18
g1
(g11
g12
(dtRp3420
sg20
g1
(g11
g12
(dtRp3421
sg22
g1
(g11
g12
(dtRp3422
sbsg24
S'Lme'
p3423
sg26
g27
((lp3424
g29
ag30
aS'sequence'
p3425
ag32
ag33
aS'species'
p3426
atRp3427
sg37
(lp3428
sg121
g3400
sg122
S'RWLSTKDLYSRLELPGLNQNVHAMFVMPLGFGNPMGDMFARLNNSFWLPPLSLEGAGTGWTVYPPLSHSGPSVDLAFHLTSSLLGAINFTNMRGPLFWTALLLLSLPVLAGTILDRNFNTFEGGDPLYHLFWFFGHPEVYIIPGFGSHSTYKKFGMYASIGLGFVWSHHMYVGLDDRAYFTSATMIAPTGIKFSWLALYGGRPMLAFLFLFTGGTGVLNASDAFHDTYYVVHFHYVLSMGAFSLGYYYWPGLYNLFWFNFPMHFLGGMPRRPYPDAGWNSGSSYQLGPDESNEPH'
p3429
sg124
F0.0050299999999999997
sg125
g126
sg33
S'62'
p3430
sg128
g1
(g129
g12
(dp3431
g131
I4
sg132
g133
sg134
g135
sg136
g133
sg137
I01
sg34
g138
sg139
g135
sg140
I0
sg141
I0
sg142
I0
sg143
g135
sg35
g144
sg145
I0
stRp3432
sg147
g148
sg149
F1
sg150
Nsg30
S'LmeyeA'
p3433
sbag1
(g2
g3
NtRp3434
(dp3435
g6
g1
(g7
g3
NtRp3436
(dp3437
g10
g1
(g11
g12
(dtRp3438
sg14
g1
(g11
g12
(dtRp3439
sg16
g1
(g11
g12
(dtRp3440
sg18
g1
(g11
g12
(dtRp3441
sg20
g1
(g11
g12
(dtRp3442
sg22
g1
(g11
g12
(dtRp3443
sbsg24
S'Lan'
p3444
sg26
g27
((lp3445
g29
ag30
aS'sequence'
p3446
ag32
ag33
aS'species'
p3447
atRp3448
sg37
(lp3449
sg121
g3400
sg122
S'RWLSTKDLYSRLELPGLNQNVHAMFVMPLGFGNPMGDMFARLNNSFWLPPLSLEGAGTGWTVYPPLSHSGPSVDLAFHLTSSLLGAINFTNMRGPLFWTALLLLSLPVLAGTILDRNFNTFEGGDPLYHLFWFFGHPEVYIIPGFGSHSTYKKFGMYASIGLGFVWSHHMYVGLDDRAYFTSALMIAPTGIKFSWLALYGGRPMLAFLFLFTGGTGVLNASDAFHDTYYVVHFHYVLSMGAFSLGYYYWPGLYNLFWFNFPMHFLGGMPRRPYPDAGWNSGSSYQLGPDESNEPH'
p3450
sg124
F0.012290000000000001
sg125
g126
sg33
S'73'
p3451
sg128
g1
(g129
g12
(dp3452
g131
I4
sg132
g133
sg134
g135
sg136
g133
sg137
I01
sg34
g138
sg139
g135
sg140
I0
sg141
I0
sg142
I0
sg143
g135
sg35
g144
sg145
I0
stRp3453
sg147
g148
sg149
F1
sg150
Nsg30
S'LanspB'
p3454
sbasg121
g3366
sg124
F0.012070000000000001
sg125
g126
sg33
S'28'
p3455
sg128
g1
(g129
g12
(dp3456
g131
I6
sg132
g133
sg134
g135
sg136
g133
sg137
I01
sg34
g175
sg139
g135
sg140
I0
sg141
I0
sg142
I0
sg143
g135
sg35
g176
sg145
I0
stRp3457
sg147
g148
sg149
F0.98999999999999999
sg150
Nsg30
S'NoName'
p3458
sbasg121
g3332
sg124
F0.0088199999999999997
sg125
g126
sg33
S'9'
sg128
g1
(g129
g12
(dp3459
g131
I6
sg132
g133
sg134
g135
sg136
g133
sg137
I01
sg34
g175
sg139
g135
sg140
I0
sg141
I0
sg142
I0
sg143
g135
sg35
g176
sg145
I0
stRp3460
sg147
g148
sg149
F0.95999999999999996
sg150
Nsg30
S'NoName'
p3461
sbasg121
g3319
sg124
F0.016570000000000001
sg125
g126
sg33
S'224'
p3462
sg128
g1
(g129
g12
(dp3463
g131
I6
sg132
g133
sg134
g135
sg136
g133
sg137
I01
sg34
g175
sg139
g135
sg140
I0
sg141
I0
sg142
I0
sg143
g135
sg35
g176
sg145
I0
stRp3464
sg147
g148
sg149
F0.94999999999999996
sg150
Nsg30
S'NoName'
p3465
sbag1
(g2
g3
NtRp3466
(dp3467
g6
g1
(g7
g3
NtRp3468
(dp3469
g10
g1
(g11
g12
(dtRp3470
sg14
g1
(g11
g12
(dtRp3471
sg16
g1
(g11
g12
(dtRp3472
sg18
g1
(g11
g12
(dtRp3473
sg20
g1
(g11
g12
(dtRp3474
sg22
g1
(g11
g12
(dtRp3475
sbsg24
S'Kth'
p3476
sg26
g27
((lp3477
g29
ag30
aS'sequence'
p3478
ag32
ag33
aS'species'
p3479
atRp3480
sg37
(lp3481
sg121
g3319
sg122
S'RWLSTKDLYSRLELPGLNQNVHAMFVMPLGFGNPMGDMFARLNNSFWLPPLSLEGAGTGWTVYPPLSHSGPSVDLAFHLTSSLLGAINFTNMRGPLFWTALLLLSLPVLAGTILDRNFNTFEGGDPLYHLFWFFGHPEVYIIPGFGSHSTYKKFGMYASIGLGFVWSHHMYVGLDDRAYFTSATMIAPTGIKFSWLALYGGRPMLAFLFLFTGGTGVLNASDAFHDTYYVVHFHYVLSMGAFSLGYYYWPGLYNLFWFNFPMHFLGGMPRRPYPDAGWNSGSSYQLGPDESNEPH'
p3482
sg124
F0.021499999999999998
sg125
g126
sg33
S'82'
p3483
sg128
g1
(g129
g12
(dp3484
g131
I4
sg132
g133
sg134
g135
sg136
g133
sg137
I01
sg34
g138
sg139
g135
sg140
I0
sg141
I0
sg142
I0
sg143
g135
sg35
g144
sg145
I0
stRp3485
sg147
g148
sg149
F1
sg150
Nsg30
S'KtherA'
p3486
sbasg121
g3285
sg124
F0.033250000000000002
sg125
g126
sg33
S'203'
p3487
sg128
g1
(g129
g12
(dp3488
g131
I6
sg132
g133
sg134
g135
sg136
g133
sg137
I01
sg34
g175
sg139
g135
sg140
I0
sg141
I0
sg142
I0
sg143
g135
sg35
g176
sg145
I0
stRp3489
sg147
g148
sg149
F0.93999999999999995
sg150
Nsg30
S'NoName'
p3490
sbasg121
g3061
sg124
F0.038859999999999999
sg125
g126
sg33
S'148'
p3491
sg128
g1
(g129
g12
(dp3492
g131
I6
sg132
g133
sg134
g135
sg136
g133
sg137
I01
sg34
g175
sg139
g135
sg140
I0
sg141
I0
sg142
I0
sg143
g135
sg35
g176
sg145
I0
stRp3493
sg147
g148
sg149
F0.92000000000000004
sg150
Nsg30
S'NoName'
p3494
sbasg121
g3048
sg124
F0.050380000000000001
sg125
g126
sg33
S'66'
p3495
sg128
g1
(g129
g12
(dp3496
g131
I6
sg132
g133
sg134
g135
sg136
g133
sg137
I01
sg34
g175
sg139
g135
sg140
I0
sg141
I0
sg142
I0
sg143
g135
sg35
g176
sg145
I0
stRp3497
sg147
g148
sg149
F0.89000000000000001
sg150
Nsg30
S'NoName'
p3498
sbag1
(g2
g3
NtRp3499
(dp3500
g6
g1
(g7
g3
NtRp3501
(dp3502
g10
g1
(g11
g12
(dtRp3503
sg14
g1
(g11
g12
(dtRp3504
sg16
g1
(g11
g12
(dtRp3505
sg18
g1
(g11
g12
(dtRp3506
sg20
g1
(g11
g12
(dtRp3507
sg22
g1
(g11
g12
(dtRp3508
sbsg24
g25
sg26
g27
((lp3509
g33
ag32
ag29
ag30
atRp3510
sg37
(lp3511
g1
(g2
g3
NtRp3512
(dp3513
g6
g1
(g7
g3
NtRp3514
(dp3515
g10
g1
(g11
g12
(dtRp3516
sg14
g1
(g11
g12
(dtRp3517
sg16
g1
(g11
g12
(dtRp3518
sg18
g1
(g11
g12
(dtRp3519
sg20
g1
(g11
g12
(dtRp3520
sg22
g1
(g11
g12
(dtRp3521
sbsg24
S'Kma'
p3522
sg26
g27
((lp3523
g29
ag30
aS'sequence'
p3524
ag32
ag33
aS'species'
p3525
atRp3526
sg37
(lp3527
sg121
g3499
sg122
S'RWLSTKDLYSRLELPGLNQNVHAMFVMPLGFGNPMGDMFARLNNSFWLPPLSLEGAGTGWTVYPPLSHSGPSVDLAFHLTSSLLGAINFTNMRGPLFWTALLLLSLPVLAGTLLDRNFNTFEGGDPLYHLFWFFGHPEVYIIPGFGSHSTYKKFGMYASIGLGFVWSHHMYVGLDDRAYFTSATMIAPTGIKFSWLATYGGRPMLAFLFLFTGGTGVLNASDAFHDTYYVVHFHYVLSMGAFSLGYYYWPGLYNLFWFNFPMHFLGGMPRRPYPDAGWNSGSSYQLGPDESNEPH'
p3528
sg124
F0.04018
sg125
g126
sg33
S'105'
p3529
sg128
g1
(g129
g12
(dp3530
g131
I4
sg132
g133
sg134
g135
sg136
g133
sg137
I01
sg34
g138
sg139
g135
sg140
I0
sg141
I0
sg142
I0
sg143
g135
sg35
g144
sg145
I0
stRp3531
sg147
g148
sg149
F1
sg150
Nsg30
S'KmarxA'
p3532
sbag1
(g2
g3
NtRp3533
(dp3534
g6
g1
(g7
g3
NtRp3535
(dp3536
g10
g1
(g11
g12
(dtRp3537
sg14
g1
(g11
g12
(dtRp3538
sg16
g1
(g11
g12
(dtRp3539
sg18
g1
(g11
g12
(dtRp3540
sg20
g1
(g11
g12
(dtRp3541
sg22
g1
(g11
g12
(dtRp3542
sbsg24
S'Kla'
p3543
sg26
g27
((lp3544
g29
ag30
aS'sequence'
p3545
ag32
ag33
aS'species'
p3546
atRp3547
sg37
(lp3548
sg121
g3499
sg122
S'RWLSTKDLYSRLELPGLNQNVHAMFVMPLGFGNPLGDMFARLNNSFWLPPLSLEGAGTGWTVYPPLSHSGPSVDLAFHLTSSLLGAINFTNMRGPLFWTALLLLSLPVLAGTLLDRNFNTFEGGDPLYHLFWFFGHPEVYIIPGFGSHSTYKKFGMYASIGLGFVWSHHMYVGLDDRAYFTSATMIAPTGIKFSWLATYGGRPMLAFLFLFTGGTGVLNASDAFHDTYYVVHFHYVLSMGAFSLGYYYWPGLYNLFWFNFPMHFLGGMPRRPYPDAGWNSGSSYQLGPDESNEPH'
p3549
sg124
F0.043529999999999999
sg125
g126
sg33
S'116'
p3550
sg128
g1
(g129
g12
(dp3551
g131
I4
sg132
g133
sg134
g135
sg136
g133
sg137
I01
sg34
g138
sg139
g135
sg140
I0
sg141
I0
sg142
I0
sg143
g135
sg35
g144
sg145
I0
stRp3552
sg147
g148
sg149
F1
sg150
Nsg30
S'KlactA'
p3553
sbasg121
g3048
sg124
F0.13938999999999999
sg125
g126
sg33
S'51'
p3554
sg128
g1
(g129
g12
(dp3555
g131
I6
sg132
g133
sg134
g135
sg136
g133
sg137
I01
sg34
g175
sg139
g135
sg140
I0
sg141
I0
sg142
I0
sg143
g135
sg35
g176
sg145
I0
stRp3556
sg147
g148
sg149
F0.98999999999999999
sg150
Nsg30
S'NoName'
p3557
sbasg121
g3035
sg124
F1.0000000000000001e-05
sg125
g126
sg33
S'55'
p3558
sg128
g1
(g129
g12
(dp3559
g131
I6
sg132
g133
sg134
g135
sg136
g133
sg137
I01
sg34
g175
sg139
g135
sg140
I0
sg141
I0
sg142
I0
sg143
g135
sg35
g176
sg145
I0
stRp3560
sg147
g148
sg149
F1
sg150
Nsg30
S'NoName'
p3561
sbag1
(g2
g3
NtRp3562
(dp3563
g6
g1
(g7
g3
NtRp3564
(dp3565
g10
g1
(g11
g12
(dtRp3566
sg14
g1
(g11
g12
(dtRp3567
sg16
g1
(g11
g12
(dtRp3568
sg18
g1
(g11
g12
(dtRp3569
sg20
g1
(g11
g12
(dtRp3570
sg22
g1
(g11
g12
(dtRp3571
sbsg24
g25
sg26
g27
((lp3572
g33
ag32
ag29
ag30
atRp3573
sg37
(lp3574
g1
(g2
g3
NtRp3575
(dp3576
g6
g1
(g7
g3
NtRp3577
(dp3578
g10
g1
(g11
g12
(dtRp3579
sg14
g1
(g11
g12
(dtRp3580
sg16
g1
(g11
g12
(dtRp3581
sg18
g1
(g11
g12
(dtRp3582
sg20
g1
(g11
g12
(dtRp3583
sg22
g1
(g11
g12
(dtRp3584
sbsg24
S'Huv'
p3585
sg26
g27
((lp3586
g29
ag30
aS'sequence'
p3587
ag32
ag33
aS'species'
p3588
atRp3589
sg37
(lp3590
sg121
g3562
sg122
S'-MITTKDLYSRLELSGINHNSHAMFIMPIGFGNPAGDMFPRLNNSFWLVPVSLEGAGTGWTVYYPLSHSSVSVDLVFHCLSSLLGAINFTNFL-SLFWLALLLLSLPVLVGTLLDRNFNLYEGGDPLYHLFWFFGHPEVYIIPAFGSMSAYSKFGMYASIGLGFVWVHHMFVGLDDRAYFTSATMIAPLGIKFSWLALIGGRPVLAFLVLFLGGTGVLNASDAFHDTYYVVHFHYVLSLGAFGIGYYYWPGLYNLFVVNFPMHYLGGMPRRSYPDSAWNTGASVQLGTDLLPEPH'
p3591
sg124
F3.9441199999999998
sg125
g126
sg33
S'135'
p3592
sg128
g1
(g129
g12
(dp3593
g131
I4
sg132
g133
sg134
g135
sg136
g133
sg137
I01
sg34
g138
sg139
g135
sg140
I0
sg141
I0
sg142
I0
sg143
g135
sg35
g144
sg145
I0
stRp3594
sg147
g148
sg149
F1
sg150
Nsg30
S'HuvarA'
p3595
sbag1
(g2
g3
NtRp3596
(dp3597
g6
g1
(g7
g3
NtRp3598
(dp3599
g10
g1
(g11
g12
(dtRp3600
sg14
g1
(g11
g12
(dtRp3601
sg16
g1
(g11
g12
(dtRp3602
sg18
g1
(g11
g12
(dtRp3603
sg20
g1
(g11
g12
(dtRp3604
sg22
g1
(g11
g12
(dtRp3605
sbsg24
g25
sg26
g27
((lp3606
g33
ag32
ag29
ag30
atRp3607
sg37
(lp3608
g1
(g2
g3
NtRp3609
(dp3610
g6
g1
(g7
g3
NtRp3611
(dp3612
g10
g1
(g11
g12
(dtRp3613
sg14
g1
(g11
g12
(dtRp3614
sg16
g1
(g11
g12
(dtRp3615
sg18
g1
(g11
g12
(dtRp3616
sg20
g1
(g11
g12
(dtRp3617
sg22
g1
(g11
g12
(dtRp3618
sbsg24
g25
sg26
g27
((lp3619
g33
ag32
ag29
ag30
atRp3620
sg37
(lp3621
g1
(g2
g3
NtRp3622
(dp3623
g6
g1
(g7
g3
NtRp3624
(dp3625
g10
g1
(g11
g12
(dtRp3626
sg14
g1
(g11
g12
(dtRp3627
sg16
g1
(g11
g12
(dtRp3628
sg18
g1
(g11
g12
(dtRp3629
sg20
g1
(g11
g12
(dtRp3630
sg22
g1
(g11
g12
(dtRp3631
sbsg24
g25
sg26
g27
((lp3632
g33
ag32
ag29
ag30
atRp3633
sg37
(lp3634
g1
(g2
g3
NtRp3635
(dp3636
g6
g1
(g7
g3
NtRp3637
(dp3638
g10
g1
(g11
g12
(dtRp3639
sg14
g1
(g11
g12
(dtRp3640
sg16
g1
(g11
g12
(dtRp3641
sg18
g1
(g11
g12
(dtRp3642
sg20
g1
(g11
g12
(dtRp3643
sg22
g1
(g11
g12
(dtRp3644
sbsg24
S'Sse'
p3645
sg26
g27
((lp3646
g29
ag30
aS'sequence'
p3647
ag32
ag33
aS'species'
p3648
atRp3649
sg37
(lp3650
sg121
g3622
sg122
S'RWLSTKDMYSRMELPGLNQNVHAMFAMPLGFGNPMGDMFPRINSGFWLPMLSLEGAGTGWTVYPPLSHSGPSVDLAFHLTSSLLGAINFTNMRGPLFWTALLLLSLPVLAGTLLDRNFNTFEGGDPFYHAFWFFGHPEVYIIPGFGSHSTYKKFGMYASIGLGFVWSHHMYVGLDDRAYFTSATMIAPTGIKFSWLALYGGRPMMAFLFLFTGGTGVLNASDAFHDTYYVVHFHYVLSMGAFSLGYYYWPGLYNLFWFNFPMHFLGGMPRRPYPDAGWNSGSSYQIGPDESNEPH'
p3651
sg124
F0.29805999999999999
sg125
g126
sg33
S'102'
p3652
sg128
g1
(g129
g12
(dp3653
g131
I4
sg132
g133
sg134
g135
sg136
g133
sg137
I01
sg34
g138
sg139
g135
sg140
I0
sg141
I0
sg142
I0
sg143
g135
sg35
g144
sg145
I0
stRp3654
sg147
g148
sg149
F1
sg150
Nsg30
S'SservA'
p3655
sbag1
(g2
g3
NtRp3656
(dp3657
g6
g1
(g7
g3
NtRp3658
(dp3659
g10
g1
(g11
g12
(dtRp3660
sg14
g1
(g11
g12
(dtRp3661
sg16
g1
(g11
g12
(dtRp3662
sg18
g1
(g11
g12
(dtRp3663
sg20
g1
(g11
g12
(dtRp3664
sg22
g1
(g11
g12
(dtRp3665
sbsg24
S'Sca'
p3666
sg26
g27
((lp3667
g29
ag30
aS'sequence'
p3668
ag32
ag33
aS'species'
p3669
atRp3670
sg37
(lp3671
sg121
g3622
sg122
S'RWLSTKDLYSRLELPGLNQNVHAMFVMPLGFGNPMGDTFPRINNGFWLPMLSLEGAGTGWTVYPPLAHSGPSVDLAFHMTSSLLGAINFTNMRGPLFWTALLLLTLPVLAGTLLDRNFNTFEGGDPLYHLFWFFGHPEVYIIPGFGSHSTYKKFGMYASIGLGLVWSHHMYVGLDDRAYFTSATMIAPTGIKFSWLATYGGRPMLAFLFLFTGGTGVLNASDAFHDLYYVVHFHYVLSMGAFSLGYYYWPGLYNLFWFNFPMHFLGGMPRRPYPDAGWNSGASYQLGPDESNEPH'
p3672
sg124
F0.30890000000000001
sg125
g126
sg33
S'153'
p3673
sg128
g1
(g129
g12
(dp3674
g131
I4
sg132
g133
sg134
g135
sg136
g133
sg137
I01
sg34
g138
sg139
g135
sg140
I0
sg141
I0
sg142
I0
sg143
g135
sg35
g144
sg145
I0
stRp3675
sg147
g148
sg149
F1
sg150
Nsg30
S'ScastA'
p3676
sbasg121
g3609
sg124
F0.072319999999999995
sg125
g126
sg33
S'221'
p3677
sg128
g1
(g129
g12
(dp3678
g131
I6
sg132
g133
sg134
g135
sg136
g133
sg137
I01
sg34
g175
sg139
g135
sg140
I0
sg141
I0
sg142
I0
sg143
g135
sg35
g176
sg145
I0
stRp3679
sg147
g148
sg149
F0.98999999999999999
sg150
Nsg30
S'NoName'
p3680
sbag1
(g2
g3
NtRp3681
(dp3682
g6
g1
(g7
g3
NtRp3683
(dp3684
g10
g1
(g11
g12
(dtRp3685
sg14
g1
(g11
g12
(dtRp3686
sg16
g1
(g11
g12
(dtRp3687
sg18
g1
(g11
g12
(dtRp3688
sg20
g1
(g11
g12
(dtRp3689
sg22
g1
(g11
g12
(dtRp3690
sbsg24
g25
sg26
g27
((lp3691
g33
ag32
ag29
ag30
atRp3692
sg37
(lp3693
g1
(g2
g3
NtRp3694
(dp3695
g6
g1
(g7
g3
NtRp3696
(dp3697
g10
g1
(g11
g12
(dtRp3698
sg14
g1
(g11
g12
(dtRp3699
sg16
g1
(g11
g12
(dtRp3700
sg18
g1
(g11
g12
(dtRp3701
sg20
g1
(g11
g12
(dtRp3702
sg22
g1
(g11
g12
(dtRp3703
sbsg24
S'Spa'
p3704
sg26
g27
((lp3705
g29
ag30
aS'sequence'
p3706
ag32
ag33
aS'species'
p3707
atRp3708
sg37
(lp3709
sg121
g3681
sg122
S'RWLSTKDLYSRLELPGLNQNVHAMFVMPLGFGNPMGDTFPRINNAFWLPMLSLEGAGTGWTVYPPLSHSGPSVDLAFHLTSSLLGAINFTNMRGPLFWTALLLLSLPVLAGTLLDRNFNTFEGGDPLYHLFWFFGHPEVYIIPGFGSHSTYKKFGMYASIGLGFVWSHHMYVGLDDRAYFLSATMIAPTGIKFSWLATYGGRPMLAFLFLFTGGTGVLNASDAFHDTYYVVHFHYVLSMGAFSLGYYYWPGLYNLFWFNFPMHFLGGMPRRPYPDAGWNSGSSYQLGPDESNEPH'
p3710
sg124
F0.029780000000000001
sg125
g126
sg33
S'128'
p3711
sg128
g1
(g129
g12
(dp3712
g131
I4
sg132
g133
sg134
g135
sg136
g133
sg137
I01
sg34
g138
sg139
g135
sg140
I0
sg141
I0
sg142
I0
sg143
g135
sg35
g144
sg145
I0
stRp3713
sg147
g148
sg149
F1
sg150
Nsg30
S'SpastA'
p3714
sbag1
(g2
g3
NtRp3715
(dp3716
g6
g1
(g7
g3
NtRp3717
(dp3718
g10
g1
(g11
g12
(dtRp3719
sg14
g1
(g11
g12
(dtRp3720
sg16
g1
(g11
g12
(dtRp3721
sg18
g1
(g11
g12
(dtRp3722
sg20
g1
(g11
g12
(dtRp3723
sg22
g1
(g11
g12
(dtRp3724
sbsg24
g25
sg26
g27
((lp3725
g33
ag32
ag29
ag30
atRp3726
sg37
(lp3727
g1
(g2
g3
NtRp3728
(dp3729
g6
g1
(g7
g3
NtRp3730
(dp3731
g10
g1
(g11
g12
(dtRp3732
sg14
g1
(g11
g12
(dtRp3733
sg16
g1
(g11
g12
(dtRp3734
sg18
g1
(g11
g12
(dtRp3735
sg20
g1
(g11
g12
(dtRp3736
sg22
g1
(g11
g12
(dtRp3737
sbsg24
g25
sg26
g27
((lp3738
g33
ag32
ag29
ag30
atRp3739
sg37
(lp3740
g1
(g2
g3
NtRp3741
(dp3742
g6
g1
(g7
g3
NtRp3743
(dp3744
g10
g1
(g11
g12
(dtRp3745
sg14
g1
(g11
g12
(dtRp3746
sg16
g1
(g11
g12
(dtRp3747
sg18
g1
(g11
g12
(dtRp3748
sg20
g1
(g11
g12
(dtRp3749
sg22
g1
(g11
g12
(dtRp3750
sbsg24
S'Sce'
p3751
sg26
g27
((lp3752
g29
ag30
aS'sequence'
p3753
ag32
ag33
aS'species'
p3754
atRp3755
sg37
(lp3756
sg121
g3728
sg122
S'RWLSTKDLYSRLELPGLNQNVHAMFVMPLGFGNPMGDTFPRINNAFWLPMLSLEGAGTGWTVYPPLSHSGPSVDLAFHLTSSLLGAINFTNMRGPLFWTALLLLSLPVLAGTLLDRNFNTFEGGDPLYHLFWFFGHPEVYIIPGFGSHSTYKKFGMYASIGLGFVWSHHMYVGLDDRAYFLSALMIAPTGIKFSWLALYGGRPMLAFLFLFTGGTGVLNASDAFHDTYYVVHFHYVLSMGAFSLGYYYWPGLYNLFWFNFPMHFLGGMPRRPYPDAGWNSGSSYQLGPDESNEPH'
p3757
sg124
F0.0038700000000000002
sg125
g126
sg33
S'32'
p3758
sg128
g1
(g129
g12
(dp3759
g131
I4
sg132
g133
sg134
g135
sg136
g133
sg137
I01
sg34
g138
sg139
g135
sg140
I0
sg141
I0
sg142
I0
sg143
g135
sg35
g144
sg145
I0
stRp3760
sg147
g148
sg149
F1
sg150
Nsg30
S'ScereD'
p3761
sbag1
(g2
g3
NtRp3762
(dp3763
g6
g1
(g7
g3
NtRp3764
(dp3765
g10
g1
(g11
g12
(dtRp3766
sg14
g1
(g11
g12
(dtRp3767
sg16
g1
(g11
g12
(dtRp3768
sg18
g1
(g11
g12
(dtRp3769
sg20
g1
(g11
g12
(dtRp3770
sg22
g1
(g11
g12
(dtRp3771
sbsg24
g25
sg26
g27
((lp3772
g33
ag32
ag29
ag30
atRp3773
sg37
(lp3774
g1
(g2
g3
NtRp3775
(dp3776
g6
g1
(g7
g3
NtRp3777
(dp3778
g10
g1
(g11
g12
(dtRp3779
sg14
g1
(g11
g12
(dtRp3780
sg16
g1
(g11
g12
(dtRp3781
sg18
g1
(g11
g12
(dtRp3782
sg20
g1
(g11
g12
(dtRp3783
sg22
g1
(g11
g12
(dtRp3784
sbsg24
S'Sce'
p3785
sg26
g27
((lp3786
g29
ag30
aS'sequence'
p3787
ag32
ag33
aS'species'
p3788
atRp3789
sg37
(lp3790
sg121
g3762
sg122
S'RWLSTKDLYSRLELPGLNQNVHAMFVMPLGFGNPMGDTFPRINNAFWLPMLSLEGAGTGWTVYPPLSHSGPSVDLAFHLTSSLLGAINFTNMRGPLFWTALLLLSLPVLAGTLLDRNFNTFEGGDPLYHLFWFFGHPEVYIIPGFGSHSTYKKFGMYASIGLGFVWSHHMYVGLDDRAYFLSALMIAPTGIKFSWLALYGGRPMLAFLFLFTGGTGVLNASDAFHDTYYVVHFHYVLSMGAFSLGYYYWPGLYNLFWFNFPMHFLGGMPRRPYPDAGWNSGSSYQLGPDESNEPH'
p3791
sg124
F0.0075900000000000004
sg125
g126
sg33
S'196'
p3792
sg128
g1
(g129
g12
(dp3793
g131
I4
sg132
g133
sg134
g135
sg136
g133
sg137
I01
sg34
g138
sg139
g135
sg140
I0
sg141
I0
sg142
I0
sg143
g135
sg35
g144
sg145
I0
stRp3794
sg147
g148
sg149
F1
sg150
Nsg30
S'ScereE'
p3795
sbag1
(g2
g3
NtRp3796
(dp3797
g6
g1
(g7
g3
NtRp3798
(dp3799
g10
g1
(g11
g12
(dtRp3800
sg14
g1
(g11
g12
(dtRp3801
sg16
g1
(g11
g12
(dtRp3802
sg18
g1
(g11
g12
(dtRp3803
sg20
g1
(g11
g12
(dtRp3804
sg22
g1
(g11
g12
(dtRp3805
sbsg24
g25
sg26
g27
((lp3806
g33
ag32
ag29
ag30
atRp3807
sg37
(lp3808
g1
(g2
g3
NtRp3809
(dp3810
g6
g1
(g7
g3
NtRp3811
(dp3812
g10
g1
(g11
g12
(dtRp3813
sg14
g1
(g11
g12
(dtRp3814
sg16
g1
(g11
g12
(dtRp3815
sg18
g1
(g11
g12
(dtRp3816
sg20
g1
(g11
g12
(dtRp3817
sg22
g1
(g11
g12
(dtRp3818
sbsg24
S'Sce'
p3819
sg26
g27
((lp3820
g29
ag30
aS'sequence'
p3821
ag32
ag33
aS'species'
p3822
atRp3823
sg37
(lp3824
sg121
g3796
sg122
S'RWLSTKDLYSRLELPGLNQNVHAMFVMPLGFGNPMGDTFPRINNAFWLPMLSLEGAGTGWTVYPPLSHSGPSVDLAFHLTSSLLGAINFTNMRGPLFWTALLLLSLPVLAGTLLDRNFNTFEGGDPLYHLFWFFGHPEVYIIPGFGSHSTYKKFGMYASIGLGFVWSHHMYVGLDDRAYFLSALMIAPTGIKFSWLALHGGRPMLAFLFLFTGGTGVLNASDAFHDTYYVVHFHYVLSMGAFSLGYYYWPGLYNLFWFNFPMHFLGGMPRRPYPDAGWNSGSSYQLGPDESNEPH'
p3825
sg124
F0.0053899999999999998
sg125
g126
sg33
S'181'
p3826
sg128
g1
(g129
g12
(dp3827
g131
I4
sg132
g133
sg134
g135
sg136
g133
sg137
I01
sg34
g138
sg139
g135
sg140
I0
sg141
I0
sg142
I0
sg143
g135
sg35
g144
sg145
I0
stRp3828
sg147
g148
sg149
F1
sg150
Nsg30
S'ScereC'
p3829
sbag1
(g2
g3
NtRp3830
(dp3831
g6
g1
(g7
g3
NtRp3832
(dp3833
g10
g1
(g11
g12
(dtRp3834
sg14
g1
(g11
g12
(dtRp3835
sg16
g1
(g11
g12
(dtRp3836
sg18
g1
(g11
g12
(dtRp3837
sg20
g1
(g11
g12
(dtRp3838
sg22
g1
(g11
g12
(dtRp3839
sbsg24
S'Sce'
p3840
sg26
g27
((lp3841
g29
ag30
aS'sequence'
p3842
ag32
ag33
aS'species'
p3843
atRp3844
sg37
(lp3845
sg121
g3796
sg122
S'RWLSTKDLYSRLELPGLNQNVHAMFVMPLGFGNPMGDTFPRINNAFWLPMLSLEGAGTGWTVYPPLSHSGPSVDLAFHLTSSLLGAINFTNMRGPLFWTALLLLSLPVLAGTLLDRNFNTFEGGDPLYHLFWFFGHPEVYIIPGFGSHSTYKKFGMYASIGLGFVWSHHMYVGLDDRAYFLSALMIAPTGIKFSWLALYGGRPMLAFLFLFTGGTGVLNASDAFHDTYYVVHFHYVLSMGAFSLGYYYWPGLYNLFWFNFPMHFLGGMPRRPYPDAGWNSGSSYQLGPDESNEPH'
p3846
sg124
F0.0066400000000000001
sg125
g126
sg33
S'7'
sg128
g1
(g129
g12
(dp3847
g131
I4
sg132
g133
sg134
g135
sg136
g133
sg137
I01
sg34
g138
sg139
g135
sg140
I0
sg141
I0
sg142
I0
sg143
g135
sg35
g144
sg145
I0
stRp3848
sg147
g148
sg149
F1
sg150
Nsg30
S'ScereA'
p3849
sbasg121
g3762
sg124
F0.00596
sg125
g126
sg33
S'2'
sg128
g1
(g129
g12
(dp3850
g131
I6
sg132
g133
sg134
g135
sg136
g133
sg137
I01
sg34
g175
sg139
g135
sg140
I0
sg141
I0
sg142
I0
sg143
g135
sg35
g176
sg145
I0
stRp3851
sg147
g148
sg149
F0.98999999999999999
sg150
Nsg30
S'NoName'
p3852
sbasg121
g3728
sg124
F0.0050600000000000003
sg125
g126
sg33
S'65'
p3853
sg128
g1
(g129
g12
(dp3854
g131
I6
sg132
g133
sg134
g135
sg136
g133
sg137
I01
sg34
g175
sg139
g135
sg140
I0
sg141
I0
sg142
I0
sg143
g135
sg35
g176
sg145
I0
stRp3855
sg147
g148
sg149
F0.66000000000000003
sg150
Nsg30
S'NoName'
p3856
sbasg121
g3715
sg124
F0.017850000000000001
sg125
g126
sg33
S'96'
p3857
sg128
g1
(g129
g12
(dp3858
g131
I6
sg132
g133
sg134
g135
sg136
g133
sg137
I01
sg34
g175
sg139
g135
sg140
I0
sg141
I0
sg142
I0
sg143
g135
sg35
g176
sg145
I0
stRp3859
sg147
g148
sg149
F0.89000000000000001
sg150
Nsg30
S'NoName'
p3860
sbag1
(g2
g3
NtRp3861
(dp3862
g6
g1
(g7
g3
NtRp3863
(dp3864
g10
g1
(g11
g12
(dtRp3865
sg14
g1
(g11
g12
(dtRp3866
sg16
g1
(g11
g12
(dtRp3867
sg18
g1
(g11
g12
(dtRp3868
sg20
g1
(g11
g12
(dtRp3869
sg22
g1
(g11
g12
(dtRp3870
sbsg24
S'Sar'
p3871
sg26
g27
((lp3872
g29
ag30
aS'sequence'
p3873
ag32
ag33
aS'species'
p3874
atRp3875
sg37
(lp3876
sg121
g3715
sg122
S'RWLSTKDLYSRLELPGLNQNVHAMFVMPLGFGNPMGDTFPRINNAFWLPMLSLEGAGTGWTVYPPLSHSGPSVDLAFHLTSSLLGAINFTNMRGPLFWTALLLLSLPVLAGTLLDRNFNTFEGGDPLYHLFWFFGHPEVYIIPGFGSHSTYKKFGMYASIGLGFVWSHHMYVGLDDRAYFLSALMIAPTGIKFSWLALYGGRPMLAFLFLFTGGTGVLNASDAFHDTYYVVHFHYVLSMGAFSLGYYYWPGLYNLFWFNFPMHFLGGMPRRPYPDAGWNSGSSYQLGPDESNEPH'
p3877
sg124
F0.047230000000000001
sg125
g126
sg33
S'60'
p3878
sg128
g1
(g129
g12
(dp3879
g131
I4
sg132
g133
sg134
g135
sg136
g133
sg137
I01
sg34
g138
sg139
g135
sg140
I0
sg141
I0
sg142
I0
sg143
g135
sg35
g144
sg145
I0
stRp3880
sg147
g148
sg149
F1
sg150
Nsg30
S'SarboA'
p3881
sbasg121
g3681
sg124
F0.023619999999999999
sg125
g126
sg33
S'160'
p3882
sg128
g1
(g129
g12
(dp3883
g131
I6
sg132
g133
sg134
g135
sg136
g133
sg137
I01
sg34
g175
sg139
g135
sg140
I0
sg141
I0
sg142
I0
sg143
g135
sg35
g176
sg145
I0
stRp3884
sg147
g148
sg149
F0.92000000000000004
sg150
Nsg30
S'NoName'
p3885
sbasg121
g3609
sg124
F0.18547
sg125
g126
sg33
S'48'
p3886
sg128
g1
(g129
g12
(dp3887
g131
I6
sg132
g133
sg134
g135
sg136
g133
sg137
I01
sg34
g175
sg139
g135
sg140
I0
sg141
I0
sg142
I0
sg143
g135
sg35
g176
sg145
I0
stRp3888
sg147
g148
sg149
F0.98999999999999999
sg150
Nsg30
S'NoName'
p3889
sbasg121
g3596
sg124
F0.03594
sg125
g126
sg33
S'170'
p3890
sg128
g1
(g129
g12
(dp3891
g131
I6
sg132
g133
sg134
g135
sg136
g133
sg137
I01
sg34
g175
sg139
g135
sg140
I0
sg141
I0
sg142
I0
sg143
g135
sg35
g176
sg145
I0
stRp3892
sg147
g148
sg149
F0.98999999999999999
sg150
Nsg30
S'NoName'
p3893
sbag1
(g2
g3
NtRp3894
(dp3895
g6
g1
(g7
g3
NtRp3896
(dp3897
g10
g1
(g11
g12
(dtRp3898
sg14
g1
(g11
g12
(dtRp3899
sg16
g1
(g11
g12
(dtRp3900
sg18
g1
(g11
g12
(dtRp3901
sg20
g1
(g11
g12
(dtRp3902
sg22
g1
(g11
g12
(dtRp3903
sbsg24
g25
sg26
g27
((lp3904
g33
ag32
ag29
ag30
atRp3905
sg37
(lp3906
g1
(g2
g3
NtRp3907
(dp3908
g6
g1
(g7
g3
NtRp3909
(dp3910
g10
g1
(g11
g12
(dtRp3911
sg14
g1
(g11
g12
(dtRp3912
sg16
g1
(g11
g12
(dtRp3913
sg18
g1
(g11
g12
(dtRp3914
sg20
g1
(g11
g12
(dtRp3915
sg22
g1
(g11
g12
(dtRp3916
sbsg24
g25
sg26
g27
((lp3917
g33
ag32
ag29
ag30
atRp3918
sg37
(lp3919
g1
(g2
g3
NtRp3920
(dp3921
g6
g1
(g7
g3
NtRp3922
(dp3923
g10
g1
(g11
g12
(dtRp3924
sg14
g1
(g11
g12
(dtRp3925
sg16
g1
(g11
g12
(dtRp3926
sg18
g1
(g11
g12
(dtRp3927
sg20
g1
(g11
g12
(dtRp3928
sg22
g1
(g11
g12
(dtRp3929
sbsg24
S'Nde'
p3930
sg26
g27
((lp3931
g29
ag30
aS'sequence'
p3932
ag32
ag33
aS'species'
p3933
atRp3934
sg37
(lp3935
sg121
g3907
sg122
S'RWLSTKDLYSRLELPGLNQNVHAMFVMPLGFGNPMGDMFPRLNNGFWIVPLSLEGAGTGWTVYPPLSHSGPSVDLAFHMTSSLLGAINFTNMRGPLFWTALLLLSLPVFAGTLLDRNFNTFEGGDPLYHLFWFFGHPEVYIIPGFGSHSTYKKFGMYASIGLGFVWSHHMYVGLDDRAYFTSATMIAPTGIKFSWLATYGGRPMLAFLFLFTGGTGVLNASDAFHDTYYVVHFHYVLSMGAFSTGYYYWPGLYNLFWFNFPMHFLGGMPRRPYPDAGWNSGSSYQFGPDESNEPH'
p3936
sg124
F0.063509999999999997
sg125
g126
sg33
S'218'
p3937
sg128
g1
(g129
g12
(dp3938
g131
I4
sg132
g133
sg134
g135
sg136
g133
sg137
I01
sg34
g138
sg139
g135
sg140
I0
sg141
I0
sg142
I0
sg143
g135
sg35
g144
sg145
I0
stRp3939
sg147
g148
sg149
F1
sg150
Nsg30
S'NdelpA'
p3940
sbag1
(g2
g3
NtRp3941
(dp3942
g6
g1
(g7
g3
NtRp3943
(dp3944
g10
g1
(g11
g12
(dtRp3945
sg14
g1
(g11
g12
(dtRp3946
sg16
g1
(g11
g12
(dtRp3947
sg18
g1
(g11
g12
(dtRp3948
sg20
g1
(g11
g12
(dtRp3949
sg22
g1
(g11
g12
(dtRp3950
sbsg24
S'Cgl'
p3951
sg26
g27
((lp3952
g29
ag30
aS'sequence'
p3953
ag32
ag33
aS'species'
p3954
atRp3955
sg37
(lp3956
sg121
g3907
sg122
S'RWLSTKDLYSRLELPGLNQNVHAMFVMPLGFGNPMGDMFPRLNNGFWIVPLSLEGAGTGWTVYPPLSHSGPSVDLAFHLTSSLLGSINFTNMRGPLFWTALLLLSLPVLAGTLLDRNFNTFEGGDPLYHLFWFFGHPEVYIIPGFGSHSTYKKFGMYASIGLGFVWSHHMYVGLDDRAYFTSATMIAPTGIKFSWLATYGGRPMLAFLFLFTGGTGVLNASDAFHDTYYVVHFHYVLSMGAFSTGYYYWPGLYNLFWFNFPMHFLGGMPRRPYPDAGWNSGSSYQFGPDESNEPH'
p3957
sg124
F0.03882
sg125
g126
sg33
S'45'
p3958
sg128
g1
(g129
g12
(dp3959
g131
I4
sg132
g133
sg134
g135
sg136
g133
sg137
I01
sg34
g138
sg139
g135
sg140
I0
sg141
I0
sg142
I0
sg143
g135
sg35
g144
sg145
I0
stRp3960
sg147
g148
sg149
F1
sg150
Nsg30
S'CglabA'
p3961
sbasg121
g3894
sg124
F0.16661999999999999
sg125
g126
sg33
S'114'
p3962
sg128
g1
(g129
g12
(dp3963
g131
I6
sg132
g133
sg134
g135
sg136
g133
sg137
I01
sg34
g175
sg139
g135
sg140
I0
sg141
I0
sg142
I0
sg143
g135
sg35
g176
sg145
I0
stRp3964
sg147
g148
sg149
F0.98999999999999999
sg150
Nsg30
S'NoName'
p3965
sbag1
(g2
g3
NtRp3966
(dp3967
g6
g1
(g7
g3
NtRp3968
(dp3969
g10
g1
(g11
g12
(dtRp3970
sg14
g1
(g11
g12
(dtRp3971
sg16
g1
(g11
g12
(dtRp3972
sg18
g1
(g11
g12
(dtRp3973
sg20
g1
(g11
g12
(dtRp3974
sg22
g1
(g11
g12
(dtRp3975
sbsg24
g25
sg26
g27
((lp3976
g33
ag32
ag29
ag30
atRp3977
sg37
(lp3978
g1
(g2
g3
NtRp3979
(dp3980
g6
g1
(g7
g3
NtRp3981
(dp3982
g10
g1
(g11
g12
(dtRp3983
sg14
g1
(g11
g12
(dtRp3984
sg16
g1
(g11
g12
(dtRp3985
sg18
g1
(g11
g12
(dtRp3986
sg20
g1
(g11
g12
(dtRp3987
sg22
g1
(g11
g12
(dtRp3988
sbsg24
S'Nba'
p3989
sg26
g27
((lp3990
g29
ag30
aS'sequence'
p3991
ag32
ag33
aS'species'
p3992
atRp3993
sg37
(lp3994
sg121
g3966
sg122
S'RWLSTKDLYSRMELPGLNQNVHAMFVMPLGFGNPMGDMFPRLNNGFWMPALSLEGAGTGWTVYPPLSHSGPSVDLAFHLSSSLLGAINFTNMRGPLFWTALLLFSLPVFAGTLLDRNFNTFEGGDPLYHLFWFFGHPEVYIIPGFGSHSTYKKFGMYASIGLGFVWSHHMYVGLDDRAYFTSATMIAPTGIKFSWLALYGGRPMLAFLFLFTGGTGVLNASDAFHDTYYVVHFHYVLSMGAFSVAYYYWPGLYNLFWFNFPMHFLGGMPRRPYPDAGWNSGSSYQLGPDESNEPH'
p3995
sg124
F0.29926999999999998
sg125
g126
sg33
S'150'
p3996
sg128
g1
(g129
g12
(dp3997
g131
I4
sg132
g133
sg134
g135
sg136
g133
sg137
I01
sg34
g138
sg139
g135
sg140
I0
sg141
I0
sg142
I0
sg143
g135
sg35
g144
sg145
I0
stRp3998
sg147
g148
sg149
F1
sg150
Nsg30
S'NbaciA'
p3999
sbag1
(g2
g3
NtRp4000
(dp4001
g6
g1
(g7
g3
NtRp4002
(dp4003
g10
g1
(g11
g12
(dtRp4004
sg14
g1
(g11
g12
(dtRp4005
sg16
g1
(g11
g12
(dtRp4006
sg18
g1
(g11
g12
(dtRp4007
sg20
g1
(g11
g12
(dtRp4008
sg22
g1
(g11
g12
(dtRp4009
sbsg24
S'Cca'
p4010
sg26
g27
((lp4011
g29
ag30
aS'sequence'
p4012
ag32
ag33
aS'species'
p4013
atRp4014
sg37
(lp4015
sg121
g3966
sg122
S'RWLSTKDLYSRLELPGLNQNVHAMFVMPLGIGNPMGDTFPRLNNGFWLPPLSLEGAGTGWTVYPPLSHSGPSVDLAFHLTSSLLGAINFTNMRGPLFWTALLLFSLPVFAGTLLDRNFNTFEGGDPLYHVFWFFGHPEVYIIPGFGSHSTYKKFGMYASIGLGFVWSHHMYVGLDDRAYFTSALMIAPTGIKFSWLATFGGRPMLAFLFLFTGGTGVLNASDAFHDTYYVVHFHYVLSMGAFSLGYYYWPGLYNLFWFNFPMHFLGGMPRRPYPDAGWNSGSSYQLGPDESNEPH'
p4016
sg124
F0.26266
sg125
g126
sg33
S'205'
p4017
sg128
g1
(g129
g12
(dp4018
g131
I4
sg132
g133
sg134
g135
sg136
g133
sg137
I01
sg34
g138
sg139
g135
sg140
I0
sg141
I0
sg142
I0
sg143
g135
sg35
g144
sg145
I0
stRp4019
sg147
g148
sg149
F1
sg150
Nsg30
S'CcastA'
p4020
sbasg121
g3894
sg124
F0.15296999999999999
sg125
g126
sg33
S'167'
p4021
sg128
g1
(g129
g12
(dp4022
g131
I6
sg132
g133
sg134
g135
sg136
g133
sg137
I01
sg34
g175
sg139
g135
sg140
I0
sg141
I0
sg142
I0
sg143
g135
sg35
g176
sg145
I0
stRp4023
sg147
g148
sg149
F0.98999999999999999
sg150
Nsg30
S'NoName'
p4024
sbasg121
g3596
sg124
F0.042560000000000001
sg125
g126
sg33
S'164'
p4025
sg128
g1
(g129
g12
(dp4026
g131
I6
sg132
g133
sg134
g135
sg136
g133
sg137
I01
sg34
g175
sg139
g135
sg140
I0
sg141
I0
sg142
I0
sg143
g135
sg35
g176
sg145
I0
stRp4027
sg147
g148
sg149
F0.84999999999999998
sg150
Nsg30
S'NoName'
p4028
sbasg121
g3562
sg124
F0.094020000000000006
sg125
g126
sg33
S'125'
p4029
sg128
g1
(g129
g12
(dp4030
g131
I6
sg132
g133
sg134
g135
sg136
g133
sg137
I01
sg34
g175
sg139
g135
sg140
I0
sg141
I0
sg142
I0
sg143
g135
sg35
g176
sg145
I0
stRp4031
sg147
g148
sg149
F0.55000000000000004
sg150
Nsg30
S'NoName'
p4032
sbasg121
g3035
sg124
F0.11952
sg125
g126
sg33
S'93'
p4033
sg128
g1
(g129
g12
(dp4034
g131
I6
sg132
g133
sg134
g135
sg136
g133
sg137
I01
sg34
g175
sg139
g135
sg140
I0
sg141
I0
sg142
I0
sg143
g135
sg35
g176
sg145
I0
stRp4035
sg147
g148
sg149
F0.69999999999999996
sg150
Nsg30
S'NoName'
p4036
sbasg121
g3022
sg124
F0.029839999999999998
sg125
g126
sg33
S'43'
p4037
sg128
g1
(g129
g12
(dp4038
g131
I6
sg132
g133
sg134
g135
sg136
g133
sg137
I01
sg34
g175
sg139
g135
sg140
I0
sg141
I0
sg142
I0
sg143
g135
sg35
g176
sg145
I0
stRp4039
sg147
g148
sg149
F0.82999999999999996
sg150
Nsg30
S'NoName'
p4040
sbag1
(g2
g3
NtRp4041
(dp4042
g6
g1
(g7
g3
NtRp4043
(dp4044
g10
g1
(g11
g12
(dtRp4045
sg14
g1
(g11
g12
(dtRp4046
sg16
g1
(g11
g12
(dtRp4047
sg18
g1
(g11
g12
(dtRp4048
sg20
g1
(g11
g12
(dtRp4049
sg22
g1
(g11
g12
(dtRp4050
sbsg24
g25
sg26
g27
((lp4051
g33
ag32
ag29
ag30
atRp4052
sg37
(lp4053
g1
(g2
g3
NtRp4054
(dp4055
g6
g1
(g7
g3
NtRp4056
(dp4057
g10
g1
(g11
g12
(dtRp4058
sg14
g1
(g11
g12
(dtRp4059
sg16
g1
(g11
g12
(dtRp4060
sg18
g1
(g11
g12
(dtRp4061
sg20
g1
(g11
g12
(dtRp4062
sg22
g1
(g11
g12
(dtRp4063
sbsg24
S'Aac'
p4064
sg26
g27
((lp4065
g29
ag30
aS'sequence'
p4066
ag32
ag33
aS'species'
p4067
atRp4068
sg37
(lp4069
sg121
g4041
sg122
S'RWLSTKDLYSRMELPGLQQNVHLMFVMPLGFGNPMGDMFARLNNSFWLPPLSMEGLGTGWTVYPPLAHSGASVDLAFHLTSSLLGLINFTNMRGPLFWTAMLLMSLPVLAGTLLDRNFNTFEGGDPLYHLFWFFGHPEVYIIPLFGSHSTYKKFGMYASIGLGFVWSHHMYVGLDDRAYFTSLTMILPTSIKFSWLLTYGGRPMLAFLFLFTGGTGVLNLSDLFHDTYYVVHFHYVLSLGAFSMGYYYWPGLYNLFWFNFPMHFLGGMPRRPYPDLGWNSGSSYQLGPDESNEPH'
p4070
sg124
F0.028920000000000001
sg125
g126
sg33
S'84'
p4071
sg128
g1
(g129
g12
(dp4072
g131
I4
sg132
g133
sg134
g135
sg136
g133
sg137
I01
sg34
g138
sg139
g135
sg140
I0
sg141
I0
sg142
I0
sg143
g135
sg35
g144
sg145
I0
stRp4073
sg147
g148
sg149
F1
sg150
Nsg30
S'AacerA'
p4074
sbag1
(g2
g3
NtRp4075
(dp4076
g6
g1
(g7
g3
NtRp4077
(dp4078
g10
g1
(g11
g12
(dtRp4079
sg14
g1
(g11
g12
(dtRp4080
sg16
g1
(g11
g12
(dtRp4081
sg18
g1
(g11
g12
(dtRp4082
sg20
g1
(g11
g12
(dtRp4083
sg22
g1
(g11
g12
(dtRp4084
sbsg24
g25
sg26
g27
((lp4085
g33
ag32
ag29
ag30
atRp4086
sg37
(lp4087
g1
(g2
g3
NtRp4088
(dp4089
g6
g1
(g7
g3
NtRp4090
(dp4091
g10
g1
(g11
g12
(dtRp4092
sg14
g1
(g11
g12
(dtRp4093
sg16
g1
(g11
g12
(dtRp4094
sg18
g1
(g11
g12
(dtRp4095
sg20
g1
(g11
g12
(dtRp4096
sg22
g1
(g11
g12
(dtRp4097
sbsg24
S'Ago'
p4098
sg26
g27
((lp4099
g29
ag30
aS'sequence'
p4100
ag32
ag33
aS'species'
p4101
atRp4102
sg37
(lp4103
sg121
g4075
sg122
S'RWLSTKDLYSRMELPGLQQNVHLMFVMPLGFGNPMGDMFARLNNSFWLPPLSMEGLGTGWTVYPPLSHSGASVDLAFHLTSSLLGLINFTNMRGPLFWTAMLLMSLPVLAGTLLDRNFNTFEGGDPLYHLFWFFGHPEVYIIPLFGSHSTYKKFGMYLSISLGFVWSHHMYVGLDDRAYFTSATMILPTSIKFSWLLTYGGRPMLLFLFLFTGGTGVLNLSDAFHDTYYVVHFHYVLSLGAFSMGYYYWPGLYNLFWFNFPMHFLGGMPRRPYPDLGWNSGSSYQLGPDESNEPH'
p4104
sg124
F0.00088000000000000003
sg125
g126
sg33
S'191'
p4105
sg128
g1
(g129
g12
(dp4106
g131
I4
sg132
g133
sg134
g135
sg136
g133
sg137
I01
sg34
g138
sg139
g135
sg140
I0
sg141
I0
sg142
I0
sg143
g135
sg35
g144
sg145
I0
stRp4107
sg147
g148
sg149
F1
sg150
Nsg30
S'AgossB'
p4108
sbag1
(g2
g3
NtRp4109
(dp4110
g6
g1
(g7
g3
NtRp4111
(dp4112
g10
g1
(g11
g12
(dtRp4113
sg14
g1
(g11
g12
(dtRp4114
sg16
g1
(g11
g12
(dtRp4115
sg18
g1
(g11
g12
(dtRp4116
sg20
g1
(g11
g12
(dtRp4117
sg22
g1
(g11
g12
(dtRp4118
sbsg24
S'Ago'
p4119
sg26
g27
((lp4120
g29
ag30
aS'sequence'
p4121
ag32
ag33
aS'species'
p4122
atRp4123
sg37
(lp4124
sg121
g4075
sg122
S'RWLSTKDLYSRMELPGLQQNVHLMFVMPLGFGNPMGDMFARLNNSFWLPPLSMEGLGTGWTVYPPLSHSGASVDLAFHLTSSLLGLINFTNMRGPLFWTAMLLMSLPVLAGTLLDRNFNTFEGGDPLYHLFWFFGHPEVYIIPLFGSHSTYKKFGMYLSISLGFVWSHHMYVGLDDRAYFTSATMILPTSIKFSWLLTYGGRPMLLFLFLFTGGTGVLNLSDAFHDTYYVVHFHYVLSLGAFSMGYYYWPGLYNLFWFNFPMHFLGGMPRRPYPDLGWNSGSSYQLGPDESNEPH'
p4125
sg124
F0.0023999999999999998
sg125
g126
sg33
S'17'
p4126
sg128
g1
(g129
g12
(dp4127
g131
I4
sg132
g133
sg134
g135
sg136
g133
sg137
I01
sg34
g138
sg139
g135
sg140
I0
sg141
I0
sg142
I0
sg143
g135
sg35
g144
sg145
I0
stRp4128
sg147
g148
sg149
F1
sg150
Nsg30
S'AgossA'
p4129
sbasg121
g4041
sg124
F0.075329999999999994
sg125
g126
sg33
S'30'
p4130
sg128
g1
(g129
g12
(dp4131
g131
I6
sg132
g133
sg134
g135
sg136
g133
sg137
I01
sg34
g175
sg139
g135
sg140
I0
sg141
I0
sg142
I0
sg143
g135
sg35
g176
sg145
I0
stRp4132
sg147
g148
sg149
F0.98999999999999999
sg150
Nsg30
S'NoName'
p4133
sbasg121
g3022
sg124
F0.56830999999999998
sg125
g126
sg33
S'99'
p4134
sg128
g1
(g129
g12
(dp4135
g131
I6
sg132
g133
sg134
g135
sg136
g133
sg137
I01
sg34
g175
sg139
g135
sg140
I0
sg141
I0
sg142
I0
sg143
g135
sg35
g176
sg145
I0
stRp4136
sg147
g148
sg149
F0.98999999999999999
sg150
Nsg30
S'NoName'
p4137
sbasg31
I25
sg121
g2684
sg124
F0.14305999999999999
sg125
g126
sg33
S'12'
p4138
sg34
g844
sg128
g1
(g129
g12
(dp4139
g131
I6
sg132
g133
sg134
g135
sg136
g133
sg137
I01
sg34
g175
sg139
g135
sg140
I0
sg141
I0
sg142
I0
sg143
g135
sg35
g176
sg145
I0
stRp4140
sg147
g148
sg149
F0.96999999999999997
sg150
Nsg35
g847
sg30
S'NoName'
p4141
sbasg121
g2499
sg124
F0.26834000000000002
sg125
g126
sg33
S'25'
p4142
sg128
g1
(g129
g12
(dp4143
g131
I6
sg132
g133
sg134
g135
sg136
g133
sg137
I01
sg34
g175
sg139
g135
sg140
I0
sg141
I0
sg142
I0
sg143
g135
sg35
g176
sg145
I0
stRp4144
sg147
g148
sg149
F0.97999999999999998
sg150
Nsg30
S'NoName'
p4145
sbasg121
g677
sg124
F0.062890000000000001
sg125
g126
sg33
S'145'
p4146
sg128
g1
(g129
g12
(dp4147
g131
I6
sg132
g133
sg134
g135
sg136
g133
sg137
I01
sg34
g175
sg139
g135
sg140
I0
sg141
I0
sg142
I0
sg143
g135
sg35
g176
sg145
I0
stRp4148
sg147
g148
sg149
F0.67000000000000004
sg150
Nsg30
S'NoName'
p4149
sbasg121
g267
sg124
F0.52025999999999994
sg125
g126
sg33
S'3'
sg128
g1
(g129
g12
(dp4150
g131
I6
sg132
g133
sg134
g135
sg136
g133
sg137
I01
sg34
g175
sg139
g135
sg140
I0
sg141
I0
sg142
I0
sg143
g135
sg35
g176
sg145
I0
stRp4151
sg147
g148
sg149
F0.97999999999999998
sg150
Nsg30
S'NoName'
p4152
sbasg121
g53
sg124
F0.11274000000000001
sg125
g126
sg33
S'188'
p4153
sg128
g1
(g129
g12
(dp4154
g131
I6
sg132
g133
sg134
g135
sg136
g133
sg137
I01
sg34
g175
sg139
g135
sg140
I0
sg141
I0
sg142
I0
sg143
g135
sg35
g176
sg145
I0
stRp4155
sg147
g148
sg149
F0.88
sg150
Nsg30
S'NoName'
p4156
sbasg31
I25
sg121
g39
sg124
F0.33485999999999999
sg125
g126
sg33
S'177'
p4157
sg34
g844
sg128
g1
(g129
g12
(dp4158
g131
I6
sg132
g133
sg134
g135
sg136
g133
sg137
I01
sg34
g175
sg139
g135
sg140
I0
sg141
I0
sg142
I0
sg143
g135
sg35
g176
sg145
I0
stRp4159
sg147
g148
sg149
F0.95999999999999996
sg150
Nsg35
g847
sg30
S'NoName'
p4160
sbag1
(g2
g3
NtRp4161
(dp4162
g6
g1
(g7
g3
NtRp4163
(dp4164
g10
g1
(g11
g12
(dtRp4165
sg14
g1
(g11
g12
(dtRp4166
sg16
g1
(g11
g12
(dtRp4167
sg18
g1
(g11
g12
(dtRp4168
sg20
g1
(g11
g12
(dtRp4169
sg22
g1
(g11
g12
(dtRp4170
sbsg24
S'Lst'
p4171
sg26
g27
((lp4172
g29
ag30
aS'sequence'
p4173
ag32
ag33
aS'species'
p4174
atRp4175
sg37
(lp4176
sg121
g39
sg122
S'RWLSTKDLYSRMELPGLNHNVHAMFVMPLGFGNPLGDMFPRLNNSFWLPPLSFEGAGTGWTVYPPLSHSGASVDLAFHLSSSMLGAMNFTNMRGPLFWTALLLLSLPVLGATLLDRNFNTFEGGDPLYHLFWFFGHPEVYIIPGFGSHCTYEKFGMYASMGLGFVWSHHMFVGLDERAYFTAATMIAPTGMKFSWLATYGGTPMVAFLFLFTGGTGVLNASDAFHDTYYVVHFHYVLSMGAFALGYYYWPGLYKYFWFNFPMHFLGGMPRRPYPDAGWNSGSAIQLGPQATKEPH'
p4177
sg124
F1.13117
sg125
g126
sg33
S'71'
p4178
sg128
g1
(g129
g12
(dp4179
g131
I4
sg132
g133
sg134
g135
sg136
g133
sg137
I01
sg34
g138
sg139
g135
sg140
I0
sg141
I0
sg142
I0
sg143
g135
sg35
g144
sg145
I0
stRp4180
sg147
g148
sg149
F1
sg150
Nsg30
S'LstarA'
p4181
sbasg31
I25
sg121
g4
sg124
F0.46844999999999998
sg125
g126
sg33
S'175'
p4182
sg34
g844
sg128
g1
(g129
g12
(dp4183
g131
I6
sg132
g133
sg134
g135
sg136
g133
sg137
I01
sg34
g175
sg139
g135
sg140
I0
sg141
I0
sg142
I0
sg143
g135
sg35
g176
sg145
I0
stRp4184
sg147
g148
sg149
F1
sg150
Nsg35
g847
sg30
S'NoName'
p4185
sbag1
(g2
g3
NtRp4186
(dp4187
g6
g1
(g7
g3
NtRp4188
(dp4189
g10
g1
(g11
g12
(dtRp4190
sg14
g1
(g11
g12
(dtRp4191
sg16
g1
(g11
g12
(dtRp4192
sg18
g1
(g11
g12
(dtRp4193
sg20
g1
(g11
g12
(dtRp4194
sg22
g1
(g11
g12
(dtRp4195
sbsg24
g25
sg26
g27
((lp4196
g30
ag32
ag33
ag29
atRp4197
sg37
(lp4198
g1
(g2
g3
NtRp4199
(dp4200
g6
g1
(g7
g3
NtRp4201
(dp4202
g10
g1
(g11
g12
(dtRp4203
sg14
g1
(g11
g12
(dtRp4204
sg16
g1
(g11
g12
(dtRp4205
sg18
g1
(g11
g12
(dtRp4206
sg20
g1
(g11
g12
(dtRp4207
sg22
g1
(g11
g12
(dtRp4208
sbsg24
S'Sja'
p4209
sg26
g27
((lp4210
g29
ag30
aS'sequence'
p4211
ag32
ag33
aS'species'
p4212
atRp4213
sg37
(lp4214
sg121
g4186
sg122
S'RWLSTKDLYSRLELPGLNQNVHGMFILPLGFGNPLGDVYPRMNNSFWLPPLSLEGPGVGWTMYYPLSHSGLSVDLLMQLTSSTLGSINLTNMRGPLFWTSLLVLTLPVLGGILLDRNWNTFAGGDPLYHLFWFFGHPEVYIIPAFGSHSTFHKFGMYASIALGCVWSHHLYVGLDDRAYFTAATMIAPTGIKFSWLATSGGEPMLVFLILFTGGTGVLNSVDAFHDTYFVVHFHYVLSMGAMGLAYYFWPGLYNMFWFNFPQHFLGNYPRRPYPDAGWNSGSSYQFNPNDSNEPH'
p4215
sg124
F1.0686599999999999
sg125
g126
sg33
S'53'
p4216
sg128
g1
(g129
g12
(dp4217
g131
I4
sg132
g133
sg134
g135
sg136
g133
sg137
I01
sg34
g138
sg139
g135
sg140
I0
sg141
I0
sg142
I0
sg143
g135
sg35
g144
sg145
I0
stRp4218
sg147
g148
sg149
F1
sg150
Nsg30
S'SjapoA'
p4219
sbag1
(g2
g3
NtRp4220
(dp4221
g6
g1
(g7
g3
NtRp4222
(dp4223
g10
g1
(g11
g12
(dtRp4224
sg14
g1
(g11
g12
(dtRp4225
sg16
g1
(g11
g12
(dtRp4226
sg18
g1
(g11
g12
(dtRp4227
sg20
g1
(g11
g12
(dtRp4228
sg22
g1
(g11
g12
(dtRp4229
sbsg24
g25
sg26
g27
((lp4230
g33
ag32
ag29
ag30
atRp4231
sg37
(lp4232
g1
(g2
g3
NtRp4233
(dp4234
g6
g1
(g7
g3
NtRp4235
(dp4236
g10
g1
(g11
g12
(dtRp4237
sg14
g1
(g11
g12
(dtRp4238
sg16
g1
(g11
g12
(dtRp4239
sg18
g1
(g11
g12
(dtRp4240
sg20
g1
(g11
g12
(dtRp4241
sg22
g1
(g11
g12
(dtRp4242
sbsg24
S'Spo'
p4243
sg26
g27
((lp4244
g29
ag30
aS'sequence'
p4245
ag32
ag33
aS'species'
p4246
atRp4247
sg37
(lp4248
sg121
g4220
sg122
S'RWMSTKDLYSRMELPGLNQNVHGMFIIPLGFGNPMGDVYPRVNNTFWLPPLSLEGPGGGWTVYPPLSHSGPAIDLALQLTSSTLGSVNLTNMRGPLFWTSLLLLTLPVLGGFLFDRNLNTFAGGDPLYHLFWFFGHPEVYIIPAFGSHPSLHKFGMWASIALGLVWSHHLFVGLDDRAYFSAATMIAPTGIKFSWLATTGGQPMLAFLILFTGGTGVLNSVDAFHDTYFVVHFHYVLSMGAFGLAYY-WPGLYNLFWFNFPQHFLGGMPRRPYPEAGWNSGSSYQFNPSDDNEPH'
p4249
sg124
F0.12372
sg125
g126
sg33
S'158'
p4250
sg128
g1
(g129
g12
(dp4251
g131
I4
sg132
g133
sg134
g135
sg136
g133
sg137
I01
sg34
g138
sg139
g135
sg140
I0
sg141
I0
sg142
I0
sg143
g135
sg35
g144
sg145
I0
stRp4252
sg147
g148
sg149
F1
sg150
Nsg30
S'SpombA'
p4253
sbag1
(g2
g3
NtRp4254
(dp4255
g6
g1
(g7
g3
NtRp4256
(dp4257
g10
g1
(g11
g12
(dtRp4258
sg14
g1
(g11
g12
(dtRp4259
sg16
g1
(g11
g12
(dtRp4260
sg18
g1
(g11
g12
(dtRp4261
sg20
g1
(g11
g12
(dtRp4262
sg22
g1
(g11
g12
(dtRp4263
sbsg24
g25
sg26
g27
((lp4264
g33
ag32
ag29
ag30
atRp4265
sg37
(lp4266
g1
(g2
g3
NtRp4267
(dp4268
g6
g1
(g7
g3
NtRp4269
(dp4270
g10
g1
(g11
g12
(dtRp4271
sg14
g1
(g11
g12
(dtRp4272
sg16
g1
(g11
g12
(dtRp4273
sg18
g1
(g11
g12
(dtRp4274
sg20
g1
(g11
g12
(dtRp4275
sg22
g1
(g11
g12
(dtRp4276
sbsg24
S'Soc'
p4277
sg26
g27
((lp4278
g29
ag30
aS'sequence'
p4279
ag32
ag33
aS'species'
p4280
atRp4281
sg37
(lp4282
sg121
g4254
sg122
S'RWLSTKDLYSRMELPGLNQNVHGMFIIPLGFGNPMGDVYPRVNNTFWLPPLSLEGPGTGWTVYPPLSHSGPAVDLALQLTSSTLGSLNLTNMRGPLFWTSLLLLTLPVLGGFLFDRNLNTFAGGDPLYHLFWFFGHPEVYIIPAFGSHSTLNKFGMCASIALGLVWSHHLFVGLDDRAYFSAATMIAPTGIKFSWLATTGGQPMLAFLILFTGGTGVLNSVDAFHDTYFVVHFHYVLSMGAFGLAYYFWPGLYNLFWFNFPQHFLGGMPRRPYPDAGWNSGSSYQYNPSDDNEPH'
p4283
sg124
F0.03637
sg125
g126
sg33
S'38'
p4284
sg128
g1
(g129
g12
(dp4285
g131
I4
sg132
g133
sg134
g135
sg136
g133
sg137
I01
sg34
g138
sg139
g135
sg140
I0
sg141
I0
sg142
I0
sg143
g135
sg35
g144
sg145
I0
stRp4286
sg147
g148
sg149
F1
sg150
Nsg30
S'SoctoA'
p4287
sbag1
(g2
g3
NtRp4288
(dp4289
g6
g1
(g7
g3
NtRp4290
(dp4291
g10
g1
(g11
g12
(dtRp4292
sg14
g1
(g11
g12
(dtRp4293
sg16
g1
(g11
g12
(dtRp4294
sg18
g1
(g11
g12
(dtRp4295
sg20
g1
(g11
g12
(dtRp4296
sg22
g1
(g11
g12
(dtRp4297
sbsg24
S'Scr'
p4298
sg26
g27
((lp4299
g29
ag30
aS'sequence'
p4300
ag32
ag33
aS'species'
p4301
atRp4302
sg37
(lp4303
sg121
g4254
sg122
S'RWLSTKDLYSRMELPGLNQNVHGMFIIPLGFGNPMGDVYPRVNNTYWLPPLSLEGPGTGWTVYPPLSHSGPSVDLALQLTSSTLGSLNLTNMRGPLFWTSLLLLTLPVLGGFLFDRNLNTFAGGDPLYHLFWFFGHPEVYIIPAFGSHPTLNKFGMCASIALGLVWSHHLFVGLDDRAYFSAATMIAPTGIKFSWLATTGGQPMLAFLILFTGGTGVLNSVDAFHDTYFVVHFHYVLSMGAFGLAYYFWPGLYNLFWFNFPQHFLGGMPRRPYPDAGWNSGSSYQYNPSDDNEPH'
p4304
sg124
F0.036740000000000002
sg125
g126
sg33
S'91'
p4305
sg128
g1
(g129
g12
(dp4306
g131
I4
sg132
g133
sg134
g135
sg136
g133
sg137
I01
sg34
g138
sg139
g135
sg140
I0
sg141
I0
sg142
I0
sg143
g135
sg35
g144
sg145
I0
stRp4307
sg147
g148
sg149
F1
sg150
Nsg30
S'ScryoA'
p4308
sbasg121
g4220
sg124
F0.18453
sg125
g126
sg33
S'108'
p4309
sg128
g1
(g129
g12
(dp4310
g131
I6
sg132
g133
sg134
g135
sg136
g133
sg137
I01
sg34
g175
sg139
g135
sg140
I0
sg141
I0
sg142
I0
sg143
g135
sg35
g176
sg145
I0
stRp4311
sg147
g148
sg149
F0.98999999999999999
sg150
Nsg30
S'NoName'
p4312
sbasg121
g4186
sg124
F0.73307
sg125
g126
sg33
S'0'
sg128
g1
(g129
g12
(dp4313
g131
I6
sg132
g133
sg134
g135
sg136
g133
sg137
I01
sg34
g175
sg139
g135
sg140
I0
sg141
I0
sg142
I0
sg143
g135
sg35
g176
sg145
I0
stRp4314
sg147
g148
sg149
F0.98999999999999999
sg150
Nsg30
S'NoName'
p4315
sbasg121
g4
sg124
F1.7741899999999999
sg125
g126
sg33
S'137'
p4316
sg128
g1
(g129
g12
(dp4317
g131
I6
sg132
g133
sg134
g135
sg136
g133
sg137
I01
sg34
g175
sg139
g135
sg140
I0
sg141
I0
sg142
I0
sg143
g135
sg35
g176
sg145
I0
stRp4318
sg147
g148
sg149
F1
sg150
Nsg30
S'NoName'
p4319
sbasg31
S'8'
sg121
Nsg124
F0
sg125
g126
sg33
S'142'
p4320
sg34
g844
sg128
g1
(g129
g12
(dp4321
g131
I6
sg132
g133
sg134
g135
sg136
g133
sg137
I01
sg34
g175
sg139
g135
sg140
I0
sg141
I0
sg142
I0
sg143
g135
sg35
g176
sg145
I0
stRp4322
sg147
g148
sg149
F1
sg150
Nsg35
S'#833DB4'
p4323
sg30
g126
sb.