ccopy_reg
_reconstructor
p1
(cete2.phylo.phylotree
PhyloNode
p2
c__builtin__
object
p3
NtRp4
(dp5
S'_faces'
p6
g1
(cete2.treeview.main
_FaceAreas
p7
g3
NtRp8
(dp9
S'branch-top'
p10
g1
(cete2.treeview.main
FaceContainer
p11
c__builtin__
dict
p12
(dtRp13
sS'float'
p14
g1
(g11
g12
(dtRp15
sS'branch-bottom'
p16
g1
(g11
g12
(dtRp17
sS'aligned'
p18
g1
(g11
g12
(dtRp19
sS'branch-right'
p20
g1
(g11
g12
(dtRp21
sS'float-behind'
p22
g1
(g11
g12
(dtRp23
sbsS'_species'
p24
S'Unknown'
p25
sS'features'
p26
c__builtin__
set
p27
((lp28
S'dist'
p29
aS'name'
p30
aS'bsize'
p31
aS'support'
p32
aS'_nid'
p33
aS'shape'
p34
aS'fgcolor'
p35
atRp36
sS'_children'
p37
(lp38
g1
(g2
g3
NtRp39
(dp40
g6
g1
(g7
g3
NtRp41
(dp42
g10
g1
(g11
g12
(dtRp43
sg14
g1
(g11
g12
(dtRp44
sg16
g1
(g11
g12
(dtRp45
sg18
g1
(g11
g12
(dtRp46
sg20
g1
(g11
g12
(dtRp47
sg22
g1
(g11
g12
(dtRp48
sbsg24
g25
sg26
g27
((lp49
g33
ag32
ag29
ag30
atRp50
sg37
(lp51
g1
(g2
g3
NtRp52
(dp53
g6
g1
(g7
g3
NtRp54
(dp55
g10
g1
(g11
g12
(dtRp56
sg14
g1
(g11
g12
(dtRp57
sg16
g1
(g11
g12
(dtRp58
sg18
g1
(g11
g12
(dtRp59
sg20
g1
(g11
g12
(dtRp60
sg22
g1
(g11
g12
(dtRp61
sbsg24
g25
sg26
g27
((lp62
g33
ag32
ag29
ag30
atRp63
sg37
(lp64
g1
(g2
g3
NtRp65
(dp66
g6
g1
(g7
g3
NtRp67
(dp68
g10
g1
(g11
g12
(dtRp69
sg14
g1
(g11
g12
(dtRp70
sg16
g1
(g11
g12
(dtRp71
sg18
g1
(g11
g12
(dtRp72
sg20
g1
(g11
g12
(dtRp73
sg22
g1
(g11
g12
(dtRp74
sbsg24
g25
sg26
g27
((lp75
g33
ag32
ag29
ag30
atRp76
sg37
(lp77
g1
(g2
g3
NtRp78
(dp79
g6
g1
(g7
g3
NtRp80
(dp81
g10
g1
(g11
g12
(dtRp82
sg14
g1
(g11
g12
(dtRp83
sg16
g1
(g11
g12
(dtRp84
sg18
g1
(g11
g12
(dtRp85
sg20
g1
(g11
g12
(dtRp86
sg22
g1
(g11
g12
(dtRp87
sbsg24
g25
sg26
g27
((lp88
g33
ag32
ag29
ag30
atRp89
sg37
(lp90
g1
(g2
g3
NtRp91
(dp92
g6
g1
(g7
g3
NtRp93
(dp94
g10
g1
(g11
g12
(dtRp95
sg14
g1
(g11
g12
(dtRp96
sg16
g1
(g11
g12
(dtRp97
sg18
g1
(g11
g12
(dtRp98
sg20
g1
(g11
g12
(dtRp99
sg22
g1
(g11
g12
(dtRp100
sbsg24
g25
sg26
g27
((lp101
g33
ag32
ag29
ag30
atRp102
sg37
(lp103
g1
(g2
g3
NtRp104
(dp105
g6
g1
(g7
g3
NtRp106
(dp107
g10
g1
(g11
g12
(dtRp108
sg14
g1
(g11
g12
(dtRp109
sg16
g1
(g11
g12
(dtRp110
sg18
g1
(g11
g12
(dtRp111
sg20
g1
(g11
g12
(dtRp112
sg22
g1
(g11
g12
(dtRp113
sbsg24
S'Yli'
p114
sg26
g27
((lp115
g29
ag30
aS'sequence'
p116
ag32
ag33
aS'species'
p117
atRp118
sg37
(lp119
sS'_up'
p120
g91
sS'sequence'
p121
S'RWLSTKDLYSRLELTGLNQNVHAMFVMPLGFGNPMGDMFARLNNSFWLVPLSLEGAGTGWTVYFPLAHSGPAVDLAFHLSSSLLGAINFTNMRGPLFWTALLLLSLPVLAGTGIDRNFNTFEGGDALYHLFWFFGHPEVYIIPGFGSHSAISKFGMYASIGLGFVWSHHMFVGLDDRAYFTSATMIAPTSIKFSWLATYGGRTALAFIFLFTGGTGVLNSADPFHDSYYVVHFHYVLSMGAFSIGWYLWPGLYNLFWFNFPMHFLGGMPRRNYPDAGWNSGSAYQLGPSGTNEPH'
p122
sS'_dist'
p123
F0.00011
sS'_name'
p124
S'NoName'
p125
sg33
S'56'
p126
sS'_img_style'
p127
g1
(cete2.treeview.main
NodeStyle
p128
g12
(dp129
S'size'
p130
I4
sS'hz_line_color'
p131
S'#000000'
p132
sS'faces_bgcolor'
p133
S'#FFFFFF'
p134
sS'vt_line_color'
p135
g132
sS'draw_descendants'
p136
I01
sg34
S'square'
p137
sS'bgcolor'
p138
g134
sS'hz_line_type'
p139
I0
sS'vt_line_width'
p140
I0
sS'vt_line_type'
p141
I0
sS'node_bgcolor'
p142
g134
sg35
S'#000000'
p143
sS'hz_line_width'
p144
I0
stRp145
sS'_speciesFunction'
p146
cete2.phylo.phylotree
_parse_species
p147
sS'_support'
p148
F1
sS'_temp_faces'
p149
Nsg30
S'YlipoB'
p150
sbag1
(g2
g3
NtRp151
(dp152
g6
g1
(g7
g3
NtRp153
(dp154
g10
g1
(g11
g12
(dtRp155
sg14
g1
(g11
g12
(dtRp156
sg16
g1
(g11
g12
(dtRp157
sg18
g1
(g11
g12
(dtRp158
sg20
g1
(g11
g12
(dtRp159
sg22
g1
(g11
g12
(dtRp160
sbsg24
S'Yli'
p161
sg26
g27
((lp162
g29
ag30
aS'sequence'
p163
ag32
ag33
aS'species'
p164
atRp165
sg37
(lp166
sg120
g91
sg121
S'RWLSTKDLYSRLELTGLNQNVHAMFVMPLGFGNPMGDMFARLNNSFWLVPLSLEGAGTGWTVYFPLAHSGPAVDLAFHLSSSLLGAINFTNMRGPLFWTALLLLSLPVLAGTGIDRNFNTFEGGDALYHLFWFFGHPEVYIIPGFGSHSAISKFGMYASIGLGFVWSHHMFVGLDDRAYFTSATMIAPTSIKFSWLATYGGRTALAFIFLFTGGTGVLNSADPFHDSYYVVHFHYVLSMGAFSIGWYLWPGLYNLFWFNFPMHFLGGMPRRNYPDAGWNSGSAYQLGPSGTNEPH'
p167
sg123
F0.00048000000000000001
sg124
g125
sg33
S'64'
p168
sg127
g1
(g128
g12
(dp169
g130
I4
sg131
g132
sg133
g134
sg135
g132
sg136
I01
sg34
g137
sg138
g134
sg139
I0
sg140
I0
sg141
I0
sg142
g134
sg35
g143
sg144
I0
stRp170
sg146
g147
sg148
F1
sg149
Nsg30
S'YlipoA'
p171
sbasg120
g78
sg123
F0.02656
sg124
g125
sg33
S'53'
p172
sg127
g1
(g128
g12
(dp173
g130
I6
sg131
g132
sg133
g134
sg135
g132
sg136
I01
sg34
S'circle'
p174
sg138
g134
sg139
I0
sg140
I0
sg141
I0
sg142
g134
sg35
S'#0030c1'
p175
sg144
I0
stRp176
sg146
g147
sg148
F1
sg149
Nsg30
S'NoName'
p177
sbag1
(g2
g3
NtRp178
(dp179
g6
g1
(g7
g3
NtRp180
(dp181
g10
g1
(g11
g12
(dtRp182
sg14
g1
(g11
g12
(dtRp183
sg16
g1
(g11
g12
(dtRp184
sg18
g1
(g11
g12
(dtRp185
sg20
g1
(g11
g12
(dtRp186
sg22
g1
(g11
g12
(dtRp187
sbsg24
g25
sg26
g27
((lp188
g33
ag32
ag29
ag30
atRp189
sg37
(lp190
g1
(g2
g3
NtRp191
(dp192
g6
g1
(g7
g3
NtRp193
(dp194
g10
g1
(g11
g12
(dtRp195
sg14
g1
(g11
g12
(dtRp196
sg16
g1
(g11
g12
(dtRp197
sg18
g1
(g11
g12
(dtRp198
sg20
g1
(g11
g12
(dtRp199
sg22
g1
(g11
g12
(dtRp200
sbsg24
S'Cga'
p201
sg26
g27
((lp202
g29
ag30
aS'sequence'
p203
ag32
ag33
aS'species'
p204
atRp205
sg37
(lp206
sg120
g178
sg121
S'RWLSTKDLYSRLELTGLNQNVHAMFVMPLGFGNPMGDMFARLNNSFWLVPLSLEGAGTGWTVYFPLAHSGPAVDLAFHLSSSLLGAINFTNMRGPLFWTALLLLSLPVLAGTGIDRNFNTFEGGDALYHLFWFFGHPEVYIIPGFGSHSAISKFGMYASIGLGFVWSHHMFVGLDDRAYFTSATMIAPTSIKFSWLSTYGGRTALAFIFLFTGGTGVLNSADPFHDSYYVVHFHYVLSMGAFSIGWYLWPGLYNLFWFNFPMHFLGGMPRRNYPDAGWNSGSAYQLGPSGTNEPH'
p207
sg123
F0.016299999999999999
sg124
g125
sg33
S'58'
p208
sg127
g1
(g128
g12
(dp209
g130
I4
sg131
g132
sg133
g134
sg135
g132
sg136
I01
sg34
g137
sg138
g134
sg139
I0
sg140
I0
sg141
I0
sg142
g134
sg35
g143
sg144
I0
stRp210
sg146
g147
sg148
F1
sg149
Nsg30
S'CgallA'
p211
sbag1
(g2
g3
NtRp212
(dp213
g6
g1
(g7
g3
NtRp214
(dp215
g10
g1
(g11
g12
(dtRp216
sg14
g1
(g11
g12
(dtRp217
sg16
g1
(g11
g12
(dtRp218
sg18
g1
(g11
g12
(dtRp219
sg20
g1
(g11
g12
(dtRp220
sg22
g1
(g11
g12
(dtRp221
sbsg24
S'Cde'
p222
sg26
g27
((lp223
g29
ag30
aS'sequence'
p224
ag32
ag33
aS'species'
p225
atRp226
sg37
(lp227
sg120
g178
sg121
S'RWLSTKDLYSRLELTGLNQNVHAMFVMPLGFGNPMGDMFARLNNSFWLVPLSLEGAGTGWTVYFPLAHSGPAVDLAFHLSSSLLGAINFTNMRGPLFWTALLLLSLPVLAGTGIDRNFNTFEGGDALYHLFFFNGHPEVYIIPGFGSHSAISKFGMYASIGLGFVWSHHMFVGLDDRAYFTSATMIAPTSIKFSWLATYGGRTALAFIFLFTGGTGVLNSADPFHDSYYVVHFHYVLSMGAFSIGWYLWPGLYNLFWFNFPMHFLGGMPRRNYPDAGWNSGSAYQLGPSGTNEPH'
p228
sg123
F0.018610000000000002
sg124
g125
sg33
S'165'
p229
sg127
g1
(g128
g12
(dp230
g130
I4
sg131
g132
sg133
g134
sg135
g132
sg136
I01
sg34
g137
sg138
g134
sg139
I0
sg140
I0
sg141
I0
sg142
g134
sg35
g143
sg144
I0
stRp231
sg146
g147
sg148
F1
sg149
Nsg30
S'CdefoA'
p232
sbasg120
g78
sg123
F0.00282
sg124
g125
sg33
S'50'
p233
sg127
g1
(g128
g12
(dp234
g130
I6
sg131
g132
sg133
g134
sg135
g132
sg136
I01
sg34
g174
sg138
g134
sg139
I0
sg140
I0
sg141
I0
sg142
g134
sg35
g175
sg144
I0
stRp235
sg146
g147
sg148
F0.96999999999999997
sg149
Nsg30
S'NoName'
p236
sbasg120
g65
sg123
F0.00479
sg124
g125
sg33
S'51'
p237
sg127
g1
(g128
g12
(dp238
g130
I6
sg131
g132
sg133
g134
sg135
g132
sg136
I01
sg34
g174
sg138
g134
sg139
I0
sg140
I0
sg141
I0
sg142
g134
sg35
g175
sg144
I0
stRp239
sg146
g147
sg148
F0.80000000000000004
sg149
Nsg30
S'NoName'
p240
sbag1
(g2
g3
NtRp241
(dp242
g6
g1
(g7
g3
NtRp243
(dp244
g10
g1
(g11
g12
(dtRp245
sg14
g1
(g11
g12
(dtRp246
sg16
g1
(g11
g12
(dtRp247
sg18
g1
(g11
g12
(dtRp248
sg20
g1
(g11
g12
(dtRp249
sg22
g1
(g11
g12
(dtRp250
sbsg24
S'Cal'
p251
sg26
g27
((lp252
g29
ag30
aS'sequence'
p253
ag32
ag33
aS'species'
p254
atRp255
sg37
(lp256
sg120
g65
sg121
S'RWLSTKDLYSRLELTGLNQNVHAMFVMPLGFGNPMGDMFARLNNSFWLVPMSLEGAGTGWTVYFPLAHSGPAVDLAFHLASSLLGAINFTNMRGPLFWTALLLLSLPVLAGTGIDRNFNTFEGGDALYHLFWFFGHPEVYIIPGFGSHSAISKFGMYASIGLGFVWSHHMFVGLDDRAYFTSATMIAPTSIKFSWLATYGGRTALAFIFLFTGGTGVLNSADPFHDSYYVVHFHYVLSMGAFSIGWYLWPGLYNLFWFNFPMHFLGGMPRRNYPDAGWNSGSAYQLGPSGTNEPH'
p257
sg123
F0.035970000000000002
sg124
g125
sg33
S'166'
p258
sg127
g1
(g128
g12
(dp259
g130
I4
sg131
g132
sg133
g134
sg135
g132
sg136
I01
sg34
g137
sg138
g134
sg139
I0
sg140
I0
sg141
I0
sg142
g134
sg35
g143
sg144
I0
stRp260
sg146
g147
sg148
F1
sg149
Nsg30
S'CalimA'
p261
sbasg120
g52
sg123
F1.1444799999999999
sg124
g125
sg33
S'48'
p262
sg127
g1
(g128
g12
(dp263
g130
I6
sg131
g132
sg133
g134
sg135
g132
sg136
I01
sg34
g174
sg138
g134
sg139
I0
sg140
I0
sg141
I0
sg142
g134
sg35
g175
sg144
I0
stRp264
sg146
g147
sg148
F0.97999999999999998
sg149
Nsg30
S'NoName'
p265
sbag1
(g2
g3
NtRp266
(dp267
g6
g1
(g7
g3
NtRp268
(dp269
g10
g1
(g11
g12
(dtRp270
sg14
g1
(g11
g12
(dtRp271
sg16
g1
(g11
g12
(dtRp272
sg18
g1
(g11
g12
(dtRp273
sg20
g1
(g11
g12
(dtRp274
sg22
g1
(g11
g12
(dtRp275
sbsg24
g25
sg26
g27
((lp276
g33
ag32
ag29
ag30
atRp277
sg37
(lp278
g1
(g2
g3
NtRp279
(dp280
g6
g1
(g7
g3
NtRp281
(dp282
g10
g1
(g11
g12
(dtRp283
sg14
g1
(g11
g12
(dtRp284
sg16
g1
(g11
g12
(dtRp285
sg18
g1
(g11
g12
(dtRp286
sg20
g1
(g11
g12
(dtRp287
sg22
g1
(g11
g12
(dtRp288
sbsg24
g25
sg26
g27
((lp289
g33
ag32
ag29
ag30
atRp290
sg37
(lp291
g1
(g2
g3
NtRp292
(dp293
g6
g1
(g7
g3
NtRp294
(dp295
g10
g1
(g11
g12
(dtRp296
sg14
g1
(g11
g12
(dtRp297
sg16
g1
(g11
g12
(dtRp298
sg18
g1
(g11
g12
(dtRp299
sg20
g1
(g11
g12
(dtRp300
sg22
g1
(g11
g12
(dtRp301
sbsg24
g25
sg26
g27
((lp302
g33
ag32
ag29
ag30
atRp303
sg37
(lp304
g1
(g2
g3
NtRp305
(dp306
g6
g1
(g7
g3
NtRp307
(dp308
g10
g1
(g11
g12
(dtRp309
sg14
g1
(g11
g12
(dtRp310
sg16
g1
(g11
g12
(dtRp311
sg18
g1
(g11
g12
(dtRp312
sg20
g1
(g11
g12
(dtRp313
sg22
g1
(g11
g12
(dtRp314
sbsg24
g25
sg26
g27
((lp315
g33
ag32
ag29
ag30
atRp316
sg37
(lp317
g1
(g2
g3
NtRp318
(dp319
g6
g1
(g7
g3
NtRp320
(dp321
g10
g1
(g11
g12
(dtRp322
sg14
g1
(g11
g12
(dtRp323
sg16
g1
(g11
g12
(dtRp324
sg18
g1
(g11
g12
(dtRp325
sg20
g1
(g11
g12
(dtRp326
sg22
g1
(g11
g12
(dtRp327
sbsg24
S'Mst'
p328
sg26
g27
((lp329
g29
ag30
aS'sequence'
p330
ag32
ag33
aS'species'
p331
atRp332
sg37
(lp333
sg120
g305
sg121
S'RWLSTKDLYSRLELPTLNQNVHAMFVMPSGFGNPMGDMLARLNNSFWLVPVSLEGAGTGWTVYPPLSHSGASVDLVFHMSSSLLGAINFTNMRGTLFWTALLLLSLPVLSGTLLDRNFNTFEGGDPLYHLFWFFGHPEVYIIPGFGSHSTYKKFGMYASMGLGFVWSHHMYVGLDDRAYFTSATMMAPTGVKFSWLATYGGRPFLAFMFLFTGGTGVLNASDAFHDTYYVVHFHYVLSLGAFSLGYYFWPGLYNLFMFNFPLHFLGGMPRRPYPDAGWNSGSSYQLGPDESNEPH'
p334
sg123
F0.087190000000000004
sg124
g125
sg33
S'179'
p335
sg127
g1
(g128
g12
(dp336
g130
I4
sg131
g132
sg133
g134
sg135
g132
sg136
I01
sg34
g137
sg138
g134
sg139
I0
sg140
I0
sg141
I0
sg142
g134
sg35
g143
sg144
I0
stRp337
sg146
g147
sg148
F1
sg149
Nsg30
S'MstarA'
p338
sbag1
(g2
g3
NtRp339
(dp340
g6
g1
(g7
g3
NtRp341
(dp342
g10
g1
(g11
g12
(dtRp343
sg14
g1
(g11
g12
(dtRp344
sg16
g1
(g11
g12
(dtRp345
sg18
g1
(g11
g12
(dtRp346
sg20
g1
(g11
g12
(dtRp347
sg22
g1
(g11
g12
(dtRp348
sbsg24
S'Min'
p349
sg26
g27
((lp350
g29
ag30
aS'sequence'
p351
ag32
ag33
aS'species'
p352
atRp353
sg37
(lp354
sg120
g305
sg121
S'RWLSTKDLYSRLELPTLNQNVHAMFVMPAGFGNPMGDMLARLNNSFWLVPVSLEGAGTGWTVYPPLSHSGPSVDLVFHISSSLLGSMNFTNMRGTLFWTSLLLLSLPVLSGTLLDRNFNTFEGGDPLYHLFYKMMLFSMYMMPGFGSHSAYKKFGMYASIGLGFVWSHHMYVGLDDRAYFTSATMIAPTGVKFSWLATYGGRPFLAFMFLFTGGTGVLNASDAFHDTYYVVHFHYVLSLGAFSLGYYFWPGLYNLFTFNFPLHFLGGMPRRPYPDAGWNSGSSYQLGPDESNEPH'
p355
sg123
F0.040719999999999999
sg124
g125
sg33
S'184'
p356
sg127
g1
(g128
g12
(dp357
g130
I4
sg131
g132
sg133
g134
sg135
g132
sg136
I01
sg34
g137
sg138
g134
sg139
I0
sg140
I0
sg141
I0
sg142
g134
sg35
g143
sg144
I0
stRp358
sg146
g147
sg148
F1
sg149
Nsg30
S'MingeA'
p359
sbasg120
g292
sg123
F0.037420000000000002
sg124
g125
sg33
S'175'
p360
sg127
g1
(g128
g12
(dp361
g130
I6
sg131
g132
sg133
g134
sg135
g132
sg136
I01
sg34
g174
sg138
g134
sg139
I0
sg140
I0
sg141
I0
sg142
g134
sg35
g175
sg144
I0
stRp362
sg146
g147
sg148
F0.98999999999999999
sg149
Nsg30
S'NoName'
p363
sbag1
(g2
g3
NtRp364
(dp365
g6
g1
(g7
g3
NtRp366
(dp367
g10
g1
(g11
g12
(dtRp368
sg14
g1
(g11
g12
(dtRp369
sg16
g1
(g11
g12
(dtRp370
sg18
g1
(g11
g12
(dtRp371
sg20
g1
(g11
g12
(dtRp372
sg22
g1
(g11
g12
(dtRp373
sbsg24
g25
sg26
g27
((lp374
g33
ag32
ag29
ag30
atRp375
sg37
(lp376
g1
(g2
g3
NtRp377
(dp378
g6
g1
(g7
g3
NtRp379
(dp380
g10
g1
(g11
g12
(dtRp381
sg14
g1
(g11
g12
(dtRp382
sg16
g1
(g11
g12
(dtRp383
sg18
g1
(g11
g12
(dtRp384
sg20
g1
(g11
g12
(dtRp385
sg22
g1
(g11
g12
(dtRp386
sbsg24
g25
sg26
g27
((lp387
g33
ag32
ag29
ag30
atRp388
sg37
(lp389
g1
(g2
g3
NtRp390
(dp391
g6
g1
(g7
g3
NtRp392
(dp393
g10
g1
(g11
g12
(dtRp394
sg14
g1
(g11
g12
(dtRp395
sg16
g1
(g11
g12
(dtRp396
sg18
g1
(g11
g12
(dtRp397
sg20
g1
(g11
g12
(dtRp398
sg22
g1
(g11
g12
(dtRp399
sbsg24
S'Mte'
p400
sg26
g27
((lp401
g29
ag30
aS'sequence'
p402
ag32
ag33
aS'species'
p403
atRp404
sg37
(lp405
sg120
g377
sg121
S'RWLSTKDLYSRLELPTLNQNVHAMFVMPAGFGNPMGDMLARLNNSFWLVPLSLEGAGTGWTVYPPLSHSGPSVDMVFHISSSLLGAINFTNMRGTLFWTALLLLSLPVLSGTLLDRNFNTFEGGDPLYHLFWFFGHPEVYIIPGFGSHSAYKKFGMYASIGLGFVWSHHMYVGLDDRAYFTSATMIAPTGVKFSWLATYGGRPFLAFIFLFTGGTGVLNASDAFHDTYYVVHFHYVLSLGAFSLGYYFWPGLYNLFYFNFPMHALGGMPRRPYPDAGWNSGSSYQLGPDESNEPH'
p406
sg123
F0.042599999999999999
sg124
g125
sg33
S'222'
p407
sg127
g1
(g128
g12
(dp408
g130
I4
sg131
g132
sg133
g134
sg135
g132
sg136
I01
sg34
g137
sg138
g134
sg139
I0
sg140
I0
sg141
I0
sg142
g134
sg35
g143
sg144
I0
stRp409
sg146
g147
sg148
F1
sg149
Nsg30
S'MtetrA'
p410
sbag1
(g2
g3
NtRp411
(dp412
g6
g1
(g7
g3
NtRp413
(dp414
g10
g1
(g11
g12
(dtRp415
sg14
g1
(g11
g12
(dtRp416
sg16
g1
(g11
g12
(dtRp417
sg18
g1
(g11
g12
(dtRp418
sg20
g1
(g11
g12
(dtRp419
sg22
g1
(g11
g12
(dtRp420
sbsg24
g25
sg26
g27
((lp421
g33
ag32
ag29
ag30
atRp422
sg37
(lp423
g1
(g2
g3
NtRp424
(dp425
g6
g1
(g7
g3
NtRp426
(dp427
g10
g1
(g11
g12
(dtRp428
sg14
g1
(g11
g12
(dtRp429
sg16
g1
(g11
g12
(dtRp430
sg18
g1
(g11
g12
(dtRp431
sg20
g1
(g11
g12
(dtRp432
sg22
g1
(g11
g12
(dtRp433
sbsg24
S'Mma'
p434
sg26
g27
((lp435
g29
ag30
aS'sequence'
p436
ag32
ag33
aS'species'
p437
atRp438
sg37
(lp439
sg120
g411
sg121
S'RWLSTKDLYSRLELPTLNQNVHAMFVMPAGFGNPMGDMLARLNNSFWLVPLSLEGPGTGWTVYPPLSHSGPSVDMVFHISSSLLGAINFTNMRGTLFWTALLLLSLPVLSGTLLDRNFNTFEGGDPLYHLFWFFGHPEVYIIPGFGSHSAYKKFGMYASIGLGFVWSHHMYVGLDDRAYFTSATMIAPTGVKFSWLATYGGRPFLAFIFLFTGGTGVLNASDAFHDSYYVVHFHYVLSLGAFSLGYYFWPGLYNLFFFNFPMHALGGMPRRPYPDAGWNSGSSYQLGPDESNEPH'
p440
sg123
F0.00055000000000000003
sg124
g125
sg33
S'216'
p441
sg127
g1
(g128
g12
(dp442
g130
I4
sg131
g132
sg133
g134
sg135
g132
sg136
I01
sg34
g137
sg138
g134
sg139
I0
sg140
I0
sg141
I0
sg142
g134
sg35
g143
sg144
I0
stRp443
sg146
g147
sg148
F1
sg149
Nsg30
S'MmagnB'
p444
sbag1
(g2
g3
NtRp445
(dp446
g6
g1
(g7
g3
NtRp447
(dp448
g10
g1
(g11
g12
(dtRp449
sg14
g1
(g11
g12
(dtRp450
sg16
g1
(g11
g12
(dtRp451
sg18
g1
(g11
g12
(dtRp452
sg20
g1
(g11
g12
(dtRp453
sg22
g1
(g11
g12
(dtRp454
sbsg24
S'Mma'
p455
sg26
g27
((lp456
g29
ag30
aS'sequence'
p457
ag32
ag33
aS'species'
p458
atRp459
sg37
(lp460
sg120
g411
sg121
S'RWLSTKDLYSRLELPTLNQNVHAMFVMPAGFGNPMGDMLARLNNSFWLVPLSLEGPGTGWTVYPPLSHSGPSVDMVFHISSSLLGAINFTNMRGTLFWTALLLLSLPVLSGTLLDRNFNTFEGGDPLYHLFWFFGHPEVYIIPGFGSHSAYKKFGMYASIGLGFVWSHHMYVGLDDRAYFTSATMIAPTGVKFSWLATYGGRPFLAFIFLFTGGTGVLNASDAFHDSYYVVHFHYVLSLGAFSLGYYFWPGLYNLFFFNFPMHALGGMPRRPYPDAGWNSGSSYQLGPDESNEPH'
p461
sg123
F0.00088000000000000003
sg124
g125
sg33
S'219'
p462
sg127
g1
(g128
g12
(dp463
g130
I4
sg131
g132
sg133
g134
sg135
g132
sg136
I01
sg34
g137
sg138
g134
sg139
I0
sg140
I0
sg141
I0
sg142
g134
sg35
g143
sg144
I0
stRp464
sg146
g147
sg148
F1
sg149
Nsg30
S'MmagnA'
p465
sbasg120
g377
sg123
F0.011140000000000001
sg124
g125
sg33
S'181'
p466
sg127
g1
(g128
g12
(dp467
g130
I6
sg131
g132
sg133
g134
sg135
g132
sg136
I01
sg34
g174
sg138
g134
sg139
I0
sg140
I0
sg141
I0
sg142
g134
sg35
g175
sg144
I0
stRp468
sg146
g147
sg148
F0.98999999999999999
sg149
Nsg30
S'NoName'
p469
sbasg120
g364
sg123
F0.11189
sg124
g125
sg33
S'183'
p470
sg127
g1
(g128
g12
(dp471
g130
I6
sg131
g132
sg133
g134
sg135
g132
sg136
I01
sg34
g174
sg138
g134
sg139
I0
sg140
I0
sg141
I0
sg142
g134
sg35
g175
sg144
I0
stRp472
sg146
g147
sg148
F0.98999999999999999
sg149
Nsg30
S'NoName'
p473
sbag1
(g2
g3
NtRp474
(dp475
g6
g1
(g7
g3
NtRp476
(dp477
g10
g1
(g11
g12
(dtRp478
sg14
g1
(g11
g12
(dtRp479
sg16
g1
(g11
g12
(dtRp480
sg18
g1
(g11
g12
(dtRp481
sg20
g1
(g11
g12
(dtRp482
sg22
g1
(g11
g12
(dtRp483
sbsg24
g25
sg26
g27
((lp484
g33
ag32
ag29
ag30
atRp485
sg37
(lp486
g1
(g2
g3
NtRp487
(dp488
g6
g1
(g7
g3
NtRp489
(dp490
g10
g1
(g11
g12
(dtRp491
sg14
g1
(g11
g12
(dtRp492
sg16
g1
(g11
g12
(dtRp493
sg18
g1
(g11
g12
(dtRp494
sg20
g1
(g11
g12
(dtRp495
sg22
g1
(g11
g12
(dtRp496
sbsg24
S'Scl'
p497
sg26
g27
((lp498
g29
ag30
aS'sequence'
p499
ag32
ag33
aS'species'
p500
atRp501
sg37
(lp502
sg120
g474
sg121
S'RWLSTKDLYSRLELPTLNQNVHAMFVMPAGFGNPMGDMLARLNNSFWLVPLSLEGPGTGWTVYPPLSHSGPSVDMVFHMSSSLLGAINFTNMRGTLFWTALLLLSLPVLAGTLLDRNFNTFEGGDPLYHLFWFFGHPEVYMIPGFGSHSTYKKFGMYASMGLGFVWSHHMYVGLDDRAYFTAATMIAPTGVKFSWLATYGGRPFLTFMFLFTGGTGVLNASDAFHDTYYVVHFHYVLSLGAFSLGYYFWPGLYNLFMFNFPLHFLGGMPRRPYPDAGWNSGSSYQLGPDESNEPH'
p503
sg123
F0.020899999999999998
sg124
g125
sg33
S'217'
p504
sg127
g1
(g128
g12
(dp505
g130
I4
sg131
g132
sg133
g134
sg135
g132
sg136
I01
sg34
g137
sg138
g134
sg139
I0
sg140
I0
sg141
I0
sg142
g134
sg35
g143
sg144
I0
stRp506
sg146
g147
sg148
F1
sg149
Nsg30
S'SclavA'
p507
sbag1
(g2
g3
NtRp508
(dp509
g6
g1
(g7
g3
NtRp510
(dp511
g10
g1
(g11
g12
(dtRp512
sg14
g1
(g11
g12
(dtRp513
sg16
g1
(g11
g12
(dtRp514
sg18
g1
(g11
g12
(dtRp515
sg20
g1
(g11
g12
(dtRp516
sg22
g1
(g11
g12
(dtRp517
sbsg24
S'Msp'
p518
sg26
g27
((lp519
g29
ag30
aS'sequence'
p520
ag32
ag33
aS'species'
p521
atRp522
sg37
(lp523
sg120
g474
sg121
S'RWLSTKDLYSRLELPTLNQNVHAMFVMPAGFGNPMGDMLARLNNSFWLVPLSLEGPGTGWTVYPPLSHSGPSVDMVFHMSSSLLGAMNFTNMRGTLFWTALLLLSLPVLAGTLLDRNFNTFEGGDPLYHLFWFFGHPEVYMIPGFGSHSTYKKFGMYASMGLGFVWSHHMYVGLDDRAYFTAATMIAPTGVKFSWLATYGGRPFLTFMFLFTGGTGVLNASDAFHDTYYVVHFHYVLSLGAFSLGYYFWPGLYNLFMFNFPLHFLGGMPRRPYPDAGWNSGSSYQLGPDESNEPH'
p524
sg123
F0.13538
sg124
g125
sg33
S'45'
p525
sg127
g1
(g128
g12
(dp526
g130
I4
sg131
g132
sg133
g134
sg135
g132
sg136
I01
sg34
g137
sg138
g134
sg139
I0
sg140
I0
sg141
I0
sg142
g134
sg35
g143
sg144
I0
stRp527
sg146
g147
sg148
F1
sg149
Nsg30
S'MspicA'
p528
sbasg120
g364
sg123
F0.10536
sg124
g125
sg33
S'213'
p529
sg127
g1
(g128
g12
(dp530
g130
I6
sg131
g132
sg133
g134
sg135
g132
sg136
I01
sg34
g174
sg138
g134
sg139
I0
sg140
I0
sg141
I0
sg142
g134
sg35
g175
sg144
I0
stRp531
sg146
g147
sg148
F0.98999999999999999
sg149
Nsg30
S'NoName'
p532
sbasg120
g292
sg123
F0.03209
sg124
g125
sg33
S'169'
p533
sg127
g1
(g128
g12
(dp534
g130
I6
sg131
g132
sg133
g134
sg135
g132
sg136
I01
sg34
g174
sg138
g134
sg139
I0
sg140
I0
sg141
I0
sg142
g134
sg35
g175
sg144
I0
stRp535
sg146
g147
sg148
F0.98999999999999999
sg149
Nsg30
S'NoName'
p536
sbasg120
g279
sg123
F0.32869999999999999
sg124
g125
sg33
S'172'
p537
sg127
g1
(g128
g12
(dp538
g130
I6
sg131
g132
sg133
g134
sg135
g132
sg136
I01
sg34
g174
sg138
g134
sg139
I0
sg140
I0
sg141
I0
sg142
g134
sg35
g175
sg144
I0
stRp539
sg146
g147
sg148
F0.98999999999999999
sg149
Nsg30
S'NoName'
p540
sbag1
(g2
g3
NtRp541
(dp542
g6
g1
(g7
g3
NtRp543
(dp544
g10
g1
(g11
g12
(dtRp545
sg14
g1
(g11
g12
(dtRp546
sg16
g1
(g11
g12
(dtRp547
sg18
g1
(g11
g12
(dtRp548
sg20
g1
(g11
g12
(dtRp549
sg22
g1
(g11
g12
(dtRp550
sbsg24
g25
sg26
g27
((lp551
g33
ag32
ag29
ag30
atRp552
sg37
(lp553
g1
(g2
g3
NtRp554
(dp555
g6
g1
(g7
g3
NtRp556
(dp557
g10
g1
(g11
g12
(dtRp558
sg14
g1
(g11
g12
(dtRp559
sg16
g1
(g11
g12
(dtRp560
sg18
g1
(g11
g12
(dtRp561
sg20
g1
(g11
g12
(dtRp562
sg22
g1
(g11
g12
(dtRp563
sbsg24
g25
sg26
g27
((lp564
g33
ag32
ag29
ag30
atRp565
sg37
(lp566
g1
(g2
g3
NtRp567
(dp568
g6
g1
(g7
g3
NtRp569
(dp570
g10
g1
(g11
g12
(dtRp571
sg14
g1
(g11
g12
(dtRp572
sg16
g1
(g11
g12
(dtRp573
sg18
g1
(g11
g12
(dtRp574
sg20
g1
(g11
g12
(dtRp575
sg22
g1
(g11
g12
(dtRp576
sbsg24
S'Cze'
p577
sg26
g27
((lp578
g29
ag30
aS'sequence'
p579
ag32
ag33
aS'species'
p580
atRp581
sg37
(lp582
sg120
g554
sg121
S'SWLSTQNLYSRIELPNLNQNVHAMFVMPTGLANPQGDTFPRMNNAFVLLPMSLDGPGSGWTLYPPLTHSGSSMDMAFHLSSSIFGAINLTNMRGPLFWTALMMLALPVLAGTLLDRNFNTFVGGDPLYHIFWFFGHPEVYIIPVFGSQQVYKKFGMYASIGLGFVWSHHMFVGLDDRAYFSGASLIAPTGSKFSWLATYGGRPLLAFMVLFTGGTGVMNSSDMFHDTYYVVHFHYVLSLGVFGVAYYFWPGLYNLFWFNFPLHFLGGLPRRPYPDAGWNSGSSYQFGPDESNEPH'
p583
sg123
F1.5682799999999999
sg124
g125
sg33
S'118'
p584
sg127
g1
(g128
g12
(dp585
g130
I4
sg131
g132
sg133
g134
sg135
g132
sg136
I01
sg34
g137
sg138
g134
sg139
I0
sg140
I0
sg141
I0
sg142
g134
sg35
g143
sg144
I0
stRp586
sg146
g147
sg148
F1
sg149
Nsg30
S'CzempA'
p587
sbag1
(g2
g3
NtRp588
(dp589
g6
g1
(g7
g3
NtRp590
(dp591
g10
g1
(g11
g12
(dtRp592
sg14
g1
(g11
g12
(dtRp593
sg16
g1
(g11
g12
(dtRp594
sg18
g1
(g11
g12
(dtRp595
sg20
g1
(g11
g12
(dtRp596
sg22
g1
(g11
g12
(dtRp597
sbsg24
g25
sg26
g27
((lp598
g33
ag32
ag29
ag30
atRp599
sg37
(lp600
g1
(g2
g3
NtRp601
(dp602
g6
g1
(g7
g3
NtRp603
(dp604
g10
g1
(g11
g12
(dtRp605
sg14
g1
(g11
g12
(dtRp606
sg16
g1
(g11
g12
(dtRp607
sg18
g1
(g11
g12
(dtRp608
sg20
g1
(g11
g12
(dtRp609
sg22
g1
(g11
g12
(dtRp610
sbsg24
S'Csa'
p611
sg26
g27
((lp612
g29
ag30
aS'sequence'
p613
ag32
ag33
aS'species'
p614
atRp615
sg37
(lp616
sg120
g588
sg121
S'----------RLELPNLNQNVHAMFVMPSGFGNPMGDMLARLNNSFWLVPLSLDGPGTGWTMYPPLSHSGASVDLVFHISSSLLGAMNFTNMRGTLFWTALLLLSLPVLSGTLLDRNFNTFEGGDMLYHMFWFFGHPEVYMMPGFGSQSVYKKFGMYASMGLGFVWSHHMFVGLDDRAYFTAATLMAPTGVKFSWLASYGGRPLLAFMFLFTGGTGVLNASDAFHDTYYVVHFHYVLSLGAFSLGYYFWPGLYNLFWFNFPQHFLGAMPRRPYPDAGWNSGSSYQMGPDFSNEPH'
p617
sg123
F0.65920000000000001
sg124
g125
sg33
S'35'
p618
sg127
g1
(g128
g12
(dp619
g130
I4
sg131
g132
sg133
g134
sg135
g132
sg136
I01
sg34
g137
sg138
g134
sg139
I0
sg140
I0
sg141
I0
sg142
g134
sg35
g143
sg144
I0
stRp620
sg146
g147
sg148
F1
sg149
Nsg30
S'CsantA'
p621
sbag1
(g2
g3
NtRp622
(dp623
g6
g1
(g7
g3
NtRp624
(dp625
g10
g1
(g11
g12
(dtRp626
sg14
g1
(g11
g12
(dtRp627
sg16
g1
(g11
g12
(dtRp628
sg18
g1
(g11
g12
(dtRp629
sg20
g1
(g11
g12
(dtRp630
sg22
g1
(g11
g12
(dtRp631
sbsg24
S'Csa'
p632
sg26
g27
((lp633
g29
ag30
aS'sequence'
p634
ag32
ag33
aS'species'
p635
atRp636
sg37
(lp637
sg120
g588
sg121
S'RWLSTKDLYSRLELPAMSQNVHAMFVMPSGFANPMGDTLPRVNNAAILMPMSLEGPGTGWTVYPPLSHSGVSVDLVFHISSSLAGAMNLTNMRGPLFWTALLLLSLPVLAGTLIDRNFNTFDGGDVLYHLFWFFGHPEVYIIPGFGSESRYNKFGMYASIGLGFVWSHHMYVGLDDRSYFTAATLIAPTGVKFSWMATFGGRPFLTFLALFTGGTGVLNASDAFHDTYYVVHFHYVLSLGAFSMGYYYWPGLYNLFWFNFPQHFLGGQPRRSYPDAGWNSGSSYQLGPDESNEPH'
p638
sg123
F1.3581099999999999
sg124
g125
sg33
S'132'
p639
sg127
g1
(g128
g12
(dp640
g130
I4
sg131
g132
sg133
g134
sg135
g132
sg136
I01
sg34
g137
sg138
g134
sg139
I0
sg140
I0
sg141
I0
sg142
g134
sg35
g143
sg144
I0
stRp641
sg146
g147
sg148
F1
sg149
Nsg30
S'CsalmA'
p642
sbasg120
g554
sg123
F0.19968
sg124
g125
sg33
S'25'
p643
sg127
g1
(g128
g12
(dp644
g130
I6
sg131
g132
sg133
g134
sg135
g132
sg136
I01
sg34
g174
sg138
g134
sg139
I0
sg140
I0
sg141
I0
sg142
g134
sg35
g175
sg144
I0
stRp645
sg146
g147
sg148
F0.97999999999999998
sg149
Nsg30
S'NoName'
p646
sbasg120
g541
sg123
F0.14363999999999999
sg124
g125
sg33
S'223'
p647
sg127
g1
(g128
g12
(dp648
g130
I6
sg131
g132
sg133
g134
sg135
g132
sg136
I01
sg34
g174
sg138
g134
sg139
I0
sg140
I0
sg141
I0
sg142
g134
sg35
g175
sg144
I0
stRp649
sg146
g147
sg148
F0.93000000000000005
sg149
Nsg30
S'NoName'
p650
sbag1
(g2
g3
NtRp651
(dp652
g6
g1
(g7
g3
NtRp653
(dp654
g10
g1
(g11
g12
(dtRp655
sg14
g1
(g11
g12
(dtRp656
sg16
g1
(g11
g12
(dtRp657
sg18
g1
(g11
g12
(dtRp658
sg20
g1
(g11
g12
(dtRp659
sg22
g1
(g11
g12
(dtRp660
sbsg24
S'Bar'
p661
sg26
g27
((lp662
g29
ag30
aS'sequence'
p663
ag32
ag33
aS'species'
p664
atRp665
sg37
(lp666
sg120
g541
sg121
S'RWLSTKDLYSRLELPNLNQNSHAMFVMPTGFGNPMGDMLSRLNNSFWLVPLSLEGPGTGWTVYPPLSHSGPSVDLVFHVSSSLLGAMNFTNMRGTLFWTVLLLLALPVLAGTLLDRNFNTFEGGDPLYHMFWFFGHPEVYIIPGFGSQAVYNKFGMYASIGLGFVWSHHMYVGMDDRAYFTAATLIAPTGVKFSWLASYGGRPLLTFIGLFTGGTGVLNAADAFHDSYYVVHFHYVLSLGAFSLGYYFWPGLYNLFWFNFPQHFLGSMPRRPYPDAGWNSGSSVQLGPDVNNEPH'
p667
sg123
F0.74575000000000002
sg124
g125
sg33
S'135'
p668
sg127
g1
(g128
g12
(dp669
g130
I4
sg131
g132
sg133
g134
sg135
g132
sg136
I01
sg34
g137
sg138
g134
sg139
I0
sg140
I0
sg141
I0
sg142
g134
sg35
g143
sg144
I0
stRp670
sg146
g147
sg148
F1
sg149
Nsg30
S'BarxA'
p671
sbasg120
g279
sg123
F0.25233
sg124
g125
sg33
S'220'
p672
sg127
g1
(g128
g12
(dp673
g130
I6
sg131
g132
sg133
g134
sg135
g132
sg136
I01
sg34
g174
sg138
g134
sg139
I0
sg140
I0
sg141
I0
sg142
g134
sg35
g175
sg144
I0
stRp674
sg146
g147
sg148
F0.97999999999999998
sg149
Nsg30
S'NoName'
p675
sbasg120
g266
sg123
F0.42224
sg124
g125
sg33
S'167'
p676
sg127
g1
(g128
g12
(dp677
g130
I6
sg131
g132
sg133
g134
sg135
g132
sg136
I01
sg34
g174
sg138
g134
sg139
I0
sg140
I0
sg141
I0
sg142
g134
sg35
g175
sg144
I0
stRp678
sg146
g147
sg148
F0.97999999999999998
sg149
Nsg30
S'NoName'
p679
sbag1
(g2
g3
NtRp680
(dp681
g6
g1
(g7
g3
NtRp682
(dp683
g10
g1
(g11
g12
(dtRp684
sg14
g1
(g11
g12
(dtRp685
sg16
g1
(g11
g12
(dtRp686
sg18
g1
(g11
g12
(dtRp687
sg20
g1
(g11
g12
(dtRp688
sg22
g1
(g11
g12
(dtRp689
sbsg24
g25
sg26
g27
((lp690
g33
ag32
ag29
ag30
atRp691
sg37
(lp692
g1
(g2
g3
NtRp693
(dp694
g6
g1
(g7
g3
NtRp695
(dp696
g10
g1
(g11
g12
(dtRp697
sg14
g1
(g11
g12
(dtRp698
sg16
g1
(g11
g12
(dtRp699
sg18
g1
(g11
g12
(dtRp700
sg20
g1
(g11
g12
(dtRp701
sg22
g1
(g11
g12
(dtRp702
sbsg24
g25
sg26
g27
((lp703
g33
ag32
ag29
ag30
atRp704
sg37
(lp705
g1
(g2
g3
NtRp706
(dp707
g6
g1
(g7
g3
NtRp708
(dp709
g10
g1
(g11
g12
(dtRp710
sg14
g1
(g11
g12
(dtRp711
sg16
g1
(g11
g12
(dtRp712
sg18
g1
(g11
g12
(dtRp713
sg20
g1
(g11
g12
(dtRp714
sg22
g1
(g11
g12
(dtRp715
sbsg24
g25
sg26
g27
((lp716
g33
ag32
ag29
ag30
atRp717
sg37
(lp718
g1
(g2
g3
NtRp719
(dp720
g6
g1
(g7
g3
NtRp721
(dp722
g10
g1
(g11
g12
(dtRp723
sg14
g1
(g11
g12
(dtRp724
sg16
g1
(g11
g12
(dtRp725
sg18
g1
(g11
g12
(dtRp726
sg20
g1
(g11
g12
(dtRp727
sg22
g1
(g11
g12
(dtRp728
sbsg24
g25
sg26
g27
((lp729
g33
ag32
ag29
ag30
atRp730
sg37
(lp731
g1
(g2
g3
NtRp732
(dp733
g6
g1
(g7
g3
NtRp734
(dp735
g10
g1
(g11
g12
(dtRp736
sg14
g1
(g11
g12
(dtRp737
sg16
g1
(g11
g12
(dtRp738
sg18
g1
(g11
g12
(dtRp739
sg20
g1
(g11
g12
(dtRp740
sg22
g1
(g11
g12
(dtRp741
sbsg24
S'Mfa'
p742
sg26
g27
((lp743
g29
ag30
aS'sequence'
p744
ag32
ag33
aS'species'
p745
atRp746
sg37
(lp747
sg120
g719
sg121
S'RWLSTKDLYSRLELGNLNQNVHAMFVMPLGFGNPLGDMFARLNNSFWLPPLSLEGAGTGWTVYPPLSHSGPSVDLAFHLTSSLLGAINFTNMRGPLFWTALLLLSLPVLAGTLLDRNFNTFEGGDPLYHLFWFFGHPEVYIIPGFGSHSTYKKFGMYASIGLGFVWSHHMYVGLDDRAYFTSATMIAPTGIKFSWLATYGGRPMLAFLFLFTGGTGVLNASDAFHDTYFVVHFHYVLSMGAFSLAYYYWPGLYNLFWFNFPMHFLGGMPRRPYPDAGWNSGSSYQMGPDESNEPH'
p748
sg123
F0.14163999999999999
sg124
g125
sg33
S'151'
p749
sg127
g1
(g128
g12
(dp750
g130
I4
sg131
g132
sg133
g134
sg135
g132
sg136
I01
sg34
g137
sg138
g134
sg139
I0
sg140
I0
sg141
I0
sg142
g134
sg35
g143
sg144
I0
stRp751
sg146
g147
sg148
F1
sg149
Nsg30
S'MfariB'
p752
sbag1
(g2
g3
NtRp753
(dp754
g6
g1
(g7
g3
NtRp755
(dp756
g10
g1
(g11
g12
(dtRp757
sg14
g1
(g11
g12
(dtRp758
sg16
g1
(g11
g12
(dtRp759
sg18
g1
(g11
g12
(dtRp760
sg20
g1
(g11
g12
(dtRp761
sg22
g1
(g11
g12
(dtRp762
sbsg24
S'Csa'
p763
sg26
g27
((lp764
g29
ag30
aS'sequence'
p765
ag32
ag33
aS'species'
p766
atRp767
sg37
(lp768
sg120
g719
sg121
S'RWLSTKDLYSRLELGNFNQNVHAMFVMPLGFGNPLGDMFARLNNSFWLPPLSLEGAGTGWTVYPPLSHSGPSVDLAFHLTSSLLGAINFTNMRGPLFWTALLLLSLPVLAATLLDRNFNTFEGGDPLYHLFWFFGHPEVYIIPGFGSHSTYKKFGMYASMGLGFVWSHHMYVGLDDRAYFTSATMIAPTGMKFSWLATYGGRPMLAFLFLFTGGTGVLNASDAFHDTYYVVHFHYVLSMGAFSLAYYYWPGLYNWFWFNFPMHFLGGMPRRPYPDAGWNSGSSYQMGPDESNEPH'
p769
sg123
F0.069970000000000004
sg124
g125
sg33
S'141'
p770
sg127
g1
(g128
g12
(dp771
g130
I4
sg131
g132
sg133
g134
sg135
g132
sg136
I01
sg34
g137
sg138
g134
sg139
I0
sg140
I0
sg141
I0
sg142
g134
sg35
g143
sg144
I0
stRp772
sg146
g147
sg148
F1
sg149
Nsg30
S'CsakeA'
p773
sbasg120
g706
sg123
F0.048980000000000003
sg124
g125
sg33
S'142'
p774
sg127
g1
(g128
g12
(dp775
g130
I6
sg131
g132
sg133
g134
sg135
g132
sg136
I01
sg34
g174
sg138
g134
sg139
I0
sg140
I0
sg141
I0
sg142
g134
sg35
g175
sg144
I0
stRp776
sg146
g147
sg148
F0.98999999999999999
sg149
Nsg30
S'NoName'
p777
sbag1
(g2
g3
NtRp778
(dp779
g6
g1
(g7
g3
NtRp780
(dp781
g10
g1
(g11
g12
(dtRp782
sg14
g1
(g11
g12
(dtRp783
sg16
g1
(g11
g12
(dtRp784
sg18
g1
(g11
g12
(dtRp785
sg20
g1
(g11
g12
(dtRp786
sg22
g1
(g11
g12
(dtRp787
sbsg24
g25
sg26
g27
((lp788
g33
ag32
ag29
ag30
atRp789
sg37
(lp790
g1
(g2
g3
NtRp791
(dp792
g6
g1
(g7
g3
NtRp793
(dp794
g10
g1
(g11
g12
(dtRp795
sg14
g1
(g11
g12
(dtRp796
sg16
g1
(g11
g12
(dtRp797
sg18
g1
(g11
g12
(dtRp798
sg20
g1
(g11
g12
(dtRp799
sg22
g1
(g11
g12
(dtRp800
sbsg24
g25
sg26
g27
((lp801
g33
ag32
ag29
ag30
atRp802
sg37
(lp803
g1
(g2
g3
NtRp804
(dp805
g6
g1
(g7
g3
NtRp806
(dp807
g10
g1
(g11
g12
(dtRp808
sg14
g1
(g11
g12
(dtRp809
sg16
g1
(g11
g12
(dtRp810
sg18
g1
(g11
g12
(dtRp811
sg20
g1
(g11
g12
(dtRp812
sg22
g1
(g11
g12
(dtRp813
sbsg24
S'Mfa'
p814
sg26
g27
((lp815
g29
ag30
aS'sequence'
p816
ag32
ag33
aS'species'
p817
atRp818
sg37
(lp819
sg120
g791
sg121
S'RWLSTKDLYSRAELGNFNHNVHAMFVMPLGFGNPMGDMFARLNNSFWLPPLSLEGAGTGWTVYPPLSHSGPSVDLAFHLTSSLLGAMNFTNMRGPLFWTALLLLSLPVLAGTLLDRNFNTFEGGDPLYHLFWFFGHPEVYIIPGFGSHSTYKKFGMYASMGLGFVWSHHMYVGLDDRAYFTSATMMAPTGIKFSWLATYGGRPMLAFLFLFTGGTGVLNASDAFHDTYYMYHFHYVLSMGAFSLGYYYWPGLYNWFWFNFPMHFLGGMPRRPYPDAGWNSGSSKQLGPDESNEPH'
p820
sg123
F0.29086000000000001
sg124
g125
sg33
S'150'
p821
sg127
g1
(g128
g12
(dp822
g130
I4
sg131
g132
sg133
g134
sg135
g132
sg136
I01
sg34
g137
sg138
g134
sg139
I0
sg140
I0
sg141
I0
sg142
g134
sg35
g143
sg144
I0
stRp823
sg146
g147
sg148
F1
sg149
Nsg30
S'MfariA'
p824
sbag1
(g2
g3
NtRp825
(dp826
g6
g1
(g7
g3
NtRp827
(dp828
g10
g1
(g11
g12
(dtRp829
sg14
g1
(g11
g12
(dtRp830
sg16
g1
(g11
g12
(dtRp831
sg18
g1
(g11
g12
(dtRp832
sg20
g1
(g11
g12
(dtRp833
sg22
g1
(g11
g12
(dtRp834
sbsg24
S'Dha'
p835
sg26
g27
((lp836
g29
ag30
aS'sequence'
p837
ag32
ag33
aS'species'
p838
atRp839
sg37
(lp840
sg120
g791
sg121
S'RWLSTKDLYSRMELGNFNQNVHAMFIMPWGFGNPLGDMFARLNNSFWLPPLSLEGAGTGWTLYPPLSHSGPSVDLAFHLTSSLLGAMNFTNMRGPLFWTALLLLSLPVLAATLLDRNFNTFEGGDPLYHLFWFFGHPEVYIMPGFGSHSTYKKFGMYASIGLGFVWSHHMFVGLDDRAYFTSATMIAPTGIKFSWLATYGGRPMLAFLFLFTGGTGVLNASDAFHDTYYVVHFHYVLSMGAFSLAYYYWPGLYNLFWFNFPMHFLGGMPRRPYPDAGWNSGSSKQLGPDESNDPH'
p841
sg123
F0.11043
sg124
g125
sg33
S'153'
p842
sg127
g1
(g128
g12
(dp843
g130
I4
sg131
g132
sg133
g134
sg135
g132
sg136
I01
sg34
g137
sg138
g134
sg139
I0
sg140
I0
sg141
I0
sg142
g134
sg35
g143
sg144
I0
stRp844
sg146
g147
sg148
F1
sg149
Nsg30
S'DhansA'
p845
sbasg120
g778
sg123
F0.046699999999999998
sg124
g125
sg33
S'144'
p846
sg127
g1
(g128
g12
(dp847
g130
I6
sg131
g132
sg133
g134
sg135
g132
sg136
I01
sg34
g174
sg138
g134
sg139
I0
sg140
I0
sg141
I0
sg142
g134
sg35
g175
sg144
I0
stRp848
sg146
g147
sg148
F0.65000000000000002
sg149
Nsg30
S'NoName'
p849
sbag1
(g2
g3
NtRp850
(dp851
g6
g1
(g7
g3
NtRp852
(dp853
g10
g1
(g11
g12
(dtRp854
sg14
g1
(g11
g12
(dtRp855
sg16
g1
(g11
g12
(dtRp856
sg18
g1
(g11
g12
(dtRp857
sg20
g1
(g11
g12
(dtRp858
sg22
g1
(g11
g12
(dtRp859
sbsg24
g25
sg26
g27
((lp860
g33
ag32
ag29
ag30
atRp861
sg37
(lp862
g1
(g2
g3
NtRp863
(dp864
g6
g1
(g7
g3
NtRp865
(dp866
g10
g1
(g11
g12
(dtRp867
sg14
g1
(g11
g12
(dtRp868
sg16
g1
(g11
g12
(dtRp869
sg18
g1
(g11
g12
(dtRp870
sg20
g1
(g11
g12
(dtRp871
sg22
g1
(g11
g12
(dtRp872
sbsg24
S'Clu'
p873
sg26
g27
((lp874
g29
ag30
aS'sequence'
p875
ag32
ag33
aS'species'
p876
atRp877
sg37
(lp878
sg120
g850
sg121
S'RWLSTKDLYSRLELPDLNQNVHAMFVMPLGFGNPMGDMFARLNNSFWLPPLSLEGAGTGWTVYPPLSHSGPSVDLAFHLTSSLLGAINFTNMRGPLFWTALLLLSLPVLAGTLLDRNFNTFEGGDPLYHLFWFFGHPEVYMMPGFGSHSTYKKFGMYASMGLGFVWSHHMYVGLDDRAYFTSATMMAPTGMKFSWLATYGGRPMLAFLFLFTGGTGVLNASDAFHDTYYVVHFHYVLSMGAFSLGYYYWPGLYNWFWFNFPMHFLGGMPRRPYPDAGWNSGSSRQLGPDESNEPH'
p879
sg123
F0.037310000000000003
sg124
g125
sg33
S'146'
p880
sg127
g1
(g128
g12
(dp881
g130
I4
sg131
g132
sg133
g134
sg135
g132
sg136
I01
sg34
g137
sg138
g134
sg139
I0
sg140
I0
sg141
I0
sg142
g134
sg35
g143
sg144
I0
stRp882
sg146
g147
sg148
F1
sg149
Nsg30
S'ClusiA'
p883
sbag1
(g2
g3
NtRp884
(dp885
g6
g1
(g7
g3
NtRp886
(dp887
g10
g1
(g11
g12
(dtRp888
sg14
g1
(g11
g12
(dtRp889
sg16
g1
(g11
g12
(dtRp890
sg18
g1
(g11
g12
(dtRp891
sg20
g1
(g11
g12
(dtRp892
sg22
g1
(g11
g12
(dtRp893
sbsg24
g25
sg26
g27
((lp894
g33
ag32
ag29
ag30
atRp895
sg37
(lp896
g1
(g2
g3
NtRp897
(dp898
g6
g1
(g7
g3
NtRp899
(dp900
g10
g1
(g11
g12
(dtRp901
sg14
g1
(g11
g12
(dtRp902
sg16
g1
(g11
g12
(dtRp903
sg18
g1
(g11
g12
(dtRp904
sg20
g1
(g11
g12
(dtRp905
sg22
g1
(g11
g12
(dtRp906
sbsg24
S'Mgu'
p907
sg26
g27
((lp908
g29
ag30
aS'sequence'
p909
ag32
ag33
aS'species'
p910
atRp911
sg37
(lp912
sg120
g884
sg121
S'---------------------------------------------------------------------------------------------------------------------------------------------------------------------------------------------------------------------------------------HFHYVLSMGAFSLGYYYWPGLYNWFWFNFPMHFLGGMPRRPYPDAGWNSGSSKQLGPDESNEPH'
p913
sg123
F0.0044999999999999997
sg124
g125
sg33
S'152'
p914
sg127
g1
(g128
g12
(dp915
g130
I4
sg131
g132
sg133
g134
sg135
g132
sg136
I01
sg34
g137
sg138
g134
sg139
I0
sg140
I0
sg141
I0
sg142
g134
sg35
g143
sg144
I0
stRp916
sg146
g147
sg148
F1
sg149
Nsg30
S'MguilB'
p917
sbag1
(g2
g3
NtRp918
(dp919
g6
g1
(g7
g3
NtRp920
(dp921
g10
g1
(g11
g12
(dtRp922
sg14
g1
(g11
g12
(dtRp923
sg16
g1
(g11
g12
(dtRp924
sg18
g1
(g11
g12
(dtRp925
sg20
g1
(g11
g12
(dtRp926
sg22
g1
(g11
g12
(dtRp927
sbsg24
S'Mgu'
p928
sg26
g27
((lp929
g29
ag30
aS'sequence'
p930
ag32
ag33
aS'species'
p931
atRp932
sg37
(lp933
sg120
g884
sg121
S'RWLSTKDLYSRMELGNFNQNVHAMFVMPIGFGNPMGDMFARLNNSFWLPPLSLEGAGTGWTVYPPLSHSGPSVDMAFHLTSSLLGAMNFTNMRGPLFWTALLLLSLPVLAGTLLDRNFNTFEGGDPLYHLFWFFGHPEVYMMPGFGSHSTYKKFGMYASIGLGFVWSHHMYVGLDDRAYFTSATMMAPTGMKFSWLSTYGGRPMLAFLFLFTGGTGVLNASDAFHDTYYVVHFHYVLSMGAFSLGYYYWPGLYNWFWFNFPMHFLGGMPRRPYPDAGWNSGSSKQLGPDESNEPH'
p934
sg123
F0.0020100000000000001
sg124
g125
sg33
S'155'
p935
sg127
g1
(g128
g12
(dp936
g130
I4
sg131
g132
sg133
g134
sg135
g132
sg136
I01
sg34
g137
sg138
g134
sg139
I0
sg140
I0
sg141
I0
sg142
g134
sg35
g143
sg144
I0
stRp937
sg146
g147
sg148
F1
sg149
Nsg30
S'MguilA'
p938
sbasg120
g850
sg123
F0.25231999999999999
sg124
g125
sg33
S'149'
p939
sg127
g1
(g128
g12
(dp940
g130
I6
sg131
g132
sg133
g134
sg135
g132
sg136
I01
sg34
g174
sg138
g134
sg139
I0
sg140
I0
sg141
I0
sg142
g134
sg35
g175
sg144
I0
stRp941
sg146
g147
sg148
F0.98999999999999999
sg149
Nsg30
S'NoName'
p942
sbasg120
g778
sg123
F0.090679999999999997
sg124
g125
sg33
S'140'
p943
sg127
g1
(g128
g12
(dp944
g130
I6
sg131
g132
sg133
g134
sg135
g132
sg136
I01
sg34
g174
sg138
g134
sg139
I0
sg140
I0
sg141
I0
sg142
g134
sg35
g175
sg144
I0
stRp945
sg146
g147
sg148
F0.98999999999999999
sg149
Nsg30
S'NoName'
p946
sbasg120
g706
sg123
F0.032190000000000003
sg124
g125
sg33
S'133'
p947
sg127
g1
(g128
g12
(dp948
g130
I6
sg131
g132
sg133
g134
sg135
g132
sg136
I01
sg34
g174
sg138
g134
sg139
I0
sg140
I0
sg141
I0
sg142
g134
sg35
g175
sg144
I0
stRp949
sg146
g147
sg148
F0.64000000000000001
sg149
Nsg30
S'NoName'
p950
sbasg120
g693
sg123
F0.12181
sg124
g125
sg33
S'129'
p951
sg127
g1
(g128
g12
(dp952
g130
I6
sg131
g132
sg133
g134
sg135
g132
sg136
I01
sg34
g174
sg138
g134
sg139
I0
sg140
I0
sg141
I0
sg142
g134
sg35
g175
sg144
I0
stRp953
sg146
g147
sg148
F0.98999999999999999
sg149
Nsg30
S'NoName'
p954
sbag1
(g2
g3
NtRp955
(dp956
g6
g1
(g7
g3
NtRp957
(dp958
g10
g1
(g11
g12
(dtRp959
sg14
g1
(g11
g12
(dtRp960
sg16
g1
(g11
g12
(dtRp961
sg18
g1
(g11
g12
(dtRp962
sg20
g1
(g11
g12
(dtRp963
sg22
g1
(g11
g12
(dtRp964
sbsg24
g25
sg26
g27
((lp965
g33
ag32
ag29
ag30
atRp966
sg37
(lp967
g1
(g2
g3
NtRp968
(dp969
g6
g1
(g7
g3
NtRp970
(dp971
g10
g1
(g11
g12
(dtRp972
sg14
g1
(g11
g12
(dtRp973
sg16
g1
(g11
g12
(dtRp974
sg18
g1
(g11
g12
(dtRp975
sg20
g1
(g11
g12
(dtRp976
sg22
g1
(g11
g12
(dtRp977
sbsg24
g25
sg26
g27
((lp978
g33
ag32
ag29
ag30
atRp979
sg37
(lp980
g1
(g2
g3
NtRp981
(dp982
g6
g1
(g7
g3
NtRp983
(dp984
g10
g1
(g11
g12
(dtRp985
sg14
g1
(g11
g12
(dtRp986
sg16
g1
(g11
g12
(dtRp987
sg18
g1
(g11
g12
(dtRp988
sg20
g1
(g11
g12
(dtRp989
sg22
g1
(g11
g12
(dtRp990
sbsg24
S'Cbl'
p991
sg26
g27
((lp992
g29
ag30
aS'sequence'
p993
ag32
ag33
aS'species'
p994
atRp995
sg37
(lp996
sg120
g968
sg121
S'RWLSTKDLYSRLELANLNQNVHAMFVMPLGMGNPMGDMFARLNNSFWLPPLSLEGPGTGWTLYAPLSHSGPSVDMAFHLTSSLLGAINFTNMRGPLYWTALLLLSLPVLAATLLDRNFNTFEGGDPLYHLFWFFGHPEVYMIPGFGSHSTYKKFGMYASIGLGFVWSHHMYVGLDDRAYFTSATMIAPTGIKFSWMATYGGRPMLAFLFLFTGGTGVLNASDAFHDTYYVVHFHYVLSMGAFSLGYYYWPGLYNLFWFNFPMHFLGGMPRRPYPDAGWNSGSSYQLGPDESNEPH'
p997
sg123
F0.36785000000000001
sg124
g125
sg33
S'157'
p998
sg127
g1
(g128
g12
(dp999
g130
I4
sg131
g132
sg133
g134
sg135
g132
sg136
I01
sg34
g137
sg138
g134
sg139
I0
sg140
I0
sg141
I0
sg142
g134
sg35
g143
sg144
I0
stRp1000
sg146
g147
sg148
F1
sg149
Nsg30
S'CblacA'
p1001
sbag1
(g2
g3
NtRp1002
(dp1003
g6
g1
(g7
g3
NtRp1004
(dp1005
g10
g1
(g11
g12
(dtRp1006
sg14
g1
(g11
g12
(dtRp1007
sg16
g1
(g11
g12
(dtRp1008
sg18
g1
(g11
g12
(dtRp1009
sg20
g1
(g11
g12
(dtRp1010
sg22
g1
(g11
g12
(dtRp1011
sbsg24
g25
sg26
g27
((lp1012
g33
ag32
ag29
ag30
atRp1013
sg37
(lp1014
g1
(g2
g3
NtRp1015
(dp1016
g6
g1
(g7
g3
NtRp1017
(dp1018
g10
g1
(g11
g12
(dtRp1019
sg14
g1
(g11
g12
(dtRp1020
sg16
g1
(g11
g12
(dtRp1021
sg18
g1
(g11
g12
(dtRp1022
sg20
g1
(g11
g12
(dtRp1023
sg22
g1
(g11
g12
(dtRp1024
sbsg24
g25
sg26
g27
((lp1025
g33
ag32
ag29
ag30
atRp1026
sg37
(lp1027
g1
(g2
g3
NtRp1028
(dp1029
g6
g1
(g7
g3
NtRp1030
(dp1031
g10
g1
(g11
g12
(dtRp1032
sg14
g1
(g11
g12
(dtRp1033
sg16
g1
(g11
g12
(dtRp1034
sg18
g1
(g11
g12
(dtRp1035
sg20
g1
(g11
g12
(dtRp1036
sg22
g1
(g11
g12
(dtRp1037
sbsg24
g25
sg26
g27
((lp1038
g33
ag32
ag29
ag30
atRp1039
sg37
(lp1040
g1
(g2
g3
NtRp1041
(dp1042
g6
g1
(g7
g3
NtRp1043
(dp1044
g10
g1
(g11
g12
(dtRp1045
sg14
g1
(g11
g12
(dtRp1046
sg16
g1
(g11
g12
(dtRp1047
sg18
g1
(g11
g12
(dtRp1048
sg20
g1
(g11
g12
(dtRp1049
sg22
g1
(g11
g12
(dtRp1050
sbsg24
g25
sg26
g27
((lp1051
g33
ag32
ag29
ag30
atRp1052
sg37
(lp1053
g1
(g2
g3
NtRp1054
(dp1055
g6
g1
(g7
g3
NtRp1056
(dp1057
g10
g1
(g11
g12
(dtRp1058
sg14
g1
(g11
g12
(dtRp1059
sg16
g1
(g11
g12
(dtRp1060
sg18
g1
(g11
g12
(dtRp1061
sg20
g1
(g11
g12
(dtRp1062
sg22
g1
(g11
g12
(dtRp1063
sbsg24
S'Lel'
p1064
sg26
g27
((lp1065
g29
ag30
aS'sequence'
p1066
ag32
ag33
aS'species'
p1067
atRp1068
sg37
(lp1069
sg120
g1041
sg121
S'RWLSTKDLYSRLELPGLDQNVHAMFVMPLGFGNPMGDMFARLNNSFWLPPLSLEGAGTGWTVYPPLSHSGPSVDLAFHLTSSLLGAINFTNMRGPLYWTALLLFSLPVLAGTLLDRNFNTFDGGDPLYHLFWFFGHPEVYIIPGFGSHSTYKKFGMYASIGLGFVWSHHMYVGLDDRAYFTSATMIAPTGIKFSWLATYGGRPMLAFLFLFTGGTGVLNASDAFHDTYYTVHFHYVLSMGAFSLGYYYWYGLYNLFWFNFPMHFLGGMPRRPYPDAGWNSGSSYQLGPDESNEPH'
p1070
sg123
F0.18278
sg124
g125
sg33
S'206'
p1071
sg127
g1
(g128
g12
(dp1072
g130
I4
sg131
g132
sg133
g134
sg135
g132
sg136
I01
sg34
g137
sg138
g134
sg139
I0
sg140
I0
sg141
I0
sg142
g134
sg35
g143
sg144
I0
stRp1073
sg146
g147
sg148
F1
sg149
Nsg30
S'LelonA'
p1074
sbag1
(g2
g3
NtRp1075
(dp1076
g6
g1
(g7
g3
NtRp1077
(dp1078
g10
g1
(g11
g12
(dtRp1079
sg14
g1
(g11
g12
(dtRp1080
sg16
g1
(g11
g12
(dtRp1081
sg18
g1
(g11
g12
(dtRp1082
sg20
g1
(g11
g12
(dtRp1083
sg22
g1
(g11
g12
(dtRp1084
sbsg24
S'Cox'
p1085
sg26
g27
((lp1086
g29
ag30
aS'sequence'
p1087
ag32
ag33
aS'species'
p1088
atRp1089
sg37
(lp1090
sg120
g1041
sg121
S'RWLSTKDLYSRLELSGLDQNVHAMFVMPIGFGNPMGDMFARLNNSFWLPPLSLEGPGVGWTVYPPLSHSGPSVDLAFHLTSSLLGAINFTNMRGPLYWTALLLLSLPVLAGTLLDRNFNTFDGGDPLYHLFWFFGHPEVYMIPGFGSHATYKKFGMYASIGLGFVWSHHMYVGLDDRAYFTSATMIAPTGIKFSWLATYGGRPMLAFLFLFTGGTGILNASDAFHDTYYTVHFHYVLSMGAFSLGYYLWYGLYNIFWFNFPMHFLGGMPRRPYPDAGWNSGSSYQLGPDESNEPH'
p1091
sg123
F0.17860000000000001
sg124
g125
sg33
S'196'
p1092
sg127
g1
(g128
g12
(dp1093
g130
I4
sg131
g132
sg133
g134
sg135
g132
sg136
I01
sg34
g137
sg138
g134
sg139
I0
sg140
I0
sg141
I0
sg142
g134
sg35
g143
sg144
I0
stRp1094
sg146
g147
sg148
F1
sg149
Nsg30
S'CoxycA'
p1095
sbasg120
g1028
sg123
F0.041480000000000003
sg124
g125
sg33
S'192'
p1096
sg127
g1
(g128
g12
(dp1097
g130
I6
sg131
g132
sg133
g134
sg135
g132
sg136
I01
sg34
g174
sg138
g134
sg139
I0
sg140
I0
sg141
I0
sg142
g134
sg35
g175
sg144
I0
stRp1098
sg146
g147
sg148
F0.98999999999999999
sg149
Nsg30
S'NoName'
p1099
sbag1
(g2
g3
NtRp1100
(dp1101
g6
g1
(g7
g3
NtRp1102
(dp1103
g10
g1
(g11
g12
(dtRp1104
sg14
g1
(g11
g12
(dtRp1105
sg16
g1
(g11
g12
(dtRp1106
sg18
g1
(g11
g12
(dtRp1107
sg20
g1
(g11
g12
(dtRp1108
sg22
g1
(g11
g12
(dtRp1109
sbsg24
g25
sg26
g27
((lp1110
g33
ag32
ag29
ag30
atRp1111
sg37
(lp1112
g1
(g2
g3
NtRp1113
(dp1114
g6
g1
(g7
g3
NtRp1115
(dp1116
g10
g1
(g11
g12
(dtRp1117
sg14
g1
(g11
g12
(dtRp1118
sg16
g1
(g11
g12
(dtRp1119
sg18
g1
(g11
g12
(dtRp1120
sg20
g1
(g11
g12
(dtRp1121
sg22
g1
(g11
g12
(dtRp1122
sbsg24
g25
sg26
g27
((lp1123
g33
ag32
ag29
ag30
atRp1124
sg37
(lp1125
g1
(g2
g3
NtRp1126
(dp1127
g6
g1
(g7
g3
NtRp1128
(dp1129
g10
g1
(g11
g12
(dtRp1130
sg14
g1
(g11
g12
(dtRp1131
sg16
g1
(g11
g12
(dtRp1132
sg18
g1
(g11
g12
(dtRp1133
sg20
g1
(g11
g12
(dtRp1134
sg22
g1
(g11
g12
(dtRp1135
sbsg24
g25
sg26
g27
((lp1136
g33
ag32
ag29
ag30
atRp1137
sg37
(lp1138
g1
(g2
g3
NtRp1139
(dp1140
g6
g1
(g7
g3
NtRp1141
(dp1142
g10
g1
(g11
g12
(dtRp1143
sg14
g1
(g11
g12
(dtRp1144
sg16
g1
(g11
g12
(dtRp1145
sg18
g1
(g11
g12
(dtRp1146
sg20
g1
(g11
g12
(dtRp1147
sg22
g1
(g11
g12
(dtRp1148
sbsg24
S'Cth'
p1149
sg26
g27
((lp1150
g29
ag30
aS'sequence'
p1151
ag32
ag33
aS'species'
p1152
atRp1153
sg37
(lp1154
sg120
g1126
sg121
S'RWLSTKDLYSRLELPGLNQNVHAMFVMPLGFGNPMGDMFARLNNSFWLPPLSLEGAGTGWTVYPPLSHSGPSVDLAFHLTSSLLGAINFTNMRGPLYWTALLLLSLPVLAGTLLDRNFNTFEGGDPLYHLFWFFGHPEVYIIPGFGSHSTYKKFGMYASIGLGFVWSHHMYVGLDDRAYFTSATMIAPTGIKFSWLATYGGRPMLAFLFLFTGGTGVLNASDAFHDTYYTVHFHYVLSMGAFSLGYYYWYGLYNLFWFNFPMHFLGGMPRRPYPDAGWNSGSSYQLGPDESNEPH'
p1155
sg123
F0.010059999999999999
sg124
g125
sg33
S'124'
p1156
sg127
g1
(g128
g12
(dp1157
g130
I4
sg131
g132
sg133
g134
sg135
g132
sg136
I01
sg34
g137
sg138
g134
sg139
I0
sg140
I0
sg141
I0
sg142
g134
sg35
g143
sg144
I0
stRp1158
sg146
g147
sg148
F1
sg149
Nsg30
S'CtheaA'
p1159
sbag1
(g2
g3
NtRp1160
(dp1161
g6
g1
(g7
g3
NtRp1162
(dp1163
g10
g1
(g11
g12
(dtRp1164
sg14
g1
(g11
g12
(dtRp1165
sg16
g1
(g11
g12
(dtRp1166
sg18
g1
(g11
g12
(dtRp1167
sg20
g1
(g11
g12
(dtRp1168
sg22
g1
(g11
g12
(dtRp1169
sbsg24
g25
sg26
g27
((lp1170
g33
ag32
ag29
ag30
atRp1171
sg37
(lp1172
g1
(g2
g3
NtRp1173
(dp1174
g6
g1
(g7
g3
NtRp1175
(dp1176
g10
g1
(g11
g12
(dtRp1177
sg14
g1
(g11
g12
(dtRp1178
sg16
g1
(g11
g12
(dtRp1179
sg18
g1
(g11
g12
(dtRp1180
sg20
g1
(g11
g12
(dtRp1181
sg22
g1
(g11
g12
(dtRp1182
sbsg24
g25
sg26
g27
((lp1183
g33
ag32
ag29
ag30
atRp1184
sg37
(lp1185
g1
(g2
g3
NtRp1186
(dp1187
g6
g1
(g7
g3
NtRp1188
(dp1189
g10
g1
(g11
g12
(dtRp1190
sg14
g1
(g11
g12
(dtRp1191
sg16
g1
(g11
g12
(dtRp1192
sg18
g1
(g11
g12
(dtRp1193
sg20
g1
(g11
g12
(dtRp1194
sg22
g1
(g11
g12
(dtRp1195
sbsg24
g25
sg26
g27
((lp1196
g33
ag32
ag29
ag30
atRp1197
sg37
(lp1198
g1
(g2
g3
NtRp1199
(dp1200
g6
g1
(g7
g3
NtRp1201
(dp1202
g10
g1
(g11
g12
(dtRp1203
sg14
g1
(g11
g12
(dtRp1204
sg16
g1
(g11
g12
(dtRp1205
sg18
g1
(g11
g12
(dtRp1206
sg20
g1
(g11
g12
(dtRp1207
sg22
g1
(g11
g12
(dtRp1208
sbsg24
S'Cor'
p1209
sg26
g27
((lp1210
g29
ag30
aS'sequence'
p1211
ag32
ag33
aS'species'
p1212
atRp1213
sg37
(lp1214
sg120
g1186
sg121
S'RWLSTKDLYSRLELPGLNQNVHAMFVMPLGFGNPMGDMFARLNNSFWLPPLSLEGAGTGWTVYPPLSHSGPSVDLAFHLTSSLLGAINFTNMRGPLFWTALLLLSLPVLAGTLLDRNFNTFEGGDPLYHLFWFFGHPEVYIIPGFGSHSTYKKFGMYASIGLGFVWSHHMYVGLDDRAYFTSATMIAPTGIKFSWLATYGGRPMLAFLFLFTGGTGVLNASDAFHDTYYTVHFHYVLSMGAFSLGYYYWYGLYNLFWFNFPMHFLGGMPRRPYPDAGWNSGSSYQLGPDESNEPH'
p1215
sg123
F0.00132
sg124
g125
sg33
S'120'
p1216
sg127
g1
(g128
g12
(dp1217
g130
I4
sg131
g132
sg133
g134
sg135
g132
sg136
I01
sg34
g137
sg138
g134
sg139
I0
sg140
I0
sg141
I0
sg142
g134
sg35
g143
sg144
I0
stRp1218
sg146
g147
sg148
F1
sg149
Nsg30
S'CorthC'
p1219
sbag1
(g2
g3
NtRp1220
(dp1221
g6
g1
(g7
g3
NtRp1222
(dp1223
g10
g1
(g11
g12
(dtRp1224
sg14
g1
(g11
g12
(dtRp1225
sg16
g1
(g11
g12
(dtRp1226
sg18
g1
(g11
g12
(dtRp1227
sg20
g1
(g11
g12
(dtRp1228
sg22
g1
(g11
g12
(dtRp1229
sbsg24
S'Cor'
p1230
sg26
g27
((lp1231
g29
ag30
aS'sequence'
p1232
ag32
ag33
aS'species'
p1233
atRp1234
sg37
(lp1235
sg120
g1186
sg121
S'RWLSTKDLYSRLELPGLNQNVHAMFVMPLGFGNPMGDMFARLNNSFWLPPLSLEGAGTGWTVYPPLSHSGPSVDLAFHLTSSLLGAINFTNMRGPLFWTALLLLSLPVLAGTLLDRNFNTFEGGDPLYHLFWFFGHPEVYIIPGFGSHSTYKKFGMYASIGLGFVWSHHMYVGLDDRAYFTSATMIAPTGIKFSWLATYGGRPMLAFLFLFTGGTGVLNASDAFHDTYYTVHFHYVLSMGAFSLGYYYWYGLYNLFWFNFPMHFLGGMPRRPYPDAGWNSGSSYQLGPDESNEPH'
p1236
sg123
F0.00093000000000000005
sg124
g125
sg33
S'126'
p1237
sg127
g1
(g128
g12
(dp1238
g130
I4
sg131
g132
sg133
g134
sg135
g132
sg136
I01
sg34
g137
sg138
g134
sg139
I0
sg140
I0
sg141
I0
sg142
g134
sg35
g143
sg144
I0
stRp1239
sg146
g147
sg148
F1
sg149
Nsg30
S'CorthB'
p1240
sbasg120
g1173
sg123
F0.00052999999999999998
sg124
g125
sg33
S'121'
p1241
sg127
g1
(g128
g12
(dp1242
g130
I6
sg131
g132
sg133
g134
sg135
g132
sg136
I01
sg34
g174
sg138
g134
sg139
I0
sg140
I0
sg141
I0
sg142
g134
sg35
g175
sg144
I0
stRp1243
sg146
g147
sg148
F0.85999999999999999
sg149
Nsg30
S'NoName'
p1244
sbag1
(g2
g3
NtRp1245
(dp1246
g6
g1
(g7
g3
NtRp1247
(dp1248
g10
g1
(g11
g12
(dtRp1249
sg14
g1
(g11
g12
(dtRp1250
sg16
g1
(g11
g12
(dtRp1251
sg18
g1
(g11
g12
(dtRp1252
sg20
g1
(g11
g12
(dtRp1253
sg22
g1
(g11
g12
(dtRp1254
sbsg24
S'Cor'
p1255
sg26
g27
((lp1256
g29
ag30
aS'sequence'
p1257
ag32
ag33
aS'species'
p1258
atRp1259
sg37
(lp1260
sg120
g1173
sg121
S'RWLSTKDLYSRLELPGLNQNVHAMFVMPLGFGNPMGDMFARLNNSFWLPPLSLEGAGTGWTVYPPLSHSGPSVDLAFHLTSSLLGAINFTNMRGPLFWTALLLLSLPVLAGTLLDRNFNTFEGGDPLYHLFWFFGHPEVYIIPGFGSHSTYKKFGMYASIGLGFVWSHHMYVGLDDRAYFTSATMIAPTGIKFSWLATYGGRPMLAFLFLFTGGTGVLNASDAFHDTYYTVHFHYVLSMGAFSLGYYYWYGLYNLFWFNFPMHFLGGMPRRPYPDAGWNSGSSYQLGPDESNEPH'
p1261
sg123
F0.0021099999999999999
sg124
g125
sg33
S'130'
p1262
sg127
g1
(g128
g12
(dp1263
g130
I4
sg131
g132
sg133
g134
sg135
g132
sg136
I01
sg34
g137
sg138
g134
sg139
I0
sg140
I0
sg141
I0
sg142
g134
sg35
g143
sg144
I0
stRp1264
sg146
g147
sg148
F1
sg149
Nsg30
S'CorthA'
p1265
sbasg120
g1160
sg123
F0.0031199999999999999
sg124
g125
sg33
S'13'
p1266
sg127
g1
(g128
g12
(dp1267
g130
I6
sg131
g132
sg133
g134
sg135
g132
sg136
I01
sg34
g174
sg138
g134
sg139
I0
sg140
I0
sg141
I0
sg142
g134
sg35
g175
sg144
I0
stRp1268
sg146
g147
sg148
F0.98999999999999999
sg149
Nsg30
S'NoName'
p1269
sbag1
(g2
g3
NtRp1270
(dp1271
g6
g1
(g7
g3
NtRp1272
(dp1273
g10
g1
(g11
g12
(dtRp1274
sg14
g1
(g11
g12
(dtRp1275
sg16
g1
(g11
g12
(dtRp1276
sg18
g1
(g11
g12
(dtRp1277
sg20
g1
(g11
g12
(dtRp1278
sg22
g1
(g11
g12
(dtRp1279
sbsg24
g25
sg26
g27
((lp1280
g33
ag32
ag29
ag30
atRp1281
sg37
(lp1282
g1
(g2
g3
NtRp1283
(dp1284
g6
g1
(g7
g3
NtRp1285
(dp1286
g10
g1
(g11
g12
(dtRp1287
sg14
g1
(g11
g12
(dtRp1288
sg16
g1
(g11
g12
(dtRp1289
sg18
g1
(g11
g12
(dtRp1290
sg20
g1
(g11
g12
(dtRp1291
sg22
g1
(g11
g12
(dtRp1292
sbsg24
g25
sg26
g27
((lp1293
g33
ag32
ag29
ag30
atRp1294
sg37
(lp1295
g1
(g2
g3
NtRp1296
(dp1297
g6
g1
(g7
g3
NtRp1298
(dp1299
g10
g1
(g11
g12
(dtRp1300
sg14
g1
(g11
g12
(dtRp1301
sg16
g1
(g11
g12
(dtRp1302
sg18
g1
(g11
g12
(dtRp1303
sg20
g1
(g11
g12
(dtRp1304
sg22
g1
(g11
g12
(dtRp1305
sbsg24
S'Cpa'
p1306
sg26
g27
((lp1307
g29
ag30
aS'sequence'
p1308
ag32
ag33
aS'species'
p1309
atRp1310
sg37
(lp1311
sg120
g1283
sg121
S'RWLSTKDLYSRLELPGLNQNVHAMFVMPLGFGNPMGDMFARLNNSFWLPPLSLEGAGTGWTVYPPLSHSGPSVDLAFHLTSSLLGAINFTNMRGPLFWTALLLLSLPVLAGTLLDRNFNTFEGGDPLYHLFWFFGHPEVYIIPGFGSHSTYKKFGMYASIGLGFVWSHHMYVGLDDRAYFTSATMIAPTSIKFSWLATYGGRTALAFIFLFTGGTGVLNSADPFHDSYYVVHFHYVLSMGAFSIGWYLWPGLYNLFWFNFPMHFLGGMPRRNYPDAGWNSGSAYQLGPSGTNEPH'
p1312
sg123
F0.00012999999999999999
sg124
g125
sg33
S'143'
p1313
sg127
g1
(g128
g12
(dp1314
g130
I4
sg131
g132
sg133
g134
sg135
g132
sg136
I01
sg34
g137
sg138
g134
sg139
I0
sg140
I0
sg141
I0
sg142
g134
sg35
g143
sg144
I0
stRp1315
sg146
g147
sg148
F1
sg149
Nsg30
S'CparaD'
p1316
sbag1
(g2
g3
NtRp1317
(dp1318
g6
g1
(g7
g3
NtRp1319
(dp1320
g10
g1
(g11
g12
(dtRp1321
sg14
g1
(g11
g12
(dtRp1322
sg16
g1
(g11
g12
(dtRp1323
sg18
g1
(g11
g12
(dtRp1324
sg20
g1
(g11
g12
(dtRp1325
sg22
g1
(g11
g12
(dtRp1326
sbsg24
S'Cpa'
p1327
sg26
g27
((lp1328
g29
ag30
aS'sequence'
p1329
ag32
ag33
aS'species'
p1330
atRp1331
sg37
(lp1332
sg120
g1283
sg121
S'RWLSTKDLYSRLELPGLNQNVHAMFVMPLGFGNPMGDMFARLNNSFWLPPLSLEGAGTGWTVYPPLSHSGPSVDLAFHLTSSLLGAINFTNMRGPLFWTALLLLSLPVLAGTLLDRNFNTFEGGDPLYHLFWFFGHPEVYIIPGFGSHSTYKKFGMYASIGLGFVWSHHMYVGLDDRAYFTSATMIAPTGIKFSWLATYGGRPMLAFLFLFTGGTGVVNASDAFHDTYYVVHFHYVLSMGAFSLGYYYWYGLYNLFWFNFPMHFLGGMPRRPYPDAGWNSGSSYSLGPDESNEPH'
p1333
sg123
F0.00012999999999999999
sg124
g125
sg33
S'131'
p1334
sg127
g1
(g128
g12
(dp1335
g130
I4
sg131
g132
sg133
g134
sg135
g132
sg136
I01
sg34
g137
sg138
g134
sg139
I0
sg140
I0
sg141
I0
sg142
g134
sg35
g143
sg144
I0
stRp1336
sg146
g147
sg148
F1
sg149
Nsg30
S'CparaB'
p1337
sbasg120
g1270
sg123
F0.00051000000000000004
sg124
g125
sg33
S'92'
p1338
sg127
g1
(g128
g12
(dp1339
g130
I6
sg131
g132
sg133
g134
sg135
g132
sg136
I01
sg34
g174
sg138
g134
sg139
I0
sg140
I0
sg141
I0
sg142
g134
sg35
g175
sg144
I0
stRp1340
sg146
g147
sg148
F0.98999999999999999
sg149
Nsg30
S'NoName'
p1341
sbag1
(g2
g3
NtRp1342
(dp1343
g6
g1
(g7
g3
NtRp1344
(dp1345
g10
g1
(g11
g12
(dtRp1346
sg14
g1
(g11
g12
(dtRp1347
sg16
g1
(g11
g12
(dtRp1348
sg18
g1
(g11
g12
(dtRp1349
sg20
g1
(g11
g12
(dtRp1350
sg22
g1
(g11
g12
(dtRp1351
sbsg24
S'Cpa'
p1352
sg26
g27
((lp1353
g29
ag30
aS'sequence'
p1354
ag32
ag33
aS'species'
p1355
atRp1356
sg37
(lp1357
sg120
g1270
sg121
S'RWLSTKDLYSRLELPGLNQNVHAMFVMPLGFGNPMGDMFARLNNSFWLPPLSLEGAGTGWTVYPPLSHSGPSVDLAFHLTSSLLGAINFTNMRGPLFWTALLLLSLPVLAGTLLDRNFNTFEGGDPLYHLFWFFGHPEVYIIPGFGSHSTYKKFGMYASIGLGFVWSHHMYVGLDDRAYFTSATMIAPTGIKFSWLATYGGRPMLAFLFLFTGGTGVVNASDAFHDTYYVVHFHYVLSMGAFSLGYYYWYGLYNLFWFNFPMHFLGGMPRRPYPDAGWNSGSSYSLGPDESNEPH'
p1358
sg123
F0.00012
sg124
g125
sg33
S'137'
p1359
sg127
g1
(g128
g12
(dp1360
g130
I4
sg131
g132
sg133
g134
sg135
g132
sg136
I01
sg34
g137
sg138
g134
sg139
I0
sg140
I0
sg141
I0
sg142
g134
sg35
g143
sg144
I0
stRp1361
sg146
g147
sg148
F1
sg149
Nsg30
S'CparaC'
p1362
sbasg120
g1160
sg123
F1.0000000000000001e-05
sg124
g125
sg33
S'122'
p1363
sg127
g1
(g128
g12
(dp1364
g130
I6
sg131
g132
sg133
g134
sg135
g132
sg136
I01
sg34
g174
sg138
g134
sg139
I0
sg140
I0
sg141
I0
sg142
g134
sg35
g175
sg144
I0
stRp1365
sg146
g147
sg148
F1
sg149
Nsg30
S'NoName'
p1366
sbasg120
g1126
sg123
F0.0032599999999999999
sg124
g125
sg33
S'204'
p1367
sg127
g1
(g128
g12
(dp1368
g130
I6
sg131
g132
sg133
g134
sg135
g132
sg136
I01
sg34
g174
sg138
g134
sg139
I0
sg140
I0
sg141
I0
sg142
g134
sg35
g175
sg144
I0
stRp1369
sg146
g147
sg148
F0.97999999999999998
sg149
Nsg30
S'NoName'
p1370
sbasg120
g1113
sg123
F1.0000000000000001e-05
sg124
g125
sg33
S'200'
p1371
sg127
g1
(g128
g12
(dp1372
g130
I6
sg131
g132
sg133
g134
sg135
g132
sg136
I01
sg34
g174
sg138
g134
sg139
I0
sg140
I0
sg141
I0
sg142
g134
sg35
g175
sg144
I0
stRp1373
sg146
g147
sg148
F1
sg149
Nsg30
S'NoName'
p1374
sbag1
(g2
g3
NtRp1375
(dp1376
g6
g1
(g7
g3
NtRp1377
(dp1378
g10
g1
(g11
g12
(dtRp1379
sg14
g1
(g11
g12
(dtRp1380
sg16
g1
(g11
g12
(dtRp1381
sg18
g1
(g11
g12
(dtRp1382
sg20
g1
(g11
g12
(dtRp1383
sg22
g1
(g11
g12
(dtRp1384
sbsg24
g25
sg26
g27
((lp1385
g33
ag32
ag29
ag30
atRp1386
sg37
(lp1387
g1
(g2
g3
NtRp1388
(dp1389
g6
g1
(g7
g3
NtRp1390
(dp1391
g10
g1
(g11
g12
(dtRp1392
sg14
g1
(g11
g12
(dtRp1393
sg16
g1
(g11
g12
(dtRp1394
sg18
g1
(g11
g12
(dtRp1395
sg20
g1
(g11
g12
(dtRp1396
sg22
g1
(g11
g12
(dtRp1397
sbsg24
g25
sg26
g27
((lp1398
g33
ag32
ag29
ag30
atRp1399
sg37
(lp1400
g1
(g2
g3
NtRp1401
(dp1402
g6
g1
(g7
g3
NtRp1403
(dp1404
g10
g1
(g11
g12
(dtRp1405
sg14
g1
(g11
g12
(dtRp1406
sg16
g1
(g11
g12
(dtRp1407
sg18
g1
(g11
g12
(dtRp1408
sg20
g1
(g11
g12
(dtRp1409
sg22
g1
(g11
g12
(dtRp1410
sbsg24
g25
sg26
g27
((lp1411
g33
ag32
ag29
ag30
atRp1412
sg37
(lp1413
g1
(g2
g3
NtRp1414
(dp1415
g6
g1
(g7
g3
NtRp1416
(dp1417
g10
g1
(g11
g12
(dtRp1418
sg14
g1
(g11
g12
(dtRp1419
sg16
g1
(g11
g12
(dtRp1420
sg18
g1
(g11
g12
(dtRp1421
sg20
g1
(g11
g12
(dtRp1422
sg22
g1
(g11
g12
(dtRp1423
sbsg24
g25
sg26
g27
((lp1424
g33
ag32
ag29
ag30
atRp1425
sg37
(lp1426
g1
(g2
g3
NtRp1427
(dp1428
g6
g1
(g7
g3
NtRp1429
(dp1430
g10
g1
(g11
g12
(dtRp1431
sg14
g1
(g11
g12
(dtRp1432
sg16
g1
(g11
g12
(dtRp1433
sg18
g1
(g11
g12
(dtRp1434
sg20
g1
(g11
g12
(dtRp1435
sg22
g1
(g11
g12
(dtRp1436
sbsg24
g25
sg26
g27
((lp1437
g33
ag32
ag29
ag30
atRp1438
sg37
(lp1439
g1
(g2
g3
NtRp1440
(dp1441
g6
g1
(g7
g3
NtRp1442
(dp1443
g10
g1
(g11
g12
(dtRp1444
sg14
g1
(g11
g12
(dtRp1445
sg16
g1
(g11
g12
(dtRp1446
sg18
g1
(g11
g12
(dtRp1447
sg20
g1
(g11
g12
(dtRp1448
sg22
g1
(g11
g12
(dtRp1449
sbsg24
S'Cme'
p1450
sg26
g27
((lp1451
g29
ag30
aS'sequence'
p1452
ag32
ag33
aS'species'
p1453
atRp1454
sg37
(lp1455
sg120
g1427
sg121
S'RWLSTKDLYSRLELPGLNQNVHAMFVMPLGFGNPMGDMFARLNNSFWLPPLSLEGAGTGWTVYPPLSHSGPSVDLAFHLTSSLLGAINFTNMRGPLYWTALLLLSLPVLAGTLLDRNFNTFEGGDPLYHLFWFFGHPEVYIIPGFGSHSTYKKFGMYASIGLGFVWSHHMYVGLDDRAYFTSATMIAPTGIKFSWLATYGGRPMLAFLFLFTGGTGVLNASDAFHDTYYVVHFHYVLSMGAFSLGYYYWYGLYNLFWFNFPMHFLGGMPRRPYPDAGWNSGSSYQLGPDESNEPH'
p1456
sg123
F0.00012999999999999999
sg124
g125
sg33
S'214'
p1457
sg127
g1
(g128
g12
(dp1458
g130
I4
sg131
g132
sg133
g134
sg135
g132
sg136
I01
sg34
g137
sg138
g134
sg139
I0
sg140
I0
sg141
I0
sg142
g134
sg35
g143
sg144
I0
stRp1459
sg146
g147
sg148
F1
sg149
Nsg30
S'CmetaF'
p1460
sbag1
(g2
g3
NtRp1461
(dp1462
g6
g1
(g7
g3
NtRp1463
(dp1464
g10
g1
(g11
g12
(dtRp1465
sg14
g1
(g11
g12
(dtRp1466
sg16
g1
(g11
g12
(dtRp1467
sg18
g1
(g11
g12
(dtRp1468
sg20
g1
(g11
g12
(dtRp1469
sg22
g1
(g11
g12
(dtRp1470
sbsg24
S'Cme'
p1471
sg26
g27
((lp1472
g29
ag30
aS'sequence'
p1473
ag32
ag33
aS'species'
p1474
atRp1475
sg37
(lp1476
sg120
g1427
sg121
S'RWLSTKDLYSRLELPGLNQNVHAMFVMPLGFGNPMGDMFARLNNSFWLPPLSLEGAGTGWTVYPPLSHSGPSVDLAFHLTSSLLGAINFTNMRGPLYWTALLLLSLPVLAGTLLDRNFNTFEGGDPLYHLFWFFGHPEVYIIPGFGSHSTYKKFGMYASIGLGFVWSHHMYVGLDDRAYFTSATMIAPTGIKFSWLATYGGRPMLAFLFLFTGGTGVLNASDAFHDTYYVVHFHYVLSMGAFSLGYYYWYGLYNLFWFNFPMHFLGGMPRRPYPDAGWNSGSSYQLGPDESNEPH'
p1477
sg123
F0.00012
sg124
g125
sg33
S'205'
p1478
sg127
g1
(g128
g12
(dp1479
g130
I4
sg131
g132
sg133
g134
sg135
g132
sg136
I01
sg34
g137
sg138
g134
sg139
I0
sg140
I0
sg141
I0
sg142
g134
sg35
g143
sg144
I0
stRp1480
sg146
g147
sg148
F1
sg149
Nsg30
S'CmetaE'
p1481
sbasg120
g1414
sg123
F1.0000000000000001e-05
sg124
g125
sg33
S'194'
p1482
sg127
g1
(g128
g12
(dp1483
g130
I6
sg131
g132
sg133
g134
sg135
g132
sg136
I01
sg34
g174
sg138
g134
sg139
I0
sg140
I0
sg141
I0
sg142
g134
sg35
g175
sg144
I0
stRp1484
sg146
g147
sg148
F1
sg149
Nsg30
S'NoName'
p1485
sbag1
(g2
g3
NtRp1486
(dp1487
g6
g1
(g7
g3
NtRp1488
(dp1489
g10
g1
(g11
g12
(dtRp1490
sg14
g1
(g11
g12
(dtRp1491
sg16
g1
(g11
g12
(dtRp1492
sg18
g1
(g11
g12
(dtRp1493
sg20
g1
(g11
g12
(dtRp1494
sg22
g1
(g11
g12
(dtRp1495
sbsg24
S'Cme'
p1496
sg26
g27
((lp1497
g29
ag30
aS'sequence'
p1498
ag32
ag33
aS'species'
p1499
atRp1500
sg37
(lp1501
sg120
g1414
sg121
S'RWLSTKDLYSRLELPGLNQNVHAMFVMPLGFGNPMGDMFARLNNSFWLPPLSLEGAGTGWTVYPPLSHSGPSVDLAFHLTSSLLGAINFTNMRGPLYWTALLLLSLPVLAGTLLDRNFNTFEGGDPLYHLFWFFGHPEVYIIPGFGSHSTYKKFGMYASIGLGFVWSHHMYVGLDDRAYFTSATMIAPTGIKFSWLATYGGRPMLAFLFLFTGGTGVLNASDAFHDTYYVVHFHYVLSMGAFSLGYYYWYGLYNLFWFNFPMHFLGGMPRRPYPDAGWNSGSSYQLGPDESNEPH'
p1502
sg123
F0.00020000000000000001
sg124
g125
sg33
S'190'
p1503
sg127
g1
(g128
g12
(dp1504
g130
I4
sg131
g132
sg133
g134
sg135
g132
sg136
I01
sg34
g137
sg138
g134
sg139
I0
sg140
I0
sg141
I0
sg142
g134
sg35
g143
sg144
I0
stRp1505
sg146
g147
sg148
F1
sg149
Nsg30
S'CmetaD'
p1506
sbasg120
g1401
sg123
F1.0000000000000001e-05
sg124
g125
sg33
S'139'
p1507
sg127
g1
(g128
g12
(dp1508
g130
I6
sg131
g132
sg133
g134
sg135
g132
sg136
I01
sg34
g174
sg138
g134
sg139
I0
sg140
I0
sg141
I0
sg142
g134
sg35
g175
sg144
I0
stRp1509
sg146
g147
sg148
F1
sg149
Nsg30
S'NoName'
p1510
sbag1
(g2
g3
NtRp1511
(dp1512
g6
g1
(g7
g3
NtRp1513
(dp1514
g10
g1
(g11
g12
(dtRp1515
sg14
g1
(g11
g12
(dtRp1516
sg16
g1
(g11
g12
(dtRp1517
sg18
g1
(g11
g12
(dtRp1518
sg20
g1
(g11
g12
(dtRp1519
sg22
g1
(g11
g12
(dtRp1520
sbsg24
S'Cme'
p1521
sg26
g27
((lp1522
g29
ag30
aS'sequence'
p1523
ag32
ag33
aS'species'
p1524
atRp1525
sg37
(lp1526
sg120
g1401
sg121
S'RWLSTKDLYSRLELPGLNQNVHAMFVMPLGFGNPMGDMFARLNNSFWLPPLSLEGAGTGWTVYPPLSHSGPSVDLAFHLTSSLLGAINFTNMRGPLYWTALLLLSLPVLAGTLLDRNFNTFEGGDPLYHLFWFFGHPEVYIIPGFGSHSTYKKFGMYASIGLGFVWSHHMYVGLDDRAYFTSATMIAPTGIKFSWLATYGGRPMLAFLFLFTGGTGVLNASDAFHDTYYVVHFHYVLSMGAFSLGYYYWYGLYNLFWFNFPMHFLGGMPRRPYPDAGWNSGSSYQLGPDESNEPH'
p1527
sg123
F0.00052999999999999998
sg124
g125
sg33
S'138'
p1528
sg127
g1
(g128
g12
(dp1529
g130
I4
sg131
g132
sg133
g134
sg135
g132
sg136
I01
sg34
g137
sg138
g134
sg139
I0
sg140
I0
sg141
I0
sg142
g134
sg35
g143
sg144
I0
stRp1530
sg146
g147
sg148
F1
sg149
Nsg30
S'CmetaC'
p1531
sbasg120
g1388
sg123
F1.0000000000000001e-05
sg124
g125
sg33
S'168'
p1532
sg127
g1
(g128
g12
(dp1533
g130
I6
sg131
g132
sg133
g134
sg135
g132
sg136
I01
sg34
g174
sg138
g134
sg139
I0
sg140
I0
sg141
I0
sg142
g134
sg35
g175
sg144
I0
stRp1534
sg146
g147
sg148
F1
sg149
Nsg30
S'NoName'
p1535
sbag1
(g2
g3
NtRp1536
(dp1537
g6
g1
(g7
g3
NtRp1538
(dp1539
g10
g1
(g11
g12
(dtRp1540
sg14
g1
(g11
g12
(dtRp1541
sg16
g1
(g11
g12
(dtRp1542
sg18
g1
(g11
g12
(dtRp1543
sg20
g1
(g11
g12
(dtRp1544
sg22
g1
(g11
g12
(dtRp1545
sbsg24
S'Cme'
p1546
sg26
g27
((lp1547
g29
ag30
aS'sequence'
p1548
ag32
ag33
aS'species'
p1549
atRp1550
sg37
(lp1551
sg120
g1388
sg121
S'RWLSTKDLYSRLELPGLNQNVHAMFVMPLGFGNPMGDMFARLNNSFWLPPLSLEGAGTGWTVYPPLSHSGPSVDLAFHLTSSLLGAINFTNMRGPLYWTALLLLSLPVLAGTLLDRNFNTFEGGDPLYHLFWFFGHPEVYIIPGFGSHSTYKKFGMYASIGLGFVWSHHMYVGLDDRAYFTSATMIAPTGIKFSWLATYGGRPMLAFLFLFTGGTGVLNASDAFHDTYYVVHFHYVLSMGAFSLGYYYWYGLYNLFWFNFPMHFLGGMPRRPYPDAGWNSGSSYQLGPDESNEPH'
p1552
sg123
F0.00012
sg124
g125
sg33
S'147'
p1553
sg127
g1
(g128
g12
(dp1554
g130
I4
sg131
g132
sg133
g134
sg135
g132
sg136
I01
sg34
g137
sg138
g134
sg139
I0
sg140
I0
sg141
I0
sg142
g134
sg35
g143
sg144
I0
stRp1555
sg146
g147
sg148
F1
sg149
Nsg30
S'CmetaB'
p1556
sbasg120
g1375
sg123
F1.0000000000000001e-05
sg124
g125
sg33
S'159'
p1557
sg127
g1
(g128
g12
(dp1558
g130
I6
sg131
g132
sg133
g134
sg135
g132
sg136
I01
sg34
g174
sg138
g134
sg139
I0
sg140
I0
sg141
I0
sg142
g134
sg35
g175
sg144
I0
stRp1559
sg146
g147
sg148
F1
sg149
Nsg30
S'NoName'
p1560
sbag1
(g2
g3
NtRp1561
(dp1562
g6
g1
(g7
g3
NtRp1563
(dp1564
g10
g1
(g11
g12
(dtRp1565
sg14
g1
(g11
g12
(dtRp1566
sg16
g1
(g11
g12
(dtRp1567
sg18
g1
(g11
g12
(dtRp1568
sg20
g1
(g11
g12
(dtRp1569
sg22
g1
(g11
g12
(dtRp1570
sbsg24
S'Cme'
p1571
sg26
g27
((lp1572
g29
ag30
aS'sequence'
p1573
ag32
ag33
aS'species'
p1574
atRp1575
sg37
(lp1576
sg120
g1375
sg121
S'RWLSTKDLYSRLELPGLNQNVHAMFVMPLGFGNPMGDMFARLNNSFWLPPLSLEGAGTGWTVYPPLSHSGPSVDLAFHLTSSLLGAINFTNMRGPLYWTALLLLSLPVLAGTLLDRNFNTFEGGDPLYHLFWFFGHPEVYIIPGFGSHSTYKKFGMYASIGLGFVWSHHMYVGLDDRAYFTSATMIAPTGIKFSWLATYGGRPMLAFLFLFTGGTGVLNASDAFHDTYYVVHFHYVLSMGAFSLGYYYWYGLYNLFWFNFPMHFLGGMPRRPYPDAGWNSGSSYQLGPDESNEPH'
p1577
sg123
F0.00012999999999999999
sg124
g125
sg33
S'176'
p1578
sg127
g1
(g128
g12
(dp1579
g130
I4
sg131
g132
sg133
g134
sg135
g132
sg136
I01
sg34
g137
sg138
g134
sg139
I0
sg140
I0
sg141
I0
sg142
g134
sg35
g143
sg144
I0
stRp1580
sg146
g147
sg148
F1
sg149
Nsg30
S'CmetaA'
p1581
sbasg120
g1113
sg123
F0.020930000000000001
sg124
g125
sg33
S'81'
p1582
sg127
g1
(g128
g12
(dp1583
g130
I6
sg131
g132
sg133
g134
sg135
g132
sg136
I01
sg34
g174
sg138
g134
sg139
I0
sg140
I0
sg141
I0
sg142
g134
sg35
g175
sg144
I0
stRp1584
sg146
g147
sg148
F0.98999999999999999
sg149
Nsg30
S'NoName'
p1585
sbasg120
g1100
sg123
F0.045289999999999997
sg124
g125
sg33
S'203'
p1586
sg127
g1
(g128
g12
(dp1587
g130
I6
sg131
g132
sg133
g134
sg135
g132
sg136
I01
sg34
g174
sg138
g134
sg139
I0
sg140
I0
sg141
I0
sg142
g134
sg35
g175
sg144
I0
stRp1588
sg146
g147
sg148
F0.98999999999999999
sg149
Nsg30
S'NoName'
p1589
sbag1
(g2
g3
NtRp1590
(dp1591
g6
g1
(g7
g3
NtRp1592
(dp1593
g10
g1
(g11
g12
(dtRp1594
sg14
g1
(g11
g12
(dtRp1595
sg16
g1
(g11
g12
(dtRp1596
sg18
g1
(g11
g12
(dtRp1597
sg20
g1
(g11
g12
(dtRp1598
sg22
g1
(g11
g12
(dtRp1599
sbsg24
S'Cji'
p1600
sg26
g27
((lp1601
g29
ag30
aS'sequence'
p1602
ag32
ag33
aS'species'
p1603
atRp1604
sg37
(lp1605
sg120
g1100
sg121
S'RWLSTKDLYSRLELPGLNQNVHAMFVMPLGFGNPMGDMFARLNNSFWLPPLSLEGAGTGWTVYPPLSHSGPSVDLAFHLTSSLLGAINFTNMRGPMFWTALLLLSLPVLAGTLLDRNFNTFDGGDPLYHLFWFFGHPEVYIIPGFGSHSTYKKFGMYASIGLGFVWSHHMYVGLDDRAYFTSATMIAPTGIKFSWLATYGGRPMLAFLFLFTGGTGVLNASDAFHDTYYTVHFHYVLSMGAFSLGYYYWYGLYNLFWFNFPMHFLGGMPRRPYPDAGWNSGSSYQLGPDESNEPH'
p1606
sg123
F0.013140000000000001
sg124
g125
sg33
S'178'
p1607
sg127
g1
(g128
g12
(dp1608
g130
I4
sg131
g132
sg133
g134
sg135
g132
sg136
I01
sg34
g137
sg138
g134
sg139
I0
sg140
I0
sg141
I0
sg142
g134
sg35
g143
sg144
I0
stRp1609
sg146
g147
sg148
F1
sg149
Nsg30
S'CjiufA'
p1610
sbasg120
g1028
sg123
F0.044909999999999999
sg124
g125
sg33
S'191'
p1611
sg127
g1
(g128
g12
(dp1612
g130
I6
sg131
g132
sg133
g134
sg135
g132
sg136
I01
sg34
g174
sg138
g134
sg139
I0
sg140
I0
sg141
I0
sg142
g134
sg35
g175
sg144
I0
stRp1613
sg146
g147
sg148
F0.98999999999999999
sg149
Nsg30
S'NoName'
p1614
sbasg120
g1015
sg123
F0.082199999999999995
sg124
g125
sg33
S'198'
p1615
sg127
g1
(g128
g12
(dp1616
g130
I6
sg131
g132
sg133
g134
sg135
g132
sg136
I01
sg34
g174
sg138
g134
sg139
I0
sg140
I0
sg141
I0
sg142
g134
sg35
g175
sg144
I0
stRp1617
sg146
g147
sg148
F0.98999999999999999
sg149
Nsg30
S'NoName'
p1618
sbag1
(g2
g3
NtRp1619
(dp1620
g6
g1
(g7
g3
NtRp1621
(dp1622
g10
g1
(g11
g12
(dtRp1623
sg14
g1
(g11
g12
(dtRp1624
sg16
g1
(g11
g12
(dtRp1625
sg18
g1
(g11
g12
(dtRp1626
sg20
g1
(g11
g12
(dtRp1627
sg22
g1
(g11
g12
(dtRp1628
sbsg24
g25
sg26
g27
((lp1629
g33
ag32
ag29
ag30
atRp1630
sg37
(lp1631
g1
(g2
g3
NtRp1632
(dp1633
g6
g1
(g7
g3
NtRp1634
(dp1635
g10
g1
(g11
g12
(dtRp1636
sg14
g1
(g11
g12
(dtRp1637
sg16
g1
(g11
g12
(dtRp1638
sg18
g1
(g11
g12
(dtRp1639
sg20
g1
(g11
g12
(dtRp1640
sg22
g1
(g11
g12
(dtRp1641
sbsg24
g25
sg26
g27
((lp1642
g33
ag32
ag29
ag30
atRp1643
sg37
(lp1644
g1
(g2
g3
NtRp1645
(dp1646
g6
g1
(g7
g3
NtRp1647
(dp1648
g10
g1
(g11
g12
(dtRp1649
sg14
g1
(g11
g12
(dtRp1650
sg16
g1
(g11
g12
(dtRp1651
sg18
g1
(g11
g12
(dtRp1652
sg20
g1
(g11
g12
(dtRp1653
sg22
g1
(g11
g12
(dtRp1654
sbsg24
S'Cco'
p1655
sg26
g27
((lp1656
g29
ag30
aS'sequence'
p1657
ag32
ag33
aS'species'
p1658
atRp1659
sg37
(lp1660
sg120
g1632
sg121
S'RWLSTKDLYSRMELPGLNQNVHAMFVMPLGFGNPMGDMFARLNNSFWLPPLSLEGAGTGWTLYAPLSHSGPSVDLAFHLTSSLLGAINFTNMRGPLFWTALLLLSLPVLAATLLDRNFNTFEGGDPLYHLFFVLMHPEVYIIPGFGSHSTYKKFGMYASMGLGFVWSHHMYVGLDDRAYFTSATMIAPTGIKFSWLATYGGRPMLAFLFLFTGGTGVLNASDAFHDTYYIKHFHYVLSMGAFSLGYYYWYGLYNMFWFNFPMHFLGGMPRRPYPDAGWNSGSSYQLGPDESNEPH'
p1661
sg123
F0.057970000000000001
sg124
g125
sg33
S'6'
sg127
g1
(g128
g12
(dp1662
g130
I4
sg131
g132
sg133
g134
sg135
g132
sg136
I01
sg34
g137
sg138
g134
sg139
I0
sg140
I0
sg141
I0
sg142
g134
sg35
g143
sg144
I0
stRp1663
sg146
g147
sg148
F1
sg149
Nsg30
S'CcoryA'
p1664
sbag1
(g2
g3
NtRp1665
(dp1666
g6
g1
(g7
g3
NtRp1667
(dp1668
g10
g1
(g11
g12
(dtRp1669
sg14
g1
(g11
g12
(dtRp1670
sg16
g1
(g11
g12
(dtRp1671
sg18
g1
(g11
g12
(dtRp1672
sg20
g1
(g11
g12
(dtRp1673
sg22
g1
(g11
g12
(dtRp1674
sbsg24
S'Cch'
p1675
sg26
g27
((lp1676
g29
ag30
aS'sequence'
p1677
ag32
ag33
aS'species'
p1678
atRp1679
sg37
(lp1680
sg120
g1632
sg121
S'RWLSTKDLYSRMELPSLNQNVHAMFVMPLGFGNPMGDMFARLNNSFWLPPLSLEGAGTGWTLYAPLSHSGPSVDLAFHLTSSLLGAINFTNMRGPLFWTALLLLSLPVLAATLLDRNFNTFEGGDPLYHLFWFYMYKDYYIIPGFGSHSTYKKFGMYASIGLGFVWSHHMFVGLDDRAYFTSATMIAPTGIKFSWLATYGGRPMLAFLFLFTGGTGVLNASDAFHDTYYVVHFHYVLSMGAFSLGYYYWYGLYNLFWFNFPMHFLGGMPRRPYPDAGWNSGSSYQLGPDESNEPH'
p1681
sg123
F0.052440000000000001
sg124
g125
sg33
S'186'
p1682
sg127
g1
(g128
g12
(dp1683
g130
I4
sg131
g132
sg133
g134
sg135
g132
sg136
I01
sg34
g137
sg138
g134
sg139
I0
sg140
I0
sg141
I0
sg142
g134
sg35
g143
sg144
I0
stRp1684
sg146
g147
sg148
F1
sg149
Nsg30
S'CchauA'
p1685
sbasg120
g1619
sg123
F0.16861999999999999
sg124
g125
sg33
S'156'
p1686
sg127
g1
(g128
g12
(dp1687
g130
I6
sg131
g132
sg133
g134
sg135
g132
sg136
I01
sg34
g174
sg138
g134
sg139
I0
sg140
I0
sg141
I0
sg142
g134
sg35
g175
sg144
I0
stRp1688
sg146
g147
sg148
F0.98999999999999999
sg149
Nsg30
S'NoName'
p1689
sbag1
(g2
g3
NtRp1690
(dp1691
g6
g1
(g7
g3
NtRp1692
(dp1693
g10
g1
(g11
g12
(dtRp1694
sg14
g1
(g11
g12
(dtRp1695
sg16
g1
(g11
g12
(dtRp1696
sg18
g1
(g11
g12
(dtRp1697
sg20
g1
(g11
g12
(dtRp1698
sg22
g1
(g11
g12
(dtRp1699
sbsg24
S'Cbo'
p1700
sg26
g27
((lp1701
g29
ag30
aS'sequence'
p1702
ag32
ag33
aS'species'
p1703
atRp1704
sg37
(lp1705
sg120
g1619
sg121
S'RWLSTKDLYSRMELPGLNQNVHAMFVMPLGFGNPMGDMFARLNNSFWLPPLSLEGAGTGWTVYPPLSHSGPSVDLAFHLTSSLLGAINFTNMRGPLFWTALLLLSLPVLAATLLDRNFNTFEGGDPLYHLFWFFGHPEVYIIPGFGSHSTYKKFGMYASIGLGFVWSHHMYVGLDDRAYFTSATMIAPTGIKFSWLATYGGRPMLAFLFLFTGGTGVLNASDAFHDTYYVVHFHYVLSMGAFSLAYYYWYGLYNLFWFNFPMHFLGGMPRRPYPDAGWNSGSSYQLGPDESNEPH'
p1706
sg123
F0.20199
sg124
g125
sg33
S'211'
p1707
sg127
g1
(g128
g12
(dp1708
g130
I4
sg131
g132
sg133
g134
sg135
g132
sg136
I01
sg34
g137
sg138
g134
sg139
I0
sg140
I0
sg141
I0
sg142
g134
sg35
g143
sg144
I0
stRp1709
sg146
g147
sg148
F1
sg149
Nsg30
S'CbohiA'
p1710
sbasg120
g1015
sg123
F0.14915999999999999
sg124
g125
sg33
S'224'
p1711
sg127
g1
(g128
g12
(dp1712
g130
I6
sg131
g132
sg133
g134
sg135
g132
sg136
I01
sg34
g174
sg138
g134
sg139
I0
sg140
I0
sg141
I0
sg142
g134
sg35
g175
sg144
I0
stRp1713
sg146
g147
sg148
F0.98999999999999999
sg149
Nsg30
S'NoName'
p1714
sbasg120
g1002
sg123
F0.036799999999999999
sg124
g125
sg33
S'195'
p1715
sg127
g1
(g128
g12
(dp1716
g130
I6
sg131
g132
sg133
g134
sg135
g132
sg136
I01
sg34
g174
sg138
g134
sg139
I0
sg140
I0
sg141
I0
sg142
g134
sg35
g175
sg144
I0
stRp1717
sg146
g147
sg148
F0.98999999999999999
sg149
Nsg30
S'NoName'
p1718
sbag1
(g2
g3
NtRp1719
(dp1720
g6
g1
(g7
g3
NtRp1721
(dp1722
g10
g1
(g11
g12
(dtRp1723
sg14
g1
(g11
g12
(dtRp1724
sg16
g1
(g11
g12
(dtRp1725
sg18
g1
(g11
g12
(dtRp1726
sg20
g1
(g11
g12
(dtRp1727
sg22
g1
(g11
g12
(dtRp1728
sbsg24
g25
sg26
g27
((lp1729
g33
ag32
ag29
ag30
atRp1730
sg37
(lp1731
g1
(g2
g3
NtRp1732
(dp1733
g6
g1
(g7
g3
NtRp1734
(dp1735
g10
g1
(g11
g12
(dtRp1736
sg14
g1
(g11
g12
(dtRp1737
sg16
g1
(g11
g12
(dtRp1738
sg18
g1
(g11
g12
(dtRp1739
sg20
g1
(g11
g12
(dtRp1740
sg22
g1
(g11
g12
(dtRp1741
sbsg24
g25
sg26
g27
((lp1742
g33
ag32
ag29
ag30
atRp1743
sg37
(lp1744
g1
(g2
g3
NtRp1745
(dp1746
g6
g1
(g7
g3
NtRp1747
(dp1748
g10
g1
(g11
g12
(dtRp1749
sg14
g1
(g11
g12
(dtRp1750
sg16
g1
(g11
g12
(dtRp1751
sg18
g1
(g11
g12
(dtRp1752
sg20
g1
(g11
g12
(dtRp1753
sg22
g1
(g11
g12
(dtRp1754
sbsg24
S'Cma'
p1755
sg26
g27
((lp1756
g29
ag30
aS'sequence'
p1757
ag32
ag33
aS'species'
p1758
atRp1759
sg37
(lp1760
sg120
g1732
sg121
S'RWLSTKDLYSRLELPGLSQNVHAMFVMPLGFGNPLGDMFARLNNSFWLPPLSLEGAGTGWTVYPPLSHSGPSVDLAFHLTSSLLGAINFTNMRGPLYWTALLLLSLPVLAGTLLDRNFNTFEGGDPLYHLFWFFGHPEVYMIPGFGSHSTYKKFGMYASMGLGFVWSHHMYVGLDDRAYFTSATMIAPTGIKFSWLATYGGRPMLAFLFLFTGGTGVLNASDAFHDTYYVVHFHYVLSMGAFSLGYYYWSGLYNLYWFNFPMHFLGGMPRRPYPDAGWNSGSSYQLGPDESNEPH'
p1761
sg123
F0.24277000000000001
sg124
g125
sg33
S'31'
p1762
sg127
g1
(g128
g12
(dp1763
g130
I4
sg131
g132
sg133
g134
sg135
g132
sg136
I01
sg34
g137
sg138
g134
sg139
I0
sg140
I0
sg141
I0
sg142
g134
sg35
g143
sg144
I0
stRp1764
sg146
g147
sg148
F1
sg149
Nsg30
S'CmaltA'
p1765
sbag1
(g2
g3
NtRp1766
(dp1767
g6
g1
(g7
g3
NtRp1768
(dp1769
g10
g1
(g11
g12
(dtRp1770
sg14
g1
(g11
g12
(dtRp1771
sg16
g1
(g11
g12
(dtRp1772
sg18
g1
(g11
g12
(dtRp1773
sg20
g1
(g11
g12
(dtRp1774
sg22
g1
(g11
g12
(dtRp1775
sbsg24
g25
sg26
g27
((lp1776
g33
ag32
ag29
ag30
atRp1777
sg37
(lp1778
g1
(g2
g3
NtRp1779
(dp1780
g6
g1
(g7
g3
NtRp1781
(dp1782
g10
g1
(g11
g12
(dtRp1783
sg14
g1
(g11
g12
(dtRp1784
sg16
g1
(g11
g12
(dtRp1785
sg18
g1
(g11
g12
(dtRp1786
sg20
g1
(g11
g12
(dtRp1787
sg22
g1
(g11
g12
(dtRp1788
sbsg24
g25
sg26
g27
((lp1789
g33
ag32
ag29
ag30
atRp1790
sg37
(lp1791
g1
(g2
g3
NtRp1792
(dp1793
g6
g1
(g7
g3
NtRp1794
(dp1795
g10
g1
(g11
g12
(dtRp1796
sg14
g1
(g11
g12
(dtRp1797
sg16
g1
(g11
g12
(dtRp1798
sg18
g1
(g11
g12
(dtRp1799
sg20
g1
(g11
g12
(dtRp1800
sg22
g1
(g11
g12
(dtRp1801
sbsg24
g25
sg26
g27
((lp1802
g33
ag32
ag29
ag30
atRp1803
sg37
(lp1804
g1
(g2
g3
NtRp1805
(dp1806
g6
g1
(g7
g3
NtRp1807
(dp1808
g10
g1
(g11
g12
(dtRp1809
sg14
g1
(g11
g12
(dtRp1810
sg16
g1
(g11
g12
(dtRp1811
sg18
g1
(g11
g12
(dtRp1812
sg20
g1
(g11
g12
(dtRp1813
sg22
g1
(g11
g12
(dtRp1814
sbsg24
g25
sg26
g27
((lp1815
g33
ag32
ag29
ag30
atRp1816
sg37
(lp1817
g1
(g2
g3
NtRp1818
(dp1819
g6
g1
(g7
g3
NtRp1820
(dp1821
g10
g1
(g11
g12
(dtRp1822
sg14
g1
(g11
g12
(dtRp1823
sg16
g1
(g11
g12
(dtRp1824
sg18
g1
(g11
g12
(dtRp1825
sg20
g1
(g11
g12
(dtRp1826
sg22
g1
(g11
g12
(dtRp1827
sbsg24
S'Ctr'
p1828
sg26
g27
((lp1829
g29
ag30
aS'sequence'
p1830
ag32
ag33
aS'species'
p1831
atRp1832
sg37
(lp1833
sg120
g1805
sg121
S'RWLSTKDLYSRLELPGLNQNVHAMFVMPLGFGNPMGDMFARLNNSFWLPPLSLEGAGTGWTVYPPLSHSGPSVDLAFHLTSSLLGAINFTNMRGPLFWTALLLLSLPVLAGTLLDRNFNTFEGGDPLYHLFWFFGHPEVYIIPGFGSHSTYKKFGMYASIGLGFVWSHHMYVGLDDRAYFTSATMIAPTGIKFSWLATYGGRPMLAFLFLFTGGTGVLNASDAFHDSYYVVHFHYVLSMGAFSLGYYYWPGLYNLYWFNFPMHFLGGMPRRPYPDAGWNSGSSYQLGPDEANEPH'
p1834
sg123
F0.00064000000000000005
sg124
g125
sg33
S'119'
p1835
sg127
g1
(g128
g12
(dp1836
g130
I4
sg131
g132
sg133
g134
sg135
g132
sg136
I01
sg34
g137
sg138
g134
sg139
I0
sg140
I0
sg141
I0
sg142
g134
sg35
g143
sg144
I0
stRp1837
sg146
g147
sg148
F1
sg149
Nsg30
S'CtropB'
p1838
sbag1
(g2
g3
NtRp1839
(dp1840
g6
g1
(g7
g3
NtRp1841
(dp1842
g10
g1
(g11
g12
(dtRp1843
sg14
g1
(g11
g12
(dtRp1844
sg16
g1
(g11
g12
(dtRp1845
sg18
g1
(g11
g12
(dtRp1846
sg20
g1
(g11
g12
(dtRp1847
sg22
g1
(g11
g12
(dtRp1848
sbsg24
S'Ctr'
p1849
sg26
g27
((lp1850
g29
ag30
aS'sequence'
p1851
ag32
ag33
aS'species'
p1852
atRp1853
sg37
(lp1854
sg120
g1805
sg121
S'RWLSTKDLYSRLELPGLNQNVHAMFVMPLGFGNPMGDMFARLNNSFWLPPLSLEGAGTGWTVYPPLSHSGPSVDLAFHLTSSLLGAINFTNMRGPLFWTALLLLSLPVLAGTLLDRNFNTFEGGDPLYHLFWFFGHPEVYIIPGFGSHSTYKKFGMYASIGLGFVWSHHMYVGLDDRAYFTSATMIAPTGIKFSWLATYGGRPMLAFLFLFTGGTGVLNASDAFHDSYYVVHFHYVLSMGAFSLGYYYWPGLYNLYWFNFPMHFLGGMPRRPYPDAGWNSGSSYQLGPDEANEPH'
p1855
sg123
F0.00040000000000000002
sg124
g125
sg33
S'164'
p1856
sg127
g1
(g128
g12
(dp1857
g130
I4
sg131
g132
sg133
g134
sg135
g132
sg136
I01
sg34
g137
sg138
g134
sg139
I0
sg140
I0
sg141
I0
sg142
g134
sg35
g143
sg144
I0
stRp1858
sg146
g147
sg148
F1
sg149
Nsg30
S'CtropA'
p1859
sbasg120
g1792
sg123
F0.032030000000000003
sg124
g125
sg33
S'42'
p1860
sg127
g1
(g128
g12
(dp1861
g130
I6
sg131
g132
sg133
g134
sg135
g132
sg136
I01
sg34
g174
sg138
g134
sg139
I0
sg140
I0
sg141
I0
sg142
g134
sg35
g175
sg144
I0
stRp1862
sg146
g147
sg148
F0.98999999999999999
sg149
Nsg30
S'NoName'
p1863
sbag1
(g2
g3
NtRp1864
(dp1865
g6
g1
(g7
g3
NtRp1866
(dp1867
g10
g1
(g11
g12
(dtRp1868
sg14
g1
(g11
g12
(dtRp1869
sg16
g1
(g11
g12
(dtRp1870
sg18
g1
(g11
g12
(dtRp1871
sg20
g1
(g11
g12
(dtRp1872
sg22
g1
(g11
g12
(dtRp1873
sbsg24
S'Cso'
p1874
sg26
g27
((lp1875
g29
ag30
aS'sequence'
p1876
ag32
ag33
aS'species'
p1877
atRp1878
sg37
(lp1879
sg120
g1792
sg121
S'RWLSTKDLYSRLELPGLNQNVHAMFVMPLGFGNPMGDMFARLNNSFWLPPLSLEGAGTGWTVYPPLSHSGPSVDLAFHLTSSLLGAMNFTNMRGPLFWTALLLLSLPVLAGTLLDRNFNTFEGGDPLYHLFWFFGHPEVYIIPGFGSHSTYKKFGMYASIGLGFVWSHHMYVGLDDRAYFTSATMIAPTGIKFSWLATYGGRPMLAFLFLFTGGTGVLNASDAFHDTYYVVHFHYVLSMGAFSLGYYYWPGLYNLYWFNFPMHFLGGMPRRPYPDAGWNSGSSYQLGPDEANEPH'
p1880
sg123
F0.033649999999999999
sg124
g125
sg33
S'163'
p1881
sg127
g1
(g128
g12
(dp1882
g130
I4
sg131
g132
sg133
g134
sg135
g132
sg136
I01
sg34
g137
sg138
g134
sg139
I0
sg140
I0
sg141
I0
sg142
g134
sg35
g143
sg144
I0
stRp1883
sg146
g147
sg148
F1
sg149
Nsg30
S'CsojaA'
p1884
sbasg120
g1779
sg123
F0.019990000000000001
sg124
g125
sg33
S'65'
p1885
sg127
g1
(g128
g12
(dp1886
g130
I6
sg131
g132
sg133
g134
sg135
g132
sg136
I01
sg34
g174
sg138
g134
sg139
I0
sg140
I0
sg141
I0
sg142
g134
sg35
g175
sg144
I0
stRp1887
sg146
g147
sg148
F0.98999999999999999
sg149
Nsg30
S'NoName'
p1888
sbag1
(g2
g3
NtRp1889
(dp1890
g6
g1
(g7
g3
NtRp1891
(dp1892
g10
g1
(g11
g12
(dtRp1893
sg14
g1
(g11
g12
(dtRp1894
sg16
g1
(g11
g12
(dtRp1895
sg18
g1
(g11
g12
(dtRp1896
sg20
g1
(g11
g12
(dtRp1897
sg22
g1
(g11
g12
(dtRp1898
sbsg24
g25
sg26
g27
((lp1899
g33
ag32
ag29
ag30
atRp1900
sg37
(lp1901
g1
(g2
g3
NtRp1902
(dp1903
g6
g1
(g7
g3
NtRp1904
(dp1905
g10
g1
(g11
g12
(dtRp1906
sg14
g1
(g11
g12
(dtRp1907
sg16
g1
(g11
g12
(dtRp1908
sg18
g1
(g11
g12
(dtRp1909
sg20
g1
(g11
g12
(dtRp1910
sg22
g1
(g11
g12
(dtRp1911
sbsg24
S'Cte'
p1912
sg26
g27
((lp1913
g29
ag30
aS'sequence'
p1914
ag32
ag33
aS'species'
p1915
atRp1916
sg37
(lp1917
sg120
g1889
sg121
S'RWLSTKDLYSRLELPGLNQNVHAMFVMPLGFGNPMGDMFARLNNSFWLPPLSLEGAGTGWTVYPPLSHSGPSVDMAFHLTSSLLGAINFTNMRGPLFWTALLLLSLPVLAGTLLDRNFNTFEGGDPLYHLFWFFGHPEVYIIPGFGSHSTYKKFGMYASIGLGFVWSHHMFVGLDDRAYFTSATMMAPTGIKFSWLATYGGRPMLAFLFLFTGGTGVLNASDSMHDTYYVVHFHYVLSMGAFSLGYYYWPGLYNLYWFNFPMHFLGGMPRRPYPDAGWNSGSSLQLGPDESNEPH'
p1918
sg123
F0.084209999999999993
sg124
g125
sg33
S'38'
p1919
sg127
g1
(g128
g12
(dp1920
g130
I4
sg131
g132
sg133
g134
sg135
g132
sg136
I01
sg34
g137
sg138
g134
sg139
I0
sg140
I0
sg141
I0
sg142
g134
sg35
g143
sg144
I0
stRp1921
sg146
g147
sg148
F1
sg149
Nsg30
S'CtetrA'
p1922
sbag1
(g2
g3
NtRp1923
(dp1924
g6
g1
(g7
g3
NtRp1925
(dp1926
g10
g1
(g11
g12
(dtRp1927
sg14
g1
(g11
g12
(dtRp1928
sg16
g1
(g11
g12
(dtRp1929
sg18
g1
(g11
g12
(dtRp1930
sg20
g1
(g11
g12
(dtRp1931
sg22
g1
(g11
g12
(dtRp1932
sbsg24
g25
sg26
g27
((lp1933
g33
ag32
ag29
ag30
atRp1934
sg37
(lp1935
g1
(g2
g3
NtRp1936
(dp1937
g6
g1
(g7
g3
NtRp1938
(dp1939
g10
g1
(g11
g12
(dtRp1940
sg14
g1
(g11
g12
(dtRp1941
sg16
g1
(g11
g12
(dtRp1942
sg18
g1
(g11
g12
(dtRp1943
sg20
g1
(g11
g12
(dtRp1944
sg22
g1
(g11
g12
(dtRp1945
sbsg24
g25
sg26
g27
((lp1946
g33
ag32
ag29
ag30
atRp1947
sg37
(lp1948
g1
(g2
g3
NtRp1949
(dp1950
g6
g1
(g7
g3
NtRp1951
(dp1952
g10
g1
(g11
g12
(dtRp1953
sg14
g1
(g11
g12
(dtRp1954
sg16
g1
(g11
g12
(dtRp1955
sg18
g1
(g11
g12
(dtRp1956
sg20
g1
(g11
g12
(dtRp1957
sg22
g1
(g11
g12
(dtRp1958
sbsg24
S'Cvi'
p1959
sg26
g27
((lp1960
g29
ag30
aS'sequence'
p1961
ag32
ag33
aS'species'
p1962
atRp1963
sg37
(lp1964
sg120
g1936
sg121
S'RWFSTKDLYSRLELPGLNQNVHAMFVMPLGFGNPMGDMFARLNNSFWLPPLSLEGAGTGWTVYPPLSHSGPSVDLAFHLTSSLLGAINFTNMRGPLFWTALLLLSLPVLAGTLLDRNFNTFDGGDPLYHLFWFFGHPEVYMIPGFGSHSTYKKFGMYASIGLGFVWSHHMYVGLDDRAYFTSATMIAPTGIKFSWLSTYGGRPTLAFLFLFTGGTGVLNASDSMHDTYYVVHFHYVLSMGAFSLGYYYWPGLYNLYWFNFPMHFLGGMPRRPYPDSGWNSGSSFQLGPDESNEPH'
p1965
sg123
F0.03977
sg124
g125
sg33
S'85'
p1966
sg127
g1
(g128
g12
(dp1967
g130
I4
sg131
g132
sg133
g134
sg135
g132
sg136
I01
sg34
g137
sg138
g134
sg139
I0
sg140
I0
sg141
I0
sg142
g134
sg35
g143
sg144
I0
stRp1968
sg146
g147
sg148
F1
sg149
Nsg30
S'CviswA'
p1969
sbag1
(g2
g3
NtRp1970
(dp1971
g6
g1
(g7
g3
NtRp1972
(dp1973
g10
g1
(g11
g12
(dtRp1974
sg14
g1
(g11
g12
(dtRp1975
sg16
g1
(g11
g12
(dtRp1976
sg18
g1
(g11
g12
(dtRp1977
sg20
g1
(g11
g12
(dtRp1978
sg22
g1
(g11
g12
(dtRp1979
sbsg24
S'Csa'
p1980
sg26
g27
((lp1981
g29
ag30
aS'sequence'
p1982
ag32
ag33
aS'species'
p1983
atRp1984
sg37
(lp1985
sg120
g1936
sg121
S'RWFSTKDLYSRLELPGLNQNVHAMFVMPLGFGNPMGDMFARLNNSFWLPPLSLEGAGTGWTVYPPLSHSGPSVDLAFHLTSSLLGAINFTNMRGVLFWTALLLLSLPVLAGTLLDRNFNTFDGGDPLYHLFWFFGHPEVYIIPGFGSHSTFKKFGMYASIGLGFVWSHHMYVGLDDRAYFTSATMIAPTGIKFSWIATYGGRPTLAFLFLFTGGTGVLNASDSMHDTYYVVHFHYVLSMGAFSLGYYYWPGLYNLYWFNFPMHFLGGMPRRPYPDSGWNSGSSYQLGPDEGNEPH'
p1986
sg123
F0.065189999999999998
sg124
g125
sg33
S'60'
p1987
sg127
g1
(g128
g12
(dp1988
g130
I4
sg131
g132
sg133
g134
sg135
g132
sg136
I01
sg34
g137
sg138
g134
sg139
I0
sg140
I0
sg141
I0
sg142
g134
sg35
g143
sg144
I0
stRp1989
sg146
g147
sg148
F1
sg149
Nsg30
S'CsaraA'
p1990
sbasg120
g1923
sg123
F0.029960000000000001
sg124
g125
sg33
S'49'
p1991
sg127
g1
(g128
g12
(dp1992
g130
I6
sg131
g132
sg133
g134
sg135
g132
sg136
I01
sg34
g174
sg138
g134
sg139
I0
sg140
I0
sg141
I0
sg142
g134
sg35
g175
sg144
I0
stRp1993
sg146
g147
sg148
F0.98999999999999999
sg149
Nsg30
S'NoName'
p1994
sbag1
(g2
g3
NtRp1995
(dp1996
g6
g1
(g7
g3
NtRp1997
(dp1998
g10
g1
(g11
g12
(dtRp1999
sg14
g1
(g11
g12
(dtRp2000
sg16
g1
(g11
g12
(dtRp2001
sg18
g1
(g11
g12
(dtRp2002
sg20
g1
(g11
g12
(dtRp2003
sg22
g1
(g11
g12
(dtRp2004
sbsg24
S'Cpr'
p2005
sg26
g27
((lp2006
g29
ag30
aS'sequence'
p2007
ag32
ag33
aS'species'
p2008
atRp2009
sg37
(lp2010
sg120
g1923
sg121
S'RWFSTKDEYSRLELPGLNQNVHAMFVMPLGFGNPMGDMFARLNNSFWLPPLSLEGAGTGWTVYPPLSHSGPSVDLAFHLTSSLLGAINFTNMRGPLFWTALLLLSLPVLTGTLLDRNFNTFDGGDPLYHLFWFFGHPEVYMIPGFGSHSTYKKFGMYASMGLGFVWSHHMFVGLDDRAYFTSATMMAPTGIKFSWLATYGGRPMLAFLFLFTGGTGVLNASDSMHDTYYVVHFHYVLSMGAFSLGYYYWPGLYNLYWFNFPMHFLGGMPRRPYPDSGWNSGSSVQLGPDENNEPH'
p2011
sg123
F0.17724999999999999
sg124
g125
sg33
S'107'
p2012
sg127
g1
(g128
g12
(dp2013
g130
I4
sg131
g132
sg133
g134
sg135
g132
sg136
I01
sg34
g137
sg138
g134
sg139
I0
sg140
I0
sg141
I0
sg142
g134
sg35
g143
sg144
I0
stRp2014
sg146
g147
sg148
F1
sg149
Nsg30
S'CpracA'
p2015
sbasg120
g1889
sg123
F0.02281
sg124
g125
sg33
S'95'
p2016
sg127
g1
(g128
g12
(dp2017
g130
I6
sg131
g132
sg133
g134
sg135
g132
sg136
I01
sg34
g174
sg138
g134
sg139
I0
sg140
I0
sg141
I0
sg142
g134
sg35
g175
sg144
I0
stRp2018
sg146
g147
sg148
F0.98999999999999999
sg149
Nsg30
S'NoName'
p2019
sbasg120
g1779
sg123
F0.01154
sg124
g125
sg33
S'161'
p2020
sg127
g1
(g128
g12
(dp2021
g130
I6
sg131
g132
sg133
g134
sg135
g132
sg136
I01
sg34
g174
sg138
g134
sg139
I0
sg140
I0
sg141
I0
sg142
g134
sg35
g175
sg144
I0
stRp2022
sg146
g147
sg148
F0.98999999999999999
sg149
Nsg30
S'NoName'
p2023
sbasg120
g1766
sg123
F0.02138
sg124
g125
sg33
S'52'
p2024
sg127
g1
(g128
g12
(dp2025
g130
I6
sg131
g132
sg133
g134
sg135
g132
sg136
I01
sg34
g174
sg138
g134
sg139
I0
sg140
I0
sg141
I0
sg142
g134
sg35
g175
sg144
I0
stRp2026
sg146
g147
sg148
F0.98999999999999999
sg149
Nsg30
S'NoName'
p2027
sbag1
(g2
g3
NtRp2028
(dp2029
g6
g1
(g7
g3
NtRp2030
(dp2031
g10
g1
(g11
g12
(dtRp2032
sg14
g1
(g11
g12
(dtRp2033
sg16
g1
(g11
g12
(dtRp2034
sg18
g1
(g11
g12
(dtRp2035
sg20
g1
(g11
g12
(dtRp2036
sg22
g1
(g11
g12
(dtRp2037
sbsg24
g25
sg26
g27
((lp2038
g33
ag32
ag29
ag30
atRp2039
sg37
(lp2040
g1
(g2
g3
NtRp2041
(dp2042
g6
g1
(g7
g3
NtRp2043
(dp2044
g10
g1
(g11
g12
(dtRp2045
sg14
g1
(g11
g12
(dtRp2046
sg16
g1
(g11
g12
(dtRp2047
sg18
g1
(g11
g12
(dtRp2048
sg20
g1
(g11
g12
(dtRp2049
sg22
g1
(g11
g12
(dtRp2050
sbsg24
S'Cne'
p2051
sg26
g27
((lp2052
g29
ag30
aS'sequence'
p2053
ag32
ag33
aS'species'
p2054
atRp2055
sg37
(lp2056
sg120
g2028
sg121
S'RWLSTKDLYSRLELPGLNQNVHAMFVMPLGFGNPMGDMFARLNNSFWLPPLSLEGAGTGWTVYPPLSHSGPSVDLAFHLTSSLLGAINFTNMRGPLFWTALLLLSLPVLAGTLLDRNFNTFDGGDPLYHLFWFFGHPEVYIIPGFGSHSTYKKFGMYASIGLGFVWSHHMYVGLDDRAYFTSATMIAPTGIKFSWLATYGGRPMLAFLFLFTGGTGVLNASDAFHDTYYVVHFHYVLSMGAFSLGYYYWPGLYNLYWFNFPMHFLGGMPRRPYPDSGWNSGSSYQLGPDESNEPH'
p2057
sg123
F0.04879
sg124
g125
sg33
S'209'
p2058
sg127
g1
(g128
g12
(dp2059
g130
I4
sg131
g132
sg133
g134
sg135
g132
sg136
I01
sg34
g137
sg138
g134
sg139
I0
sg140
I0
sg141
I0
sg142
g134
sg35
g143
sg144
I0
stRp2060
sg146
g147
sg148
F1
sg149
Nsg30
S'CneerA'
p2061
sbag1
(g2
g3
NtRp2062
(dp2063
g6
g1
(g7
g3
NtRp2064
(dp2065
g10
g1
(g11
g12
(dtRp2066
sg14
g1
(g11
g12
(dtRp2067
sg16
g1
(g11
g12
(dtRp2068
sg18
g1
(g11
g12
(dtRp2069
sg20
g1
(g11
g12
(dtRp2070
sg22
g1
(g11
g12
(dtRp2071
sbsg24
S'Cfr'
p2072
sg26
g27
((lp2073
g29
ag30
aS'sequence'
p2074
ag32
ag33
aS'species'
p2075
atRp2076
sg37
(lp2077
sg120
g2028
sg121
S'RWLSTKDLYSRLELPGLNQNVHAMFVMPLGFGNPMGDMFARLNNSFWLPPLSLEGAGTGWTVYPPLSHSGPSVDLAFHLTSSLLGAMNFTNMRGPLFWTALLLLSLPVLAGTLLDRNFNTFDGGDPLYHLFWFFGHPEVYIIPGFGSHSTYKKFGMYASIGLGFVWSHHMYVGLDDRAYFTSATMIAPTGIKFSWLSTYGGRPMLAFLFLFTGGTGVLNASDAFHDTYYVVHFHYVLSMGAFSLGYYYWPGLYNLYWFNFPMHFLGGMPRRPYPDSGWNSGSSYQLGPDESNEPH'
p2078
sg123
F0.050279999999999998
sg124
g125
sg33
S'207'
p2079
sg127
g1
(g128
g12
(dp2080
g130
I4
sg131
g132
sg133
g134
sg135
g132
sg136
I01
sg34
g137
sg138
g134
sg139
I0
sg140
I0
sg141
I0
sg142
g134
sg35
g143
sg144
I0
stRp2081
sg146
g147
sg148
F1
sg149
Nsg30
S'CfrijA'
p2082
sbasg120
g1766
sg123
F0.11378000000000001
sg124
g125
sg33
S'72'
p2083
sg127
g1
(g128
g12
(dp2084
g130
I6
sg131
g132
sg133
g134
sg135
g132
sg136
I01
sg34
g174
sg138
g134
sg139
I0
sg140
I0
sg141
I0
sg142
g134
sg35
g175
sg144
I0
stRp2085
sg146
g147
sg148
F0.98999999999999999
sg149
Nsg30
S'NoName'
p2086
sbasg120
g1732
sg123
F0.076910000000000006
sg124
g125
sg33
S'22'
p2087
sg127
g1
(g128
g12
(dp2088
g130
I6
sg131
g132
sg133
g134
sg135
g132
sg136
I01
sg34
g174
sg138
g134
sg139
I0
sg140
I0
sg141
I0
sg142
g134
sg35
g175
sg144
I0
stRp2089
sg146
g147
sg148
F0.98999999999999999
sg149
Nsg30
S'NoName'
p2090
sbasg120
g1719
sg123
F0.022950000000000002
sg124
g125
sg33
S'160'
p2091
sg127
g1
(g128
g12
(dp2092
g130
I6
sg131
g132
sg133
g134
sg135
g132
sg136
I01
sg34
g174
sg138
g134
sg139
I0
sg140
I0
sg141
I0
sg142
g134
sg35
g175
sg144
I0
stRp2093
sg146
g147
sg148
F0.65000000000000002
sg149
Nsg30
S'NoName'
p2094
sbag1
(g2
g3
NtRp2095
(dp2096
g6
g1
(g7
g3
NtRp2097
(dp2098
g10
g1
(g11
g12
(dtRp2099
sg14
g1
(g11
g12
(dtRp2100
sg16
g1
(g11
g12
(dtRp2101
sg18
g1
(g11
g12
(dtRp2102
sg20
g1
(g11
g12
(dtRp2103
sg22
g1
(g11
g12
(dtRp2104
sbsg24
g25
sg26
g27
((lp2105
g33
ag32
ag29
ag30
atRp2106
sg37
(lp2107
g1
(g2
g3
NtRp2108
(dp2109
g6
g1
(g7
g3
NtRp2110
(dp2111
g10
g1
(g11
g12
(dtRp2112
sg14
g1
(g11
g12
(dtRp2113
sg16
g1
(g11
g12
(dtRp2114
sg18
g1
(g11
g12
(dtRp2115
sg20
g1
(g11
g12
(dtRp2116
sg22
g1
(g11
g12
(dtRp2117
sbsg24
g25
sg26
g27
((lp2118
g33
ag32
ag29
ag30
atRp2119
sg37
(lp2120
g1
(g2
g3
NtRp2121
(dp2122
g6
g1
(g7
g3
NtRp2123
(dp2124
g10
g1
(g11
g12
(dtRp2125
sg14
g1
(g11
g12
(dtRp2126
sg16
g1
(g11
g12
(dtRp2127
sg18
g1
(g11
g12
(dtRp2128
sg20
g1
(g11
g12
(dtRp2129
sg22
g1
(g11
g12
(dtRp2130
sbsg24
S'Cgi'
p2131
sg26
g27
((lp2132
g29
ag30
aS'sequence'
p2133
ag32
ag33
aS'species'
p2134
atRp2135
sg37
(lp2136
sg120
g2108
sg121
S'RWLSTKDLYSRLELAGLNQNVHAMFVMPLGFGNPMGDMFARLNNSFWLPPLSLEGAGTGWTVYPPLSHSGPSVDMAFHLTSSLLGAINFTNMRGPLFWTALLLLSLPVLAATLLDRNFNTFEGGDPLYHAFWFFGHPEVYIIPGFGSHSTYKKFGMYASIGLGFVWSHHMYVGLDDRAYFTSATMIAPTGIKFSWLATYGGRPMLAFLFLFTGGTGVLNASDAFHDTYYVVHFHYVLSMGAFSLGYYYWPGLYNLYWFNFPMHFLGGMPRRPYPDAGWNSGSSYQLGPDESNEPH'
p2137
sg123
F0.22796
sg124
g125
sg33
S'173'
p2138
sg127
g1
(g128
g12
(dp2139
g130
I4
sg131
g132
sg133
g134
sg135
g132
sg136
I01
sg34
g137
sg138
g134
sg139
I0
sg140
I0
sg141
I0
sg142
g134
sg35
g143
sg144
I0
stRp2140
sg146
g147
sg148
F1
sg149
Nsg30
S'CgigaA'
p2141
sbag1
(g2
g3
NtRp2142
(dp2143
g6
g1
(g7
g3
NtRp2144
(dp2145
g10
g1
(g11
g12
(dtRp2146
sg14
g1
(g11
g12
(dtRp2147
sg16
g1
(g11
g12
(dtRp2148
sg18
g1
(g11
g12
(dtRp2149
sg20
g1
(g11
g12
(dtRp2150
sg22
g1
(g11
g12
(dtRp2151
sbsg24
S'Cbu'
p2152
sg26
g27
((lp2153
g29
ag30
aS'sequence'
p2154
ag32
ag33
aS'species'
p2155
atRp2156
sg37
(lp2157
sg120
g2108
sg121
S'RWLSTKDLYSRLELAGLNQNVHAMFVMPLGFGNPMGDMFARLNNSFWLPPLSLEGAGTGWTVYPPLSHSGPSVDLAFHLTSSLLGAINFTNMRGPLFWTALLLLSLPVLAGTLLDRNFNTFEGGDPLYHLFWFFGHPEVYIIPGFGSHGTYKKFGMYASIGLGFVWSHHMFVGLDDRAYFTSATMIAPTGIKFSWLATYGGRPMLAFLFLFTGGTGVLNASDAFHDTYYVVHFHYVLSMGAFSLAYYYWPGLYNLFWFNFPMHFLGGMPRRPYPDAGWNSGSSYQLGPDESNEPH'
p2158
sg123
F0.26118000000000002
sg124
g125
sg33
S'197'
p2159
sg127
g1
(g128
g12
(dp2160
g130
I4
sg131
g132
sg133
g134
sg135
g132
sg136
I01
sg34
g137
sg138
g134
sg139
I0
sg140
I0
sg141
I0
sg142
g134
sg35
g143
sg144
I0
stRp2161
sg146
g147
sg148
F1
sg149
Nsg30
S'CbuenA'
p2162
sbasg120
g2095
sg123
F0.037260000000000001
sg124
g125
sg33
S'218'
p2163
sg127
g1
(g128
g12
(dp2164
g130
I6
sg131
g132
sg133
g134
sg135
g132
sg136
I01
sg34
g174
sg138
g134
sg139
I0
sg140
I0
sg141
I0
sg142
g134
sg35
g175
sg144
I0
stRp2165
sg146
g147
sg148
F0.98999999999999999
sg149
Nsg30
S'NoName'
p2166
sbag1
(g2
g3
NtRp2167
(dp2168
g6
g1
(g7
g3
NtRp2169
(dp2170
g10
g1
(g11
g12
(dtRp2171
sg14
g1
(g11
g12
(dtRp2172
sg16
g1
(g11
g12
(dtRp2173
sg18
g1
(g11
g12
(dtRp2174
sg20
g1
(g11
g12
(dtRp2175
sg22
g1
(g11
g12
(dtRp2176
sbsg24
g25
sg26
g27
((lp2177
g33
ag32
ag29
ag30
atRp2178
sg37
(lp2179
g1
(g2
g3
NtRp2180
(dp2181
g6
g1
(g7
g3
NtRp2182
(dp2183
g10
g1
(g11
g12
(dtRp2184
sg14
g1
(g11
g12
(dtRp2185
sg16
g1
(g11
g12
(dtRp2186
sg18
g1
(g11
g12
(dtRp2187
sg20
g1
(g11
g12
(dtRp2188
sg22
g1
(g11
g12
(dtRp2189
sbsg24
S'Cdu'
p2190
sg26
g27
((lp2191
g29
ag30
aS'sequence'
p2192
ag32
ag33
aS'species'
p2193
atRp2194
sg37
(lp2195
sg120
g2167
sg121
S'RWLSTKDLYSRLELPGLNQNVHAMFVMPLGFGNPMGDMFARLNNSFWLPPLSLEGAGTGWTVYPPLSHSGPSVDLAFHLTSSLLGAINFTNMRGPLYWTALLLLSLPVLAGTLLDRNFNTFEGGDPLYHLFWFFGHPEVYIIPGFGSHSTYKKFGMYASIGLGFVWSHHMYVGLDDRAYFTSATMIAPTGIKFSWLATYGGRPMLAFLFLFTGGTGVLNASDAFHDTYYVVHFHYVLSMGAFSLGYYYWPGLYNLYWFNFPMHFLGGMPRRPYPDAGWNSGSSYQLGPDESNEPH'
p2196
sg123
F0.025069999999999999
sg124
g125
sg33
S'185'
p2197
sg127
g1
(g128
g12
(dp2198
g130
I4
sg131
g132
sg133
g134
sg135
g132
sg136
I01
sg34
g137
sg138
g134
sg139
I0
sg140
I0
sg141
I0
sg142
g134
sg35
g143
sg144
I0
stRp2199
sg146
g147
sg148
F1
sg149
Nsg30
S'CdublA'
p2200
sbag1
(g2
g3
NtRp2201
(dp2202
g6
g1
(g7
g3
NtRp2203
(dp2204
g10
g1
(g11
g12
(dtRp2205
sg14
g1
(g11
g12
(dtRp2206
sg16
g1
(g11
g12
(dtRp2207
sg18
g1
(g11
g12
(dtRp2208
sg20
g1
(g11
g12
(dtRp2209
sg22
g1
(g11
g12
(dtRp2210
sbsg24
g25
sg26
g27
((lp2211
g33
ag32
ag29
ag30
atRp2212
sg37
(lp2213
g1
(g2
g3
NtRp2214
(dp2215
g6
g1
(g7
g3
NtRp2216
(dp2217
g10
g1
(g11
g12
(dtRp2218
sg14
g1
(g11
g12
(dtRp2219
sg16
g1
(g11
g12
(dtRp2220
sg18
g1
(g11
g12
(dtRp2221
sg20
g1
(g11
g12
(dtRp2222
sg22
g1
(g11
g12
(dtRp2223
sbsg24
g25
sg26
g27
((lp2224
g33
ag32
ag29
ag30
atRp2225
sg37
(lp2226
g1
(g2
g3
NtRp2227
(dp2228
g6
g1
(g7
g3
NtRp2229
(dp2230
g10
g1
(g11
g12
(dtRp2231
sg14
g1
(g11
g12
(dtRp2232
sg16
g1
(g11
g12
(dtRp2233
sg18
g1
(g11
g12
(dtRp2234
sg20
g1
(g11
g12
(dtRp2235
sg22
g1
(g11
g12
(dtRp2236
sbsg24
g25
sg26
g27
((lp2237
g33
ag32
ag29
ag30
atRp2238
sg37
(lp2239
g1
(g2
g3
NtRp2240
(dp2241
g6
g1
(g7
g3
NtRp2242
(dp2243
g10
g1
(g11
g12
(dtRp2244
sg14
g1
(g11
g12
(dtRp2245
sg16
g1
(g11
g12
(dtRp2246
sg18
g1
(g11
g12
(dtRp2247
sg20
g1
(g11
g12
(dtRp2248
sg22
g1
(g11
g12
(dtRp2249
sbsg24
g25
sg26
g27
((lp2250
g33
ag32
ag29
ag30
atRp2251
sg37
(lp2252
g1
(g2
g3
NtRp2253
(dp2254
g6
g1
(g7
g3
NtRp2255
(dp2256
g10
g1
(g11
g12
(dtRp2257
sg14
g1
(g11
g12
(dtRp2258
sg16
g1
(g11
g12
(dtRp2259
sg18
g1
(g11
g12
(dtRp2260
sg20
g1
(g11
g12
(dtRp2261
sg22
g1
(g11
g12
(dtRp2262
sbsg24
S'Cal'
p2263
sg26
g27
((lp2264
g29
ag30
aS'sequence'
p2265
ag32
ag33
aS'species'
p2266
atRp2267
sg37
(lp2268
sg120
g2240
sg121
S'RWLSTKDLYSRLELPGLNQNVHAMFVMPLGFGNPMGDMFARLNNSFWLPPLSLEGAGTGWTVYPPLSHSGPSVDLAFHLTSSLLGAINFTNMRGPLFWTALLLLSLPVLAGTLLDRNFNTFEGGDPLYHLFWFFGHPEVYIIPGFGSHSTYKKFGMYASIGLGFVWSHHMYVGLDDRAYFTSATMIAPTGIKFSWLATYGGRPMLAFLFLFTGGTGVLNASDAFHDTYYVVHFHYVLSMGAFSLGYYYWPGLYNLYWFNFPMHFLGGMPRRPYPDAGWNSGSSYQLGPDESNEPH'
p2269
sg123
F0.00025000000000000001
sg124
g125
sg33
S'14'
p2270
sg127
g1
(g128
g12
(dp2271
g130
I4
sg131
g132
sg133
g134
sg135
g132
sg136
I01
sg34
g137
sg138
g134
sg139
I0
sg140
I0
sg141
I0
sg142
g134
sg35
g143
sg144
I0
stRp2272
sg146
g147
sg148
F1
sg149
Nsg30
S'CalbiE'
p2273
sbag1
(g2
g3
NtRp2274
(dp2275
g6
g1
(g7
g3
NtRp2276
(dp2277
g10
g1
(g11
g12
(dtRp2278
sg14
g1
(g11
g12
(dtRp2279
sg16
g1
(g11
g12
(dtRp2280
sg18
g1
(g11
g12
(dtRp2281
sg20
g1
(g11
g12
(dtRp2282
sg22
g1
(g11
g12
(dtRp2283
sbsg24
S'Cal'
p2284
sg26
g27
((lp2285
g29
ag30
aS'sequence'
p2286
ag32
ag33
aS'species'
p2287
atRp2288
sg37
(lp2289
sg120
g2240
sg121
S'RWLSTKDLYSRLELPGLNQNVHAMFVMPLGFGNPMGDMFARLNNSFWLPPLSLEGAGTGWTVYPPLSHSGPSVDLAFHLTSSLLGAINFTNMRGPLFWTALLLLSLPVLAGTLLDRNFNTFEGGDPLYHLFWFFGHPEVYIIPGFGSHSTYKKFGMYASIGLGFVWSHHMYVGLDDRAYFTSATMIAPTGIKFSWLATYGGRPMLAFLFLFTGGTGVLNASDAFHDTYYVVHFHYVLSMGAFSLGYYYWPGLYNLYWFNFPMHFLGGMPRRPYPDAGWNSGSSYQLGPDESNEPH'
p2290
sg123
F0.00050000000000000001
sg124
g125
sg33
S'19'
p2291
sg127
g1
(g128
g12
(dp2292
g130
I4
sg131
g132
sg133
g134
sg135
g132
sg136
I01
sg34
g137
sg138
g134
sg139
I0
sg140
I0
sg141
I0
sg142
g134
sg35
g143
sg144
I0
stRp2293
sg146
g147
sg148
F1
sg149
Nsg30
S'CalbiD'
p2294
sbasg120
g2227
sg123
F0.00051999999999999995
sg124
g125
sg33
S'9'
sg127
g1
(g128
g12
(dp2295
g130
I6
sg131
g132
sg133
g134
sg135
g132
sg136
I01
sg34
g174
sg138
g134
sg139
I0
sg140
I0
sg141
I0
sg142
g134
sg35
g175
sg144
I0
stRp2296
sg146
g147
sg148
F0.73999999999999999
sg149
Nsg30
S'NoName'
p2297
sbag1
(g2
g3
NtRp2298
(dp2299
g6
g1
(g7
g3
NtRp2300
(dp2301
g10
g1
(g11
g12
(dtRp2302
sg14
g1
(g11
g12
(dtRp2303
sg16
g1
(g11
g12
(dtRp2304
sg18
g1
(g11
g12
(dtRp2305
sg20
g1
(g11
g12
(dtRp2306
sg22
g1
(g11
g12
(dtRp2307
sbsg24
S'Cal'
p2308
sg26
g27
((lp2309
g29
ag30
aS'sequence'
p2310
ag32
ag33
aS'species'
p2311
atRp2312
sg37
(lp2313
sg120
g2227
sg121
S'RWLSTKDLYSRLELPGLNQNVHAMFVMPLGFGNPMGDMFARLNNSFWLPPLSLEGAGTGWTVYPPLSHSGPSVDLAFHLTSSLLGAINFTNMRGPLFWTALLLLSLPVLAGTLLDRNFNTFEGGDPLYHLFWFFGHPEVYIIPGFGSHSTYKKFGMYASIGLGFVWSHHMYVGLDDRAYFTSATMIAPTGIKFSWLATYGGRPMLAFLFLFTGGTGVLNASDAFHDTYYVVHFHYVLSMGAFSLGYYYWPGLYNLYWFNFPMHFLGGMPRRPYPDAGWNSGSSYQLGPDESNEPH'
p2314
sg123
F0.00012
sg124
g125
sg33
S'11'
p2315
sg127
g1
(g128
g12
(dp2316
g130
I4
sg131
g132
sg133
g134
sg135
g132
sg136
I01
sg34
g137
sg138
g134
sg139
I0
sg140
I0
sg141
I0
sg142
g134
sg35
g143
sg144
I0
stRp2317
sg146
g147
sg148
F1
sg149
Nsg30
S'CalbiC'
p2318
sbasg120
g2214
sg123
F1.0000000000000001e-05
sg124
g125
sg33
S'4'
sg127
g1
(g128
g12
(dp2319
g130
I6
sg131
g132
sg133
g134
sg135
g132
sg136
I01
sg34
g174
sg138
g134
sg139
I0
sg140
I0
sg141
I0
sg142
g134
sg35
g175
sg144
I0
stRp2320
sg146
g147
sg148
F1
sg149
Nsg30
S'NoName'
p2321
sbag1
(g2
g3
NtRp2322
(dp2323
g6
g1
(g7
g3
NtRp2324
(dp2325
g10
g1
(g11
g12
(dtRp2326
sg14
g1
(g11
g12
(dtRp2327
sg16
g1
(g11
g12
(dtRp2328
sg18
g1
(g11
g12
(dtRp2329
sg20
g1
(g11
g12
(dtRp2330
sg22
g1
(g11
g12
(dtRp2331
sbsg24
S'Cal'
p2332
sg26
g27
((lp2333
g29
ag30
aS'sequence'
p2334
ag32
ag33
aS'species'
p2335
atRp2336
sg37
(lp2337
sg120
g2214
sg121
S'RWLSTKDLYSRLELPGLNQNVHAMFVMPLGFGNPMGDMFARLNNSFWLPPLSLEGAGTGWTVYPPLSHSGPSVDLAFHLTSSLLGAINFTNMRGPLFWTALLLLSLPVLAGTLLDRNFNTFEGGDPLYHLFWFFGHPEVYIIPGFGSHSTYKKFGMYASIGLGFVWSHHMYVGLDDRAYFTSATMIAPTGIKFSWLATYGGRPMLAFLFLFTGGTGVLNASDAFHDTYYVVHFHYVLSMGAFSLGYYYWPGLYNLYWFNFPMHFLGGMPRRPYPDAGWNSGSSYQLGPDESNEPH'
p2338
sg123
F0.00016000000000000001
sg124
g125
sg33
S'10'
p2339
sg127
g1
(g128
g12
(dp2340
g130
I4
sg131
g132
sg133
g134
sg135
g132
sg136
I01
sg34
g137
sg138
g134
sg139
I0
sg140
I0
sg141
I0
sg142
g134
sg35
g143
sg144
I0
stRp2341
sg146
g147
sg148
F1
sg149
Nsg30
S'CalbiB'
p2342
sbasg120
g2201
sg123
F1.0000000000000001e-05
sg124
g125
sg33
S'1'
sg127
g1
(g128
g12
(dp2343
g130
I6
sg131
g132
sg133
g134
sg135
g132
sg136
I01
sg34
g174
sg138
g134
sg139
I0
sg140
I0
sg141
I0
sg142
g134
sg35
g175
sg144
I0
stRp2344
sg146
g147
sg148
F1
sg149
Nsg30
S'NoName'
p2345
sbag1
(g2
g3
NtRp2346
(dp2347
g6
g1
(g7
g3
NtRp2348
(dp2349
g10
g1
(g11
g12
(dtRp2350
sg14
g1
(g11
g12
(dtRp2351
sg16
g1
(g11
g12
(dtRp2352
sg18
g1
(g11
g12
(dtRp2353
sg20
g1
(g11
g12
(dtRp2354
sg22
g1
(g11
g12
(dtRp2355
sbsg24
S'Cal'
p2356
sg26
g27
((lp2357
g29
ag30
aS'sequence'
p2358
ag32
ag33
aS'species'
p2359
atRp2360
sg37
(lp2361
sg120
g2201
sg121
S'RWLSTKDLYSRLELPGLNQNVHAMFVMPLGFGNPMGDMFARLNNSFWLPPLSLEGAGTGWTVYPPLSHSGPSVDLAFHLTSSLLGAINFTNMRGPLFWTALLLLSLPVLAGTLLDRNFNTFEGGDPLYHLFWFFGHPEVYIIPGFGSHSTYKKFGMYASIGLGFVWSHHMYVGLDDRAYFTSATMIAPTGIKFSWLATYGGRPMLAFLFLFTGGTGVLNASDAFHDTYYVVHFHYVLSMGAFSLGYYYWPGLYNLYWFNFPMHFLGGMPRRPYPDAGWNSGSSYQLGPDESNEPH'
p2362
sg123
F0.00013999999999999999
sg124
g125
sg33
S'26'
p2363
sg127
g1
(g128
g12
(dp2364
g130
I4
sg131
g132
sg133
g134
sg135
g132
sg136
I01
sg34
g137
sg138
g134
sg139
I0
sg140
I0
sg141
I0
sg142
g134
sg35
g143
sg144
I0
stRp2365
sg146
g147
sg148
F1
sg149
Nsg30
S'CalbiA'
p2366
sbasg120
g2167
sg123
F0.014959999999999999
sg124
g125
sg33
S'208'
p2367
sg127
g1
(g128
g12
(dp2368
g130
I6
sg131
g132
sg133
g134
sg135
g132
sg136
I01
sg34
g174
sg138
g134
sg139
I0
sg140
I0
sg141
I0
sg142
g134
sg35
g175
sg144
I0
stRp2369
sg146
g147
sg148
F0.98999999999999999
sg149
Nsg30
S'NoName'
p2370
sbasg120
g2095
sg123
F0.05287
sg124
g125
sg33
S'162'
p2371
sg127
g1
(g128
g12
(dp2372
g130
I6
sg131
g132
sg133
g134
sg135
g132
sg136
I01
sg34
g174
sg138
g134
sg139
I0
sg140
I0
sg141
I0
sg142
g134
sg35
g175
sg144
I0
stRp2373
sg146
g147
sg148
F0.98999999999999999
sg149
Nsg30
S'NoName'
p2374
sbasg120
g1719
sg123
F0.037499999999999999
sg124
g125
sg33
S'210'
p2375
sg127
g1
(g128
g12
(dp2376
g130
I6
sg131
g132
sg133
g134
sg135
g132
sg136
I01
sg34
g174
sg138
g134
sg139
I0
sg140
I0
sg141
I0
sg142
g134
sg35
g175
sg144
I0
stRp2377
sg146
g147
sg148
F0.98999999999999999
sg149
Nsg30
S'NoName'
p2378
sbasg120
g1002
sg123
F0.10766000000000001
sg124
g125
sg33
S'202'
p2379
sg127
g1
(g128
g12
(dp2380
g130
I6
sg131
g132
sg133
g134
sg135
g132
sg136
I01
sg34
g174
sg138
g134
sg139
I0
sg140
I0
sg141
I0
sg142
g134
sg35
g175
sg144
I0
stRp2381
sg146
g147
sg148
F0.98999999999999999
sg149
Nsg30
S'NoName'
p2382
sbasg120
g968
sg123
F0.093560000000000004
sg124
g125
sg33
S'189'
p2383
sg127
g1
(g128
g12
(dp2384
g130
I6
sg131
g132
sg133
g134
sg135
g132
sg136
I01
sg34
g174
sg138
g134
sg139
I0
sg140
I0
sg141
I0
sg142
g134
sg35
g175
sg144
I0
stRp2385
sg146
g147
sg148
F0.97999999999999998
sg149
Nsg30
S'NoName'
p2386
sbasg120
g955
sg123
F0.036760000000000001
sg124
g125
sg33
S'154'
p2387
sg127
g1
(g128
g12
(dp2388
g130
I6
sg131
g132
sg133
g134
sg135
g132
sg136
I01
sg34
g174
sg138
g134
sg139
I0
sg140
I0
sg141
I0
sg142
g134
sg35
g175
sg144
I0
stRp2389
sg146
g147
sg148
F0.97999999999999998
sg149
Nsg30
S'NoName'
p2390
sbag1
(g2
g3
NtRp2391
(dp2392
g6
g1
(g7
g3
NtRp2393
(dp2394
g10
g1
(g11
g12
(dtRp2395
sg14
g1
(g11
g12
(dtRp2396
sg16
g1
(g11
g12
(dtRp2397
sg18
g1
(g11
g12
(dtRp2398
sg20
g1
(g11
g12
(dtRp2399
sg22
g1
(g11
g12
(dtRp2400
sbsg24
g25
sg26
g27
((lp2401
g33
ag32
ag29
ag30
atRp2402
sg37
(lp2403
g1
(g2
g3
NtRp2404
(dp2405
g6
g1
(g7
g3
NtRp2406
(dp2407
g10
g1
(g11
g12
(dtRp2408
sg14
g1
(g11
g12
(dtRp2409
sg16
g1
(g11
g12
(dtRp2410
sg18
g1
(g11
g12
(dtRp2411
sg20
g1
(g11
g12
(dtRp2412
sg22
g1
(g11
g12
(dtRp2413
sbsg24
g25
sg26
g27
((lp2414
g33
ag32
ag29
ag30
atRp2415
sg37
(lp2416
g1
(g2
g3
NtRp2417
(dp2418
g6
g1
(g7
g3
NtRp2419
(dp2420
g10
g1
(g11
g12
(dtRp2421
sg14
g1
(g11
g12
(dtRp2422
sg16
g1
(g11
g12
(dtRp2423
sg18
g1
(g11
g12
(dtRp2424
sg20
g1
(g11
g12
(dtRp2425
sg22
g1
(g11
g12
(dtRp2426
sbsg24
S'Csu'
p2427
sg26
g27
((lp2428
g29
ag30
aS'sequence'
p2429
ag32
ag33
aS'species'
p2430
atRp2431
sg37
(lp2432
sg120
g2404
sg121
S'RWLSTKDLYSRMELPGLNQNVHAMFIMPLGLGNPLGDMFARLNNSFWLPPLSLEGAGTGWTVYPPLSHSGPSVDLAFHLTSSLLGAINFTNMRGPLYWTALLLLSLPVLAATLLDRNFNTFEGGDPLYHLFWFFGHPEVYIIPGFGSHSTYKKFGMYASIGLGFVWSHHMFVGLDDRAYFTSATMIAPTGVKFSWLATYGGRPMLAFLFLFTGGTGVINASDAFHDTYYIVHFHYVLSMGAFSLGFYYWPGLYNLFWFNFPMHFLGGMPRRPYPDAGWNSGSAYQLGPDESNEPH'
p2433
sg123
F0.00012999999999999999
sg124
g125
sg33
S'21'
p2434
sg127
g1
(g128
g12
(dp2435
g130
I4
sg131
g132
sg133
g134
sg135
g132
sg136
I01
sg34
g137
sg138
g134
sg139
I0
sg140
I0
sg141
I0
sg142
g134
sg35
g143
sg144
I0
stRp2436
sg146
g147
sg148
F1
sg149
Nsg30
S'CsubhB'
p2437
sbag1
(g2
g3
NtRp2438
(dp2439
g6
g1
(g7
g3
NtRp2440
(dp2441
g10
g1
(g11
g12
(dtRp2442
sg14
g1
(g11
g12
(dtRp2443
sg16
g1
(g11
g12
(dtRp2444
sg18
g1
(g11
g12
(dtRp2445
sg20
g1
(g11
g12
(dtRp2446
sg22
g1
(g11
g12
(dtRp2447
sbsg24
S'Csu'
p2448
sg26
g27
((lp2449
g29
ag30
aS'sequence'
p2450
ag32
ag33
aS'species'
p2451
atRp2452
sg37
(lp2453
sg120
g2404
sg121
S'RWLSTKDLYSRMELPGLNQNVHAMFIMPLGLGNPLGDMFARLNNSFWLPPLSLEGAGTGWTVYPPLSHSGPSVDLAFHLTSSLLGAINFTNMRGPLYWTALLLLSLPVLAATLLDRNFNTFEGGDPLYHLFWFFGHPEVYIIPGFGSHSTYKKFGMYASIGLGFVWSHHMFVGLDDRAYFTSATMIAPTGVKFSWLATYGGRPMLAFLFLFTGGTGVINASDAFHDTYYIVHFHYVLSMGAFSLGFYYWPGLYNLFWFNFPMHFLGGMPRRPYPDAGWNSGSAYQLGPDESNEPH'
p2454
sg123
F0.00013999999999999999
sg124
g125
sg33
S'94'
p2455
sg127
g1
(g128
g12
(dp2456
g130
I4
sg131
g132
sg133
g134
sg135
g132
sg136
I01
sg34
g137
sg138
g134
sg139
I0
sg140
I0
sg141
I0
sg142
g134
sg35
g143
sg144
I0
stRp2457
sg146
g147
sg148
F1
sg149
Nsg30
S'CsubhA'
p2458
sbasg120
g2391
sg123
F0.59348999999999996
sg124
g125
sg33
S'16'
p2459
sg127
g1
(g128
g12
(dp2460
g130
I6
sg131
g132
sg133
g134
sg135
g132
sg136
I01
sg34
g174
sg138
g134
sg139
I0
sg140
I0
sg141
I0
sg142
g134
sg35
g175
sg144
I0
stRp2461
sg146
g147
sg148
F1
sg149
Nsg30
S'NoName'
p2462
sbag1
(g2
g3
NtRp2463
(dp2464
g6
g1
(g7
g3
NtRp2465
(dp2466
g10
g1
(g11
g12
(dtRp2467
sg14
g1
(g11
g12
(dtRp2468
sg16
g1
(g11
g12
(dtRp2469
sg18
g1
(g11
g12
(dtRp2470
sg20
g1
(g11
g12
(dtRp2471
sg22
g1
(g11
g12
(dtRp2472
sbsg24
S'Cal'
p2473
sg26
g27
((lp2474
g29
ag30
aS'sequence'
p2475
ag32
ag33
aS'species'
p2476
atRp2477
sg37
(lp2478
sg120
g2391
sg121
S'RWLSTKDLYSRMELPGLNQNVHAMFVMPLGFGNPLGDMFARLNNSFWLPPLSLDGPGTGWTVYPPLSHSGASVDFAFHLTSSLLGAINFTNMRGPLFWTALLLLSLPVLVATLLDRNFNTFEGGDPLYHLFWFFGHPEVYMIPGFGSHSTYKKFGMYASIGLGFVWSHHMFVGLDDRAYFTSATMMAPTGIKFSWMATYGGYPMLAFLFLFTGGTGVINASDAFHDTYYIVHFHYVLSMGAFSLGYYYWPGLYNLFWFNFPMHFLGGMPRRPYPDAGWNSGSAYQLGPDESNEPH'
p2479
sg123
F0.40044000000000002
sg124
g125
sg33
S'24'
p2480
sg127
g1
(g128
g12
(dp2481
g130
I4
sg131
g132
sg133
g134
sg135
g132
sg136
I01
sg34
g137
sg138
g134
sg139
I0
sg140
I0
sg141
I0
sg142
g134
sg35
g143
sg144
I0
stRp2482
sg146
g147
sg148
F1
sg149
Nsg30
S'CalaiA'
p2483
sbasg120
g955
sg123
F0.080810000000000007
sg124
g125
sg33
S'3'
sg127
g1
(g128
g12
(dp2484
g130
I6
sg131
g132
sg133
g134
sg135
g132
sg136
I01
sg34
g174
sg138
g134
sg139
I0
sg140
I0
sg141
I0
sg142
g134
sg35
g175
sg144
I0
stRp2485
sg146
g147
sg148
F0.98999999999999999
sg149
Nsg30
S'NoName'
p2486
sbasg120
g693
sg123
F0.075389999999999999
sg124
g125
sg33
S'158'
p2487
sg127
g1
(g128
g12
(dp2488
g130
I6
sg131
g132
sg133
g134
sg135
g132
sg136
I01
sg34
g174
sg138
g134
sg139
I0
sg140
I0
sg141
I0
sg142
g134
sg35
g175
sg144
I0
stRp2489
sg146
g147
sg148
F0.94999999999999996
sg149
Nsg30
S'NoName'
p2490
sbasg120
g680
sg123
F1.2542500000000001
sg124
g125
sg33
S'103'
p2491
sg127
g1
(g128
g12
(dp2492
g130
I6
sg131
g132
sg133
g134
sg135
g132
sg136
I01
sg34
g174
sg138
g134
sg139
I0
sg140
I0
sg141
I0
sg142
g134
sg35
g175
sg144
I0
stRp2493
sg146
g147
sg148
F0.97999999999999998
sg149
Nsg30
S'NoName'
p2494
sbag1
(g2
g3
NtRp2495
(dp2496
g6
g1
(g7
g3
NtRp2497
(dp2498
g10
g1
(g11
g12
(dtRp2499
sg14
g1
(g11
g12
(dtRp2500
sg16
g1
(g11
g12
(dtRp2501
sg18
g1
(g11
g12
(dtRp2502
sg20
g1
(g11
g12
(dtRp2503
sg22
g1
(g11
g12
(dtRp2504
sbsg24
g25
sg26
g27
((lp2505
g33
ag32
ag29
ag30
atRp2506
sg37
(lp2507
g1
(g2
g3
NtRp2508
(dp2509
g6
g1
(g7
g3
NtRp2510
(dp2511
g10
g1
(g11
g12
(dtRp2512
sg14
g1
(g11
g12
(dtRp2513
sg16
g1
(g11
g12
(dtRp2514
sg18
g1
(g11
g12
(dtRp2515
sg20
g1
(g11
g12
(dtRp2516
sg22
g1
(g11
g12
(dtRp2517
sbsg24
g25
sg26
g27
((lp2518
g33
ag32
ag29
ag30
atRp2519
sg37
(lp2520
g1
(g2
g3
NtRp2521
(dp2522
g6
g1
(g7
g3
NtRp2523
(dp2524
g10
g1
(g11
g12
(dtRp2525
sg14
g1
(g11
g12
(dtRp2526
sg16
g1
(g11
g12
(dtRp2527
sg18
g1
(g11
g12
(dtRp2528
sg20
g1
(g11
g12
(dtRp2529
sg22
g1
(g11
g12
(dtRp2530
sbsg24
S'Ppa'
p2531
sg26
g27
((lp2532
g29
ag30
aS'sequence'
p2533
ag32
ag33
aS'species'
p2534
atRp2535
sg37
(lp2536
sg120
g2508
sg121
S'RWLSTKDLYSRLELPGLNQNVHAMFVMPAGFGNPMGDMFARLNNSFWLPPLSLEGAGTGWTVYPPLAHSGPSVDLAFHLTSSLLGAMNFTNMRGPLFWTSLLLLSLPVLAGTLLDRNFNTFEGGDPLYHLFWFFGHPEVYIMPGFGSHSTYKKFGMYASIGLGLVWSHHMYVGLDDRAYFTSATMMAPTGMKFSWLATYGGRPMLAFLFLFTGGSGVLNASDAFHDTYYVIHFHYVLSLGAFSLGYYYWPGLYNLFWFNFPMHFLGGMPRRPYPDAGWNSGSSYQLGPDESNDPH'
p2537
sg123
F0.16184999999999999
sg124
g125
sg33
S'98'
p2538
sg127
g1
(g128
g12
(dp2539
g130
I4
sg131
g132
sg133
g134
sg135
g132
sg136
I01
sg34
g137
sg138
g134
sg139
I0
sg140
I0
sg141
I0
sg142
g134
sg35
g143
sg144
I0
stRp2540
sg146
g147
sg148
F1
sg149
Nsg30
S'PpastA'
p2541
sbag1
(g2
g3
NtRp2542
(dp2543
g6
g1
(g7
g3
NtRp2544
(dp2545
g10
g1
(g11
g12
(dtRp2546
sg14
g1
(g11
g12
(dtRp2547
sg16
g1
(g11
g12
(dtRp2548
sg18
g1
(g11
g12
(dtRp2549
sg20
g1
(g11
g12
(dtRp2550
sg22
g1
(g11
g12
(dtRp2551
sbsg24
g25
sg26
g27
((lp2552
g33
ag32
ag29
ag30
atRp2553
sg37
(lp2554
g1
(g2
g3
NtRp2555
(dp2556
g6
g1
(g7
g3
NtRp2557
(dp2558
g10
g1
(g11
g12
(dtRp2559
sg14
g1
(g11
g12
(dtRp2560
sg16
g1
(g11
g12
(dtRp2561
sg18
g1
(g11
g12
(dtRp2562
sg20
g1
(g11
g12
(dtRp2563
sg22
g1
(g11
g12
(dtRp2564
sbsg24
S'Pta'
p2565
sg26
g27
((lp2566
g29
ag30
aS'sequence'
p2567
ag32
ag33
aS'species'
p2568
atRp2569
sg37
(lp2570
sg120
g2542
sg121
S'RWLSTKDLYSRLELPGLNQNVHAMFVMPAGFGNPMGDMFARLNNSFWLPPLSLEGAGTGWTVYPPLSHSGPSVDLAFHLTSSLLGGMNFTNMRGPLFWTSLLVLTLPVLAGTLLDRNFNTFEGGDPLYHLFWFFGHPEVYIIPGFGSHSAYKKFGMYASIGLGLVWSHHMYVGLDDRAYFTSATMIAPTGIKFSWLATYGGRPMLAFLFLFTGGSGVLNASDAFHDTYYVMHFHYVLSLGAFSLGYYYWPGLYNLFWFNFPMHFLGGMPRRPYPDAGFNSGSSYQLGPDESNEPH'
p2571
sg123
F0.23080999999999999
sg124
g125
sg33
S'111'
p2572
sg127
g1
(g128
g12
(dp2573
g130
I4
sg131
g132
sg133
g134
sg135
g132
sg136
I01
sg34
g137
sg138
g134
sg139
I0
sg140
I0
sg141
I0
sg142
g134
sg35
g143
sg144
I0
stRp2574
sg146
g147
sg148
F1
sg149
Nsg30
S'PtannA'
p2575
sbag1
(g2
g3
NtRp2576
(dp2577
g6
g1
(g7
g3
NtRp2578
(dp2579
g10
g1
(g11
g12
(dtRp2580
sg14
g1
(g11
g12
(dtRp2581
sg16
g1
(g11
g12
(dtRp2582
sg18
g1
(g11
g12
(dtRp2583
sg20
g1
(g11
g12
(dtRp2584
sg22
g1
(g11
g12
(dtRp2585
sbsg24
g25
sg26
g27
((lp2586
g33
ag32
ag29
ag30
atRp2587
sg37
(lp2588
g1
(g2
g3
NtRp2589
(dp2590
g6
g1
(g7
g3
NtRp2591
(dp2592
g10
g1
(g11
g12
(dtRp2593
sg14
g1
(g11
g12
(dtRp2594
sg16
g1
(g11
g12
(dtRp2595
sg18
g1
(g11
g12
(dtRp2596
sg20
g1
(g11
g12
(dtRp2597
sg22
g1
(g11
g12
(dtRp2598
sbsg24
g25
sg26
g27
((lp2599
g33
ag32
ag29
ag30
atRp2600
sg37
(lp2601
g1
(g2
g3
NtRp2602
(dp2603
g6
g1
(g7
g3
NtRp2604
(dp2605
g10
g1
(g11
g12
(dtRp2606
sg14
g1
(g11
g12
(dtRp2607
sg16
g1
(g11
g12
(dtRp2608
sg18
g1
(g11
g12
(dtRp2609
sg20
g1
(g11
g12
(dtRp2610
sg22
g1
(g11
g12
(dtRp2611
sbsg24
S'Pkl'
p2612
sg26
g27
((lp2613
g29
ag30
aS'sequence'
p2614
ag32
ag33
aS'species'
p2615
atRp2616
sg37
(lp2617
sg120
g2589
sg121
S'RWLSTKDLYSRLELPGLNQNVHAMFMMPTGFGNPMGDMFARLNNSFWLPPLSLEGPGTGWTVYPPLSHSGPSVDLAFHLTSSLLGAMNFTNMRGPLFWTALLVMTLPVLAGTLLDRNFNTFEGGDPLYHLFWFFGHPEVYMMPGFGSHSTYKKFGMYASMGLGLVWSHHMYVGLDDRAYFTSATMMAPTGMKFSWLATYGGRPMLAFMFIFTGGSGVLNASDAFHDTYYVMHFHYVLSLGAFAMGYYYWPGLFNLFWFNFPMHFLGGMPRRPYPDAGFNSGASYQLGPDESNEPH'
p2618
sg123
F0.12625
sg124
g125
sg33
S'106'
p2619
sg127
g1
(g128
g12
(dp2620
g130
I4
sg131
g132
sg133
g134
sg135
g132
sg136
I01
sg34
g137
sg138
g134
sg139
I0
sg140
I0
sg141
I0
sg142
g134
sg35
g143
sg144
I0
stRp2621
sg146
g147
sg148
F1
sg149
Nsg30
S'PkluyA'
p2622
sbag1
(g2
g3
NtRp2623
(dp2624
g6
g1
(g7
g3
NtRp2625
(dp2626
g10
g1
(g11
g12
(dtRp2627
sg14
g1
(g11
g12
(dtRp2628
sg16
g1
(g11
g12
(dtRp2629
sg18
g1
(g11
g12
(dtRp2630
sg20
g1
(g11
g12
(dtRp2631
sg22
g1
(g11
g12
(dtRp2632
sbsg24
S'Bcu'
p2633
sg26
g27
((lp2634
g29
ag30
aS'sequence'
p2635
ag32
ag33
aS'species'
p2636
atRp2637
sg37
(lp2638
sg120
g2589
sg121
S'RWLSTKDLYSRLELPGLDQNVHSMFMMPTGFGNPMGDMFARLNNAFWYPPLSLEGPGTGWTVYPPLSHSGPSMDLAFHLTSSMLSSMNFTNMRGPLFWTALLMMTLPVLAGTLLDRNFNTFEGGDPLYHLYWFFGHPEVYIIPVFGSHSNYKKFGMYASMGLGLVWSHHMYVGLDDRAYFTSATMIAPTGIKFSWLATYGGRPMLAFLFMFTGGSGVLNASDAFHDTYFVVHFHYVLSLGVYGVGYYFWPGLYNMFWFNFPMHFLGGMPRRPYPDAGFNSGSAYQLGPDESNEPH'
p2639
sg123
F0.30854999999999999
sg124
g125
sg33
S'74'
p2640
sg127
g1
(g128
g12
(dp2641
g130
I4
sg131
g132
sg133
g134
sg135
g132
sg136
I01
sg34
g137
sg138
g134
sg139
I0
sg140
I0
sg141
I0
sg142
g134
sg35
g143
sg144
I0
stRp2642
sg146
g147
sg148
F1
sg149
Nsg30
S'BcustA'
p2643
sbasg120
g2576
sg123
F0.19120999999999999
sg124
g125
sg33
S'102'
p2644
sg127
g1
(g128
g12
(dp2645
g130
I6
sg131
g132
sg133
g134
sg135
g132
sg136
I01
sg34
g174
sg138
g134
sg139
I0
sg140
I0
sg141
I0
sg142
g134
sg35
g175
sg144
I0
stRp2646
sg146
g147
sg148
F0.98999999999999999
sg149
Nsg30
S'NoName'
p2647
sbag1
(g2
g3
NtRp2648
(dp2649
g6
g1
(g7
g3
NtRp2650
(dp2651
g10
g1
(g11
g12
(dtRp2652
sg14
g1
(g11
g12
(dtRp2653
sg16
g1
(g11
g12
(dtRp2654
sg18
g1
(g11
g12
(dtRp2655
sg20
g1
(g11
g12
(dtRp2656
sg22
g1
(g11
g12
(dtRp2657
sbsg24
S'Oan'
p2658
sg26
g27
((lp2659
g29
ag30
aS'sequence'
p2660
ag32
ag33
aS'species'
p2661
atRp2662
sg37
(lp2663
sg120
g2576
sg121
S'RWLSTKDLYSRLELPGLNQNAHAMFVMPAGFGNPMGDMFARLNNSFWLPPLSLEGAGTGWTVYPPLSHSGPSVDLAFHLTSSLLGAINFTNMRGPLFWTALLLLSLPVLAGTLLDRNFNTFEGGDPLYHLFWFFGHPEVYIIPGFGSHSTYKKFGMYASIGLGLVWSHHMYVGLDDRAYFTSATMIAPTGIKFSWIATYGGRPMLAFLFLFTGGSGVLNASDAFHDTYYVIHFHYVLSLGAFSLGYYYWPGLYNLFWFNFPMHFLGGMPRRPYPDAGYNSGSSYQLGPDESNEPH'
p2664
sg123
F0.025399999999999999
sg124
g125
sg33
S'109'
p2665
sg127
g1
(g128
g12
(dp2666
g130
I4
sg131
g132
sg133
g134
sg135
g132
sg136
I01
sg34
g137
sg138
g134
sg139
I0
sg140
I0
sg141
I0
sg142
g134
sg35
g143
sg144
I0
stRp2667
sg146
g147
sg148
F1
sg149
Nsg30
S'OanguA'
p2668
sbasg120
g2542
sg123
F0.33273999999999998
sg124
g125
sg33
S'96'
p2669
sg127
g1
(g128
g12
(dp2670
g130
I6
sg131
g132
sg133
g134
sg135
g132
sg136
I01
sg34
g174
sg138
g134
sg139
I0
sg140
I0
sg141
I0
sg142
g134
sg35
g175
sg144
I0
stRp2671
sg146
g147
sg148
F0.98999999999999999
sg149
Nsg30
S'NoName'
p2672
sbasg120
g2508
sg123
F0.054379999999999998
sg124
g125
sg33
S'105'
p2673
sg127
g1
(g128
g12
(dp2674
g130
I6
sg131
g132
sg133
g134
sg135
g132
sg136
I01
sg34
g174
sg138
g134
sg139
I0
sg140
I0
sg141
I0
sg142
g134
sg35
g175
sg144
I0
stRp2675
sg146
g147
sg148
F0.96999999999999997
sg149
Nsg30
S'NoName'
p2676
sbasg120
g2495
sg123
F0.76378000000000001
sg124
g125
sg33
S'101'
p2677
sg127
g1
(g128
g12
(dp2678
g130
I6
sg131
g132
sg133
g134
sg135
g132
sg136
I01
sg34
g174
sg138
g134
sg139
I0
sg140
I0
sg141
I0
sg142
g134
sg35
g175
sg144
I0
stRp2679
sg146
g147
sg148
F0.98999999999999999
sg149
Nsg30
S'NoName'
p2680
sbag1
(g2
g3
NtRp2681
(dp2682
g6
g1
(g7
g3
NtRp2683
(dp2684
g10
g1
(g11
g12
(dtRp2685
sg14
g1
(g11
g12
(dtRp2686
sg16
g1
(g11
g12
(dtRp2687
sg18
g1
(g11
g12
(dtRp2688
sg20
g1
(g11
g12
(dtRp2689
sg22
g1
(g11
g12
(dtRp2690
sbsg24
g25
sg26
g27
((lp2691
g33
ag32
ag29
ag30
atRp2692
sg37
(lp2693
g1
(g2
g3
NtRp2694
(dp2695
g6
g1
(g7
g3
NtRp2696
(dp2697
g10
g1
(g11
g12
(dtRp2698
sg14
g1
(g11
g12
(dtRp2699
sg16
g1
(g11
g12
(dtRp2700
sg18
g1
(g11
g12
(dtRp2701
sg20
g1
(g11
g12
(dtRp2702
sg22
g1
(g11
g12
(dtRp2703
sbsg24
g25
sg26
g27
((lp2704
g33
ag32
ag29
ag30
atRp2705
sg37
(lp2706
g1
(g2
g3
NtRp2707
(dp2708
g6
g1
(g7
g3
NtRp2709
(dp2710
g10
g1
(g11
g12
(dtRp2711
sg14
g1
(g11
g12
(dtRp2712
sg16
g1
(g11
g12
(dtRp2713
sg18
g1
(g11
g12
(dtRp2714
sg20
g1
(g11
g12
(dtRp2715
sg22
g1
(g11
g12
(dtRp2716
sbsg24
g25
sg26
g27
((lp2717
g33
ag32
ag29
ag30
atRp2718
sg37
(lp2719
g1
(g2
g3
NtRp2720
(dp2721
g6
g1
(g7
g3
NtRp2722
(dp2723
g10
g1
(g11
g12
(dtRp2724
sg14
g1
(g11
g12
(dtRp2725
sg16
g1
(g11
g12
(dtRp2726
sg18
g1
(g11
g12
(dtRp2727
sg20
g1
(g11
g12
(dtRp2728
sg22
g1
(g11
g12
(dtRp2729
sbsg24
g25
sg26
g27
((lp2730
g33
ag32
ag29
ag30
atRp2731
sg37
(lp2732
g1
(g2
g3
NtRp2733
(dp2734
g6
g1
(g7
g3
NtRp2735
(dp2736
g10
g1
(g11
g12
(dtRp2737
sg14
g1
(g11
g12
(dtRp2738
sg16
g1
(g11
g12
(dtRp2739
sg18
g1
(g11
g12
(dtRp2740
sg20
g1
(g11
g12
(dtRp2741
sg22
g1
(g11
g12
(dtRp2742
sbsg24
S'Cva'
p2743
sg26
g27
((lp2744
g29
ag30
aS'sequence'
p2745
ag32
ag33
aS'species'
p2746
atRp2747
sg37
(lp2748
sg120
g2720
sg121
S'RWLSTKDLYSRLELPGLNQNVHAMFVMPLGFGNPLGDMFARLNNSFWLPPLSLEGAGTGWTIYPPLSHSSPSVDLGFHLTSSLLGAINFTNMRGPLFWTAMLLLSLPVLAGTLLDRNFNTFEGGDPLYHLFWFFGHPEVYIIPGFGSHSTYKKFGMYASIALGFVWSHHMYVGLDDRAYFTSSTMIAPTGIKFSWLATYGGRPMLAFLFLFTGGTGVLNASDAFHDTYYVVHFHYVLSMGAFSLGYYYWPGLYNLFWFNFPMHFLGGMPRRPYPDAGWNSGSSYQLGPDESNEPH'
p2749
sg123
F0.043270000000000003
sg124
g125
sg33
S'91'
p2750
sg127
g1
(g128
g12
(dp2751
g130
I4
sg131
g132
sg133
g134
sg135
g132
sg136
I01
sg34
g137
sg138
g134
sg139
I0
sg140
I0
sg141
I0
sg142
g134
sg35
g143
sg144
I0
stRp2752
sg146
g147
sg148
F1
sg149
Nsg30
S'CvartA'
p2753
sbag1
(g2
g3
NtRp2754
(dp2755
g6
g1
(g7
g3
NtRp2756
(dp2757
g10
g1
(g11
g12
(dtRp2758
sg14
g1
(g11
g12
(dtRp2759
sg16
g1
(g11
g12
(dtRp2760
sg18
g1
(g11
g12
(dtRp2761
sg20
g1
(g11
g12
(dtRp2762
sg22
g1
(g11
g12
(dtRp2763
sbsg24
g25
sg26
g27
((lp2764
g33
ag32
ag29
ag30
atRp2765
sg37
(lp2766
g1
(g2
g3
NtRp2767
(dp2768
g6
g1
(g7
g3
NtRp2769
(dp2770
g10
g1
(g11
g12
(dtRp2771
sg14
g1
(g11
g12
(dtRp2772
sg16
g1
(g11
g12
(dtRp2773
sg18
g1
(g11
g12
(dtRp2774
sg20
g1
(g11
g12
(dtRp2775
sg22
g1
(g11
g12
(dtRp2776
sbsg24
S'Csu'
p2777
sg26
g27
((lp2778
g29
ag30
aS'sequence'
p2779
ag32
ag33
aS'species'
p2780
atRp2781
sg37
(lp2782
sg120
g2754
sg121
S'RWLSTKDLYSRLELPGLNQNVHAMFVMPLGFGNPLGDMFARLNNSFWLPPLSLEGAGTGWTIYPPLSHSSPSVDLGFHLTSSMLGAINFTNMRGPLFWTAMLLLSLPVLAGTLLDRNFNTFEGGDPLYHLFWFFGHPEVYIIPGFGSHSTYKKFGMYASIALGFVWSHHMYVGLDDRAYFTSSTMIAPTGIKFSWLATYGGRPMLAFLFLFTGGTGVLNASDAFHDSYYY-HFHYVLSMGAFSLGYYYWPGLYNLFWFNFPMHFLGGMPRRPYPDAGWNSGSSYQLGPDESNEPH'
p2783
sg123
F0.0043699999999999998
sg124
g125
sg33
S'87'
p2784
sg127
g1
(g128
g12
(dp2785
g130
I4
sg131
g132
sg133
g134
sg135
g132
sg136
I01
sg34
g137
sg138
g134
sg139
I0
sg140
I0
sg141
I0
sg142
g134
sg35
g143
sg144
I0
stRp2786
sg146
g147
sg148
F1
sg149
Nsg30
S'CsuavB'
p2787
sbag1
(g2
g3
NtRp2788
(dp2789
g6
g1
(g7
g3
NtRp2790
(dp2791
g10
g1
(g11
g12
(dtRp2792
sg14
g1
(g11
g12
(dtRp2793
sg16
g1
(g11
g12
(dtRp2794
sg18
g1
(g11
g12
(dtRp2795
sg20
g1
(g11
g12
(dtRp2796
sg22
g1
(g11
g12
(dtRp2797
sbsg24
S'Csu'
p2798
sg26
g27
((lp2799
g29
ag30
aS'sequence'
p2800
ag32
ag33
aS'species'
p2801
atRp2802
sg37
(lp2803
sg120
g2754
sg121
S'RWLSTKDLYSRLELPGLNQNVHAMFVMPLGFGNPLGDMFARLNNSFWLPPLSLEGAGTGWTIYPPLSHSSPSVDLGFHLTSSLLGAINFTNMRGPLFWTAMLLLSLPVLAGTLLDRNFNTFEGGDPLYHLFWFFGHPEVYIIPGFGSHSTYKKFGMYASIALGFVWSHHMYVGLDDRAYFTSSTMIAPTGIKFSWLATYGGRPMLAFLFLFTGGTGVLNASDAFHDTYYVVHFHYVLSMGAFSLGYYYWPGLYNLFWFNFPMHFLGGMPRRPYPDAGWNSGSSYQLGPDESNEPH'
p2804
sg123
F0.0025999999999999999
sg124
g125
sg33
S'86'
p2805
sg127
g1
(g128
g12
(dp2806
g130
I4
sg131
g132
sg133
g134
sg135
g132
sg136
I01
sg34
g137
sg138
g134
sg139
I0
sg140
I0
sg141
I0
sg142
g134
sg35
g143
sg144
I0
stRp2807
sg146
g147
sg148
F1
sg149
Nsg30
S'CsuavA'
p2808
sbasg120
g2720
sg123
F0.016740000000000001
sg124
g125
sg33
S'76'
p2809
sg127
g1
(g128
g12
(dp2810
g130
I6
sg131
g132
sg133
g134
sg135
g132
sg136
I01
sg34
g174
sg138
g134
sg139
I0
sg140
I0
sg141
I0
sg142
g134
sg35
g175
sg144
I0
stRp2811
sg146
g147
sg148
F0.98999999999999999
sg149
Nsg30
S'NoName'
p2812
sbasg120
g2707
sg123
F0.01158
sg124
g125
sg33
S'79'
p2813
sg127
g1
(g128
g12
(dp2814
g130
I6
sg131
g132
sg133
g134
sg135
g132
sg136
I01
sg34
g174
sg138
g134
sg139
I0
sg140
I0
sg141
I0
sg142
g134
sg35
g175
sg144
I0
stRp2815
sg146
g147
sg148
F0.97999999999999998
sg149
Nsg30
S'NoName'
p2816
sbag1
(g2
g3
NtRp2817
(dp2818
g6
g1
(g7
g3
NtRp2819
(dp2820
g10
g1
(g11
g12
(dtRp2821
sg14
g1
(g11
g12
(dtRp2822
sg16
g1
(g11
g12
(dtRp2823
sg18
g1
(g11
g12
(dtRp2824
sg20
g1
(g11
g12
(dtRp2825
sg22
g1
(g11
g12
(dtRp2826
sbsg24
S'Cja'
p2827
sg26
g27
((lp2828
g29
ag30
aS'sequence'
p2829
ag32
ag33
aS'species'
p2830
atRp2831
sg37
(lp2832
sg120
g2707
sg121
S'RWLSTKDLYSRLELPGLNQNVHAMFVMPLGFGNPLGDMFARLNNSFWLPPLSLEGAGTGWTIYPPLAHSSPSVDLGFHLTSSLLGAINFTNMRGPLFWTAMLLLSLPVLAGTLLDRNFNTFEGGDPLYHLFWFFGHPEVYIIPGFGSHSTYKKFGMYASIALGFVWSHHMYVGLDDRAYFTSSTMIAPTGIKFSWLATYGGRPMLAFLFLFTGGTGVLNASDAFHDTYYVVHFHYVLSMGAFSLGYYYWPGLYNLFWFNFPMHFLGGMPRRPYPDAGWNSGSSYQLGPDESNEPH'
p2833
sg123
F0.033799999999999997
sg124
g125
sg33
S'15'
p2834
sg127
g1
(g128
g12
(dp2835
g130
I4
sg131
g132
sg133
g134
sg135
g132
sg136
I01
sg34
g137
sg138
g134
sg139
I0
sg140
I0
sg141
I0
sg142
g134
sg35
g143
sg144
I0
stRp2836
sg146
g147
sg148
F1
sg149
Nsg30
S'CjadiA'
p2837
sbasg120
g2694
sg123
F0.10375
sg124
g125
sg33
S'84'
p2838
sg127
g1
(g128
g12
(dp2839
g130
I6
sg131
g132
sg133
g134
sg135
g132
sg136
I01
sg34
g174
sg138
g134
sg139
I0
sg140
I0
sg141
I0
sg142
g134
sg35
g175
sg144
I0
stRp2840
sg146
g147
sg148
F0.98999999999999999
sg149
Nsg30
S'NoName'
p2841
sbag1
(g2
g3
NtRp2842
(dp2843
g6
g1
(g7
g3
NtRp2844
(dp2845
g10
g1
(g11
g12
(dtRp2846
sg14
g1
(g11
g12
(dtRp2847
sg16
g1
(g11
g12
(dtRp2848
sg18
g1
(g11
g12
(dtRp2849
sg20
g1
(g11
g12
(dtRp2850
sg22
g1
(g11
g12
(dtRp2851
sbsg24
g25
sg26
g27
((lp2852
g33
ag32
ag29
ag30
atRp2853
sg37
(lp2854
g1
(g2
g3
NtRp2855
(dp2856
g6
g1
(g7
g3
NtRp2857
(dp2858
g10
g1
(g11
g12
(dtRp2859
sg14
g1
(g11
g12
(dtRp2860
sg16
g1
(g11
g12
(dtRp2861
sg18
g1
(g11
g12
(dtRp2862
sg20
g1
(g11
g12
(dtRp2863
sg22
g1
(g11
g12
(dtRp2864
sbsg24
g25
sg26
g27
((lp2865
g33
ag32
ag29
ag30
atRp2866
sg37
(lp2867
g1
(g2
g3
NtRp2868
(dp2869
g6
g1
(g7
g3
NtRp2870
(dp2871
g10
g1
(g11
g12
(dtRp2872
sg14
g1
(g11
g12
(dtRp2873
sg16
g1
(g11
g12
(dtRp2874
sg18
g1
(g11
g12
(dtRp2875
sg20
g1
(g11
g12
(dtRp2876
sg22
g1
(g11
g12
(dtRp2877
sbsg24
S'Wpi'
p2878
sg26
g27
((lp2879
g29
ag30
aS'sequence'
p2880
ag32
ag33
aS'species'
p2881
atRp2882
sg37
(lp2883
sg120
g2855
sg121
S'RWLSTKDLYSRLELPGLNQNVHAMFVMPLGFGNPLGDMFARLNNSFWLPPLSLEGAGTGWTIYPPLSHSSPSVDLGFHLTSSLLGAINFTNMRGPLFWTAMLLLSLPVLAGTLLDRNFNTFEGGDPLYHLFWFFGHPEVYIIPGFGSHSTYKKFGMYASIALGFVWSHHMYVGLDDRAYFTSSTMIAPTGIKFSWLATYGGRPMLAFLFLFTGGTGVLNASDAFHDTYYVVHFHYVLSMGAFSLGYYYWPGLYNLFWFNFPMHFLGGMPRRPYPDAGWNSGSSFQLGPDESNEPH'
p2884
sg123
F0.051209999999999999
sg124
g125
sg33
S'215'
p2885
sg127
g1
(g128
g12
(dp2886
g130
I4
sg131
g132
sg133
g134
sg135
g132
sg136
I01
sg34
g137
sg138
g134
sg139
I0
sg140
I0
sg141
I0
sg142
g134
sg35
g143
sg144
I0
stRp2887
sg146
g147
sg148
F1
sg149
Nsg30
S'WpijpA'
p2888
sbag1
(g2
g3
NtRp2889
(dp2890
g6
g1
(g7
g3
NtRp2891
(dp2892
g10
g1
(g11
g12
(dtRp2893
sg14
g1
(g11
g12
(dtRp2894
sg16
g1
(g11
g12
(dtRp2895
sg18
g1
(g11
g12
(dtRp2896
sg20
g1
(g11
g12
(dtRp2897
sg22
g1
(g11
g12
(dtRp2898
sbsg24
S'Wmu'
p2899
sg26
g27
((lp2900
g29
ag30
aS'sequence'
p2901
ag32
ag33
aS'species'
p2902
atRp2903
sg37
(lp2904
sg120
g2855
sg121
S'RWLSTKDLYSRLELPGLNQNVHAMFVMPLGFGNPLGDMFARLNNSFWLPPLSLEGAGTGWTIYPPLAHSSPSVDLGFHLTSSLLGAINFTNMRGPLFWTAMLLLSLPVLAGTLLDRNFNTFEGGDPLYHLFWFFGHPEVYIIPGFGSHSTYKKFGMYASIALGFVWSHHMYVGLDDRAYFTSSTMIAPTGIKFSWLATYGGRPMLAFLFLFTGGTGVLNASDAFHDTYYVVHFHYVLSMGAFSLGYYYWPGLYNLFWFNFPMHFLGGMPRRPYPDAGWNSGSSYQLGPDESNEPH'
p2905
sg123
F0.079170000000000004
sg124
g125
sg33
S'89'
p2906
sg127
g1
(g128
g12
(dp2907
g130
I4
sg131
g132
sg133
g134
sg135
g132
sg136
I01
sg34
g137
sg138
g134
sg139
I0
sg140
I0
sg141
I0
sg142
g134
sg35
g143
sg144
I0
stRp2908
sg146
g147
sg148
F1
sg149
Nsg30
S'WmucoA'
p2909
sbasg120
g2842
sg123
F0.14757000000000001
sg124
g125
sg33
S'90'
p2910
sg127
g1
(g128
g12
(dp2911
g130
I6
sg131
g132
sg133
g134
sg135
g132
sg136
I01
sg34
g174
sg138
g134
sg139
I0
sg140
I0
sg141
I0
sg142
g134
sg35
g175
sg144
I0
stRp2912
sg146
g147
sg148
F0.98999999999999999
sg149
Nsg30
S'NoName'
p2913
sbag1
(g2
g3
NtRp2914
(dp2915
g6
g1
(g7
g3
NtRp2916
(dp2917
g10
g1
(g11
g12
(dtRp2918
sg14
g1
(g11
g12
(dtRp2919
sg16
g1
(g11
g12
(dtRp2920
sg18
g1
(g11
g12
(dtRp2921
sg20
g1
(g11
g12
(dtRp2922
sg22
g1
(g11
g12
(dtRp2923
sbsg24
g25
sg26
g27
((lp2924
g33
ag32
ag29
ag30
atRp2925
sg37
(lp2926
g1
(g2
g3
NtRp2927
(dp2928
g6
g1
(g7
g3
NtRp2929
(dp2930
g10
g1
(g11
g12
(dtRp2931
sg14
g1
(g11
g12
(dtRp2932
sg16
g1
(g11
g12
(dtRp2933
sg18
g1
(g11
g12
(dtRp2934
sg20
g1
(g11
g12
(dtRp2935
sg22
g1
(g11
g12
(dtRp2936
sbsg24
S'Pca'
p2937
sg26
g27
((lp2938
g29
ag30
aS'sequence'
p2939
ag32
ag33
aS'species'
p2940
atRp2941
sg37
(lp2942
sg120
g2914
sg121
S'RWLSTKDLYSRLELPGLNQNVHAMFVMPLGFGNPLGDMFARLNNSFWLPPLSLEWAGTGWTIYPPLSHSSPSVDLGFHLTSSLLGAINFTNMRGPLFWTAMLLLSLPVLAGTLLDRNFNTFEGGDPLYHLFWFFGHPEVYIIPGFGSHSTYKKFGMYASIALGFVWSHHMYVGLDDRAYFTSSTMIAPTGIKFSWLATYGGRPMLAFLFLFTGGTGVLNASDAFHDTYYVVHFHYVLSMGAFSLGYYYWPGLFNLFWFNFPMHFLGGMPRRPYPDAGWNSGSSYQLGPDESNEPH'
p2943
sg123
F0.10655000000000001
sg124
g125
sg33
S'66'
p2944
sg127
g1
(g128
g12
(dp2945
g130
I4
sg131
g132
sg133
g134
sg135
g132
sg136
I01
sg34
g137
sg138
g134
sg139
I0
sg140
I0
sg141
I0
sg142
g134
sg35
g143
sg144
I0
stRp2946
sg146
g147
sg148
F1
sg149
Nsg30
S'PcanaA'
p2947
sbag1
(g2
g3
NtRp2948
(dp2949
g6
g1
(g7
g3
NtRp2950
(dp2951
g10
g1
(g11
g12
(dtRp2952
sg14
g1
(g11
g12
(dtRp2953
sg16
g1
(g11
g12
(dtRp2954
sg18
g1
(g11
g12
(dtRp2955
sg20
g1
(g11
g12
(dtRp2956
sg22
g1
(g11
g12
(dtRp2957
sbsg24
g25
sg26
g27
((lp2958
g33
ag32
ag29
ag30
atRp2959
sg37
(lp2960
g1
(g2
g3
NtRp2961
(dp2962
g6
g1
(g7
g3
NtRp2963
(dp2964
g10
g1
(g11
g12
(dtRp2965
sg14
g1
(g11
g12
(dtRp2966
sg16
g1
(g11
g12
(dtRp2967
sg18
g1
(g11
g12
(dtRp2968
sg20
g1
(g11
g12
(dtRp2969
sg22
g1
(g11
g12
(dtRp2970
sbsg24
S'Cno'
p2971
sg26
g27
((lp2972
g29
ag30
aS'sequence'
p2973
ag32
ag33
aS'species'
p2974
atRp2975
sg37
(lp2976
sg120
g2948
sg121
S'RWLSTKDLYSRLELPGLNQNVHAMFVMPLGFGNPLGDMFARLNNSFWLPPLSLEGAGTGWTIYPPLSHSSPSVDLGFHLTSSLLGAMNFTNMRGPLFWTAMLLLSLPVLAGTLLDRNFNTFEGGDPLYHLFWFFGHPEVYMIPGFGSHSTYKKFGMYASMALGFVWSHHMYVGLDDRAYFTSSTMMAPTGMKFSWLATYGGRPMLAFLFLFTGGTGVLNASDAFHDTYYVVHFHYVLSMGAFSLGYYYWPGLYNLFWFNFPMHFLGGMPRRPYPDAGWNSGSSYQLGPDESNEPH'
p2977
sg123
F0.059069999999999998
sg124
g125
sg33
S'100'
p2978
sg127
g1
(g128
g12
(dp2979
g130
I4
sg131
g132
sg133
g134
sg135
g132
sg136
I01
sg34
g137
sg138
g134
sg139
I0
sg140
I0
sg141
I0
sg142
g134
sg35
g143
sg144
I0
stRp2980
sg146
g147
sg148
F1
sg149
Nsg30
S'CnorvA'
p2981
sbag1
(g2
g3
NtRp2982
(dp2983
g6
g1
(g7
g3
NtRp2984
(dp2985
g10
g1
(g11
g12
(dtRp2986
sg14
g1
(g11
g12
(dtRp2987
sg16
g1
(g11
g12
(dtRp2988
sg18
g1
(g11
g12
(dtRp2989
sg20
g1
(g11
g12
(dtRp2990
sg22
g1
(g11
g12
(dtRp2991
sbsg24
S'Bca'
p2992
sg26
g27
((lp2993
g29
ag30
aS'sequence'
p2994
ag32
ag33
aS'species'
p2995
atRp2996
sg37
(lp2997
sg120
g2948
sg121
S'RWLSTKDLYSRLELPGLNQNVHAMFVMPLGFGNPLGDMFARLNNSFWLPPLSLEGAGTGWTIYPPLSHSSPSVDLGFHLTSSLLGAINFTNMRGPLFWTAMLLLSLPVLAGTLLDRNFNTFEGGDPLYHLFWFFGHPEVYIMPGFGSHSTYKKFGMYASIALGFVWSHHMYVGLDDRAYFTSSTMIAPTGIKFSWLATYGGRPMLAFLFLFTGGTGVLNASDAFHDTYYVVHFHYVLSMGAFSLGYYYWPGLYNLFWFNFPMHFLGGMPRRPYPDAGWNSGSSYQLGPDESNEPH'
p2998
sg123
F0.031899999999999998
sg124
g125
sg33
S'128'
p2999
sg127
g1
(g128
g12
(dp3000
g130
I4
sg131
g132
sg133
g134
sg135
g132
sg136
I01
sg34
g137
sg138
g134
sg139
I0
sg140
I0
sg141
I0
sg142
g134
sg35
g143
sg144
I0
stRp3001
sg146
g147
sg148
F1
sg149
Nsg30
S'BcaliA'
p3002
sbasg120
g2914
sg123
F0.09486
sg124
g125
sg33
S'78'
p3003
sg127
g1
(g128
g12
(dp3004
g130
I6
sg131
g132
sg133
g134
sg135
g132
sg136
I01
sg34
g174
sg138
g134
sg139
I0
sg140
I0
sg141
I0
sg142
g134
sg35
g175
sg144
I0
stRp3005
sg146
g147
sg148
F0.97999999999999998
sg149
Nsg30
S'NoName'
p3006
sbasg120
g2842
sg123
F0.054690000000000003
sg124
g125
sg33
S'99'
p3007
sg127
g1
(g128
g12
(dp3008
g130
I6
sg131
g132
sg133
g134
sg135
g132
sg136
I01
sg34
g174
sg138
g134
sg139
I0
sg140
I0
sg141
I0
sg142
g134
sg35
g175
sg144
I0
stRp3009
sg146
g147
sg148
F0.96999999999999997
sg149
Nsg30
S'NoName'
p3010
sbasg120
g2694
sg123
F0.051860000000000003
sg124
g125
sg33
S'82'
p3011
sg127
g1
(g128
g12
(dp3012
g130
I6
sg131
g132
sg133
g134
sg135
g132
sg136
I01
sg34
g174
sg138
g134
sg139
I0
sg140
I0
sg141
I0
sg142
g134
sg35
g175
sg144
I0
stRp3013
sg146
g147
sg148
F0.96999999999999997
sg149
Nsg30
S'NoName'
p3014
sbasg120
g2681
sg123
F0.52095999999999998
sg124
g125
sg33
S'188'
p3015
sg127
g1
(g128
g12
(dp3016
g130
I6
sg131
g132
sg133
g134
sg135
g132
sg136
I01
sg34
g174
sg138
g134
sg139
I0
sg140
I0
sg141
I0
sg142
g134
sg35
g175
sg144
I0
stRp3017
sg146
g147
sg148
F0.98999999999999999
sg149
Nsg30
S'NoName'
p3018
sbag1
(g2
g3
NtRp3019
(dp3020
g6
g1
(g7
g3
NtRp3021
(dp3022
g10
g1
(g11
g12
(dtRp3023
sg14
g1
(g11
g12
(dtRp3024
sg16
g1
(g11
g12
(dtRp3025
sg18
g1
(g11
g12
(dtRp3026
sg20
g1
(g11
g12
(dtRp3027
sg22
g1
(g11
g12
(dtRp3028
sbsg24
g25
sg26
g27
((lp3029
g33
ag32
ag29
ag30
atRp3030
sg37
(lp3031
g1
(g2
g3
NtRp3032
(dp3033
g6
g1
(g7
g3
NtRp3034
(dp3035
g10
g1
(g11
g12
(dtRp3036
sg14
g1
(g11
g12
(dtRp3037
sg16
g1
(g11
g12
(dtRp3038
sg18
g1
(g11
g12
(dtRp3039
sg20
g1
(g11
g12
(dtRp3040
sg22
g1
(g11
g12
(dtRp3041
sbsg24
g25
sg26
g27
((lp3042
g33
ag32
ag29
ag30
atRp3043
sg37
(lp3044
g1
(g2
g3
NtRp3045
(dp3046
g6
g1
(g7
g3
NtRp3047
(dp3048
g10
g1
(g11
g12
(dtRp3049
sg14
g1
(g11
g12
(dtRp3050
sg16
g1
(g11
g12
(dtRp3051
sg18
g1
(g11
g12
(dtRp3052
sg20
g1
(g11
g12
(dtRp3053
sg22
g1
(g11
g12
(dtRp3054
sbsg24
g25
sg26
g27
((lp3055
g33
ag32
ag29
ag30
atRp3056
sg37
(lp3057
g1
(g2
g3
NtRp3058
(dp3059
g6
g1
(g7
g3
NtRp3060
(dp3061
g10
g1
(g11
g12
(dtRp3062
sg14
g1
(g11
g12
(dtRp3063
sg16
g1
(g11
g12
(dtRp3064
sg18
g1
(g11
g12
(dtRp3065
sg20
g1
(g11
g12
(dtRp3066
sg22
g1
(g11
g12
(dtRp3067
sbsg24
g25
sg26
g27
((lp3068
g33
ag32
ag29
ag30
atRp3069
sg37
(lp3070
g1
(g2
g3
NtRp3071
(dp3072
g6
g1
(g7
g3
NtRp3073
(dp3074
g10
g1
(g11
g12
(dtRp3075
sg14
g1
(g11
g12
(dtRp3076
sg16
g1
(g11
g12
(dtRp3077
sg18
g1
(g11
g12
(dtRp3078
sg20
g1
(g11
g12
(dtRp3079
sg22
g1
(g11
g12
(dtRp3080
sbsg24
g25
sg26
g27
((lp3081
g33
ag32
ag29
ag30
atRp3082
sg37
(lp3083
g1
(g2
g3
NtRp3084
(dp3085
g6
g1
(g7
g3
NtRp3086
(dp3087
g10
g1
(g11
g12
(dtRp3088
sg14
g1
(g11
g12
(dtRp3089
sg16
g1
(g11
g12
(dtRp3090
sg18
g1
(g11
g12
(dtRp3091
sg20
g1
(g11
g12
(dtRp3092
sg22
g1
(g11
g12
(dtRp3093
sbsg24
g25
sg26
g27
((lp3094
g33
ag32
ag29
ag30
atRp3095
sg37
(lp3096
g1
(g2
g3
NtRp3097
(dp3098
g6
g1
(g7
g3
NtRp3099
(dp3100
g10
g1
(g11
g12
(dtRp3101
sg14
g1
(g11
g12
(dtRp3102
sg16
g1
(g11
g12
(dtRp3103
sg18
g1
(g11
g12
(dtRp3104
sg20
g1
(g11
g12
(dtRp3105
sg22
g1
(g11
g12
(dtRp3106
sbsg24
S'Lkl'
p3107
sg26
g27
((lp3108
g29
ag30
aS'sequence'
p3109
ag32
ag33
aS'species'
p3110
atRp3111
sg37
(lp3112
sg120
g3084
sg121
S'RWLSTKDLYSRLELPGLNQNVHAMFVMPLGFGNPMGDMFARLNNSFWLPPLSLEGAGTGWTVYPPLSHSGPSVDLAFHLTSSLLGAINFTNMRGPLFWTALLLLSLPVLAGTLLDRNFNTFEGGDPLYHLFWFFGHPEVYIIPGFGSHSTYKKFGMYASIGLGFVWSHHMYVGLDDRAYFLSATMIAPTGIKFSWLATYGGRPMLAFLFLFTGGTGVLNASDAFHDLYYVVHFHYVLSMGAFSLGYYYWPGLYNLFWFNFPMHFLGGMPRRPYPDAGWNSGSSYQLGPDESNEPH'
p3113
sg123
F0.00044999999999999999
sg124
g125
sg33
S'44'
p3114
sg127
g1
(g128
g12
(dp3115
g130
I4
sg131
g132
sg133
g134
sg135
g132
sg136
I01
sg34
g137
sg138
g134
sg139
I0
sg140
I0
sg141
I0
sg142
g134
sg35
g143
sg144
I0
stRp3116
sg146
g147
sg148
F1
sg149
Nsg30
S'LkluyE'
p3117
sbag1
(g2
g3
NtRp3118
(dp3119
g6
g1
(g7
g3
NtRp3120
(dp3121
g10
g1
(g11
g12
(dtRp3122
sg14
g1
(g11
g12
(dtRp3123
sg16
g1
(g11
g12
(dtRp3124
sg18
g1
(g11
g12
(dtRp3125
sg20
g1
(g11
g12
(dtRp3126
sg22
g1
(g11
g12
(dtRp3127
sbsg24
S'Lkl'
p3128
sg26
g27
((lp3129
g29
ag30
aS'sequence'
p3130
ag32
ag33
aS'species'
p3131
atRp3132
sg37
(lp3133
sg120
g3084
sg121
S'RWLSTKDLYSRLELPGLNQNVHAMFVMPLGFGNPMGDMFARLNNSFWLPPLSLEGAGTGWTVYPPLSHSGPSVDLAFHLTSSLLGAINFTNMRGPLFWTALLLLSLPVLAGTLLDRNFNTFEGGDPLYHLFWFFGHPEVYIIPGFGSHSTYKKFGMYASIGLGFVWSHHMYVGLDDRAYFLSATMIAPTGIKFSWLATYGGRPMLAFLFLFTGGTGVLNASDAFHDLYYVVHFHYVLSMGAFSLGYYYWPGLYNLFWFNFPMHFLGGMPRRPYPDAGWNSGSSYQLGPDESNEPH'
p3134
sg123
F0.0077400000000000004
sg124
g125
sg33
S'36'
p3135
sg127
g1
(g128
g12
(dp3136
g130
I4
sg131
g132
sg133
g134
sg135
g132
sg136
I01
sg34
g137
sg138
g134
sg139
I0
sg140
I0
sg141
I0
sg142
g134
sg35
g143
sg144
I0
stRp3137
sg146
g147
sg148
F1
sg149
Nsg30
S'LkluyD'
p3138
sbasg120
g3071
sg123
F0.0017099999999999999
sg124
g125
sg33
S'33'
p3139
sg127
g1
(g128
g12
(dp3140
g130
I6
sg131
g132
sg133
g134
sg135
g132
sg136
I01
sg34
g174
sg138
g134
sg139
I0
sg140
I0
sg141
I0
sg142
g134
sg35
g175
sg144
I0
stRp3141
sg146
g147
sg148
F0.56000000000000005
sg149
Nsg30
S'NoName'
p3142
sbag1
(g2
g3
NtRp3143
(dp3144
g6
g1
(g7
g3
NtRp3145
(dp3146
g10
g1
(g11
g12
(dtRp3147
sg14
g1
(g11
g12
(dtRp3148
sg16
g1
(g11
g12
(dtRp3149
sg18
g1
(g11
g12
(dtRp3150
sg20
g1
(g11
g12
(dtRp3151
sg22
g1
(g11
g12
(dtRp3152
sbsg24
g25
sg26
g27
((lp3153
g33
ag32
ag29
ag30
atRp3154
sg37
(lp3155
g1
(g2
g3
NtRp3156
(dp3157
g6
g1
(g7
g3
NtRp3158
(dp3159
g10
g1
(g11
g12
(dtRp3160
sg14
g1
(g11
g12
(dtRp3161
sg16
g1
(g11
g12
(dtRp3162
sg18
g1
(g11
g12
(dtRp3163
sg20
g1
(g11
g12
(dtRp3164
sg22
g1
(g11
g12
(dtRp3165
sbsg24
g25
sg26
g27
((lp3166
g33
ag32
ag29
ag30
atRp3167
sg37
(lp3168
g1
(g2
g3
NtRp3169
(dp3170
g6
g1
(g7
g3
NtRp3171
(dp3172
g10
g1
(g11
g12
(dtRp3173
sg14
g1
(g11
g12
(dtRp3174
sg16
g1
(g11
g12
(dtRp3175
sg18
g1
(g11
g12
(dtRp3176
sg20
g1
(g11
g12
(dtRp3177
sg22
g1
(g11
g12
(dtRp3178
sbsg24
g25
sg26
g27
((lp3179
g33
ag32
ag29
ag30
atRp3180
sg37
(lp3181
g1
(g2
g3
NtRp3182
(dp3183
g6
g1
(g7
g3
NtRp3184
(dp3185
g10
g1
(g11
g12
(dtRp3186
sg14
g1
(g11
g12
(dtRp3187
sg16
g1
(g11
g12
(dtRp3188
sg18
g1
(g11
g12
(dtRp3189
sg20
g1
(g11
g12
(dtRp3190
sg22
g1
(g11
g12
(dtRp3191
sbsg24
S'Lkl'
p3192
sg26
g27
((lp3193
g29
ag30
aS'sequence'
p3194
ag32
ag33
aS'species'
p3195
atRp3196
sg37
(lp3197
sg120
g3169
sg121
S'RWLSTKDLYSRLELPGLNQNVHAMFVMPLGFGNPMGDMFARLNNSFWLPPLSLEGAGTGWTVYPPLSHSGPSVDLAFHLTSSLLGAINFTNMRGPLFWTALLLLSLPVLAGTLLDRNFNTFEGGDPLYHLFWFFGHPEVYIIPGFGSHSTYKKFGMYASIGLGFVWSHHMYVGLDDRAYFLSATMIAPTGIKFSWLATYGGRPMLAFLFLFTGGTGVLNASDAFHDLYYVVHFHYVLSMGAFSLGYYYWPGLYNLFWFNFPMHFLGGMPRRPYPDAGWNSGSSYQLGPDESNEPH'
p3198
sg123
F0.00038999999999999999
sg124
g125
sg33
S'201'
p3199
sg127
g1
(g128
g12
(dp3200
g130
I4
sg131
g132
sg133
g134
sg135
g132
sg136
I01
sg34
g137
sg138
g134
sg139
I0
sg140
I0
sg141
I0
sg142
g134
sg35
g143
sg144
I0
stRp3201
sg146
g147
sg148
F1
sg149
Nsg30
S'LkluyF'
p3202
sbag1
(g2
g3
NtRp3203
(dp3204
g6
g1
(g7
g3
NtRp3205
(dp3206
g10
g1
(g11
g12
(dtRp3207
sg14
g1
(g11
g12
(dtRp3208
sg16
g1
(g11
g12
(dtRp3209
sg18
g1
(g11
g12
(dtRp3210
sg20
g1
(g11
g12
(dtRp3211
sg22
g1
(g11
g12
(dtRp3212
sbsg24
S'Lkl'
p3213
sg26
g27
((lp3214
g29
ag30
aS'sequence'
p3215
ag32
ag33
aS'species'
p3216
atRp3217
sg37
(lp3218
sg120
g3169
sg121
S'RWLSTKDLYSRLELPGLNQNVHAMFVMPLGFGNPMGDMFARLNNSFWLPPLSLEGAGTGWTVYPPLSHSGPSVDLAFHLTSSLLGAINFTNMRGPLFWTALLLLSLPVLAGTLLDRNFNTFEGGDPLYHLFWFFGHPEVYIIPGFGSHSTYKKFGMYASIGLGFVWSHHMYVGLDDRAYFLSATMIAPTGIKFSWLATYGGRPMLAFLFLFTGGTGVLNASDAFHDLYYVVHFHYVLSMGAFSLGYYYWPGLYNLFWFNFPMHFLGGMPRRPYPDAGWNSGSSYQLGPDESNEPH'
p3219
sg123
F0.00038000000000000002
sg124
g125
sg33
S'97'
p3220
sg127
g1
(g128
g12
(dp3221
g130
I4
sg131
g132
sg133
g134
sg135
g132
sg136
I01
sg34
g137
sg138
g134
sg139
I0
sg140
I0
sg141
I0
sg142
g134
sg35
g143
sg144
I0
stRp3222
sg146
g147
sg148
F1
sg149
Nsg30
S'LkluyC'
p3223
sbasg120
g3156
sg123
F1.0000000000000001e-05
sg124
g125
sg33
S'39'
p3224
sg127
g1
(g128
g12
(dp3225
g130
I6
sg131
g132
sg133
g134
sg135
g132
sg136
I01
sg34
g174
sg138
g134
sg139
I0
sg140
I0
sg141
I0
sg142
g134
sg35
g175
sg144
I0
stRp3226
sg146
g147
sg148
F1
sg149
Nsg30
S'NoName'
p3227
sbag1
(g2
g3
NtRp3228
(dp3229
g6
g1
(g7
g3
NtRp3230
(dp3231
g10
g1
(g11
g12
(dtRp3232
sg14
g1
(g11
g12
(dtRp3233
sg16
g1
(g11
g12
(dtRp3234
sg18
g1
(g11
g12
(dtRp3235
sg20
g1
(g11
g12
(dtRp3236
sg22
g1
(g11
g12
(dtRp3237
sbsg24
S'Lkl'
p3238
sg26
g27
((lp3239
g29
ag30
aS'sequence'
p3240
ag32
ag33
aS'species'
p3241
atRp3242
sg37
(lp3243
sg120
g3156
sg121
S'RWLSTKDLYSRLELPGLNQNVHAMFVMPLGFGNPMGDMFARLNNSFWLPPLSLEGAGTGWTVYPPLSHSGPSVDLAFHLTSSLLGAINFTNMRGPLFWTALLLLSLPVLAGTLLDRNFNTFEGGDPLYHLFWFFGHPEVYIIPGFGSHSTYKKFGMYASIGLGFVWSHHMYVGLDDRAYFLSATMIAPTGIKFSWLATYGGRPMLAFLFLFTGGTGVLNASDAFHDLYYVVHFHYVLSMGAFSLGYYYWPGLYNLFWFNFPMHFLGGMPRRPYPDAGWNSGSSYQLGPDESNEPH'
p3244
sg123
F0.00040999999999999999
sg124
g125
sg33
S'123'
p3245
sg127
g1
(g128
g12
(dp3246
g130
I4
sg131
g132
sg133
g134
sg135
g132
sg136
I01
sg34
g137
sg138
g134
sg139
I0
sg140
I0
sg141
I0
sg142
g134
sg35
g143
sg144
I0
stRp3247
sg146
g147
sg148
F1
sg149
Nsg30
S'LkluyB'
p3248
sbasg120
g3143
sg123
F1.0000000000000001e-05
sg124
g125
sg33
S'41'
p3249
sg127
g1
(g128
g12
(dp3250
g130
I6
sg131
g132
sg133
g134
sg135
g132
sg136
I01
sg34
g174
sg138
g134
sg139
I0
sg140
I0
sg141
I0
sg142
g134
sg35
g175
sg144
I0
stRp3251
sg146
g147
sg148
F1
sg149
Nsg30
S'NoName'
p3252
sbag1
(g2
g3
NtRp3253
(dp3254
g6
g1
(g7
g3
NtRp3255
(dp3256
g10
g1
(g11
g12
(dtRp3257
sg14
g1
(g11
g12
(dtRp3258
sg16
g1
(g11
g12
(dtRp3259
sg18
g1
(g11
g12
(dtRp3260
sg20
g1
(g11
g12
(dtRp3261
sg22
g1
(g11
g12
(dtRp3262
sbsg24
S'Lkl'
p3263
sg26
g27
((lp3264
g29
ag30
aS'sequence'
p3265
ag32
ag33
aS'species'
p3266
atRp3267
sg37
(lp3268
sg120
g3143
sg121
S'RWLSTKDLYSRLELPGLNQNVHAMFVMPLGFGNPMGDMFARLNNSFWLPPLSLEGAGTGWTVYPPLSHSGPSVDLAFHLTSSLLGAINFTNMRGPLFWTALLLLSLPVLAGTLLDRNFNTFEGGDPLYHLFWFFGHPEVYIIPGFGSHSTYKKFGMYASIGLGFVWSHHMYVGLDDRAYFLSATMIAPTGIKFSWLATYGGRPMLAFLFLFTGGTGVLNASDAFHDLYYVVHFHYVLSMGAFSLGYYYWPGLYNLFWFNFPMHFLGGMPRRPYPDAGWNSGSSYQLGPDESNEPH'
p3269
sg123
F0.00040999999999999999
sg124
g125
sg33
S'187'
p3270
sg127
g1
(g128
g12
(dp3271
g130
I4
sg131
g132
sg133
g134
sg135
g132
sg136
I01
sg34
g137
sg138
g134
sg139
I0
sg140
I0
sg141
I0
sg142
g134
sg35
g143
sg144
I0
stRp3272
sg146
g147
sg148
F1
sg149
Nsg30
S'LkluyA'
p3273
sbasg120
g3071
sg123
F0.0035300000000000002
sg124
g125
sg33
S'30'
p3274
sg127
g1
(g128
g12
(dp3275
g130
I6
sg131
g132
sg133
g134
sg135
g132
sg136
I01
sg34
g174
sg138
g134
sg139
I0
sg140
I0
sg141
I0
sg142
g134
sg35
g175
sg144
I0
stRp3276
sg146
g147
sg148
F0.91000000000000003
sg149
Nsg30
S'NoName'
p3277
sbasg120
g3058
sg123
F0.054280000000000002
sg124
g125
sg33
S'37'
p3278
sg127
g1
(g128
g12
(dp3279
g130
I6
sg131
g132
sg133
g134
sg135
g132
sg136
I01
sg34
g174
sg138
g134
sg139
I0
sg140
I0
sg141
I0
sg142
g134
sg35
g175
sg144
I0
stRp3280
sg146
g147
sg148
F0.98999999999999999
sg149
Nsg30
S'NoName'
p3281
sbag1
(g2
g3
NtRp3282
(dp3283
g6
g1
(g7
g3
NtRp3284
(dp3285
g10
g1
(g11
g12
(dtRp3286
sg14
g1
(g11
g12
(dtRp3287
sg16
g1
(g11
g12
(dtRp3288
sg18
g1
(g11
g12
(dtRp3289
sg20
g1
(g11
g12
(dtRp3290
sg22
g1
(g11
g12
(dtRp3291
sbsg24
g25
sg26
g27
((lp3292
g33
ag32
ag29
ag30
atRp3293
sg37
(lp3294
g1
(g2
g3
NtRp3295
(dp3296
g6
g1
(g7
g3
NtRp3297
(dp3298
g10
g1
(g11
g12
(dtRp3299
sg14
g1
(g11
g12
(dtRp3300
sg16
g1
(g11
g12
(dtRp3301
sg18
g1
(g11
g12
(dtRp3302
sg20
g1
(g11
g12
(dtRp3303
sg22
g1
(g11
g12
(dtRp3304
sbsg24
S'Lan'
p3305
sg26
g27
((lp3306
g29
ag30
aS'sequence'
p3307
ag32
ag33
aS'species'
p3308
atRp3309
sg37
(lp3310
sg120
g3282
sg121
S'RWLSTKDLYSRLELPGLNQNVHAMFVMPLGFGNPMGDMFARLNNSFWLPPLSLEGAGTGWTLYPPLSHSGPSVDLAFHLTSSLLGAINFTNMRGPLFWTALLLLSLPVLAGTVLDRNFNTFEGGDPLYHLFWFFGHPEVYIIPGFGSHSTYKKFGMYASIGLGFVWSHHMYVGLDDRAYFTSATMIAPTGIKFSWLALYGGRPMLAFLFLFTGGTGVLNASDAFHDTYYVVHFHYVLSMGAFSLGYYYWPGLYNLFWFNFPMHFLGGMPRRPYPDAGWNSGSSYQLGPDESNEPH'
p3311
sg123
F0.10922999999999999
sg124
g125
sg33
S'134'
p3312
sg127
g1
(g128
g12
(dp3313
g130
I4
sg131
g132
sg133
g134
sg135
g132
sg136
I01
sg34
g137
sg138
g134
sg139
I0
sg140
I0
sg141
I0
sg142
g134
sg35
g143
sg144
I0
stRp3314
sg146
g147
sg148
F1
sg149
Nsg30
S'LanspA'
p3315
sbag1
(g2
g3
NtRp3316
(dp3317
g6
g1
(g7
g3
NtRp3318
(dp3319
g10
g1
(g11
g12
(dtRp3320
sg14
g1
(g11
g12
(dtRp3321
sg16
g1
(g11
g12
(dtRp3322
sg18
g1
(g11
g12
(dtRp3323
sg20
g1
(g11
g12
(dtRp3324
sg22
g1
(g11
g12
(dtRp3325
sbsg24
g25
sg26
g27
((lp3326
g33
ag32
ag29
ag30
atRp3327
sg37
(lp3328
g1
(g2
g3
NtRp3329
(dp3330
g6
g1
(g7
g3
NtRp3331
(dp3332
g10
g1
(g11
g12
(dtRp3333
sg14
g1
(g11
g12
(dtRp3334
sg16
g1
(g11
g12
(dtRp3335
sg18
g1
(g11
g12
(dtRp3336
sg20
g1
(g11
g12
(dtRp3337
sg22
g1
(g11
g12
(dtRp3338
sbsg24
g25
sg26
g27
((lp3339
g33
ag32
ag29
ag30
atRp3340
sg37
(lp3341
g1
(g2
g3
NtRp3342
(dp3343
g6
g1
(g7
g3
NtRp3344
(dp3345
g10
g1
(g11
g12
(dtRp3346
sg14
g1
(g11
g12
(dtRp3347
sg16
g1
(g11
g12
(dtRp3348
sg18
g1
(g11
g12
(dtRp3349
sg20
g1
(g11
g12
(dtRp3350
sg22
g1
(g11
g12
(dtRp3351
sbsg24
S'Lno'
p3352
sg26
g27
((lp3353
g29
ag30
aS'sequence'
p3354
ag32
ag33
aS'species'
p3355
atRp3356
sg37
(lp3357
sg120
g3329
sg121
S'RWLSTKDLYSRLELPGLNQNVHAMFVMPLGFGNPMGDMFARLNNSFWLPPLSLEGAGTGWTIYPPLSHSGPSVDLAFHLTSSLLGAINFTNMRGPLFWTALLLLSLPVLAGTILDRNFNTFEGGDPLYHLFWFFGHPEVYIIPGFGSHSTYKKFGMYASIGLGFVWSHHMYVGLDDRAYFTSALMIAPTGIKFSWLALYGGRPMLAFLFLFTGGTGVLNASDAFHDTYYVVHFHYVLSMGAFSLGYYYWPGLYNLFWFNFPMHFLGGMPRRPYPDAGWNSGSSYQLGPDESNEPH'
p3358
sg123
F0.0075199999999999998
sg124
g125
sg33
S'170'
p3359
sg127
g1
(g128
g12
(dp3360
g130
I4
sg131
g132
sg133
g134
sg135
g132
sg136
I01
sg34
g137
sg138
g134
sg139
I0
sg140
I0
sg141
I0
sg142
g134
sg35
g143
sg144
I0
stRp3361
sg146
g147
sg148
F1
sg149
Nsg30
S'LnothA'
p3362
sbag1
(g2
g3
NtRp3363
(dp3364
g6
g1
(g7
g3
NtRp3365
(dp3366
g10
g1
(g11
g12
(dtRp3367
sg14
g1
(g11
g12
(dtRp3368
sg16
g1
(g11
g12
(dtRp3369
sg18
g1
(g11
g12
(dtRp3370
sg20
g1
(g11
g12
(dtRp3371
sg22
g1
(g11
g12
(dtRp3372
sbsg24
g25
sg26
g27
((lp3373
g33
ag32
ag29
ag30
atRp3374
sg37
(lp3375
g1
(g2
g3
NtRp3376
(dp3377
g6
g1
(g7
g3
NtRp3378
(dp3379
g10
g1
(g11
g12
(dtRp3380
sg14
g1
(g11
g12
(dtRp3381
sg16
g1
(g11
g12
(dtRp3382
sg18
g1
(g11
g12
(dtRp3383
sg20
g1
(g11
g12
(dtRp3384
sg22
g1
(g11
g12
(dtRp3385
sbsg24
S'Lda'
p3386
sg26
g27
((lp3387
g29
ag30
aS'sequence'
p3388
ag32
ag33
aS'species'
p3389
atRp3390
sg37
(lp3391
sg120
g3363
sg121
S'RWLSTKDLYSRLELPGLNQNVHAMFVMPLGFGNPMGDMFARLNNSFWLPPLSLEGAGTGWTVYPPLSHSGPSVDLAFHLTSSLLGAINFTNMRGPLFWTALLLLSLPVLAGTILDRNFNTFEGGDPLYHLFWFFGHPEVYIIPGFGSHSTYKKFGMYASIGLGFVWSHHMYVGLDDRAYFTSATMIAPTGIKFSWLALYGGRPMLAFLFLFTGGTGVLNASDAFHDTYYVVHFHYVLSMGAFSLGYYYWPGLYNLFWFNFPMHFLGGMPRRPYPDAGWNSGSSYQLGPDESNEPH'
p3392
sg123
F0.023539999999999998
sg124
g125
sg33
S'125'
p3393
sg127
g1
(g128
g12
(dp3394
g130
I4
sg131
g132
sg133
g134
sg135
g132
sg136
I01
sg34
g137
sg138
g134
sg139
I0
sg140
I0
sg141
I0
sg142
g134
sg35
g143
sg144
I0
stRp3395
sg146
g147
sg148
F1
sg149
Nsg30
S'LdasiA'
p3396
sbag1
(g2
g3
NtRp3397
(dp3398
g6
g1
(g7
g3
NtRp3399
(dp3400
g10
g1
(g11
g12
(dtRp3401
sg14
g1
(g11
g12
(dtRp3402
sg16
g1
(g11
g12
(dtRp3403
sg18
g1
(g11
g12
(dtRp3404
sg20
g1
(g11
g12
(dtRp3405
sg22
g1
(g11
g12
(dtRp3406
sbsg24
g25
sg26
g27
((lp3407
g33
ag32
ag29
ag30
atRp3408
sg37
(lp3409
g1
(g2
g3
NtRp3410
(dp3411
g6
g1
(g7
g3
NtRp3412
(dp3413
g10
g1
(g11
g12
(dtRp3414
sg14
g1
(g11
g12
(dtRp3415
sg16
g1
(g11
g12
(dtRp3416
sg18
g1
(g11
g12
(dtRp3417
sg20
g1
(g11
g12
(dtRp3418
sg22
g1
(g11
g12
(dtRp3419
sbsg24
S'Lme'
p3420
sg26
g27
((lp3421
g29
ag30
aS'sequence'
p3422
ag32
ag33
aS'species'
p3423
atRp3424
sg37
(lp3425
sg120
g3397
sg121
S'RWLSTKDLYSRLELPGLNQNVHAMFVMPLGFGNPMGDMFARLNNSFWLPPLSLEGAGTGWTVYPPLSHSGPSVDLAFHLTSSLLGAINFTNMRGPLFWTALLLLSLPVLAGTILDRNFNTFEGGDPLYHLFWFFGHPEVYIIPGFGSHSTYKKFGMYASIGLGFVWSHHMYVGLDDRAYFTSATMIAPTGIKFSWLALYGGRPMLAFLFLFTGGTGVLNASDAFHDTYYVVHFHYVLSMGAFSLGYYYWPGLYNLFWFNFPMHFLGGMPRRPYPDAGWNSGSSYQLGPDESNEPH'
p3426
sg123
F0.0050299999999999997
sg124
g125
sg33
S'193'
p3427
sg127
g1
(g128
g12
(dp3428
g130
I4
sg131
g132
sg133
g134
sg135
g132
sg136
I01
sg34
g137
sg138
g134
sg139
I0
sg140
I0
sg141
I0
sg142
g134
sg35
g143
sg144
I0
stRp3429
sg146
g147
sg148
F1
sg149
Nsg30
S'LmeyeA'
p3430
sbag1
(g2
g3
NtRp3431
(dp3432
g6
g1
(g7
g3
NtRp3433
(dp3434
g10
g1
(g11
g12
(dtRp3435
sg14
g1
(g11
g12
(dtRp3436
sg16
g1
(g11
g12
(dtRp3437
sg18
g1
(g11
g12
(dtRp3438
sg20
g1
(g11
g12
(dtRp3439
sg22
g1
(g11
g12
(dtRp3440
sbsg24
S'Lan'
p3441
sg26
g27
((lp3442
g29
ag30
aS'sequence'
p3443
ag32
ag33
aS'species'
p3444
atRp3445
sg37
(lp3446
sg120
g3397
sg121
S'RWLSTKDLYSRLELPGLNQNVHAMFVMPLGFGNPMGDMFARLNNSFWLPPLSLEGAGTGWTVYPPLSHSGPSVDLAFHLTSSLLGAINFTNMRGPLFWTALLLLSLPVLAGTILDRNFNTFEGGDPLYHLFWFFGHPEVYIIPGFGSHSTYKKFGMYASIGLGFVWSHHMYVGLDDRAYFTSALMIAPTGIKFSWLALYGGRPMLAFLFLFTGGTGVLNASDAFHDTYYVVHFHYVLSMGAFSLGYYYWPGLYNLFWFNFPMHFLGGMPRRPYPDAGWNSGSSYQLGPDESNEPH'
p3447
sg123
F0.012290000000000001
sg124
g125
sg33
S'68'
p3448
sg127
g1
(g128
g12
(dp3449
g130
I4
sg131
g132
sg133
g134
sg135
g132
sg136
I01
sg34
g137
sg138
g134
sg139
I0
sg140
I0
sg141
I0
sg142
g134
sg35
g143
sg144
I0
stRp3450
sg146
g147
sg148
F1
sg149
Nsg30
S'LanspB'
p3451
sbasg120
g3363
sg123
F0.012070000000000001
sg124
g125
sg33
S'174'
p3452
sg127
g1
(g128
g12
(dp3453
g130
I6
sg131
g132
sg133
g134
sg135
g132
sg136
I01
sg34
g174
sg138
g134
sg139
I0
sg140
I0
sg141
I0
sg142
g134
sg35
g175
sg144
I0
stRp3454
sg146
g147
sg148
F0.98999999999999999
sg149
Nsg30
S'NoName'
p3455
sbasg120
g3329
sg123
F0.0088199999999999997
sg124
g125
sg33
S'117'
p3456
sg127
g1
(g128
g12
(dp3457
g130
I6
sg131
g132
sg133
g134
sg135
g132
sg136
I01
sg34
g174
sg138
g134
sg139
I0
sg140
I0
sg141
I0
sg142
g134
sg35
g175
sg144
I0
stRp3458
sg146
g147
sg148
F0.95999999999999996
sg149
Nsg30
S'NoName'
p3459
sbasg120
g3316
sg123
F0.016570000000000001
sg124
g125
sg33
S'93'
p3460
sg127
g1
(g128
g12
(dp3461
g130
I6
sg131
g132
sg133
g134
sg135
g132
sg136
I01
sg34
g174
sg138
g134
sg139
I0
sg140
I0
sg141
I0
sg142
g134
sg35
g175
sg144
I0
stRp3462
sg146
g147
sg148
F0.94999999999999996
sg149
Nsg30
S'NoName'
p3463
sbag1
(g2
g3
NtRp3464
(dp3465
g6
g1
(g7
g3
NtRp3466
(dp3467
g10
g1
(g11
g12
(dtRp3468
sg14
g1
(g11
g12
(dtRp3469
sg16
g1
(g11
g12
(dtRp3470
sg18
g1
(g11
g12
(dtRp3471
sg20
g1
(g11
g12
(dtRp3472
sg22
g1
(g11
g12
(dtRp3473
sbsg24
S'Kth'
p3474
sg26
g27
((lp3475
g29
ag30
aS'sequence'
p3476
ag32
ag33
aS'species'
p3477
atRp3478
sg37
(lp3479
sg120
g3316
sg121
S'RWLSTKDLYSRLELPGLNQNVHAMFVMPLGFGNPMGDMFARLNNSFWLPPLSLEGAGTGWTVYPPLSHSGPSVDLAFHLTSSLLGAINFTNMRGPLFWTALLLLSLPVLAGTILDRNFNTFEGGDPLYHLFWFFGHPEVYIIPGFGSHSTYKKFGMYASIGLGFVWSHHMYVGLDDRAYFTSATMIAPTGIKFSWLALYGGRPMLAFLFLFTGGTGVLNASDAFHDTYYVVHFHYVLSMGAFSLGYYYWPGLYNLFWFNFPMHFLGGMPRRPYPDAGWNSGSSYQLGPDESNEPH'
p3480
sg123
F0.021499999999999998
sg124
g125
sg33
S'2'
sg127
g1
(g128
g12
(dp3481
g130
I4
sg131
g132
sg133
g134
sg135
g132
sg136
I01
sg34
g137
sg138
g134
sg139
I0
sg140
I0
sg141
I0
sg142
g134
sg35
g143
sg144
I0
stRp3482
sg146
g147
sg148
F1
sg149
Nsg30
S'KtherA'
p3483
sbasg120
g3282
sg123
F0.033250000000000002
sg124
g125
sg33
S'12'
p3484
sg127
g1
(g128
g12
(dp3485
g130
I6
sg131
g132
sg133
g134
sg135
g132
sg136
I01
sg34
g174
sg138
g134
sg139
I0
sg140
I0
sg141
I0
sg142
g134
sg35
g175
sg144
I0
stRp3486
sg146
g147
sg148
F0.93999999999999995
sg149
Nsg30
S'NoName'
p3487
sbasg120
g3058
sg123
F0.038859999999999999
sg124
g125
sg33
S'43'
p3488
sg127
g1
(g128
g12
(dp3489
g130
I6
sg131
g132
sg133
g134
sg135
g132
sg136
I01
sg34
g174
sg138
g134
sg139
I0
sg140
I0
sg141
I0
sg142
g134
sg35
g175
sg144
I0
stRp3490
sg146
g147
sg148
F0.92000000000000004
sg149
Nsg30
S'NoName'
p3491
sbasg120
g3045
sg123
F0.050380000000000001
sg124
g125
sg33
S'34'
p3492
sg127
g1
(g128
g12
(dp3493
g130
I6
sg131
g132
sg133
g134
sg135
g132
sg136
I01
sg34
g174
sg138
g134
sg139
I0
sg140
I0
sg141
I0
sg142
g134
sg35
g175
sg144
I0
stRp3494
sg146
g147
sg148
F0.89000000000000001
sg149
Nsg30
S'NoName'
p3495
sbag1
(g2
g3
NtRp3496
(dp3497
g6
g1
(g7
g3
NtRp3498
(dp3499
g10
g1
(g11
g12
(dtRp3500
sg14
g1
(g11
g12
(dtRp3501
sg16
g1
(g11
g12
(dtRp3502
sg18
g1
(g11
g12
(dtRp3503
sg20
g1
(g11
g12
(dtRp3504
sg22
g1
(g11
g12
(dtRp3505
sbsg24
g25
sg26
g27
((lp3506
g33
ag32
ag29
ag30
atRp3507
sg37
(lp3508
g1
(g2
g3
NtRp3509
(dp3510
g6
g1
(g7
g3
NtRp3511
(dp3512
g10
g1
(g11
g12
(dtRp3513
sg14
g1
(g11
g12
(dtRp3514
sg16
g1
(g11
g12
(dtRp3515
sg18
g1
(g11
g12
(dtRp3516
sg20
g1
(g11
g12
(dtRp3517
sg22
g1
(g11
g12
(dtRp3518
sbsg24
S'Kma'
p3519
sg26
g27
((lp3520
g29
ag30
aS'sequence'
p3521
ag32
ag33
aS'species'
p3522
atRp3523
sg37
(lp3524
sg120
g3496
sg121
S'RWLSTKDLYSRLELPGLNQNVHAMFVMPLGFGNPMGDMFARLNNSFWLPPLSLEGAGTGWTVYPPLSHSGPSVDLAFHLTSSLLGAINFTNMRGPLFWTALLLLSLPVLAGTLLDRNFNTFEGGDPLYHLFWFFGHPEVYIIPGFGSHSTYKKFGMYASIGLGFVWSHHMYVGLDDRAYFTSATMIAPTGIKFSWLATYGGRPMLAFLFLFTGGTGVLNASDAFHDTYYVVHFHYVLSMGAFSLGYYYWPGLYNLFWFNFPMHFLGGMPRRPYPDAGWNSGSSYQLGPDESNEPH'
p3525
sg123
F0.04018
sg124
g125
sg33
S'71'
p3526
sg127
g1
(g128
g12
(dp3527
g130
I4
sg131
g132
sg133
g134
sg135
g132
sg136
I01
sg34
g137
sg138
g134
sg139
I0
sg140
I0
sg141
I0
sg142
g134
sg35
g143
sg144
I0
stRp3528
sg146
g147
sg148
F1
sg149
Nsg30
S'KmarxA'
p3529
sbag1
(g2
g3
NtRp3530
(dp3531
g6
g1
(g7
g3
NtRp3532
(dp3533
g10
g1
(g11
g12
(dtRp3534
sg14
g1
(g11
g12
(dtRp3535
sg16
g1
(g11
g12
(dtRp3536
sg18
g1
(g11
g12
(dtRp3537
sg20
g1
(g11
g12
(dtRp3538
sg22
g1
(g11
g12
(dtRp3539
sbsg24
S'Kla'
p3540
sg26
g27
((lp3541
g29
ag30
aS'sequence'
p3542
ag32
ag33
aS'species'
p3543
atRp3544
sg37
(lp3545
sg120
g3496
sg121
S'RWLSTKDLYSRLELPGLNQNVHAMFVMPLGFGNPLGDMFARLNNSFWLPPLSLEGAGTGWTVYPPLSHSGPSVDLAFHLTSSLLGAINFTNMRGPLFWTALLLLSLPVLAGTLLDRNFNTFEGGDPLYHLFWFFGHPEVYIIPGFGSHSTYKKFGMYASIGLGFVWSHHMYVGLDDRAYFTSATMIAPTGIKFSWLATYGGRPMLAFLFLFTGGTGVLNASDAFHDTYYVVHFHYVLSMGAFSLGYYYWPGLYNLFWFNFPMHFLGGMPRRPYPDAGWNSGSSYQLGPDESNEPH'
p3546
sg123
F0.043529999999999999
sg124
g125
sg33
S'221'
p3547
sg127
g1
(g128
g12
(dp3548
g130
I4
sg131
g132
sg133
g134
sg135
g132
sg136
I01
sg34
g137
sg138
g134
sg139
I0
sg140
I0
sg141
I0
sg142
g134
sg35
g143
sg144
I0
stRp3549
sg146
g147
sg148
F1
sg149
Nsg30
S'KlactA'
p3550
sbasg120
g3045
sg123
F0.13938999999999999
sg124
g125
sg33
S'70'
p3551
sg127
g1
(g128
g12
(dp3552
g130
I6
sg131
g132
sg133
g134
sg135
g132
sg136
I01
sg34
g174
sg138
g134
sg139
I0
sg140
I0
sg141
I0
sg142
g134
sg35
g175
sg144
I0
stRp3553
sg146
g147
sg148
F0.98999999999999999
sg149
Nsg30
S'NoName'
p3554
sbasg120
g3032
sg123
F1.0000000000000001e-05
sg124
g125
sg33
S'148'
p3555
sg127
g1
(g128
g12
(dp3556
g130
I6
sg131
g132
sg133
g134
sg135
g132
sg136
I01
sg34
g174
sg138
g134
sg139
I0
sg140
I0
sg141
I0
sg142
g134
sg35
g175
sg144
I0
stRp3557
sg146
g147
sg148
F1
sg149
Nsg30
S'NoName'
p3558
sbag1
(g2
g3
NtRp3559
(dp3560
g6
g1
(g7
g3
NtRp3561
(dp3562
g10
g1
(g11
g12
(dtRp3563
sg14
g1
(g11
g12
(dtRp3564
sg16
g1
(g11
g12
(dtRp3565
sg18
g1
(g11
g12
(dtRp3566
sg20
g1
(g11
g12
(dtRp3567
sg22
g1
(g11
g12
(dtRp3568
sbsg24
g25
sg26
g27
((lp3569
g33
ag32
ag29
ag30
atRp3570
sg37
(lp3571
g1
(g2
g3
NtRp3572
(dp3573
g6
g1
(g7
g3
NtRp3574
(dp3575
g10
g1
(g11
g12
(dtRp3576
sg14
g1
(g11
g12
(dtRp3577
sg16
g1
(g11
g12
(dtRp3578
sg18
g1
(g11
g12
(dtRp3579
sg20
g1
(g11
g12
(dtRp3580
sg22
g1
(g11
g12
(dtRp3581
sbsg24
S'Huv'
p3582
sg26
g27
((lp3583
g29
ag30
aS'sequence'
p3584
ag32
ag33
aS'species'
p3585
atRp3586
sg37
(lp3587
sg120
g3559
sg121
S'-MITTKDLYSRLELSGINHNSHAMFIMPIGFGNPAGDMFPRLNNSFWLVPVSLEGAGTGWTVYYPLSHSSVSVDLVFHCLSSLLGAINFTNFL-SLFWLALLLLSLPVLVGTLLDRNFNLYEGGDPLYHLFWFFGHPEVYIIPAFGSMSAYSKFGMYASIGLGFVWVHHMFVGLDDRAYFTSATMIAPLGIKFSWLALIGGRPVLAFLVLFLGGTGVLNASDAFHDTYYVVHFHYVLSLGAFGIGYYYWPGLYNLFVVNFPMHYLGGMPRRSYPDSAWNTGASVQLGTDLLPEPH'
p3588
sg123
F3.9441199999999998
sg124
g125
sg33
S'20'
p3589
sg127
g1
(g128
g12
(dp3590
g130
I4
sg131
g132
sg133
g134
sg135
g132
sg136
I01
sg34
g137
sg138
g134
sg139
I0
sg140
I0
sg141
I0
sg142
g134
sg35
g143
sg144
I0
stRp3591
sg146
g147
sg148
F1
sg149
Nsg30
S'HuvarA'
p3592
sbag1
(g2
g3
NtRp3593
(dp3594
g6
g1
(g7
g3
NtRp3595
(dp3596
g10
g1
(g11
g12
(dtRp3597
sg14
g1
(g11
g12
(dtRp3598
sg16
g1
(g11
g12
(dtRp3599
sg18
g1
(g11
g12
(dtRp3600
sg20
g1
(g11
g12
(dtRp3601
sg22
g1
(g11
g12
(dtRp3602
sbsg24
g25
sg26
g27
((lp3603
g33
ag32
ag29
ag30
atRp3604
sg37
(lp3605
g1
(g2
g3
NtRp3606
(dp3607
g6
g1
(g7
g3
NtRp3608
(dp3609
g10
g1
(g11
g12
(dtRp3610
sg14
g1
(g11
g12
(dtRp3611
sg16
g1
(g11
g12
(dtRp3612
sg18
g1
(g11
g12
(dtRp3613
sg20
g1
(g11
g12
(dtRp3614
sg22
g1
(g11
g12
(dtRp3615
sbsg24
g25
sg26
g27
((lp3616
g33
ag32
ag29
ag30
atRp3617
sg37
(lp3618
g1
(g2
g3
NtRp3619
(dp3620
g6
g1
(g7
g3
NtRp3621
(dp3622
g10
g1
(g11
g12
(dtRp3623
sg14
g1
(g11
g12
(dtRp3624
sg16
g1
(g11
g12
(dtRp3625
sg18
g1
(g11
g12
(dtRp3626
sg20
g1
(g11
g12
(dtRp3627
sg22
g1
(g11
g12
(dtRp3628
sbsg24
g25
sg26
g27
((lp3629
g33
ag32
ag29
ag30
atRp3630
sg37
(lp3631
g1
(g2
g3
NtRp3632
(dp3633
g6
g1
(g7
g3
NtRp3634
(dp3635
g10
g1
(g11
g12
(dtRp3636
sg14
g1
(g11
g12
(dtRp3637
sg16
g1
(g11
g12
(dtRp3638
sg18
g1
(g11
g12
(dtRp3639
sg20
g1
(g11
g12
(dtRp3640
sg22
g1
(g11
g12
(dtRp3641
sbsg24
S'Sse'
p3642
sg26
g27
((lp3643
g29
ag30
aS'sequence'
p3644
ag32
ag33
aS'species'
p3645
atRp3646
sg37
(lp3647
sg120
g3619
sg121
S'RWLSTKDMYSRMELPGLNQNVHAMFAMPLGFGNPMGDMFPRINSGFWLPMLSLEGAGTGWTVYPPLSHSGPSVDLAFHLTSSLLGAINFTNMRGPLFWTALLLLSLPVLAGTLLDRNFNTFEGGDPFYHAFWFFGHPEVYIIPGFGSHSTYKKFGMYASIGLGFVWSHHMYVGLDDRAYFTSATMIAPTGIKFSWLALYGGRPMMAFLFLFTGGTGVLNASDAFHDTYYVVHFHYVLSMGAFSLGYYYWPGLYNLFWFNFPMHFLGGMPRRPYPDAGWNSGSSYQIGPDESNEPH'
p3648
sg123
F0.29805999999999999
sg124
g125
sg33
S'46'
p3649
sg127
g1
(g128
g12
(dp3650
g130
I4
sg131
g132
sg133
g134
sg135
g132
sg136
I01
sg34
g137
sg138
g134
sg139
I0
sg140
I0
sg141
I0
sg142
g134
sg35
g143
sg144
I0
stRp3651
sg146
g147
sg148
F1
sg149
Nsg30
S'SservA'
p3652
sbag1
(g2
g3
NtRp3653
(dp3654
g6
g1
(g7
g3
NtRp3655
(dp3656
g10
g1
(g11
g12
(dtRp3657
sg14
g1
(g11
g12
(dtRp3658
sg16
g1
(g11
g12
(dtRp3659
sg18
g1
(g11
g12
(dtRp3660
sg20
g1
(g11
g12
(dtRp3661
sg22
g1
(g11
g12
(dtRp3662
sbsg24
S'Sca'
p3663
sg26
g27
((lp3664
g29
ag30
aS'sequence'
p3665
ag32
ag33
aS'species'
p3666
atRp3667
sg37
(lp3668
sg120
g3619
sg121
S'RWLSTKDLYSRLELPGLNQNVHAMFVMPLGFGNPMGDTFPRINNGFWLPMLSLEGAGTGWTVYPPLAHSGPSVDLAFHMTSSLLGAINFTNMRGPLFWTALLLLTLPVLAGTLLDRNFNTFEGGDPLYHLFWFFGHPEVYIIPGFGSHSTYKKFGMYASIGLGLVWSHHMYVGLDDRAYFTSATMIAPTGIKFSWLATYGGRPMLAFLFLFTGGTGVLNASDAFHDLYYVVHFHYVLSMGAFSLGYYYWPGLYNLFWFNFPMHFLGGMPRRPYPDAGWNSGASYQLGPDESNEPH'
p3669
sg123
F0.30890000000000001
sg124
g125
sg33
S'57'
p3670
sg127
g1
(g128
g12
(dp3671
g130
I4
sg131
g132
sg133
g134
sg135
g132
sg136
I01
sg34
g137
sg138
g134
sg139
I0
sg140
I0
sg141
I0
sg142
g134
sg35
g143
sg144
I0
stRp3672
sg146
g147
sg148
F1
sg149
Nsg30
S'ScastA'
p3673
sbasg120
g3606
sg123
F0.072319999999999995
sg124
g125
sg33
S'136'
p3674
sg127
g1
(g128
g12
(dp3675
g130
I6
sg131
g132
sg133
g134
sg135
g132
sg136
I01
sg34
g174
sg138
g134
sg139
I0
sg140
I0
sg141
I0
sg142
g134
sg35
g175
sg144
I0
stRp3676
sg146
g147
sg148
F0.98999999999999999
sg149
Nsg30
S'NoName'
p3677
sbag1
(g2
g3
NtRp3678
(dp3679
g6
g1
(g7
g3
NtRp3680
(dp3681
g10
g1
(g11
g12
(dtRp3682
sg14
g1
(g11
g12
(dtRp3683
sg16
g1
(g11
g12
(dtRp3684
sg18
g1
(g11
g12
(dtRp3685
sg20
g1
(g11
g12
(dtRp3686
sg22
g1
(g11
g12
(dtRp3687
sbsg24
g25
sg26
g27
((lp3688
g33
ag32
ag29
ag30
atRp3689
sg37
(lp3690
g1
(g2
g3
NtRp3691
(dp3692
g6
g1
(g7
g3
NtRp3693
(dp3694
g10
g1
(g11
g12
(dtRp3695
sg14
g1
(g11
g12
(dtRp3696
sg16
g1
(g11
g12
(dtRp3697
sg18
g1
(g11
g12
(dtRp3698
sg20
g1
(g11
g12
(dtRp3699
sg22
g1
(g11
g12
(dtRp3700
sbsg24
S'Spa'
p3701
sg26
g27
((lp3702
g29
ag30
aS'sequence'
p3703
ag32
ag33
aS'species'
p3704
atRp3705
sg37
(lp3706
sg120
g3678
sg121
S'RWLSTKDLYSRLELPGLNQNVHAMFVMPLGFGNPMGDTFPRINNAFWLPMLSLEGAGTGWTVYPPLSHSGPSVDLAFHLTSSLLGAINFTNMRGPLFWTALLLLSLPVLAGTLLDRNFNTFEGGDPLYHLFWFFGHPEVYIIPGFGSHSTYKKFGMYASIGLGFVWSHHMYVGLDDRAYFLSATMIAPTGIKFSWLATYGGRPMLAFLFLFTGGTGVLNASDAFHDTYYVVHFHYVLSMGAFSLGYYYWPGLYNLFWFNFPMHFLGGMPRRPYPDAGWNSGSSYQLGPDESNEPH'
p3707
sg123
F0.029780000000000001
sg124
g125
sg33
S'171'
p3708
sg127
g1
(g128
g12
(dp3709
g130
I4
sg131
g132
sg133
g134
sg135
g132
sg136
I01
sg34
g137
sg138
g134
sg139
I0
sg140
I0
sg141
I0
sg142
g134
sg35
g143
sg144
I0
stRp3710
sg146
g147
sg148
F1
sg149
Nsg30
S'SpastA'
p3711
sbag1
(g2
g3
NtRp3712
(dp3713
g6
g1
(g7
g3
NtRp3714
(dp3715
g10
g1
(g11
g12
(dtRp3716
sg14
g1
(g11
g12
(dtRp3717
sg16
g1
(g11
g12
(dtRp3718
sg18
g1
(g11
g12
(dtRp3719
sg20
g1
(g11
g12
(dtRp3720
sg22
g1
(g11
g12
(dtRp3721
sbsg24
g25
sg26
g27
((lp3722
g33
ag32
ag29
ag30
atRp3723
sg37
(lp3724
g1
(g2
g3
NtRp3725
(dp3726
g6
g1
(g7
g3
NtRp3727
(dp3728
g10
g1
(g11
g12
(dtRp3729
sg14
g1
(g11
g12
(dtRp3730
sg16
g1
(g11
g12
(dtRp3731
sg18
g1
(g11
g12
(dtRp3732
sg20
g1
(g11
g12
(dtRp3733
sg22
g1
(g11
g12
(dtRp3734
sbsg24
g25
sg26
g27
((lp3735
g33
ag32
ag29
ag30
atRp3736
sg37
(lp3737
g1
(g2
g3
NtRp3738
(dp3739
g6
g1
(g7
g3
NtRp3740
(dp3741
g10
g1
(g11
g12
(dtRp3742
sg14
g1
(g11
g12
(dtRp3743
sg16
g1
(g11
g12
(dtRp3744
sg18
g1
(g11
g12
(dtRp3745
sg20
g1
(g11
g12
(dtRp3746
sg22
g1
(g11
g12
(dtRp3747
sbsg24
S'Sce'
p3748
sg26
g27
((lp3749
g29
ag30
aS'sequence'
p3750
ag32
ag33
aS'species'
p3751
atRp3752
sg37
(lp3753
sg120
g3725
sg121
S'RWLSTKDLYSRLELPGLNQNVHAMFVMPLGFGNPMGDTFPRINNAFWLPMLSLEGAGTGWTVYPPLSHSGPSVDLAFHLTSSLLGAINFTNMRGPLFWTALLLLSLPVLAGTLLDRNFNTFEGGDPLYHLFWFFGHPEVYIIPGFGSHSTYKKFGMYASIGLGFVWSHHMYVGLDDRAYFLSALMIAPTGIKFSWLALYGGRPMLAFLFLFTGGTGVLNASDAFHDTYYVVHFHYVLSMGAFSLGYYYWPGLYNLFWFNFPMHFLGGMPRRPYPDAGWNSGSSYQLGPDESNEPH'
p3754
sg123
F0.0038700000000000002
sg124
g125
sg33
S'0'
sg127
g1
(g128
g12
(dp3755
g130
I4
sg131
g132
sg133
g134
sg135
g132
sg136
I01
sg34
g137
sg138
g134
sg139
I0
sg140
I0
sg141
I0
sg142
g134
sg35
g143
sg144
I0
stRp3756
sg146
g147
sg148
F1
sg149
Nsg30
S'ScereD'
p3757
sbag1
(g2
g3
NtRp3758
(dp3759
g6
g1
(g7
g3
NtRp3760
(dp3761
g10
g1
(g11
g12
(dtRp3762
sg14
g1
(g11
g12
(dtRp3763
sg16
g1
(g11
g12
(dtRp3764
sg18
g1
(g11
g12
(dtRp3765
sg20
g1
(g11
g12
(dtRp3766
sg22
g1
(g11
g12
(dtRp3767
sbsg24
g25
sg26
g27
((lp3768
g33
ag32
ag29
ag30
atRp3769
sg37
(lp3770
g1
(g2
g3
NtRp3771
(dp3772
g6
g1
(g7
g3
NtRp3773
(dp3774
g10
g1
(g11
g12
(dtRp3775
sg14
g1
(g11
g12
(dtRp3776
sg16
g1
(g11
g12
(dtRp3777
sg18
g1
(g11
g12
(dtRp3778
sg20
g1
(g11
g12
(dtRp3779
sg22
g1
(g11
g12
(dtRp3780
sbsg24
S'Sce'
p3781
sg26
g27
((lp3782
g29
ag30
aS'sequence'
p3783
ag32
ag33
aS'species'
p3784
atRp3785
sg37
(lp3786
sg120
g3758
sg121
S'RWLSTKDLYSRLELPGLNQNVHAMFVMPLGFGNPMGDTFPRINNAFWLPMLSLEGAGTGWTVYPPLSHSGPSVDLAFHLTSSLLGAINFTNMRGPLFWTALLLLSLPVLAGTLLDRNFNTFEGGDPLYHLFWFFGHPEVYIIPGFGSHSTYKKFGMYASIGLGFVWSHHMYVGLDDRAYFLSALMIAPTGIKFSWLALYGGRPMLAFLFLFTGGTGVLNASDAFHDTYYVVHFHYVLSMGAFSLGYYYWPGLYNLFWFNFPMHFLGGMPRRPYPDAGWNSGSSYQLGPDESNEPH'
p3787
sg123
F0.0075900000000000004
sg124
g125
sg33
S'28'
p3788
sg127
g1
(g128
g12
(dp3789
g130
I4
sg131
g132
sg133
g134
sg135
g132
sg136
I01
sg34
g137
sg138
g134
sg139
I0
sg140
I0
sg141
I0
sg142
g134
sg35
g143
sg144
I0
stRp3790
sg146
g147
sg148
F1
sg149
Nsg30
S'ScereE'
p3791
sbag1
(g2
g3
NtRp3792
(dp3793
g6
g1
(g7
g3
NtRp3794
(dp3795
g10
g1
(g11
g12
(dtRp3796
sg14
g1
(g11
g12
(dtRp3797
sg16
g1
(g11
g12
(dtRp3798
sg18
g1
(g11
g12
(dtRp3799
sg20
g1
(g11
g12
(dtRp3800
sg22
g1
(g11
g12
(dtRp3801
sbsg24
g25
sg26
g27
((lp3802
g33
ag32
ag29
ag30
atRp3803
sg37
(lp3804
g1
(g2
g3
NtRp3805
(dp3806
g6
g1
(g7
g3
NtRp3807
(dp3808
g10
g1
(g11
g12
(dtRp3809
sg14
g1
(g11
g12
(dtRp3810
sg16
g1
(g11
g12
(dtRp3811
sg18
g1
(g11
g12
(dtRp3812
sg20
g1
(g11
g12
(dtRp3813
sg22
g1
(g11
g12
(dtRp3814
sbsg24
S'Sce'
p3815
sg26
g27
((lp3816
g29
ag30
aS'sequence'
p3817
ag32
ag33
aS'species'
p3818
atRp3819
sg37
(lp3820
sg120
g3792
sg121
S'RWLSTKDLYSRLELPGLNQNVHAMFVMPLGFGNPMGDTFPRINNAFWLPMLSLEGAGTGWTVYPPLSHSGPSVDLAFHLTSSLLGAINFTNMRGPLFWTALLLLSLPVLAGTLLDRNFNTFEGGDPLYHLFWFFGHPEVYIIPGFGSHSTYKKFGMYASIGLGFVWSHHMYVGLDDRAYFLSALMIAPTGIKFSWLALHGGRPMLAFLFLFTGGTGVLNASDAFHDTYYVVHFHYVLSMGAFSLGYYYWPGLYNLFWFNFPMHFLGGMPRRPYPDAGWNSGSSYQLGPDESNEPH'
p3821
sg123
F0.0053899999999999998
sg124
g125
sg33
S'83'
p3822
sg127
g1
(g128
g12
(dp3823
g130
I4
sg131
g132
sg133
g134
sg135
g132
sg136
I01
sg34
g137
sg138
g134
sg139
I0
sg140
I0
sg141
I0
sg142
g134
sg35
g143
sg144
I0
stRp3824
sg146
g147
sg148
F1
sg149
Nsg30
S'ScereC'
p3825
sbag1
(g2
g3
NtRp3826
(dp3827
g6
g1
(g7
g3
NtRp3828
(dp3829
g10
g1
(g11
g12
(dtRp3830
sg14
g1
(g11
g12
(dtRp3831
sg16
g1
(g11
g12
(dtRp3832
sg18
g1
(g11
g12
(dtRp3833
sg20
g1
(g11
g12
(dtRp3834
sg22
g1
(g11
g12
(dtRp3835
sbsg24
S'Sce'
p3836
sg26
g27
((lp3837
g29
ag30
aS'sequence'
p3838
ag32
ag33
aS'species'
p3839
atRp3840
sg37
(lp3841
sg120
g3792
sg121
S'RWLSTKDLYSRLELPGLNQNVHAMFVMPLGFGNPMGDTFPRINNAFWLPMLSLEGAGTGWTVYPPLSHSGPSVDLAFHLTSSLLGAINFTNMRGPLFWTALLLLSLPVLAGTLLDRNFNTFEGGDPLYHLFWFFGHPEVYIIPGFGSHSTYKKFGMYASIGLGFVWSHHMYVGLDDRAYFLSALMIAPTGIKFSWLALYGGRPMLAFLFLFTGGTGVLNASDAFHDTYYVVHFHYVLSMGAFSLGYYYWPGLYNLFWFNFPMHFLGGMPRRPYPDAGWNSGSSYQLGPDESNEPH'
p3842
sg123
F0.0066400000000000001
sg124
g125
sg33
S'40'
p3843
sg127
g1
(g128
g12
(dp3844
g130
I4
sg131
g132
sg133
g134
sg135
g132
sg136
I01
sg34
g137
sg138
g134
sg139
I0
sg140
I0
sg141
I0
sg142
g134
sg35
g143
sg144
I0
stRp3845
sg146
g147
sg148
F1
sg149
Nsg30
S'ScereA'
p3846
sbasg120
g3758
sg123
F0.00596
sg124
g125
sg33
S'18'
p3847
sg127
g1
(g128
g12
(dp3848
g130
I6
sg131
g132
sg133
g134
sg135
g132
sg136
I01
sg34
g174
sg138
g134
sg139
I0
sg140
I0
sg141
I0
sg142
g134
sg35
g175
sg144
I0
stRp3849
sg146
g147
sg148
F0.98999999999999999
sg149
Nsg30
S'NoName'
p3850
sbasg120
g3725
sg123
F0.0050600000000000003
sg124
g125
sg33
S'27'
p3851
sg127
g1
(g128
g12
(dp3852
g130
I6
sg131
g132
sg133
g134
sg135
g132
sg136
I01
sg34
g174
sg138
g134
sg139
I0
sg140
I0
sg141
I0
sg142
g134
sg35
g175
sg144
I0
stRp3853
sg146
g147
sg148
F0.66000000000000003
sg149
Nsg30
S'NoName'
p3854
sbasg120
g3712
sg123
F0.017850000000000001
sg124
g125
sg33
S'67'
p3855
sg127
g1
(g128
g12
(dp3856
g130
I6
sg131
g132
sg133
g134
sg135
g132
sg136
I01
sg34
g174
sg138
g134
sg139
I0
sg140
I0
sg141
I0
sg142
g134
sg35
g175
sg144
I0
stRp3857
sg146
g147
sg148
F0.89000000000000001
sg149
Nsg30
S'NoName'
p3858
sbag1
(g2
g3
NtRp3859
(dp3860
g6
g1
(g7
g3
NtRp3861
(dp3862
g10
g1
(g11
g12
(dtRp3863
sg14
g1
(g11
g12
(dtRp3864
sg16
g1
(g11
g12
(dtRp3865
sg18
g1
(g11
g12
(dtRp3866
sg20
g1
(g11
g12
(dtRp3867
sg22
g1
(g11
g12
(dtRp3868
sbsg24
S'Sar'
p3869
sg26
g27
((lp3870
g29
ag30
aS'sequence'
p3871
ag32
ag33
aS'species'
p3872
atRp3873
sg37
(lp3874
sg120
g3712
sg121
S'RWLSTKDLYSRLELPGLNQNVHAMFVMPLGFGNPMGDTFPRINNAFWLPMLSLEGAGTGWTVYPPLSHSGPSVDLAFHLTSSLLGAINFTNMRGPLFWTALLLLSLPVLAGTLLDRNFNTFEGGDPLYHLFWFFGHPEVYIIPGFGSHSTYKKFGMYASIGLGFVWSHHMYVGLDDRAYFLSALMIAPTGIKFSWLALYGGRPMLAFLFLFTGGTGVLNASDAFHDTYYVVHFHYVLSMGAFSLGYYYWPGLYNLFWFNFPMHFLGGMPRRPYPDAGWNSGSSYQLGPDESNEPH'
p3875
sg123
F0.047230000000000001
sg124
g125
sg33
S'116'
p3876
sg127
g1
(g128
g12
(dp3877
g130
I4
sg131
g132
sg133
g134
sg135
g132
sg136
I01
sg34
g137
sg138
g134
sg139
I0
sg140
I0
sg141
I0
sg142
g134
sg35
g143
sg144
I0
stRp3878
sg146
g147
sg148
F1
sg149
Nsg30
S'SarboA'
p3879
sbasg120
g3678
sg123
F0.023619999999999999
sg124
g125
sg33
S'73'
p3880
sg127
g1
(g128
g12
(dp3881
g130
I6
sg131
g132
sg133
g134
sg135
g132
sg136
I01
sg34
g174
sg138
g134
sg139
I0
sg140
I0
sg141
I0
sg142
g134
sg35
g175
sg144
I0
stRp3882
sg146
g147
sg148
F0.92000000000000004
sg149
Nsg30
S'NoName'
p3883
sbasg120
g3606
sg123
F0.18547
sg124
g125
sg33
S'212'
p3884
sg127
g1
(g128
g12
(dp3885
g130
I6
sg131
g132
sg133
g134
sg135
g132
sg136
I01
sg34
g174
sg138
g134
sg139
I0
sg140
I0
sg141
I0
sg142
g134
sg35
g175
sg144
I0
stRp3886
sg146
g147
sg148
F0.98999999999999999
sg149
Nsg30
S'NoName'
p3887
sbasg120
g3593
sg123
F0.03594
sg124
g125
sg33
S'88'
p3888
sg127
g1
(g128
g12
(dp3889
g130
I6
sg131
g132
sg133
g134
sg135
g132
sg136
I01
sg34
g174
sg138
g134
sg139
I0
sg140
I0
sg141
I0
sg142
g134
sg35
g175
sg144
I0
stRp3890
sg146
g147
sg148
F0.98999999999999999
sg149
Nsg30
S'NoName'
p3891
sbag1
(g2
g3
NtRp3892
(dp3893
g6
g1
(g7
g3
NtRp3894
(dp3895
g10
g1
(g11
g12
(dtRp3896
sg14
g1
(g11
g12
(dtRp3897
sg16
g1
(g11
g12
(dtRp3898
sg18
g1
(g11
g12
(dtRp3899
sg20
g1
(g11
g12
(dtRp3900
sg22
g1
(g11
g12
(dtRp3901
sbsg24
g25
sg26
g27
((lp3902
g33
ag32
ag29
ag30
atRp3903
sg37
(lp3904
g1
(g2
g3
NtRp3905
(dp3906
g6
g1
(g7
g3
NtRp3907
(dp3908
g10
g1
(g11
g12
(dtRp3909
sg14
g1
(g11
g12
(dtRp3910
sg16
g1
(g11
g12
(dtRp3911
sg18
g1
(g11
g12
(dtRp3912
sg20
g1
(g11
g12
(dtRp3913
sg22
g1
(g11
g12
(dtRp3914
sbsg24
g25
sg26
g27
((lp3915
g33
ag32
ag29
ag30
atRp3916
sg37
(lp3917
g1
(g2
g3
NtRp3918
(dp3919
g6
g1
(g7
g3
NtRp3920
(dp3921
g10
g1
(g11
g12
(dtRp3922
sg14
g1
(g11
g12
(dtRp3923
sg16
g1
(g11
g12
(dtRp3924
sg18
g1
(g11
g12
(dtRp3925
sg20
g1
(g11
g12
(dtRp3926
sg22
g1
(g11
g12
(dtRp3927
sbsg24
S'Nde'
p3928
sg26
g27
((lp3929
g29
ag30
aS'sequence'
p3930
ag32
ag33
aS'species'
p3931
atRp3932
sg37
(lp3933
sg120
g3905
sg121
S'RWLSTKDLYSRLELPGLNQNVHAMFVMPLGFGNPMGDMFPRLNNGFWIVPLSLEGAGTGWTVYPPLSHSGPSVDLAFHMTSSLLGAINFTNMRGPLFWTALLLLSLPVFAGTLLDRNFNTFEGGDPLYHLFWFFGHPEVYIIPGFGSHSTYKKFGMYASIGLGFVWSHHMYVGLDDRAYFTSATMIAPTGIKFSWLATYGGRPMLAFLFLFTGGTGVLNASDAFHDTYYVVHFHYVLSMGAFSTGYYYWPGLYNLFWFNFPMHFLGGMPRRPYPDAGWNSGSSYQFGPDESNEPH'
p3934
sg123
F0.063509999999999997
sg124
g125
sg33
S'177'
p3935
sg127
g1
(g128
g12
(dp3936
g130
I4
sg131
g132
sg133
g134
sg135
g132
sg136
I01
sg34
g137
sg138
g134
sg139
I0
sg140
I0
sg141
I0
sg142
g134
sg35
g143
sg144
I0
stRp3937
sg146
g147
sg148
F1
sg149
Nsg30
S'NdelpA'
p3938
sbag1
(g2
g3
NtRp3939
(dp3940
g6
g1
(g7
g3
NtRp3941
(dp3942
g10
g1
(g11
g12
(dtRp3943
sg14
g1
(g11
g12
(dtRp3944
sg16
g1
(g11
g12
(dtRp3945
sg18
g1
(g11
g12
(dtRp3946
sg20
g1
(g11
g12
(dtRp3947
sg22
g1
(g11
g12
(dtRp3948
sbsg24
S'Cgl'
p3949
sg26
g27
((lp3950
g29
ag30
aS'sequence'
p3951
ag32
ag33
aS'species'
p3952
atRp3953
sg37
(lp3954
sg120
g3905
sg121
S'RWLSTKDLYSRLELPGLNQNVHAMFVMPLGFGNPMGDMFPRLNNGFWIVPLSLEGAGTGWTVYPPLSHSGPSVDLAFHLTSSLLGSINFTNMRGPLFWTALLLLSLPVLAGTLLDRNFNTFEGGDPLYHLFWFFGHPEVYIIPGFGSHSTYKKFGMYASIGLGFVWSHHMYVGLDDRAYFTSATMIAPTGIKFSWLATYGGRPMLAFLFLFTGGTGVLNASDAFHDTYYVVHFHYVLSMGAFSTGYYYWPGLYNLFWFNFPMHFLGGMPRRPYPDAGWNSGSSYQFGPDESNEPH'
p3955
sg123
F0.03882
sg124
g125
sg33
S'180'
p3956
sg127
g1
(g128
g12
(dp3957
g130
I4
sg131
g132
sg133
g134
sg135
g132
sg136
I01
sg34
g137
sg138
g134
sg139
I0
sg140
I0
sg141
I0
sg142
g134
sg35
g143
sg144
I0
stRp3958
sg146
g147
sg148
F1
sg149
Nsg30
S'CglabA'
p3959
sbasg120
g3892
sg123
F0.16661999999999999
sg124
g125
sg33
S'77'
p3960
sg127
g1
(g128
g12
(dp3961
g130
I6
sg131
g132
sg133
g134
sg135
g132
sg136
I01
sg34
g174
sg138
g134
sg139
I0
sg140
I0
sg141
I0
sg142
g134
sg35
g175
sg144
I0
stRp3962
sg146
g147
sg148
F0.98999999999999999
sg149
Nsg30
S'NoName'
p3963
sbag1
(g2
g3
NtRp3964
(dp3965
g6
g1
(g7
g3
NtRp3966
(dp3967
g10
g1
(g11
g12
(dtRp3968
sg14
g1
(g11
g12
(dtRp3969
sg16
g1
(g11
g12
(dtRp3970
sg18
g1
(g11
g12
(dtRp3971
sg20
g1
(g11
g12
(dtRp3972
sg22
g1
(g11
g12
(dtRp3973
sbsg24
g25
sg26
g27
((lp3974
g33
ag32
ag29
ag30
atRp3975
sg37
(lp3976
g1
(g2
g3
NtRp3977
(dp3978
g6
g1
(g7
g3
NtRp3979
(dp3980
g10
g1
(g11
g12
(dtRp3981
sg14
g1
(g11
g12
(dtRp3982
sg16
g1
(g11
g12
(dtRp3983
sg18
g1
(g11
g12
(dtRp3984
sg20
g1
(g11
g12
(dtRp3985
sg22
g1
(g11
g12
(dtRp3986
sbsg24
S'Nba'
p3987
sg26
g27
((lp3988
g29
ag30
aS'sequence'
p3989
ag32
ag33
aS'species'
p3990
atRp3991
sg37
(lp3992
sg120
g3964
sg121
S'RWLSTKDLYSRMELPGLNQNVHAMFVMPLGFGNPMGDMFPRLNNGFWMPALSLEGAGTGWTVYPPLSHSGPSVDLAFHLSSSLLGAINFTNMRGPLFWTALLLFSLPVFAGTLLDRNFNTFEGGDPLYHLFWFFGHPEVYIIPGFGSHSTYKKFGMYASIGLGFVWSHHMYVGLDDRAYFTSATMIAPTGIKFSWLALYGGRPMLAFLFLFTGGTGVLNASDAFHDTYYVVHFHYVLSMGAFSVAYYYWPGLYNLFWFNFPMHFLGGMPRRPYPDAGWNSGSSYQLGPDESNEPH'
p3993
sg123
F0.29926999999999998
sg124
g125
sg33
S'7'
sg127
g1
(g128
g12
(dp3994
g130
I4
sg131
g132
sg133
g134
sg135
g132
sg136
I01
sg34
g137
sg138
g134
sg139
I0
sg140
I0
sg141
I0
sg142
g134
sg35
g143
sg144
I0
stRp3995
sg146
g147
sg148
F1
sg149
Nsg30
S'NbaciA'
p3996
sbag1
(g2
g3
NtRp3997
(dp3998
g6
g1
(g7
g3
NtRp3999
(dp4000
g10
g1
(g11
g12
(dtRp4001
sg14
g1
(g11
g12
(dtRp4002
sg16
g1
(g11
g12
(dtRp4003
sg18
g1
(g11
g12
(dtRp4004
sg20
g1
(g11
g12
(dtRp4005
sg22
g1
(g11
g12
(dtRp4006
sbsg24
S'Cca'
p4007
sg26
g27
((lp4008
g29
ag30
aS'sequence'
p4009
ag32
ag33
aS'species'
p4010
atRp4011
sg37
(lp4012
sg120
g3964
sg121
S'RWLSTKDLYSRLELPGLNQNVHAMFVMPLGIGNPMGDTFPRLNNGFWLPPLSLEGAGTGWTVYPPLSHSGPSVDLAFHLTSSLLGAINFTNMRGPLFWTALLLFSLPVFAGTLLDRNFNTFEGGDPLYHVFWFFGHPEVYIIPGFGSHSTYKKFGMYASIGLGFVWSHHMYVGLDDRAYFTSALMIAPTGIKFSWLATFGGRPMLAFLFLFTGGTGVLNASDAFHDTYYVVHFHYVLSMGAFSLGYYYWPGLYNLFWFNFPMHFLGGMPRRPYPDAGWNSGSSYQLGPDESNEPH'
p4013
sg123
F0.26266
sg124
g125
sg33
S'69'
p4014
sg127
g1
(g128
g12
(dp4015
g130
I4
sg131
g132
sg133
g134
sg135
g132
sg136
I01
sg34
g137
sg138
g134
sg139
I0
sg140
I0
sg141
I0
sg142
g134
sg35
g143
sg144
I0
stRp4016
sg146
g147
sg148
F1
sg149
Nsg30
S'CcastA'
p4017
sbasg120
g3892
sg123
F0.15296999999999999
sg124
g125
sg33
S'62'
p4018
sg127
g1
(g128
g12
(dp4019
g130
I6
sg131
g132
sg133
g134
sg135
g132
sg136
I01
sg34
g174
sg138
g134
sg139
I0
sg140
I0
sg141
I0
sg142
g134
sg35
g175
sg144
I0
stRp4020
sg146
g147
sg148
F0.98999999999999999
sg149
Nsg30
S'NoName'
p4021
sbasg120
g3593
sg123
F0.042560000000000001
sg124
g125
sg33
S'182'
p4022
sg127
g1
(g128
g12
(dp4023
g130
I6
sg131
g132
sg133
g134
sg135
g132
sg136
I01
sg34
g174
sg138
g134
sg139
I0
sg140
I0
sg141
I0
sg142
g134
sg35
g175
sg144
I0
stRp4024
sg146
g147
sg148
F0.84999999999999998
sg149
Nsg30
S'NoName'
p4025
sbasg120
g3559
sg123
F0.094020000000000006
sg124
g125
sg33
S'5'
sg127
g1
(g128
g12
(dp4026
g130
I6
sg131
g132
sg133
g134
sg135
g132
sg136
I01
sg34
g174
sg138
g134
sg139
I0
sg140
I0
sg141
I0
sg142
g134
sg35
g175
sg144
I0
stRp4027
sg146
g147
sg148
F0.55000000000000004
sg149
Nsg30
S'NoName'
p4028
sbasg120
g3032
sg123
F0.11952
sg124
g125
sg33
S'17'
p4029
sg127
g1
(g128
g12
(dp4030
g130
I6
sg131
g132
sg133
g134
sg135
g132
sg136
I01
sg34
g174
sg138
g134
sg139
I0
sg140
I0
sg141
I0
sg142
g134
sg35
g175
sg144
I0
stRp4031
sg146
g147
sg148
F0.69999999999999996
sg149
Nsg30
S'NoName'
p4032
sbasg120
g3019
sg123
F0.029839999999999998
sg124
g125
sg33
S'29'
p4033
sg127
g1
(g128
g12
(dp4034
g130
I6
sg131
g132
sg133
g134
sg135
g132
sg136
I01
sg34
g174
sg138
g134
sg139
I0
sg140
I0
sg141
I0
sg142
g134
sg35
g175
sg144
I0
stRp4035
sg146
g147
sg148
F0.82999999999999996
sg149
Nsg30
S'NoName'
p4036
sbag1
(g2
g3
NtRp4037
(dp4038
g6
g1
(g7
g3
NtRp4039
(dp4040
g10
g1
(g11
g12
(dtRp4041
sg14
g1
(g11
g12
(dtRp4042
sg16
g1
(g11
g12
(dtRp4043
sg18
g1
(g11
g12
(dtRp4044
sg20
g1
(g11
g12
(dtRp4045
sg22
g1
(g11
g12
(dtRp4046
sbsg24
g25
sg26
g27
((lp4047
g33
ag32
ag29
ag30
atRp4048
sg37
(lp4049
g1
(g2
g3
NtRp4050
(dp4051
g6
g1
(g7
g3
NtRp4052
(dp4053
g10
g1
(g11
g12
(dtRp4054
sg14
g1
(g11
g12
(dtRp4055
sg16
g1
(g11
g12
(dtRp4056
sg18
g1
(g11
g12
(dtRp4057
sg20
g1
(g11
g12
(dtRp4058
sg22
g1
(g11
g12
(dtRp4059
sbsg24
S'Aac'
p4060
sg26
g27
((lp4061
g29
ag30
aS'sequence'
p4062
ag32
ag33
aS'species'
p4063
atRp4064
sg37
(lp4065
sg120
g4037
sg121
S'RWLSTKDLYSRMELPGLQQNVHLMFVMPLGFGNPMGDMFARLNNSFWLPPLSMEGLGTGWTVYPPLAHSGASVDLAFHLTSSLLGLINFTNMRGPLFWTAMLLMSLPVLAGTLLDRNFNTFEGGDPLYHLFWFFGHPEVYIIPLFGSHSTYKKFGMYASIGLGFVWSHHMYVGLDDRAYFTSLTMILPTSIKFSWLLTYGGRPMLAFLFLFTGGTGVLNLSDLFHDTYYVVHFHYVLSLGAFSMGYYYWPGLYNLFWFNFPMHFLGGMPRRPYPDLGWNSGSSYQLGPDESNEPH'
p4066
sg123
F0.028920000000000001
sg124
g125
sg33
S'8'
sg127
g1
(g128
g12
(dp4067
g130
I4
sg131
g132
sg133
g134
sg135
g132
sg136
I01
sg34
g137
sg138
g134
sg139
I0
sg140
I0
sg141
I0
sg142
g134
sg35
g143
sg144
I0
stRp4068
sg146
g147
sg148
F1
sg149
Nsg30
S'AacerA'
p4069
sbag1
(g2
g3
NtRp4070
(dp4071
g6
g1
(g7
g3
NtRp4072
(dp4073
g10
g1
(g11
g12
(dtRp4074
sg14
g1
(g11
g12
(dtRp4075
sg16
g1
(g11
g12
(dtRp4076
sg18
g1
(g11
g12
(dtRp4077
sg20
g1
(g11
g12
(dtRp4078
sg22
g1
(g11
g12
(dtRp4079
sbsg24
g25
sg26
g27
((lp4080
g33
ag32
ag29
ag30
atRp4081
sg37
(lp4082
g1
(g2
g3
NtRp4083
(dp4084
g6
g1
(g7
g3
NtRp4085
(dp4086
g10
g1
(g11
g12
(dtRp4087
sg14
g1
(g11
g12
(dtRp4088
sg16
g1
(g11
g12
(dtRp4089
sg18
g1
(g11
g12
(dtRp4090
sg20
g1
(g11
g12
(dtRp4091
sg22
g1
(g11
g12
(dtRp4092
sbsg24
S'Ago'
p4093
sg26
g27
((lp4094
g29
ag30
aS'sequence'
p4095
ag32
ag33
aS'species'
p4096
atRp4097
sg37
(lp4098
sg120
g4070
sg121
S'RWLSTKDLYSRMELPGLQQNVHLMFVMPLGFGNPMGDMFARLNNSFWLPPLSMEGLGTGWTVYPPLSHSGASVDLAFHLTSSLLGLINFTNMRGPLFWTAMLLMSLPVLAGTLLDRNFNTFEGGDPLYHLFWFFGHPEVYIIPLFGSHSTYKKFGMYLSISLGFVWSHHMYVGLDDRAYFTSATMILPTSIKFSWLLTYGGRPMLLFLFLFTGGTGVLNLSDAFHDTYYVVHFHYVLSLGAFSMGYYYWPGLYNLFWFNFPMHFLGGMPRRPYPDLGWNSGSSYQLGPDESNEPH'
p4099
sg123
F0.00088000000000000003
sg124
g125
sg33
S'55'
p4100
sg127
g1
(g128
g12
(dp4101
g130
I4
sg131
g132
sg133
g134
sg135
g132
sg136
I01
sg34
g137
sg138
g134
sg139
I0
sg140
I0
sg141
I0
sg142
g134
sg35
g143
sg144
I0
stRp4102
sg146
g147
sg148
F1
sg149
Nsg30
S'AgossB'
p4103
sbag1
(g2
g3
NtRp4104
(dp4105
g6
g1
(g7
g3
NtRp4106
(dp4107
g10
g1
(g11
g12
(dtRp4108
sg14
g1
(g11
g12
(dtRp4109
sg16
g1
(g11
g12
(dtRp4110
sg18
g1
(g11
g12
(dtRp4111
sg20
g1
(g11
g12
(dtRp4112
sg22
g1
(g11
g12
(dtRp4113
sbsg24
S'Ago'
p4114
sg26
g27
((lp4115
g29
ag30
aS'sequence'
p4116
ag32
ag33
aS'species'
p4117
atRp4118
sg37
(lp4119
sg120
g4070
sg121
S'RWLSTKDLYSRMELPGLQQNVHLMFVMPLGFGNPMGDMFARLNNSFWLPPLSMEGLGTGWTVYPPLSHSGASVDLAFHLTSSLLGLINFTNMRGPLFWTAMLLMSLPVLAGTLLDRNFNTFEGGDPLYHLFWFFGHPEVYIIPLFGSHSTYKKFGMYLSISLGFVWSHHMYVGLDDRAYFTSATMILPTSIKFSWLLTYGGRPMLLFLFLFTGGTGVLNLSDAFHDTYYVVHFHYVLSLGAFSMGYYYWPGLYNLFWFNFPMHFLGGMPRRPYPDLGWNSGSSYQLGPDESNEPH'
p4120
sg123
F0.0023999999999999998
sg124
g125
sg33
S'75'
p4121
sg127
g1
(g128
g12
(dp4122
g130
I4
sg131
g132
sg133
g134
sg135
g132
sg136
I01
sg34
g137
sg138
g134
sg139
I0
sg140
I0
sg141
I0
sg142
g134
sg35
g143
sg144
I0
stRp4123
sg146
g147
sg148
F1
sg149
Nsg30
S'AgossA'
p4124
sbasg120
g4037
sg123
F0.075329999999999994
sg124
g125
sg33
S'63'
p4125
sg127
g1
(g128
g12
(dp4126
g130
I6
sg131
g132
sg133
g134
sg135
g132
sg136
I01
sg34
g174
sg138
g134
sg139
I0
sg140
I0
sg141
I0
sg142
g134
sg35
g175
sg144
I0
stRp4127
sg146
g147
sg148
F0.98999999999999999
sg149
Nsg30
S'NoName'
p4128
sbasg120
g3019
sg123
F0.56830999999999998
sg124
g125
sg33
S'59'
p4129
sg127
g1
(g128
g12
(dp4130
g130
I6
sg131
g132
sg133
g134
sg135
g132
sg136
I01
sg34
g174
sg138
g134
sg139
I0
sg140
I0
sg141
I0
sg142
g134
sg35
g175
sg144
I0
stRp4131
sg146
g147
sg148
F0.98999999999999999
sg149
Nsg30
S'NoName'
p4132
sbasg120
g2681
sg123
F0.14305999999999999
sg124
g125
sg33
S'110'
p4133
sg127
g1
(g128
g12
(dp4134
g130
I6
sg131
g132
sg133
g134
sg135
g132
sg136
I01
sg34
g174
sg138
g134
sg139
I0
sg140
I0
sg141
I0
sg142
g134
sg35
g175
sg144
I0
stRp4135
sg146
g147
sg148
F0.96999999999999997
sg149
Nsg30
S'NoName'
p4136
sbasg120
g2495
sg123
F0.26834000000000002
sg124
g125
sg33
S'108'
p4137
sg127
g1
(g128
g12
(dp4138
g130
I6
sg131
g132
sg133
g134
sg135
g132
sg136
I01
sg34
g174
sg138
g134
sg139
I0
sg140
I0
sg141
I0
sg142
g134
sg35
g175
sg144
I0
stRp4139
sg146
g147
sg148
F0.97999999999999998
sg149
Nsg30
S'NoName'
p4140
sbasg120
g680
sg123
F0.062890000000000001
sg124
g125
sg33
S'23'
p4141
sg127
g1
(g128
g12
(dp4142
g130
I6
sg131
g132
sg133
g134
sg135
g132
sg136
I01
sg34
g174
sg138
g134
sg139
I0
sg140
I0
sg141
I0
sg142
g134
sg35
g175
sg144
I0
stRp4143
sg146
g147
sg148
F0.67000000000000004
sg149
Nsg30
S'NoName'
p4144
sbasg120
g266
sg123
F0.52025999999999994
sg124
g125
sg33
S'127'
p4145
sg127
g1
(g128
g12
(dp4146
g130
I6
sg131
g132
sg133
g134
sg135
g132
sg136
I01
sg34
g174
sg138
g134
sg139
I0
sg140
I0
sg141
I0
sg142
g134
sg35
g175
sg144
I0
stRp4147
sg146
g147
sg148
F0.97999999999999998
sg149
Nsg30
S'NoName'
p4148
sbasg120
g52
sg123
F0.11274000000000001
sg124
g125
sg33
S'61'
p4149
sg127
g1
(g128
g12
(dp4150
g130
I6
sg131
g132
sg133
g134
sg135
g132
sg136
I01
sg34
g174
sg138
g134
sg139
I0
sg140
I0
sg141
I0
sg142
g134
sg35
g175
sg144
I0
stRp4151
sg146
g147
sg148
F0.88
sg149
Nsg30
S'NoName'
p4152
sbasg120
g39
sg123
F0.33485999999999999
sg124
g125
sg33
S'80'
p4153
sg127
g1
(g128
g12
(dp4154
g130
I6
sg131
g132
sg133
g134
sg135
g132
sg136
I01
sg34
g174
sg138
g134
sg139
I0
sg140
I0
sg141
I0
sg142
g134
sg35
g175
sg144
I0
stRp4155
sg146
g147
sg148
F0.95999999999999996
sg149
Nsg30
S'NoName'
p4156
sbag1
(g2
g3
NtRp4157
(dp4158
g6
g1
(g7
g3
NtRp4159
(dp4160
g10
g1
(g11
g12
(dtRp4161
sg14
g1
(g11
g12
(dtRp4162
sg16
g1
(g11
g12
(dtRp4163
sg18
g1
(g11
g12
(dtRp4164
sg20
g1
(g11
g12
(dtRp4165
sg22
g1
(g11
g12
(dtRp4166
sbsg24
S'Lst'
p4167
sg26
g27
((lp4168
g29
ag30
aS'sequence'
p4169
ag32
ag33
aS'species'
p4170
atRp4171
sg37
(lp4172
sg120
g39
sg121
S'RWLSTKDLYSRMELPGLNHNVHAMFVMPLGFGNPLGDMFPRLNNSFWLPPLSFEGAGTGWTVYPPLSHSGASVDLAFHLSSSMLGAMNFTNMRGPLFWTALLLLSLPVLGATLLDRNFNTFEGGDPLYHLFWFFGHPEVYIIPGFGSHCTYEKFGMYASMGLGFVWSHHMFVGLDERAYFTAATMIAPTGMKFSWLATYGGTPMVAFLFLFTGGTGVLNASDAFHDTYYVVHFHYVLSMGAFALGYYYWPGLYKYFWFNFPMHFLGGMPRRPYPDAGWNSGSAIQLGPQATKEPH'
p4173
sg123
F1.13117
sg124
g125
sg33
S'47'
p4174
sg127
g1
(g128
g12
(dp4175
g130
I4
sg131
g132
sg133
g134
sg135
g132
sg136
I01
sg34
g137
sg138
g134
sg139
I0
sg140
I0
sg141
I0
sg142
g134
sg35
g143
sg144
I0
stRp4176
sg146
g147
sg148
F1
sg149
Nsg30
S'LstarA'
p4177
sbasg120
g4
sg123
F0.46844999999999998
sg124
g125
sg33
S'54'
p4178
sg127
g1
(g128
g12
(dp4179
g130
I6
sg131
g132
sg133
g134
sg135
g132
sg136
I01
sg34
g174
sg138
g134
sg139
I0
sg140
I0
sg141
I0
sg142
g134
sg35
g175
sg144
I0
stRp4180
sg146
g147
sg148
F1
sg149
Nsg30
S'NoName'
p4181
sbag1
(g2
g3
NtRp4182
(dp4183
g6
g1
(g7
g3
NtRp4184
(dp4185
g10
g1
(g11
g12
(dtRp4186
sg14
g1
(g11
g12
(dtRp4187
sg16
g1
(g11
g12
(dtRp4188
sg18
g1
(g11
g12
(dtRp4189
sg20
g1
(g11
g12
(dtRp4190
sg22
g1
(g11
g12
(dtRp4191
sbsg24
g25
sg26
g27
((lp4192
g33
ag32
ag29
ag30
atRp4193
sg37
(lp4194
g1
(g2
g3
NtRp4195
(dp4196
g6
g1
(g7
g3
NtRp4197
(dp4198
g10
g1
(g11
g12
(dtRp4199
sg14
g1
(g11
g12
(dtRp4200
sg16
g1
(g11
g12
(dtRp4201
sg18
g1
(g11
g12
(dtRp4202
sg20
g1
(g11
g12
(dtRp4203
sg22
g1
(g11
g12
(dtRp4204
sbsg24
S'Sja'
p4205
sg26
g27
((lp4206
g29
ag30
aS'sequence'
p4207
ag32
ag33
aS'species'
p4208
atRp4209
sg37
(lp4210
sg120
g4182
sg121
S'RWLSTKDLYSRLELPGLNQNVHGMFILPLGFGNPLGDVYPRMNNSFWLPPLSLEGPGVGWTMYYPLSHSGLSVDLLMQLTSSTLGSINLTNMRGPLFWTSLLVLTLPVLGGILLDRNWNTFAGGDPLYHLFWFFGHPEVYIIPAFGSHSTFHKFGMYASIALGCVWSHHLYVGLDDRAYFTAATMIAPTGIKFSWLATSGGEPMLVFLILFTGGTGVLNSVDAFHDTYFVVHFHYVLSMGAMGLAYYFWPGLYNMFWFNFPQHFLGNYPRRPYPDAGWNSGSSYQFNPNDSNEPH'
p4211
sg123
F1.0686599999999999
sg124
g125
sg33
S'115'
p4212
sg127
g1
(g128
g12
(dp4213
g130
I4
sg131
g132
sg133
g134
sg135
g132
sg136
I01
sg34
g137
sg138
g134
sg139
I0
sg140
I0
sg141
I0
sg142
g134
sg35
g143
sg144
I0
stRp4214
sg146
g147
sg148
F1
sg149
Nsg30
S'SjapoA'
p4215
sbag1
(g2
g3
NtRp4216
(dp4217
g6
g1
(g7
g3
NtRp4218
(dp4219
g10
g1
(g11
g12
(dtRp4220
sg14
g1
(g11
g12
(dtRp4221
sg16
g1
(g11
g12
(dtRp4222
sg18
g1
(g11
g12
(dtRp4223
sg20
g1
(g11
g12
(dtRp4224
sg22
g1
(g11
g12
(dtRp4225
sbsg24
g25
sg26
g27
((lp4226
g33
ag32
ag29
ag30
atRp4227
sg37
(lp4228
g1
(g2
g3
NtRp4229
(dp4230
g6
g1
(g7
g3
NtRp4231
(dp4232
g10
g1
(g11
g12
(dtRp4233
sg14
g1
(g11
g12
(dtRp4234
sg16
g1
(g11
g12
(dtRp4235
sg18
g1
(g11
g12
(dtRp4236
sg20
g1
(g11
g12
(dtRp4237
sg22
g1
(g11
g12
(dtRp4238
sbsg24
S'Spo'
p4239
sg26
g27
((lp4240
g29
ag30
aS'sequence'
p4241
ag32
ag33
aS'species'
p4242
atRp4243
sg37
(lp4244
sg120
g4216
sg121
S'RWMSTKDLYSRMELPGLNQNVHGMFIIPLGFGNPMGDVYPRVNNTFWLPPLSLEGPGGGWTVYPPLSHSGPAIDLALQLTSSTLGSVNLTNMRGPLFWTSLLLLTLPVLGGFLFDRNLNTFAGGDPLYHLFWFFGHPEVYIIPAFGSHPSLHKFGMWASIALGLVWSHHLFVGLDDRAYFSAATMIAPTGIKFSWLATTGGQPMLAFLILFTGGTGVLNSVDAFHDTYFVVHFHYVLSMGAFGLAYY-WPGLYNLFWFNFPQHFLGGMPRRPYPEAGWNSGSSYQFNPSDDNEPH'
p4245
sg123
F0.12372
sg124
g125
sg33
S'114'
p4246
sg127
g1
(g128
g12
(dp4247
g130
I4
sg131
g132
sg133
g134
sg135
g132
sg136
I01
sg34
g137
sg138
g134
sg139
I0
sg140
I0
sg141
I0
sg142
g134
sg35
g143
sg144
I0
stRp4248
sg146
g147
sg148
F1
sg149
Nsg30
S'SpombA'
p4249
sbag1
(g2
g3
NtRp4250
(dp4251
g6
g1
(g7
g3
NtRp4252
(dp4253
g10
g1
(g11
g12
(dtRp4254
sg14
g1
(g11
g12
(dtRp4255
sg16
g1
(g11
g12
(dtRp4256
sg18
g1
(g11
g12
(dtRp4257
sg20
g1
(g11
g12
(dtRp4258
sg22
g1
(g11
g12
(dtRp4259
sbsg24
g25
sg26
g27
((lp4260
g33
ag32
ag29
ag30
atRp4261
sg37
(lp4262
g1
(g2
g3
NtRp4263
(dp4264
g6
g1
(g7
g3
NtRp4265
(dp4266
g10
g1
(g11
g12
(dtRp4267
sg14
g1
(g11
g12
(dtRp4268
sg16
g1
(g11
g12
(dtRp4269
sg18
g1
(g11
g12
(dtRp4270
sg20
g1
(g11
g12
(dtRp4271
sg22
g1
(g11
g12
(dtRp4272
sbsg24
S'Soc'
p4273
sg26
g27
((lp4274
g29
ag30
aS'sequence'
p4275
ag32
ag33
aS'species'
p4276
atRp4277
sg37
(lp4278
sg120
g4250
sg121
S'RWLSTKDLYSRMELPGLNQNVHGMFIIPLGFGNPMGDVYPRVNNTFWLPPLSLEGPGTGWTVYPPLSHSGPAVDLALQLTSSTLGSLNLTNMRGPLFWTSLLLLTLPVLGGFLFDRNLNTFAGGDPLYHLFWFFGHPEVYIIPAFGSHSTLNKFGMCASIALGLVWSHHLFVGLDDRAYFSAATMIAPTGIKFSWLATTGGQPMLAFLILFTGGTGVLNSVDAFHDTYFVVHFHYVLSMGAFGLAYYFWPGLYNLFWFNFPQHFLGGMPRRPYPDAGWNSGSSYQYNPSDDNEPH'
p4279
sg123
F0.03637
sg124
g125
sg33
S'199'
p4280
sg127
g1
(g128
g12
(dp4281
g130
I4
sg131
g132
sg133
g134
sg135
g132
sg136
I01
sg34
g137
sg138
g134
sg139
I0
sg140
I0
sg141
I0
sg142
g134
sg35
g143
sg144
I0
stRp4282
sg146
g147
sg148
F1
sg149
Nsg30
S'SoctoA'
p4283
sbag1
(g2
g3
NtRp4284
(dp4285
g6
g1
(g7
g3
NtRp4286
(dp4287
g10
g1
(g11
g12
(dtRp4288
sg14
g1
(g11
g12
(dtRp4289
sg16
g1
(g11
g12
(dtRp4290
sg18
g1
(g11
g12
(dtRp4291
sg20
g1
(g11
g12
(dtRp4292
sg22
g1
(g11
g12
(dtRp4293
sbsg24
S'Scr'
p4294
sg26
g27
((lp4295
g29
ag30
aS'sequence'
p4296
ag32
ag33
aS'species'
p4297
atRp4298
sg37
(lp4299
sg120
g4250
sg121
S'RWLSTKDLYSRMELPGLNQNVHGMFIIPLGFGNPMGDVYPRVNNTYWLPPLSLEGPGTGWTVYPPLSHSGPSVDLALQLTSSTLGSLNLTNMRGPLFWTSLLLLTLPVLGGFLFDRNLNTFAGGDPLYHLFWFFGHPEVYIIPAFGSHPTLNKFGMCASIALGLVWSHHLFVGLDDRAYFSAATMIAPTGIKFSWLATTGGQPMLAFLILFTGGTGVLNSVDAFHDTYFVVHFHYVLSMGAFGLAYYFWPGLYNLFWFNFPQHFLGGMPRRPYPDAGWNSGSSYQYNPSDDNEPH'
p4300
sg123
F0.036740000000000002
sg124
g125
sg33
S'104'
p4301
sg127
g1
(g128
g12
(dp4302
g130
I4
sg131
g132
sg133
g134
sg135
g132
sg136
I01
sg34
g137
sg138
g134
sg139
I0
sg140
I0
sg141
I0
sg142
g134
sg35
g143
sg144
I0
stRp4303
sg146
g147
sg148
F1
sg149
Nsg30
S'ScryoA'
p4304
sbasg120
g4216
sg123
F0.18453
sg124
g125
sg33
S'145'
p4305
sg127
g1
(g128
g12
(dp4306
g130
I6
sg131
g132
sg133
g134
sg135
g132
sg136
I01
sg34
g174
sg138
g134
sg139
I0
sg140
I0
sg141
I0
sg142
g134
sg35
g175
sg144
I0
stRp4307
sg146
g147
sg148
F0.98999999999999999
sg149
Nsg30
S'NoName'
p4308
sbasg120
g4182
sg123
F0.73307
sg124
g125
sg33
S'32'
p4309
sg127
g1
(g128
g12
(dp4310
g130
I6
sg131
g132
sg133
g134
sg135
g132
sg136
I01
sg34
g174
sg138
g134
sg139
I0
sg140
I0
sg141
I0
sg142
g134
sg35
g175
sg144
I0
stRp4311
sg146
g147
sg148
F0.98999999999999999
sg149
Nsg30
S'NoName'
p4312
sbasg120
g4
sg123
F1.7741899999999999
sg124
g125
sg33
S'113'
p4313
sg127
g1
(g128
g12
(dp4314
g130
I6
sg131
g132
sg133
g134
sg135
g132
sg136
I01
sg34
g174
sg138
g134
sg139
I0
sg140
I0
sg141
I0
sg142
g134
sg35
g175
sg144
I0
stRp4315
sg146
g147
sg148
F1
sg149
Nsg30
S'NoName'
p4316
sbasg31
S'8'
sg120
Nsg123
F0
sg124
g125
sg33
S'112'
p4317
sg34
S'sphere'
p4318
sg127
g1
(g128
g12
(dp4319
g130
I6
sg131
g132
sg133
g134
sg135
g132
sg136
I01
sg34
g174
sg138
g134
sg139
I0
sg140
I0
sg141
I0
sg142
g134
sg35
g175
sg144
I0
stRp4320
sg146
g147
sg148
F1
sg149
Nsg35
S'#833DB4'
p4321
sg30
g125
sb.