ccopy_reg
_reconstructor
p1
(cete2.phylo.phylotree
PhyloNode
p2
c__builtin__
object
p3
NtRp4
(dp5
S'_faces'
p6
g1
(cete2.treeview.main
_FaceAreas
p7
g3
NtRp8
(dp9
S'branch-top'
p10
g1
(cete2.treeview.main
FaceContainer
p11
c__builtin__
dict
p12
(dtRp13
sS'float'
p14
g1
(g11
g12
(dtRp15
sS'branch-bottom'
p16
g1
(g11
g12
(dtRp17
sS'aligned'
p18
g1
(g11
g12
(dtRp19
sS'branch-right'
p20
g1
(g11
g12
(dtRp21
sS'float-behind'
p22
g1
(g11
g12
(dtRp23
sbsS'_species'
p24
S'Unknown'
p25
sS'features'
p26
c__builtin__
set
p27
((lp28
S'dist'
p29
aS'name'
p30
aS'bsize'
p31
aS'support'
p32
aS'_nid'
p33
aS'shape'
p34
aS'fgcolor'
p35
atRp36
sS'_children'
p37
(lp38
g1
(g2
g3
NtRp39
(dp40
g6
g1
(g7
g3
NtRp41
(dp42
g10
g1
(g11
g12
(dtRp43
sg14
g1
(g11
g12
(dtRp44
sg16
g1
(g11
g12
(dtRp45
sg18
g1
(g11
g12
(dtRp46
sg20
g1
(g11
g12
(dtRp47
sg22
g1
(g11
g12
(dtRp48
sbsg24
g25
sg26
g27
((lp49
g33
ag32
ag29
ag30
atRp50
sg37
(lp51
g1
(g2
g3
NtRp52
(dp53
g6
g1
(g7
g3
NtRp54
(dp55
g10
g1
(g11
g12
(dtRp56
sg14
g1
(g11
g12
(dtRp57
sg16
g1
(g11
g12
(dtRp58
sg18
g1
(g11
g12
(dtRp59
sg20
g1
(g11
g12
(dtRp60
sg22
g1
(g11
g12
(dtRp61
sbsg24
g25
sg26
g27
((lp62
g33
ag32
ag29
ag30
atRp63
sg37
(lp64
g1
(g2
g3
NtRp65
(dp66
g6
g1
(g7
g3
NtRp67
(dp68
g10
g1
(g11
g12
(dtRp69
sg14
g1
(g11
g12
(dtRp70
sg16
g1
(g11
g12
(dtRp71
sg18
g1
(g11
g12
(dtRp72
sg20
g1
(g11
g12
(dtRp73
sg22
g1
(g11
g12
(dtRp74
sbsg24
g25
sg26
g27
((lp75
g33
ag32
ag29
ag30
atRp76
sg37
(lp77
g1
(g2
g3
NtRp78
(dp79
g6
g1
(g7
g3
NtRp80
(dp81
g10
g1
(g11
g12
(dtRp82
sg14
g1
(g11
g12
(dtRp83
sg16
g1
(g11
g12
(dtRp84
sg18
g1
(g11
g12
(dtRp85
sg20
g1
(g11
g12
(dtRp86
sg22
g1
(g11
g12
(dtRp87
sbsg24
g25
sg26
g27
((lp88
g33
ag32
ag29
ag30
atRp89
sg37
(lp90
g1
(g2
g3
NtRp91
(dp92
g6
g1
(g7
g3
NtRp93
(dp94
g10
g1
(g11
g12
(dtRp95
sg14
g1
(g11
g12
(dtRp96
sg16
g1
(g11
g12
(dtRp97
sg18
g1
(g11
g12
(dtRp98
sg20
g1
(g11
g12
(dtRp99
sg22
g1
(g11
g12
(dtRp100
sbsg24
g25
sg26
g27
((lp101
g33
ag32
ag29
ag30
atRp102
sg37
(lp103
g1
(g2
g3
NtRp104
(dp105
g6
g1
(g7
g3
NtRp106
(dp107
g10
g1
(g11
g12
(dtRp108
sg14
g1
(g11
g12
(dtRp109
sg16
g1
(g11
g12
(dtRp110
sg18
g1
(g11
g12
(dtRp111
sg20
g1
(g11
g12
(dtRp112
sg22
g1
(g11
g12
(dtRp113
sbsg24
S'Yli'
p114
sg26
g27
((lp115
g29
ag30
aS'sequence'
p116
ag32
ag33
aS'species'
p117
atRp118
sg37
(lp119
sS'_up'
p120
g91
sS'sequence'
p121
S'RWLSTKDLYSRLELTGLNQNVHAMFVMPLGFGNPMGDMFARLNNSFWLVPLSLEGAGTGWTVYFPLAHSGPAVDLAFHLSSSLLGAINFTNMRGPLFWTALLLLSLPVLAGTGIDRNFNTFEGGDALYHLFWFFGHPEVYIIPGFGSHSAISKFGMYASIGLGFVWSHHMFVGLDDRAYFTSATMIAPTSIKFSWLATYGGRTALAFIFLFTGGTGVLNSADPFHDSYYVVHFHYVLSMGAFSIGWYLWPGLYNLFWFNFPMHFLGGMPRRNYPDAGWNSGSAYQLGPSGTNEPH'
p122
sS'_dist'
p123
F0.00011
sS'_name'
p124
S'NoName'
p125
sg33
S'183'
p126
sS'_img_style'
p127
g1
(cete2.treeview.main
NodeStyle
p128
g12
(dp129
S'size'
p130
I4
sS'hz_line_color'
p131
S'#000000'
p132
sS'faces_bgcolor'
p133
S'#FFFFFF'
p134
sS'vt_line_color'
p135
g132
sS'draw_descendants'
p136
I01
sg34
S'square'
p137
sS'bgcolor'
p138
g134
sS'hz_line_type'
p139
I0
sS'vt_line_width'
p140
I0
sS'vt_line_type'
p141
I0
sS'node_bgcolor'
p142
g134
sg35
S'#000000'
p143
sS'hz_line_width'
p144
I0
stRp145
sS'_speciesFunction'
p146
cete2.phylo.phylotree
_parse_species
p147
sS'_support'
p148
F1
sS'_temp_faces'
p149
Nsg30
S'YlipoB'
p150
sbag1
(g2
g3
NtRp151
(dp152
g6
g1
(g7
g3
NtRp153
(dp154
g10
g1
(g11
g12
(dtRp155
sg14
g1
(g11
g12
(dtRp156
sg16
g1
(g11
g12
(dtRp157
sg18
g1
(g11
g12
(dtRp158
sg20
g1
(g11
g12
(dtRp159
sg22
g1
(g11
g12
(dtRp160
sbsg24
S'Yli'
p161
sg26
g27
((lp162
g29
ag30
aS'sequence'
p163
ag31
ag32
ag35
ag33
ag34
aS'species'
p164
atRp165
sg37
(lp166
sg31
I40
sg120
g91
sg121
S'RWLSTKDLYSRLELTGLNQNVHAMFVMPLGFGNPMGDMFARLNNSFWLVPLSLEGAGTGWTVYFPLAHSGPAVDLAFHLSSSLLGAINFTNMRGPLFWTALLLLSLPVLAGTGIDRNFNTFEGGDALYHLFWFFGHPEVYIIPGFGSHSAISKFGMYASIGLGFVWSHHMFVGLDDRAYFTSATMIAPTSIKFSWLATYGGRTALAFIFLFTGGTGVLNSADPFHDSYYVVHFHYVLSMGAFSIGWYLWPGLYNLFWFNFPMHFLGGMPRRNYPDAGWNSGSAYQLGPSGTNEPH'
p167
sg123
F0.00048000000000000001
sg124
g125
sg33
S'186'
p168
sg34
S'sphere'
p169
sg127
g1
(g128
g12
(dp170
g130
I4
sg131
g132
sg133
g134
sg135
g132
sg136
I01
sg34
g137
sg138
g134
sg139
I0
sg140
I0
sg141
I0
sg142
g134
sg35
g143
sg144
I0
stRp171
sg146
g147
sg148
F1
sg149
Nsg35
S'#ff0000'
p172
sg30
S'YlipoA'
p173
sbasg120
g78
sg123
F0.02656
sg124
g125
sg33
S'180'
p174
sg127
g1
(g128
g12
(dp175
g130
I6
sg131
g132
sg133
g134
sg135
g132
sg136
I01
sg34
S'circle'
p176
sg138
g134
sg139
I0
sg140
I0
sg141
I0
sg142
g134
sg35
S'#0030c1'
p177
sg144
I0
stRp178
sg146
g147
sg148
F1
sg149
Nsg30
S'NoName'
p179
sbag1
(g2
g3
NtRp180
(dp181
g6
g1
(g7
g3
NtRp182
(dp183
g10
g1
(g11
g12
(dtRp184
sg14
g1
(g11
g12
(dtRp185
sg16
g1
(g11
g12
(dtRp186
sg18
g1
(g11
g12
(dtRp187
sg20
g1
(g11
g12
(dtRp188
sg22
g1
(g11
g12
(dtRp189
sbsg24
g25
sg26
g27
((lp190
g33
ag32
ag29
ag30
atRp191
sg37
(lp192
g1
(g2
g3
NtRp193
(dp194
g6
g1
(g7
g3
NtRp195
(dp196
g10
g1
(g11
g12
(dtRp197
sg14
g1
(g11
g12
(dtRp198
sg16
g1
(g11
g12
(dtRp199
sg18
g1
(g11
g12
(dtRp200
sg20
g1
(g11
g12
(dtRp201
sg22
g1
(g11
g12
(dtRp202
sbsg24
S'Cga'
p203
sg26
g27
((lp204
g29
ag30
aS'sequence'
p205
ag32
ag33
aS'species'
p206
atRp207
sg37
(lp208
sg120
g180
sg121
S'RWLSTKDLYSRLELTGLNQNVHAMFVMPLGFGNPMGDMFARLNNSFWLVPLSLEGAGTGWTVYFPLAHSGPAVDLAFHLSSSLLGAINFTNMRGPLFWTALLLLSLPVLAGTGIDRNFNTFEGGDALYHLFWFFGHPEVYIIPGFGSHSAISKFGMYASIGLGFVWSHHMFVGLDDRAYFTSATMIAPTSIKFSWLSTYGGRTALAFIFLFTGGTGVLNSADPFHDSYYVVHFHYVLSMGAFSIGWYLWPGLYNLFWFNFPMHFLGGMPRRNYPDAGWNSGSAYQLGPSGTNEPH'
p209
sg123
F0.016299999999999999
sg124
g125
sg33
S'189'
p210
sg127
g1
(g128
g12
(dp211
g130
I4
sg131
g132
sg133
g134
sg135
g132
sg136
I01
sg34
g137
sg138
g134
sg139
I0
sg140
I0
sg141
I0
sg142
g134
sg35
g143
sg144
I0
stRp212
sg146
g147
sg148
F1
sg149
Nsg30
S'CgallA'
p213
sbag1
(g2
g3
NtRp214
(dp215
g6
g1
(g7
g3
NtRp216
(dp217
g10
g1
(g11
g12
(dtRp218
sg14
g1
(g11
g12
(dtRp219
sg16
g1
(g11
g12
(dtRp220
sg18
g1
(g11
g12
(dtRp221
sg20
g1
(g11
g12
(dtRp222
sg22
g1
(g11
g12
(dtRp223
sbsg24
S'Cde'
p224
sg26
g27
((lp225
g29
ag30
aS'sequence'
p226
ag32
ag33
aS'species'
p227
atRp228
sg37
(lp229
sg120
g180
sg121
S'RWLSTKDLYSRLELTGLNQNVHAMFVMPLGFGNPMGDMFARLNNSFWLVPLSLEGAGTGWTVYFPLAHSGPAVDLAFHLSSSLLGAINFTNMRGPLFWTALLLLSLPVLAGTGIDRNFNTFEGGDALYHLFFFNGHPEVYIIPGFGSHSAISKFGMYASIGLGFVWSHHMFVGLDDRAYFTSATMIAPTSIKFSWLATYGGRTALAFIFLFTGGTGVLNSADPFHDSYYVVHFHYVLSMGAFSIGWYLWPGLYNLFWFNFPMHFLGGMPRRNYPDAGWNSGSAYQLGPSGTNEPH'
p230
sg123
F0.018610000000000002
sg124
g125
sg33
S'191'
p231
sg127
g1
(g128
g12
(dp232
g130
I4
sg131
g132
sg133
g134
sg135
g132
sg136
I01
sg34
g137
sg138
g134
sg139
I0
sg140
I0
sg141
I0
sg142
g134
sg35
g143
sg144
I0
stRp233
sg146
g147
sg148
F1
sg149
Nsg30
S'CdefoA'
p234
sbasg120
g78
sg123
F0.00282
sg124
g125
sg33
S'182'
p235
sg127
g1
(g128
g12
(dp236
g130
I6
sg131
g132
sg133
g134
sg135
g132
sg136
I01
sg34
g176
sg138
g134
sg139
I0
sg140
I0
sg141
I0
sg142
g134
sg35
g177
sg144
I0
stRp237
sg146
g147
sg148
F0.96999999999999997
sg149
Nsg30
S'NoName'
p238
sbasg120
g65
sg123
F0.00479
sg124
g125
sg33
S'178'
p239
sg127
g1
(g128
g12
(dp240
g130
I6
sg131
g132
sg133
g134
sg135
g132
sg136
I01
sg34
g176
sg138
g134
sg139
I0
sg140
I0
sg141
I0
sg142
g134
sg35
g177
sg144
I0
stRp241
sg146
g147
sg148
F0.80000000000000004
sg149
Nsg30
S'NoName'
p242
sbag1
(g2
g3
NtRp243
(dp244
g6
g1
(g7
g3
NtRp245
(dp246
g10
g1
(g11
g12
(dtRp247
sg14
g1
(g11
g12
(dtRp248
sg16
g1
(g11
g12
(dtRp249
sg18
g1
(g11
g12
(dtRp250
sg20
g1
(g11
g12
(dtRp251
sg22
g1
(g11
g12
(dtRp252
sbsg24
S'Cal'
p253
sg26
g27
((lp254
g29
ag30
aS'sequence'
p255
ag32
ag33
aS'species'
p256
atRp257
sg37
(lp258
sg120
g65
sg121
S'RWLSTKDLYSRLELTGLNQNVHAMFVMPLGFGNPMGDMFARLNNSFWLVPMSLEGAGTGWTVYFPLAHSGPAVDLAFHLASSLLGAINFTNMRGPLFWTALLLLSLPVLAGTGIDRNFNTFEGGDALYHLFWFFGHPEVYIIPGFGSHSAISKFGMYASIGLGFVWSHHMFVGLDDRAYFTSATMIAPTSIKFSWLATYGGRTALAFIFLFTGGTGVLNSADPFHDSYYVVHFHYVLSMGAFSIGWYLWPGLYNLFWFNFPMHFLGGMPRRNYPDAGWNSGSAYQLGPSGTNEPH'
p259
sg123
F0.035970000000000002
sg124
g125
sg33
S'193'
p260
sg127
g1
(g128
g12
(dp261
g130
I4
sg131
g132
sg133
g134
sg135
g132
sg136
I01
sg34
g137
sg138
g134
sg139
I0
sg140
I0
sg141
I0
sg142
g134
sg35
g143
sg144
I0
stRp262
sg146
g147
sg148
F1
sg149
Nsg30
S'CalimA'
p263
sbasg120
g52
sg123
F1.1444799999999999
sg124
g125
sg33
S'176'
p264
sg127
g1
(g128
g12
(dp265
g130
I6
sg131
g132
sg133
g134
sg135
g132
sg136
I01
sg34
g176
sg138
g134
sg139
I0
sg140
I0
sg141
I0
sg142
g134
sg35
g177
sg144
I0
stRp266
sg146
g147
sg148
F0.97999999999999998
sg149
Nsg30
S'NoName'
p267
sbag1
(g2
g3
NtRp268
(dp269
g6
g1
(g7
g3
NtRp270
(dp271
g10
g1
(g11
g12
(dtRp272
sg14
g1
(g11
g12
(dtRp273
sg16
g1
(g11
g12
(dtRp274
sg18
g1
(g11
g12
(dtRp275
sg20
g1
(g11
g12
(dtRp276
sg22
g1
(g11
g12
(dtRp277
sbsg24
g25
sg26
g27
((lp278
g33
ag32
ag29
ag30
atRp279
sg37
(lp280
g1
(g2
g3
NtRp281
(dp282
g6
g1
(g7
g3
NtRp283
(dp284
g10
g1
(g11
g12
(dtRp285
sg14
g1
(g11
g12
(dtRp286
sg16
g1
(g11
g12
(dtRp287
sg18
g1
(g11
g12
(dtRp288
sg20
g1
(g11
g12
(dtRp289
sg22
g1
(g11
g12
(dtRp290
sbsg24
g25
sg26
g27
((lp291
g33
ag32
ag29
ag30
atRp292
sg37
(lp293
g1
(g2
g3
NtRp294
(dp295
g6
g1
(g7
g3
NtRp296
(dp297
g10
g1
(g11
g12
(dtRp298
sg14
g1
(g11
g12
(dtRp299
sg16
g1
(g11
g12
(dtRp300
sg18
g1
(g11
g12
(dtRp301
sg20
g1
(g11
g12
(dtRp302
sg22
g1
(g11
g12
(dtRp303
sbsg24
g25
sg26
g27
((lp304
g33
ag32
ag29
ag30
atRp305
sg37
(lp306
g1
(g2
g3
NtRp307
(dp308
g6
g1
(g7
g3
NtRp309
(dp310
g10
g1
(g11
g12
(dtRp311
sg14
g1
(g11
g12
(dtRp312
sg16
g1
(g11
g12
(dtRp313
sg18
g1
(g11
g12
(dtRp314
sg20
g1
(g11
g12
(dtRp315
sg22
g1
(g11
g12
(dtRp316
sbsg24
g25
sg26
g27
((lp317
g33
ag32
ag29
ag30
atRp318
sg37
(lp319
g1
(g2
g3
NtRp320
(dp321
g6
g1
(g7
g3
NtRp322
(dp323
g10
g1
(g11
g12
(dtRp324
sg14
g1
(g11
g12
(dtRp325
sg16
g1
(g11
g12
(dtRp326
sg18
g1
(g11
g12
(dtRp327
sg20
g1
(g11
g12
(dtRp328
sg22
g1
(g11
g12
(dtRp329
sbsg24
S'Mst'
p330
sg26
g27
((lp331
g29
ag30
aS'sequence'
p332
ag32
ag33
aS'species'
p333
atRp334
sg37
(lp335
sg120
g307
sg121
S'RWLSTKDLYSRLELPTLNQNVHAMFVMPSGFGNPMGDMLARLNNSFWLVPVSLEGAGTGWTVYPPLSHSGASVDLVFHMSSSLLGAINFTNMRGTLFWTALLLLSLPVLSGTLLDRNFNTFEGGDPLYHLFWFFGHPEVYIIPGFGSHSTYKKFGMYASMGLGFVWSHHMYVGLDDRAYFTSATMMAPTGVKFSWLATYGGRPFLAFMFLFTGGTGVLNASDAFHDTYYVVHFHYVLSLGAFSLGYYFWPGLYNLFMFNFPLHFLGGMPRRPYPDAGWNSGSSYQLGPDESNEPH'
p336
sg123
F0.087190000000000004
sg124
g125
sg33
S'200'
p337
sg127
g1
(g128
g12
(dp338
g130
I4
sg131
g132
sg133
g134
sg135
g132
sg136
I01
sg34
g137
sg138
g134
sg139
I0
sg140
I0
sg141
I0
sg142
g134
sg35
g143
sg144
I0
stRp339
sg146
g147
sg148
F1
sg149
Nsg30
S'MstarA'
p340
sbag1
(g2
g3
NtRp341
(dp342
g6
g1
(g7
g3
NtRp343
(dp344
g10
g1
(g11
g12
(dtRp345
sg14
g1
(g11
g12
(dtRp346
sg16
g1
(g11
g12
(dtRp347
sg18
g1
(g11
g12
(dtRp348
sg20
g1
(g11
g12
(dtRp349
sg22
g1
(g11
g12
(dtRp350
sbsg24
S'Min'
p351
sg26
g27
((lp352
g29
ag30
aS'sequence'
p353
ag32
ag33
aS'species'
p354
atRp355
sg37
(lp356
sg120
g307
sg121
S'RWLSTKDLYSRLELPTLNQNVHAMFVMPAGFGNPMGDMLARLNNSFWLVPVSLEGAGTGWTVYPPLSHSGPSVDLVFHISSSLLGSMNFTNMRGTLFWTSLLLLSLPVLSGTLLDRNFNTFEGGDPLYHLFYKMMLFSMYMMPGFGSHSAYKKFGMYASIGLGFVWSHHMYVGLDDRAYFTSATMIAPTGVKFSWLATYGGRPFLAFMFLFTGGTGVLNASDAFHDTYYVVHFHYVLSLGAFSLGYYFWPGLYNLFTFNFPLHFLGGMPRRPYPDAGWNSGSSYQLGPDESNEPH'
p357
sg123
F0.040719999999999999
sg124
g125
sg33
S'202'
p358
sg127
g1
(g128
g12
(dp359
g130
I4
sg131
g132
sg133
g134
sg135
g132
sg136
I01
sg34
g137
sg138
g134
sg139
I0
sg140
I0
sg141
I0
sg142
g134
sg35
g143
sg144
I0
stRp360
sg146
g147
sg148
F1
sg149
Nsg30
S'MingeA'
p361
sbasg120
g294
sg123
F0.037420000000000002
sg124
g125
sg33
S'197'
p362
sg127
g1
(g128
g12
(dp363
g130
I6
sg131
g132
sg133
g134
sg135
g132
sg136
I01
sg34
g176
sg138
g134
sg139
I0
sg140
I0
sg141
I0
sg142
g134
sg35
g177
sg144
I0
stRp364
sg146
g147
sg148
F0.98999999999999999
sg149
Nsg30
S'NoName'
p365
sbag1
(g2
g3
NtRp366
(dp367
g6
g1
(g7
g3
NtRp368
(dp369
g10
g1
(g11
g12
(dtRp370
sg14
g1
(g11
g12
(dtRp371
sg16
g1
(g11
g12
(dtRp372
sg18
g1
(g11
g12
(dtRp373
sg20
g1
(g11
g12
(dtRp374
sg22
g1
(g11
g12
(dtRp375
sbsg24
g25
sg26
g27
((lp376
g33
ag32
ag29
ag30
atRp377
sg37
(lp378
g1
(g2
g3
NtRp379
(dp380
g6
g1
(g7
g3
NtRp381
(dp382
g10
g1
(g11
g12
(dtRp383
sg14
g1
(g11
g12
(dtRp384
sg16
g1
(g11
g12
(dtRp385
sg18
g1
(g11
g12
(dtRp386
sg20
g1
(g11
g12
(dtRp387
sg22
g1
(g11
g12
(dtRp388
sbsg24
g25
sg26
g27
((lp389
g33
ag32
ag29
ag30
atRp390
sg37
(lp391
g1
(g2
g3
NtRp392
(dp393
g6
g1
(g7
g3
NtRp394
(dp395
g10
g1
(g11
g12
(dtRp396
sg14
g1
(g11
g12
(dtRp397
sg16
g1
(g11
g12
(dtRp398
sg18
g1
(g11
g12
(dtRp399
sg20
g1
(g11
g12
(dtRp400
sg22
g1
(g11
g12
(dtRp401
sbsg24
S'Mte'
p402
sg26
g27
((lp403
g29
ag30
aS'sequence'
p404
ag32
ag33
aS'species'
p405
atRp406
sg37
(lp407
sg120
g379
sg121
S'RWLSTKDLYSRLELPTLNQNVHAMFVMPAGFGNPMGDMLARLNNSFWLVPLSLEGAGTGWTVYPPLSHSGPSVDMVFHISSSLLGAINFTNMRGTLFWTALLLLSLPVLSGTLLDRNFNTFEGGDPLYHLFWFFGHPEVYIIPGFGSHSAYKKFGMYASIGLGFVWSHHMYVGLDDRAYFTSATMIAPTGVKFSWLATYGGRPFLAFIFLFTGGTGVLNASDAFHDTYYVVHFHYVLSLGAFSLGYYFWPGLYNLFYFNFPMHALGGMPRRPYPDAGWNSGSSYQLGPDESNEPH'
p408
sg123
F0.042599999999999999
sg124
g125
sg33
S'207'
p409
sg127
g1
(g128
g12
(dp410
g130
I4
sg131
g132
sg133
g134
sg135
g132
sg136
I01
sg34
g137
sg138
g134
sg139
I0
sg140
I0
sg141
I0
sg142
g134
sg35
g143
sg144
I0
stRp411
sg146
g147
sg148
F1
sg149
Nsg30
S'MtetrA'
p412
sbag1
(g2
g3
NtRp413
(dp414
g6
g1
(g7
g3
NtRp415
(dp416
g10
g1
(g11
g12
(dtRp417
sg14
g1
(g11
g12
(dtRp418
sg16
g1
(g11
g12
(dtRp419
sg18
g1
(g11
g12
(dtRp420
sg20
g1
(g11
g12
(dtRp421
sg22
g1
(g11
g12
(dtRp422
sbsg24
g25
sg26
g27
((lp423
g33
ag32
ag29
ag30
atRp424
sg37
(lp425
g1
(g2
g3
NtRp426
(dp427
g6
g1
(g7
g3
NtRp428
(dp429
g10
g1
(g11
g12
(dtRp430
sg14
g1
(g11
g12
(dtRp431
sg16
g1
(g11
g12
(dtRp432
sg18
g1
(g11
g12
(dtRp433
sg20
g1
(g11
g12
(dtRp434
sg22
g1
(g11
g12
(dtRp435
sbsg24
S'Mma'
p436
sg26
g27
((lp437
g29
ag30
aS'sequence'
p438
ag32
ag33
aS'species'
p439
atRp440
sg37
(lp441
sg120
g413
sg121
S'RWLSTKDLYSRLELPTLNQNVHAMFVMPAGFGNPMGDMLARLNNSFWLVPLSLEGPGTGWTVYPPLSHSGPSVDMVFHISSSLLGAINFTNMRGTLFWTALLLLSLPVLSGTLLDRNFNTFEGGDPLYHLFWFFGHPEVYIIPGFGSHSAYKKFGMYASIGLGFVWSHHMYVGLDDRAYFTSATMIAPTGVKFSWLATYGGRPFLAFIFLFTGGTGVLNASDAFHDSYYVVHFHYVLSLGAFSLGYYFWPGLYNLFFFNFPMHALGGMPRRPYPDAGWNSGSSYQLGPDESNEPH'
p442
sg123
F0.00055000000000000003
sg124
g125
sg33
S'210'
p443
sg127
g1
(g128
g12
(dp444
g130
I4
sg131
g132
sg133
g134
sg135
g132
sg136
I01
sg34
g137
sg138
g134
sg139
I0
sg140
I0
sg141
I0
sg142
g134
sg35
g143
sg144
I0
stRp445
sg146
g147
sg148
F1
sg149
Nsg30
S'MmagnB'
p446
sbag1
(g2
g3
NtRp447
(dp448
g6
g1
(g7
g3
NtRp449
(dp450
g10
g1
(g11
g12
(dtRp451
sg14
g1
(g11
g12
(dtRp452
sg16
g1
(g11
g12
(dtRp453
sg18
g1
(g11
g12
(dtRp454
sg20
g1
(g11
g12
(dtRp455
sg22
g1
(g11
g12
(dtRp456
sbsg24
S'Mma'
p457
sg26
g27
((lp458
g29
ag30
aS'sequence'
p459
ag32
ag33
aS'species'
p460
atRp461
sg37
(lp462
sg120
g413
sg121
S'RWLSTKDLYSRLELPTLNQNVHAMFVMPAGFGNPMGDMLARLNNSFWLVPLSLEGPGTGWTVYPPLSHSGPSVDMVFHISSSLLGAINFTNMRGTLFWTALLLLSLPVLSGTLLDRNFNTFEGGDPLYHLFWFFGHPEVYIIPGFGSHSAYKKFGMYASIGLGFVWSHHMYVGLDDRAYFTSATMIAPTGVKFSWLATYGGRPFLAFIFLFTGGTGVLNASDAFHDSYYVVHFHYVLSLGAFSLGYYFWPGLYNLFFFNFPMHALGGMPRRPYPDAGWNSGSSYQLGPDESNEPH'
p463
sg123
F0.00088000000000000003
sg124
g125
sg33
S'212'
p464
sg127
g1
(g128
g12
(dp465
g130
I4
sg131
g132
sg133
g134
sg135
g132
sg136
I01
sg34
g137
sg138
g134
sg139
I0
sg140
I0
sg141
I0
sg142
g134
sg35
g143
sg144
I0
stRp466
sg146
g147
sg148
F1
sg149
Nsg30
S'MmagnA'
p467
sbasg120
g379
sg123
F0.011140000000000001
sg124
g125
sg33
S'206'
p468
sg127
g1
(g128
g12
(dp469
g130
I6
sg131
g132
sg133
g134
sg135
g132
sg136
I01
sg34
g176
sg138
g134
sg139
I0
sg140
I0
sg141
I0
sg142
g134
sg35
g177
sg144
I0
stRp470
sg146
g147
sg148
F0.98999999999999999
sg149
Nsg30
S'NoName'
p471
sbasg120
g366
sg123
F0.11189
sg124
g125
sg33
S'204'
p472
sg127
g1
(g128
g12
(dp473
g130
I6
sg131
g132
sg133
g134
sg135
g132
sg136
I01
sg34
g176
sg138
g134
sg139
I0
sg140
I0
sg141
I0
sg142
g134
sg35
g177
sg144
I0
stRp474
sg146
g147
sg148
F0.98999999999999999
sg149
Nsg30
S'NoName'
p475
sbag1
(g2
g3
NtRp476
(dp477
g6
g1
(g7
g3
NtRp478
(dp479
g10
g1
(g11
g12
(dtRp480
sg14
g1
(g11
g12
(dtRp481
sg16
g1
(g11
g12
(dtRp482
sg18
g1
(g11
g12
(dtRp483
sg20
g1
(g11
g12
(dtRp484
sg22
g1
(g11
g12
(dtRp485
sbsg24
g25
sg26
g27
((lp486
g33
ag32
ag29
ag30
atRp487
sg37
(lp488
g1
(g2
g3
NtRp489
(dp490
g6
g1
(g7
g3
NtRp491
(dp492
g10
g1
(g11
g12
(dtRp493
sg14
g1
(g11
g12
(dtRp494
sg16
g1
(g11
g12
(dtRp495
sg18
g1
(g11
g12
(dtRp496
sg20
g1
(g11
g12
(dtRp497
sg22
g1
(g11
g12
(dtRp498
sbsg24
S'Scl'
p499
sg26
g27
((lp500
g29
ag30
aS'sequence'
p501
ag32
ag33
aS'species'
p502
atRp503
sg37
(lp504
sg120
g476
sg121
S'RWLSTKDLYSRLELPTLNQNVHAMFVMPAGFGNPMGDMLARLNNSFWLVPLSLEGPGTGWTVYPPLSHSGPSVDMVFHMSSSLLGAINFTNMRGTLFWTALLLLSLPVLAGTLLDRNFNTFEGGDPLYHLFWFFGHPEVYMIPGFGSHSTYKKFGMYASMGLGFVWSHHMYVGLDDRAYFTAATMIAPTGVKFSWLATYGGRPFLTFMFLFTGGTGVLNASDAFHDTYYVVHFHYVLSLGAFSLGYYFWPGLYNLFMFNFPLHFLGGMPRRPYPDAGWNSGSSYQLGPDESNEPH'
p505
sg123
F0.020899999999999998
sg124
g125
sg33
S'216'
p506
sg127
g1
(g128
g12
(dp507
g130
I4
sg131
g132
sg133
g134
sg135
g132
sg136
I01
sg34
g137
sg138
g134
sg139
I0
sg140
I0
sg141
I0
sg142
g134
sg35
g143
sg144
I0
stRp508
sg146
g147
sg148
F1
sg149
Nsg30
S'SclavA'
p509
sbag1
(g2
g3
NtRp510
(dp511
g6
g1
(g7
g3
NtRp512
(dp513
g10
g1
(g11
g12
(dtRp514
sg14
g1
(g11
g12
(dtRp515
sg16
g1
(g11
g12
(dtRp516
sg18
g1
(g11
g12
(dtRp517
sg20
g1
(g11
g12
(dtRp518
sg22
g1
(g11
g12
(dtRp519
sbsg24
S'Msp'
p520
sg26
g27
((lp521
g29
ag30
aS'sequence'
p522
ag32
ag33
aS'species'
p523
atRp524
sg37
(lp525
sg120
g476
sg121
S'RWLSTKDLYSRLELPTLNQNVHAMFVMPAGFGNPMGDMLARLNNSFWLVPLSLEGPGTGWTVYPPLSHSGPSVDMVFHMSSSLLGAMNFTNMRGTLFWTALLLLSLPVLAGTLLDRNFNTFEGGDPLYHLFWFFGHPEVYMIPGFGSHSTYKKFGMYASMGLGFVWSHHMYVGLDDRAYFTAATMIAPTGVKFSWLATYGGRPFLTFMFLFTGGTGVLNASDAFHDTYYVVHFHYVLSLGAFSLGYYFWPGLYNLFMFNFPLHFLGGMPRRPYPDAGWNSGSSYQLGPDESNEPH'
p526
sg123
F0.13538
sg124
g125
sg33
S'218'
p527
sg127
g1
(g128
g12
(dp528
g130
I4
sg131
g132
sg133
g134
sg135
g132
sg136
I01
sg34
g137
sg138
g134
sg139
I0
sg140
I0
sg141
I0
sg142
g134
sg35
g143
sg144
I0
stRp529
sg146
g147
sg148
F1
sg149
Nsg30
S'MspicA'
p530
sbasg120
g366
sg123
F0.10536
sg124
g125
sg33
S'209'
p531
sg127
g1
(g128
g12
(dp532
g130
I6
sg131
g132
sg133
g134
sg135
g132
sg136
I01
sg34
g176
sg138
g134
sg139
I0
sg140
I0
sg141
I0
sg142
g134
sg35
g177
sg144
I0
stRp533
sg146
g147
sg148
F0.98999999999999999
sg149
Nsg30
S'NoName'
p534
sbasg120
g294
sg123
F0.03209
sg124
g125
sg33
S'199'
p535
sg127
g1
(g128
g12
(dp536
g130
I6
sg131
g132
sg133
g134
sg135
g132
sg136
I01
sg34
g176
sg138
g134
sg139
I0
sg140
I0
sg141
I0
sg142
g134
sg35
g177
sg144
I0
stRp537
sg146
g147
sg148
F0.98999999999999999
sg149
Nsg30
S'NoName'
p538
sbasg120
g281
sg123
F0.32869999999999999
sg124
g125
sg33
S'196'
p539
sg127
g1
(g128
g12
(dp540
g130
I6
sg131
g132
sg133
g134
sg135
g132
sg136
I01
sg34
g176
sg138
g134
sg139
I0
sg140
I0
sg141
I0
sg142
g134
sg35
g177
sg144
I0
stRp541
sg146
g147
sg148
F0.98999999999999999
sg149
Nsg30
S'NoName'
p542
sbag1
(g2
g3
NtRp543
(dp544
g6
g1
(g7
g3
NtRp545
(dp546
g10
g1
(g11
g12
(dtRp547
sg14
g1
(g11
g12
(dtRp548
sg16
g1
(g11
g12
(dtRp549
sg18
g1
(g11
g12
(dtRp550
sg20
g1
(g11
g12
(dtRp551
sg22
g1
(g11
g12
(dtRp552
sbsg24
g25
sg26
g27
((lp553
g33
ag32
ag29
ag30
atRp554
sg37
(lp555
g1
(g2
g3
NtRp556
(dp557
g6
g1
(g7
g3
NtRp558
(dp559
g10
g1
(g11
g12
(dtRp560
sg14
g1
(g11
g12
(dtRp561
sg16
g1
(g11
g12
(dtRp562
sg18
g1
(g11
g12
(dtRp563
sg20
g1
(g11
g12
(dtRp564
sg22
g1
(g11
g12
(dtRp565
sbsg24
g25
sg26
g27
((lp566
g33
ag32
ag29
ag30
atRp567
sg37
(lp568
g1
(g2
g3
NtRp569
(dp570
g6
g1
(g7
g3
NtRp571
(dp572
g10
g1
(g11
g12
(dtRp573
sg14
g1
(g11
g12
(dtRp574
sg16
g1
(g11
g12
(dtRp575
sg18
g1
(g11
g12
(dtRp576
sg20
g1
(g11
g12
(dtRp577
sg22
g1
(g11
g12
(dtRp578
sbsg24
S'Cze'
p579
sg26
g27
((lp580
g29
ag30
aS'sequence'
p581
ag32
ag33
aS'species'
p582
atRp583
sg37
(lp584
sg120
g556
sg121
S'SWLSTQNLYSRIELPNLNQNVHAMFVMPTGLANPQGDTFPRMNNAFVLLPMSLDGPGSGWTLYPPLTHSGSSMDMAFHLSSSIFGAINLTNMRGPLFWTALMMLALPVLAGTLLDRNFNTFVGGDPLYHIFWFFGHPEVYIIPVFGSQQVYKKFGMYASIGLGFVWSHHMFVGLDDRAYFSGASLIAPTGSKFSWLATYGGRPLLAFMVLFTGGTGVMNSSDMFHDTYYVVHFHYVLSLGVFGVAYYFWPGLYNLFWFNFPLHFLGGLPRRPYPDAGWNSGSSYQFGPDESNEPH'
p585
sg123
F1.5682799999999999
sg124
g125
sg33
S'1'
sg127
g1
(g128
g12
(dp586
g130
I4
sg131
g132
sg133
g134
sg135
g132
sg136
I01
sg34
g137
sg138
g134
sg139
I0
sg140
I0
sg141
I0
sg142
g134
sg35
g143
sg144
I0
stRp587
sg146
g147
sg148
F1
sg149
Nsg30
S'CzempA'
p588
sbag1
(g2
g3
NtRp589
(dp590
g6
g1
(g7
g3
NtRp591
(dp592
g10
g1
(g11
g12
(dtRp593
sg14
g1
(g11
g12
(dtRp594
sg16
g1
(g11
g12
(dtRp595
sg18
g1
(g11
g12
(dtRp596
sg20
g1
(g11
g12
(dtRp597
sg22
g1
(g11
g12
(dtRp598
sbsg24
g25
sg26
g27
((lp599
g33
ag32
ag29
ag30
atRp600
sg37
(lp601
g1
(g2
g3
NtRp602
(dp603
g6
g1
(g7
g3
NtRp604
(dp605
g10
g1
(g11
g12
(dtRp606
sg14
g1
(g11
g12
(dtRp607
sg16
g1
(g11
g12
(dtRp608
sg18
g1
(g11
g12
(dtRp609
sg20
g1
(g11
g12
(dtRp610
sg22
g1
(g11
g12
(dtRp611
sbsg24
S'Csa'
p612
sg26
g27
((lp613
g29
ag30
aS'sequence'
p614
ag32
ag33
aS'species'
p615
atRp616
sg37
(lp617
sg120
g589
sg121
S'----------RLELPNLNQNVHAMFVMPSGFGNPMGDMLARLNNSFWLVPLSLDGPGTGWTMYPPLSHSGASVDLVFHISSSLLGAMNFTNMRGTLFWTALLLLSLPVLSGTLLDRNFNTFEGGDMLYHMFWFFGHPEVYMMPGFGSQSVYKKFGMYASMGLGFVWSHHMFVGLDDRAYFTAATLMAPTGVKFSWLASYGGRPLLAFMFLFTGGTGVLNASDAFHDTYYVVHFHYVLSLGAFSLGYYFWPGLYNLFWFNFPQHFLGAMPRRPYPDAGWNSGSSYQMGPDFSNEPH'
p618
sg123
F0.65920000000000001
sg124
g125
sg33
S'3'
sg127
g1
(g128
g12
(dp619
g130
I4
sg131
g132
sg133
g134
sg135
g132
sg136
I01
sg34
g137
sg138
g134
sg139
I0
sg140
I0
sg141
I0
sg142
g134
sg35
g143
sg144
I0
stRp620
sg146
g147
sg148
F1
sg149
Nsg30
S'CsantA'
p621
sbag1
(g2
g3
NtRp622
(dp623
g6
g1
(g7
g3
NtRp624
(dp625
g10
g1
(g11
g12
(dtRp626
sg14
g1
(g11
g12
(dtRp627
sg16
g1
(g11
g12
(dtRp628
sg18
g1
(g11
g12
(dtRp629
sg20
g1
(g11
g12
(dtRp630
sg22
g1
(g11
g12
(dtRp631
sbsg24
S'Csa'
p632
sg26
g27
((lp633
g29
ag30
aS'sequence'
p634
ag32
ag33
aS'species'
p635
atRp636
sg37
(lp637
sg120
g589
sg121
S'RWLSTKDLYSRLELPAMSQNVHAMFVMPSGFANPMGDTLPRVNNAAILMPMSLEGPGTGWTVYPPLSHSGVSVDLVFHISSSLAGAMNLTNMRGPLFWTALLLLSLPVLAGTLIDRNFNTFDGGDVLYHLFWFFGHPEVYIIPGFGSESRYNKFGMYASIGLGFVWSHHMYVGLDDRSYFTAATLIAPTGVKFSWMATFGGRPFLTFLALFTGGTGVLNASDAFHDTYYVVHFHYVLSLGAFSMGYYYWPGLYNLFWFNFPQHFLGGQPRRSYPDAGWNSGSSYQLGPDESNEPH'
p638
sg123
F1.3581099999999999
sg124
g125
sg33
S'5'
sg127
g1
(g128
g12
(dp639
g130
I4
sg131
g132
sg133
g134
sg135
g132
sg136
I01
sg34
g137
sg138
g134
sg139
I0
sg140
I0
sg141
I0
sg142
g134
sg35
g143
sg144
I0
stRp640
sg146
g147
sg148
F1
sg149
Nsg30
S'CsalmA'
p641
sbasg120
g556
sg123
F0.19968
sg124
g125
sg33
S'223'
p642
sg127
g1
(g128
g12
(dp643
g130
I6
sg131
g132
sg133
g134
sg135
g132
sg136
I01
sg34
g176
sg138
g134
sg139
I0
sg140
I0
sg141
I0
sg142
g134
sg35
g177
sg144
I0
stRp644
sg146
g147
sg148
F0.97999999999999998
sg149
Nsg30
S'NoName'
p645
sbasg120
g543
sg123
F0.14363999999999999
sg124
g125
sg33
S'222'
p646
sg127
g1
(g128
g12
(dp647
g130
I6
sg131
g132
sg133
g134
sg135
g132
sg136
I01
sg34
g176
sg138
g134
sg139
I0
sg140
I0
sg141
I0
sg142
g134
sg35
g177
sg144
I0
stRp648
sg146
g147
sg148
F0.93000000000000005
sg149
Nsg30
S'NoName'
p649
sbag1
(g2
g3
NtRp650
(dp651
g6
g1
(g7
g3
NtRp652
(dp653
g10
g1
(g11
g12
(dtRp654
sg14
g1
(g11
g12
(dtRp655
sg16
g1
(g11
g12
(dtRp656
sg18
g1
(g11
g12
(dtRp657
sg20
g1
(g11
g12
(dtRp658
sg22
g1
(g11
g12
(dtRp659
sbsg24
S'Bar'
p660
sg26
g27
((lp661
g29
ag30
aS'sequence'
p662
ag32
ag33
aS'species'
p663
atRp664
sg37
(lp665
sg120
g543
sg121
S'RWLSTKDLYSRLELPNLNQNSHAMFVMPTGFGNPMGDMLSRLNNSFWLVPLSLEGPGTGWTVYPPLSHSGPSVDLVFHVSSSLLGAMNFTNMRGTLFWTVLLLLALPVLAGTLLDRNFNTFEGGDPLYHMFWFFGHPEVYIIPGFGSQAVYNKFGMYASIGLGFVWSHHMYVGMDDRAYFTAATLIAPTGVKFSWLASYGGRPLLTFIGLFTGGTGVLNAADAFHDSYYVVHFHYVLSLGAFSLGYYFWPGLYNLFWFNFPQHFLGSMPRRPYPDAGWNSGSSVQLGPDVNNEPH'
p666
sg123
F0.74575000000000002
sg124
g125
sg33
S'7'
sg127
g1
(g128
g12
(dp667
g130
I4
sg131
g132
sg133
g134
sg135
g132
sg136
I01
sg34
g137
sg138
g134
sg139
I0
sg140
I0
sg141
I0
sg142
g134
sg35
g143
sg144
I0
stRp668
sg146
g147
sg148
F1
sg149
Nsg30
S'BarxA'
p669
sbasg120
g281
sg123
F0.25233
sg124
g125
sg33
S'213'
p670
sg127
g1
(g128
g12
(dp671
g130
I6
sg131
g132
sg133
g134
sg135
g132
sg136
I01
sg34
g176
sg138
g134
sg139
I0
sg140
I0
sg141
I0
sg142
g134
sg35
g177
sg144
I0
stRp672
sg146
g147
sg148
F0.97999999999999998
sg149
Nsg30
S'NoName'
p673
sbasg120
g268
sg123
F0.42224
sg124
g125
sg33
S'194'
p674
sg127
g1
(g128
g12
(dp675
g130
I6
sg131
g132
sg133
g134
sg135
g132
sg136
I01
sg34
g176
sg138
g134
sg139
I0
sg140
I0
sg141
I0
sg142
g134
sg35
g177
sg144
I0
stRp676
sg146
g147
sg148
F0.97999999999999998
sg149
Nsg30
S'NoName'
p677
sbag1
(g2
g3
NtRp678
(dp679
g6
g1
(g7
g3
NtRp680
(dp681
g10
g1
(g11
g12
(dtRp682
sg14
g1
(g11
g12
(dtRp683
sg16
g1
(g11
g12
(dtRp684
sg18
g1
(g11
g12
(dtRp685
sg20
g1
(g11
g12
(dtRp686
sg22
g1
(g11
g12
(dtRp687
sbsg24
g25
sg26
g27
((lp688
g33
ag32
ag29
ag30
atRp689
sg37
(lp690
g1
(g2
g3
NtRp691
(dp692
g6
g1
(g7
g3
NtRp693
(dp694
g10
g1
(g11
g12
(dtRp695
sg14
g1
(g11
g12
(dtRp696
sg16
g1
(g11
g12
(dtRp697
sg18
g1
(g11
g12
(dtRp698
sg20
g1
(g11
g12
(dtRp699
sg22
g1
(g11
g12
(dtRp700
sbsg24
g25
sg26
g27
((lp701
g33
ag32
ag29
ag30
atRp702
sg37
(lp703
g1
(g2
g3
NtRp704
(dp705
g6
g1
(g7
g3
NtRp706
(dp707
g10
g1
(g11
g12
(dtRp708
sg14
g1
(g11
g12
(dtRp709
sg16
g1
(g11
g12
(dtRp710
sg18
g1
(g11
g12
(dtRp711
sg20
g1
(g11
g12
(dtRp712
sg22
g1
(g11
g12
(dtRp713
sbsg24
g25
sg26
g27
((lp714
g33
ag32
ag29
ag30
atRp715
sg37
(lp716
g1
(g2
g3
NtRp717
(dp718
g6
g1
(g7
g3
NtRp719
(dp720
g10
g1
(g11
g12
(dtRp721
sg14
g1
(g11
g12
(dtRp722
sg16
g1
(g11
g12
(dtRp723
sg18
g1
(g11
g12
(dtRp724
sg20
g1
(g11
g12
(dtRp725
sg22
g1
(g11
g12
(dtRp726
sbsg24
g25
sg26
g27
((lp727
g33
ag32
ag29
ag30
atRp728
sg37
(lp729
g1
(g2
g3
NtRp730
(dp731
g6
g1
(g7
g3
NtRp732
(dp733
g10
g1
(g11
g12
(dtRp734
sg14
g1
(g11
g12
(dtRp735
sg16
g1
(g11
g12
(dtRp736
sg18
g1
(g11
g12
(dtRp737
sg20
g1
(g11
g12
(dtRp738
sg22
g1
(g11
g12
(dtRp739
sbsg24
S'Mfa'
p740
sg26
g27
((lp741
g29
ag30
aS'sequence'
p742
ag32
ag33
aS'species'
p743
atRp744
sg37
(lp745
sg120
g717
sg121
S'RWLSTKDLYSRLELGNLNQNVHAMFVMPLGFGNPLGDMFARLNNSFWLPPLSLEGAGTGWTVYPPLSHSGPSVDLAFHLTSSLLGAINFTNMRGPLFWTALLLLSLPVLAGTLLDRNFNTFEGGDPLYHLFWFFGHPEVYIIPGFGSHSTYKKFGMYASIGLGFVWSHHMYVGLDDRAYFTSATMIAPTGIKFSWLATYGGRPMLAFLFLFTGGTGVLNASDAFHDTYFVVHFHYVLSMGAFSLAYYYWPGLYNLFWFNFPMHFLGGMPRRPYPDAGWNSGSSYQMGPDESNEPH'
p746
sg123
F0.14163999999999999
sg124
g125
sg33
S'15'
p747
sg127
g1
(g128
g12
(dp748
g130
I4
sg131
g132
sg133
g134
sg135
g132
sg136
I01
sg34
g137
sg138
g134
sg139
I0
sg140
I0
sg141
I0
sg142
g134
sg35
g143
sg144
I0
stRp749
sg146
g147
sg148
F1
sg149
Nsg30
S'MfariB'
p750
sbag1
(g2
g3
NtRp751
(dp752
g6
g1
(g7
g3
NtRp753
(dp754
g10
g1
(g11
g12
(dtRp755
sg14
g1
(g11
g12
(dtRp756
sg16
g1
(g11
g12
(dtRp757
sg18
g1
(g11
g12
(dtRp758
sg20
g1
(g11
g12
(dtRp759
sg22
g1
(g11
g12
(dtRp760
sbsg24
S'Csa'
p761
sg26
g27
((lp762
g29
ag30
aS'sequence'
p763
ag32
ag33
aS'species'
p764
atRp765
sg37
(lp766
sg120
g717
sg121
S'RWLSTKDLYSRLELGNFNQNVHAMFVMPLGFGNPLGDMFARLNNSFWLPPLSLEGAGTGWTVYPPLSHSGPSVDLAFHLTSSLLGAINFTNMRGPLFWTALLLLSLPVLAATLLDRNFNTFEGGDPLYHLFWFFGHPEVYIIPGFGSHSTYKKFGMYASMGLGFVWSHHMYVGLDDRAYFTSATMIAPTGMKFSWLATYGGRPMLAFLFLFTGGTGVLNASDAFHDTYYVVHFHYVLSMGAFSLAYYYWPGLYNWFWFNFPMHFLGGMPRRPYPDAGWNSGSSYQMGPDESNEPH'
p767
sg123
F0.069970000000000004
sg124
g125
sg33
S'17'
p768
sg127
g1
(g128
g12
(dp769
g130
I4
sg131
g132
sg133
g134
sg135
g132
sg136
I01
sg34
g137
sg138
g134
sg139
I0
sg140
I0
sg141
I0
sg142
g134
sg35
g143
sg144
I0
stRp770
sg146
g147
sg148
F1
sg149
Nsg30
S'CsakeA'
p771
sbasg120
g704
sg123
F0.048980000000000003
sg124
g125
sg33
S'12'
p772
sg127
g1
(g128
g12
(dp773
g130
I6
sg131
g132
sg133
g134
sg135
g132
sg136
I01
sg34
g176
sg138
g134
sg139
I0
sg140
I0
sg141
I0
sg142
g134
sg35
g177
sg144
I0
stRp774
sg146
g147
sg148
F0.98999999999999999
sg149
Nsg30
S'NoName'
p775
sbag1
(g2
g3
NtRp776
(dp777
g6
g1
(g7
g3
NtRp778
(dp779
g10
g1
(g11
g12
(dtRp780
sg14
g1
(g11
g12
(dtRp781
sg16
g1
(g11
g12
(dtRp782
sg18
g1
(g11
g12
(dtRp783
sg20
g1
(g11
g12
(dtRp784
sg22
g1
(g11
g12
(dtRp785
sbsg24
g25
sg26
g27
((lp786
g33
ag32
ag29
ag30
atRp787
sg37
(lp788
g1
(g2
g3
NtRp789
(dp790
g6
g1
(g7
g3
NtRp791
(dp792
g10
g1
(g11
g12
(dtRp793
sg14
g1
(g11
g12
(dtRp794
sg16
g1
(g11
g12
(dtRp795
sg18
g1
(g11
g12
(dtRp796
sg20
g1
(g11
g12
(dtRp797
sg22
g1
(g11
g12
(dtRp798
sbsg24
g25
sg26
g27
((lp799
g33
ag32
ag29
ag30
atRp800
sg37
(lp801
g1
(g2
g3
NtRp802
(dp803
g6
g1
(g7
g3
NtRp804
(dp805
g10
g1
(g11
g12
(dtRp806
sg14
g1
(g11
g12
(dtRp807
sg16
g1
(g11
g12
(dtRp808
sg18
g1
(g11
g12
(dtRp809
sg20
g1
(g11
g12
(dtRp810
sg22
g1
(g11
g12
(dtRp811
sbsg24
S'Mfa'
p812
sg26
g27
((lp813
g29
ag30
aS'sequence'
p814
ag32
ag33
aS'species'
p815
atRp816
sg37
(lp817
sg120
g789
sg121
S'RWLSTKDLYSRAELGNFNHNVHAMFVMPLGFGNPMGDMFARLNNSFWLPPLSLEGAGTGWTVYPPLSHSGPSVDLAFHLTSSLLGAMNFTNMRGPLFWTALLLLSLPVLAGTLLDRNFNTFEGGDPLYHLFWFFGHPEVYIIPGFGSHSTYKKFGMYASMGLGFVWSHHMYVGLDDRAYFTSATMMAPTGIKFSWLATYGGRPMLAFLFLFTGGTGVLNASDAFHDTYYMYHFHYVLSMGAFSLGYYYWPGLYNWFWFNFPMHFLGGMPRRPYPDAGWNSGSSKQLGPDESNEPH'
p818
sg123
F0.29086000000000001
sg124
g125
sg33
S'22'
p819
sg127
g1
(g128
g12
(dp820
g130
I4
sg131
g132
sg133
g134
sg135
g132
sg136
I01
sg34
g137
sg138
g134
sg139
I0
sg140
I0
sg141
I0
sg142
g134
sg35
g143
sg144
I0
stRp821
sg146
g147
sg148
F1
sg149
Nsg30
S'MfariA'
p822
sbag1
(g2
g3
NtRp823
(dp824
g6
g1
(g7
g3
NtRp825
(dp826
g10
g1
(g11
g12
(dtRp827
sg14
g1
(g11
g12
(dtRp828
sg16
g1
(g11
g12
(dtRp829
sg18
g1
(g11
g12
(dtRp830
sg20
g1
(g11
g12
(dtRp831
sg22
g1
(g11
g12
(dtRp832
sbsg24
S'Dha'
p833
sg26
g27
((lp834
g29
ag30
aS'sequence'
p835
ag32
ag33
aS'species'
p836
atRp837
sg37
(lp838
sg120
g789
sg121
S'RWLSTKDLYSRMELGNFNQNVHAMFIMPWGFGNPLGDMFARLNNSFWLPPLSLEGAGTGWTLYPPLSHSGPSVDLAFHLTSSLLGAMNFTNMRGPLFWTALLLLSLPVLAATLLDRNFNTFEGGDPLYHLFWFFGHPEVYIMPGFGSHSTYKKFGMYASIGLGFVWSHHMFVGLDDRAYFTSATMIAPTGIKFSWLATYGGRPMLAFLFLFTGGTGVLNASDAFHDTYYVVHFHYVLSMGAFSLAYYYWPGLYNLFWFNFPMHFLGGMPRRPYPDAGWNSGSSKQLGPDESNDPH'
p839
sg123
F0.11043
sg124
g125
sg33
S'23'
p840
sg127
g1
(g128
g12
(dp841
g130
I4
sg131
g132
sg133
g134
sg135
g132
sg136
I01
sg34
g137
sg138
g134
sg139
I0
sg140
I0
sg141
I0
sg142
g134
sg35
g143
sg144
I0
stRp842
sg146
g147
sg148
F1
sg149
Nsg30
S'DhansA'
p843
sbasg120
g776
sg123
F0.046699999999999998
sg124
g125
sg33
S'19'
p844
sg127
g1
(g128
g12
(dp845
g130
I6
sg131
g132
sg133
g134
sg135
g132
sg136
I01
sg34
g176
sg138
g134
sg139
I0
sg140
I0
sg141
I0
sg142
g134
sg35
g177
sg144
I0
stRp846
sg146
g147
sg148
F0.65000000000000002
sg149
Nsg30
S'NoName'
p847
sbag1
(g2
g3
NtRp848
(dp849
g6
g1
(g7
g3
NtRp850
(dp851
g10
g1
(g11
g12
(dtRp852
sg14
g1
(g11
g12
(dtRp853
sg16
g1
(g11
g12
(dtRp854
sg18
g1
(g11
g12
(dtRp855
sg20
g1
(g11
g12
(dtRp856
sg22
g1
(g11
g12
(dtRp857
sbsg24
g25
sg26
g27
((lp858
g33
ag32
ag29
ag30
atRp859
sg37
(lp860
g1
(g2
g3
NtRp861
(dp862
g6
g1
(g7
g3
NtRp863
(dp864
g10
g1
(g11
g12
(dtRp865
sg14
g1
(g11
g12
(dtRp866
sg16
g1
(g11
g12
(dtRp867
sg18
g1
(g11
g12
(dtRp868
sg20
g1
(g11
g12
(dtRp869
sg22
g1
(g11
g12
(dtRp870
sbsg24
S'Clu'
p871
sg26
g27
((lp872
g29
ag30
aS'sequence'
p873
ag32
ag33
aS'species'
p874
atRp875
sg37
(lp876
sg120
g848
sg121
S'RWLSTKDLYSRLELPDLNQNVHAMFVMPLGFGNPMGDMFARLNNSFWLPPLSLEGAGTGWTVYPPLSHSGPSVDLAFHLTSSLLGAINFTNMRGPLFWTALLLLSLPVLAGTLLDRNFNTFEGGDPLYHLFWFFGHPEVYMMPGFGSHSTYKKFGMYASMGLGFVWSHHMYVGLDDRAYFTSATMMAPTGMKFSWLATYGGRPMLAFLFLFTGGTGVLNASDAFHDTYYVVHFHYVLSMGAFSLGYYYWPGLYNWFWFNFPMHFLGGMPRRPYPDAGWNSGSSRQLGPDESNEPH'
p877
sg123
F0.037310000000000003
sg124
g125
sg33
S'27'
p878
sg127
g1
(g128
g12
(dp879
g130
I4
sg131
g132
sg133
g134
sg135
g132
sg136
I01
sg34
g137
sg138
g134
sg139
I0
sg140
I0
sg141
I0
sg142
g134
sg35
g143
sg144
I0
stRp880
sg146
g147
sg148
F1
sg149
Nsg30
S'ClusiA'
p881
sbag1
(g2
g3
NtRp882
(dp883
g6
g1
(g7
g3
NtRp884
(dp885
g10
g1
(g11
g12
(dtRp886
sg14
g1
(g11
g12
(dtRp887
sg16
g1
(g11
g12
(dtRp888
sg18
g1
(g11
g12
(dtRp889
sg20
g1
(g11
g12
(dtRp890
sg22
g1
(g11
g12
(dtRp891
sbsg24
g25
sg26
g27
((lp892
g33
ag32
ag29
ag30
atRp893
sg37
(lp894
g1
(g2
g3
NtRp895
(dp896
g6
g1
(g7
g3
NtRp897
(dp898
g10
g1
(g11
g12
(dtRp899
sg14
g1
(g11
g12
(dtRp900
sg16
g1
(g11
g12
(dtRp901
sg18
g1
(g11
g12
(dtRp902
sg20
g1
(g11
g12
(dtRp903
sg22
g1
(g11
g12
(dtRp904
sbsg24
S'Mgu'
p905
sg26
g27
((lp906
g29
ag30
aS'sequence'
p907
ag32
ag33
aS'species'
p908
atRp909
sg37
(lp910
sg120
g882
sg121
S'---------------------------------------------------------------------------------------------------------------------------------------------------------------------------------------------------------------------------------------HFHYVLSMGAFSLGYYYWPGLYNWFWFNFPMHFLGGMPRRPYPDAGWNSGSSKQLGPDESNEPH'
p911
sg123
F0.0044999999999999997
sg124
g125
sg33
S'31'
p912
sg127
g1
(g128
g12
(dp913
g130
I4
sg131
g132
sg133
g134
sg135
g132
sg136
I01
sg34
g137
sg138
g134
sg139
I0
sg140
I0
sg141
I0
sg142
g134
sg35
g143
sg144
I0
stRp914
sg146
g147
sg148
F1
sg149
Nsg30
S'MguilB'
p915
sbag1
(g2
g3
NtRp916
(dp917
g6
g1
(g7
g3
NtRp918
(dp919
g10
g1
(g11
g12
(dtRp920
sg14
g1
(g11
g12
(dtRp921
sg16
g1
(g11
g12
(dtRp922
sg18
g1
(g11
g12
(dtRp923
sg20
g1
(g11
g12
(dtRp924
sg22
g1
(g11
g12
(dtRp925
sbsg24
S'Mgu'
p926
sg26
g27
((lp927
g29
ag30
aS'sequence'
p928
ag32
ag33
aS'species'
p929
atRp930
sg37
(lp931
sg120
g882
sg121
S'RWLSTKDLYSRMELGNFNQNVHAMFVMPIGFGNPMGDMFARLNNSFWLPPLSLEGAGTGWTVYPPLSHSGPSVDMAFHLTSSLLGAMNFTNMRGPLFWTALLLLSLPVLAGTLLDRNFNTFEGGDPLYHLFWFFGHPEVYMMPGFGSHSTYKKFGMYASIGLGFVWSHHMYVGLDDRAYFTSATMMAPTGMKFSWLSTYGGRPMLAFLFLFTGGTGVLNASDAFHDTYYVVHFHYVLSMGAFSLGYYYWPGLYNWFWFNFPMHFLGGMPRRPYPDAGWNSGSSKQLGPDESNEPH'
p932
sg123
F0.0020100000000000001
sg124
g125
sg33
S'33'
p933
sg127
g1
(g128
g12
(dp934
g130
I4
sg131
g132
sg133
g134
sg135
g132
sg136
I01
sg34
g137
sg138
g134
sg139
I0
sg140
I0
sg141
I0
sg142
g134
sg35
g143
sg144
I0
stRp935
sg146
g147
sg148
F1
sg149
Nsg30
S'MguilA'
p936
sbasg120
g848
sg123
F0.25231999999999999
sg124
g125
sg33
S'26'
p937
sg127
g1
(g128
g12
(dp938
g130
I6
sg131
g132
sg133
g134
sg135
g132
sg136
I01
sg34
g176
sg138
g134
sg139
I0
sg140
I0
sg141
I0
sg142
g134
sg35
g177
sg144
I0
stRp939
sg146
g147
sg148
F0.98999999999999999
sg149
Nsg30
S'NoName'
p940
sbasg120
g776
sg123
F0.090679999999999997
sg124
g125
sg33
S'20'
p941
sg127
g1
(g128
g12
(dp942
g130
I6
sg131
g132
sg133
g134
sg135
g132
sg136
I01
sg34
g176
sg138
g134
sg139
I0
sg140
I0
sg141
I0
sg142
g134
sg35
g177
sg144
I0
stRp943
sg146
g147
sg148
F0.98999999999999999
sg149
Nsg30
S'NoName'
p944
sbasg120
g704
sg123
F0.032190000000000003
sg124
g125
sg33
S'13'
p945
sg127
g1
(g128
g12
(dp946
g130
I6
sg131
g132
sg133
g134
sg135
g132
sg136
I01
sg34
g176
sg138
g134
sg139
I0
sg140
I0
sg141
I0
sg142
g134
sg35
g177
sg144
I0
stRp947
sg146
g147
sg148
F0.64000000000000001
sg149
Nsg30
S'NoName'
p948
sbasg120
g691
sg123
F0.12181
sg124
g125
sg33
S'10'
p949
sg127
g1
(g128
g12
(dp950
g130
I6
sg131
g132
sg133
g134
sg135
g132
sg136
I01
sg34
g176
sg138
g134
sg139
I0
sg140
I0
sg141
I0
sg142
g134
sg35
g177
sg144
I0
stRp951
sg146
g147
sg148
F0.98999999999999999
sg149
Nsg30
S'NoName'
p952
sbag1
(g2
g3
NtRp953
(dp954
g6
g1
(g7
g3
NtRp955
(dp956
g10
g1
(g11
g12
(dtRp957
sg14
g1
(g11
g12
(dtRp958
sg16
g1
(g11
g12
(dtRp959
sg18
g1
(g11
g12
(dtRp960
sg20
g1
(g11
g12
(dtRp961
sg22
g1
(g11
g12
(dtRp962
sbsg24
g25
sg26
g27
((lp963
g33
ag32
ag29
ag30
atRp964
sg37
(lp965
g1
(g2
g3
NtRp966
(dp967
g6
g1
(g7
g3
NtRp968
(dp969
g10
g1
(g11
g12
(dtRp970
sg14
g1
(g11
g12
(dtRp971
sg16
g1
(g11
g12
(dtRp972
sg18
g1
(g11
g12
(dtRp973
sg20
g1
(g11
g12
(dtRp974
sg22
g1
(g11
g12
(dtRp975
sbsg24
g25
sg26
g27
((lp976
g33
ag32
ag29
ag30
atRp977
sg37
(lp978
g1
(g2
g3
NtRp979
(dp980
g6
g1
(g7
g3
NtRp981
(dp982
g10
g1
(g11
g12
(dtRp983
sg14
g1
(g11
g12
(dtRp984
sg16
g1
(g11
g12
(dtRp985
sg18
g1
(g11
g12
(dtRp986
sg20
g1
(g11
g12
(dtRp987
sg22
g1
(g11
g12
(dtRp988
sbsg24
S'Cbl'
p989
sg26
g27
((lp990
g29
ag30
aS'sequence'
p991
ag32
ag33
aS'species'
p992
atRp993
sg37
(lp994
sg120
g966
sg121
S'RWLSTKDLYSRLELANLNQNVHAMFVMPLGMGNPMGDMFARLNNSFWLPPLSLEGPGTGWTLYAPLSHSGPSVDMAFHLTSSLLGAINFTNMRGPLYWTALLLLSLPVLAATLLDRNFNTFEGGDPLYHLFWFFGHPEVYMIPGFGSHSTYKKFGMYASIGLGFVWSHHMYVGLDDRAYFTSATMIAPTGIKFSWMATYGGRPMLAFLFLFTGGTGVLNASDAFHDTYYVVHFHYVLSMGAFSLGYYYWPGLYNLFWFNFPMHFLGGMPRRPYPDAGWNSGSSYQLGPDESNEPH'
p995
sg123
F0.36785000000000001
sg124
g125
sg33
S'38'
p996
sg127
g1
(g128
g12
(dp997
g130
I4
sg131
g132
sg133
g134
sg135
g132
sg136
I01
sg34
g137
sg138
g134
sg139
I0
sg140
I0
sg141
I0
sg142
g134
sg35
g143
sg144
I0
stRp998
sg146
g147
sg148
F1
sg149
Nsg30
S'CblacA'
p999
sbag1
(g2
g3
NtRp1000
(dp1001
g6
g1
(g7
g3
NtRp1002
(dp1003
g10
g1
(g11
g12
(dtRp1004
sg14
g1
(g11
g12
(dtRp1005
sg16
g1
(g11
g12
(dtRp1006
sg18
g1
(g11
g12
(dtRp1007
sg20
g1
(g11
g12
(dtRp1008
sg22
g1
(g11
g12
(dtRp1009
sbsg24
g25
sg26
g27
((lp1010
g33
ag32
ag29
ag30
atRp1011
sg37
(lp1012
g1
(g2
g3
NtRp1013
(dp1014
g6
g1
(g7
g3
NtRp1015
(dp1016
g10
g1
(g11
g12
(dtRp1017
sg14
g1
(g11
g12
(dtRp1018
sg16
g1
(g11
g12
(dtRp1019
sg18
g1
(g11
g12
(dtRp1020
sg20
g1
(g11
g12
(dtRp1021
sg22
g1
(g11
g12
(dtRp1022
sbsg24
g25
sg26
g27
((lp1023
g33
ag32
ag29
ag30
atRp1024
sg37
(lp1025
g1
(g2
g3
NtRp1026
(dp1027
g6
g1
(g7
g3
NtRp1028
(dp1029
g10
g1
(g11
g12
(dtRp1030
sg14
g1
(g11
g12
(dtRp1031
sg16
g1
(g11
g12
(dtRp1032
sg18
g1
(g11
g12
(dtRp1033
sg20
g1
(g11
g12
(dtRp1034
sg22
g1
(g11
g12
(dtRp1035
sbsg24
g25
sg26
g27
((lp1036
g33
ag32
ag29
ag30
atRp1037
sg37
(lp1038
g1
(g2
g3
NtRp1039
(dp1040
g6
g1
(g7
g3
NtRp1041
(dp1042
g10
g1
(g11
g12
(dtRp1043
sg14
g1
(g11
g12
(dtRp1044
sg16
g1
(g11
g12
(dtRp1045
sg18
g1
(g11
g12
(dtRp1046
sg20
g1
(g11
g12
(dtRp1047
sg22
g1
(g11
g12
(dtRp1048
sbsg24
g25
sg26
g27
((lp1049
g33
ag32
ag29
ag30
atRp1050
sg37
(lp1051
g1
(g2
g3
NtRp1052
(dp1053
g6
g1
(g7
g3
NtRp1054
(dp1055
g10
g1
(g11
g12
(dtRp1056
sg14
g1
(g11
g12
(dtRp1057
sg16
g1
(g11
g12
(dtRp1058
sg18
g1
(g11
g12
(dtRp1059
sg20
g1
(g11
g12
(dtRp1060
sg22
g1
(g11
g12
(dtRp1061
sbsg24
S'Lel'
p1062
sg26
g27
((lp1063
g29
ag30
aS'sequence'
p1064
ag32
ag33
aS'species'
p1065
atRp1066
sg37
(lp1067
sg120
g1039
sg121
S'RWLSTKDLYSRLELPGLDQNVHAMFVMPLGFGNPMGDMFARLNNSFWLPPLSLEGAGTGWTVYPPLSHSGPSVDLAFHLTSSLLGAINFTNMRGPLYWTALLLFSLPVLAGTLLDRNFNTFDGGDPLYHLFWFFGHPEVYIIPGFGSHSTYKKFGMYASIGLGFVWSHHMYVGLDDRAYFTSATMIAPTGIKFSWLATYGGRPMLAFLFLFTGGTGVLNASDAFHDTYYTVHFHYVLSMGAFSLGYYYWYGLYNLFWFNFPMHFLGGMPRRPYPDAGWNSGSSYQLGPDESNEPH'
p1068
sg123
F0.18278
sg124
g125
sg33
S'48'
p1069
sg127
g1
(g128
g12
(dp1070
g130
I4
sg131
g132
sg133
g134
sg135
g132
sg136
I01
sg34
g137
sg138
g134
sg139
I0
sg140
I0
sg141
I0
sg142
g134
sg35
g143
sg144
I0
stRp1071
sg146
g147
sg148
F1
sg149
Nsg30
S'LelonA'
p1072
sbag1
(g2
g3
NtRp1073
(dp1074
g6
g1
(g7
g3
NtRp1075
(dp1076
g10
g1
(g11
g12
(dtRp1077
sg14
g1
(g11
g12
(dtRp1078
sg16
g1
(g11
g12
(dtRp1079
sg18
g1
(g11
g12
(dtRp1080
sg20
g1
(g11
g12
(dtRp1081
sg22
g1
(g11
g12
(dtRp1082
sbsg24
S'Cox'
p1083
sg26
g27
((lp1084
g29
ag30
aS'sequence'
p1085
ag32
ag33
aS'species'
p1086
atRp1087
sg37
(lp1088
sg120
g1039
sg121
S'RWLSTKDLYSRLELSGLDQNVHAMFVMPIGFGNPMGDMFARLNNSFWLPPLSLEGPGVGWTVYPPLSHSGPSVDLAFHLTSSLLGAINFTNMRGPLYWTALLLLSLPVLAGTLLDRNFNTFDGGDPLYHLFWFFGHPEVYMIPGFGSHATYKKFGMYASIGLGFVWSHHMYVGLDDRAYFTSATMIAPTGIKFSWLATYGGRPMLAFLFLFTGGTGILNASDAFHDTYYTVHFHYVLSMGAFSLGYYLWYGLYNIFWFNFPMHFLGGMPRRPYPDAGWNSGSSYQLGPDESNEPH'
p1089
sg123
F0.17860000000000001
sg124
g125
sg33
S'49'
p1090
sg127
g1
(g128
g12
(dp1091
g130
I4
sg131
g132
sg133
g134
sg135
g132
sg136
I01
sg34
g137
sg138
g134
sg139
I0
sg140
I0
sg141
I0
sg142
g134
sg35
g143
sg144
I0
stRp1092
sg146
g147
sg148
F1
sg149
Nsg30
S'CoxycA'
p1093
sbasg120
g1026
sg123
F0.041480000000000003
sg124
g125
sg33
S'43'
p1094
sg127
g1
(g128
g12
(dp1095
g130
I6
sg131
g132
sg133
g134
sg135
g132
sg136
I01
sg34
g176
sg138
g134
sg139
I0
sg140
I0
sg141
I0
sg142
g134
sg35
g177
sg144
I0
stRp1096
sg146
g147
sg148
F0.98999999999999999
sg149
Nsg30
S'NoName'
p1097
sbag1
(g2
g3
NtRp1098
(dp1099
g6
g1
(g7
g3
NtRp1100
(dp1101
g10
g1
(g11
g12
(dtRp1102
sg14
g1
(g11
g12
(dtRp1103
sg16
g1
(g11
g12
(dtRp1104
sg18
g1
(g11
g12
(dtRp1105
sg20
g1
(g11
g12
(dtRp1106
sg22
g1
(g11
g12
(dtRp1107
sbsg24
g25
sg26
g27
((lp1108
g33
ag32
ag29
ag30
atRp1109
sg37
(lp1110
g1
(g2
g3
NtRp1111
(dp1112
g6
g1
(g7
g3
NtRp1113
(dp1114
g10
g1
(g11
g12
(dtRp1115
sg14
g1
(g11
g12
(dtRp1116
sg16
g1
(g11
g12
(dtRp1117
sg18
g1
(g11
g12
(dtRp1118
sg20
g1
(g11
g12
(dtRp1119
sg22
g1
(g11
g12
(dtRp1120
sbsg24
g25
sg26
g27
((lp1121
g33
ag32
ag29
ag30
atRp1122
sg37
(lp1123
g1
(g2
g3
NtRp1124
(dp1125
g6
g1
(g7
g3
NtRp1126
(dp1127
g10
g1
(g11
g12
(dtRp1128
sg14
g1
(g11
g12
(dtRp1129
sg16
g1
(g11
g12
(dtRp1130
sg18
g1
(g11
g12
(dtRp1131
sg20
g1
(g11
g12
(dtRp1132
sg22
g1
(g11
g12
(dtRp1133
sbsg24
g25
sg26
g27
((lp1134
g33
ag32
ag29
ag30
atRp1135
sg37
(lp1136
g1
(g2
g3
NtRp1137
(dp1138
g6
g1
(g7
g3
NtRp1139
(dp1140
g10
g1
(g11
g12
(dtRp1141
sg14
g1
(g11
g12
(dtRp1142
sg16
g1
(g11
g12
(dtRp1143
sg18
g1
(g11
g12
(dtRp1144
sg20
g1
(g11
g12
(dtRp1145
sg22
g1
(g11
g12
(dtRp1146
sbsg24
S'Cth'
p1147
sg26
g27
((lp1148
g29
ag30
aS'sequence'
p1149
ag32
ag33
aS'species'
p1150
atRp1151
sg37
(lp1152
sg120
g1124
sg121
S'RWLSTKDLYSRLELPGLNQNVHAMFVMPLGFGNPMGDMFARLNNSFWLPPLSLEGAGTGWTVYPPLSHSGPSVDLAFHLTSSLLGAINFTNMRGPLYWTALLLLSLPVLAGTLLDRNFNTFEGGDPLYHLFWFFGHPEVYIIPGFGSHSTYKKFGMYASIGLGFVWSHHMYVGLDDRAYFTSATMIAPTGIKFSWLATYGGRPMLAFLFLFTGGTGVLNASDAFHDTYYTVHFHYVLSMGAFSLGYYYWYGLYNLFWFNFPMHFLGGMPRRPYPDAGWNSGSSYQLGPDESNEPH'
p1153
sg123
F0.010059999999999999
sg124
g125
sg33
S'56'
p1154
sg127
g1
(g128
g12
(dp1155
g130
I4
sg131
g132
sg133
g134
sg135
g132
sg136
I01
sg34
g137
sg138
g134
sg139
I0
sg140
I0
sg141
I0
sg142
g134
sg35
g143
sg144
I0
stRp1156
sg146
g147
sg148
F1
sg149
Nsg30
S'CtheaA'
p1157
sbag1
(g2
g3
NtRp1158
(dp1159
g6
g1
(g7
g3
NtRp1160
(dp1161
g10
g1
(g11
g12
(dtRp1162
sg14
g1
(g11
g12
(dtRp1163
sg16
g1
(g11
g12
(dtRp1164
sg18
g1
(g11
g12
(dtRp1165
sg20
g1
(g11
g12
(dtRp1166
sg22
g1
(g11
g12
(dtRp1167
sbsg24
g25
sg26
g27
((lp1168
g33
ag32
ag29
ag30
atRp1169
sg37
(lp1170
g1
(g2
g3
NtRp1171
(dp1172
g6
g1
(g7
g3
NtRp1173
(dp1174
g10
g1
(g11
g12
(dtRp1175
sg14
g1
(g11
g12
(dtRp1176
sg16
g1
(g11
g12
(dtRp1177
sg18
g1
(g11
g12
(dtRp1178
sg20
g1
(g11
g12
(dtRp1179
sg22
g1
(g11
g12
(dtRp1180
sbsg24
g25
sg26
g27
((lp1181
g33
ag32
ag29
ag30
atRp1182
sg37
(lp1183
g1
(g2
g3
NtRp1184
(dp1185
g6
g1
(g7
g3
NtRp1186
(dp1187
g10
g1
(g11
g12
(dtRp1188
sg14
g1
(g11
g12
(dtRp1189
sg16
g1
(g11
g12
(dtRp1190
sg18
g1
(g11
g12
(dtRp1191
sg20
g1
(g11
g12
(dtRp1192
sg22
g1
(g11
g12
(dtRp1193
sbsg24
g25
sg26
g27
((lp1194
g33
ag32
ag29
ag30
atRp1195
sg37
(lp1196
g1
(g2
g3
NtRp1197
(dp1198
g6
g1
(g7
g3
NtRp1199
(dp1200
g10
g1
(g11
g12
(dtRp1201
sg14
g1
(g11
g12
(dtRp1202
sg16
g1
(g11
g12
(dtRp1203
sg18
g1
(g11
g12
(dtRp1204
sg20
g1
(g11
g12
(dtRp1205
sg22
g1
(g11
g12
(dtRp1206
sbsg24
S'Cor'
p1207
sg26
g27
((lp1208
g29
ag30
aS'sequence'
p1209
ag32
ag33
aS'species'
p1210
atRp1211
sg37
(lp1212
sg120
g1184
sg121
S'RWLSTKDLYSRLELPGLNQNVHAMFVMPLGFGNPMGDMFARLNNSFWLPPLSLEGAGTGWTVYPPLSHSGPSVDLAFHLTSSLLGAINFTNMRGPLFWTALLLLSLPVLAGTLLDRNFNTFEGGDPLYHLFWFFGHPEVYIIPGFGSHSTYKKFGMYASIGLGFVWSHHMYVGLDDRAYFTSATMIAPTGIKFSWLATYGGRPMLAFLFLFTGGTGVLNASDAFHDTYYTVHFHYVLSMGAFSLGYYYWYGLYNLFWFNFPMHFLGGMPRRPYPDAGWNSGSSYQLGPDESNEPH'
p1213
sg123
F0.00132
sg124
g125
sg33
S'64'
p1214
sg127
g1
(g128
g12
(dp1215
g130
I4
sg131
g132
sg133
g134
sg135
g132
sg136
I01
sg34
g137
sg138
g134
sg139
I0
sg140
I0
sg141
I0
sg142
g134
sg35
g143
sg144
I0
stRp1216
sg146
g147
sg148
F1
sg149
Nsg30
S'CorthC'
p1217
sbag1
(g2
g3
NtRp1218
(dp1219
g6
g1
(g7
g3
NtRp1220
(dp1221
g10
g1
(g11
g12
(dtRp1222
sg14
g1
(g11
g12
(dtRp1223
sg16
g1
(g11
g12
(dtRp1224
sg18
g1
(g11
g12
(dtRp1225
sg20
g1
(g11
g12
(dtRp1226
sg22
g1
(g11
g12
(dtRp1227
sbsg24
S'Cor'
p1228
sg26
g27
((lp1229
g29
ag30
aS'sequence'
p1230
ag32
ag33
aS'species'
p1231
atRp1232
sg37
(lp1233
sg120
g1184
sg121
S'RWLSTKDLYSRLELPGLNQNVHAMFVMPLGFGNPMGDMFARLNNSFWLPPLSLEGAGTGWTVYPPLSHSGPSVDLAFHLTSSLLGAINFTNMRGPLFWTALLLLSLPVLAGTLLDRNFNTFEGGDPLYHLFWFFGHPEVYIIPGFGSHSTYKKFGMYASIGLGFVWSHHMYVGLDDRAYFTSATMIAPTGIKFSWLATYGGRPMLAFLFLFTGGTGVLNASDAFHDTYYTVHFHYVLSMGAFSLGYYYWYGLYNLFWFNFPMHFLGGMPRRPYPDAGWNSGSSYQLGPDESNEPH'
p1234
sg123
F0.00093000000000000005
sg124
g125
sg33
S'66'
p1235
sg127
g1
(g128
g12
(dp1236
g130
I4
sg131
g132
sg133
g134
sg135
g132
sg136
I01
sg34
g137
sg138
g134
sg139
I0
sg140
I0
sg141
I0
sg142
g134
sg35
g143
sg144
I0
stRp1237
sg146
g147
sg148
F1
sg149
Nsg30
S'CorthB'
p1238
sbasg120
g1171
sg123
F0.00052999999999999998
sg124
g125
sg33
S'61'
p1239
sg127
g1
(g128
g12
(dp1240
g130
I6
sg131
g132
sg133
g134
sg135
g132
sg136
I01
sg34
g176
sg138
g134
sg139
I0
sg140
I0
sg141
I0
sg142
g134
sg35
g177
sg144
I0
stRp1241
sg146
g147
sg148
F0.85999999999999999
sg149
Nsg30
S'NoName'
p1242
sbag1
(g2
g3
NtRp1243
(dp1244
g6
g1
(g7
g3
NtRp1245
(dp1246
g10
g1
(g11
g12
(dtRp1247
sg14
g1
(g11
g12
(dtRp1248
sg16
g1
(g11
g12
(dtRp1249
sg18
g1
(g11
g12
(dtRp1250
sg20
g1
(g11
g12
(dtRp1251
sg22
g1
(g11
g12
(dtRp1252
sbsg24
S'Cor'
p1253
sg26
g27
((lp1254
g29
ag30
aS'sequence'
p1255
ag32
ag33
aS'species'
p1256
atRp1257
sg37
(lp1258
sg120
g1171
sg121
S'RWLSTKDLYSRLELPGLNQNVHAMFVMPLGFGNPMGDMFARLNNSFWLPPLSLEGAGTGWTVYPPLSHSGPSVDLAFHLTSSLLGAINFTNMRGPLFWTALLLLSLPVLAGTLLDRNFNTFEGGDPLYHLFWFFGHPEVYIIPGFGSHSTYKKFGMYASIGLGFVWSHHMYVGLDDRAYFTSATMIAPTGIKFSWLATYGGRPMLAFLFLFTGGTGVLNASDAFHDTYYTVHFHYVLSMGAFSLGYYYWYGLYNLFWFNFPMHFLGGMPRRPYPDAGWNSGSSYQLGPDESNEPH'
p1259
sg123
F0.0021099999999999999
sg124
g125
sg33
S'67'
p1260
sg127
g1
(g128
g12
(dp1261
g130
I4
sg131
g132
sg133
g134
sg135
g132
sg136
I01
sg34
g137
sg138
g134
sg139
I0
sg140
I0
sg141
I0
sg142
g134
sg35
g143
sg144
I0
stRp1262
sg146
g147
sg148
F1
sg149
Nsg30
S'CorthA'
p1263
sbasg120
g1158
sg123
F0.0031199999999999999
sg124
g125
sg33
S'59'
p1264
sg127
g1
(g128
g12
(dp1265
g130
I6
sg131
g132
sg133
g134
sg135
g132
sg136
I01
sg34
g176
sg138
g134
sg139
I0
sg140
I0
sg141
I0
sg142
g134
sg35
g177
sg144
I0
stRp1266
sg146
g147
sg148
F0.98999999999999999
sg149
Nsg30
S'NoName'
p1267
sbag1
(g2
g3
NtRp1268
(dp1269
g6
g1
(g7
g3
NtRp1270
(dp1271
g10
g1
(g11
g12
(dtRp1272
sg14
g1
(g11
g12
(dtRp1273
sg16
g1
(g11
g12
(dtRp1274
sg18
g1
(g11
g12
(dtRp1275
sg20
g1
(g11
g12
(dtRp1276
sg22
g1
(g11
g12
(dtRp1277
sbsg24
g25
sg26
g27
((lp1278
g33
ag32
ag29
ag30
atRp1279
sg37
(lp1280
g1
(g2
g3
NtRp1281
(dp1282
g6
g1
(g7
g3
NtRp1283
(dp1284
g10
g1
(g11
g12
(dtRp1285
sg14
g1
(g11
g12
(dtRp1286
sg16
g1
(g11
g12
(dtRp1287
sg18
g1
(g11
g12
(dtRp1288
sg20
g1
(g11
g12
(dtRp1289
sg22
g1
(g11
g12
(dtRp1290
sbsg24
g25
sg26
g27
((lp1291
g33
ag32
ag29
ag30
atRp1292
sg37
(lp1293
g1
(g2
g3
NtRp1294
(dp1295
g6
g1
(g7
g3
NtRp1296
(dp1297
g10
g1
(g11
g12
(dtRp1298
sg14
g1
(g11
g12
(dtRp1299
sg16
g1
(g11
g12
(dtRp1300
sg18
g1
(g11
g12
(dtRp1301
sg20
g1
(g11
g12
(dtRp1302
sg22
g1
(g11
g12
(dtRp1303
sbsg24
S'Cpa'
p1304
sg26
g27
((lp1305
g29
ag30
aS'sequence'
p1306
ag32
ag33
aS'species'
p1307
atRp1308
sg37
(lp1309
sg120
g1281
sg121
S'RWLSTKDLYSRLELPGLNQNVHAMFVMPLGFGNPMGDMFARLNNSFWLPPLSLEGAGTGWTVYPPLSHSGPSVDLAFHLTSSLLGAINFTNMRGPLFWTALLLLSLPVLAGTLLDRNFNTFEGGDPLYHLFWFFGHPEVYIIPGFGSHSTYKKFGMYASIGLGFVWSHHMYVGLDDRAYFTSATMIAPTSIKFSWLATYGGRTALAFIFLFTGGTGVLNSADPFHDSYYVVHFHYVLSMGAFSIGWYLWPGLYNLFWFNFPMHFLGGMPRRNYPDAGWNSGSAYQLGPSGTNEPH'
p1310
sg123
F0.00012999999999999999
sg124
g125
sg33
S'73'
p1311
sg127
g1
(g128
g12
(dp1312
g130
I4
sg131
g132
sg133
g134
sg135
g132
sg136
I01
sg34
g137
sg138
g134
sg139
I0
sg140
I0
sg141
I0
sg142
g134
sg35
g143
sg144
I0
stRp1313
sg146
g147
sg148
F1
sg149
Nsg30
S'CparaD'
p1314
sbag1
(g2
g3
NtRp1315
(dp1316
g6
g1
(g7
g3
NtRp1317
(dp1318
g10
g1
(g11
g12
(dtRp1319
sg14
g1
(g11
g12
(dtRp1320
sg16
g1
(g11
g12
(dtRp1321
sg18
g1
(g11
g12
(dtRp1322
sg20
g1
(g11
g12
(dtRp1323
sg22
g1
(g11
g12
(dtRp1324
sbsg24
S'Cpa'
p1325
sg26
g27
((lp1326
g29
ag30
aS'sequence'
p1327
ag32
ag33
aS'species'
p1328
atRp1329
sg37
(lp1330
sg120
g1281
sg121
S'RWLSTKDLYSRLELPGLNQNVHAMFVMPLGFGNPMGDMFARLNNSFWLPPLSLEGAGTGWTVYPPLSHSGPSVDLAFHLTSSLLGAINFTNMRGPLFWTALLLLSLPVLAGTLLDRNFNTFEGGDPLYHLFWFFGHPEVYIIPGFGSHSTYKKFGMYASIGLGFVWSHHMYVGLDDRAYFTSATMIAPTGIKFSWLATYGGRPMLAFLFLFTGGTGVVNASDAFHDTYYVVHFHYVLSMGAFSLGYYYWYGLYNLFWFNFPMHFLGGMPRRPYPDAGWNSGSSYSLGPDESNEPH'
p1331
sg123
F0.00012999999999999999
sg124
g125
sg33
S'74'
p1332
sg127
g1
(g128
g12
(dp1333
g130
I4
sg131
g132
sg133
g134
sg135
g132
sg136
I01
sg34
g137
sg138
g134
sg139
I0
sg140
I0
sg141
I0
sg142
g134
sg35
g143
sg144
I0
stRp1334
sg146
g147
sg148
F1
sg149
Nsg30
S'CparaB'
p1335
sbasg120
g1268
sg123
F0.00051000000000000004
sg124
g125
sg33
S'69'
p1336
sg127
g1
(g128
g12
(dp1337
g130
I6
sg131
g132
sg133
g134
sg135
g132
sg136
I01
sg34
g176
sg138
g134
sg139
I0
sg140
I0
sg141
I0
sg142
g134
sg35
g177
sg144
I0
stRp1338
sg146
g147
sg148
F0.98999999999999999
sg149
Nsg30
S'NoName'
p1339
sbag1
(g2
g3
NtRp1340
(dp1341
g6
g1
(g7
g3
NtRp1342
(dp1343
g10
g1
(g11
g12
(dtRp1344
sg14
g1
(g11
g12
(dtRp1345
sg16
g1
(g11
g12
(dtRp1346
sg18
g1
(g11
g12
(dtRp1347
sg20
g1
(g11
g12
(dtRp1348
sg22
g1
(g11
g12
(dtRp1349
sbsg24
S'Cpa'
p1350
sg26
g27
((lp1351
g29
ag30
aS'sequence'
p1352
ag32
ag33
aS'species'
p1353
atRp1354
sg37
(lp1355
sg120
g1268
sg121
S'RWLSTKDLYSRLELPGLNQNVHAMFVMPLGFGNPMGDMFARLNNSFWLPPLSLEGAGTGWTVYPPLSHSGPSVDLAFHLTSSLLGAINFTNMRGPLFWTALLLLSLPVLAGTLLDRNFNTFEGGDPLYHLFWFFGHPEVYIIPGFGSHSTYKKFGMYASIGLGFVWSHHMYVGLDDRAYFTSATMIAPTGIKFSWLATYGGRPMLAFLFLFTGGTGVVNASDAFHDTYYVVHFHYVLSMGAFSLGYYYWYGLYNLFWFNFPMHFLGGMPRRPYPDAGWNSGSSYSLGPDESNEPH'
p1356
sg123
F0.00012
sg124
g125
sg33
S'76'
p1357
sg127
g1
(g128
g12
(dp1358
g130
I4
sg131
g132
sg133
g134
sg135
g132
sg136
I01
sg34
g137
sg138
g134
sg139
I0
sg140
I0
sg141
I0
sg142
g134
sg35
g143
sg144
I0
stRp1359
sg146
g147
sg148
F1
sg149
Nsg30
S'CparaC'
p1360
sbasg120
g1158
sg123
F1.0000000000000001e-05
sg124
g125
sg33
S'63'
p1361
sg127
g1
(g128
g12
(dp1362
g130
I6
sg131
g132
sg133
g134
sg135
g132
sg136
I01
sg34
g176
sg138
g134
sg139
I0
sg140
I0
sg141
I0
sg142
g134
sg35
g177
sg144
I0
stRp1363
sg146
g147
sg148
F1
sg149
Nsg30
S'NoName'
p1364
sbasg120
g1124
sg123
F0.0032599999999999999
sg124
g125
sg33
S'55'
p1365
sg127
g1
(g128
g12
(dp1366
g130
I6
sg131
g132
sg133
g134
sg135
g132
sg136
I01
sg34
g176
sg138
g134
sg139
I0
sg140
I0
sg141
I0
sg142
g134
sg35
g177
sg144
I0
stRp1367
sg146
g147
sg148
F0.97999999999999998
sg149
Nsg30
S'NoName'
p1368
sbasg120
g1111
sg123
F1.0000000000000001e-05
sg124
g125
sg33
S'53'
p1369
sg127
g1
(g128
g12
(dp1370
g130
I6
sg131
g132
sg133
g134
sg135
g132
sg136
I01
sg34
g176
sg138
g134
sg139
I0
sg140
I0
sg141
I0
sg142
g134
sg35
g177
sg144
I0
stRp1371
sg146
g147
sg148
F1
sg149
Nsg30
S'NoName'
p1372
sbag1
(g2
g3
NtRp1373
(dp1374
g6
g1
(g7
g3
NtRp1375
(dp1376
g10
g1
(g11
g12
(dtRp1377
sg14
g1
(g11
g12
(dtRp1378
sg16
g1
(g11
g12
(dtRp1379
sg18
g1
(g11
g12
(dtRp1380
sg20
g1
(g11
g12
(dtRp1381
sg22
g1
(g11
g12
(dtRp1382
sbsg24
g25
sg26
g27
((lp1383
g33
ag32
ag29
ag30
atRp1384
sg37
(lp1385
g1
(g2
g3
NtRp1386
(dp1387
g6
g1
(g7
g3
NtRp1388
(dp1389
g10
g1
(g11
g12
(dtRp1390
sg14
g1
(g11
g12
(dtRp1391
sg16
g1
(g11
g12
(dtRp1392
sg18
g1
(g11
g12
(dtRp1393
sg20
g1
(g11
g12
(dtRp1394
sg22
g1
(g11
g12
(dtRp1395
sbsg24
g25
sg26
g27
((lp1396
g33
ag32
ag29
ag30
atRp1397
sg37
(lp1398
g1
(g2
g3
NtRp1399
(dp1400
g6
g1
(g7
g3
NtRp1401
(dp1402
g10
g1
(g11
g12
(dtRp1403
sg14
g1
(g11
g12
(dtRp1404
sg16
g1
(g11
g12
(dtRp1405
sg18
g1
(g11
g12
(dtRp1406
sg20
g1
(g11
g12
(dtRp1407
sg22
g1
(g11
g12
(dtRp1408
sbsg24
g25
sg26
g27
((lp1409
g33
ag32
ag29
ag30
atRp1410
sg37
(lp1411
g1
(g2
g3
NtRp1412
(dp1413
g6
g1
(g7
g3
NtRp1414
(dp1415
g10
g1
(g11
g12
(dtRp1416
sg14
g1
(g11
g12
(dtRp1417
sg16
g1
(g11
g12
(dtRp1418
sg18
g1
(g11
g12
(dtRp1419
sg20
g1
(g11
g12
(dtRp1420
sg22
g1
(g11
g12
(dtRp1421
sbsg24
g25
sg26
g27
((lp1422
g33
ag32
ag29
ag30
atRp1423
sg37
(lp1424
g1
(g2
g3
NtRp1425
(dp1426
g6
g1
(g7
g3
NtRp1427
(dp1428
g10
g1
(g11
g12
(dtRp1429
sg14
g1
(g11
g12
(dtRp1430
sg16
g1
(g11
g12
(dtRp1431
sg18
g1
(g11
g12
(dtRp1432
sg20
g1
(g11
g12
(dtRp1433
sg22
g1
(g11
g12
(dtRp1434
sbsg24
g25
sg26
g27
((lp1435
g33
ag32
ag29
ag30
atRp1436
sg37
(lp1437
g1
(g2
g3
NtRp1438
(dp1439
g6
g1
(g7
g3
NtRp1440
(dp1441
g10
g1
(g11
g12
(dtRp1442
sg14
g1
(g11
g12
(dtRp1443
sg16
g1
(g11
g12
(dtRp1444
sg18
g1
(g11
g12
(dtRp1445
sg20
g1
(g11
g12
(dtRp1446
sg22
g1
(g11
g12
(dtRp1447
sbsg24
S'Cme'
p1448
sg26
g27
((lp1449
g29
ag30
aS'sequence'
p1450
ag32
ag33
aS'species'
p1451
atRp1452
sg37
(lp1453
sg120
g1425
sg121
S'RWLSTKDLYSRLELPGLNQNVHAMFVMPLGFGNPMGDMFARLNNSFWLPPLSLEGAGTGWTVYPPLSHSGPSVDLAFHLTSSLLGAINFTNMRGPLYWTALLLLSLPVLAGTLLDRNFNTFEGGDPLYHLFWFFGHPEVYIIPGFGSHSTYKKFGMYASIGLGFVWSHHMYVGLDDRAYFTSATMIAPTGIKFSWLATYGGRPMLAFLFLFTGGTGVLNASDAFHDTYYVVHFHYVLSMGAFSLGYYYWYGLYNLFWFNFPMHFLGGMPRRPYPDAGWNSGSSYQLGPDESNEPH'
p1454
sg123
F0.00012999999999999999
sg124
g125
sg33
S'86'
p1455
sg127
g1
(g128
g12
(dp1456
g130
I4
sg131
g132
sg133
g134
sg135
g132
sg136
I01
sg34
g137
sg138
g134
sg139
I0
sg140
I0
sg141
I0
sg142
g134
sg35
g143
sg144
I0
stRp1457
sg146
g147
sg148
F1
sg149
Nsg30
S'CmetaF'
p1458
sbag1
(g2
g3
NtRp1459
(dp1460
g6
g1
(g7
g3
NtRp1461
(dp1462
g10
g1
(g11
g12
(dtRp1463
sg14
g1
(g11
g12
(dtRp1464
sg16
g1
(g11
g12
(dtRp1465
sg18
g1
(g11
g12
(dtRp1466
sg20
g1
(g11
g12
(dtRp1467
sg22
g1
(g11
g12
(dtRp1468
sbsg24
S'Cme'
p1469
sg26
g27
((lp1470
g29
ag30
aS'sequence'
p1471
ag32
ag33
aS'species'
p1472
atRp1473
sg37
(lp1474
sg120
g1425
sg121
S'RWLSTKDLYSRLELPGLNQNVHAMFVMPLGFGNPMGDMFARLNNSFWLPPLSLEGAGTGWTVYPPLSHSGPSVDLAFHLTSSLLGAINFTNMRGPLYWTALLLLSLPVLAGTLLDRNFNTFEGGDPLYHLFWFFGHPEVYIIPGFGSHSTYKKFGMYASIGLGFVWSHHMYVGLDDRAYFTSATMIAPTGIKFSWLATYGGRPMLAFLFLFTGGTGVLNASDAFHDTYYVVHFHYVLSMGAFSLGYYYWYGLYNLFWFNFPMHFLGGMPRRPYPDAGWNSGSSYQLGPDESNEPH'
p1475
sg123
F0.00012
sg124
g125
sg33
S'87'
p1476
sg127
g1
(g128
g12
(dp1477
g130
I4
sg131
g132
sg133
g134
sg135
g132
sg136
I01
sg34
g137
sg138
g134
sg139
I0
sg140
I0
sg141
I0
sg142
g134
sg35
g143
sg144
I0
stRp1478
sg146
g147
sg148
F1
sg149
Nsg30
S'CmetaE'
p1479
sbasg120
g1412
sg123
F1.0000000000000001e-05
sg124
g125
sg33
S'82'
p1480
sg127
g1
(g128
g12
(dp1481
g130
I6
sg131
g132
sg133
g134
sg135
g132
sg136
I01
sg34
g176
sg138
g134
sg139
I0
sg140
I0
sg141
I0
sg142
g134
sg35
g177
sg144
I0
stRp1482
sg146
g147
sg148
F1
sg149
Nsg30
S'NoName'
p1483
sbag1
(g2
g3
NtRp1484
(dp1485
g6
g1
(g7
g3
NtRp1486
(dp1487
g10
g1
(g11
g12
(dtRp1488
sg14
g1
(g11
g12
(dtRp1489
sg16
g1
(g11
g12
(dtRp1490
sg18
g1
(g11
g12
(dtRp1491
sg20
g1
(g11
g12
(dtRp1492
sg22
g1
(g11
g12
(dtRp1493
sbsg24
S'Cme'
p1494
sg26
g27
((lp1495
g29
ag30
aS'sequence'
p1496
ag32
ag33
aS'species'
p1497
atRp1498
sg37
(lp1499
sg120
g1412
sg121
S'RWLSTKDLYSRLELPGLNQNVHAMFVMPLGFGNPMGDMFARLNNSFWLPPLSLEGAGTGWTVYPPLSHSGPSVDLAFHLTSSLLGAINFTNMRGPLYWTALLLLSLPVLAGTLLDRNFNTFEGGDPLYHLFWFFGHPEVYIIPGFGSHSTYKKFGMYASIGLGFVWSHHMYVGLDDRAYFTSATMIAPTGIKFSWLATYGGRPMLAFLFLFTGGTGVLNASDAFHDTYYVVHFHYVLSMGAFSLGYYYWYGLYNLFWFNFPMHFLGGMPRRPYPDAGWNSGSSYQLGPDESNEPH'
p1500
sg123
F0.00020000000000000001
sg124
g125
sg33
S'90'
p1501
sg127
g1
(g128
g12
(dp1502
g130
I4
sg131
g132
sg133
g134
sg135
g132
sg136
I01
sg34
g137
sg138
g134
sg139
I0
sg140
I0
sg141
I0
sg142
g134
sg35
g143
sg144
I0
stRp1503
sg146
g147
sg148
F1
sg149
Nsg30
S'CmetaD'
p1504
sbasg120
g1399
sg123
F1.0000000000000001e-05
sg124
g125
sg33
S'80'
p1505
sg127
g1
(g128
g12
(dp1506
g130
I6
sg131
g132
sg133
g134
sg135
g132
sg136
I01
sg34
g176
sg138
g134
sg139
I0
sg140
I0
sg141
I0
sg142
g134
sg35
g177
sg144
I0
stRp1507
sg146
g147
sg148
F1
sg149
Nsg30
S'NoName'
p1508
sbag1
(g2
g3
NtRp1509
(dp1510
g6
g1
(g7
g3
NtRp1511
(dp1512
g10
g1
(g11
g12
(dtRp1513
sg14
g1
(g11
g12
(dtRp1514
sg16
g1
(g11
g12
(dtRp1515
sg18
g1
(g11
g12
(dtRp1516
sg20
g1
(g11
g12
(dtRp1517
sg22
g1
(g11
g12
(dtRp1518
sbsg24
S'Cme'
p1519
sg26
g27
((lp1520
g29
ag30
aS'sequence'
p1521
ag32
ag33
aS'species'
p1522
atRp1523
sg37
(lp1524
sg120
g1399
sg121
S'RWLSTKDLYSRLELPGLNQNVHAMFVMPLGFGNPMGDMFARLNNSFWLPPLSLEGAGTGWTVYPPLSHSGPSVDLAFHLTSSLLGAINFTNMRGPLYWTALLLLSLPVLAGTLLDRNFNTFEGGDPLYHLFWFFGHPEVYIIPGFGSHSTYKKFGMYASIGLGFVWSHHMYVGLDDRAYFTSATMIAPTGIKFSWLATYGGRPMLAFLFLFTGGTGVLNASDAFHDTYYVVHFHYVLSMGAFSLGYYYWYGLYNLFWFNFPMHFLGGMPRRPYPDAGWNSGSSYQLGPDESNEPH'
p1525
sg123
F0.00052999999999999998
sg124
g125
sg33
S'92'
p1526
sg127
g1
(g128
g12
(dp1527
g130
I4
sg131
g132
sg133
g134
sg135
g132
sg136
I01
sg34
g137
sg138
g134
sg139
I0
sg140
I0
sg141
I0
sg142
g134
sg35
g143
sg144
I0
stRp1528
sg146
g147
sg148
F1
sg149
Nsg30
S'CmetaC'
p1529
sbasg120
g1386
sg123
F1.0000000000000001e-05
sg124
g125
sg33
S'79'
p1530
sg127
g1
(g128
g12
(dp1531
g130
I6
sg131
g132
sg133
g134
sg135
g132
sg136
I01
sg34
g176
sg138
g134
sg139
I0
sg140
I0
sg141
I0
sg142
g134
sg35
g177
sg144
I0
stRp1532
sg146
g147
sg148
F1
sg149
Nsg30
S'NoName'
p1533
sbag1
(g2
g3
NtRp1534
(dp1535
g6
g1
(g7
g3
NtRp1536
(dp1537
g10
g1
(g11
g12
(dtRp1538
sg14
g1
(g11
g12
(dtRp1539
sg16
g1
(g11
g12
(dtRp1540
sg18
g1
(g11
g12
(dtRp1541
sg20
g1
(g11
g12
(dtRp1542
sg22
g1
(g11
g12
(dtRp1543
sbsg24
S'Cme'
p1544
sg26
g27
((lp1545
g29
ag30
aS'sequence'
p1546
ag32
ag33
aS'species'
p1547
atRp1548
sg37
(lp1549
sg120
g1386
sg121
S'RWLSTKDLYSRLELPGLNQNVHAMFVMPLGFGNPMGDMFARLNNSFWLPPLSLEGAGTGWTVYPPLSHSGPSVDLAFHLTSSLLGAINFTNMRGPLYWTALLLLSLPVLAGTLLDRNFNTFEGGDPLYHLFWFFGHPEVYIIPGFGSHSTYKKFGMYASIGLGFVWSHHMYVGLDDRAYFTSATMIAPTGIKFSWLATYGGRPMLAFLFLFTGGTGVLNASDAFHDTYYVVHFHYVLSMGAFSLGYYYWYGLYNLFWFNFPMHFLGGMPRRPYPDAGWNSGSSYQLGPDESNEPH'
p1550
sg123
F0.00012
sg124
g125
sg33
S'94'
p1551
sg127
g1
(g128
g12
(dp1552
g130
I4
sg131
g132
sg133
g134
sg135
g132
sg136
I01
sg34
g137
sg138
g134
sg139
I0
sg140
I0
sg141
I0
sg142
g134
sg35
g143
sg144
I0
stRp1553
sg146
g147
sg148
F1
sg149
Nsg30
S'CmetaB'
p1554
sbasg120
g1373
sg123
F1.0000000000000001e-05
sg124
g125
sg33
S'77'
p1555
sg127
g1
(g128
g12
(dp1556
g130
I6
sg131
g132
sg133
g134
sg135
g132
sg136
I01
sg34
g176
sg138
g134
sg139
I0
sg140
I0
sg141
I0
sg142
g134
sg35
g177
sg144
I0
stRp1557
sg146
g147
sg148
F1
sg149
Nsg30
S'NoName'
p1558
sbag1
(g2
g3
NtRp1559
(dp1560
g6
g1
(g7
g3
NtRp1561
(dp1562
g10
g1
(g11
g12
(dtRp1563
sg14
g1
(g11
g12
(dtRp1564
sg16
g1
(g11
g12
(dtRp1565
sg18
g1
(g11
g12
(dtRp1566
sg20
g1
(g11
g12
(dtRp1567
sg22
g1
(g11
g12
(dtRp1568
sbsg24
S'Cme'
p1569
sg26
g27
((lp1570
g29
ag30
aS'sequence'
p1571
ag32
ag33
aS'species'
p1572
atRp1573
sg37
(lp1574
sg120
g1373
sg121
S'RWLSTKDLYSRLELPGLNQNVHAMFVMPLGFGNPMGDMFARLNNSFWLPPLSLEGAGTGWTVYPPLSHSGPSVDLAFHLTSSLLGAINFTNMRGPLYWTALLLLSLPVLAGTLLDRNFNTFEGGDPLYHLFWFFGHPEVYIIPGFGSHSTYKKFGMYASIGLGFVWSHHMYVGLDDRAYFTSATMIAPTGIKFSWLATYGGRPMLAFLFLFTGGTGVLNASDAFHDTYYVVHFHYVLSMGAFSLGYYYWYGLYNLFWFNFPMHFLGGMPRRPYPDAGWNSGSSYQLGPDESNEPH'
p1575
sg123
F0.00012999999999999999
sg124
g125
sg33
S'95'
p1576
sg127
g1
(g128
g12
(dp1577
g130
I4
sg131
g132
sg133
g134
sg135
g132
sg136
I01
sg34
g137
sg138
g134
sg139
I0
sg140
I0
sg141
I0
sg142
g134
sg35
g143
sg144
I0
stRp1578
sg146
g147
sg148
F1
sg149
Nsg30
S'CmetaA'
p1579
sbasg120
g1111
sg123
F0.020930000000000001
sg124
g125
sg33
S'71'
p1580
sg127
g1
(g128
g12
(dp1581
g130
I6
sg131
g132
sg133
g134
sg135
g132
sg136
I01
sg34
g176
sg138
g134
sg139
I0
sg140
I0
sg141
I0
sg142
g134
sg35
g177
sg144
I0
stRp1582
sg146
g147
sg148
F0.98999999999999999
sg149
Nsg30
S'NoName'
p1583
sbasg120
g1098
sg123
F0.045289999999999997
sg124
g125
sg33
S'51'
p1584
sg127
g1
(g128
g12
(dp1585
g130
I6
sg131
g132
sg133
g134
sg135
g132
sg136
I01
sg34
g176
sg138
g134
sg139
I0
sg140
I0
sg141
I0
sg142
g134
sg35
g177
sg144
I0
stRp1586
sg146
g147
sg148
F0.98999999999999999
sg149
Nsg30
S'NoName'
p1587
sbag1
(g2
g3
NtRp1588
(dp1589
g6
g1
(g7
g3
NtRp1590
(dp1591
g10
g1
(g11
g12
(dtRp1592
sg14
g1
(g11
g12
(dtRp1593
sg16
g1
(g11
g12
(dtRp1594
sg18
g1
(g11
g12
(dtRp1595
sg20
g1
(g11
g12
(dtRp1596
sg22
g1
(g11
g12
(dtRp1597
sbsg24
S'Cji'
p1598
sg26
g27
((lp1599
g29
ag30
aS'sequence'
p1600
ag32
ag33
aS'species'
p1601
atRp1602
sg37
(lp1603
sg120
g1098
sg121
S'RWLSTKDLYSRLELPGLNQNVHAMFVMPLGFGNPMGDMFARLNNSFWLPPLSLEGAGTGWTVYPPLSHSGPSVDLAFHLTSSLLGAINFTNMRGPMFWTALLLLSLPVLAGTLLDRNFNTFDGGDPLYHLFWFFGHPEVYIIPGFGSHSTYKKFGMYASIGLGFVWSHHMYVGLDDRAYFTSATMIAPTGIKFSWLATYGGRPMLAFLFLFTGGTGVLNASDAFHDTYYTVHFHYVLSMGAFSLGYYYWYGLYNLFWFNFPMHFLGGMPRRPYPDAGWNSGSSYQLGPDESNEPH'
p1604
sg123
F0.013140000000000001
sg124
g125
sg33
S'97'
p1605
sg127
g1
(g128
g12
(dp1606
g130
I4
sg131
g132
sg133
g134
sg135
g132
sg136
I01
sg34
g137
sg138
g134
sg139
I0
sg140
I0
sg141
I0
sg142
g134
sg35
g143
sg144
I0
stRp1607
sg146
g147
sg148
F1
sg149
Nsg30
S'CjiufA'
p1608
sbasg120
g1026
sg123
F0.044909999999999999
sg124
g125
sg33
S'45'
p1609
sg127
g1
(g128
g12
(dp1610
g130
I6
sg131
g132
sg133
g134
sg135
g132
sg136
I01
sg34
g176
sg138
g134
sg139
I0
sg140
I0
sg141
I0
sg142
g134
sg35
g177
sg144
I0
stRp1611
sg146
g147
sg148
F0.98999999999999999
sg149
Nsg30
S'NoName'
p1612
sbasg120
g1013
sg123
F0.082199999999999995
sg124
g125
sg33
S'41'
p1613
sg127
g1
(g128
g12
(dp1614
g130
I6
sg131
g132
sg133
g134
sg135
g132
sg136
I01
sg34
g176
sg138
g134
sg139
I0
sg140
I0
sg141
I0
sg142
g134
sg35
g177
sg144
I0
stRp1615
sg146
g147
sg148
F0.98999999999999999
sg149
Nsg30
S'NoName'
p1616
sbag1
(g2
g3
NtRp1617
(dp1618
g6
g1
(g7
g3
NtRp1619
(dp1620
g10
g1
(g11
g12
(dtRp1621
sg14
g1
(g11
g12
(dtRp1622
sg16
g1
(g11
g12
(dtRp1623
sg18
g1
(g11
g12
(dtRp1624
sg20
g1
(g11
g12
(dtRp1625
sg22
g1
(g11
g12
(dtRp1626
sbsg24
g25
sg26
g27
((lp1627
g33
ag32
ag29
ag30
atRp1628
sg37
(lp1629
g1
(g2
g3
NtRp1630
(dp1631
g6
g1
(g7
g3
NtRp1632
(dp1633
g10
g1
(g11
g12
(dtRp1634
sg14
g1
(g11
g12
(dtRp1635
sg16
g1
(g11
g12
(dtRp1636
sg18
g1
(g11
g12
(dtRp1637
sg20
g1
(g11
g12
(dtRp1638
sg22
g1
(g11
g12
(dtRp1639
sbsg24
g25
sg26
g27
((lp1640
g33
ag32
ag29
ag30
atRp1641
sg37
(lp1642
g1
(g2
g3
NtRp1643
(dp1644
g6
g1
(g7
g3
NtRp1645
(dp1646
g10
g1
(g11
g12
(dtRp1647
sg14
g1
(g11
g12
(dtRp1648
sg16
g1
(g11
g12
(dtRp1649
sg18
g1
(g11
g12
(dtRp1650
sg20
g1
(g11
g12
(dtRp1651
sg22
g1
(g11
g12
(dtRp1652
sbsg24
S'Cco'
p1653
sg26
g27
((lp1654
g29
ag30
aS'sequence'
p1655
ag32
ag33
aS'species'
p1656
atRp1657
sg37
(lp1658
sg120
g1630
sg121
S'RWLSTKDLYSRMELPGLNQNVHAMFVMPLGFGNPMGDMFARLNNSFWLPPLSLEGAGTGWTLYAPLSHSGPSVDLAFHLTSSLLGAINFTNMRGPLFWTALLLLSLPVLAATLLDRNFNTFEGGDPLYHLFFVLMHPEVYIIPGFGSHSTYKKFGMYASMGLGFVWSHHMYVGLDDRAYFTSATMIAPTGIKFSWLATYGGRPMLAFLFLFTGGTGVLNASDAFHDTYYIKHFHYVLSMGAFSLGYYYWYGLYNMFWFNFPMHFLGGMPRRPYPDAGWNSGSSYQLGPDESNEPH'
p1659
sg123
F0.057970000000000001
sg124
g125
sg33
S'103'
p1660
sg127
g1
(g128
g12
(dp1661
g130
I4
sg131
g132
sg133
g134
sg135
g132
sg136
I01
sg34
g137
sg138
g134
sg139
I0
sg140
I0
sg141
I0
sg142
g134
sg35
g143
sg144
I0
stRp1662
sg146
g147
sg148
F1
sg149
Nsg30
S'CcoryA'
p1663
sbag1
(g2
g3
NtRp1664
(dp1665
g6
g1
(g7
g3
NtRp1666
(dp1667
g10
g1
(g11
g12
(dtRp1668
sg14
g1
(g11
g12
(dtRp1669
sg16
g1
(g11
g12
(dtRp1670
sg18
g1
(g11
g12
(dtRp1671
sg20
g1
(g11
g12
(dtRp1672
sg22
g1
(g11
g12
(dtRp1673
sbsg24
S'Cch'
p1674
sg26
g27
((lp1675
g29
ag30
aS'sequence'
p1676
ag32
ag33
aS'species'
p1677
atRp1678
sg37
(lp1679
sg120
g1630
sg121
S'RWLSTKDLYSRMELPSLNQNVHAMFVMPLGFGNPMGDMFARLNNSFWLPPLSLEGAGTGWTLYAPLSHSGPSVDLAFHLTSSLLGAINFTNMRGPLFWTALLLLSLPVLAATLLDRNFNTFEGGDPLYHLFWFYMYKDYYIIPGFGSHSTYKKFGMYASIGLGFVWSHHMFVGLDDRAYFTSATMIAPTGIKFSWLATYGGRPMLAFLFLFTGGTGVLNASDAFHDTYYVVHFHYVLSMGAFSLGYYYWYGLYNLFWFNFPMHFLGGMPRRPYPDAGWNSGSSYQLGPDESNEPH'
p1680
sg123
F0.052440000000000001
sg124
g125
sg33
S'105'
p1681
sg127
g1
(g128
g12
(dp1682
g130
I4
sg131
g132
sg133
g134
sg135
g132
sg136
I01
sg34
g137
sg138
g134
sg139
I0
sg140
I0
sg141
I0
sg142
g134
sg35
g143
sg144
I0
stRp1683
sg146
g147
sg148
F1
sg149
Nsg30
S'CchauA'
p1684
sbasg120
g1617
sg123
F0.16861999999999999
sg124
g125
sg33
S'99'
p1685
sg127
g1
(g128
g12
(dp1686
g130
I6
sg131
g132
sg133
g134
sg135
g132
sg136
I01
sg34
g176
sg138
g134
sg139
I0
sg140
I0
sg141
I0
sg142
g134
sg35
g177
sg144
I0
stRp1687
sg146
g147
sg148
F0.98999999999999999
sg149
Nsg30
S'NoName'
p1688
sbag1
(g2
g3
NtRp1689
(dp1690
g6
g1
(g7
g3
NtRp1691
(dp1692
g10
g1
(g11
g12
(dtRp1693
sg14
g1
(g11
g12
(dtRp1694
sg16
g1
(g11
g12
(dtRp1695
sg18
g1
(g11
g12
(dtRp1696
sg20
g1
(g11
g12
(dtRp1697
sg22
g1
(g11
g12
(dtRp1698
sbsg24
S'Cbo'
p1699
sg26
g27
((lp1700
g29
ag30
aS'sequence'
p1701
ag32
ag33
aS'species'
p1702
atRp1703
sg37
(lp1704
sg120
g1617
sg121
S'RWLSTKDLYSRMELPGLNQNVHAMFVMPLGFGNPMGDMFARLNNSFWLPPLSLEGAGTGWTVYPPLSHSGPSVDLAFHLTSSLLGAINFTNMRGPLFWTALLLLSLPVLAATLLDRNFNTFEGGDPLYHLFWFFGHPEVYIIPGFGSHSTYKKFGMYASIGLGFVWSHHMYVGLDDRAYFTSATMIAPTGIKFSWLATYGGRPMLAFLFLFTGGTGVLNASDAFHDTYYVVHFHYVLSMGAFSLAYYYWYGLYNLFWFNFPMHFLGGMPRRPYPDAGWNSGSSYQLGPDESNEPH'
p1705
sg123
F0.20199
sg124
g125
sg33
S'108'
p1706
sg127
g1
(g128
g12
(dp1707
g130
I4
sg131
g132
sg133
g134
sg135
g132
sg136
I01
sg34
g137
sg138
g134
sg139
I0
sg140
I0
sg141
I0
sg142
g134
sg35
g143
sg144
I0
stRp1708
sg146
g147
sg148
F1
sg149
Nsg30
S'CbohiA'
p1709
sbasg120
g1013
sg123
F0.14915999999999999
sg124
g125
sg33
S'84'
p1710
sg127
g1
(g128
g12
(dp1711
g130
I6
sg131
g132
sg133
g134
sg135
g132
sg136
I01
sg34
g176
sg138
g134
sg139
I0
sg140
I0
sg141
I0
sg142
g134
sg35
g177
sg144
I0
stRp1712
sg146
g147
sg148
F0.98999999999999999
sg149
Nsg30
S'NoName'
p1713
sbasg120
g1000
sg123
F0.036799999999999999
sg124
g125
sg33
S'40'
p1714
sg127
g1
(g128
g12
(dp1715
g130
I6
sg131
g132
sg133
g134
sg135
g132
sg136
I01
sg34
g176
sg138
g134
sg139
I0
sg140
I0
sg141
I0
sg142
g134
sg35
g177
sg144
I0
stRp1716
sg146
g147
sg148
F0.98999999999999999
sg149
Nsg30
S'NoName'
p1717
sbag1
(g2
g3
NtRp1718
(dp1719
g6
g1
(g7
g3
NtRp1720
(dp1721
g10
g1
(g11
g12
(dtRp1722
sg14
g1
(g11
g12
(dtRp1723
sg16
g1
(g11
g12
(dtRp1724
sg18
g1
(g11
g12
(dtRp1725
sg20
g1
(g11
g12
(dtRp1726
sg22
g1
(g11
g12
(dtRp1727
sbsg24
g25
sg26
g27
((lp1728
g33
ag32
ag29
ag30
atRp1729
sg37
(lp1730
g1
(g2
g3
NtRp1731
(dp1732
g6
g1
(g7
g3
NtRp1733
(dp1734
g10
g1
(g11
g12
(dtRp1735
sg14
g1
(g11
g12
(dtRp1736
sg16
g1
(g11
g12
(dtRp1737
sg18
g1
(g11
g12
(dtRp1738
sg20
g1
(g11
g12
(dtRp1739
sg22
g1
(g11
g12
(dtRp1740
sbsg24
g25
sg26
g27
((lp1741
g33
ag32
ag29
ag30
atRp1742
sg37
(lp1743
g1
(g2
g3
NtRp1744
(dp1745
g6
g1
(g7
g3
NtRp1746
(dp1747
g10
g1
(g11
g12
(dtRp1748
sg14
g1
(g11
g12
(dtRp1749
sg16
g1
(g11
g12
(dtRp1750
sg18
g1
(g11
g12
(dtRp1751
sg20
g1
(g11
g12
(dtRp1752
sg22
g1
(g11
g12
(dtRp1753
sbsg24
S'Cma'
p1754
sg26
g27
((lp1755
g29
ag30
aS'sequence'
p1756
ag32
ag33
aS'species'
p1757
atRp1758
sg37
(lp1759
sg120
g1731
sg121
S'RWLSTKDLYSRLELPGLSQNVHAMFVMPLGFGNPLGDMFARLNNSFWLPPLSLEGAGTGWTVYPPLSHSGPSVDLAFHLTSSLLGAINFTNMRGPLYWTALLLLSLPVLAGTLLDRNFNTFEGGDPLYHLFWFFGHPEVYMIPGFGSHSTYKKFGMYASMGLGFVWSHHMYVGLDDRAYFTSATMIAPTGIKFSWLATYGGRPMLAFLFLFTGGTGVLNASDAFHDTYYVVHFHYVLSMGAFSLGYYYWSGLYNLYWFNFPMHFLGGMPRRPYPDAGWNSGSSYQLGPDESNEPH'
p1760
sg123
F0.24277000000000001
sg124
g125
sg33
S'114'
p1761
sg127
g1
(g128
g12
(dp1762
g130
I4
sg131
g132
sg133
g134
sg135
g132
sg136
I01
sg34
g137
sg138
g134
sg139
I0
sg140
I0
sg141
I0
sg142
g134
sg35
g143
sg144
I0
stRp1763
sg146
g147
sg148
F1
sg149
Nsg30
S'CmaltA'
p1764
sbag1
(g2
g3
NtRp1765
(dp1766
g6
g1
(g7
g3
NtRp1767
(dp1768
g10
g1
(g11
g12
(dtRp1769
sg14
g1
(g11
g12
(dtRp1770
sg16
g1
(g11
g12
(dtRp1771
sg18
g1
(g11
g12
(dtRp1772
sg20
g1
(g11
g12
(dtRp1773
sg22
g1
(g11
g12
(dtRp1774
sbsg24
g25
sg26
g27
((lp1775
g33
ag32
ag29
ag30
atRp1776
sg37
(lp1777
g1
(g2
g3
NtRp1778
(dp1779
g6
g1
(g7
g3
NtRp1780
(dp1781
g10
g1
(g11
g12
(dtRp1782
sg14
g1
(g11
g12
(dtRp1783
sg16
g1
(g11
g12
(dtRp1784
sg18
g1
(g11
g12
(dtRp1785
sg20
g1
(g11
g12
(dtRp1786
sg22
g1
(g11
g12
(dtRp1787
sbsg24
g25
sg26
g27
((lp1788
g33
ag32
ag29
ag30
atRp1789
sg37
(lp1790
g1
(g2
g3
NtRp1791
(dp1792
g6
g1
(g7
g3
NtRp1793
(dp1794
g10
g1
(g11
g12
(dtRp1795
sg14
g1
(g11
g12
(dtRp1796
sg16
g1
(g11
g12
(dtRp1797
sg18
g1
(g11
g12
(dtRp1798
sg20
g1
(g11
g12
(dtRp1799
sg22
g1
(g11
g12
(dtRp1800
sbsg24
g25
sg26
g27
((lp1801
g33
ag32
ag29
ag30
atRp1802
sg37
(lp1803
g1
(g2
g3
NtRp1804
(dp1805
g6
g1
(g7
g3
NtRp1806
(dp1807
g10
g1
(g11
g12
(dtRp1808
sg14
g1
(g11
g12
(dtRp1809
sg16
g1
(g11
g12
(dtRp1810
sg18
g1
(g11
g12
(dtRp1811
sg20
g1
(g11
g12
(dtRp1812
sg22
g1
(g11
g12
(dtRp1813
sbsg24
g25
sg26
g27
((lp1814
g33
ag32
ag29
ag30
atRp1815
sg37
(lp1816
g1
(g2
g3
NtRp1817
(dp1818
g6
g1
(g7
g3
NtRp1819
(dp1820
g10
g1
(g11
g12
(dtRp1821
sg14
g1
(g11
g12
(dtRp1822
sg16
g1
(g11
g12
(dtRp1823
sg18
g1
(g11
g12
(dtRp1824
sg20
g1
(g11
g12
(dtRp1825
sg22
g1
(g11
g12
(dtRp1826
sbsg24
S'Ctr'
p1827
sg26
g27
((lp1828
g29
ag30
aS'sequence'
p1829
ag32
ag33
aS'species'
p1830
atRp1831
sg37
(lp1832
sg120
g1804
sg121
S'RWLSTKDLYSRLELPGLNQNVHAMFVMPLGFGNPMGDMFARLNNSFWLPPLSLEGAGTGWTVYPPLSHSGPSVDLAFHLTSSLLGAINFTNMRGPLFWTALLLLSLPVLAGTLLDRNFNTFEGGDPLYHLFWFFGHPEVYIIPGFGSHSTYKKFGMYASIGLGFVWSHHMYVGLDDRAYFTSATMIAPTGIKFSWLATYGGRPMLAFLFLFTGGTGVLNASDAFHDSYYVVHFHYVLSMGAFSLGYYYWPGLYNLYWFNFPMHFLGGMPRRPYPDAGWNSGSSYQLGPDEANEPH'
p1833
sg123
F0.00064000000000000005
sg124
g125
sg33
S'123'
p1834
sg127
g1
(g128
g12
(dp1835
g130
I4
sg131
g132
sg133
g134
sg135
g132
sg136
I01
sg34
g137
sg138
g134
sg139
I0
sg140
I0
sg141
I0
sg142
g134
sg35
g143
sg144
I0
stRp1836
sg146
g147
sg148
F1
sg149
Nsg30
S'CtropB'
p1837
sbag1
(g2
g3
NtRp1838
(dp1839
g6
g1
(g7
g3
NtRp1840
(dp1841
g10
g1
(g11
g12
(dtRp1842
sg14
g1
(g11
g12
(dtRp1843
sg16
g1
(g11
g12
(dtRp1844
sg18
g1
(g11
g12
(dtRp1845
sg20
g1
(g11
g12
(dtRp1846
sg22
g1
(g11
g12
(dtRp1847
sbsg24
S'Ctr'
p1848
sg26
g27
((lp1849
g29
ag30
aS'sequence'
p1850
ag32
ag33
aS'species'
p1851
atRp1852
sg37
(lp1853
sg120
g1804
sg121
S'RWLSTKDLYSRLELPGLNQNVHAMFVMPLGFGNPMGDMFARLNNSFWLPPLSLEGAGTGWTVYPPLSHSGPSVDLAFHLTSSLLGAINFTNMRGPLFWTALLLLSLPVLAGTLLDRNFNTFEGGDPLYHLFWFFGHPEVYIIPGFGSHSTYKKFGMYASIGLGFVWSHHMYVGLDDRAYFTSATMIAPTGIKFSWLATYGGRPMLAFLFLFTGGTGVLNASDAFHDSYYVVHFHYVLSMGAFSLGYYYWPGLYNLYWFNFPMHFLGGMPRRPYPDAGWNSGSSYQLGPDEANEPH'
p1854
sg123
F0.00040000000000000002
sg124
g125
sg33
S'124'
p1855
sg127
g1
(g128
g12
(dp1856
g130
I4
sg131
g132
sg133
g134
sg135
g132
sg136
I01
sg34
g137
sg138
g134
sg139
I0
sg140
I0
sg141
I0
sg142
g134
sg35
g143
sg144
I0
stRp1857
sg146
g147
sg148
F1
sg149
Nsg30
S'CtropA'
p1858
sbasg120
g1791
sg123
F0.032030000000000003
sg124
g125
sg33
S'119'
p1859
sg127
g1
(g128
g12
(dp1860
g130
I6
sg131
g132
sg133
g134
sg135
g132
sg136
I01
sg34
g176
sg138
g134
sg139
I0
sg140
I0
sg141
I0
sg142
g134
sg35
g177
sg144
I0
stRp1861
sg146
g147
sg148
F0.98999999999999999
sg149
Nsg30
S'NoName'
p1862
sbag1
(g2
g3
NtRp1863
(dp1864
g6
g1
(g7
g3
NtRp1865
(dp1866
g10
g1
(g11
g12
(dtRp1867
sg14
g1
(g11
g12
(dtRp1868
sg16
g1
(g11
g12
(dtRp1869
sg18
g1
(g11
g12
(dtRp1870
sg20
g1
(g11
g12
(dtRp1871
sg22
g1
(g11
g12
(dtRp1872
sbsg24
S'Cso'
p1873
sg26
g27
((lp1874
g29
ag30
aS'sequence'
p1875
ag32
ag33
aS'species'
p1876
atRp1877
sg37
(lp1878
sg120
g1791
sg121
S'RWLSTKDLYSRLELPGLNQNVHAMFVMPLGFGNPMGDMFARLNNSFWLPPLSLEGAGTGWTVYPPLSHSGPSVDLAFHLTSSLLGAMNFTNMRGPLFWTALLLLSLPVLAGTLLDRNFNTFEGGDPLYHLFWFFGHPEVYIIPGFGSHSTYKKFGMYASIGLGFVWSHHMYVGLDDRAYFTSATMIAPTGIKFSWLATYGGRPMLAFLFLFTGGTGVLNASDAFHDTYYVVHFHYVLSMGAFSLGYYYWPGLYNLYWFNFPMHFLGGMPRRPYPDAGWNSGSSYQLGPDEANEPH'
p1879
sg123
F0.033649999999999999
sg124
g125
sg33
S'126'
p1880
sg127
g1
(g128
g12
(dp1881
g130
I4
sg131
g132
sg133
g134
sg135
g132
sg136
I01
sg34
g137
sg138
g134
sg139
I0
sg140
I0
sg141
I0
sg142
g134
sg35
g143
sg144
I0
stRp1882
sg146
g147
sg148
F1
sg149
Nsg30
S'CsojaA'
p1883
sbasg120
g1778
sg123
F0.019990000000000001
sg124
g125
sg33
S'117'
p1884
sg127
g1
(g128
g12
(dp1885
g130
I6
sg131
g132
sg133
g134
sg135
g132
sg136
I01
sg34
g176
sg138
g134
sg139
I0
sg140
I0
sg141
I0
sg142
g134
sg35
g177
sg144
I0
stRp1886
sg146
g147
sg148
F0.98999999999999999
sg149
Nsg30
S'NoName'
p1887
sbag1
(g2
g3
NtRp1888
(dp1889
g6
g1
(g7
g3
NtRp1890
(dp1891
g10
g1
(g11
g12
(dtRp1892
sg14
g1
(g11
g12
(dtRp1893
sg16
g1
(g11
g12
(dtRp1894
sg18
g1
(g11
g12
(dtRp1895
sg20
g1
(g11
g12
(dtRp1896
sg22
g1
(g11
g12
(dtRp1897
sbsg24
g25
sg26
g27
((lp1898
g33
ag32
ag29
ag30
atRp1899
sg37
(lp1900
g1
(g2
g3
NtRp1901
(dp1902
g6
g1
(g7
g3
NtRp1903
(dp1904
g10
g1
(g11
g12
(dtRp1905
sg14
g1
(g11
g12
(dtRp1906
sg16
g1
(g11
g12
(dtRp1907
sg18
g1
(g11
g12
(dtRp1908
sg20
g1
(g11
g12
(dtRp1909
sg22
g1
(g11
g12
(dtRp1910
sbsg24
S'Cte'
p1911
sg26
g27
((lp1912
g29
ag30
aS'sequence'
p1913
ag32
ag33
aS'species'
p1914
atRp1915
sg37
(lp1916
sg120
g1888
sg121
S'RWLSTKDLYSRLELPGLNQNVHAMFVMPLGFGNPMGDMFARLNNSFWLPPLSLEGAGTGWTVYPPLSHSGPSVDMAFHLTSSLLGAINFTNMRGPLFWTALLLLSLPVLAGTLLDRNFNTFEGGDPLYHLFWFFGHPEVYIIPGFGSHSTYKKFGMYASIGLGFVWSHHMFVGLDDRAYFTSATMMAPTGIKFSWLATYGGRPMLAFLFLFTGGTGVLNASDSMHDTYYVVHFHYVLSMGAFSLGYYYWPGLYNLYWFNFPMHFLGGMPRRPYPDAGWNSGSSLQLGPDESNEPH'
p1917
sg123
F0.084209999999999993
sg124
g125
sg33
S'129'
p1918
sg127
g1
(g128
g12
(dp1919
g130
I4
sg131
g132
sg133
g134
sg135
g132
sg136
I01
sg34
g137
sg138
g134
sg139
I0
sg140
I0
sg141
I0
sg142
g134
sg35
g143
sg144
I0
stRp1920
sg146
g147
sg148
F1
sg149
Nsg30
S'CtetrA'
p1921
sbag1
(g2
g3
NtRp1922
(dp1923
g6
g1
(g7
g3
NtRp1924
(dp1925
g10
g1
(g11
g12
(dtRp1926
sg14
g1
(g11
g12
(dtRp1927
sg16
g1
(g11
g12
(dtRp1928
sg18
g1
(g11
g12
(dtRp1929
sg20
g1
(g11
g12
(dtRp1930
sg22
g1
(g11
g12
(dtRp1931
sbsg24
g25
sg26
g27
((lp1932
g33
ag32
ag29
ag30
atRp1933
sg37
(lp1934
g1
(g2
g3
NtRp1935
(dp1936
g6
g1
(g7
g3
NtRp1937
(dp1938
g10
g1
(g11
g12
(dtRp1939
sg14
g1
(g11
g12
(dtRp1940
sg16
g1
(g11
g12
(dtRp1941
sg18
g1
(g11
g12
(dtRp1942
sg20
g1
(g11
g12
(dtRp1943
sg22
g1
(g11
g12
(dtRp1944
sbsg24
g25
sg26
g27
((lp1945
g33
ag32
ag29
ag30
atRp1946
sg37
(lp1947
g1
(g2
g3
NtRp1948
(dp1949
g6
g1
(g7
g3
NtRp1950
(dp1951
g10
g1
(g11
g12
(dtRp1952
sg14
g1
(g11
g12
(dtRp1953
sg16
g1
(g11
g12
(dtRp1954
sg18
g1
(g11
g12
(dtRp1955
sg20
g1
(g11
g12
(dtRp1956
sg22
g1
(g11
g12
(dtRp1957
sbsg24
S'Cvi'
p1958
sg26
g27
((lp1959
g29
ag30
aS'sequence'
p1960
ag32
ag33
aS'species'
p1961
atRp1962
sg37
(lp1963
sg120
g1935
sg121
S'RWFSTKDLYSRLELPGLNQNVHAMFVMPLGFGNPMGDMFARLNNSFWLPPLSLEGAGTGWTVYPPLSHSGPSVDLAFHLTSSLLGAINFTNMRGPLFWTALLLLSLPVLAGTLLDRNFNTFDGGDPLYHLFWFFGHPEVYMIPGFGSHSTYKKFGMYASIGLGFVWSHHMYVGLDDRAYFTSATMIAPTGIKFSWLSTYGGRPTLAFLFLFTGGTGVLNASDSMHDTYYVVHFHYVLSMGAFSLGYYYWPGLYNLYWFNFPMHFLGGMPRRPYPDSGWNSGSSFQLGPDESNEPH'
p1964
sg123
F0.03977
sg124
g125
sg33
S'133'
p1965
sg127
g1
(g128
g12
(dp1966
g130
I4
sg131
g132
sg133
g134
sg135
g132
sg136
I01
sg34
g137
sg138
g134
sg139
I0
sg140
I0
sg141
I0
sg142
g134
sg35
g143
sg144
I0
stRp1967
sg146
g147
sg148
F1
sg149
Nsg30
S'CviswA'
p1968
sbag1
(g2
g3
NtRp1969
(dp1970
g6
g1
(g7
g3
NtRp1971
(dp1972
g10
g1
(g11
g12
(dtRp1973
sg14
g1
(g11
g12
(dtRp1974
sg16
g1
(g11
g12
(dtRp1975
sg18
g1
(g11
g12
(dtRp1976
sg20
g1
(g11
g12
(dtRp1977
sg22
g1
(g11
g12
(dtRp1978
sbsg24
S'Csa'
p1979
sg26
g27
((lp1980
g29
ag30
aS'sequence'
p1981
ag32
ag33
aS'species'
p1982
atRp1983
sg37
(lp1984
sg120
g1935
sg121
S'RWFSTKDLYSRLELPGLNQNVHAMFVMPLGFGNPMGDMFARLNNSFWLPPLSLEGAGTGWTVYPPLSHSGPSVDLAFHLTSSLLGAINFTNMRGVLFWTALLLLSLPVLAGTLLDRNFNTFDGGDPLYHLFWFFGHPEVYIIPGFGSHSTFKKFGMYASIGLGFVWSHHMYVGLDDRAYFTSATMIAPTGIKFSWIATYGGRPTLAFLFLFTGGTGVLNASDSMHDTYYVVHFHYVLSMGAFSLGYYYWPGLYNLYWFNFPMHFLGGMPRRPYPDSGWNSGSSYQLGPDEGNEPH'
p1985
sg123
F0.065189999999999998
sg124
g125
sg33
S'135'
p1986
sg127
g1
(g128
g12
(dp1987
g130
I4
sg131
g132
sg133
g134
sg135
g132
sg136
I01
sg34
g137
sg138
g134
sg139
I0
sg140
I0
sg141
I0
sg142
g134
sg35
g143
sg144
I0
stRp1988
sg146
g147
sg148
F1
sg149
Nsg30
S'CsaraA'
p1989
sbasg120
g1922
sg123
F0.029960000000000001
sg124
g125
sg33
S'130'
p1990
sg127
g1
(g128
g12
(dp1991
g130
I6
sg131
g132
sg133
g134
sg135
g132
sg136
I01
sg34
g176
sg138
g134
sg139
I0
sg140
I0
sg141
I0
sg142
g134
sg35
g177
sg144
I0
stRp1992
sg146
g147
sg148
F0.98999999999999999
sg149
Nsg30
S'NoName'
p1993
sbag1
(g2
g3
NtRp1994
(dp1995
g6
g1
(g7
g3
NtRp1996
(dp1997
g10
g1
(g11
g12
(dtRp1998
sg14
g1
(g11
g12
(dtRp1999
sg16
g1
(g11
g12
(dtRp2000
sg18
g1
(g11
g12
(dtRp2001
sg20
g1
(g11
g12
(dtRp2002
sg22
g1
(g11
g12
(dtRp2003
sbsg24
S'Cpr'
p2004
sg26
g27
((lp2005
g29
ag30
aS'sequence'
p2006
ag32
ag33
aS'species'
p2007
atRp2008
sg37
(lp2009
sg120
g1922
sg121
S'RWFSTKDEYSRLELPGLNQNVHAMFVMPLGFGNPMGDMFARLNNSFWLPPLSLEGAGTGWTVYPPLSHSGPSVDLAFHLTSSLLGAINFTNMRGPLFWTALLLLSLPVLTGTLLDRNFNTFDGGDPLYHLFWFFGHPEVYMIPGFGSHSTYKKFGMYASMGLGFVWSHHMFVGLDDRAYFTSATMMAPTGIKFSWLATYGGRPMLAFLFLFTGGTGVLNASDSMHDTYYVVHFHYVLSMGAFSLGYYYWPGLYNLYWFNFPMHFLGGMPRRPYPDSGWNSGSSVQLGPDENNEPH'
p2010
sg123
F0.17724999999999999
sg124
g125
sg33
S'137'
p2011
sg127
g1
(g128
g12
(dp2012
g130
I4
sg131
g132
sg133
g134
sg135
g132
sg136
I01
sg34
g137
sg138
g134
sg139
I0
sg140
I0
sg141
I0
sg142
g134
sg35
g143
sg144
I0
stRp2013
sg146
g147
sg148
F1
sg149
Nsg30
S'CpracA'
p2014
sbasg120
g1888
sg123
F0.02281
sg124
g125
sg33
S'127'
p2015
sg127
g1
(g128
g12
(dp2016
g130
I6
sg131
g132
sg133
g134
sg135
g132
sg136
I01
sg34
g176
sg138
g134
sg139
I0
sg140
I0
sg141
I0
sg142
g134
sg35
g177
sg144
I0
stRp2017
sg146
g147
sg148
F0.98999999999999999
sg149
Nsg30
S'NoName'
p2018
sbasg120
g1778
sg123
F0.01154
sg124
g125
sg33
S'120'
p2019
sg127
g1
(g128
g12
(dp2020
g130
I6
sg131
g132
sg133
g134
sg135
g132
sg136
I01
sg34
g176
sg138
g134
sg139
I0
sg140
I0
sg141
I0
sg142
g134
sg35
g177
sg144
I0
stRp2021
sg146
g147
sg148
F0.98999999999999999
sg149
Nsg30
S'NoName'
p2022
sbasg120
g1765
sg123
F0.02138
sg124
g125
sg33
S'116'
p2023
sg127
g1
(g128
g12
(dp2024
g130
I6
sg131
g132
sg133
g134
sg135
g132
sg136
I01
sg34
g176
sg138
g134
sg139
I0
sg140
I0
sg141
I0
sg142
g134
sg35
g177
sg144
I0
stRp2025
sg146
g147
sg148
F0.98999999999999999
sg149
Nsg30
S'NoName'
p2026
sbag1
(g2
g3
NtRp2027
(dp2028
g6
g1
(g7
g3
NtRp2029
(dp2030
g10
g1
(g11
g12
(dtRp2031
sg14
g1
(g11
g12
(dtRp2032
sg16
g1
(g11
g12
(dtRp2033
sg18
g1
(g11
g12
(dtRp2034
sg20
g1
(g11
g12
(dtRp2035
sg22
g1
(g11
g12
(dtRp2036
sbsg24
g25
sg26
g27
((lp2037
g33
ag32
ag29
ag30
atRp2038
sg37
(lp2039
g1
(g2
g3
NtRp2040
(dp2041
g6
g1
(g7
g3
NtRp2042
(dp2043
g10
g1
(g11
g12
(dtRp2044
sg14
g1
(g11
g12
(dtRp2045
sg16
g1
(g11
g12
(dtRp2046
sg18
g1
(g11
g12
(dtRp2047
sg20
g1
(g11
g12
(dtRp2048
sg22
g1
(g11
g12
(dtRp2049
sbsg24
S'Cne'
p2050
sg26
g27
((lp2051
g29
ag30
aS'sequence'
p2052
ag32
ag33
aS'species'
p2053
atRp2054
sg37
(lp2055
sg120
g2027
sg121
S'RWLSTKDLYSRLELPGLNQNVHAMFVMPLGFGNPMGDMFARLNNSFWLPPLSLEGAGTGWTVYPPLSHSGPSVDLAFHLTSSLLGAINFTNMRGPLFWTALLLLSLPVLAGTLLDRNFNTFDGGDPLYHLFWFFGHPEVYIIPGFGSHSTYKKFGMYASIGLGFVWSHHMYVGLDDRAYFTSATMIAPTGIKFSWLATYGGRPMLAFLFLFTGGTGVLNASDAFHDTYYVVHFHYVLSMGAFSLGYYYWPGLYNLYWFNFPMHFLGGMPRRPYPDSGWNSGSSYQLGPDESNEPH'
p2056
sg123
F0.04879
sg124
g125
sg33
S'140'
p2057
sg127
g1
(g128
g12
(dp2058
g130
I4
sg131
g132
sg133
g134
sg135
g132
sg136
I01
sg34
g137
sg138
g134
sg139
I0
sg140
I0
sg141
I0
sg142
g134
sg35
g143
sg144
I0
stRp2059
sg146
g147
sg148
F1
sg149
Nsg30
S'CneerA'
p2060
sbag1
(g2
g3
NtRp2061
(dp2062
g6
g1
(g7
g3
NtRp2063
(dp2064
g10
g1
(g11
g12
(dtRp2065
sg14
g1
(g11
g12
(dtRp2066
sg16
g1
(g11
g12
(dtRp2067
sg18
g1
(g11
g12
(dtRp2068
sg20
g1
(g11
g12
(dtRp2069
sg22
g1
(g11
g12
(dtRp2070
sbsg24
S'Cfr'
p2071
sg26
g27
((lp2072
g29
ag30
aS'sequence'
p2073
ag32
ag33
aS'species'
p2074
atRp2075
sg37
(lp2076
sg120
g2027
sg121
S'RWLSTKDLYSRLELPGLNQNVHAMFVMPLGFGNPMGDMFARLNNSFWLPPLSLEGAGTGWTVYPPLSHSGPSVDLAFHLTSSLLGAMNFTNMRGPLFWTALLLLSLPVLAGTLLDRNFNTFDGGDPLYHLFWFFGHPEVYIIPGFGSHSTYKKFGMYASIGLGFVWSHHMYVGLDDRAYFTSATMIAPTGIKFSWLSTYGGRPMLAFLFLFTGGTGVLNASDAFHDTYYVVHFHYVLSMGAFSLGYYYWPGLYNLYWFNFPMHFLGGMPRRPYPDSGWNSGSSYQLGPDESNEPH'
p2077
sg123
F0.050279999999999998
sg124
g125
sg33
S'142'
p2078
sg127
g1
(g128
g12
(dp2079
g130
I4
sg131
g132
sg133
g134
sg135
g132
sg136
I01
sg34
g137
sg138
g134
sg139
I0
sg140
I0
sg141
I0
sg142
g134
sg35
g143
sg144
I0
stRp2080
sg146
g147
sg148
F1
sg149
Nsg30
S'CfrijA'
p2081
sbasg120
g1765
sg123
F0.11378000000000001
sg124
g125
sg33
S'132'
p2082
sg127
g1
(g128
g12
(dp2083
g130
I6
sg131
g132
sg133
g134
sg135
g132
sg136
I01
sg34
g176
sg138
g134
sg139
I0
sg140
I0
sg141
I0
sg142
g134
sg35
g177
sg144
I0
stRp2084
sg146
g147
sg148
F0.98999999999999999
sg149
Nsg30
S'NoName'
p2085
sbasg120
g1731
sg123
F0.076910000000000006
sg124
g125
sg33
S'111'
p2086
sg127
g1
(g128
g12
(dp2087
g130
I6
sg131
g132
sg133
g134
sg135
g132
sg136
I01
sg34
g176
sg138
g134
sg139
I0
sg140
I0
sg141
I0
sg142
g134
sg35
g177
sg144
I0
stRp2088
sg146
g147
sg148
F0.98999999999999999
sg149
Nsg30
S'NoName'
p2089
sbasg120
g1718
sg123
F0.022950000000000002
sg124
g125
sg33
S'110'
p2090
sg127
g1
(g128
g12
(dp2091
g130
I6
sg131
g132
sg133
g134
sg135
g132
sg136
I01
sg34
g176
sg138
g134
sg139
I0
sg140
I0
sg141
I0
sg142
g134
sg35
g177
sg144
I0
stRp2092
sg146
g147
sg148
F0.65000000000000002
sg149
Nsg30
S'NoName'
p2093
sbag1
(g2
g3
NtRp2094
(dp2095
g6
g1
(g7
g3
NtRp2096
(dp2097
g10
g1
(g11
g12
(dtRp2098
sg14
g1
(g11
g12
(dtRp2099
sg16
g1
(g11
g12
(dtRp2100
sg18
g1
(g11
g12
(dtRp2101
sg20
g1
(g11
g12
(dtRp2102
sg22
g1
(g11
g12
(dtRp2103
sbsg24
g25
sg26
g27
((lp2104
g33
ag32
ag29
ag30
atRp2105
sg37
(lp2106
g1
(g2
g3
NtRp2107
(dp2108
g6
g1
(g7
g3
NtRp2109
(dp2110
g10
g1
(g11
g12
(dtRp2111
sg14
g1
(g11
g12
(dtRp2112
sg16
g1
(g11
g12
(dtRp2113
sg18
g1
(g11
g12
(dtRp2114
sg20
g1
(g11
g12
(dtRp2115
sg22
g1
(g11
g12
(dtRp2116
sbsg24
g25
sg26
g27
((lp2117
g33
ag32
ag29
ag30
atRp2118
sg37
(lp2119
g1
(g2
g3
NtRp2120
(dp2121
g6
g1
(g7
g3
NtRp2122
(dp2123
g10
g1
(g11
g12
(dtRp2124
sg14
g1
(g11
g12
(dtRp2125
sg16
g1
(g11
g12
(dtRp2126
sg18
g1
(g11
g12
(dtRp2127
sg20
g1
(g11
g12
(dtRp2128
sg22
g1
(g11
g12
(dtRp2129
sbsg24
S'Cgi'
p2130
sg26
g27
((lp2131
g29
ag30
aS'sequence'
p2132
ag32
ag33
aS'species'
p2133
atRp2134
sg37
(lp2135
sg120
g2107
sg121
S'RWLSTKDLYSRLELAGLNQNVHAMFVMPLGFGNPMGDMFARLNNSFWLPPLSLEGAGTGWTVYPPLSHSGPSVDMAFHLTSSLLGAINFTNMRGPLFWTALLLLSLPVLAATLLDRNFNTFEGGDPLYHAFWFFGHPEVYIIPGFGSHSTYKKFGMYASIGLGFVWSHHMYVGLDDRAYFTSATMIAPTGIKFSWLATYGGRPMLAFLFLFTGGTGVLNASDAFHDTYYVVHFHYVLSMGAFSLGYYYWPGLYNLYWFNFPMHFLGGMPRRPYPDAGWNSGSSYQLGPDESNEPH'
p2136
sg123
F0.22796
sg124
g125
sg33
S'146'
p2137
sg127
g1
(g128
g12
(dp2138
g130
I4
sg131
g132
sg133
g134
sg135
g132
sg136
I01
sg34
g137
sg138
g134
sg139
I0
sg140
I0
sg141
I0
sg142
g134
sg35
g143
sg144
I0
stRp2139
sg146
g147
sg148
F1
sg149
Nsg30
S'CgigaA'
p2140
sbag1
(g2
g3
NtRp2141
(dp2142
g6
g1
(g7
g3
NtRp2143
(dp2144
g10
g1
(g11
g12
(dtRp2145
sg14
g1
(g11
g12
(dtRp2146
sg16
g1
(g11
g12
(dtRp2147
sg18
g1
(g11
g12
(dtRp2148
sg20
g1
(g11
g12
(dtRp2149
sg22
g1
(g11
g12
(dtRp2150
sbsg24
S'Cbu'
p2151
sg26
g27
((lp2152
g29
ag30
aS'sequence'
p2153
ag32
ag33
aS'species'
p2154
atRp2155
sg37
(lp2156
sg120
g2107
sg121
S'RWLSTKDLYSRLELAGLNQNVHAMFVMPLGFGNPMGDMFARLNNSFWLPPLSLEGAGTGWTVYPPLSHSGPSVDLAFHLTSSLLGAINFTNMRGPLFWTALLLLSLPVLAGTLLDRNFNTFEGGDPLYHLFWFFGHPEVYIIPGFGSHGTYKKFGMYASIGLGFVWSHHMFVGLDDRAYFTSATMIAPTGIKFSWLATYGGRPMLAFLFLFTGGTGVLNASDAFHDTYYVVHFHYVLSMGAFSLAYYYWPGLYNLFWFNFPMHFLGGMPRRPYPDAGWNSGSSYQLGPDESNEPH'
p2157
sg123
F0.26118000000000002
sg124
g125
sg33
S'148'
p2158
sg127
g1
(g128
g12
(dp2159
g130
I4
sg131
g132
sg133
g134
sg135
g132
sg136
I01
sg34
g137
sg138
g134
sg139
I0
sg140
I0
sg141
I0
sg142
g134
sg35
g143
sg144
I0
stRp2160
sg146
g147
sg148
F1
sg149
Nsg30
S'CbuenA'
p2161
sbasg120
g2094
sg123
F0.037260000000000001
sg124
g125
sg33
S'143'
p2162
sg127
g1
(g128
g12
(dp2163
g130
I6
sg131
g132
sg133
g134
sg135
g132
sg136
I01
sg34
g176
sg138
g134
sg139
I0
sg140
I0
sg141
I0
sg142
g134
sg35
g177
sg144
I0
stRp2164
sg146
g147
sg148
F0.98999999999999999
sg149
Nsg30
S'NoName'
p2165
sbag1
(g2
g3
NtRp2166
(dp2167
g6
g1
(g7
g3
NtRp2168
(dp2169
g10
g1
(g11
g12
(dtRp2170
sg14
g1
(g11
g12
(dtRp2171
sg16
g1
(g11
g12
(dtRp2172
sg18
g1
(g11
g12
(dtRp2173
sg20
g1
(g11
g12
(dtRp2174
sg22
g1
(g11
g12
(dtRp2175
sbsg24
g25
sg26
g27
((lp2176
g33
ag32
ag29
ag30
atRp2177
sg37
(lp2178
g1
(g2
g3
NtRp2179
(dp2180
g6
g1
(g7
g3
NtRp2181
(dp2182
g10
g1
(g11
g12
(dtRp2183
sg14
g1
(g11
g12
(dtRp2184
sg16
g1
(g11
g12
(dtRp2185
sg18
g1
(g11
g12
(dtRp2186
sg20
g1
(g11
g12
(dtRp2187
sg22
g1
(g11
g12
(dtRp2188
sbsg24
S'Cdu'
p2189
sg26
g27
((lp2190
g29
ag30
aS'sequence'
p2191
ag32
ag33
aS'species'
p2192
atRp2193
sg37
(lp2194
sg120
g2166
sg121
S'RWLSTKDLYSRLELPGLNQNVHAMFVMPLGFGNPMGDMFARLNNSFWLPPLSLEGAGTGWTVYPPLSHSGPSVDLAFHLTSSLLGAINFTNMRGPLYWTALLLLSLPVLAGTLLDRNFNTFEGGDPLYHLFWFFGHPEVYIIPGFGSHSTYKKFGMYASIGLGFVWSHHMYVGLDDRAYFTSATMIAPTGIKFSWLATYGGRPMLAFLFLFTGGTGVLNASDAFHDTYYVVHFHYVLSMGAFSLGYYYWPGLYNLYWFNFPMHFLGGMPRRPYPDAGWNSGSSYQLGPDESNEPH'
p2195
sg123
F0.025069999999999999
sg124
g125
sg33
S'154'
p2196
sg127
g1
(g128
g12
(dp2197
g130
I4
sg131
g132
sg133
g134
sg135
g132
sg136
I01
sg34
g137
sg138
g134
sg139
I0
sg140
I0
sg141
I0
sg142
g134
sg35
g143
sg144
I0
stRp2198
sg146
g147
sg148
F1
sg149
Nsg30
S'CdublA'
p2199
sbag1
(g2
g3
NtRp2200
(dp2201
g6
g1
(g7
g3
NtRp2202
(dp2203
g10
g1
(g11
g12
(dtRp2204
sg14
g1
(g11
g12
(dtRp2205
sg16
g1
(g11
g12
(dtRp2206
sg18
g1
(g11
g12
(dtRp2207
sg20
g1
(g11
g12
(dtRp2208
sg22
g1
(g11
g12
(dtRp2209
sbsg24
g25
sg26
g27
((lp2210
g33
ag32
ag29
ag30
atRp2211
sg37
(lp2212
g1
(g2
g3
NtRp2213
(dp2214
g6
g1
(g7
g3
NtRp2215
(dp2216
g10
g1
(g11
g12
(dtRp2217
sg14
g1
(g11
g12
(dtRp2218
sg16
g1
(g11
g12
(dtRp2219
sg18
g1
(g11
g12
(dtRp2220
sg20
g1
(g11
g12
(dtRp2221
sg22
g1
(g11
g12
(dtRp2222
sbsg24
g25
sg26
g27
((lp2223
g33
ag32
ag29
ag30
atRp2224
sg37
(lp2225
g1
(g2
g3
NtRp2226
(dp2227
g6
g1
(g7
g3
NtRp2228
(dp2229
g10
g1
(g11
g12
(dtRp2230
sg14
g1
(g11
g12
(dtRp2231
sg16
g1
(g11
g12
(dtRp2232
sg18
g1
(g11
g12
(dtRp2233
sg20
g1
(g11
g12
(dtRp2234
sg22
g1
(g11
g12
(dtRp2235
sbsg24
g25
sg26
g27
((lp2236
g33
ag32
ag29
ag30
atRp2237
sg37
(lp2238
g1
(g2
g3
NtRp2239
(dp2240
g6
g1
(g7
g3
NtRp2241
(dp2242
g10
g1
(g11
g12
(dtRp2243
sg14
g1
(g11
g12
(dtRp2244
sg16
g1
(g11
g12
(dtRp2245
sg18
g1
(g11
g12
(dtRp2246
sg20
g1
(g11
g12
(dtRp2247
sg22
g1
(g11
g12
(dtRp2248
sbsg24
g25
sg26
g27
((lp2249
g33
ag32
ag29
ag30
atRp2250
sg37
(lp2251
g1
(g2
g3
NtRp2252
(dp2253
g6
g1
(g7
g3
NtRp2254
(dp2255
g10
g1
(g11
g12
(dtRp2256
sg14
g1
(g11
g12
(dtRp2257
sg16
g1
(g11
g12
(dtRp2258
sg18
g1
(g11
g12
(dtRp2259
sg20
g1
(g11
g12
(dtRp2260
sg22
g1
(g11
g12
(dtRp2261
sbsg24
S'Cal'
p2262
sg26
g27
((lp2263
g29
ag30
aS'sequence'
p2264
ag32
ag33
aS'species'
p2265
atRp2266
sg37
(lp2267
sg120
g2239
sg121
S'RWLSTKDLYSRLELPGLNQNVHAMFVMPLGFGNPMGDMFARLNNSFWLPPLSLEGAGTGWTVYPPLSHSGPSVDLAFHLTSSLLGAINFTNMRGPLFWTALLLLSLPVLAGTLLDRNFNTFEGGDPLYHLFWFFGHPEVYIIPGFGSHSTYKKFGMYASIGLGFVWSHHMYVGLDDRAYFTSATMIAPTGIKFSWLATYGGRPMLAFLFLFTGGTGVLNASDAFHDTYYVVHFHYVLSMGAFSLGYYYWPGLYNLYWFNFPMHFLGGMPRRPYPDAGWNSGSSYQLGPDESNEPH'
p2268
sg123
F0.00025000000000000001
sg124
g125
sg33
S'162'
p2269
sg127
g1
(g128
g12
(dp2270
g130
I4
sg131
g132
sg133
g134
sg135
g132
sg136
I01
sg34
g137
sg138
g134
sg139
I0
sg140
I0
sg141
I0
sg142
g134
sg35
g143
sg144
I0
stRp2271
sg146
g147
sg148
F1
sg149
Nsg30
S'CalbiE'
p2272
sbag1
(g2
g3
NtRp2273
(dp2274
g6
g1
(g7
g3
NtRp2275
(dp2276
g10
g1
(g11
g12
(dtRp2277
sg14
g1
(g11
g12
(dtRp2278
sg16
g1
(g11
g12
(dtRp2279
sg18
g1
(g11
g12
(dtRp2280
sg20
g1
(g11
g12
(dtRp2281
sg22
g1
(g11
g12
(dtRp2282
sbsg24
S'Cal'
p2283
sg26
g27
((lp2284
g29
ag30
aS'sequence'
p2285
ag32
ag33
aS'species'
p2286
atRp2287
sg37
(lp2288
sg120
g2239
sg121
S'RWLSTKDLYSRLELPGLNQNVHAMFVMPLGFGNPMGDMFARLNNSFWLPPLSLEGAGTGWTVYPPLSHSGPSVDLAFHLTSSLLGAINFTNMRGPLFWTALLLLSLPVLAGTLLDRNFNTFEGGDPLYHLFWFFGHPEVYIIPGFGSHSTYKKFGMYASIGLGFVWSHHMYVGLDDRAYFTSATMIAPTGIKFSWLATYGGRPMLAFLFLFTGGTGVLNASDAFHDTYYVVHFHYVLSMGAFSLGYYYWPGLYNLYWFNFPMHFLGGMPRRPYPDAGWNSGSSYQLGPDESNEPH'
p2289
sg123
F0.00050000000000000001
sg124
g125
sg33
S'164'
p2290
sg127
g1
(g128
g12
(dp2291
g130
I4
sg131
g132
sg133
g134
sg135
g132
sg136
I01
sg34
g137
sg138
g134
sg139
I0
sg140
I0
sg141
I0
sg142
g134
sg35
g143
sg144
I0
stRp2292
sg146
g147
sg148
F1
sg149
Nsg30
S'CalbiD'
p2293
sbasg120
g2226
sg123
F0.00051999999999999995
sg124
g125
sg33
S'159'
p2294
sg127
g1
(g128
g12
(dp2295
g130
I6
sg131
g132
sg133
g134
sg135
g132
sg136
I01
sg34
g176
sg138
g134
sg139
I0
sg140
I0
sg141
I0
sg142
g134
sg35
g177
sg144
I0
stRp2296
sg146
g147
sg148
F0.73999999999999999
sg149
Nsg30
S'NoName'
p2297
sbag1
(g2
g3
NtRp2298
(dp2299
g6
g1
(g7
g3
NtRp2300
(dp2301
g10
g1
(g11
g12
(dtRp2302
sg14
g1
(g11
g12
(dtRp2303
sg16
g1
(g11
g12
(dtRp2304
sg18
g1
(g11
g12
(dtRp2305
sg20
g1
(g11
g12
(dtRp2306
sg22
g1
(g11
g12
(dtRp2307
sbsg24
S'Cal'
p2308
sg26
g27
((lp2309
g29
ag30
aS'sequence'
p2310
ag32
ag33
aS'species'
p2311
atRp2312
sg37
(lp2313
sg120
g2226
sg121
S'RWLSTKDLYSRLELPGLNQNVHAMFVMPLGFGNPMGDMFARLNNSFWLPPLSLEGAGTGWTVYPPLSHSGPSVDLAFHLTSSLLGAINFTNMRGPLFWTALLLLSLPVLAGTLLDRNFNTFEGGDPLYHLFWFFGHPEVYIIPGFGSHSTYKKFGMYASIGLGFVWSHHMYVGLDDRAYFTSATMIAPTGIKFSWLATYGGRPMLAFLFLFTGGTGVLNASDAFHDTYYVVHFHYVLSMGAFSLGYYYWPGLYNLYWFNFPMHFLGGMPRRPYPDAGWNSGSSYQLGPDESNEPH'
p2314
sg123
F0.00012
sg124
g125
sg33
S'166'
p2315
sg127
g1
(g128
g12
(dp2316
g130
I4
sg131
g132
sg133
g134
sg135
g132
sg136
I01
sg34
g137
sg138
g134
sg139
I0
sg140
I0
sg141
I0
sg142
g134
sg35
g143
sg144
I0
stRp2317
sg146
g147
sg148
F1
sg149
Nsg30
S'CalbiC'
p2318
sbasg120
g2213
sg123
F1.0000000000000001e-05
sg124
g125
sg33
S'157'
p2319
sg127
g1
(g128
g12
(dp2320
g130
I6
sg131
g132
sg133
g134
sg135
g132
sg136
I01
sg34
g176
sg138
g134
sg139
I0
sg140
I0
sg141
I0
sg142
g134
sg35
g177
sg144
I0
stRp2321
sg146
g147
sg148
F1
sg149
Nsg30
S'NoName'
p2322
sbag1
(g2
g3
NtRp2323
(dp2324
g6
g1
(g7
g3
NtRp2325
(dp2326
g10
g1
(g11
g12
(dtRp2327
sg14
g1
(g11
g12
(dtRp2328
sg16
g1
(g11
g12
(dtRp2329
sg18
g1
(g11
g12
(dtRp2330
sg20
g1
(g11
g12
(dtRp2331
sg22
g1
(g11
g12
(dtRp2332
sbsg24
S'Cal'
p2333
sg26
g27
((lp2334
g29
ag30
aS'sequence'
p2335
ag32
ag33
aS'species'
p2336
atRp2337
sg37
(lp2338
sg120
g2213
sg121
S'RWLSTKDLYSRLELPGLNQNVHAMFVMPLGFGNPMGDMFARLNNSFWLPPLSLEGAGTGWTVYPPLSHSGPSVDLAFHLTSSLLGAINFTNMRGPLFWTALLLLSLPVLAGTLLDRNFNTFEGGDPLYHLFWFFGHPEVYIIPGFGSHSTYKKFGMYASIGLGFVWSHHMYVGLDDRAYFTSATMIAPTGIKFSWLATYGGRPMLAFLFLFTGGTGVLNASDAFHDTYYVVHFHYVLSMGAFSLGYYYWPGLYNLYWFNFPMHFLGGMPRRPYPDAGWNSGSSYQLGPDESNEPH'
p2339
sg123
F0.00016000000000000001
sg124
g125
sg33
S'169'
p2340
sg127
g1
(g128
g12
(dp2341
g130
I4
sg131
g132
sg133
g134
sg135
g132
sg136
I01
sg34
g137
sg138
g134
sg139
I0
sg140
I0
sg141
I0
sg142
g134
sg35
g143
sg144
I0
stRp2342
sg146
g147
sg148
F1
sg149
Nsg30
S'CalbiB'
p2343
sbasg120
g2200
sg123
F1.0000000000000001e-05
sg124
g125
sg33
S'155'
p2344
sg127
g1
(g128
g12
(dp2345
g130
I6
sg131
g132
sg133
g134
sg135
g132
sg136
I01
sg34
g176
sg138
g134
sg139
I0
sg140
I0
sg141
I0
sg142
g134
sg35
g177
sg144
I0
stRp2346
sg146
g147
sg148
F1
sg149
Nsg30
S'NoName'
p2347
sbag1
(g2
g3
NtRp2348
(dp2349
g6
g1
(g7
g3
NtRp2350
(dp2351
g10
g1
(g11
g12
(dtRp2352
sg14
g1
(g11
g12
(dtRp2353
sg16
g1
(g11
g12
(dtRp2354
sg18
g1
(g11
g12
(dtRp2355
sg20
g1
(g11
g12
(dtRp2356
sg22
g1
(g11
g12
(dtRp2357
sbsg24
S'Cal'
p2358
sg26
g27
((lp2359
g29
ag30
aS'sequence'
p2360
ag32
ag33
aS'species'
p2361
atRp2362
sg37
(lp2363
sg120
g2200
sg121
S'RWLSTKDLYSRLELPGLNQNVHAMFVMPLGFGNPMGDMFARLNNSFWLPPLSLEGAGTGWTVYPPLSHSGPSVDLAFHLTSSLLGAINFTNMRGPLFWTALLLLSLPVLAGTLLDRNFNTFEGGDPLYHLFWFFGHPEVYIIPGFGSHSTYKKFGMYASIGLGFVWSHHMYVGLDDRAYFTSATMIAPTGIKFSWLATYGGRPMLAFLFLFTGGTGVLNASDAFHDTYYVVHFHYVLSMGAFSLGYYYWPGLYNLYWFNFPMHFLGGMPRRPYPDAGWNSGSSYQLGPDESNEPH'
p2364
sg123
F0.00013999999999999999
sg124
g125
sg33
S'170'
p2365
sg127
g1
(g128
g12
(dp2366
g130
I4
sg131
g132
sg133
g134
sg135
g132
sg136
I01
sg34
g137
sg138
g134
sg139
I0
sg140
I0
sg141
I0
sg142
g134
sg35
g143
sg144
I0
stRp2367
sg146
g147
sg148
F1
sg149
Nsg30
S'CalbiA'
p2368
sbasg120
g2166
sg123
F0.014959999999999999
sg124
g125
sg33
S'150'
p2369
sg127
g1
(g128
g12
(dp2370
g130
I6
sg131
g132
sg133
g134
sg135
g132
sg136
I01
sg34
g176
sg138
g134
sg139
I0
sg140
I0
sg141
I0
sg142
g134
sg35
g177
sg144
I0
stRp2371
sg146
g147
sg148
F0.98999999999999999
sg149
Nsg30
S'NoName'
p2372
sbasg120
g2094
sg123
F0.05287
sg124
g125
sg33
S'145'
p2373
sg127
g1
(g128
g12
(dp2374
g130
I6
sg131
g132
sg133
g134
sg135
g132
sg136
I01
sg34
g176
sg138
g134
sg139
I0
sg140
I0
sg141
I0
sg142
g134
sg35
g177
sg144
I0
stRp2375
sg146
g147
sg148
F0.98999999999999999
sg149
Nsg30
S'NoName'
p2376
sbasg120
g1718
sg123
F0.037499999999999999
sg124
g125
sg33
S'139'
p2377
sg127
g1
(g128
g12
(dp2378
g130
I6
sg131
g132
sg133
g134
sg135
g132
sg136
I01
sg34
g176
sg138
g134
sg139
I0
sg140
I0
sg141
I0
sg142
g134
sg35
g177
sg144
I0
stRp2379
sg146
g147
sg148
F0.98999999999999999
sg149
Nsg30
S'NoName'
p2380
sbasg120
g1000
sg123
F0.10766000000000001
sg124
g125
sg33
S'102'
p2381
sg127
g1
(g128
g12
(dp2382
g130
I6
sg131
g132
sg133
g134
sg135
g132
sg136
I01
sg34
g176
sg138
g134
sg139
I0
sg140
I0
sg141
I0
sg142
g134
sg35
g177
sg144
I0
stRp2383
sg146
g147
sg148
F0.98999999999999999
sg149
Nsg30
S'NoName'
p2384
sbasg120
g966
sg123
F0.093560000000000004
sg124
g125
sg33
S'36'
p2385
sg127
g1
(g128
g12
(dp2386
g130
I6
sg131
g132
sg133
g134
sg135
g132
sg136
I01
sg34
g176
sg138
g134
sg139
I0
sg140
I0
sg141
I0
sg142
g134
sg35
g177
sg144
I0
stRp2387
sg146
g147
sg148
F0.97999999999999998
sg149
Nsg30
S'NoName'
p2388
sbasg120
g953
sg123
F0.036760000000000001
sg124
g125
sg33
S'34'
p2389
sg127
g1
(g128
g12
(dp2390
g130
I6
sg131
g132
sg133
g134
sg135
g132
sg136
I01
sg34
g176
sg138
g134
sg139
I0
sg140
I0
sg141
I0
sg142
g134
sg35
g177
sg144
I0
stRp2391
sg146
g147
sg148
F0.97999999999999998
sg149
Nsg30
S'NoName'
p2392
sbag1
(g2
g3
NtRp2393
(dp2394
g6
g1
(g7
g3
NtRp2395
(dp2396
g10
g1
(g11
g12
(dtRp2397
sg14
g1
(g11
g12
(dtRp2398
sg16
g1
(g11
g12
(dtRp2399
sg18
g1
(g11
g12
(dtRp2400
sg20
g1
(g11
g12
(dtRp2401
sg22
g1
(g11
g12
(dtRp2402
sbsg24
g25
sg26
g27
((lp2403
g33
ag32
ag29
ag30
atRp2404
sg37
(lp2405
g1
(g2
g3
NtRp2406
(dp2407
g6
g1
(g7
g3
NtRp2408
(dp2409
g10
g1
(g11
g12
(dtRp2410
sg14
g1
(g11
g12
(dtRp2411
sg16
g1
(g11
g12
(dtRp2412
sg18
g1
(g11
g12
(dtRp2413
sg20
g1
(g11
g12
(dtRp2414
sg22
g1
(g11
g12
(dtRp2415
sbsg24
g25
sg26
g27
((lp2416
g33
ag32
ag29
ag30
atRp2417
sg37
(lp2418
g1
(g2
g3
NtRp2419
(dp2420
g6
g1
(g7
g3
NtRp2421
(dp2422
g10
g1
(g11
g12
(dtRp2423
sg14
g1
(g11
g12
(dtRp2424
sg16
g1
(g11
g12
(dtRp2425
sg18
g1
(g11
g12
(dtRp2426
sg20
g1
(g11
g12
(dtRp2427
sg22
g1
(g11
g12
(dtRp2428
sbsg24
S'Csu'
p2429
sg26
g27
((lp2430
g29
ag30
aS'sequence'
p2431
ag32
ag33
aS'species'
p2432
atRp2433
sg37
(lp2434
sg120
g2406
sg121
S'RWLSTKDLYSRMELPGLNQNVHAMFIMPLGLGNPLGDMFARLNNSFWLPPLSLEGAGTGWTVYPPLSHSGPSVDLAFHLTSSLLGAINFTNMRGPLYWTALLLLSLPVLAATLLDRNFNTFEGGDPLYHLFWFFGHPEVYIIPGFGSHSTYKKFGMYASIGLGFVWSHHMFVGLDDRAYFTSATMIAPTGVKFSWLATYGGRPMLAFLFLFTGGTGVINASDAFHDTYYIVHFHYVLSMGAFSLGFYYWPGLYNLFWFNFPMHFLGGMPRRPYPDAGWNSGSAYQLGPDESNEPH'
p2435
sg123
F0.00012999999999999999
sg124
g125
sg33
S'156'
p2436
sg127
g1
(g128
g12
(dp2437
g130
I4
sg131
g132
sg133
g134
sg135
g132
sg136
I01
sg34
g137
sg138
g134
sg139
I0
sg140
I0
sg141
I0
sg142
g134
sg35
g143
sg144
I0
stRp2438
sg146
g147
sg148
F1
sg149
Nsg30
S'CsubhB'
p2439
sbag1
(g2
g3
NtRp2440
(dp2441
g6
g1
(g7
g3
NtRp2442
(dp2443
g10
g1
(g11
g12
(dtRp2444
sg14
g1
(g11
g12
(dtRp2445
sg16
g1
(g11
g12
(dtRp2446
sg18
g1
(g11
g12
(dtRp2447
sg20
g1
(g11
g12
(dtRp2448
sg22
g1
(g11
g12
(dtRp2449
sbsg24
S'Csu'
p2450
sg26
g27
((lp2451
g29
ag30
aS'sequence'
p2452
ag32
ag33
aS'species'
p2453
atRp2454
sg37
(lp2455
sg120
g2406
sg121
S'RWLSTKDLYSRMELPGLNQNVHAMFIMPLGLGNPLGDMFARLNNSFWLPPLSLEGAGTGWTVYPPLSHSGPSVDLAFHLTSSLLGAINFTNMRGPLYWTALLLLSLPVLAATLLDRNFNTFEGGDPLYHLFWFFGHPEVYIIPGFGSHSTYKKFGMYASIGLGFVWSHHMFVGLDDRAYFTSATMIAPTGVKFSWLATYGGRPMLAFLFLFTGGTGVINASDAFHDTYYIVHFHYVLSMGAFSLGFYYWPGLYNLFWFNFPMHFLGGMPRRPYPDAGWNSGSAYQLGPDESNEPH'
p2456
sg123
F0.00013999999999999999
sg124
g125
sg33
S'167'
p2457
sg127
g1
(g128
g12
(dp2458
g130
I4
sg131
g132
sg133
g134
sg135
g132
sg136
I01
sg34
g137
sg138
g134
sg139
I0
sg140
I0
sg141
I0
sg142
g134
sg35
g143
sg144
I0
stRp2459
sg146
g147
sg148
F1
sg149
Nsg30
S'CsubhA'
p2460
sbasg120
g2393
sg123
F0.59348999999999996
sg124
g125
sg33
S'172'
p2461
sg127
g1
(g128
g12
(dp2462
g130
I6
sg131
g132
sg133
g134
sg135
g132
sg136
I01
sg34
g176
sg138
g134
sg139
I0
sg140
I0
sg141
I0
sg142
g134
sg35
g177
sg144
I0
stRp2463
sg146
g147
sg148
F1
sg149
Nsg30
S'NoName'
p2464
sbag1
(g2
g3
NtRp2465
(dp2466
g6
g1
(g7
g3
NtRp2467
(dp2468
g10
g1
(g11
g12
(dtRp2469
sg14
g1
(g11
g12
(dtRp2470
sg16
g1
(g11
g12
(dtRp2471
sg18
g1
(g11
g12
(dtRp2472
sg20
g1
(g11
g12
(dtRp2473
sg22
g1
(g11
g12
(dtRp2474
sbsg24
S'Cal'
p2475
sg26
g27
((lp2476
g29
ag30
aS'sequence'
p2477
ag32
ag33
aS'species'
p2478
atRp2479
sg37
(lp2480
sg120
g2393
sg121
S'RWLSTKDLYSRMELPGLNQNVHAMFVMPLGFGNPLGDMFARLNNSFWLPPLSLDGPGTGWTVYPPLSHSGASVDFAFHLTSSLLGAINFTNMRGPLFWTALLLLSLPVLVATLLDRNFNTFEGGDPLYHLFWFFGHPEVYMIPGFGSHSTYKKFGMYASIGLGFVWSHHMFVGLDDRAYFTSATMMAPTGIKFSWMATYGGYPMLAFLFLFTGGTGVINASDAFHDTYYIVHFHYVLSMGAFSLGYYYWPGLYNLFWFNFPMHFLGGMPRRPYPDAGWNSGSAYQLGPDESNEPH'
p2481
sg123
F0.40044000000000002
sg124
g125
sg33
S'177'
p2482
sg127
g1
(g128
g12
(dp2483
g130
I4
sg131
g132
sg133
g134
sg135
g132
sg136
I01
sg34
g137
sg138
g134
sg139
I0
sg140
I0
sg141
I0
sg142
g134
sg35
g143
sg144
I0
stRp2484
sg146
g147
sg148
F1
sg149
Nsg30
S'CalaiA'
p2485
sbasg120
g953
sg123
F0.080810000000000007
sg124
g125
sg33
S'161'
p2486
sg127
g1
(g128
g12
(dp2487
g130
I6
sg131
g132
sg133
g134
sg135
g132
sg136
I01
sg34
g176
sg138
g134
sg139
I0
sg140
I0
sg141
I0
sg142
g134
sg35
g177
sg144
I0
stRp2488
sg146
g147
sg148
F0.98999999999999999
sg149
Nsg30
S'NoName'
p2489
sbasg120
g691
sg123
F0.075389999999999999
sg124
g125
sg33
S'29'
p2490
sg127
g1
(g128
g12
(dp2491
g130
I6
sg131
g132
sg133
g134
sg135
g132
sg136
I01
sg34
g176
sg138
g134
sg139
I0
sg140
I0
sg141
I0
sg142
g134
sg35
g177
sg144
I0
stRp2492
sg146
g147
sg148
F0.94999999999999996
sg149
Nsg30
S'NoName'
p2493
sbasg120
g678
sg123
F1.2542500000000001
sg124
g125
sg33
S'9'
sg127
g1
(g128
g12
(dp2494
g130
I6
sg131
g132
sg133
g134
sg135
g132
sg136
I01
sg34
g176
sg138
g134
sg139
I0
sg140
I0
sg141
I0
sg142
g134
sg35
g177
sg144
I0
stRp2495
sg146
g147
sg148
F0.97999999999999998
sg149
Nsg30
S'NoName'
p2496
sbag1
(g2
g3
NtRp2497
(dp2498
g6
g1
(g7
g3
NtRp2499
(dp2500
g10
g1
(g11
g12
(dtRp2501
sg14
g1
(g11
g12
(dtRp2502
sg16
g1
(g11
g12
(dtRp2503
sg18
g1
(g11
g12
(dtRp2504
sg20
g1
(g11
g12
(dtRp2505
sg22
g1
(g11
g12
(dtRp2506
sbsg24
g25
sg26
g27
((lp2507
g33
ag32
ag29
ag30
atRp2508
sg37
(lp2509
g1
(g2
g3
NtRp2510
(dp2511
g6
g1
(g7
g3
NtRp2512
(dp2513
g10
g1
(g11
g12
(dtRp2514
sg14
g1
(g11
g12
(dtRp2515
sg16
g1
(g11
g12
(dtRp2516
sg18
g1
(g11
g12
(dtRp2517
sg20
g1
(g11
g12
(dtRp2518
sg22
g1
(g11
g12
(dtRp2519
sbsg24
g25
sg26
g27
((lp2520
g33
ag32
ag29
ag30
atRp2521
sg37
(lp2522
g1
(g2
g3
NtRp2523
(dp2524
g6
g1
(g7
g3
NtRp2525
(dp2526
g10
g1
(g11
g12
(dtRp2527
sg14
g1
(g11
g12
(dtRp2528
sg16
g1
(g11
g12
(dtRp2529
sg18
g1
(g11
g12
(dtRp2530
sg20
g1
(g11
g12
(dtRp2531
sg22
g1
(g11
g12
(dtRp2532
sbsg24
S'Ppa'
p2533
sg26
g27
((lp2534
g29
ag30
aS'sequence'
p2535
ag32
ag33
aS'species'
p2536
atRp2537
sg37
(lp2538
sg120
g2510
sg121
S'RWLSTKDLYSRLELPGLNQNVHAMFVMPAGFGNPMGDMFARLNNSFWLPPLSLEGAGTGWTVYPPLAHSGPSVDLAFHLTSSLLGAMNFTNMRGPLFWTSLLLLSLPVLAGTLLDRNFNTFEGGDPLYHLFWFFGHPEVYIMPGFGSHSTYKKFGMYASIGLGLVWSHHMYVGLDDRAYFTSATMMAPTGMKFSWLATYGGRPMLAFLFLFTGGSGVLNASDAFHDTYYVIHFHYVLSLGAFSLGYYYWPGLYNLFWFNFPMHFLGGMPRRPYPDAGWNSGSSYQLGPDESNDPH'
p2539
sg123
F0.16184999999999999
sg124
g125
sg33
S'208'
p2540
sg127
g1
(g128
g12
(dp2541
g130
I4
sg131
g132
sg133
g134
sg135
g132
sg136
I01
sg34
g137
sg138
g134
sg139
I0
sg140
I0
sg141
I0
sg142
g134
sg35
g143
sg144
I0
stRp2542
sg146
g147
sg148
F1
sg149
Nsg30
S'PpastA'
p2543
sbag1
(g2
g3
NtRp2544
(dp2545
g6
g1
(g7
g3
NtRp2546
(dp2547
g10
g1
(g11
g12
(dtRp2548
sg14
g1
(g11
g12
(dtRp2549
sg16
g1
(g11
g12
(dtRp2550
sg18
g1
(g11
g12
(dtRp2551
sg20
g1
(g11
g12
(dtRp2552
sg22
g1
(g11
g12
(dtRp2553
sbsg24
g25
sg26
g27
((lp2554
g33
ag32
ag29
ag30
atRp2555
sg37
(lp2556
g1
(g2
g3
NtRp2557
(dp2558
g6
g1
(g7
g3
NtRp2559
(dp2560
g10
g1
(g11
g12
(dtRp2561
sg14
g1
(g11
g12
(dtRp2562
sg16
g1
(g11
g12
(dtRp2563
sg18
g1
(g11
g12
(dtRp2564
sg20
g1
(g11
g12
(dtRp2565
sg22
g1
(g11
g12
(dtRp2566
sbsg24
S'Pta'
p2567
sg26
g27
((lp2568
g29
ag30
aS'sequence'
p2569
ag32
ag33
aS'species'
p2570
atRp2571
sg37
(lp2572
sg120
g2544
sg121
S'RWLSTKDLYSRLELPGLNQNVHAMFVMPAGFGNPMGDMFARLNNSFWLPPLSLEGAGTGWTVYPPLSHSGPSVDLAFHLTSSLLGGMNFTNMRGPLFWTSLLVLTLPVLAGTLLDRNFNTFEGGDPLYHLFWFFGHPEVYIIPGFGSHSAYKKFGMYASIGLGLVWSHHMYVGLDDRAYFTSATMIAPTGIKFSWLATYGGRPMLAFLFLFTGGSGVLNASDAFHDTYYVMHFHYVLSLGAFSLGYYYWPGLYNLFWFNFPMHFLGGMPRRPYPDAGFNSGSSYQLGPDESNEPH'
p2573
sg123
F0.23080999999999999
sg124
g125
sg33
S'4'
sg127
g1
(g128
g12
(dp2574
g130
I4
sg131
g132
sg133
g134
sg135
g132
sg136
I01
sg34
g137
sg138
g134
sg139
I0
sg140
I0
sg141
I0
sg142
g134
sg35
g143
sg144
I0
stRp2575
sg146
g147
sg148
F1
sg149
Nsg30
S'PtannA'
p2576
sbag1
(g2
g3
NtRp2577
(dp2578
g6
g1
(g7
g3
NtRp2579
(dp2580
g10
g1
(g11
g12
(dtRp2581
sg14
g1
(g11
g12
(dtRp2582
sg16
g1
(g11
g12
(dtRp2583
sg18
g1
(g11
g12
(dtRp2584
sg20
g1
(g11
g12
(dtRp2585
sg22
g1
(g11
g12
(dtRp2586
sbsg24
g25
sg26
g27
((lp2587
g33
ag32
ag29
ag30
atRp2588
sg37
(lp2589
g1
(g2
g3
NtRp2590
(dp2591
g6
g1
(g7
g3
NtRp2592
(dp2593
g10
g1
(g11
g12
(dtRp2594
sg14
g1
(g11
g12
(dtRp2595
sg16
g1
(g11
g12
(dtRp2596
sg18
g1
(g11
g12
(dtRp2597
sg20
g1
(g11
g12
(dtRp2598
sg22
g1
(g11
g12
(dtRp2599
sbsg24
g25
sg26
g27
((lp2600
g33
ag32
ag29
ag30
atRp2601
sg37
(lp2602
g1
(g2
g3
NtRp2603
(dp2604
g6
g1
(g7
g3
NtRp2605
(dp2606
g10
g1
(g11
g12
(dtRp2607
sg14
g1
(g11
g12
(dtRp2608
sg16
g1
(g11
g12
(dtRp2609
sg18
g1
(g11
g12
(dtRp2610
sg20
g1
(g11
g12
(dtRp2611
sg22
g1
(g11
g12
(dtRp2612
sbsg24
S'Pkl'
p2613
sg26
g27
((lp2614
g29
ag30
aS'sequence'
p2615
ag32
ag33
aS'species'
p2616
atRp2617
sg37
(lp2618
sg120
g2590
sg121
S'RWLSTKDLYSRLELPGLNQNVHAMFMMPTGFGNPMGDMFARLNNSFWLPPLSLEGPGTGWTVYPPLSHSGPSVDLAFHLTSSLLGAMNFTNMRGPLFWTALLVMTLPVLAGTLLDRNFNTFEGGDPLYHLFWFFGHPEVYMMPGFGSHSTYKKFGMYASMGLGLVWSHHMYVGLDDRAYFTSATMMAPTGMKFSWLATYGGRPMLAFMFIFTGGSGVLNASDAFHDTYYVMHFHYVLSLGAFAMGYYYWPGLFNLFWFNFPMHFLGGMPRRPYPDAGFNSGASYQLGPDESNEPH'
p2619
sg123
F0.12625
sg124
g125
sg33
S'35'
p2620
sg127
g1
(g128
g12
(dp2621
g130
I4
sg131
g132
sg133
g134
sg135
g132
sg136
I01
sg34
g137
sg138
g134
sg139
I0
sg140
I0
sg141
I0
sg142
g134
sg35
g143
sg144
I0
stRp2622
sg146
g147
sg148
F1
sg149
Nsg30
S'PkluyA'
p2623
sbag1
(g2
g3
NtRp2624
(dp2625
g6
g1
(g7
g3
NtRp2626
(dp2627
g10
g1
(g11
g12
(dtRp2628
sg14
g1
(g11
g12
(dtRp2629
sg16
g1
(g11
g12
(dtRp2630
sg18
g1
(g11
g12
(dtRp2631
sg20
g1
(g11
g12
(dtRp2632
sg22
g1
(g11
g12
(dtRp2633
sbsg24
S'Bcu'
p2634
sg26
g27
((lp2635
g29
ag30
aS'sequence'
p2636
ag32
ag33
aS'species'
p2637
atRp2638
sg37
(lp2639
sg120
g2590
sg121
S'RWLSTKDLYSRLELPGLDQNVHSMFMMPTGFGNPMGDMFARLNNAFWYPPLSLEGPGTGWTVYPPLSHSGPSMDLAFHLTSSMLSSMNFTNMRGPLFWTALLMMTLPVLAGTLLDRNFNTFEGGDPLYHLYWFFGHPEVYIIPVFGSHSNYKKFGMYASMGLGLVWSHHMYVGLDDRAYFTSATMIAPTGIKFSWLATYGGRPMLAFLFMFTGGSGVLNASDAFHDTYFVVHFHYVLSLGVYGVGYYFWPGLYNMFWFNFPMHFLGGMPRRPYPDAGFNSGSAYQLGPDESNEPH'
p2640
sg123
F0.30854999999999999
sg124
g125
sg33
S'46'
p2641
sg127
g1
(g128
g12
(dp2642
g130
I4
sg131
g132
sg133
g134
sg135
g132
sg136
I01
sg34
g137
sg138
g134
sg139
I0
sg140
I0
sg141
I0
sg142
g134
sg35
g143
sg144
I0
stRp2643
sg146
g147
sg148
F1
sg149
Nsg30
S'BcustA'
p2644
sbasg120
g2577
sg123
F0.19120999999999999
sg124
g125
sg33
S'14'
p2645
sg127
g1
(g128
g12
(dp2646
g130
I6
sg131
g132
sg133
g134
sg135
g132
sg136
I01
sg34
g176
sg138
g134
sg139
I0
sg140
I0
sg141
I0
sg142
g134
sg35
g177
sg144
I0
stRp2647
sg146
g147
sg148
F0.98999999999999999
sg149
Nsg30
S'NoName'
p2648
sbag1
(g2
g3
NtRp2649
(dp2650
g6
g1
(g7
g3
NtRp2651
(dp2652
g10
g1
(g11
g12
(dtRp2653
sg14
g1
(g11
g12
(dtRp2654
sg16
g1
(g11
g12
(dtRp2655
sg18
g1
(g11
g12
(dtRp2656
sg20
g1
(g11
g12
(dtRp2657
sg22
g1
(g11
g12
(dtRp2658
sbsg24
S'Oan'
p2659
sg26
g27
((lp2660
g29
ag30
aS'sequence'
p2661
ag32
ag33
aS'species'
p2662
atRp2663
sg37
(lp2664
sg120
g2577
sg121
S'RWLSTKDLYSRLELPGLNQNAHAMFVMPAGFGNPMGDMFARLNNSFWLPPLSLEGAGTGWTVYPPLSHSGPSVDLAFHLTSSLLGAINFTNMRGPLFWTALLLLSLPVLAGTLLDRNFNTFEGGDPLYHLFWFFGHPEVYIIPGFGSHSTYKKFGMYASIGLGLVWSHHMYVGLDDRAYFTSATMIAPTGIKFSWIATYGGRPMLAFLFLFTGGSGVLNASDAFHDTYYVIHFHYVLSLGAFSLGYYYWPGLYNLFWFNFPMHFLGGMPRRPYPDAGYNSGSSYQLGPDESNEPH'
p2665
sg123
F0.025399999999999999
sg124
g125
sg33
S'58'
p2666
sg127
g1
(g128
g12
(dp2667
g130
I4
sg131
g132
sg133
g134
sg135
g132
sg136
I01
sg34
g137
sg138
g134
sg139
I0
sg140
I0
sg141
I0
sg142
g134
sg35
g143
sg144
I0
stRp2668
sg146
g147
sg148
F1
sg149
Nsg30
S'OanguA'
p2669
sbasg120
g2544
sg123
F0.33273999999999998
sg124
g125
sg33
S'220'
p2670
sg127
g1
(g128
g12
(dp2671
g130
I6
sg131
g132
sg133
g134
sg135
g132
sg136
I01
sg34
g176
sg138
g134
sg139
I0
sg140
I0
sg141
I0
sg142
g134
sg35
g177
sg144
I0
stRp2672
sg146
g147
sg148
F0.98999999999999999
sg149
Nsg30
S'NoName'
p2673
sbasg120
g2510
sg123
F0.054379999999999998
sg124
g125
sg33
S'198'
p2674
sg127
g1
(g128
g12
(dp2675
g130
I6
sg131
g132
sg133
g134
sg135
g132
sg136
I01
sg34
g176
sg138
g134
sg139
I0
sg140
I0
sg141
I0
sg142
g134
sg35
g177
sg144
I0
stRp2676
sg146
g147
sg148
F0.96999999999999997
sg149
Nsg30
S'NoName'
p2677
sbasg120
g2497
sg123
F0.76378000000000001
sg124
g125
sg33
S'188'
p2678
sg127
g1
(g128
g12
(dp2679
g130
I6
sg131
g132
sg133
g134
sg135
g132
sg136
I01
sg34
g176
sg138
g134
sg139
I0
sg140
I0
sg141
I0
sg142
g134
sg35
g177
sg144
I0
stRp2680
sg146
g147
sg148
F0.98999999999999999
sg149
Nsg30
S'NoName'
p2681
sbag1
(g2
g3
NtRp2682
(dp2683
g6
g1
(g7
g3
NtRp2684
(dp2685
g10
g1
(g11
g12
(dtRp2686
sg14
g1
(g11
g12
(dtRp2687
sg16
g1
(g11
g12
(dtRp2688
sg18
g1
(g11
g12
(dtRp2689
sg20
g1
(g11
g12
(dtRp2690
sg22
g1
(g11
g12
(dtRp2691
sbsg24
g25
sg26
g27
((lp2692
g33
ag32
ag29
ag30
atRp2693
sg37
(lp2694
g1
(g2
g3
NtRp2695
(dp2696
g6
g1
(g7
g3
NtRp2697
(dp2698
g10
g1
(g11
g12
(dtRp2699
sg14
g1
(g11
g12
(dtRp2700
sg16
g1
(g11
g12
(dtRp2701
sg18
g1
(g11
g12
(dtRp2702
sg20
g1
(g11
g12
(dtRp2703
sg22
g1
(g11
g12
(dtRp2704
sbsg24
g25
sg26
g27
((lp2705
g33
ag32
ag29
ag30
atRp2706
sg37
(lp2707
g1
(g2
g3
NtRp2708
(dp2709
g6
g1
(g7
g3
NtRp2710
(dp2711
g10
g1
(g11
g12
(dtRp2712
sg14
g1
(g11
g12
(dtRp2713
sg16
g1
(g11
g12
(dtRp2714
sg18
g1
(g11
g12
(dtRp2715
sg20
g1
(g11
g12
(dtRp2716
sg22
g1
(g11
g12
(dtRp2717
sbsg24
g25
sg26
g27
((lp2718
g33
ag32
ag29
ag30
atRp2719
sg37
(lp2720
g1
(g2
g3
NtRp2721
(dp2722
g6
g1
(g7
g3
NtRp2723
(dp2724
g10
g1
(g11
g12
(dtRp2725
sg14
g1
(g11
g12
(dtRp2726
sg16
g1
(g11
g12
(dtRp2727
sg18
g1
(g11
g12
(dtRp2728
sg20
g1
(g11
g12
(dtRp2729
sg22
g1
(g11
g12
(dtRp2730
sbsg24
g25
sg26
g27
((lp2731
g33
ag32
ag29
ag30
atRp2732
sg37
(lp2733
g1
(g2
g3
NtRp2734
(dp2735
g6
g1
(g7
g3
NtRp2736
(dp2737
g10
g1
(g11
g12
(dtRp2738
sg14
g1
(g11
g12
(dtRp2739
sg16
g1
(g11
g12
(dtRp2740
sg18
g1
(g11
g12
(dtRp2741
sg20
g1
(g11
g12
(dtRp2742
sg22
g1
(g11
g12
(dtRp2743
sbsg24
S'Cva'
p2744
sg26
g27
((lp2745
g29
ag30
aS'sequence'
p2746
ag32
ag33
aS'species'
p2747
atRp2748
sg37
(lp2749
sg120
g2721
sg121
S'RWLSTKDLYSRLELPGLNQNVHAMFVMPLGFGNPLGDMFARLNNSFWLPPLSLEGAGTGWTIYPPLSHSSPSVDLGFHLTSSLLGAINFTNMRGPLFWTAMLLLSLPVLAGTLLDRNFNTFEGGDPLYHLFWFFGHPEVYIIPGFGSHSTYKKFGMYASIALGFVWSHHMYVGLDDRAYFTSSTMIAPTGIKFSWLATYGGRPMLAFLFLFTGGTGVLNASDAFHDTYYVVHFHYVLSMGAFSLGYYYWPGLYNLFWFNFPMHFLGGMPRRPYPDAGWNSGSSYQLGPDESNEPH'
p2750
sg123
F0.043270000000000003
sg124
g125
sg33
S'112'
p2751
sg127
g1
(g128
g12
(dp2752
g130
I4
sg131
g132
sg133
g134
sg135
g132
sg136
I01
sg34
g137
sg138
g134
sg139
I0
sg140
I0
sg141
I0
sg142
g134
sg35
g143
sg144
I0
stRp2753
sg146
g147
sg148
F1
sg149
Nsg30
S'CvartA'
p2754
sbag1
(g2
g3
NtRp2755
(dp2756
g6
g1
(g7
g3
NtRp2757
(dp2758
g10
g1
(g11
g12
(dtRp2759
sg14
g1
(g11
g12
(dtRp2760
sg16
g1
(g11
g12
(dtRp2761
sg18
g1
(g11
g12
(dtRp2762
sg20
g1
(g11
g12
(dtRp2763
sg22
g1
(g11
g12
(dtRp2764
sbsg24
g25
sg26
g27
((lp2765
g33
ag32
ag29
ag30
atRp2766
sg37
(lp2767
g1
(g2
g3
NtRp2768
(dp2769
g6
g1
(g7
g3
NtRp2770
(dp2771
g10
g1
(g11
g12
(dtRp2772
sg14
g1
(g11
g12
(dtRp2773
sg16
g1
(g11
g12
(dtRp2774
sg18
g1
(g11
g12
(dtRp2775
sg20
g1
(g11
g12
(dtRp2776
sg22
g1
(g11
g12
(dtRp2777
sbsg24
S'Csu'
p2778
sg26
g27
((lp2779
g29
ag30
aS'sequence'
p2780
ag32
ag33
aS'species'
p2781
atRp2782
sg37
(lp2783
sg120
g2755
sg121
S'RWLSTKDLYSRLELPGLNQNVHAMFVMPLGFGNPLGDMFARLNNSFWLPPLSLEGAGTGWTIYPPLSHSSPSVDLGFHLTSSMLGAINFTNMRGPLFWTAMLLLSLPVLAGTLLDRNFNTFEGGDPLYHLFWFFGHPEVYIIPGFGSHSTYKKFGMYASIALGFVWSHHMYVGLDDRAYFTSSTMIAPTGIKFSWLATYGGRPMLAFLFLFTGGTGVLNASDAFHDSYYY-HFHYVLSMGAFSLGYYYWPGLYNLFWFNFPMHFLGGMPRRPYPDAGWNSGSSYQLGPDESNEPH'
p2784
sg123
F0.0043699999999999998
sg124
g125
sg33
S'131'
p2785
sg127
g1
(g128
g12
(dp2786
g130
I4
sg131
g132
sg133
g134
sg135
g132
sg136
I01
sg34
g137
sg138
g134
sg139
I0
sg140
I0
sg141
I0
sg142
g134
sg35
g143
sg144
I0
stRp2787
sg146
g147
sg148
F1
sg149
Nsg30
S'CsuavB'
p2788
sbag1
(g2
g3
NtRp2789
(dp2790
g6
g1
(g7
g3
NtRp2791
(dp2792
g10
g1
(g11
g12
(dtRp2793
sg14
g1
(g11
g12
(dtRp2794
sg16
g1
(g11
g12
(dtRp2795
sg18
g1
(g11
g12
(dtRp2796
sg20
g1
(g11
g12
(dtRp2797
sg22
g1
(g11
g12
(dtRp2798
sbsg24
S'Csu'
p2799
sg26
g27
((lp2800
g29
ag30
aS'sequence'
p2801
ag32
ag33
aS'species'
p2802
atRp2803
sg37
(lp2804
sg120
g2755
sg121
S'RWLSTKDLYSRLELPGLNQNVHAMFVMPLGFGNPLGDMFARLNNSFWLPPLSLEGAGTGWTIYPPLSHSSPSVDLGFHLTSSLLGAINFTNMRGPLFWTAMLLLSLPVLAGTLLDRNFNTFEGGDPLYHLFWFFGHPEVYIIPGFGSHSTYKKFGMYASIALGFVWSHHMYVGLDDRAYFTSSTMIAPTGIKFSWLATYGGRPMLAFLFLFTGGTGVLNASDAFHDTYYVVHFHYVLSMGAFSLGYYYWPGLYNLFWFNFPMHFLGGMPRRPYPDAGWNSGSSYQLGPDESNEPH'
p2805
sg123
F0.0025999999999999999
sg124
g125
sg33
S'106'
p2806
sg127
g1
(g128
g12
(dp2807
g130
I4
sg131
g132
sg133
g134
sg135
g132
sg136
I01
sg34
g137
sg138
g134
sg139
I0
sg140
I0
sg141
I0
sg142
g134
sg35
g143
sg144
I0
stRp2808
sg146
g147
sg148
F1
sg149
Nsg30
S'CsuavA'
p2809
sbasg120
g2721
sg123
F0.016740000000000001
sg124
g125
sg33
S'100'
p2810
sg127
g1
(g128
g12
(dp2811
g130
I6
sg131
g132
sg133
g134
sg135
g132
sg136
I01
sg34
g176
sg138
g134
sg139
I0
sg140
I0
sg141
I0
sg142
g134
sg35
g177
sg144
I0
stRp2812
sg146
g147
sg148
F0.98999999999999999
sg149
Nsg30
S'NoName'
p2813
sbasg120
g2708
sg123
F0.01158
sg124
g125
sg33
S'89'
p2814
sg127
g1
(g128
g12
(dp2815
g130
I6
sg131
g132
sg133
g134
sg135
g132
sg136
I01
sg34
g176
sg138
g134
sg139
I0
sg140
I0
sg141
I0
sg142
g134
sg35
g177
sg144
I0
stRp2816
sg146
g147
sg148
F0.97999999999999998
sg149
Nsg30
S'NoName'
p2817
sbag1
(g2
g3
NtRp2818
(dp2819
g6
g1
(g7
g3
NtRp2820
(dp2821
g10
g1
(g11
g12
(dtRp2822
sg14
g1
(g11
g12
(dtRp2823
sg16
g1
(g11
g12
(dtRp2824
sg18
g1
(g11
g12
(dtRp2825
sg20
g1
(g11
g12
(dtRp2826
sg22
g1
(g11
g12
(dtRp2827
sbsg24
S'Cja'
p2828
sg26
g27
((lp2829
g29
ag30
aS'sequence'
p2830
ag32
ag33
aS'species'
p2831
atRp2832
sg37
(lp2833
sg120
g2708
sg121
S'RWLSTKDLYSRLELPGLNQNVHAMFVMPLGFGNPLGDMFARLNNSFWLPPLSLEGAGTGWTIYPPLAHSSPSVDLGFHLTSSLLGAINFTNMRGPLFWTAMLLLSLPVLAGTLLDRNFNTFEGGDPLYHLFWFFGHPEVYIIPGFGSHSTYKKFGMYASIALGFVWSHHMYVGLDDRAYFTSSTMIAPTGIKFSWLATYGGRPMLAFLFLFTGGTGVLNASDAFHDTYYVVHFHYVLSMGAFSLGYYYWPGLYNLFWFNFPMHFLGGMPRRPYPDAGWNSGSSYQLGPDESNEPH'
p2834
sg123
F0.033799999999999997
sg124
g125
sg33
S'152'
p2835
sg127
g1
(g128
g12
(dp2836
g130
I4
sg131
g132
sg133
g134
sg135
g132
sg136
I01
sg34
g137
sg138
g134
sg139
I0
sg140
I0
sg141
I0
sg142
g134
sg35
g143
sg144
I0
stRp2837
sg146
g147
sg148
F1
sg149
Nsg30
S'CjadiA'
p2838
sbasg120
g2695
sg123
F0.10375
sg124
g125
sg33
S'78'
p2839
sg127
g1
(g128
g12
(dp2840
g130
I6
sg131
g132
sg133
g134
sg135
g132
sg136
I01
sg34
g176
sg138
g134
sg139
I0
sg140
I0
sg141
I0
sg142
g134
sg35
g177
sg144
I0
stRp2841
sg146
g147
sg148
F0.98999999999999999
sg149
Nsg30
S'NoName'
p2842
sbag1
(g2
g3
NtRp2843
(dp2844
g6
g1
(g7
g3
NtRp2845
(dp2846
g10
g1
(g11
g12
(dtRp2847
sg14
g1
(g11
g12
(dtRp2848
sg16
g1
(g11
g12
(dtRp2849
sg18
g1
(g11
g12
(dtRp2850
sg20
g1
(g11
g12
(dtRp2851
sg22
g1
(g11
g12
(dtRp2852
sbsg24
g25
sg26
g27
((lp2853
g33
ag32
ag29
ag30
atRp2854
sg37
(lp2855
g1
(g2
g3
NtRp2856
(dp2857
g6
g1
(g7
g3
NtRp2858
(dp2859
g10
g1
(g11
g12
(dtRp2860
sg14
g1
(g11
g12
(dtRp2861
sg16
g1
(g11
g12
(dtRp2862
sg18
g1
(g11
g12
(dtRp2863
sg20
g1
(g11
g12
(dtRp2864
sg22
g1
(g11
g12
(dtRp2865
sbsg24
g25
sg26
g27
((lp2866
g33
ag32
ag29
ag30
atRp2867
sg37
(lp2868
g1
(g2
g3
NtRp2869
(dp2870
g6
g1
(g7
g3
NtRp2871
(dp2872
g10
g1
(g11
g12
(dtRp2873
sg14
g1
(g11
g12
(dtRp2874
sg16
g1
(g11
g12
(dtRp2875
sg18
g1
(g11
g12
(dtRp2876
sg20
g1
(g11
g12
(dtRp2877
sg22
g1
(g11
g12
(dtRp2878
sbsg24
S'Wpi'
p2879
sg26
g27
((lp2880
g29
ag30
aS'sequence'
p2881
ag32
ag33
aS'species'
p2882
atRp2883
sg37
(lp2884
sg120
g2856
sg121
S'RWLSTKDLYSRLELPGLNQNVHAMFVMPLGFGNPLGDMFARLNNSFWLPPLSLEGAGTGWTIYPPLSHSSPSVDLGFHLTSSLLGAINFTNMRGPLFWTAMLLLSLPVLAGTLLDRNFNTFEGGDPLYHLFWFFGHPEVYIIPGFGSHSTYKKFGMYASIALGFVWSHHMYVGLDDRAYFTSSTMIAPTGIKFSWLATYGGRPMLAFLFLFTGGTGVLNASDAFHDTYYVVHFHYVLSMGAFSLGYYYWPGLYNLFWFNFPMHFLGGMPRRPYPDAGWNSGSSFQLGPDESNEPH'
p2885
sg123
F0.051209999999999999
sg124
g125
sg33
S'185'
p2886
sg127
g1
(g128
g12
(dp2887
g130
I4
sg131
g132
sg133
g134
sg135
g132
sg136
I01
sg34
g137
sg138
g134
sg139
I0
sg140
I0
sg141
I0
sg142
g134
sg35
g143
sg144
I0
stRp2888
sg146
g147
sg148
F1
sg149
Nsg30
S'WpijpA'
p2889
sbag1
(g2
g3
NtRp2890
(dp2891
g6
g1
(g7
g3
NtRp2892
(dp2893
g10
g1
(g11
g12
(dtRp2894
sg14
g1
(g11
g12
(dtRp2895
sg16
g1
(g11
g12
(dtRp2896
sg18
g1
(g11
g12
(dtRp2897
sg20
g1
(g11
g12
(dtRp2898
sg22
g1
(g11
g12
(dtRp2899
sbsg24
S'Wmu'
p2900
sg26
g27
((lp2901
g29
ag30
aS'sequence'
p2902
ag32
ag33
aS'species'
p2903
atRp2904
sg37
(lp2905
sg120
g2856
sg121
S'RWLSTKDLYSRLELPGLNQNVHAMFVMPLGFGNPLGDMFARLNNSFWLPPLSLEGAGTGWTIYPPLAHSSPSVDLGFHLTSSLLGAINFTNMRGPLFWTAMLLLSLPVLAGTLLDRNFNTFEGGDPLYHLFWFFGHPEVYIIPGFGSHSTYKKFGMYASIALGFVWSHHMYVGLDDRAYFTSSTMIAPTGIKFSWLATYGGRPMLAFLFLFTGGTGVLNASDAFHDTYYVVHFHYVLSMGAFSLGYYYWPGLYNLFWFNFPMHFLGGMPRRPYPDAGWNSGSSYQLGPDESNEPH'
p2906
sg123
F0.079170000000000004
sg124
g125
sg33
S'195'
p2907
sg127
g1
(g128
g12
(dp2908
g130
I4
sg131
g132
sg133
g134
sg135
g132
sg136
I01
sg34
g137
sg138
g134
sg139
I0
sg140
I0
sg141
I0
sg142
g134
sg35
g143
sg144
I0
stRp2909
sg146
g147
sg148
F1
sg149
Nsg30
S'WmucoA'
p2910
sbasg120
g2843
sg123
F0.14757000000000001
sg124
g125
sg33
S'163'
p2911
sg127
g1
(g128
g12
(dp2912
g130
I6
sg131
g132
sg133
g134
sg135
g132
sg136
I01
sg34
g176
sg138
g134
sg139
I0
sg140
I0
sg141
I0
sg142
g134
sg35
g177
sg144
I0
stRp2913
sg146
g147
sg148
F0.98999999999999999
sg149
Nsg30
S'NoName'
p2914
sbag1
(g2
g3
NtRp2915
(dp2916
g6
g1
(g7
g3
NtRp2917
(dp2918
g10
g1
(g11
g12
(dtRp2919
sg14
g1
(g11
g12
(dtRp2920
sg16
g1
(g11
g12
(dtRp2921
sg18
g1
(g11
g12
(dtRp2922
sg20
g1
(g11
g12
(dtRp2923
sg22
g1
(g11
g12
(dtRp2924
sbsg24
g25
sg26
g27
((lp2925
g33
ag32
ag29
ag30
atRp2926
sg37
(lp2927
g1
(g2
g3
NtRp2928
(dp2929
g6
g1
(g7
g3
NtRp2930
(dp2931
g10
g1
(g11
g12
(dtRp2932
sg14
g1
(g11
g12
(dtRp2933
sg16
g1
(g11
g12
(dtRp2934
sg18
g1
(g11
g12
(dtRp2935
sg20
g1
(g11
g12
(dtRp2936
sg22
g1
(g11
g12
(dtRp2937
sbsg24
S'Pca'
p2938
sg26
g27
((lp2939
g29
ag30
aS'sequence'
p2940
ag32
ag33
aS'species'
p2941
atRp2942
sg37
(lp2943
sg120
g2915
sg121
S'RWLSTKDLYSRLELPGLNQNVHAMFVMPLGFGNPLGDMFARLNNSFWLPPLSLEWAGTGWTIYPPLSHSSPSVDLGFHLTSSLLGAINFTNMRGPLFWTAMLLLSLPVLAGTLLDRNFNTFEGGDPLYHLFWFFGHPEVYIIPGFGSHSTYKKFGMYASIALGFVWSHHMYVGLDDRAYFTSSTMIAPTGIKFSWLATYGGRPMLAFLFLFTGGTGVLNASDAFHDTYYVVHFHYVLSMGAFSLGYYYWPGLFNLFWFNFPMHFLGGMPRRPYPDAGWNSGSSYQLGPDESNEPH'
p2944
sg123
F0.10655000000000001
sg124
g125
sg33
S'215'
p2945
sg127
g1
(g128
g12
(dp2946
g130
I4
sg131
g132
sg133
g134
sg135
g132
sg136
I01
sg34
g137
sg138
g134
sg139
I0
sg140
I0
sg141
I0
sg142
g134
sg35
g143
sg144
I0
stRp2947
sg146
g147
sg148
F1
sg149
Nsg30
S'PcanaA'
p2948
sbag1
(g2
g3
NtRp2949
(dp2950
g6
g1
(g7
g3
NtRp2951
(dp2952
g10
g1
(g11
g12
(dtRp2953
sg14
g1
(g11
g12
(dtRp2954
sg16
g1
(g11
g12
(dtRp2955
sg18
g1
(g11
g12
(dtRp2956
sg20
g1
(g11
g12
(dtRp2957
sg22
g1
(g11
g12
(dtRp2958
sbsg24
g25
sg26
g27
((lp2959
g33
ag32
ag29
ag30
atRp2960
sg37
(lp2961
g1
(g2
g3
NtRp2962
(dp2963
g6
g1
(g7
g3
NtRp2964
(dp2965
g10
g1
(g11
g12
(dtRp2966
sg14
g1
(g11
g12
(dtRp2967
sg16
g1
(g11
g12
(dtRp2968
sg18
g1
(g11
g12
(dtRp2969
sg20
g1
(g11
g12
(dtRp2970
sg22
g1
(g11
g12
(dtRp2971
sbsg24
S'Cno'
p2972
sg26
g27
((lp2973
g29
ag30
aS'sequence'
p2974
ag32
ag33
aS'species'
p2975
atRp2976
sg37
(lp2977
sg120
g2949
sg121
S'RWLSTKDLYSRLELPGLNQNVHAMFVMPLGFGNPLGDMFARLNNSFWLPPLSLEGAGTGWTIYPPLSHSSPSVDLGFHLTSSLLGAMNFTNMRGPLFWTAMLLLSLPVLAGTLLDRNFNTFEGGDPLYHLFWFFGHPEVYMIPGFGSHSTYKKFGMYASMALGFVWSHHMYVGLDDRAYFTSSTMMAPTGMKFSWLATYGGRPMLAFLFLFTGGTGVLNASDAFHDTYYVVHFHYVLSMGAFSLGYYYWPGLYNLFWFNFPMHFLGGMPRRPYPDAGWNSGSSYQLGPDESNEPH'
p2978
sg123
F0.059069999999999998
sg124
g125
sg33
S'21'
p2979
sg127
g1
(g128
g12
(dp2980
g130
I4
sg131
g132
sg133
g134
sg135
g132
sg136
I01
sg34
g137
sg138
g134
sg139
I0
sg140
I0
sg141
I0
sg142
g134
sg35
g143
sg144
I0
stRp2981
sg146
g147
sg148
F1
sg149
Nsg30
S'CnorvA'
p2982
sbag1
(g2
g3
NtRp2983
(dp2984
g6
g1
(g7
g3
NtRp2985
(dp2986
g10
g1
(g11
g12
(dtRp2987
sg14
g1
(g11
g12
(dtRp2988
sg16
g1
(g11
g12
(dtRp2989
sg18
g1
(g11
g12
(dtRp2990
sg20
g1
(g11
g12
(dtRp2991
sg22
g1
(g11
g12
(dtRp2992
sbsg24
S'Bca'
p2993
sg26
g27
((lp2994
g29
ag30
aS'sequence'
p2995
ag32
ag33
aS'species'
p2996
atRp2997
sg37
(lp2998
sg120
g2949
sg121
S'RWLSTKDLYSRLELPGLNQNVHAMFVMPLGFGNPLGDMFARLNNSFWLPPLSLEGAGTGWTIYPPLSHSSPSVDLGFHLTSSLLGAINFTNMRGPLFWTAMLLLSLPVLAGTLLDRNFNTFEGGDPLYHLFWFFGHPEVYIMPGFGSHSTYKKFGMYASIALGFVWSHHMYVGLDDRAYFTSSTMIAPTGIKFSWLATYGGRPMLAFLFLFTGGTGVLNASDAFHDTYYVVHFHYVLSMGAFSLGYYYWPGLYNLFWFNFPMHFLGGMPRRPYPDAGWNSGSSYQLGPDESNEPH'
p2999
sg123
F0.031899999999999998
sg124
g125
sg33
S'32'
p3000
sg127
g1
(g128
g12
(dp3001
g130
I4
sg131
g132
sg133
g134
sg135
g132
sg136
I01
sg34
g137
sg138
g134
sg139
I0
sg140
I0
sg141
I0
sg142
g134
sg35
g143
sg144
I0
stRp3002
sg146
g147
sg148
F1
sg149
Nsg30
S'BcaliA'
p3003
sbasg120
g2915
sg123
F0.09486
sg124
g125
sg33
S'205'
p3004
sg127
g1
(g128
g12
(dp3005
g130
I6
sg131
g132
sg133
g134
sg135
g132
sg136
I01
sg34
g176
sg138
g134
sg139
I0
sg140
I0
sg141
I0
sg142
g134
sg35
g177
sg144
I0
stRp3006
sg146
g147
sg148
F0.97999999999999998
sg149
Nsg30
S'NoName'
p3007
sbasg120
g2843
sg123
F0.054690000000000003
sg124
g125
sg33
S'174'
p3008
sg127
g1
(g128
g12
(dp3009
g130
I6
sg131
g132
sg133
g134
sg135
g132
sg136
I01
sg34
g176
sg138
g134
sg139
I0
sg140
I0
sg141
I0
sg142
g134
sg35
g177
sg144
I0
stRp3010
sg146
g147
sg148
F0.96999999999999997
sg149
Nsg30
S'NoName'
p3011
sbasg120
g2695
sg123
F0.051860000000000003
sg124
g125
sg33
S'122'
p3012
sg127
g1
(g128
g12
(dp3013
g130
I6
sg131
g132
sg133
g134
sg135
g132
sg136
I01
sg34
g176
sg138
g134
sg139
I0
sg140
I0
sg141
I0
sg142
g134
sg35
g177
sg144
I0
stRp3014
sg146
g147
sg148
F0.96999999999999997
sg149
Nsg30
S'NoName'
p3015
sbasg120
g2682
sg123
F0.52095999999999998
sg124
g125
sg33
S'68'
p3016
sg127
g1
(g128
g12
(dp3017
g130
I6
sg131
g132
sg133
g134
sg135
g132
sg136
I01
sg34
g176
sg138
g134
sg139
I0
sg140
I0
sg141
I0
sg142
g134
sg35
g177
sg144
I0
stRp3018
sg146
g147
sg148
F0.98999999999999999
sg149
Nsg30
S'NoName'
p3019
sbag1
(g2
g3
NtRp3020
(dp3021
g6
g1
(g7
g3
NtRp3022
(dp3023
g10
g1
(g11
g12
(dtRp3024
sg14
g1
(g11
g12
(dtRp3025
sg16
g1
(g11
g12
(dtRp3026
sg18
g1
(g11
g12
(dtRp3027
sg20
g1
(g11
g12
(dtRp3028
sg22
g1
(g11
g12
(dtRp3029
sbsg24
g25
sg26
g27
((lp3030
g33
ag32
ag29
ag30
atRp3031
sg37
(lp3032
g1
(g2
g3
NtRp3033
(dp3034
g6
g1
(g7
g3
NtRp3035
(dp3036
g10
g1
(g11
g12
(dtRp3037
sg14
g1
(g11
g12
(dtRp3038
sg16
g1
(g11
g12
(dtRp3039
sg18
g1
(g11
g12
(dtRp3040
sg20
g1
(g11
g12
(dtRp3041
sg22
g1
(g11
g12
(dtRp3042
sbsg24
g25
sg26
g27
((lp3043
g33
ag32
ag29
ag30
atRp3044
sg37
(lp3045
g1
(g2
g3
NtRp3046
(dp3047
g6
g1
(g7
g3
NtRp3048
(dp3049
g10
g1
(g11
g12
(dtRp3050
sg14
g1
(g11
g12
(dtRp3051
sg16
g1
(g11
g12
(dtRp3052
sg18
g1
(g11
g12
(dtRp3053
sg20
g1
(g11
g12
(dtRp3054
sg22
g1
(g11
g12
(dtRp3055
sbsg24
g25
sg26
g27
((lp3056
g33
ag32
ag29
ag30
atRp3057
sg37
(lp3058
g1
(g2
g3
NtRp3059
(dp3060
g6
g1
(g7
g3
NtRp3061
(dp3062
g10
g1
(g11
g12
(dtRp3063
sg14
g1
(g11
g12
(dtRp3064
sg16
g1
(g11
g12
(dtRp3065
sg18
g1
(g11
g12
(dtRp3066
sg20
g1
(g11
g12
(dtRp3067
sg22
g1
(g11
g12
(dtRp3068
sbsg24
g25
sg26
g27
((lp3069
g33
ag32
ag29
ag30
atRp3070
sg37
(lp3071
g1
(g2
g3
NtRp3072
(dp3073
g6
g1
(g7
g3
NtRp3074
(dp3075
g10
g1
(g11
g12
(dtRp3076
sg14
g1
(g11
g12
(dtRp3077
sg16
g1
(g11
g12
(dtRp3078
sg18
g1
(g11
g12
(dtRp3079
sg20
g1
(g11
g12
(dtRp3080
sg22
g1
(g11
g12
(dtRp3081
sbsg24
g25
sg26
g27
((lp3082
g33
ag32
ag29
ag30
atRp3083
sg37
(lp3084
g1
(g2
g3
NtRp3085
(dp3086
g6
g1
(g7
g3
NtRp3087
(dp3088
g10
g1
(g11
g12
(dtRp3089
sg14
g1
(g11
g12
(dtRp3090
sg16
g1
(g11
g12
(dtRp3091
sg18
g1
(g11
g12
(dtRp3092
sg20
g1
(g11
g12
(dtRp3093
sg22
g1
(g11
g12
(dtRp3094
sbsg24
g25
sg26
g27
((lp3095
g33
ag32
ag29
ag30
atRp3096
sg37
(lp3097
g1
(g2
g3
NtRp3098
(dp3099
g6
g1
(g7
g3
NtRp3100
(dp3101
g10
g1
(g11
g12
(dtRp3102
sg14
g1
(g11
g12
(dtRp3103
sg16
g1
(g11
g12
(dtRp3104
sg18
g1
(g11
g12
(dtRp3105
sg20
g1
(g11
g12
(dtRp3106
sg22
g1
(g11
g12
(dtRp3107
sbsg24
S'Lkl'
p3108
sg26
g27
((lp3109
g29
ag30
aS'sequence'
p3110
ag32
ag33
aS'species'
p3111
atRp3112
sg37
(lp3113
sg120
g3085
sg121
S'RWLSTKDLYSRLELPGLNQNVHAMFVMPLGFGNPMGDMFARLNNSFWLPPLSLEGAGTGWTVYPPLSHSGPSVDLAFHLTSSLLGAINFTNMRGPLFWTALLLLSLPVLAGTLLDRNFNTFEGGDPLYHLFWFFGHPEVYIIPGFGSHSTYKKFGMYASIGLGFVWSHHMYVGLDDRAYFLSATMIAPTGIKFSWLATYGGRPMLAFLFLFTGGTGVLNASDAFHDLYYVVHFHYVLSMGAFSLGYYYWPGLYNLFWFNFPMHFLGGMPRRPYPDAGWNSGSSYQLGPDESNEPH'
p3114
sg123
F0.00044999999999999999
sg124
g125
sg33
S'109'
p3115
sg127
g1
(g128
g12
(dp3116
g130
I4
sg131
g132
sg133
g134
sg135
g132
sg136
I01
sg34
g137
sg138
g134
sg139
I0
sg140
I0
sg141
I0
sg142
g134
sg35
g143
sg144
I0
stRp3117
sg146
g147
sg148
F1
sg149
Nsg30
S'LkluyE'
p3118
sbag1
(g2
g3
NtRp3119
(dp3120
g6
g1
(g7
g3
NtRp3121
(dp3122
g10
g1
(g11
g12
(dtRp3123
sg14
g1
(g11
g12
(dtRp3124
sg16
g1
(g11
g12
(dtRp3125
sg18
g1
(g11
g12
(dtRp3126
sg20
g1
(g11
g12
(dtRp3127
sg22
g1
(g11
g12
(dtRp3128
sbsg24
S'Lkl'
p3129
sg26
g27
((lp3130
g29
ag30
aS'sequence'
p3131
ag32
ag33
aS'species'
p3132
atRp3133
sg37
(lp3134
sg120
g3085
sg121
S'RWLSTKDLYSRLELPGLNQNVHAMFVMPLGFGNPMGDMFARLNNSFWLPPLSLEGAGTGWTVYPPLSHSGPSVDLAFHLTSSLLGAINFTNMRGPLFWTALLLLSLPVLAGTLLDRNFNTFEGGDPLYHLFWFFGHPEVYIIPGFGSHSTYKKFGMYASIGLGFVWSHHMYVGLDDRAYFLSATMIAPTGIKFSWLATYGGRPMLAFLFLFTGGTGVLNASDAFHDLYYVVHFHYVLSMGAFSLGYYYWPGLYNLFWFNFPMHFLGGMPRRPYPDAGWNSGSSYQLGPDESNEPH'
p3135
sg123
F0.0077400000000000004
sg124
g125
sg33
S'118'
p3136
sg127
g1
(g128
g12
(dp3137
g130
I4
sg131
g132
sg133
g134
sg135
g132
sg136
I01
sg34
g137
sg138
g134
sg139
I0
sg140
I0
sg141
I0
sg142
g134
sg35
g143
sg144
I0
stRp3138
sg146
g147
sg148
F1
sg149
Nsg30
S'LkluyD'
p3139
sbasg120
g3072
sg123
F0.0017099999999999999
sg124
g125
sg33
S'85'
p3140
sg127
g1
(g128
g12
(dp3141
g130
I6
sg131
g132
sg133
g134
sg135
g132
sg136
I01
sg34
g176
sg138
g134
sg139
I0
sg140
I0
sg141
I0
sg142
g134
sg35
g177
sg144
I0
stRp3142
sg146
g147
sg148
F0.56000000000000005
sg149
Nsg30
S'NoName'
p3143
sbag1
(g2
g3
NtRp3144
(dp3145
g6
g1
(g7
g3
NtRp3146
(dp3147
g10
g1
(g11
g12
(dtRp3148
sg14
g1
(g11
g12
(dtRp3149
sg16
g1
(g11
g12
(dtRp3150
sg18
g1
(g11
g12
(dtRp3151
sg20
g1
(g11
g12
(dtRp3152
sg22
g1
(g11
g12
(dtRp3153
sbsg24
g25
sg26
g27
((lp3154
g33
ag32
ag29
ag30
atRp3155
sg37
(lp3156
g1
(g2
g3
NtRp3157
(dp3158
g6
g1
(g7
g3
NtRp3159
(dp3160
g10
g1
(g11
g12
(dtRp3161
sg14
g1
(g11
g12
(dtRp3162
sg16
g1
(g11
g12
(dtRp3163
sg18
g1
(g11
g12
(dtRp3164
sg20
g1
(g11
g12
(dtRp3165
sg22
g1
(g11
g12
(dtRp3166
sbsg24
g25
sg26
g27
((lp3167
g33
ag32
ag29
ag30
atRp3168
sg37
(lp3169
g1
(g2
g3
NtRp3170
(dp3171
g6
g1
(g7
g3
NtRp3172
(dp3173
g10
g1
(g11
g12
(dtRp3174
sg14
g1
(g11
g12
(dtRp3175
sg16
g1
(g11
g12
(dtRp3176
sg18
g1
(g11
g12
(dtRp3177
sg20
g1
(g11
g12
(dtRp3178
sg22
g1
(g11
g12
(dtRp3179
sbsg24
g25
sg26
g27
((lp3180
g33
ag32
ag29
ag30
atRp3181
sg37
(lp3182
g1
(g2
g3
NtRp3183
(dp3184
g6
g1
(g7
g3
NtRp3185
(dp3186
g10
g1
(g11
g12
(dtRp3187
sg14
g1
(g11
g12
(dtRp3188
sg16
g1
(g11
g12
(dtRp3189
sg18
g1
(g11
g12
(dtRp3190
sg20
g1
(g11
g12
(dtRp3191
sg22
g1
(g11
g12
(dtRp3192
sbsg24
S'Lkl'
p3193
sg26
g27
((lp3194
g29
ag30
aS'sequence'
p3195
ag32
ag33
aS'species'
p3196
atRp3197
sg37
(lp3198
sg120
g3170
sg121
S'RWLSTKDLYSRLELPGLNQNVHAMFVMPLGFGNPMGDMFARLNNSFWLPPLSLEGAGTGWTVYPPLSHSGPSVDLAFHLTSSLLGAINFTNMRGPLFWTALLLLSLPVLAGTLLDRNFNTFEGGDPLYHLFWFFGHPEVYIIPGFGSHSTYKKFGMYASIGLGFVWSHHMYVGLDDRAYFLSATMIAPTGIKFSWLATYGGRPMLAFLFLFTGGTGVLNASDAFHDLYYVVHFHYVLSMGAFSLGYYYWPGLYNLFWFNFPMHFLGGMPRRPYPDAGWNSGSSYQLGPDESNEPH'
p3199
sg123
F0.00038999999999999999
sg124
g125
sg33
S'160'
p3200
sg127
g1
(g128
g12
(dp3201
g130
I4
sg131
g132
sg133
g134
sg135
g132
sg136
I01
sg34
g137
sg138
g134
sg139
I0
sg140
I0
sg141
I0
sg142
g134
sg35
g143
sg144
I0
stRp3202
sg146
g147
sg148
F1
sg149
Nsg30
S'LkluyF'
p3203
sbag1
(g2
g3
NtRp3204
(dp3205
g6
g1
(g7
g3
NtRp3206
(dp3207
g10
g1
(g11
g12
(dtRp3208
sg14
g1
(g11
g12
(dtRp3209
sg16
g1
(g11
g12
(dtRp3210
sg18
g1
(g11
g12
(dtRp3211
sg20
g1
(g11
g12
(dtRp3212
sg22
g1
(g11
g12
(dtRp3213
sbsg24
S'Lkl'
p3214
sg26
g27
((lp3215
g29
ag30
aS'sequence'
p3216
ag32
ag33
aS'species'
p3217
atRp3218
sg37
(lp3219
sg120
g3170
sg121
S'RWLSTKDLYSRLELPGLNQNVHAMFVMPLGFGNPMGDMFARLNNSFWLPPLSLEGAGTGWTVYPPLSHSGPSVDLAFHLTSSLLGAINFTNMRGPLFWTALLLLSLPVLAGTLLDRNFNTFEGGDPLYHLFWFFGHPEVYIIPGFGSHSTYKKFGMYASIGLGFVWSHHMYVGLDDRAYFLSATMIAPTGIKFSWLATYGGRPMLAFLFLFTGGTGVLNASDAFHDLYYVVHFHYVLSMGAFSLGYYYWPGLYNLFWFNFPMHFLGGMPRRPYPDAGWNSGSSYQLGPDESNEPH'
p3220
sg123
F0.00038000000000000002
sg124
g125
sg33
S'171'
p3221
sg127
g1
(g128
g12
(dp3222
g130
I4
sg131
g132
sg133
g134
sg135
g132
sg136
I01
sg34
g137
sg138
g134
sg139
I0
sg140
I0
sg141
I0
sg142
g134
sg35
g143
sg144
I0
stRp3223
sg146
g147
sg148
F1
sg149
Nsg30
S'LkluyC'
p3224
sbasg120
g3157
sg123
F1.0000000000000001e-05
sg124
g125
sg33
S'138'
p3225
sg127
g1
(g128
g12
(dp3226
g130
I6
sg131
g132
sg133
g134
sg135
g132
sg136
I01
sg34
g176
sg138
g134
sg139
I0
sg140
I0
sg141
I0
sg142
g134
sg35
g177
sg144
I0
stRp3227
sg146
g147
sg148
F1
sg149
Nsg30
S'NoName'
p3228
sbag1
(g2
g3
NtRp3229
(dp3230
g6
g1
(g7
g3
NtRp3231
(dp3232
g10
g1
(g11
g12
(dtRp3233
sg14
g1
(g11
g12
(dtRp3234
sg16
g1
(g11
g12
(dtRp3235
sg18
g1
(g11
g12
(dtRp3236
sg20
g1
(g11
g12
(dtRp3237
sg22
g1
(g11
g12
(dtRp3238
sbsg24
S'Lkl'
p3239
sg26
g27
((lp3240
g29
ag30
aS'sequence'
p3241
ag32
ag33
aS'species'
p3242
atRp3243
sg37
(lp3244
sg120
g3157
sg121
S'RWLSTKDLYSRLELPGLNQNVHAMFVMPLGFGNPMGDMFARLNNSFWLPPLSLEGAGTGWTVYPPLSHSGPSVDLAFHLTSSLLGAINFTNMRGPLFWTALLLLSLPVLAGTLLDRNFNTFEGGDPLYHLFWFFGHPEVYIIPGFGSHSTYKKFGMYASIGLGFVWSHHMYVGLDDRAYFLSATMIAPTGIKFSWLATYGGRPMLAFLFLFTGGTGVLNASDAFHDLYYVVHFHYVLSMGAFSLGYYYWPGLYNLFWFNFPMHFLGGMPRRPYPDAGWNSGSSYQLGPDESNEPH'
p3245
sg123
F0.00040999999999999999
sg124
g125
sg33
S'181'
p3246
sg127
g1
(g128
g12
(dp3247
g130
I4
sg131
g132
sg133
g134
sg135
g132
sg136
I01
sg34
g137
sg138
g134
sg139
I0
sg140
I0
sg141
I0
sg142
g134
sg35
g143
sg144
I0
stRp3248
sg146
g147
sg148
F1
sg149
Nsg30
S'LkluyB'
p3249
sbasg120
g3144
sg123
F1.0000000000000001e-05
sg124
g125
sg33
S'128'
p3250
sg127
g1
(g128
g12
(dp3251
g130
I6
sg131
g132
sg133
g134
sg135
g132
sg136
I01
sg34
g176
sg138
g134
sg139
I0
sg140
I0
sg141
I0
sg142
g134
sg35
g177
sg144
I0
stRp3252
sg146
g147
sg148
F1
sg149
Nsg30
S'NoName'
p3253
sbag1
(g2
g3
NtRp3254
(dp3255
g6
g1
(g7
g3
NtRp3256
(dp3257
g10
g1
(g11
g12
(dtRp3258
sg14
g1
(g11
g12
(dtRp3259
sg16
g1
(g11
g12
(dtRp3260
sg18
g1
(g11
g12
(dtRp3261
sg20
g1
(g11
g12
(dtRp3262
sg22
g1
(g11
g12
(dtRp3263
sbsg24
S'Lkl'
p3264
sg26
g27
((lp3265
g29
ag30
aS'sequence'
p3266
ag32
ag33
aS'species'
p3267
atRp3268
sg37
(lp3269
sg120
g3144
sg121
S'RWLSTKDLYSRLELPGLNQNVHAMFVMPLGFGNPMGDMFARLNNSFWLPPLSLEGAGTGWTVYPPLSHSGPSVDLAFHLTSSLLGAINFTNMRGPLFWTALLLLSLPVLAGTLLDRNFNTFEGGDPLYHLFWFFGHPEVYIIPGFGSHSTYKKFGMYASIGLGFVWSHHMYVGLDDRAYFLSATMIAPTGIKFSWLATYGGRPMLAFLFLFTGGTGVLNASDAFHDLYYVVHFHYVLSMGAFSLGYYYWPGLYNLFWFNFPMHFLGGMPRRPYPDAGWNSGSSYQLGPDESNEPH'
p3270
sg123
F0.00040999999999999999
sg124
g125
sg33
S'192'
p3271
sg127
g1
(g128
g12
(dp3272
g130
I4
sg131
g132
sg133
g134
sg135
g132
sg136
I01
sg34
g137
sg138
g134
sg139
I0
sg140
I0
sg141
I0
sg142
g134
sg35
g143
sg144
I0
stRp3273
sg146
g147
sg148
F1
sg149
Nsg30
S'LkluyA'
p3274
sbasg120
g3072
sg123
F0.0035300000000000002
sg124
g125
sg33
S'96'
p3275
sg127
g1
(g128
g12
(dp3276
g130
I6
sg131
g132
sg133
g134
sg135
g132
sg136
I01
sg34
g176
sg138
g134
sg139
I0
sg140
I0
sg141
I0
sg142
g134
sg35
g177
sg144
I0
stRp3277
sg146
g147
sg148
F0.91000000000000003
sg149
Nsg30
S'NoName'
p3278
sbasg120
g3059
sg123
F0.054280000000000002
sg124
g125
sg33
S'75'
p3279
sg127
g1
(g128
g12
(dp3280
g130
I6
sg131
g132
sg133
g134
sg135
g132
sg136
I01
sg34
g176
sg138
g134
sg139
I0
sg140
I0
sg141
I0
sg142
g134
sg35
g177
sg144
I0
stRp3281
sg146
g147
sg148
F0.98999999999999999
sg149
Nsg30
S'NoName'
p3282
sbag1
(g2
g3
NtRp3283
(dp3284
g6
g1
(g7
g3
NtRp3285
(dp3286
g10
g1
(g11
g12
(dtRp3287
sg14
g1
(g11
g12
(dtRp3288
sg16
g1
(g11
g12
(dtRp3289
sg18
g1
(g11
g12
(dtRp3290
sg20
g1
(g11
g12
(dtRp3291
sg22
g1
(g11
g12
(dtRp3292
sbsg24
g25
sg26
g27
((lp3293
g33
ag32
ag29
ag30
atRp3294
sg37
(lp3295
g1
(g2
g3
NtRp3296
(dp3297
g6
g1
(g7
g3
NtRp3298
(dp3299
g10
g1
(g11
g12
(dtRp3300
sg14
g1
(g11
g12
(dtRp3301
sg16
g1
(g11
g12
(dtRp3302
sg18
g1
(g11
g12
(dtRp3303
sg20
g1
(g11
g12
(dtRp3304
sg22
g1
(g11
g12
(dtRp3305
sbsg24
S'Lan'
p3306
sg26
g27
((lp3307
g29
ag30
aS'sequence'
p3308
ag32
ag33
aS'species'
p3309
atRp3310
sg37
(lp3311
sg120
g3283
sg121
S'RWLSTKDLYSRLELPGLNQNVHAMFVMPLGFGNPMGDMFARLNNSFWLPPLSLEGAGTGWTLYPPLSHSGPSVDLAFHLTSSLLGAINFTNMRGPLFWTALLLLSLPVLAGTVLDRNFNTFEGGDPLYHLFWFFGHPEVYIIPGFGSHSTYKKFGMYASIGLGFVWSHHMYVGLDDRAYFTSATMIAPTGIKFSWLALYGGRPMLAFLFLFTGGTGVLNASDAFHDTYYVVHFHYVLSMGAFSLGYYYWPGLYNLFWFNFPMHFLGGMPRRPYPDAGWNSGSSYQLGPDESNEPH'
p3312
sg123
F0.10922999999999999
sg124
g125
sg33
S'211'
p3313
sg127
g1
(g128
g12
(dp3314
g130
I4
sg131
g132
sg133
g134
sg135
g132
sg136
I01
sg34
g137
sg138
g134
sg139
I0
sg140
I0
sg141
I0
sg142
g134
sg35
g143
sg144
I0
stRp3315
sg146
g147
sg148
F1
sg149
Nsg30
S'LanspA'
p3316
sbag1
(g2
g3
NtRp3317
(dp3318
g6
g1
(g7
g3
NtRp3319
(dp3320
g10
g1
(g11
g12
(dtRp3321
sg14
g1
(g11
g12
(dtRp3322
sg16
g1
(g11
g12
(dtRp3323
sg18
g1
(g11
g12
(dtRp3324
sg20
g1
(g11
g12
(dtRp3325
sg22
g1
(g11
g12
(dtRp3326
sbsg24
g25
sg26
g27
((lp3327
g33
ag32
ag29
ag30
atRp3328
sg37
(lp3329
g1
(g2
g3
NtRp3330
(dp3331
g6
g1
(g7
g3
NtRp3332
(dp3333
g10
g1
(g11
g12
(dtRp3334
sg14
g1
(g11
g12
(dtRp3335
sg16
g1
(g11
g12
(dtRp3336
sg18
g1
(g11
g12
(dtRp3337
sg20
g1
(g11
g12
(dtRp3338
sg22
g1
(g11
g12
(dtRp3339
sbsg24
g25
sg26
g27
((lp3340
g33
ag32
ag29
ag30
atRp3341
sg37
(lp3342
g1
(g2
g3
NtRp3343
(dp3344
g6
g1
(g7
g3
NtRp3345
(dp3346
g10
g1
(g11
g12
(dtRp3347
sg14
g1
(g11
g12
(dtRp3348
sg16
g1
(g11
g12
(dtRp3349
sg18
g1
(g11
g12
(dtRp3350
sg20
g1
(g11
g12
(dtRp3351
sg22
g1
(g11
g12
(dtRp3352
sbsg24
S'Lno'
p3353
sg26
g27
((lp3354
g29
ag30
aS'sequence'
p3355
ag32
ag33
aS'species'
p3356
atRp3357
sg37
(lp3358
sg120
g3330
sg121
S'RWLSTKDLYSRLELPGLNQNVHAMFVMPLGFGNPMGDMFARLNNSFWLPPLSLEGAGTGWTIYPPLSHSGPSVDLAFHLTSSLLGAINFTNMRGPLFWTALLLLSLPVLAGTILDRNFNTFEGGDPLYHLFWFFGHPEVYIIPGFGSHSTYKKFGMYASIGLGFVWSHHMYVGLDDRAYFTSALMIAPTGIKFSWLALYGGRPMLAFLFLFTGGTGVLNASDAFHDTYYVVHFHYVLSMGAFSLGYYYWPGLYNLFWFNFPMHFLGGMPRRPYPDAGWNSGSSYQLGPDESNEPH'
p3359
sg123
F0.0075199999999999998
sg124
g125
sg33
S'18'
p3360
sg127
g1
(g128
g12
(dp3361
g130
I4
sg131
g132
sg133
g134
sg135
g132
sg136
I01
sg34
g137
sg138
g134
sg139
I0
sg140
I0
sg141
I0
sg142
g134
sg35
g143
sg144
I0
stRp3362
sg146
g147
sg148
F1
sg149
Nsg30
S'LnothA'
p3363
sbag1
(g2
g3
NtRp3364
(dp3365
g6
g1
(g7
g3
NtRp3366
(dp3367
g10
g1
(g11
g12
(dtRp3368
sg14
g1
(g11
g12
(dtRp3369
sg16
g1
(g11
g12
(dtRp3370
sg18
g1
(g11
g12
(dtRp3371
sg20
g1
(g11
g12
(dtRp3372
sg22
g1
(g11
g12
(dtRp3373
sbsg24
g25
sg26
g27
((lp3374
g33
ag32
ag29
ag30
atRp3375
sg37
(lp3376
g1
(g2
g3
NtRp3377
(dp3378
g6
g1
(g7
g3
NtRp3379
(dp3380
g10
g1
(g11
g12
(dtRp3381
sg14
g1
(g11
g12
(dtRp3382
sg16
g1
(g11
g12
(dtRp3383
sg18
g1
(g11
g12
(dtRp3384
sg20
g1
(g11
g12
(dtRp3385
sg22
g1
(g11
g12
(dtRp3386
sbsg24
S'Lda'
p3387
sg26
g27
((lp3388
g29
ag30
aS'sequence'
p3389
ag32
ag33
aS'species'
p3390
atRp3391
sg37
(lp3392
sg120
g3364
sg121
S'RWLSTKDLYSRLELPGLNQNVHAMFVMPLGFGNPMGDMFARLNNSFWLPPLSLEGAGTGWTVYPPLSHSGPSVDLAFHLTSSLLGAINFTNMRGPLFWTALLLLSLPVLAGTILDRNFNTFEGGDPLYHLFWFFGHPEVYIIPGFGSHSTYKKFGMYASIGLGFVWSHHMYVGLDDRAYFTSATMIAPTGIKFSWLALYGGRPMLAFLFLFTGGTGVLNASDAFHDTYYVVHFHYVLSMGAFSLGYYYWPGLYNLFWFNFPMHFLGGMPRRPYPDAGWNSGSSYQLGPDESNEPH'
p3393
sg123
F0.023539999999999998
sg124
g125
sg33
S'39'
p3394
sg127
g1
(g128
g12
(dp3395
g130
I4
sg131
g132
sg133
g134
sg135
g132
sg136
I01
sg34
g137
sg138
g134
sg139
I0
sg140
I0
sg141
I0
sg142
g134
sg35
g143
sg144
I0
stRp3396
sg146
g147
sg148
F1
sg149
Nsg30
S'LdasiA'
p3397
sbag1
(g2
g3
NtRp3398
(dp3399
g6
g1
(g7
g3
NtRp3400
(dp3401
g10
g1
(g11
g12
(dtRp3402
sg14
g1
(g11
g12
(dtRp3403
sg16
g1
(g11
g12
(dtRp3404
sg18
g1
(g11
g12
(dtRp3405
sg20
g1
(g11
g12
(dtRp3406
sg22
g1
(g11
g12
(dtRp3407
sbsg24
g25
sg26
g27
((lp3408
g33
ag32
ag29
ag30
atRp3409
sg37
(lp3410
g1
(g2
g3
NtRp3411
(dp3412
g6
g1
(g7
g3
NtRp3413
(dp3414
g10
g1
(g11
g12
(dtRp3415
sg14
g1
(g11
g12
(dtRp3416
sg16
g1
(g11
g12
(dtRp3417
sg18
g1
(g11
g12
(dtRp3418
sg20
g1
(g11
g12
(dtRp3419
sg22
g1
(g11
g12
(dtRp3420
sbsg24
S'Lme'
p3421
sg26
g27
((lp3422
g29
ag30
aS'sequence'
p3423
ag32
ag33
aS'species'
p3424
atRp3425
sg37
(lp3426
sg120
g3398
sg121
S'RWLSTKDLYSRLELPGLNQNVHAMFVMPLGFGNPMGDMFARLNNSFWLPPLSLEGAGTGWTVYPPLSHSGPSVDLAFHLTSSLLGAINFTNMRGPLFWTALLLLSLPVLAGTILDRNFNTFEGGDPLYHLFWFFGHPEVYIIPGFGSHSTYKKFGMYASIGLGFVWSHHMYVGLDDRAYFTSATMIAPTGIKFSWLALYGGRPMLAFLFLFTGGTGVLNASDAFHDTYYVVHFHYVLSMGAFSLGYYYWPGLYNLFWFNFPMHFLGGMPRRPYPDAGWNSGSSYQLGPDESNEPH'
p3427
sg123
F0.0050299999999999997
sg124
g125
sg33
S'62'
p3428
sg127
g1
(g128
g12
(dp3429
g130
I4
sg131
g132
sg133
g134
sg135
g132
sg136
I01
sg34
g137
sg138
g134
sg139
I0
sg140
I0
sg141
I0
sg142
g134
sg35
g143
sg144
I0
stRp3430
sg146
g147
sg148
F1
sg149
Nsg30
S'LmeyeA'
p3431
sbag1
(g2
g3
NtRp3432
(dp3433
g6
g1
(g7
g3
NtRp3434
(dp3435
g10
g1
(g11
g12
(dtRp3436
sg14
g1
(g11
g12
(dtRp3437
sg16
g1
(g11
g12
(dtRp3438
sg18
g1
(g11
g12
(dtRp3439
sg20
g1
(g11
g12
(dtRp3440
sg22
g1
(g11
g12
(dtRp3441
sbsg24
S'Lan'
p3442
sg26
g27
((lp3443
g29
ag30
aS'sequence'
p3444
ag32
ag33
aS'species'
p3445
atRp3446
sg37
(lp3447
sg120
g3398
sg121
S'RWLSTKDLYSRLELPGLNQNVHAMFVMPLGFGNPMGDMFARLNNSFWLPPLSLEGAGTGWTVYPPLSHSGPSVDLAFHLTSSLLGAINFTNMRGPLFWTALLLLSLPVLAGTILDRNFNTFEGGDPLYHLFWFFGHPEVYIIPGFGSHSTYKKFGMYASIGLGFVWSHHMYVGLDDRAYFTSALMIAPTGIKFSWLALYGGRPMLAFLFLFTGGTGVLNASDAFHDTYYVVHFHYVLSMGAFSLGYYYWPGLYNLFWFNFPMHFLGGMPRRPYPDAGWNSGSSYQLGPDESNEPH'
p3448
sg123
F0.012290000000000001
sg124
g125
sg33
S'72'
p3449
sg127
g1
(g128
g12
(dp3450
g130
I4
sg131
g132
sg133
g134
sg135
g132
sg136
I01
sg34
g137
sg138
g134
sg139
I0
sg140
I0
sg141
I0
sg142
g134
sg35
g143
sg144
I0
stRp3451
sg146
g147
sg148
F1
sg149
Nsg30
S'LanspB'
p3452
sbasg120
g3364
sg123
F0.012070000000000001
sg124
g125
sg33
S'28'
p3453
sg127
g1
(g128
g12
(dp3454
g130
I6
sg131
g132
sg133
g134
sg135
g132
sg136
I01
sg34
g176
sg138
g134
sg139
I0
sg140
I0
sg141
I0
sg142
g134
sg35
g177
sg144
I0
stRp3455
sg146
g147
sg148
F0.98999999999999999
sg149
Nsg30
S'NoName'
p3456
sbasg120
g3330
sg123
F0.0088199999999999997
sg124
g125
sg33
S'8'
sg127
g1
(g128
g12
(dp3457
g130
I6
sg131
g132
sg133
g134
sg135
g132
sg136
I01
sg34
g176
sg138
g134
sg139
I0
sg140
I0
sg141
I0
sg142
g134
sg35
g177
sg144
I0
stRp3458
sg146
g147
sg148
F0.95999999999999996
sg149
Nsg30
S'NoName'
p3459
sbasg120
g3317
sg123
F0.016570000000000001
sg124
g125
sg33
S'224'
p3460
sg127
g1
(g128
g12
(dp3461
g130
I6
sg131
g132
sg133
g134
sg135
g132
sg136
I01
sg34
g176
sg138
g134
sg139
I0
sg140
I0
sg141
I0
sg142
g134
sg35
g177
sg144
I0
stRp3462
sg146
g147
sg148
F0.94999999999999996
sg149
Nsg30
S'NoName'
p3463
sbag1
(g2
g3
NtRp3464
(dp3465
g6
g1
(g7
g3
NtRp3466
(dp3467
g10
g1
(g11
g12
(dtRp3468
sg14
g1
(g11
g12
(dtRp3469
sg16
g1
(g11
g12
(dtRp3470
sg18
g1
(g11
g12
(dtRp3471
sg20
g1
(g11
g12
(dtRp3472
sg22
g1
(g11
g12
(dtRp3473
sbsg24
S'Kth'
p3474
sg26
g27
((lp3475
g29
ag30
aS'sequence'
p3476
ag32
ag33
aS'species'
p3477
atRp3478
sg37
(lp3479
sg120
g3317
sg121
S'RWLSTKDLYSRLELPGLNQNVHAMFVMPLGFGNPMGDMFARLNNSFWLPPLSLEGAGTGWTVYPPLSHSGPSVDLAFHLTSSLLGAINFTNMRGPLFWTALLLLSLPVLAGTILDRNFNTFEGGDPLYHLFWFFGHPEVYIIPGFGSHSTYKKFGMYASIGLGFVWSHHMYVGLDDRAYFTSATMIAPTGIKFSWLALYGGRPMLAFLFLFTGGTGVLNASDAFHDTYYVVHFHYVLSMGAFSLGYYYWPGLYNLFWFNFPMHFLGGMPRRPYPDAGWNSGSSYQLGPDESNEPH'
p3480
sg123
F0.021499999999999998
sg124
g125
sg33
S'81'
p3481
sg127
g1
(g128
g12
(dp3482
g130
I4
sg131
g132
sg133
g134
sg135
g132
sg136
I01
sg34
g137
sg138
g134
sg139
I0
sg140
I0
sg141
I0
sg142
g134
sg35
g143
sg144
I0
stRp3483
sg146
g147
sg148
F1
sg149
Nsg30
S'KtherA'
p3484
sbasg120
g3283
sg123
F0.033250000000000002
sg124
g125
sg33
S'201'
p3485
sg127
g1
(g128
g12
(dp3486
g130
I6
sg131
g132
sg133
g134
sg135
g132
sg136
I01
sg34
g176
sg138
g134
sg139
I0
sg140
I0
sg141
I0
sg142
g134
sg35
g177
sg144
I0
stRp3487
sg146
g147
sg148
F0.93999999999999995
sg149
Nsg30
S'NoName'
p3488
sbasg120
g3059
sg123
F0.038859999999999999
sg124
g125
sg33
S'147'
p3489
sg127
g1
(g128
g12
(dp3490
g130
I6
sg131
g132
sg133
g134
sg135
g132
sg136
I01
sg34
g176
sg138
g134
sg139
I0
sg140
I0
sg141
I0
sg142
g134
sg35
g177
sg144
I0
stRp3491
sg146
g147
sg148
F0.92000000000000004
sg149
Nsg30
S'NoName'
p3492
sbasg120
g3046
sg123
F0.050380000000000001
sg124
g125
sg33
S'65'
p3493
sg127
g1
(g128
g12
(dp3494
g130
I6
sg131
g132
sg133
g134
sg135
g132
sg136
I01
sg34
g176
sg138
g134
sg139
I0
sg140
I0
sg141
I0
sg142
g134
sg35
g177
sg144
I0
stRp3495
sg146
g147
sg148
F0.89000000000000001
sg149
Nsg30
S'NoName'
p3496
sbag1
(g2
g3
NtRp3497
(dp3498
g6
g1
(g7
g3
NtRp3499
(dp3500
g10
g1
(g11
g12
(dtRp3501
sg14
g1
(g11
g12
(dtRp3502
sg16
g1
(g11
g12
(dtRp3503
sg18
g1
(g11
g12
(dtRp3504
sg20
g1
(g11
g12
(dtRp3505
sg22
g1
(g11
g12
(dtRp3506
sbsg24
g25
sg26
g27
((lp3507
g33
ag32
ag29
ag30
atRp3508
sg37
(lp3509
g1
(g2
g3
NtRp3510
(dp3511
g6
g1
(g7
g3
NtRp3512
(dp3513
g10
g1
(g11
g12
(dtRp3514
sg14
g1
(g11
g12
(dtRp3515
sg16
g1
(g11
g12
(dtRp3516
sg18
g1
(g11
g12
(dtRp3517
sg20
g1
(g11
g12
(dtRp3518
sg22
g1
(g11
g12
(dtRp3519
sbsg24
S'Kma'
p3520
sg26
g27
((lp3521
g29
ag30
aS'sequence'
p3522
ag32
ag33
aS'species'
p3523
atRp3524
sg37
(lp3525
sg120
g3497
sg121
S'RWLSTKDLYSRLELPGLNQNVHAMFVMPLGFGNPMGDMFARLNNSFWLPPLSLEGAGTGWTVYPPLSHSGPSVDLAFHLTSSLLGAINFTNMRGPLFWTALLLLSLPVLAGTLLDRNFNTFEGGDPLYHLFWFFGHPEVYIIPGFGSHSTYKKFGMYASIGLGFVWSHHMYVGLDDRAYFTSATMIAPTGIKFSWLATYGGRPMLAFLFLFTGGTGVLNASDAFHDTYYVVHFHYVLSMGAFSLGYYYWPGLYNLFWFNFPMHFLGGMPRRPYPDAGWNSGSSYQLGPDESNEPH'
p3526
sg123
F0.04018
sg124
g125
sg33
S'104'
p3527
sg127
g1
(g128
g12
(dp3528
g130
I4
sg131
g132
sg133
g134
sg135
g132
sg136
I01
sg34
g137
sg138
g134
sg139
I0
sg140
I0
sg141
I0
sg142
g134
sg35
g143
sg144
I0
stRp3529
sg146
g147
sg148
F1
sg149
Nsg30
S'KmarxA'
p3530
sbag1
(g2
g3
NtRp3531
(dp3532
g6
g1
(g7
g3
NtRp3533
(dp3534
g10
g1
(g11
g12
(dtRp3535
sg14
g1
(g11
g12
(dtRp3536
sg16
g1
(g11
g12
(dtRp3537
sg18
g1
(g11
g12
(dtRp3538
sg20
g1
(g11
g12
(dtRp3539
sg22
g1
(g11
g12
(dtRp3540
sbsg24
S'Kla'
p3541
sg26
g27
((lp3542
g29
ag30
aS'sequence'
p3543
ag32
ag33
aS'species'
p3544
atRp3545
sg37
(lp3546
sg120
g3497
sg121
S'RWLSTKDLYSRLELPGLNQNVHAMFVMPLGFGNPLGDMFARLNNSFWLPPLSLEGAGTGWTVYPPLSHSGPSVDLAFHLTSSLLGAINFTNMRGPLFWTALLLLSLPVLAGTLLDRNFNTFEGGDPLYHLFWFFGHPEVYIIPGFGSHSTYKKFGMYASIGLGFVWSHHMYVGLDDRAYFTSATMIAPTGIKFSWLATYGGRPMLAFLFLFTGGTGVLNASDAFHDTYYVVHFHYVLSMGAFSLGYYYWPGLYNLFWFNFPMHFLGGMPRRPYPDAGWNSGSSYQLGPDESNEPH'
p3547
sg123
F0.043529999999999999
sg124
g125
sg33
S'115'
p3548
sg127
g1
(g128
g12
(dp3549
g130
I4
sg131
g132
sg133
g134
sg135
g132
sg136
I01
sg34
g137
sg138
g134
sg139
I0
sg140
I0
sg141
I0
sg142
g134
sg35
g143
sg144
I0
stRp3550
sg146
g147
sg148
F1
sg149
Nsg30
S'KlactA'
p3551
sbasg120
g3046
sg123
F0.13938999999999999
sg124
g125
sg33
S'50'
p3552
sg127
g1
(g128
g12
(dp3553
g130
I6
sg131
g132
sg133
g134
sg135
g132
sg136
I01
sg34
g176
sg138
g134
sg139
I0
sg140
I0
sg141
I0
sg142
g134
sg35
g177
sg144
I0
stRp3554
sg146
g147
sg148
F0.98999999999999999
sg149
Nsg30
S'NoName'
p3555
sbasg120
g3033
sg123
F1.0000000000000001e-05
sg124
g125
sg33
S'54'
p3556
sg127
g1
(g128
g12
(dp3557
g130
I6
sg131
g132
sg133
g134
sg135
g132
sg136
I01
sg34
g176
sg138
g134
sg139
I0
sg140
I0
sg141
I0
sg142
g134
sg35
g177
sg144
I0
stRp3558
sg146
g147
sg148
F1
sg149
Nsg30
S'NoName'
p3559
sbag1
(g2
g3
NtRp3560
(dp3561
g6
g1
(g7
g3
NtRp3562
(dp3563
g10
g1
(g11
g12
(dtRp3564
sg14
g1
(g11
g12
(dtRp3565
sg16
g1
(g11
g12
(dtRp3566
sg18
g1
(g11
g12
(dtRp3567
sg20
g1
(g11
g12
(dtRp3568
sg22
g1
(g11
g12
(dtRp3569
sbsg24
g25
sg26
g27
((lp3570
g33
ag32
ag29
ag30
atRp3571
sg37
(lp3572
g1
(g2
g3
NtRp3573
(dp3574
g6
g1
(g7
g3
NtRp3575
(dp3576
g10
g1
(g11
g12
(dtRp3577
sg14
g1
(g11
g12
(dtRp3578
sg16
g1
(g11
g12
(dtRp3579
sg18
g1
(g11
g12
(dtRp3580
sg20
g1
(g11
g12
(dtRp3581
sg22
g1
(g11
g12
(dtRp3582
sbsg24
S'Huv'
p3583
sg26
g27
((lp3584
g29
ag30
aS'sequence'
p3585
ag32
ag33
aS'species'
p3586
atRp3587
sg37
(lp3588
sg120
g3560
sg121
S'-MITTKDLYSRLELSGINHNSHAMFIMPIGFGNPAGDMFPRLNNSFWLVPVSLEGAGTGWTVYYPLSHSSVSVDLVFHCLSSLLGAINFTNFL-SLFWLALLLLSLPVLVGTLLDRNFNLYEGGDPLYHLFWFFGHPEVYIIPAFGSMSAYSKFGMYASIGLGFVWVHHMFVGLDDRAYFTSATMIAPLGIKFSWLALIGGRPVLAFLVLFLGGTGVLNASDAFHDTYYVVHFHYVLSLGAFGIGYYYWPGLYNLFVVNFPMHYLGGMPRRSYPDSAWNTGASVQLGTDLLPEPH'
p3589
sg123
F3.9441199999999998
sg124
g125
sg33
S'134'
p3590
sg127
g1
(g128
g12
(dp3591
g130
I4
sg131
g132
sg133
g134
sg135
g132
sg136
I01
sg34
g137
sg138
g134
sg139
I0
sg140
I0
sg141
I0
sg142
g134
sg35
g143
sg144
I0
stRp3592
sg146
g147
sg148
F1
sg149
Nsg30
S'HuvarA'
p3593
sbag1
(g2
g3
NtRp3594
(dp3595
g6
g1
(g7
g3
NtRp3596
(dp3597
g10
g1
(g11
g12
(dtRp3598
sg14
g1
(g11
g12
(dtRp3599
sg16
g1
(g11
g12
(dtRp3600
sg18
g1
(g11
g12
(dtRp3601
sg20
g1
(g11
g12
(dtRp3602
sg22
g1
(g11
g12
(dtRp3603
sbsg24
g25
sg26
g27
((lp3604
g33
ag32
ag29
ag30
atRp3605
sg37
(lp3606
g1
(g2
g3
NtRp3607
(dp3608
g6
g1
(g7
g3
NtRp3609
(dp3610
g10
g1
(g11
g12
(dtRp3611
sg14
g1
(g11
g12
(dtRp3612
sg16
g1
(g11
g12
(dtRp3613
sg18
g1
(g11
g12
(dtRp3614
sg20
g1
(g11
g12
(dtRp3615
sg22
g1
(g11
g12
(dtRp3616
sbsg24
g25
sg26
g27
((lp3617
g33
ag32
ag29
ag30
atRp3618
sg37
(lp3619
g1
(g2
g3
NtRp3620
(dp3621
g6
g1
(g7
g3
NtRp3622
(dp3623
g10
g1
(g11
g12
(dtRp3624
sg14
g1
(g11
g12
(dtRp3625
sg16
g1
(g11
g12
(dtRp3626
sg18
g1
(g11
g12
(dtRp3627
sg20
g1
(g11
g12
(dtRp3628
sg22
g1
(g11
g12
(dtRp3629
sbsg24
g25
sg26
g27
((lp3630
g33
ag32
ag29
ag30
atRp3631
sg37
(lp3632
g1
(g2
g3
NtRp3633
(dp3634
g6
g1
(g7
g3
NtRp3635
(dp3636
g10
g1
(g11
g12
(dtRp3637
sg14
g1
(g11
g12
(dtRp3638
sg16
g1
(g11
g12
(dtRp3639
sg18
g1
(g11
g12
(dtRp3640
sg20
g1
(g11
g12
(dtRp3641
sg22
g1
(g11
g12
(dtRp3642
sbsg24
S'Sse'
p3643
sg26
g27
((lp3644
g29
ag30
aS'sequence'
p3645
ag32
ag33
aS'species'
p3646
atRp3647
sg37
(lp3648
sg120
g3620
sg121
S'RWLSTKDMYSRMELPGLNQNVHAMFAMPLGFGNPMGDMFPRINSGFWLPMLSLEGAGTGWTVYPPLSHSGPSVDLAFHLTSSLLGAINFTNMRGPLFWTALLLLSLPVLAGTLLDRNFNTFEGGDPFYHAFWFFGHPEVYIIPGFGSHSTYKKFGMYASIGLGFVWSHHMYVGLDDRAYFTSATMIAPTGIKFSWLALYGGRPMMAFLFLFTGGTGVLNASDAFHDTYYVVHFHYVLSMGAFSLGYYYWPGLYNLFWFNFPMHFLGGMPRRPYPDAGWNSGSSYQIGPDESNEPH'
p3649
sg123
F0.29805999999999999
sg124
g125
sg33
S'101'
p3650
sg127
g1
(g128
g12
(dp3651
g130
I4
sg131
g132
sg133
g134
sg135
g132
sg136
I01
sg34
g137
sg138
g134
sg139
I0
sg140
I0
sg141
I0
sg142
g134
sg35
g143
sg144
I0
stRp3652
sg146
g147
sg148
F1
sg149
Nsg30
S'SservA'
p3653
sbag1
(g2
g3
NtRp3654
(dp3655
g6
g1
(g7
g3
NtRp3656
(dp3657
g10
g1
(g11
g12
(dtRp3658
sg14
g1
(g11
g12
(dtRp3659
sg16
g1
(g11
g12
(dtRp3660
sg18
g1
(g11
g12
(dtRp3661
sg20
g1
(g11
g12
(dtRp3662
sg22
g1
(g11
g12
(dtRp3663
sbsg24
S'Sca'
p3664
sg26
g27
((lp3665
g29
ag30
aS'sequence'
p3666
ag32
ag33
aS'species'
p3667
atRp3668
sg37
(lp3669
sg120
g3620
sg121
S'RWLSTKDLYSRLELPGLNQNVHAMFVMPLGFGNPMGDTFPRINNGFWLPMLSLEGAGTGWTVYPPLAHSGPSVDLAFHMTSSLLGAINFTNMRGPLFWTALLLLTLPVLAGTLLDRNFNTFEGGDPLYHLFWFFGHPEVYIIPGFGSHSTYKKFGMYASIGLGLVWSHHMYVGLDDRAYFTSATMIAPTGIKFSWLATYGGRPMLAFLFLFTGGTGVLNASDAFHDLYYVVHFHYVLSMGAFSLGYYYWPGLYNLFWFNFPMHFLGGMPRRPYPDAGWNSGASYQLGPDESNEPH'
p3670
sg123
F0.30890000000000001
sg124
g125
sg33
S'153'
p3671
sg127
g1
(g128
g12
(dp3672
g130
I4
sg131
g132
sg133
g134
sg135
g132
sg136
I01
sg34
g137
sg138
g134
sg139
I0
sg140
I0
sg141
I0
sg142
g134
sg35
g143
sg144
I0
stRp3673
sg146
g147
sg148
F1
sg149
Nsg30
S'ScastA'
p3674
sbasg120
g3607
sg123
F0.072319999999999995
sg124
g125
sg33
S'221'
p3675
sg127
g1
(g128
g12
(dp3676
g130
I6
sg131
g132
sg133
g134
sg135
g132
sg136
I01
sg34
g176
sg138
g134
sg139
I0
sg140
I0
sg141
I0
sg142
g134
sg35
g177
sg144
I0
stRp3677
sg146
g147
sg148
F0.98999999999999999
sg149
Nsg30
S'NoName'
p3678
sbag1
(g2
g3
NtRp3679
(dp3680
g6
g1
(g7
g3
NtRp3681
(dp3682
g10
g1
(g11
g12
(dtRp3683
sg14
g1
(g11
g12
(dtRp3684
sg16
g1
(g11
g12
(dtRp3685
sg18
g1
(g11
g12
(dtRp3686
sg20
g1
(g11
g12
(dtRp3687
sg22
g1
(g11
g12
(dtRp3688
sbsg24
g25
sg26
g27
((lp3689
g33
ag32
ag29
ag30
atRp3690
sg37
(lp3691
g1
(g2
g3
NtRp3692
(dp3693
g6
g1
(g7
g3
NtRp3694
(dp3695
g10
g1
(g11
g12
(dtRp3696
sg14
g1
(g11
g12
(dtRp3697
sg16
g1
(g11
g12
(dtRp3698
sg18
g1
(g11
g12
(dtRp3699
sg20
g1
(g11
g12
(dtRp3700
sg22
g1
(g11
g12
(dtRp3701
sbsg24
S'Spa'
p3702
sg26
g27
((lp3703
g29
ag30
aS'sequence'
p3704
ag32
ag33
aS'species'
p3705
atRp3706
sg37
(lp3707
sg120
g3679
sg121
S'RWLSTKDLYSRLELPGLNQNVHAMFVMPLGFGNPMGDTFPRINNAFWLPMLSLEGAGTGWTVYPPLSHSGPSVDLAFHLTSSLLGAINFTNMRGPLFWTALLLLSLPVLAGTLLDRNFNTFEGGDPLYHLFWFFGHPEVYIIPGFGSHSTYKKFGMYASIGLGFVWSHHMYVGLDDRAYFLSATMIAPTGIKFSWLATYGGRPMLAFLFLFTGGTGVLNASDAFHDTYYVVHFHYVLSMGAFSLGYYYWPGLYNLFWFNFPMHFLGGMPRRPYPDAGWNSGSSYQLGPDESNEPH'
p3708
sg123
F0.029780000000000001
sg124
g125
sg33
S'184'
p3709
sg127
g1
(g128
g12
(dp3710
g130
I4
sg131
g132
sg133
g134
sg135
g132
sg136
I01
sg34
g137
sg138
g134
sg139
I0
sg140
I0
sg141
I0
sg142
g134
sg35
g143
sg144
I0
stRp3711
sg146
g147
sg148
F1
sg149
Nsg30
S'SpastA'
p3712
sbag1
(g2
g3
NtRp3713
(dp3714
g6
g1
(g7
g3
NtRp3715
(dp3716
g10
g1
(g11
g12
(dtRp3717
sg14
g1
(g11
g12
(dtRp3718
sg16
g1
(g11
g12
(dtRp3719
sg18
g1
(g11
g12
(dtRp3720
sg20
g1
(g11
g12
(dtRp3721
sg22
g1
(g11
g12
(dtRp3722
sbsg24
g25
sg26
g27
((lp3723
g33
ag32
ag29
ag30
atRp3724
sg37
(lp3725
g1
(g2
g3
NtRp3726
(dp3727
g6
g1
(g7
g3
NtRp3728
(dp3729
g10
g1
(g11
g12
(dtRp3730
sg14
g1
(g11
g12
(dtRp3731
sg16
g1
(g11
g12
(dtRp3732
sg18
g1
(g11
g12
(dtRp3733
sg20
g1
(g11
g12
(dtRp3734
sg22
g1
(g11
g12
(dtRp3735
sbsg24
g25
sg26
g27
((lp3736
g33
ag32
ag29
ag30
atRp3737
sg37
(lp3738
g1
(g2
g3
NtRp3739
(dp3740
g6
g1
(g7
g3
NtRp3741
(dp3742
g10
g1
(g11
g12
(dtRp3743
sg14
g1
(g11
g12
(dtRp3744
sg16
g1
(g11
g12
(dtRp3745
sg18
g1
(g11
g12
(dtRp3746
sg20
g1
(g11
g12
(dtRp3747
sg22
g1
(g11
g12
(dtRp3748
sbsg24
S'Sce'
p3749
sg26
g27
((lp3750
g29
ag30
aS'sequence'
p3751
ag32
ag33
aS'species'
p3752
atRp3753
sg37
(lp3754
sg120
g3726
sg121
S'RWLSTKDLYSRLELPGLNQNVHAMFVMPLGFGNPMGDTFPRINNAFWLPMLSLEGAGTGWTVYPPLSHSGPSVDLAFHLTSSLLGAINFTNMRGPLFWTALLLLSLPVLAGTLLDRNFNTFEGGDPLYHLFWFFGHPEVYIIPGFGSHSTYKKFGMYASIGLGFVWSHHMYVGLDDRAYFLSALMIAPTGIKFSWLALYGGRPMLAFLFLFTGGTGVLNASDAFHDTYYVVHFHYVLSMGAFSLGYYYWPGLYNLFWFNFPMHFLGGMPRRPYPDAGWNSGSSYQLGPDESNEPH'
p3755
sg123
F0.0038700000000000002
sg124
g125
sg33
S'88'
p3756
sg127
g1
(g128
g12
(dp3757
g130
I4
sg131
g132
sg133
g134
sg135
g132
sg136
I01
sg34
g137
sg138
g134
sg139
I0
sg140
I0
sg141
I0
sg142
g134
sg35
g143
sg144
I0
stRp3758
sg146
g147
sg148
F1
sg149
Nsg30
S'ScereD'
p3759
sbag1
(g2
g3
NtRp3760
(dp3761
g6
g1
(g7
g3
NtRp3762
(dp3763
g10
g1
(g11
g12
(dtRp3764
sg14
g1
(g11
g12
(dtRp3765
sg16
g1
(g11
g12
(dtRp3766
sg18
g1
(g11
g12
(dtRp3767
sg20
g1
(g11
g12
(dtRp3768
sg22
g1
(g11
g12
(dtRp3769
sbsg24
g25
sg26
g27
((lp3770
g33
ag32
ag29
ag30
atRp3771
sg37
(lp3772
g1
(g2
g3
NtRp3773
(dp3774
g6
g1
(g7
g3
NtRp3775
(dp3776
g10
g1
(g11
g12
(dtRp3777
sg14
g1
(g11
g12
(dtRp3778
sg16
g1
(g11
g12
(dtRp3779
sg18
g1
(g11
g12
(dtRp3780
sg20
g1
(g11
g12
(dtRp3781
sg22
g1
(g11
g12
(dtRp3782
sbsg24
S'Sce'
p3783
sg26
g27
((lp3784
g29
ag30
aS'sequence'
p3785
ag32
ag33
aS'species'
p3786
atRp3787
sg37
(lp3788
sg120
g3760
sg121
S'RWLSTKDLYSRLELPGLNQNVHAMFVMPLGFGNPMGDTFPRINNAFWLPMLSLEGAGTGWTVYPPLSHSGPSVDLAFHLTSSLLGAINFTNMRGPLFWTALLLLSLPVLAGTLLDRNFNTFEGGDPLYHLFWFFGHPEVYIIPGFGSHSTYKKFGMYASIGLGFVWSHHMYVGLDDRAYFLSALMIAPTGIKFSWLALYGGRPMLAFLFLFTGGTGVLNASDAFHDTYYVVHFHYVLSMGAFSLGYYYWPGLYNLFWFNFPMHFLGGMPRRPYPDAGWNSGSSYQLGPDESNEPH'
p3789
sg123
F0.0075900000000000004
sg124
g125
sg33
S'24'
p3790
sg127
g1
(g128
g12
(dp3791
g130
I4
sg131
g132
sg133
g134
sg135
g132
sg136
I01
sg34
g137
sg138
g134
sg139
I0
sg140
I0
sg141
I0
sg142
g134
sg35
g143
sg144
I0
stRp3792
sg146
g147
sg148
F1
sg149
Nsg30
S'ScereE'
p3793
sbag1
(g2
g3
NtRp3794
(dp3795
g6
g1
(g7
g3
NtRp3796
(dp3797
g10
g1
(g11
g12
(dtRp3798
sg14
g1
(g11
g12
(dtRp3799
sg16
g1
(g11
g12
(dtRp3800
sg18
g1
(g11
g12
(dtRp3801
sg20
g1
(g11
g12
(dtRp3802
sg22
g1
(g11
g12
(dtRp3803
sbsg24
g25
sg26
g27
((lp3804
g33
ag32
ag29
ag30
atRp3805
sg37
(lp3806
g1
(g2
g3
NtRp3807
(dp3808
g6
g1
(g7
g3
NtRp3809
(dp3810
g10
g1
(g11
g12
(dtRp3811
sg14
g1
(g11
g12
(dtRp3812
sg16
g1
(g11
g12
(dtRp3813
sg18
g1
(g11
g12
(dtRp3814
sg20
g1
(g11
g12
(dtRp3815
sg22
g1
(g11
g12
(dtRp3816
sbsg24
S'Sce'
p3817
sg26
g27
((lp3818
g29
ag30
aS'sequence'
p3819
ag32
ag33
aS'species'
p3820
atRp3821
sg37
(lp3822
sg120
g3794
sg121
S'RWLSTKDLYSRLELPGLNQNVHAMFVMPLGFGNPMGDTFPRINNAFWLPMLSLEGAGTGWTVYPPLSHSGPSVDLAFHLTSSLLGAINFTNMRGPLFWTALLLLSLPVLAGTLLDRNFNTFEGGDPLYHLFWFFGHPEVYIIPGFGSHSTYKKFGMYASIGLGFVWSHHMYVGLDDRAYFLSALMIAPTGIKFSWLALHGGRPMLAFLFLFTGGTGVLNASDAFHDTYYVVHFHYVLSMGAFSLGYYYWPGLYNLFWFNFPMHFLGGMPRRPYPDAGWNSGSSYQLGPDESNEPH'
p3823
sg123
F0.0053899999999999998
sg124
g125
sg33
S'179'
p3824
sg127
g1
(g128
g12
(dp3825
g130
I4
sg131
g132
sg133
g134
sg135
g132
sg136
I01
sg34
g137
sg138
g134
sg139
I0
sg140
I0
sg141
I0
sg142
g134
sg35
g143
sg144
I0
stRp3826
sg146
g147
sg148
F1
sg149
Nsg30
S'ScereC'
p3827
sbag1
(g2
g3
NtRp3828
(dp3829
g6
g1
(g7
g3
NtRp3830
(dp3831
g10
g1
(g11
g12
(dtRp3832
sg14
g1
(g11
g12
(dtRp3833
sg16
g1
(g11
g12
(dtRp3834
sg18
g1
(g11
g12
(dtRp3835
sg20
g1
(g11
g12
(dtRp3836
sg22
g1
(g11
g12
(dtRp3837
sbsg24
S'Sce'
p3838
sg26
g27
((lp3839
g29
ag30
aS'sequence'
p3840
ag32
ag33
aS'species'
p3841
atRp3842
sg37
(lp3843
sg120
g3794
sg121
S'RWLSTKDLYSRLELPGLNQNVHAMFVMPLGFGNPMGDTFPRINNAFWLPMLSLEGAGTGWTVYPPLSHSGPSVDLAFHLTSSLLGAINFTNMRGPLFWTALLLLSLPVLAGTLLDRNFNTFEGGDPLYHLFWFFGHPEVYIIPGFGSHSTYKKFGMYASIGLGFVWSHHMYVGLDDRAYFLSALMIAPTGIKFSWLALYGGRPMLAFLFLFTGGTGVLNASDAFHDTYYVVHFHYVLSMGAFSLGYYYWPGLYNLFWFNFPMHFLGGMPRRPYPDAGWNSGSSYQLGPDESNEPH'
p3844
sg123
F0.0066400000000000001
sg124
g125
sg33
S'6'
sg127
g1
(g128
g12
(dp3845
g130
I4
sg131
g132
sg133
g134
sg135
g132
sg136
I01
sg34
g137
sg138
g134
sg139
I0
sg140
I0
sg141
I0
sg142
g134
sg35
g143
sg144
I0
stRp3846
sg146
g147
sg148
F1
sg149
Nsg30
S'ScereA'
p3847
sbasg120
g3760
sg123
F0.00596
sg124
g125
sg33
S'57'
p3848
sg127
g1
(g128
g12
(dp3849
g130
I6
sg131
g132
sg133
g134
sg135
g132
sg136
I01
sg34
g176
sg138
g134
sg139
I0
sg140
I0
sg141
I0
sg142
g134
sg35
g177
sg144
I0
stRp3850
sg146
g147
sg148
F0.98999999999999999
sg149
Nsg30
S'NoName'
p3851
sbasg120
g3726
sg123
F0.0050600000000000003
sg124
g125
sg33
S'121'
p3852
sg127
g1
(g128
g12
(dp3853
g130
I6
sg131
g132
sg133
g134
sg135
g132
sg136
I01
sg34
g176
sg138
g134
sg139
I0
sg140
I0
sg141
I0
sg142
g134
sg35
g177
sg144
I0
stRp3854
sg146
g147
sg148
F0.66000000000000003
sg149
Nsg30
S'NoName'
p3855
sbasg120
g3713
sg123
F0.017850000000000001
sg124
g125
sg33
S'151'
p3856
sg127
g1
(g128
g12
(dp3857
g130
I6
sg131
g132
sg133
g134
sg135
g132
sg136
I01
sg34
g176
sg138
g134
sg139
I0
sg140
I0
sg141
I0
sg142
g134
sg35
g177
sg144
I0
stRp3858
sg146
g147
sg148
F0.89000000000000001
sg149
Nsg30
S'NoName'
p3859
sbag1
(g2
g3
NtRp3860
(dp3861
g6
g1
(g7
g3
NtRp3862
(dp3863
g10
g1
(g11
g12
(dtRp3864
sg14
g1
(g11
g12
(dtRp3865
sg16
g1
(g11
g12
(dtRp3866
sg18
g1
(g11
g12
(dtRp3867
sg20
g1
(g11
g12
(dtRp3868
sg22
g1
(g11
g12
(dtRp3869
sbsg24
S'Sar'
p3870
sg26
g27
((lp3871
g29
ag30
aS'sequence'
p3872
ag32
ag33
aS'species'
p3873
atRp3874
sg37
(lp3875
sg120
g3713
sg121
S'RWLSTKDLYSRLELPGLNQNVHAMFVMPLGFGNPMGDTFPRINNAFWLPMLSLEGAGTGWTVYPPLSHSGPSVDLAFHLTSSLLGAINFTNMRGPLFWTALLLLSLPVLAGTLLDRNFNTFEGGDPLYHLFWFFGHPEVYIIPGFGSHSTYKKFGMYASIGLGFVWSHHMYVGLDDRAYFLSALMIAPTGIKFSWLALYGGRPMLAFLFLFTGGTGVLNASDAFHDTYYVVHFHYVLSMGAFSLGYYYWPGLYNLFWFNFPMHFLGGMPRRPYPDAGWNSGSSYQLGPDESNEPH'
p3876
sg123
F0.047230000000000001
sg124
g125
sg33
S'60'
p3877
sg127
g1
(g128
g12
(dp3878
g130
I4
sg131
g132
sg133
g134
sg135
g132
sg136
I01
sg34
g137
sg138
g134
sg139
I0
sg140
I0
sg141
I0
sg142
g134
sg35
g143
sg144
I0
stRp3879
sg146
g147
sg148
F1
sg149
Nsg30
S'SarboA'
p3880
sbasg120
g3679
sg123
F0.023619999999999999
sg124
g125
sg33
S'214'
p3881
sg127
g1
(g128
g12
(dp3882
g130
I6
sg131
g132
sg133
g134
sg135
g132
sg136
I01
sg34
g176
sg138
g134
sg139
I0
sg140
I0
sg141
I0
sg142
g134
sg35
g177
sg144
I0
stRp3883
sg146
g147
sg148
F0.92000000000000004
sg149
Nsg30
S'NoName'
p3884
sbasg120
g3607
sg123
F0.18547
sg124
g125
sg33
S'47'
p3885
sg127
g1
(g128
g12
(dp3886
g130
I6
sg131
g132
sg133
g134
sg135
g132
sg136
I01
sg34
g176
sg138
g134
sg139
I0
sg140
I0
sg141
I0
sg142
g134
sg35
g177
sg144
I0
stRp3887
sg146
g147
sg148
F0.98999999999999999
sg149
Nsg30
S'NoName'
p3888
sbasg120
g3594
sg123
F0.03594
sg124
g125
sg33
S'168'
p3889
sg127
g1
(g128
g12
(dp3890
g130
I6
sg131
g132
sg133
g134
sg135
g132
sg136
I01
sg34
g176
sg138
g134
sg139
I0
sg140
I0
sg141
I0
sg142
g134
sg35
g177
sg144
I0
stRp3891
sg146
g147
sg148
F0.98999999999999999
sg149
Nsg30
S'NoName'
p3892
sbag1
(g2
g3
NtRp3893
(dp3894
g6
g1
(g7
g3
NtRp3895
(dp3896
g10
g1
(g11
g12
(dtRp3897
sg14
g1
(g11
g12
(dtRp3898
sg16
g1
(g11
g12
(dtRp3899
sg18
g1
(g11
g12
(dtRp3900
sg20
g1
(g11
g12
(dtRp3901
sg22
g1
(g11
g12
(dtRp3902
sbsg24
g25
sg26
g27
((lp3903
g33
ag32
ag29
ag30
atRp3904
sg37
(lp3905
g1
(g2
g3
NtRp3906
(dp3907
g6
g1
(g7
g3
NtRp3908
(dp3909
g10
g1
(g11
g12
(dtRp3910
sg14
g1
(g11
g12
(dtRp3911
sg16
g1
(g11
g12
(dtRp3912
sg18
g1
(g11
g12
(dtRp3913
sg20
g1
(g11
g12
(dtRp3914
sg22
g1
(g11
g12
(dtRp3915
sbsg24
g25
sg26
g27
((lp3916
g33
ag32
ag29
ag30
atRp3917
sg37
(lp3918
g1
(g2
g3
NtRp3919
(dp3920
g6
g1
(g7
g3
NtRp3921
(dp3922
g10
g1
(g11
g12
(dtRp3923
sg14
g1
(g11
g12
(dtRp3924
sg16
g1
(g11
g12
(dtRp3925
sg18
g1
(g11
g12
(dtRp3926
sg20
g1
(g11
g12
(dtRp3927
sg22
g1
(g11
g12
(dtRp3928
sbsg24
S'Nde'
p3929
sg26
g27
((lp3930
g29
ag30
aS'sequence'
p3931
ag32
ag33
aS'species'
p3932
atRp3933
sg37
(lp3934
sg120
g3906
sg121
S'RWLSTKDLYSRLELPGLNQNVHAMFVMPLGFGNPMGDMFPRLNNGFWIVPLSLEGAGTGWTVYPPLSHSGPSVDLAFHMTSSLLGAINFTNMRGPLFWTALLLLSLPVFAGTLLDRNFNTFEGGDPLYHLFWFFGHPEVYIIPGFGSHSTYKKFGMYASIGLGFVWSHHMYVGLDDRAYFTSATMIAPTGIKFSWLATYGGRPMLAFLFLFTGGTGVLNASDAFHDTYYVVHFHYVLSMGAFSTGYYYWPGLYNLFWFNFPMHFLGGMPRRPYPDAGWNSGSSYQFGPDESNEPH'
p3935
sg123
F0.063509999999999997
sg124
g125
sg33
S'217'
p3936
sg127
g1
(g128
g12
(dp3937
g130
I4
sg131
g132
sg133
g134
sg135
g132
sg136
I01
sg34
g137
sg138
g134
sg139
I0
sg140
I0
sg141
I0
sg142
g134
sg35
g143
sg144
I0
stRp3938
sg146
g147
sg148
F1
sg149
Nsg30
S'NdelpA'
p3939
sbag1
(g2
g3
NtRp3940
(dp3941
g6
g1
(g7
g3
NtRp3942
(dp3943
g10
g1
(g11
g12
(dtRp3944
sg14
g1
(g11
g12
(dtRp3945
sg16
g1
(g11
g12
(dtRp3946
sg18
g1
(g11
g12
(dtRp3947
sg20
g1
(g11
g12
(dtRp3948
sg22
g1
(g11
g12
(dtRp3949
sbsg24
S'Cgl'
p3950
sg26
g27
((lp3951
g29
ag30
aS'sequence'
p3952
ag32
ag33
aS'species'
p3953
atRp3954
sg37
(lp3955
sg120
g3906
sg121
S'RWLSTKDLYSRLELPGLNQNVHAMFVMPLGFGNPMGDMFPRLNNGFWIVPLSLEGAGTGWTVYPPLSHSGPSVDLAFHLTSSLLGSINFTNMRGPLFWTALLLLSLPVLAGTLLDRNFNTFEGGDPLYHLFWFFGHPEVYIIPGFGSHSTYKKFGMYASIGLGFVWSHHMYVGLDDRAYFTSATMIAPTGIKFSWLATYGGRPMLAFLFLFTGGTGVLNASDAFHDTYYVVHFHYVLSMGAFSTGYYYWPGLYNLFWFNFPMHFLGGMPRRPYPDAGWNSGSSYQFGPDESNEPH'
p3956
sg123
F0.03882
sg124
g125
sg33
S'44'
p3957
sg127
g1
(g128
g12
(dp3958
g130
I4
sg131
g132
sg133
g134
sg135
g132
sg136
I01
sg34
g137
sg138
g134
sg139
I0
sg140
I0
sg141
I0
sg142
g134
sg35
g143
sg144
I0
stRp3959
sg146
g147
sg148
F1
sg149
Nsg30
S'CglabA'
p3960
sbasg120
g3893
sg123
F0.16661999999999999
sg124
g125
sg33
S'113'
p3961
sg127
g1
(g128
g12
(dp3962
g130
I6
sg131
g132
sg133
g134
sg135
g132
sg136
I01
sg34
g176
sg138
g134
sg139
I0
sg140
I0
sg141
I0
sg142
g134
sg35
g177
sg144
I0
stRp3963
sg146
g147
sg148
F0.98999999999999999
sg149
Nsg30
S'NoName'
p3964
sbag1
(g2
g3
NtRp3965
(dp3966
g6
g1
(g7
g3
NtRp3967
(dp3968
g10
g1
(g11
g12
(dtRp3969
sg14
g1
(g11
g12
(dtRp3970
sg16
g1
(g11
g12
(dtRp3971
sg18
g1
(g11
g12
(dtRp3972
sg20
g1
(g11
g12
(dtRp3973
sg22
g1
(g11
g12
(dtRp3974
sbsg24
g25
sg26
g27
((lp3975
g33
ag32
ag29
ag30
atRp3976
sg37
(lp3977
g1
(g2
g3
NtRp3978
(dp3979
g6
g1
(g7
g3
NtRp3980
(dp3981
g10
g1
(g11
g12
(dtRp3982
sg14
g1
(g11
g12
(dtRp3983
sg16
g1
(g11
g12
(dtRp3984
sg18
g1
(g11
g12
(dtRp3985
sg20
g1
(g11
g12
(dtRp3986
sg22
g1
(g11
g12
(dtRp3987
sbsg24
S'Nba'
p3988
sg26
g27
((lp3989
g29
ag30
aS'sequence'
p3990
ag32
ag33
aS'species'
p3991
atRp3992
sg37
(lp3993
sg120
g3965
sg121
S'RWLSTKDLYSRMELPGLNQNVHAMFVMPLGFGNPMGDMFPRLNNGFWMPALSLEGAGTGWTVYPPLSHSGPSVDLAFHLSSSLLGAINFTNMRGPLFWTALLLFSLPVFAGTLLDRNFNTFEGGDPLYHLFWFFGHPEVYIIPGFGSHSTYKKFGMYASIGLGFVWSHHMYVGLDDRAYFTSATMIAPTGIKFSWLALYGGRPMLAFLFLFTGGTGVLNASDAFHDTYYVVHFHYVLSMGAFSVAYYYWPGLYNLFWFNFPMHFLGGMPRRPYPDAGWNSGSSYQLGPDESNEPH'
p3994
sg123
F0.29926999999999998
sg124
g125
sg33
S'149'
p3995
sg127
g1
(g128
g12
(dp3996
g130
I4
sg131
g132
sg133
g134
sg135
g132
sg136
I01
sg34
g137
sg138
g134
sg139
I0
sg140
I0
sg141
I0
sg142
g134
sg35
g143
sg144
I0
stRp3997
sg146
g147
sg148
F1
sg149
Nsg30
S'NbaciA'
p3998
sbag1
(g2
g3
NtRp3999
(dp4000
g6
g1
(g7
g3
NtRp4001
(dp4002
g10
g1
(g11
g12
(dtRp4003
sg14
g1
(g11
g12
(dtRp4004
sg16
g1
(g11
g12
(dtRp4005
sg18
g1
(g11
g12
(dtRp4006
sg20
g1
(g11
g12
(dtRp4007
sg22
g1
(g11
g12
(dtRp4008
sbsg24
S'Cca'
p4009
sg26
g27
((lp4010
g29
ag30
aS'sequence'
p4011
ag32
ag33
aS'species'
p4012
atRp4013
sg37
(lp4014
sg120
g3965
sg121
S'RWLSTKDLYSRLELPGLNQNVHAMFVMPLGIGNPMGDTFPRLNNGFWLPPLSLEGAGTGWTVYPPLSHSGPSVDLAFHLTSSLLGAINFTNMRGPLFWTALLLFSLPVFAGTLLDRNFNTFEGGDPLYHVFWFFGHPEVYIIPGFGSHSTYKKFGMYASIGLGFVWSHHMYVGLDDRAYFTSALMIAPTGIKFSWLATFGGRPMLAFLFLFTGGTGVLNASDAFHDTYYVVHFHYVLSMGAFSLGYYYWPGLYNLFWFNFPMHFLGGMPRRPYPDAGWNSGSSYQLGPDESNEPH'
p4015
sg123
F0.26266
sg124
g125
sg33
S'203'
p4016
sg127
g1
(g128
g12
(dp4017
g130
I4
sg131
g132
sg133
g134
sg135
g132
sg136
I01
sg34
g137
sg138
g134
sg139
I0
sg140
I0
sg141
I0
sg142
g134
sg35
g143
sg144
I0
stRp4018
sg146
g147
sg148
F1
sg149
Nsg30
S'CcastA'
p4019
sbasg120
g3893
sg123
F0.15296999999999999
sg124
g125
sg33
S'165'
p4020
sg127
g1
(g128
g12
(dp4021
g130
I6
sg131
g132
sg133
g134
sg135
g132
sg136
I01
sg34
g176
sg138
g134
sg139
I0
sg140
I0
sg141
I0
sg142
g134
sg35
g177
sg144
I0
stRp4022
sg146
g147
sg148
F0.98999999999999999
sg149
Nsg30
S'NoName'
p4023
sbasg120
g3594
sg123
F0.042560000000000001
sg124
g125
sg33
S'219'
p4024
sg127
g1
(g128
g12
(dp4025
g130
I6
sg131
g132
sg133
g134
sg135
g132
sg136
I01
sg34
g176
sg138
g134
sg139
I0
sg140
I0
sg141
I0
sg142
g134
sg35
g177
sg144
I0
stRp4026
sg146
g147
sg148
F0.84999999999999998
sg149
Nsg30
S'NoName'
p4027
sbasg120
g3560
sg123
F0.094020000000000006
sg124
g125
sg33
S'125'
p4028
sg127
g1
(g128
g12
(dp4029
g130
I6
sg131
g132
sg133
g134
sg135
g132
sg136
I01
sg34
g176
sg138
g134
sg139
I0
sg140
I0
sg141
I0
sg142
g134
sg35
g177
sg144
I0
stRp4030
sg146
g147
sg148
F0.55000000000000004
sg149
Nsg30
S'NoName'
p4031
sbasg120
g3033
sg123
F0.11952
sg124
g125
sg33
S'93'
p4032
sg127
g1
(g128
g12
(dp4033
g130
I6
sg131
g132
sg133
g134
sg135
g132
sg136
I01
sg34
g176
sg138
g134
sg139
I0
sg140
I0
sg141
I0
sg142
g134
sg35
g177
sg144
I0
stRp4034
sg146
g147
sg148
F0.69999999999999996
sg149
Nsg30
S'NoName'
p4035
sbasg120
g3020
sg123
F0.029839999999999998
sg124
g125
sg33
S'42'
p4036
sg127
g1
(g128
g12
(dp4037
g130
I6
sg131
g132
sg133
g134
sg135
g132
sg136
I01
sg34
g176
sg138
g134
sg139
I0
sg140
I0
sg141
I0
sg142
g134
sg35
g177
sg144
I0
stRp4038
sg146
g147
sg148
F0.82999999999999996
sg149
Nsg30
S'NoName'
p4039
sbag1
(g2
g3
NtRp4040
(dp4041
g6
g1
(g7
g3
NtRp4042
(dp4043
g10
g1
(g11
g12
(dtRp4044
sg14
g1
(g11
g12
(dtRp4045
sg16
g1
(g11
g12
(dtRp4046
sg18
g1
(g11
g12
(dtRp4047
sg20
g1
(g11
g12
(dtRp4048
sg22
g1
(g11
g12
(dtRp4049
sbsg24
g25
sg26
g27
((lp4050
g33
ag32
ag29
ag30
atRp4051
sg37
(lp4052
g1
(g2
g3
NtRp4053
(dp4054
g6
g1
(g7
g3
NtRp4055
(dp4056
g10
g1
(g11
g12
(dtRp4057
sg14
g1
(g11
g12
(dtRp4058
sg16
g1
(g11
g12
(dtRp4059
sg18
g1
(g11
g12
(dtRp4060
sg20
g1
(g11
g12
(dtRp4061
sg22
g1
(g11
g12
(dtRp4062
sbsg24
S'Aac'
p4063
sg26
g27
((lp4064
g29
ag30
aS'sequence'
p4065
ag32
ag33
aS'species'
p4066
atRp4067
sg37
(lp4068
sg120
g4040
sg121
S'RWLSTKDLYSRMELPGLQQNVHLMFVMPLGFGNPMGDMFARLNNSFWLPPLSMEGLGTGWTVYPPLAHSGASVDLAFHLTSSLLGLINFTNMRGPLFWTAMLLMSLPVLAGTLLDRNFNTFEGGDPLYHLFWFFGHPEVYIIPLFGSHSTYKKFGMYASIGLGFVWSHHMYVGLDDRAYFTSLTMILPTSIKFSWLLTYGGRPMLAFLFLFTGGTGVLNLSDLFHDTYYVVHFHYVLSLGAFSMGYYYWPGLYNLFWFNFPMHFLGGMPRRPYPDLGWNSGSSYQLGPDESNEPH'
p4069
sg123
F0.028920000000000001
sg124
g125
sg33
S'83'
p4070
sg127
g1
(g128
g12
(dp4071
g130
I4
sg131
g132
sg133
g134
sg135
g132
sg136
I01
sg34
g137
sg138
g134
sg139
I0
sg140
I0
sg141
I0
sg142
g134
sg35
g143
sg144
I0
stRp4072
sg146
g147
sg148
F1
sg149
Nsg30
S'AacerA'
p4073
sbag1
(g2
g3
NtRp4074
(dp4075
g6
g1
(g7
g3
NtRp4076
(dp4077
g10
g1
(g11
g12
(dtRp4078
sg14
g1
(g11
g12
(dtRp4079
sg16
g1
(g11
g12
(dtRp4080
sg18
g1
(g11
g12
(dtRp4081
sg20
g1
(g11
g12
(dtRp4082
sg22
g1
(g11
g12
(dtRp4083
sbsg24
g25
sg26
g27
((lp4084
g33
ag32
ag29
ag30
atRp4085
sg37
(lp4086
g1
(g2
g3
NtRp4087
(dp4088
g6
g1
(g7
g3
NtRp4089
(dp4090
g10
g1
(g11
g12
(dtRp4091
sg14
g1
(g11
g12
(dtRp4092
sg16
g1
(g11
g12
(dtRp4093
sg18
g1
(g11
g12
(dtRp4094
sg20
g1
(g11
g12
(dtRp4095
sg22
g1
(g11
g12
(dtRp4096
sbsg24
S'Ago'
p4097
sg26
g27
((lp4098
g29
ag30
aS'sequence'
p4099
ag32
ag33
aS'species'
p4100
atRp4101
sg37
(lp4102
sg120
g4074
sg121
S'RWLSTKDLYSRMELPGLQQNVHLMFVMPLGFGNPMGDMFARLNNSFWLPPLSMEGLGTGWTVYPPLSHSGASVDLAFHLTSSLLGLINFTNMRGPLFWTAMLLMSLPVLAGTLLDRNFNTFEGGDPLYHLFWFFGHPEVYIIPLFGSHSTYKKFGMYLSISLGFVWSHHMYVGLDDRAYFTSATMILPTSIKFSWLLTYGGRPMLLFLFLFTGGTGVLNLSDAFHDTYYVVHFHYVLSLGAFSMGYYYWPGLYNLFWFNFPMHFLGGMPRRPYPDLGWNSGSSYQLGPDESNEPH'
p4103
sg123
F0.00088000000000000003
sg124
g125
sg33
S'190'
p4104
sg127
g1
(g128
g12
(dp4105
g130
I4
sg131
g132
sg133
g134
sg135
g132
sg136
I01
sg34
g137
sg138
g134
sg139
I0
sg140
I0
sg141
I0
sg142
g134
sg35
g143
sg144
I0
stRp4106
sg146
g147
sg148
F1
sg149
Nsg30
S'AgossB'
p4107
sbag1
(g2
g3
NtRp4108
(dp4109
g6
g1
(g7
g3
NtRp4110
(dp4111
g10
g1
(g11
g12
(dtRp4112
sg14
g1
(g11
g12
(dtRp4113
sg16
g1
(g11
g12
(dtRp4114
sg18
g1
(g11
g12
(dtRp4115
sg20
g1
(g11
g12
(dtRp4116
sg22
g1
(g11
g12
(dtRp4117
sbsg24
S'Ago'
p4118
sg26
g27
((lp4119
g29
ag30
aS'sequence'
p4120
ag32
ag33
aS'species'
p4121
atRp4122
sg37
(lp4123
sg120
g4074
sg121
S'RWLSTKDLYSRMELPGLQQNVHLMFVMPLGFGNPMGDMFARLNNSFWLPPLSMEGLGTGWTVYPPLSHSGASVDLAFHLTSSLLGLINFTNMRGPLFWTAMLLMSLPVLAGTLLDRNFNTFEGGDPLYHLFWFFGHPEVYIIPLFGSHSTYKKFGMYLSISLGFVWSHHMYVGLDDRAYFTSATMILPTSIKFSWLLTYGGRPMLLFLFLFTGGTGVLNLSDAFHDTYYVVHFHYVLSLGAFSMGYYYWPGLYNLFWFNFPMHFLGGMPRRPYPDLGWNSGSSYQLGPDESNEPH'
p4124
sg123
F0.0023999999999999998
sg124
g125
sg33
S'16'
p4125
sg127
g1
(g128
g12
(dp4126
g130
I4
sg131
g132
sg133
g134
sg135
g132
sg136
I01
sg34
g137
sg138
g134
sg139
I0
sg140
I0
sg141
I0
sg142
g134
sg35
g143
sg144
I0
stRp4127
sg146
g147
sg148
F1
sg149
Nsg30
S'AgossA'
p4128
sbasg120
g4040
sg123
F0.075329999999999994
sg124
g125
sg33
S'30'
p4129
sg127
g1
(g128
g12
(dp4130
g130
I6
sg131
g132
sg133
g134
sg135
g132
sg136
I01
sg34
g176
sg138
g134
sg139
I0
sg140
I0
sg141
I0
sg142
g134
sg35
g177
sg144
I0
stRp4131
sg146
g147
sg148
F0.98999999999999999
sg149
Nsg30
S'NoName'
p4132
sbasg120
g3020
sg123
F0.56830999999999998
sg124
g125
sg33
S'98'
p4133
sg127
g1
(g128
g12
(dp4134
g130
I6
sg131
g132
sg133
g134
sg135
g132
sg136
I01
sg34
g176
sg138
g134
sg139
I0
sg140
I0
sg141
I0
sg142
g134
sg35
g177
sg144
I0
stRp4135
sg146
g147
sg148
F0.98999999999999999
sg149
Nsg30
S'NoName'
p4136
sbasg120
g2682
sg123
F0.14305999999999999
sg124
g125
sg33
S'11'
p4137
sg127
g1
(g128
g12
(dp4138
g130
I6
sg131
g132
sg133
g134
sg135
g132
sg136
I01
sg34
g176
sg138
g134
sg139
I0
sg140
I0
sg141
I0
sg142
g134
sg35
g177
sg144
I0
stRp4139
sg146
g147
sg148
F0.96999999999999997
sg149
Nsg30
S'NoName'
p4140
sbasg120
g2497
sg123
F0.26834000000000002
sg124
g125
sg33
S'25'
p4141
sg127
g1
(g128
g12
(dp4142
g130
I6
sg131
g132
sg133
g134
sg135
g132
sg136
I01
sg34
g176
sg138
g134
sg139
I0
sg140
I0
sg141
I0
sg142
g134
sg35
g177
sg144
I0
stRp4143
sg146
g147
sg148
F0.97999999999999998
sg149
Nsg30
S'NoName'
p4144
sbasg120
g678
sg123
F0.062890000000000001
sg124
g125
sg33
S'144'
p4145
sg127
g1
(g128
g12
(dp4146
g130
I6
sg131
g132
sg133
g134
sg135
g132
sg136
I01
sg34
g176
sg138
g134
sg139
I0
sg140
I0
sg141
I0
sg142
g134
sg35
g177
sg144
I0
stRp4147
sg146
g147
sg148
F0.67000000000000004
sg149
Nsg30
S'NoName'
p4148
sbasg120
g268
sg123
F0.52025999999999994
sg124
g125
sg33
S'2'
sg127
g1
(g128
g12
(dp4149
g130
I6
sg131
g132
sg133
g134
sg135
g132
sg136
I01
sg34
g176
sg138
g134
sg139
I0
sg140
I0
sg141
I0
sg142
g134
sg35
g177
sg144
I0
stRp4150
sg146
g147
sg148
F0.97999999999999998
sg149
Nsg30
S'NoName'
p4151
sbasg120
g52
sg123
F0.11274000000000001
sg124
g125
sg33
S'187'
p4152
sg127
g1
(g128
g12
(dp4153
g130
I6
sg131
g132
sg133
g134
sg135
g132
sg136
I01
sg34
g176
sg138
g134
sg139
I0
sg140
I0
sg141
I0
sg142
g134
sg35
g177
sg144
I0
stRp4154
sg146
g147
sg148
F0.88
sg149
Nsg30
S'NoName'
p4155
sbasg120
g39
sg123
F0.33485999999999999
sg124
g125
sg33
S'175'
p4156
sg127
g1
(g128
g12
(dp4157
g130
I6
sg131
g132
sg133
g134
sg135
g132
sg136
I01
sg34
g176
sg138
g134
sg139
I0
sg140
I0
sg141
I0
sg142
g134
sg35
g177
sg144
I0
stRp4158
sg146
g147
sg148
F0.95999999999999996
sg149
Nsg30
S'NoName'
p4159
sbag1
(g2
g3
NtRp4160
(dp4161
g6
g1
(g7
g3
NtRp4162
(dp4163
g10
g1
(g11
g12
(dtRp4164
sg14
g1
(g11
g12
(dtRp4165
sg16
g1
(g11
g12
(dtRp4166
sg18
g1
(g11
g12
(dtRp4167
sg20
g1
(g11
g12
(dtRp4168
sg22
g1
(g11
g12
(dtRp4169
sbsg24
S'Lst'
p4170
sg26
g27
((lp4171
g29
ag30
aS'sequence'
p4172
ag32
ag33
aS'species'
p4173
atRp4174
sg37
(lp4175
sg120
g39
sg121
S'RWLSTKDLYSRMELPGLNHNVHAMFVMPLGFGNPLGDMFPRLNNSFWLPPLSFEGAGTGWTVYPPLSHSGASVDLAFHLSSSMLGAMNFTNMRGPLFWTALLLLSLPVLGATLLDRNFNTFEGGDPLYHLFWFFGHPEVYIIPGFGSHCTYEKFGMYASMGLGFVWSHHMFVGLDERAYFTAATMIAPTGMKFSWLATYGGTPMVAFLFLFTGGTGVLNASDAFHDTYYVVHFHYVLSMGAFALGYYYWPGLYKYFWFNFPMHFLGGMPRRPYPDAGWNSGSAIQLGPQATKEPH'
p4176
sg123
F1.13117
sg124
g125
sg33
S'70'
p4177
sg127
g1
(g128
g12
(dp4178
g130
I4
sg131
g132
sg133
g134
sg135
g132
sg136
I01
sg34
g137
sg138
g134
sg139
I0
sg140
I0
sg141
I0
sg142
g134
sg35
g143
sg144
I0
stRp4179
sg146
g147
sg148
F1
sg149
Nsg30
S'LstarA'
p4180
sbasg120
g4
sg123
F0.46844999999999998
sg124
g125
sg33
S'173'
p4181
sg127
g1
(g128
g12
(dp4182
g130
I6
sg131
g132
sg133
g134
sg135
g132
sg136
I01
sg34
g176
sg138
g134
sg139
I0
sg140
I0
sg141
I0
sg142
g134
sg35
g177
sg144
I0
stRp4183
sg146
g147
sg148
F1
sg149
Nsg30
S'NoName'
p4184
sbag1
(g2
g3
NtRp4185
(dp4186
g6
g1
(g7
g3
NtRp4187
(dp4188
g10
g1
(g11
g12
(dtRp4189
sg14
g1
(g11
g12
(dtRp4190
sg16
g1
(g11
g12
(dtRp4191
sg18
g1
(g11
g12
(dtRp4192
sg20
g1
(g11
g12
(dtRp4193
sg22
g1
(g11
g12
(dtRp4194
sbsg24
g25
sg26
g27
((lp4195
g33
ag32
ag29
ag30
atRp4196
sg37
(lp4197
g1
(g2
g3
NtRp4198
(dp4199
g6
g1
(g7
g3
NtRp4200
(dp4201
g10
g1
(g11
g12
(dtRp4202
sg14
g1
(g11
g12
(dtRp4203
sg16
g1
(g11
g12
(dtRp4204
sg18
g1
(g11
g12
(dtRp4205
sg20
g1
(g11
g12
(dtRp4206
sg22
g1
(g11
g12
(dtRp4207
sbsg24
S'Sja'
p4208
sg26
g27
((lp4209
g29
ag30
aS'sequence'
p4210
ag32
ag33
aS'species'
p4211
atRp4212
sg37
(lp4213
sg120
g4185
sg121
S'RWLSTKDLYSRLELPGLNQNVHGMFILPLGFGNPLGDVYPRMNNSFWLPPLSLEGPGVGWTMYYPLSHSGLSVDLLMQLTSSTLGSINLTNMRGPLFWTSLLVLTLPVLGGILLDRNWNTFAGGDPLYHLFWFFGHPEVYIIPAFGSHSTFHKFGMYASIALGCVWSHHLYVGLDDRAYFTAATMIAPTGIKFSWLATSGGEPMLVFLILFTGGTGVLNSVDAFHDTYFVVHFHYVLSMGAMGLAYYFWPGLYNMFWFNFPQHFLGNYPRRPYPDAGWNSGSSYQFNPNDSNEPH'
p4214
sg123
F1.0686599999999999
sg124
g125
sg33
S'52'
p4215
sg127
g1
(g128
g12
(dp4216
g130
I4
sg131
g132
sg133
g134
sg135
g132
sg136
I01
sg34
g137
sg138
g134
sg139
I0
sg140
I0
sg141
I0
sg142
g134
sg35
g143
sg144
I0
stRp4217
sg146
g147
sg148
F1
sg149
Nsg30
S'SjapoA'
p4218
sbag1
(g2
g3
NtRp4219
(dp4220
g6
g1
(g7
g3
NtRp4221
(dp4222
g10
g1
(g11
g12
(dtRp4223
sg14
g1
(g11
g12
(dtRp4224
sg16
g1
(g11
g12
(dtRp4225
sg18
g1
(g11
g12
(dtRp4226
sg20
g1
(g11
g12
(dtRp4227
sg22
g1
(g11
g12
(dtRp4228
sbsg24
g25
sg26
g27
((lp4229
g33
ag32
ag29
ag30
atRp4230
sg37
(lp4231
g1
(g2
g3
NtRp4232
(dp4233
g6
g1
(g7
g3
NtRp4234
(dp4235
g10
g1
(g11
g12
(dtRp4236
sg14
g1
(g11
g12
(dtRp4237
sg16
g1
(g11
g12
(dtRp4238
sg18
g1
(g11
g12
(dtRp4239
sg20
g1
(g11
g12
(dtRp4240
sg22
g1
(g11
g12
(dtRp4241
sbsg24
S'Spo'
p4242
sg26
g27
((lp4243
g29
ag30
aS'sequence'
p4244
ag32
ag33
aS'species'
p4245
atRp4246
sg37
(lp4247
sg120
g4219
sg121
S'RWMSTKDLYSRMELPGLNQNVHGMFIIPLGFGNPMGDVYPRVNNTFWLPPLSLEGPGGGWTVYPPLSHSGPAIDLALQLTSSTLGSVNLTNMRGPLFWTSLLLLTLPVLGGFLFDRNLNTFAGGDPLYHLFWFFGHPEVYIIPAFGSHPSLHKFGMWASIALGLVWSHHLFVGLDDRAYFSAATMIAPTGIKFSWLATTGGQPMLAFLILFTGGTGVLNSVDAFHDTYFVVHFHYVLSMGAFGLAYY-WPGLYNLFWFNFPQHFLGGMPRRPYPEAGWNSGSSYQFNPSDDNEPH'
p4248
sg123
F0.12372
sg124
g125
sg33
S'158'
p4249
sg127
g1
(g128
g12
(dp4250
g130
I4
sg131
g132
sg133
g134
sg135
g132
sg136
I01
sg34
g137
sg138
g134
sg139
I0
sg140
I0
sg141
I0
sg142
g134
sg35
g143
sg144
I0
stRp4251
sg146
g147
sg148
F1
sg149
Nsg30
S'SpombA'
p4252
sbag1
(g2
g3
NtRp4253
(dp4254
g6
g1
(g7
g3
NtRp4255
(dp4256
g10
g1
(g11
g12
(dtRp4257
sg14
g1
(g11
g12
(dtRp4258
sg16
g1
(g11
g12
(dtRp4259
sg18
g1
(g11
g12
(dtRp4260
sg20
g1
(g11
g12
(dtRp4261
sg22
g1
(g11
g12
(dtRp4262
sbsg24
g25
sg26
g27
((lp4263
g33
ag32
ag29
ag30
atRp4264
sg37
(lp4265
g1
(g2
g3
NtRp4266
(dp4267
g6
g1
(g7
g3
NtRp4268
(dp4269
g10
g1
(g11
g12
(dtRp4270
sg14
g1
(g11
g12
(dtRp4271
sg16
g1
(g11
g12
(dtRp4272
sg18
g1
(g11
g12
(dtRp4273
sg20
g1
(g11
g12
(dtRp4274
sg22
g1
(g11
g12
(dtRp4275
sbsg24
S'Soc'
p4276
sg26
g27
((lp4277
g29
ag30
aS'sequence'
p4278
ag32
ag33
aS'species'
p4279
atRp4280
sg37
(lp4281
sg120
g4253
sg121
S'RWLSTKDLYSRMELPGLNQNVHGMFIIPLGFGNPMGDVYPRVNNTFWLPPLSLEGPGTGWTVYPPLSHSGPAVDLALQLTSSTLGSLNLTNMRGPLFWTSLLLLTLPVLGGFLFDRNLNTFAGGDPLYHLFWFFGHPEVYIIPAFGSHSTLNKFGMCASIALGLVWSHHLFVGLDDRAYFSAATMIAPTGIKFSWLATTGGQPMLAFLILFTGGTGVLNSVDAFHDTYFVVHFHYVLSMGAFGLAYYFWPGLYNLFWFNFPQHFLGGMPRRPYPDAGWNSGSSYQYNPSDDNEPH'
p4282
sg123
F0.03637
sg124
g125
sg33
S'37'
p4283
sg127
g1
(g128
g12
(dp4284
g130
I4
sg131
g132
sg133
g134
sg135
g132
sg136
I01
sg34
g137
sg138
g134
sg139
I0
sg140
I0
sg141
I0
sg142
g134
sg35
g143
sg144
I0
stRp4285
sg146
g147
sg148
F1
sg149
Nsg30
S'SoctoA'
p4286
sbag1
(g2
g3
NtRp4287
(dp4288
g6
g1
(g7
g3
NtRp4289
(dp4290
g10
g1
(g11
g12
(dtRp4291
sg14
g1
(g11
g12
(dtRp4292
sg16
g1
(g11
g12
(dtRp4293
sg18
g1
(g11
g12
(dtRp4294
sg20
g1
(g11
g12
(dtRp4295
sg22
g1
(g11
g12
(dtRp4296
sbsg24
S'Scr'
p4297
sg26
g27
((lp4298
g29
ag30
aS'sequence'
p4299
ag32
ag33
aS'species'
p4300
atRp4301
sg37
(lp4302
sg120
g4253
sg121
S'RWLSTKDLYSRMELPGLNQNVHGMFIIPLGFGNPMGDVYPRVNNTYWLPPLSLEGPGTGWTVYPPLSHSGPSVDLALQLTSSTLGSLNLTNMRGPLFWTSLLLLTLPVLGGFLFDRNLNTFAGGDPLYHLFWFFGHPEVYIIPAFGSHPTLNKFGMCASIALGLVWSHHLFVGLDDRAYFSAATMIAPTGIKFSWLATTGGQPMLAFLILFTGGTGVLNSVDAFHDTYFVVHFHYVLSMGAFGLAYYFWPGLYNLFWFNFPQHFLGGMPRRPYPDAGWNSGSSYQYNPSDDNEPH'
p4303
sg123
F0.036740000000000002
sg124
g125
sg33
S'91'
p4304
sg127
g1
(g128
g12
(dp4305
g130
I4
sg131
g132
sg133
g134
sg135
g132
sg136
I01
sg34
g137
sg138
g134
sg139
I0
sg140
I0
sg141
I0
sg142
g134
sg35
g143
sg144
I0
stRp4306
sg146
g147
sg148
F1
sg149
Nsg30
S'ScryoA'
p4307
sbasg120
g4219
sg123
F0.18453
sg124
g125
sg33
S'107'
p4308
sg127
g1
(g128
g12
(dp4309
g130
I6
sg131
g132
sg133
g134
sg135
g132
sg136
I01
sg34
g176
sg138
g134
sg139
I0
sg140
I0
sg141
I0
sg142
g134
sg35
g177
sg144
I0
stRp4310
sg146
g147
sg148
F0.98999999999999999
sg149
Nsg30
S'NoName'
p4311
sbasg120
g4185
sg123
F0.73307
sg124
g125
sg33
S'0'
sg127
g1
(g128
g12
(dp4312
g130
I6
sg131
g132
sg133
g134
sg135
g132
sg136
I01
sg34
g176
sg138
g134
sg139
I0
sg140
I0
sg141
I0
sg142
g134
sg35
g177
sg144
I0
stRp4313
sg146
g147
sg148
F0.98999999999999999
sg149
Nsg30
S'NoName'
p4314
sbasg120
g4
sg123
F1.7741899999999999
sg124
g125
sg33
S'136'
p4315
sg127
g1
(g128
g12
(dp4316
g130
I6
sg131
g132
sg133
g134
sg135
g132
sg136
I01
sg34
g176
sg138
g134
sg139
I0
sg140
I0
sg141
I0
sg142
g134
sg35
g177
sg144
I0
stRp4317
sg146
g147
sg148
F1
sg149
Nsg30
S'NoName'
p4318
sbasg31
S'8'
sg120
Nsg123
F0
sg124
g125
sg33
S'141'
p4319
sg34
g169
sg127
g1
(g128
g12
(dp4320
g130
I6
sg131
g132
sg133
g134
sg135
g132
sg136
I01
sg34
g176
sg138
g134
sg139
I0
sg140
I0
sg141
I0
sg142
g134
sg35
g177
sg144
I0
stRp4321
sg146
g147
sg148
F1
sg149
Nsg35
S'#833DB4'
p4322
sg30
g125
sb.