ccopy_reg
_reconstructor
p1
(cete2.phylo.phylotree
PhyloNode
p2
c__builtin__
object
p3
NtRp4
(dp5
S'_faces'
p6
g1
(cete2.treeview.main
_FaceAreas
p7
g3
NtRp8
(dp9
S'branch-top'
p10
g1
(cete2.treeview.main
FaceContainer
p11
c__builtin__
dict
p12
(dtRp13
sS'float'
p14
g1
(g11
g12
(dtRp15
sS'branch-bottom'
p16
g1
(g11
g12
(dtRp17
sS'aligned'
p18
g1
(g11
g12
(dtRp19
sS'branch-right'
p20
g1
(g11
g12
(dtRp21
sS'float-behind'
p22
g1
(g11
g12
(dtRp23
sbsS'_species'
p24
S'Unknown'
p25
sS'features'
p26
c__builtin__
set
p27
((lp28
S'dist'
p29
aS'name'
p30
aS'bsize'
p31
aS'support'
p32
aS'_nid'
p33
aS'shape'
p34
aS'fgcolor'
p35
atRp36
sS'_children'
p37
(lp38
g1
(g2
g3
NtRp39
(dp40
g6
g1
(g7
g3
NtRp41
(dp42
g10
g1
(g11
g12
(dtRp43
sg14
g1
(g11
g12
(dtRp44
sg16
g1
(g11
g12
(dtRp45
sg18
g1
(g11
g12
(dtRp46
sg20
g1
(g11
g12
(dtRp47
sg22
g1
(g11
g12
(dtRp48
sbsg24
g25
sg26
g27
((lp49
g33
ag32
ag29
ag30
atRp50
sg37
(lp51
g1
(g2
g3
NtRp52
(dp53
g6
g1
(g7
g3
NtRp54
(dp55
g10
g1
(g11
g12
(dtRp56
sg14
g1
(g11
g12
(dtRp57
sg16
g1
(g11
g12
(dtRp58
sg18
g1
(g11
g12
(dtRp59
sg20
g1
(g11
g12
(dtRp60
sg22
g1
(g11
g12
(dtRp61
sbsg24
g25
sg26
g27
((lp62
g33
ag32
ag29
ag30
atRp63
sg37
(lp64
g1
(g2
g3
NtRp65
(dp66
g6
g1
(g7
g3
NtRp67
(dp68
g10
g1
(g11
g12
(dtRp69
sg14
g1
(g11
g12
(dtRp70
sg16
g1
(g11
g12
(dtRp71
sg18
g1
(g11
g12
(dtRp72
sg20
g1
(g11
g12
(dtRp73
sg22
g1
(g11
g12
(dtRp74
sbsg24
g25
sg26
g27
((lp75
g33
ag32
ag29
ag30
atRp76
sg37
(lp77
g1
(g2
g3
NtRp78
(dp79
g6
g1
(g7
g3
NtRp80
(dp81
g10
g1
(g11
g12
(dtRp82
sg14
g1
(g11
g12
(dtRp83
sg16
g1
(g11
g12
(dtRp84
sg18
g1
(g11
g12
(dtRp85
sg20
g1
(g11
g12
(dtRp86
sg22
g1
(g11
g12
(dtRp87
sbsg24
g25
sg26
g27
((lp88
g33
ag32
ag29
ag30
atRp89
sg37
(lp90
g1
(g2
g3
NtRp91
(dp92
g6
g1
(g7
g3
NtRp93
(dp94
g10
g1
(g11
g12
(dtRp95
sg14
g1
(g11
g12
(dtRp96
sg16
g1
(g11
g12
(dtRp97
sg18
g1
(g11
g12
(dtRp98
sg20
g1
(g11
g12
(dtRp99
sg22
g1
(g11
g12
(dtRp100
sbsg24
g25
sg26
g27
((lp101
g33
ag32
ag29
ag30
atRp102
sg37
(lp103
g1
(g2
g3
NtRp104
(dp105
g6
g1
(g7
g3
NtRp106
(dp107
g10
g1
(g11
g12
(dtRp108
sg14
g1
(g11
g12
(dtRp109
sg16
g1
(g11
g12
(dtRp110
sg18
g1
(g11
g12
(dtRp111
sg20
g1
(g11
g12
(dtRp112
sg22
g1
(g11
g12
(dtRp113
sbsg24
S'Yli'
p114
sg26
g27
((lp115
g29
ag30
aS'sequence'
p116
ag32
ag33
aS'species'
p117
atRp118
sg37
(lp119
sS'_up'
p120
g91
sS'sequence'
p121
S'RWLSTKDLYSRLELTGLNQNVHAMFVMPLGFGNPMGDMFARLNNSFWLVPLSLEGAGTGWTVYFPLAHSGPAVDLAFHLSSSLLGAINFTNMRGPLFWTALLLLSLPVLAGTGIDRNFNTFEGGDALYHLFWFFGHPEVYIIPGFGSHSAISKFGMYASIGLGFVWSHHMFVGLDDRAYFTSATMIAPTSIKFSWLATYGGRTALAFIFLFTGGTGVLNSADPFHDSYYVVMAFSIGWLPYNLFWFMFGMNDAGWSSAYQLGPSGTNE'
p122
sS'_dist'
p123
F0.00011
sS'_name'
p124
S'NoName'
p125
sg33
S'157'
p126
sS'_img_style'
p127
g1
(cete2.treeview.main
NodeStyle
p128
g12
(dp129
S'size'
p130
I4
sS'hz_line_color'
p131
S'#000000'
p132
sS'faces_bgcolor'
p133
S'#FFFFFF'
p134
sS'vt_line_color'
p135
g132
sS'draw_descendants'
p136
I01
sg34
S'square'
p137
sS'bgcolor'
p138
g134
sS'hz_line_type'
p139
I0
sS'vt_line_width'
p140
I0
sS'vt_line_type'
p141
I0
sS'node_bgcolor'
p142
g134
sg35
S'#000000'
p143
sS'hz_line_width'
p144
I0
stRp145
sS'_speciesFunction'
p146
cete2.phylo.phylotree
_parse_species
p147
sS'_support'
p148
F1
sS'_temp_faces'
p149
Nsg30
S'YlipoB'
p150
sbag1
(g2
g3
NtRp151
(dp152
g6
g1
(g7
g3
NtRp153
(dp154
g10
g1
(g11
g12
(dtRp155
sg14
g1
(g11
g12
(dtRp156
sg16
g1
(g11
g12
(dtRp157
sg18
g1
(g11
g12
(dtRp158
sg20
g1
(g11
g12
(dtRp159
sg22
g1
(g11
g12
(dtRp160
sbsg24
S'Yli'
p161
sg26
g27
((lp162
g29
ag30
aS'sequence'
p163
ag32
ag33
aS'species'
p164
atRp165
sg37
(lp166
sg120
g91
sg121
S'RWLSTKDLYSRLELTGLNQNVHAMFVMPLGFGNPMGDMFARLNNSFWLVPLSLEGAGTGWTVYFPLAHSGPAVDLAFHLSSSLLGAINFTNMRGPLFWTALLLLSLPVLAGTGIDRNFNTFEGGDALYHLFWFFGHPEVYIIPGFGSHSAISKFGMYASIGLGFVWSHHMFVGLDDRAYFTSATMIAPTSIKFSWLATYGGRTALAFIFLFTGGTGVLNSADPFHDSYYVVMAFSIGWLPYNLFWFMFGMNDAGWSSAYQLGPSGTNE'
p167
sg123
F0.00048000000000000001
sg124
g125
sg33
S'19'
p168
sg127
g1
(g128
g12
(dp169
g130
I4
sg131
g132
sg133
g134
sg135
g132
sg136
I01
sg34
g137
sg138
g134
sg139
I0
sg140
I0
sg141
I0
sg142
g134
sg35
g143
sg144
I0
stRp170
sg146
g147
sg148
F1
sg149
Nsg30
S'YlipoA'
p171
sbasg120
g78
sg123
F0.02656
sg124
g125
sg33
S'54'
p172
sg127
g1
(g128
g12
(dp173
g130
I6
sg131
g132
sg133
g134
sg135
g132
sg136
I01
sg34
S'circle'
p174
sg138
g134
sg139
I0
sg140
I0
sg141
I0
sg142
g134
sg35
S'#0030c1'
p175
sg144
I0
stRp176
sg146
g147
sg148
F1
sg149
Nsg30
S'NoName'
p177
sbag1
(g2
g3
NtRp178
(dp179
g6
g1
(g7
g3
NtRp180
(dp181
g10
g1
(g11
g12
(dtRp182
sg14
g1
(g11
g12
(dtRp183
sg16
g1
(g11
g12
(dtRp184
sg18
g1
(g11
g12
(dtRp185
sg20
g1
(g11
g12
(dtRp186
sg22
g1
(g11
g12
(dtRp187
sbsg24
g25
sg26
g27
((lp188
g33
ag32
ag29
ag30
atRp189
sg37
(lp190
g1
(g2
g3
NtRp191
(dp192
g6
g1
(g7
g3
NtRp193
(dp194
g10
g1
(g11
g12
(dtRp195
sg14
g1
(g11
g12
(dtRp196
sg16
g1
(g11
g12
(dtRp197
sg18
g1
(g11
g12
(dtRp198
sg20
g1
(g11
g12
(dtRp199
sg22
g1
(g11
g12
(dtRp200
sbsg24
S'Cga'
p201
sg26
g27
((lp202
g29
ag30
aS'sequence'
p203
ag32
ag33
aS'species'
p204
atRp205
sg37
(lp206
sg120
g178
sg121
S'RWLSTKDLYSRLELTGLNQNVHAMFVMPLGFGNPMGDMFARLNNSFWLVPLSLEGAGTGWTVYFPLAHSGPAVDLAFHLSSSLLGAINFTNMRGPLFWTALLLLSLPVLAGTGIDRNFNTFEGGDALYHLFWFFGHPEVYIIPGFGSHSAISKFGMYASIGLGFVWSHHMFVGLDDRAYFTSATMIAPTSIKFSWLSTYGGRTALAFIFLFTGGTGVLNSADPFHDSYYVVMAFSIGWLPYNLFWFMFGMNDAGWSSAYQLGPSGTNE'
p207
sg123
F0.016299999999999999
sg124
g125
sg33
S'217'
p208
sg127
g1
(g128
g12
(dp209
g130
I4
sg131
g132
sg133
g134
sg135
g132
sg136
I01
sg34
g137
sg138
g134
sg139
I0
sg140
I0
sg141
I0
sg142
g134
sg35
g143
sg144
I0
stRp210
sg146
g147
sg148
F1
sg149
Nsg30
S'CgallA'
p211
sbag1
(g2
g3
NtRp212
(dp213
g6
g1
(g7
g3
NtRp214
(dp215
g10
g1
(g11
g12
(dtRp216
sg14
g1
(g11
g12
(dtRp217
sg16
g1
(g11
g12
(dtRp218
sg18
g1
(g11
g12
(dtRp219
sg20
g1
(g11
g12
(dtRp220
sg22
g1
(g11
g12
(dtRp221
sbsg24
S'Cde'
p222
sg26
g27
((lp223
g29
ag30
aS'sequence'
p224
ag32
ag33
aS'species'
p225
atRp226
sg37
(lp227
sg120
g178
sg121
S'RWLSTKDLYSRLELTGLNQNVHAMFVMPLGFGNPMGDMFARLNNSFWLVPLSLEGAGTGWTVYFPLAHSGPAVDLAFHLSSSLLGAINFTNMRGPLFWTALLLLSLPVLAGTGIDRNFNTFEGGDALYHLFFFNGHPEVYIIPGFGSHSAISKFGMYASIGLGFVWSHHMFVGLDDRAYFTSATMIAPTSIKFSWLATYGGRTALAFIFLFTGGTGVLNSADPFHDSYYVVMAFSIGWLPYNLFWFMFGMNDAGWSSAYQLGPSGTNE'
p228
sg123
F0.018610000000000002
sg124
g125
sg33
S'118'
p229
sg127
g1
(g128
g12
(dp230
g130
I4
sg131
g132
sg133
g134
sg135
g132
sg136
I01
sg34
g137
sg138
g134
sg139
I0
sg140
I0
sg141
I0
sg142
g134
sg35
g143
sg144
I0
stRp231
sg146
g147
sg148
F1
sg149
Nsg30
S'CdefoA'
p232
sbasg120
g78
sg123
F0.00282
sg124
g125
sg33
S'115'
p233
sg127
g1
(g128
g12
(dp234
g130
I6
sg131
g132
sg133
g134
sg135
g132
sg136
I01
sg34
g174
sg138
g134
sg139
I0
sg140
I0
sg141
I0
sg142
g134
sg35
g175
sg144
I0
stRp235
sg146
g147
sg148
F0.96999999999999997
sg149
Nsg30
S'NoName'
p236
sbasg120
g65
sg123
F0.00479
sg124
g125
sg33
S'55'
p237
sg127
g1
(g128
g12
(dp238
g130
I6
sg131
g132
sg133
g134
sg135
g132
sg136
I01
sg34
g174
sg138
g134
sg139
I0
sg140
I0
sg141
I0
sg142
g134
sg35
g175
sg144
I0
stRp239
sg146
g147
sg148
F0.80000000000000004
sg149
Nsg30
S'NoName'
p240
sbag1
(g2
g3
NtRp241
(dp242
g6
g1
(g7
g3
NtRp243
(dp244
g10
g1
(g11
g12
(dtRp245
sg14
g1
(g11
g12
(dtRp246
sg16
g1
(g11
g12
(dtRp247
sg18
g1
(g11
g12
(dtRp248
sg20
g1
(g11
g12
(dtRp249
sg22
g1
(g11
g12
(dtRp250
sbsg24
S'Cal'
p251
sg26
g27
((lp252
g29
ag30
aS'sequence'
p253
ag32
ag33
aS'species'
p254
atRp255
sg37
(lp256
sg120
g65
sg121
S'RWLSTKDLYSRLELTGLNQNVHAMFVMPLGFGNPMGDMFARLNNSFWLVPMSLEGAGTGWTVYFPLAHSGPAVDLAFHLASSLLGAINFTNMRGPLFWTALLLLSLPVLAGTGIDRNFNTFEGGDALYHLFWFFGHPEVYIIPGFGSHSAISKFGMYASIGLGFVWSHHMFVGLDDRAYFTSATMIAPTSIKFSWLATYGGRTALAFIFLFTGGTGVLNSADPFHDSYYVVMAFSIGWLPYNLFWFMFGMNDAGWSSAYQLGPSGTNE'
p257
sg123
F0.035970000000000002
sg124
g125
sg33
S'67'
p258
sg127
g1
(g128
g12
(dp259
g130
I4
sg131
g132
sg133
g134
sg135
g132
sg136
I01
sg34
g137
sg138
g134
sg139
I0
sg140
I0
sg141
I0
sg142
g134
sg35
g143
sg144
I0
stRp260
sg146
g147
sg148
F1
sg149
Nsg30
S'CalimA'
p261
sbasg120
g52
sg123
F1.1444799999999999
sg124
g125
sg33
S'194'
p262
sg127
g1
(g128
g12
(dp263
g130
I6
sg131
g132
sg133
g134
sg135
g132
sg136
I01
sg34
g174
sg138
g134
sg139
I0
sg140
I0
sg141
I0
sg142
g134
sg35
g175
sg144
I0
stRp264
sg146
g147
sg148
F0.97999999999999998
sg149
Nsg30
S'NoName'
p265
sbag1
(g2
g3
NtRp266
(dp267
g6
g1
(g7
g3
NtRp268
(dp269
g10
g1
(g11
g12
(dtRp270
sg14
g1
(g11
g12
(dtRp271
sg16
g1
(g11
g12
(dtRp272
sg18
g1
(g11
g12
(dtRp273
sg20
g1
(g11
g12
(dtRp274
sg22
g1
(g11
g12
(dtRp275
sbsg24
g25
sg26
g27
((lp276
g33
ag32
ag29
ag30
atRp277
sg37
(lp278
g1
(g2
g3
NtRp279
(dp280
g6
g1
(g7
g3
NtRp281
(dp282
g10
g1
(g11
g12
(dtRp283
sg14
g1
(g11
g12
(dtRp284
sg16
g1
(g11
g12
(dtRp285
sg18
g1
(g11
g12
(dtRp286
sg20
g1
(g11
g12
(dtRp287
sg22
g1
(g11
g12
(dtRp288
sbsg24
g25
sg26
g27
((lp289
g33
ag32
ag29
ag30
atRp290
sg37
(lp291
g1
(g2
g3
NtRp292
(dp293
g6
g1
(g7
g3
NtRp294
(dp295
g10
g1
(g11
g12
(dtRp296
sg14
g1
(g11
g12
(dtRp297
sg16
g1
(g11
g12
(dtRp298
sg18
g1
(g11
g12
(dtRp299
sg20
g1
(g11
g12
(dtRp300
sg22
g1
(g11
g12
(dtRp301
sbsg24
g25
sg26
g27
((lp302
g33
ag32
ag29
ag30
atRp303
sg37
(lp304
g1
(g2
g3
NtRp305
(dp306
g6
g1
(g7
g3
NtRp307
(dp308
g10
g1
(g11
g12
(dtRp309
sg14
g1
(g11
g12
(dtRp310
sg16
g1
(g11
g12
(dtRp311
sg18
g1
(g11
g12
(dtRp312
sg20
g1
(g11
g12
(dtRp313
sg22
g1
(g11
g12
(dtRp314
sbsg24
g25
sg26
g27
((lp315
g33
ag32
ag29
ag30
atRp316
sg37
(lp317
g1
(g2
g3
NtRp318
(dp319
g6
g1
(g7
g3
NtRp320
(dp321
g10
g1
(g11
g12
(dtRp322
sg14
g1
(g11
g12
(dtRp323
sg16
g1
(g11
g12
(dtRp324
sg18
g1
(g11
g12
(dtRp325
sg20
g1
(g11
g12
(dtRp326
sg22
g1
(g11
g12
(dtRp327
sbsg24
S'Mst'
p328
sg26
g27
((lp329
g29
ag30
aS'sequence'
p330
ag32
ag33
aS'species'
p331
atRp332
sg37
(lp333
sg120
g305
sg121
S'RWLSTKDLYSRLELPTLNQNVHAMFVMPSGFGNPMGDMLARLNNSFWLVPVSLEGAGTGWTVYPPLSHSGASVDLVFHMSSSLLGAINFTNMRGTLFWTALLLLSLPVLSGTLLDRNFNTFEGGDPLYHLFWFFGHPEVYIIPGFGSHSTYKKFGMYASMGLGFVWSHHMYVGLDDRAYFTSATMMAPTGVKFSWLATYGGRPFLAFMFLFTGGTGVLNASDAFHDTYYVVLAFSLGYFPYNLFMFLFGMPDAGWSSSYQLGPDESNE'
p334
sg123
F0.087190000000000004
sg124
g125
sg33
S'149'
p335
sg127
g1
(g128
g12
(dp336
g130
I4
sg131
g132
sg133
g134
sg135
g132
sg136
I01
sg34
g137
sg138
g134
sg139
I0
sg140
I0
sg141
I0
sg142
g134
sg35
g143
sg144
I0
stRp337
sg146
g147
sg148
F1
sg149
Nsg30
S'MstarA'
p338
sbag1
(g2
g3
NtRp339
(dp340
g6
g1
(g7
g3
NtRp341
(dp342
g10
g1
(g11
g12
(dtRp343
sg14
g1
(g11
g12
(dtRp344
sg16
g1
(g11
g12
(dtRp345
sg18
g1
(g11
g12
(dtRp346
sg20
g1
(g11
g12
(dtRp347
sg22
g1
(g11
g12
(dtRp348
sbsg24
S'Min'
p349
sg26
g27
((lp350
g29
ag30
aS'sequence'
p351
ag32
ag33
aS'species'
p352
atRp353
sg37
(lp354
sg120
g305
sg121
S'RWLSTKDLYSRLELPTLNQNVHAMFVMPAGFGNPMGDMLARLNNSFWLVPVSLEGAGTGWTVYPPLSHSGPSVDLVFHISSSLLGSMNFTNMRGTLFWTSLLLLSLPVLSGTLLDRNFNTFEGGDPLYHLFYKMMLFSMYMMPGFGSHSAYKKFGMYASIGLGFVWSHHMYVGLDDRAYFTSATMIAPTGVKFSWLATYGGRPFLAFMFLFTGGTGVLNASDAFHDTYYVVLAFSLGYFPYNLFTFLFGMPDAGWSSSYQLGPDESNE'
p355
sg123
F0.040719999999999999
sg124
g125
sg33
S'43'
p356
sg127
g1
(g128
g12
(dp357
g130
I4
sg131
g132
sg133
g134
sg135
g132
sg136
I01
sg34
g137
sg138
g134
sg139
I0
sg140
I0
sg141
I0
sg142
g134
sg35
g143
sg144
I0
stRp358
sg146
g147
sg148
F1
sg149
Nsg30
S'MingeA'
p359
sbasg120
g292
sg123
F0.037420000000000002
sg124
g125
sg33
S'33'
p360
sg127
g1
(g128
g12
(dp361
g130
I6
sg131
g132
sg133
g134
sg135
g132
sg136
I01
sg34
g174
sg138
g134
sg139
I0
sg140
I0
sg141
I0
sg142
g134
sg35
g175
sg144
I0
stRp362
sg146
g147
sg148
F0.98999999999999999
sg149
Nsg30
S'NoName'
p363
sbag1
(g2
g3
NtRp364
(dp365
g6
g1
(g7
g3
NtRp366
(dp367
g10
g1
(g11
g12
(dtRp368
sg14
g1
(g11
g12
(dtRp369
sg16
g1
(g11
g12
(dtRp370
sg18
g1
(g11
g12
(dtRp371
sg20
g1
(g11
g12
(dtRp372
sg22
g1
(g11
g12
(dtRp373
sbsg24
g25
sg26
g27
((lp374
g33
ag32
ag29
ag30
atRp375
sg37
(lp376
g1
(g2
g3
NtRp377
(dp378
g6
g1
(g7
g3
NtRp379
(dp380
g10
g1
(g11
g12
(dtRp381
sg14
g1
(g11
g12
(dtRp382
sg16
g1
(g11
g12
(dtRp383
sg18
g1
(g11
g12
(dtRp384
sg20
g1
(g11
g12
(dtRp385
sg22
g1
(g11
g12
(dtRp386
sbsg24
g25
sg26
g27
((lp387
g33
ag32
ag29
ag30
atRp388
sg37
(lp389
g1
(g2
g3
NtRp390
(dp391
g6
g1
(g7
g3
NtRp392
(dp393
g10
g1
(g11
g12
(dtRp394
sg14
g1
(g11
g12
(dtRp395
sg16
g1
(g11
g12
(dtRp396
sg18
g1
(g11
g12
(dtRp397
sg20
g1
(g11
g12
(dtRp398
sg22
g1
(g11
g12
(dtRp399
sbsg24
S'Mte'
p400
sg26
g27
((lp401
g29
ag30
aS'sequence'
p402
ag32
ag33
aS'species'
p403
atRp404
sg37
(lp405
sg120
g377
sg121
S'RWLSTKDLYSRLELPTLNQNVHAMFVMPAGFGNPMGDMLARLNNSFWLVPLSLEGAGTGWTVYPPLSHSGPSVDMVFHISSSLLGAINFTNMRGTLFWTALLLLSLPVLSGTLLDRNFNTFEGGDPLYHLFWFFGHPEVYIIPGFGSHSAYKKFGMYASIGLGFVWSHHMYVGLDDRAYFTSATMIAPTGVKFSWLATYGGRPFLAFIFLFTGGTGVLNASDAFHDTYYVVLAFSLGYFPYNLFYFMAGMPDAGWSSSYQLGPDESNE'
p406
sg123
F0.042599999999999999
sg124
g125
sg33
S'79'
p407
sg127
g1
(g128
g12
(dp408
g130
I4
sg131
g132
sg133
g134
sg135
g132
sg136
I01
sg34
g137
sg138
g134
sg139
I0
sg140
I0
sg141
I0
sg142
g134
sg35
g143
sg144
I0
stRp409
sg146
g147
sg148
F1
sg149
Nsg30
S'MtetrA'
p410
sbag1
(g2
g3
NtRp411
(dp412
g6
g1
(g7
g3
NtRp413
(dp414
g10
g1
(g11
g12
(dtRp415
sg14
g1
(g11
g12
(dtRp416
sg16
g1
(g11
g12
(dtRp417
sg18
g1
(g11
g12
(dtRp418
sg20
g1
(g11
g12
(dtRp419
sg22
g1
(g11
g12
(dtRp420
sbsg24
g25
sg26
g27
((lp421
g33
ag32
ag29
ag30
atRp422
sg37
(lp423
g1
(g2
g3
NtRp424
(dp425
g6
g1
(g7
g3
NtRp426
(dp427
g10
g1
(g11
g12
(dtRp428
sg14
g1
(g11
g12
(dtRp429
sg16
g1
(g11
g12
(dtRp430
sg18
g1
(g11
g12
(dtRp431
sg20
g1
(g11
g12
(dtRp432
sg22
g1
(g11
g12
(dtRp433
sbsg24
S'Mma'
p434
sg26
g27
((lp435
g29
ag30
aS'sequence'
p436
ag32
ag33
aS'species'
p437
atRp438
sg37
(lp439
sg120
g411
sg121
S'RWLSTKDLYSRLELPTLNQNVHAMFVMPAGFGNPMGDMLARLNNSFWLVPLSLEGPGTGWTVYPPLSHSGPSVDMVFHISSSLLGAINFTNMRGTLFWTALLLLSLPVLSGTLLDRNFNTFEGGDPLYHLFWFFGHPEVYIIPGFGSHSAYKKFGMYASIGLGFVWSHHMYVGLDDRAYFTSATMIAPTGVKFSWLATYGGRPFLAFIFLFTGGTGVLNASDAFHDSYYVVLAFSLGYFPYNLFFFMAGMPDAGWSSSYQLGPDESNE'
p440
sg123
F0.00055000000000000003
sg124
g125
sg33
S'30'
p441
sg127
g1
(g128
g12
(dp442
g130
I4
sg131
g132
sg133
g134
sg135
g132
sg136
I01
sg34
g137
sg138
g134
sg139
I0
sg140
I0
sg141
I0
sg142
g134
sg35
g143
sg144
I0
stRp443
sg146
g147
sg148
F1
sg149
Nsg30
S'MmagnB'
p444
sbag1
(g2
g3
NtRp445
(dp446
g6
g1
(g7
g3
NtRp447
(dp448
g10
g1
(g11
g12
(dtRp449
sg14
g1
(g11
g12
(dtRp450
sg16
g1
(g11
g12
(dtRp451
sg18
g1
(g11
g12
(dtRp452
sg20
g1
(g11
g12
(dtRp453
sg22
g1
(g11
g12
(dtRp454
sbsg24
S'Mma'
p455
sg26
g27
((lp456
g29
ag30
aS'sequence'
p457
ag32
ag33
aS'species'
p458
atRp459
sg37
(lp460
sg120
g411
sg121
S'RWLSTKDLYSRLELPTLNQNVHAMFVMPAGFGNPMGDMLARLNNSFWLVPLSLEGPGTGWTVYPPLSHSGPSVDMVFHISSSLLGAINFTNMRGTLFWTALLLLSLPVLSGTLLDRNFNTFEGGDPLYHLFWFFGHPEVYIIPGFGSHSAYKKFGMYASIGLGFVWSHHMYVGLDDRAYFTSATMIAPTGVKFSWLATYGGRPFLAFIFLFTGGTGVLNASDAFHDSYYVVLAFSLGYFPYNLFFFMAGMPDAGWSSSYQLGPDESNE'
p461
sg123
F0.00088000000000000003
sg124
g125
sg33
S'178'
p462
sg127
g1
(g128
g12
(dp463
g130
I4
sg131
g132
sg133
g134
sg135
g132
sg136
I01
sg34
g137
sg138
g134
sg139
I0
sg140
I0
sg141
I0
sg142
g134
sg35
g143
sg144
I0
stRp464
sg146
g147
sg148
F1
sg149
Nsg30
S'MmagnA'
p465
sbasg120
g377
sg123
F0.011140000000000001
sg124
g125
sg33
S'213'
p466
sg127
g1
(g128
g12
(dp467
g130
I6
sg131
g132
sg133
g134
sg135
g132
sg136
I01
sg34
g174
sg138
g134
sg139
I0
sg140
I0
sg141
I0
sg142
g134
sg35
g175
sg144
I0
stRp468
sg146
g147
sg148
F0.98999999999999999
sg149
Nsg30
S'NoName'
p469
sbasg120
g364
sg123
F0.11189
sg124
g125
sg33
S'7'
sg127
g1
(g128
g12
(dp470
g130
I6
sg131
g132
sg133
g134
sg135
g132
sg136
I01
sg34
g174
sg138
g134
sg139
I0
sg140
I0
sg141
I0
sg142
g134
sg35
g175
sg144
I0
stRp471
sg146
g147
sg148
F0.98999999999999999
sg149
Nsg30
S'NoName'
p472
sbag1
(g2
g3
NtRp473
(dp474
g6
g1
(g7
g3
NtRp475
(dp476
g10
g1
(g11
g12
(dtRp477
sg14
g1
(g11
g12
(dtRp478
sg16
g1
(g11
g12
(dtRp479
sg18
g1
(g11
g12
(dtRp480
sg20
g1
(g11
g12
(dtRp481
sg22
g1
(g11
g12
(dtRp482
sbsg24
g25
sg26
g27
((lp483
g33
ag32
ag29
ag30
atRp484
sg37
(lp485
g1
(g2
g3
NtRp486
(dp487
g6
g1
(g7
g3
NtRp488
(dp489
g10
g1
(g11
g12
(dtRp490
sg14
g1
(g11
g12
(dtRp491
sg16
g1
(g11
g12
(dtRp492
sg18
g1
(g11
g12
(dtRp493
sg20
g1
(g11
g12
(dtRp494
sg22
g1
(g11
g12
(dtRp495
sbsg24
S'Scl'
p496
sg26
g27
((lp497
g29
ag30
aS'sequence'
p498
ag32
ag33
aS'species'
p499
atRp500
sg37
(lp501
sg120
g473
sg121
S'RWLSTKDLYSRLELPTLNQNVHAMFVMPAGFGNPMGDMLARLNNSFWLVPLSLEGPGTGWTVYPPLSHSGPSVDMVFHMSSSLLGAINFTNMRGTLFWTALLLLSLPVLAGTLLDRNFNTFEGGDPLYHLFWFFGHPEVYMIPGFGSHSTYKKFGMYASMGLGFVWSHHMYVGLDDRAYFTAATMIAPTGVKFSWLATYGGRPFLTFMFLFTGGTGVLNASDAFHDTYYVVLAFSLGYFPYNLFMFLFGMPDAGWSSSYQLGPDESNE'
p502
sg123
F0.020899999999999998
sg124
g125
sg33
S'82'
p503
sg127
g1
(g128
g12
(dp504
g130
I4
sg131
g132
sg133
g134
sg135
g132
sg136
I01
sg34
g137
sg138
g134
sg139
I0
sg140
I0
sg141
I0
sg142
g134
sg35
g143
sg144
I0
stRp505
sg146
g147
sg148
F1
sg149
Nsg30
S'SclavA'
p506
sbag1
(g2
g3
NtRp507
(dp508
g6
g1
(g7
g3
NtRp509
(dp510
g10
g1
(g11
g12
(dtRp511
sg14
g1
(g11
g12
(dtRp512
sg16
g1
(g11
g12
(dtRp513
sg18
g1
(g11
g12
(dtRp514
sg20
g1
(g11
g12
(dtRp515
sg22
g1
(g11
g12
(dtRp516
sbsg24
S'Msp'
p517
sg26
g27
((lp518
g29
ag30
aS'sequence'
p519
ag32
ag33
aS'species'
p520
atRp521
sg37
(lp522
sg120
g473
sg121
S'RWLSTKDLYSRLELPTLNQNVHAMFVMPAGFGNPMGDMLARLNNSFWLVPLSLEGPGTGWTVYPPLSHSGPSVDMVFHMSSSLLGAMNFTNMRGTLFWTALLLLSLPVLAGTLLDRNFNTFEGGDPLYHLFWFFGHPEVYMIPGFGSHSTYKKFGMYASMGLGFVWSHHMYVGLDDRAYFTAATMIAPTGVKFSWLATYGGRPFLTFMFLFTGGTGVLNASDAFHDTYYVVLAFSLGYFPYNLFMFLFGMPDAGWSSSYQLGPDESNE'
p523
sg123
F0.13538
sg124
g125
sg33
S'75'
p524
sg127
g1
(g128
g12
(dp525
g130
I4
sg131
g132
sg133
g134
sg135
g132
sg136
I01
sg34
g137
sg138
g134
sg139
I0
sg140
I0
sg141
I0
sg142
g134
sg35
g143
sg144
I0
stRp526
sg146
g147
sg148
F1
sg149
Nsg30
S'MspicA'
p527
sbasg120
g364
sg123
F0.10536
sg124
g125
sg33
S'71'
p528
sg127
g1
(g128
g12
(dp529
g130
I6
sg131
g132
sg133
g134
sg135
g132
sg136
I01
sg34
g174
sg138
g134
sg139
I0
sg140
I0
sg141
I0
sg142
g134
sg35
g175
sg144
I0
stRp530
sg146
g147
sg148
F0.98999999999999999
sg149
Nsg30
S'NoName'
p531
sbasg120
g292
sg123
F0.03209
sg124
g125
sg33
S'224'
p532
sg127
g1
(g128
g12
(dp533
g130
I6
sg131
g132
sg133
g134
sg135
g132
sg136
I01
sg34
g174
sg138
g134
sg139
I0
sg140
I0
sg141
I0
sg142
g134
sg35
g175
sg144
I0
stRp534
sg146
g147
sg148
F0.98999999999999999
sg149
Nsg30
S'NoName'
p535
sbasg120
g279
sg123
F0.32869999999999999
sg124
g125
sg33
S'14'
p536
sg127
g1
(g128
g12
(dp537
g130
I6
sg131
g132
sg133
g134
sg135
g132
sg136
I01
sg34
g174
sg138
g134
sg139
I0
sg140
I0
sg141
I0
sg142
g134
sg35
g175
sg144
I0
stRp538
sg146
g147
sg148
F0.98999999999999999
sg149
Nsg30
S'NoName'
p539
sbag1
(g2
g3
NtRp540
(dp541
g6
g1
(g7
g3
NtRp542
(dp543
g10
g1
(g11
g12
(dtRp544
sg14
g1
(g11
g12
(dtRp545
sg16
g1
(g11
g12
(dtRp546
sg18
g1
(g11
g12
(dtRp547
sg20
g1
(g11
g12
(dtRp548
sg22
g1
(g11
g12
(dtRp549
sbsg24
g25
sg26
g27
((lp550
g33
ag32
ag29
ag30
atRp551
sg37
(lp552
g1
(g2
g3
NtRp553
(dp554
g6
g1
(g7
g3
NtRp555
(dp556
g10
g1
(g11
g12
(dtRp557
sg14
g1
(g11
g12
(dtRp558
sg16
g1
(g11
g12
(dtRp559
sg18
g1
(g11
g12
(dtRp560
sg20
g1
(g11
g12
(dtRp561
sg22
g1
(g11
g12
(dtRp562
sbsg24
g25
sg26
g27
((lp563
g33
ag32
ag29
ag30
atRp564
sg37
(lp565
g1
(g2
g3
NtRp566
(dp567
g6
g1
(g7
g3
NtRp568
(dp569
g10
g1
(g11
g12
(dtRp570
sg14
g1
(g11
g12
(dtRp571
sg16
g1
(g11
g12
(dtRp572
sg18
g1
(g11
g12
(dtRp573
sg20
g1
(g11
g12
(dtRp574
sg22
g1
(g11
g12
(dtRp575
sbsg24
S'Cze'
p576
sg26
g27
((lp577
g29
ag30
aS'sequence'
p578
ag32
ag33
aS'species'
p579
atRp580
sg37
(lp581
sg120
g553
sg121
S'SWLSTQNLYSRIELPNLNQNVHAMFVMPTGLANPQGDTFPRMNNAFVLLPMSLDGPGSGWTLYPPLTHSGSSMDMAFHLSSSIFGAINLTNMRGPLFWTALMMLALPVLAGTLLDRNFNTFVGGDPLYHIFWFFGHPEVYIIPVFGSQQVYKKFGMYASIGLGFVWSHHMFVGLDDRAYFSGASLIAPTGSKFSWLATYGGRPLLAFMVLFTGGTGVMNSSDMFHDTYYVVLVFGVAYFPYNLFWFLFGLPDAGWSSSYQFGPDESNE'
p582
sg123
F1.5682799999999999
sg124
g125
sg33
S'220'
p583
sg127
g1
(g128
g12
(dp584
g130
I4
sg131
g132
sg133
g134
sg135
g132
sg136
I01
sg34
g137
sg138
g134
sg139
I0
sg140
I0
sg141
I0
sg142
g134
sg35
g143
sg144
I0
stRp585
sg146
g147
sg148
F1
sg149
Nsg30
S'CzempA'
p586
sbag1
(g2
g3
NtRp587
(dp588
g6
g1
(g7
g3
NtRp589
(dp590
g10
g1
(g11
g12
(dtRp591
sg14
g1
(g11
g12
(dtRp592
sg16
g1
(g11
g12
(dtRp593
sg18
g1
(g11
g12
(dtRp594
sg20
g1
(g11
g12
(dtRp595
sg22
g1
(g11
g12
(dtRp596
sbsg24
g25
sg26
g27
((lp597
g33
ag32
ag29
ag30
atRp598
sg37
(lp599
g1
(g2
g3
NtRp600
(dp601
g6
g1
(g7
g3
NtRp602
(dp603
g10
g1
(g11
g12
(dtRp604
sg14
g1
(g11
g12
(dtRp605
sg16
g1
(g11
g12
(dtRp606
sg18
g1
(g11
g12
(dtRp607
sg20
g1
(g11
g12
(dtRp608
sg22
g1
(g11
g12
(dtRp609
sbsg24
S'Csa'
p610
sg26
g27
((lp611
g29
ag30
aS'sequence'
p612
ag32
ag33
aS'species'
p613
atRp614
sg37
(lp615
sg120
g587
sg121
S'----------RLELPNLNQNVHAMFVMPSGFGNPMGDMLARLNNSFWLVPLSLDGPGTGWTMYPPLSHSGASVDLVFHISSSLLGAMNFTNMRGTLFWTALLLLSLPVLSGTLLDRNFNTFEGGDMLYHMFWFFGHPEVYMMPGFGSQSVYKKFGMYASMGLGFVWSHHMFVGLDDRAYFTAATLMAPTGVKFSWLASYGGRPLLAFMFLFTGGTGVLNASDAFHDTYYVVLAFSLGYFPYNLFWFQFAMPDAGWSSSYQMGPDFSNE'
p616
sg123
F0.65920000000000001
sg124
g125
sg33
S'84'
p617
sg127
g1
(g128
g12
(dp618
g130
I4
sg131
g132
sg133
g134
sg135
g132
sg136
I01
sg34
g137
sg138
g134
sg139
I0
sg140
I0
sg141
I0
sg142
g134
sg35
g143
sg144
I0
stRp619
sg146
g147
sg148
F1
sg149
Nsg30
S'CsantA'
p620
sbag1
(g2
g3
NtRp621
(dp622
g6
g1
(g7
g3
NtRp623
(dp624
g10
g1
(g11
g12
(dtRp625
sg14
g1
(g11
g12
(dtRp626
sg16
g1
(g11
g12
(dtRp627
sg18
g1
(g11
g12
(dtRp628
sg20
g1
(g11
g12
(dtRp629
sg22
g1
(g11
g12
(dtRp630
sbsg24
S'Csa'
p631
sg26
g27
((lp632
g29
ag30
aS'sequence'
p633
ag32
ag33
aS'species'
p634
atRp635
sg37
(lp636
sg120
g587
sg121
S'RWLSTKDLYSRLELPAMSQNVHAMFVMPSGFANPMGDTLPRVNNAAILMPMSLEGPGTGWTVYPPLSHSGVSVDLVFHISSSLAGAMNLTNMRGPLFWTALLLLSLPVLAGTLIDRNFNTFDGGDVLYHLFWFFGHPEVYIIPGFGSESRYNKFGMYASIGLGFVWSHHMYVGLDDRSYFTAATLIAPTGVKFSWMATFGGRPFLTFLALFTGGTGVLNASDAFHDTYYVVLAFSMGYYPYNLFWFQFGQSDAGWSSSYQLGPDESNE'
p637
sg123
F1.3581099999999999
sg124
g125
sg33
S'49'
p638
sg127
g1
(g128
g12
(dp639
g130
I4
sg131
g132
sg133
g134
sg135
g132
sg136
I01
sg34
g137
sg138
g134
sg139
I0
sg140
I0
sg141
I0
sg142
g134
sg35
g143
sg144
I0
stRp640
sg146
g147
sg148
F1
sg149
Nsg30
S'CsalmA'
p641
sbasg120
g553
sg123
F0.19968
sg124
g125
sg33
S'90'
p642
sg127
g1
(g128
g12
(dp643
g130
I6
sg131
g132
sg133
g134
sg135
g132
sg136
I01
sg34
g174
sg138
g134
sg139
I0
sg140
I0
sg141
I0
sg142
g134
sg35
g175
sg144
I0
stRp644
sg146
g147
sg148
F0.97999999999999998
sg149
Nsg30
S'NoName'
p645
sbasg120
g540
sg123
F0.14363999999999999
sg124
g125
sg33
S'72'
p646
sg127
g1
(g128
g12
(dp647
g130
I6
sg131
g132
sg133
g134
sg135
g132
sg136
I01
sg34
g174
sg138
g134
sg139
I0
sg140
I0
sg141
I0
sg142
g134
sg35
g175
sg144
I0
stRp648
sg146
g147
sg148
F0.93000000000000005
sg149
Nsg30
S'NoName'
p649
sbag1
(g2
g3
NtRp650
(dp651
g6
g1
(g7
g3
NtRp652
(dp653
g10
g1
(g11
g12
(dtRp654
sg14
g1
(g11
g12
(dtRp655
sg16
g1
(g11
g12
(dtRp656
sg18
g1
(g11
g12
(dtRp657
sg20
g1
(g11
g12
(dtRp658
sg22
g1
(g11
g12
(dtRp659
sbsg24
S'Bar'
p660
sg26
g27
((lp661
g29
ag30
aS'sequence'
p662
ag32
ag33
aS'species'
p663
atRp664
sg37
(lp665
sg120
g540
sg121
S'RWLSTKDLYSRLELPNLNQNSHAMFVMPTGFGNPMGDMLSRLNNSFWLVPLSLEGPGTGWTVYPPLSHSGPSVDLVFHVSSSLLGAMNFTNMRGTLFWTVLLLLALPVLAGTLLDRNFNTFEGGDPLYHMFWFFGHPEVYIIPGFGSQAVYNKFGMYASIGLGFVWSHHMYVGMDDRAYFTAATLIAPTGVKFSWLASYGGRPLLTFIGLFTGGTGVLNAADAFHDSYYVVLAFSLGYFPYNLFWFQFSMPDAGWSSSVQLGPDVNNE'
p666
sg123
F0.74575000000000002
sg124
g125
sg33
S'88'
p667
sg127
g1
(g128
g12
(dp668
g130
I4
sg131
g132
sg133
g134
sg135
g132
sg136
I01
sg34
g137
sg138
g134
sg139
I0
sg140
I0
sg141
I0
sg142
g134
sg35
g143
sg144
I0
stRp669
sg146
g147
sg148
F1
sg149
Nsg30
S'BarxA'
p670
sbasg120
g279
sg123
F0.25233
sg124
g125
sg33
S'76'
p671
sg127
g1
(g128
g12
(dp672
g130
I6
sg131
g132
sg133
g134
sg135
g132
sg136
I01
sg34
g174
sg138
g134
sg139
I0
sg140
I0
sg141
I0
sg142
g134
sg35
g175
sg144
I0
stRp673
sg146
g147
sg148
F0.97999999999999998
sg149
Nsg30
S'NoName'
p674
sbasg120
g266
sg123
F0.42224
sg124
g125
sg33
S'65'
p675
sg127
g1
(g128
g12
(dp676
g130
I6
sg131
g132
sg133
g134
sg135
g132
sg136
I01
sg34
g174
sg138
g134
sg139
I0
sg140
I0
sg141
I0
sg142
g134
sg35
g175
sg144
I0
stRp677
sg146
g147
sg148
F0.97999999999999998
sg149
Nsg30
S'NoName'
p678
sbag1
(g2
g3
NtRp679
(dp680
g6
g1
(g7
g3
NtRp681
(dp682
g10
g1
(g11
g12
(dtRp683
sg14
g1
(g11
g12
(dtRp684
sg16
g1
(g11
g12
(dtRp685
sg18
g1
(g11
g12
(dtRp686
sg20
g1
(g11
g12
(dtRp687
sg22
g1
(g11
g12
(dtRp688
sbsg24
g25
sg26
g27
((lp689
g33
ag32
ag29
ag30
atRp690
sg37
(lp691
g1
(g2
g3
NtRp692
(dp693
g6
g1
(g7
g3
NtRp694
(dp695
g10
g1
(g11
g12
(dtRp696
sg14
g1
(g11
g12
(dtRp697
sg16
g1
(g11
g12
(dtRp698
sg18
g1
(g11
g12
(dtRp699
sg20
g1
(g11
g12
(dtRp700
sg22
g1
(g11
g12
(dtRp701
sbsg24
g25
sg26
g27
((lp702
g33
ag32
ag29
ag30
atRp703
sg37
(lp704
g1
(g2
g3
NtRp705
(dp706
g6
g1
(g7
g3
NtRp707
(dp708
g10
g1
(g11
g12
(dtRp709
sg14
g1
(g11
g12
(dtRp710
sg16
g1
(g11
g12
(dtRp711
sg18
g1
(g11
g12
(dtRp712
sg20
g1
(g11
g12
(dtRp713
sg22
g1
(g11
g12
(dtRp714
sbsg24
g25
sg26
g27
((lp715
g33
ag32
ag29
ag30
atRp716
sg37
(lp717
g1
(g2
g3
NtRp718
(dp719
g6
g1
(g7
g3
NtRp720
(dp721
g10
g1
(g11
g12
(dtRp722
sg14
g1
(g11
g12
(dtRp723
sg16
g1
(g11
g12
(dtRp724
sg18
g1
(g11
g12
(dtRp725
sg20
g1
(g11
g12
(dtRp726
sg22
g1
(g11
g12
(dtRp727
sbsg24
g25
sg26
g27
((lp728
g33
ag32
ag29
ag30
atRp729
sg37
(lp730
g1
(g2
g3
NtRp731
(dp732
g6
g1
(g7
g3
NtRp733
(dp734
g10
g1
(g11
g12
(dtRp735
sg14
g1
(g11
g12
(dtRp736
sg16
g1
(g11
g12
(dtRp737
sg18
g1
(g11
g12
(dtRp738
sg20
g1
(g11
g12
(dtRp739
sg22
g1
(g11
g12
(dtRp740
sbsg24
S'Mfa'
p741
sg26
g27
((lp742
g29
ag30
aS'sequence'
p743
ag32
ag33
aS'species'
p744
atRp745
sg37
(lp746
sg120
g718
sg121
S'RWLSTKDLYSRLELGNLNQNVHAMFVMPLGFGNPLGDMFARLNNSFWLPPLSLEGAGTGWTVYPPLSHSGPSVDLAFHLTSSLLGAINFTNMRGPLFWTALLLLSLPVLAGTLLDRNFNTFEGGDPLYHLFWFFGHPEVYIIPGFGSHSTYKKFGMYASIGLGFVWSHHMYVGLDDRAYFTSATMIAPTGIKFSWLATYGGRPMLAFLFLFTGGTGVLNASDAFHDTYFVVMAFSLAYYPYNLFWFMFGMPDAGWSSSYQMGPDESNE'
p747
sg123
F0.14163999999999999
sg124
g125
sg33
S'153'
p748
sg127
g1
(g128
g12
(dp749
g130
I4
sg131
g132
sg133
g134
sg135
g132
sg136
I01
sg34
g137
sg138
g134
sg139
I0
sg140
I0
sg141
I0
sg142
g134
sg35
g143
sg144
I0
stRp750
sg146
g147
sg148
F1
sg149
Nsg30
S'MfariB'
p751
sbag1
(g2
g3
NtRp752
(dp753
g6
g1
(g7
g3
NtRp754
(dp755
g10
g1
(g11
g12
(dtRp756
sg14
g1
(g11
g12
(dtRp757
sg16
g1
(g11
g12
(dtRp758
sg18
g1
(g11
g12
(dtRp759
sg20
g1
(g11
g12
(dtRp760
sg22
g1
(g11
g12
(dtRp761
sbsg24
S'Csa'
p762
sg26
g27
((lp763
g29
ag30
aS'sequence'
p764
ag32
ag33
aS'species'
p765
atRp766
sg37
(lp767
sg120
g718
sg121
S'RWLSTKDLYSRLELGNFNQNVHAMFVMPLGFGNPLGDMFARLNNSFWLPPLSLEGAGTGWTVYPPLSHSGPSVDLAFHLTSSLLGAINFTNMRGPLFWTALLLLSLPVLAATLLDRNFNTFEGGDPLYHLFWFFGHPEVYIIPGFGSHSTYKKFGMYASMGLGFVWSHHMYVGLDDRAYFTSATMIAPTGMKFSWLATYGGRPMLAFLFLFTGGTGVLNASDAFHDTYYVVMAFSLAYYPYNWFWFMFGMPDAGWSSSYQMGPDESNE'
p768
sg123
F0.069970000000000004
sg124
g125
sg33
S'56'
p769
sg127
g1
(g128
g12
(dp770
g130
I4
sg131
g132
sg133
g134
sg135
g132
sg136
I01
sg34
g137
sg138
g134
sg139
I0
sg140
I0
sg141
I0
sg142
g134
sg35
g143
sg144
I0
stRp771
sg146
g147
sg148
F1
sg149
Nsg30
S'CsakeA'
p772
sbasg120
g705
sg123
F0.048980000000000003
sg124
g125
sg33
S'52'
p773
sg127
g1
(g128
g12
(dp774
g130
I6
sg131
g132
sg133
g134
sg135
g132
sg136
I01
sg34
g174
sg138
g134
sg139
I0
sg140
I0
sg141
I0
sg142
g134
sg35
g175
sg144
I0
stRp775
sg146
g147
sg148
F0.98999999999999999
sg149
Nsg30
S'NoName'
p776
sbag1
(g2
g3
NtRp777
(dp778
g6
g1
(g7
g3
NtRp779
(dp780
g10
g1
(g11
g12
(dtRp781
sg14
g1
(g11
g12
(dtRp782
sg16
g1
(g11
g12
(dtRp783
sg18
g1
(g11
g12
(dtRp784
sg20
g1
(g11
g12
(dtRp785
sg22
g1
(g11
g12
(dtRp786
sbsg24
g25
sg26
g27
((lp787
g33
ag32
ag29
ag30
atRp788
sg37
(lp789
g1
(g2
g3
NtRp790
(dp791
g6
g1
(g7
g3
NtRp792
(dp793
g10
g1
(g11
g12
(dtRp794
sg14
g1
(g11
g12
(dtRp795
sg16
g1
(g11
g12
(dtRp796
sg18
g1
(g11
g12
(dtRp797
sg20
g1
(g11
g12
(dtRp798
sg22
g1
(g11
g12
(dtRp799
sbsg24
g25
sg26
g27
((lp800
g33
ag32
ag29
ag30
atRp801
sg37
(lp802
g1
(g2
g3
NtRp803
(dp804
g6
g1
(g7
g3
NtRp805
(dp806
g10
g1
(g11
g12
(dtRp807
sg14
g1
(g11
g12
(dtRp808
sg16
g1
(g11
g12
(dtRp809
sg18
g1
(g11
g12
(dtRp810
sg20
g1
(g11
g12
(dtRp811
sg22
g1
(g11
g12
(dtRp812
sbsg24
S'Mfa'
p813
sg26
g27
((lp814
g29
ag30
aS'sequence'
p815
ag32
ag33
aS'species'
p816
atRp817
sg37
(lp818
sg120
g790
sg121
S'RWLSTKDLYSRAELGNFNHNVHAMFVMPLGFGNPMGDMFARLNNSFWLPPLSLEGAGTGWTVYPPLSHSGPSVDLAFHLTSSLLGAMNFTNMRGPLFWTALLLLSLPVLAGTLLDRNFNTFEGGDPLYHLFWFFGHPEVYIIPGFGSHSTYKKFGMYASMGLGFVWSHHMYVGLDDRAYFTSATMMAPTGIKFSWLATYGGRPMLAFLFLFTGGTGVLNASDAFHDTYYMYMAFSLGYYPYNWFWFMFGMPDAGWSSSKQLGPDESNE'
p819
sg123
F0.29086000000000001
sg124
g125
sg33
S'116'
p820
sg127
g1
(g128
g12
(dp821
g130
I4
sg131
g132
sg133
g134
sg135
g132
sg136
I01
sg34
g137
sg138
g134
sg139
I0
sg140
I0
sg141
I0
sg142
g134
sg35
g143
sg144
I0
stRp822
sg146
g147
sg148
F1
sg149
Nsg30
S'MfariA'
p823
sbag1
(g2
g3
NtRp824
(dp825
g6
g1
(g7
g3
NtRp826
(dp827
g10
g1
(g11
g12
(dtRp828
sg14
g1
(g11
g12
(dtRp829
sg16
g1
(g11
g12
(dtRp830
sg18
g1
(g11
g12
(dtRp831
sg20
g1
(g11
g12
(dtRp832
sg22
g1
(g11
g12
(dtRp833
sbsg24
S'Dha'
p834
sg26
g27
((lp835
g29
ag30
aS'sequence'
p836
ag32
ag33
aS'species'
p837
atRp838
sg37
(lp839
sg120
g790
sg121
S'RWLSTKDLYSRMELGNFNQNVHAMFIMPWGFGNPLGDMFARLNNSFWLPPLSLEGAGTGWTLYPPLSHSGPSVDLAFHLTSSLLGAMNFTNMRGPLFWTALLLLSLPVLAATLLDRNFNTFEGGDPLYHLFWFFGHPEVYIMPGFGSHSTYKKFGMYASIGLGFVWSHHMFVGLDDRAYFTSATMIAPTGIKFSWLATYGGRPMLAFLFLFTGGTGVLNASDAFHDTYYVVMAFSLAYYPYNLFWFMFGMPDAGWSSSKQLGPDESND'
p840
sg123
F0.11043
sg124
g125
sg33
S'64'
p841
sg127
g1
(g128
g12
(dp842
g130
I4
sg131
g132
sg133
g134
sg135
g132
sg136
I01
sg34
g137
sg138
g134
sg139
I0
sg140
I0
sg141
I0
sg142
g134
sg35
g143
sg144
I0
stRp843
sg146
g147
sg148
F1
sg149
Nsg30
S'DhansA'
p844
sbasg120
g777
sg123
F0.046699999999999998
sg124
g125
sg33
S'61'
p845
sg127
g1
(g128
g12
(dp846
g130
I6
sg131
g132
sg133
g134
sg135
g132
sg136
I01
sg34
g174
sg138
g134
sg139
I0
sg140
I0
sg141
I0
sg142
g134
sg35
g175
sg144
I0
stRp847
sg146
g147
sg148
F0.65000000000000002
sg149
Nsg30
S'NoName'
p848
sbag1
(g2
g3
NtRp849
(dp850
g6
g1
(g7
g3
NtRp851
(dp852
g10
g1
(g11
g12
(dtRp853
sg14
g1
(g11
g12
(dtRp854
sg16
g1
(g11
g12
(dtRp855
sg18
g1
(g11
g12
(dtRp856
sg20
g1
(g11
g12
(dtRp857
sg22
g1
(g11
g12
(dtRp858
sbsg24
g25
sg26
g27
((lp859
g33
ag32
ag29
ag30
atRp860
sg37
(lp861
g1
(g2
g3
NtRp862
(dp863
g6
g1
(g7
g3
NtRp864
(dp865
g10
g1
(g11
g12
(dtRp866
sg14
g1
(g11
g12
(dtRp867
sg16
g1
(g11
g12
(dtRp868
sg18
g1
(g11
g12
(dtRp869
sg20
g1
(g11
g12
(dtRp870
sg22
g1
(g11
g12
(dtRp871
sbsg24
S'Clu'
p872
sg26
g27
((lp873
g29
ag30
aS'sequence'
p874
ag32
ag33
aS'species'
p875
atRp876
sg37
(lp877
sg120
g849
sg121
S'RWLSTKDLYSRLELPDLNQNVHAMFVMPLGFGNPMGDMFARLNNSFWLPPLSLEGAGTGWTVYPPLSHSGPSVDLAFHLTSSLLGAINFTNMRGPLFWTALLLLSLPVLAGTLLDRNFNTFEGGDPLYHLFWFFGHPEVYMMPGFGSHSTYKKFGMYASMGLGFVWSHHMYVGLDDRAYFTSATMMAPTGMKFSWLATYGGRPMLAFLFLFTGGTGVLNASDAFHDTYYVVMAFSLGYYPYNWFWFMFGMPDAGWSSSRQLGPDESNE'
p878
sg123
F0.037310000000000003
sg124
g125
sg33
S'210'
p879
sg127
g1
(g128
g12
(dp880
g130
I4
sg131
g132
sg133
g134
sg135
g132
sg136
I01
sg34
g137
sg138
g134
sg139
I0
sg140
I0
sg141
I0
sg142
g134
sg35
g143
sg144
I0
stRp881
sg146
g147
sg148
F1
sg149
Nsg30
S'ClusiA'
p882
sbag1
(g2
g3
NtRp883
(dp884
g6
g1
(g7
g3
NtRp885
(dp886
g10
g1
(g11
g12
(dtRp887
sg14
g1
(g11
g12
(dtRp888
sg16
g1
(g11
g12
(dtRp889
sg18
g1
(g11
g12
(dtRp890
sg20
g1
(g11
g12
(dtRp891
sg22
g1
(g11
g12
(dtRp892
sbsg24
g25
sg26
g27
((lp893
g33
ag32
ag29
ag30
atRp894
sg37
(lp895
g1
(g2
g3
NtRp896
(dp897
g6
g1
(g7
g3
NtRp898
(dp899
g10
g1
(g11
g12
(dtRp900
sg14
g1
(g11
g12
(dtRp901
sg16
g1
(g11
g12
(dtRp902
sg18
g1
(g11
g12
(dtRp903
sg20
g1
(g11
g12
(dtRp904
sg22
g1
(g11
g12
(dtRp905
sbsg24
S'Mgu'
p906
sg26
g27
((lp907
g29
ag30
aS'sequence'
p908
ag32
ag33
aS'species'
p909
atRp910
sg37
(lp911
sg120
g883
sg121
S'---------------------------------------------------------------------------------------------------------------------------------------------------------------------------------------------------------------------------------------MAFSLGYYPYNWFWFMFGMPDAGWSSSKQLGPDESNE'
p912
sg123
F0.0044999999999999997
sg124
g125
sg33
S'25'
p913
sg127
g1
(g128
g12
(dp914
g130
I4
sg131
g132
sg133
g134
sg135
g132
sg136
I01
sg34
g137
sg138
g134
sg139
I0
sg140
I0
sg141
I0
sg142
g134
sg35
g143
sg144
I0
stRp915
sg146
g147
sg148
F1
sg149
Nsg30
S'MguilB'
p916
sbag1
(g2
g3
NtRp917
(dp918
g6
g1
(g7
g3
NtRp919
(dp920
g10
g1
(g11
g12
(dtRp921
sg14
g1
(g11
g12
(dtRp922
sg16
g1
(g11
g12
(dtRp923
sg18
g1
(g11
g12
(dtRp924
sg20
g1
(g11
g12
(dtRp925
sg22
g1
(g11
g12
(dtRp926
sbsg24
S'Mgu'
p927
sg26
g27
((lp928
g29
ag30
aS'sequence'
p929
ag32
ag33
aS'species'
p930
atRp931
sg37
(lp932
sg120
g883
sg121
S'RWLSTKDLYSRMELGNFNQNVHAMFVMPIGFGNPMGDMFARLNNSFWLPPLSLEGAGTGWTVYPPLSHSGPSVDMAFHLTSSLLGAMNFTNMRGPLFWTALLLLSLPVLAGTLLDRNFNTFEGGDPLYHLFWFFGHPEVYMMPGFGSHSTYKKFGMYASIGLGFVWSHHMYVGLDDRAYFTSATMMAPTGMKFSWLSTYGGRPMLAFLFLFTGGTGVLNASDAFHDTYYVVMAFSLGYYPYNWFWFMFGMPDAGWSSSKQLGPDESNE'
p933
sg123
F0.0020100000000000001
sg124
g125
sg33
S'27'
p934
sg127
g1
(g128
g12
(dp935
g130
I4
sg131
g132
sg133
g134
sg135
g132
sg136
I01
sg34
g137
sg138
g134
sg139
I0
sg140
I0
sg141
I0
sg142
g134
sg35
g143
sg144
I0
stRp936
sg146
g147
sg148
F1
sg149
Nsg30
S'MguilA'
p937
sbasg120
g849
sg123
F0.25231999999999999
sg124
g125
sg33
S'120'
p938
sg127
g1
(g128
g12
(dp939
g130
I6
sg131
g132
sg133
g134
sg135
g132
sg136
I01
sg34
g174
sg138
g134
sg139
I0
sg140
I0
sg141
I0
sg142
g134
sg35
g175
sg144
I0
stRp940
sg146
g147
sg148
F0.98999999999999999
sg149
Nsg30
S'NoName'
p941
sbasg120
g777
sg123
F0.090679999999999997
sg124
g125
sg33
S'60'
p942
sg127
g1
(g128
g12
(dp943
g130
I6
sg131
g132
sg133
g134
sg135
g132
sg136
I01
sg34
g174
sg138
g134
sg139
I0
sg140
I0
sg141
I0
sg142
g134
sg35
g175
sg144
I0
stRp944
sg146
g147
sg148
F0.98999999999999999
sg149
Nsg30
S'NoName'
p945
sbasg120
g705
sg123
F0.032190000000000003
sg124
g125
sg33
S'50'
p946
sg127
g1
(g128
g12
(dp947
g130
I6
sg131
g132
sg133
g134
sg135
g132
sg136
I01
sg34
g174
sg138
g134
sg139
I0
sg140
I0
sg141
I0
sg142
g134
sg35
g175
sg144
I0
stRp948
sg146
g147
sg148
F0.64000000000000001
sg149
Nsg30
S'NoName'
p949
sbasg120
g692
sg123
F0.12181
sg124
g125
sg33
S'57'
p950
sg127
g1
(g128
g12
(dp951
g130
I6
sg131
g132
sg133
g134
sg135
g132
sg136
I01
sg34
g174
sg138
g134
sg139
I0
sg140
I0
sg141
I0
sg142
g134
sg35
g175
sg144
I0
stRp952
sg146
g147
sg148
F0.98999999999999999
sg149
Nsg30
S'NoName'
p953
sbag1
(g2
g3
NtRp954
(dp955
g6
g1
(g7
g3
NtRp956
(dp957
g10
g1
(g11
g12
(dtRp958
sg14
g1
(g11
g12
(dtRp959
sg16
g1
(g11
g12
(dtRp960
sg18
g1
(g11
g12
(dtRp961
sg20
g1
(g11
g12
(dtRp962
sg22
g1
(g11
g12
(dtRp963
sbsg24
g25
sg26
g27
((lp964
g33
ag32
ag29
ag30
atRp965
sg37
(lp966
g1
(g2
g3
NtRp967
(dp968
g6
g1
(g7
g3
NtRp969
(dp970
g10
g1
(g11
g12
(dtRp971
sg14
g1
(g11
g12
(dtRp972
sg16
g1
(g11
g12
(dtRp973
sg18
g1
(g11
g12
(dtRp974
sg20
g1
(g11
g12
(dtRp975
sg22
g1
(g11
g12
(dtRp976
sbsg24
g25
sg26
g27
((lp977
g33
ag32
ag29
ag30
atRp978
sg37
(lp979
g1
(g2
g3
NtRp980
(dp981
g6
g1
(g7
g3
NtRp982
(dp983
g10
g1
(g11
g12
(dtRp984
sg14
g1
(g11
g12
(dtRp985
sg16
g1
(g11
g12
(dtRp986
sg18
g1
(g11
g12
(dtRp987
sg20
g1
(g11
g12
(dtRp988
sg22
g1
(g11
g12
(dtRp989
sbsg24
S'Cbl'
p990
sg26
g27
((lp991
g29
ag30
aS'sequence'
p992
ag32
ag33
aS'species'
p993
atRp994
sg37
(lp995
sg120
g967
sg121
S'RWLSTKDLYSRLELANLNQNVHAMFVMPLGMGNPMGDMFARLNNSFWLPPLSLEGPGTGWTLYAPLSHSGPSVDMAFHLTSSLLGAINFTNMRGPLYWTALLLLSLPVLAATLLDRNFNTFEGGDPLYHLFWFFGHPEVYMIPGFGSHSTYKKFGMYASIGLGFVWSHHMYVGLDDRAYFTSATMIAPTGIKFSWMATYGGRPMLAFLFLFTGGTGVLNASDAFHDTYYVVMAFSLGYYPYNLFWFMFGMPDAGWSSSYQLGPDESNE'
p996
sg123
F0.36785000000000001
sg124
g125
sg33
S'28'
p997
sg127
g1
(g128
g12
(dp998
g130
I4
sg131
g132
sg133
g134
sg135
g132
sg136
I01
sg34
g137
sg138
g134
sg139
I0
sg140
I0
sg141
I0
sg142
g134
sg35
g143
sg144
I0
stRp999
sg146
g147
sg148
F1
sg149
Nsg30
S'CblacA'
p1000
sbag1
(g2
g3
NtRp1001
(dp1002
g6
g1
(g7
g3
NtRp1003
(dp1004
g10
g1
(g11
g12
(dtRp1005
sg14
g1
(g11
g12
(dtRp1006
sg16
g1
(g11
g12
(dtRp1007
sg18
g1
(g11
g12
(dtRp1008
sg20
g1
(g11
g12
(dtRp1009
sg22
g1
(g11
g12
(dtRp1010
sbsg24
g25
sg26
g27
((lp1011
g33
ag32
ag29
ag30
atRp1012
sg37
(lp1013
g1
(g2
g3
NtRp1014
(dp1015
g6
g1
(g7
g3
NtRp1016
(dp1017
g10
g1
(g11
g12
(dtRp1018
sg14
g1
(g11
g12
(dtRp1019
sg16
g1
(g11
g12
(dtRp1020
sg18
g1
(g11
g12
(dtRp1021
sg20
g1
(g11
g12
(dtRp1022
sg22
g1
(g11
g12
(dtRp1023
sbsg24
g25
sg26
g27
((lp1024
g33
ag32
ag29
ag30
atRp1025
sg37
(lp1026
g1
(g2
g3
NtRp1027
(dp1028
g6
g1
(g7
g3
NtRp1029
(dp1030
g10
g1
(g11
g12
(dtRp1031
sg14
g1
(g11
g12
(dtRp1032
sg16
g1
(g11
g12
(dtRp1033
sg18
g1
(g11
g12
(dtRp1034
sg20
g1
(g11
g12
(dtRp1035
sg22
g1
(g11
g12
(dtRp1036
sbsg24
g25
sg26
g27
((lp1037
g33
ag32
ag29
ag30
atRp1038
sg37
(lp1039
g1
(g2
g3
NtRp1040
(dp1041
g6
g1
(g7
g3
NtRp1042
(dp1043
g10
g1
(g11
g12
(dtRp1044
sg14
g1
(g11
g12
(dtRp1045
sg16
g1
(g11
g12
(dtRp1046
sg18
g1
(g11
g12
(dtRp1047
sg20
g1
(g11
g12
(dtRp1048
sg22
g1
(g11
g12
(dtRp1049
sbsg24
g25
sg26
g27
((lp1050
g33
ag32
ag29
ag30
atRp1051
sg37
(lp1052
g1
(g2
g3
NtRp1053
(dp1054
g6
g1
(g7
g3
NtRp1055
(dp1056
g10
g1
(g11
g12
(dtRp1057
sg14
g1
(g11
g12
(dtRp1058
sg16
g1
(g11
g12
(dtRp1059
sg18
g1
(g11
g12
(dtRp1060
sg20
g1
(g11
g12
(dtRp1061
sg22
g1
(g11
g12
(dtRp1062
sbsg24
S'Lel'
p1063
sg26
g27
((lp1064
g29
ag30
aS'sequence'
p1065
ag32
ag33
aS'species'
p1066
atRp1067
sg37
(lp1068
sg120
g1040
sg121
S'RWLSTKDLYSRLELPGLDQNVHAMFVMPLGFGNPMGDMFARLNNSFWLPPLSLEGAGTGWTVYPPLSHSGPSVDLAFHLTSSLLGAINFTNMRGPLYWTALLLFSLPVLAGTLLDRNFNTFDGGDPLYHLFWFFGHPEVYIIPGFGSHSTYKKFGMYASIGLGFVWSHHMYVGLDDRAYFTSATMIAPTGIKFSWLATYGGRPMLAFLFLFTGGTGVLNASDAFHDTYYTVMAFSLGYYYYNLFWFMFGMPDAGWSSSYQLGPDESNE'
p1069
sg123
F0.18278
sg124
g125
sg33
S'13'
p1070
sg127
g1
(g128
g12
(dp1071
g130
I4
sg131
g132
sg133
g134
sg135
g132
sg136
I01
sg34
g137
sg138
g134
sg139
I0
sg140
I0
sg141
I0
sg142
g134
sg35
g143
sg144
I0
stRp1072
sg146
g147
sg148
F1
sg149
Nsg30
S'LelonA'
p1073
sbag1
(g2
g3
NtRp1074
(dp1075
g6
g1
(g7
g3
NtRp1076
(dp1077
g10
g1
(g11
g12
(dtRp1078
sg14
g1
(g11
g12
(dtRp1079
sg16
g1
(g11
g12
(dtRp1080
sg18
g1
(g11
g12
(dtRp1081
sg20
g1
(g11
g12
(dtRp1082
sg22
g1
(g11
g12
(dtRp1083
sbsg24
S'Cox'
p1084
sg26
g27
((lp1085
g29
ag30
aS'sequence'
p1086
ag32
ag33
aS'species'
p1087
atRp1088
sg37
(lp1089
sg120
g1040
sg121
S'RWLSTKDLYSRLELSGLDQNVHAMFVMPIGFGNPMGDMFARLNNSFWLPPLSLEGPGVGWTVYPPLSHSGPSVDLAFHLTSSLLGAINFTNMRGPLYWTALLLLSLPVLAGTLLDRNFNTFDGGDPLYHLFWFFGHPEVYMIPGFGSHATYKKFGMYASIGLGFVWSHHMYVGLDDRAYFTSATMIAPTGIKFSWLATYGGRPMLAFLFLFTGGTGILNASDAFHDTYYTVMAFSLGYLYYNIFWFMFGMPDAGWSSSYQLGPDESNE'
p1090
sg123
F0.17860000000000001
sg124
g125
sg33
S'2'
sg127
g1
(g128
g12
(dp1091
g130
I4
sg131
g132
sg133
g134
sg135
g132
sg136
I01
sg34
g137
sg138
g134
sg139
I0
sg140
I0
sg141
I0
sg142
g134
sg35
g143
sg144
I0
stRp1092
sg146
g147
sg148
F1
sg149
Nsg30
S'CoxycA'
p1093
sbasg120
g1027
sg123
F0.041480000000000003
sg124
g125
sg33
S'39'
p1094
sg127
g1
(g128
g12
(dp1095
g130
I6
sg131
g132
sg133
g134
sg135
g132
sg136
I01
sg34
g174
sg138
g134
sg139
I0
sg140
I0
sg141
I0
sg142
g134
sg35
g175
sg144
I0
stRp1096
sg146
g147
sg148
F0.98999999999999999
sg149
Nsg30
S'NoName'
p1097
sbag1
(g2
g3
NtRp1098
(dp1099
g6
g1
(g7
g3
NtRp1100
(dp1101
g10
g1
(g11
g12
(dtRp1102
sg14
g1
(g11
g12
(dtRp1103
sg16
g1
(g11
g12
(dtRp1104
sg18
g1
(g11
g12
(dtRp1105
sg20
g1
(g11
g12
(dtRp1106
sg22
g1
(g11
g12
(dtRp1107
sbsg24
g25
sg26
g27
((lp1108
g33
ag32
ag29
ag30
atRp1109
sg37
(lp1110
g1
(g2
g3
NtRp1111
(dp1112
g6
g1
(g7
g3
NtRp1113
(dp1114
g10
g1
(g11
g12
(dtRp1115
sg14
g1
(g11
g12
(dtRp1116
sg16
g1
(g11
g12
(dtRp1117
sg18
g1
(g11
g12
(dtRp1118
sg20
g1
(g11
g12
(dtRp1119
sg22
g1
(g11
g12
(dtRp1120
sbsg24
g25
sg26
g27
((lp1121
g33
ag32
ag29
ag30
atRp1122
sg37
(lp1123
g1
(g2
g3
NtRp1124
(dp1125
g6
g1
(g7
g3
NtRp1126
(dp1127
g10
g1
(g11
g12
(dtRp1128
sg14
g1
(g11
g12
(dtRp1129
sg16
g1
(g11
g12
(dtRp1130
sg18
g1
(g11
g12
(dtRp1131
sg20
g1
(g11
g12
(dtRp1132
sg22
g1
(g11
g12
(dtRp1133
sbsg24
g25
sg26
g27
((lp1134
g33
ag32
ag29
ag30
atRp1135
sg37
(lp1136
g1
(g2
g3
NtRp1137
(dp1138
g6
g1
(g7
g3
NtRp1139
(dp1140
g10
g1
(g11
g12
(dtRp1141
sg14
g1
(g11
g12
(dtRp1142
sg16
g1
(g11
g12
(dtRp1143
sg18
g1
(g11
g12
(dtRp1144
sg20
g1
(g11
g12
(dtRp1145
sg22
g1
(g11
g12
(dtRp1146
sbsg24
S'Cth'
p1147
sg26
g27
((lp1148
g29
ag30
aS'sequence'
p1149
ag32
ag33
aS'species'
p1150
atRp1151
sg37
(lp1152
sg120
g1124
sg121
S'RWLSTKDLYSRLELPGLNQNVHAMFVMPLGFGNPMGDMFARLNNSFWLPPLSLEGAGTGWTVYPPLSHSGPSVDLAFHLTSSLLGAINFTNMRGPLYWTALLLLSLPVLAGTLLDRNFNTFEGGDPLYHLFWFFGHPEVYIIPGFGSHSTYKKFGMYASIGLGFVWSHHMYVGLDDRAYFTSATMIAPTGIKFSWLATYGGRPMLAFLFLFTGGTGVLNASDAFHDTYYTVMAFSLGYYYYNLFWFMFGMPDAGWSSSYQLGPDESNE'
p1153
sg123
F0.010059999999999999
sg124
g125
sg33
S'6'
sg127
g1
(g128
g12
(dp1154
g130
I4
sg131
g132
sg133
g134
sg135
g132
sg136
I01
sg34
g137
sg138
g134
sg139
I0
sg140
I0
sg141
I0
sg142
g134
sg35
g143
sg144
I0
stRp1155
sg146
g147
sg148
F1
sg149
Nsg30
S'CtheaA'
p1156
sbag1
(g2
g3
NtRp1157
(dp1158
g6
g1
(g7
g3
NtRp1159
(dp1160
g10
g1
(g11
g12
(dtRp1161
sg14
g1
(g11
g12
(dtRp1162
sg16
g1
(g11
g12
(dtRp1163
sg18
g1
(g11
g12
(dtRp1164
sg20
g1
(g11
g12
(dtRp1165
sg22
g1
(g11
g12
(dtRp1166
sbsg24
g25
sg26
g27
((lp1167
g33
ag32
ag29
ag30
atRp1168
sg37
(lp1169
g1
(g2
g3
NtRp1170
(dp1171
g6
g1
(g7
g3
NtRp1172
(dp1173
g10
g1
(g11
g12
(dtRp1174
sg14
g1
(g11
g12
(dtRp1175
sg16
g1
(g11
g12
(dtRp1176
sg18
g1
(g11
g12
(dtRp1177
sg20
g1
(g11
g12
(dtRp1178
sg22
g1
(g11
g12
(dtRp1179
sbsg24
g25
sg26
g27
((lp1180
g33
ag32
ag29
ag30
atRp1181
sg37
(lp1182
g1
(g2
g3
NtRp1183
(dp1184
g6
g1
(g7
g3
NtRp1185
(dp1186
g10
g1
(g11
g12
(dtRp1187
sg14
g1
(g11
g12
(dtRp1188
sg16
g1
(g11
g12
(dtRp1189
sg18
g1
(g11
g12
(dtRp1190
sg20
g1
(g11
g12
(dtRp1191
sg22
g1
(g11
g12
(dtRp1192
sbsg24
g25
sg26
g27
((lp1193
g33
ag32
ag29
ag30
atRp1194
sg37
(lp1195
g1
(g2
g3
NtRp1196
(dp1197
g6
g1
(g7
g3
NtRp1198
(dp1199
g10
g1
(g11
g12
(dtRp1200
sg14
g1
(g11
g12
(dtRp1201
sg16
g1
(g11
g12
(dtRp1202
sg18
g1
(g11
g12
(dtRp1203
sg20
g1
(g11
g12
(dtRp1204
sg22
g1
(g11
g12
(dtRp1205
sbsg24
S'Cor'
p1206
sg26
g27
((lp1207
g29
ag30
aS'sequence'
p1208
ag32
ag33
aS'species'
p1209
atRp1210
sg37
(lp1211
sg120
g1183
sg121
S'RWLSTKDLYSRLELPGLNQNVHAMFVMPLGFGNPMGDMFARLNNSFWLPPLSLEGAGTGWTVYPPLSHSGPSVDLAFHLTSSLLGAINFTNMRGPLFWTALLLLSLPVLAGTLLDRNFNTFEGGDPLYHLFWFFGHPEVYIIPGFGSHSTYKKFGMYASIGLGFVWSHHMYVGLDDRAYFTSATMIAPTGIKFSWLATYGGRPMLAFLFLFTGGTGVLNASDAFHDTYYTVMAFSLGYYYYNLFWFMFGMPDAGWSSSYQLGPDESNE'
p1212
sg123
F0.00132
sg124
g125
sg33
S'17'
p1213
sg127
g1
(g128
g12
(dp1214
g130
I4
sg131
g132
sg133
g134
sg135
g132
sg136
I01
sg34
g137
sg138
g134
sg139
I0
sg140
I0
sg141
I0
sg142
g134
sg35
g143
sg144
I0
stRp1215
sg146
g147
sg148
F1
sg149
Nsg30
S'CorthC'
p1216
sbag1
(g2
g3
NtRp1217
(dp1218
g6
g1
(g7
g3
NtRp1219
(dp1220
g10
g1
(g11
g12
(dtRp1221
sg14
g1
(g11
g12
(dtRp1222
sg16
g1
(g11
g12
(dtRp1223
sg18
g1
(g11
g12
(dtRp1224
sg20
g1
(g11
g12
(dtRp1225
sg22
g1
(g11
g12
(dtRp1226
sbsg24
S'Cor'
p1227
sg26
g27
((lp1228
g29
ag30
aS'sequence'
p1229
ag32
ag33
aS'species'
p1230
atRp1231
sg37
(lp1232
sg120
g1183
sg121
S'RWLSTKDLYSRLELPGLNQNVHAMFVMPLGFGNPMGDMFARLNNSFWLPPLSLEGAGTGWTVYPPLSHSGPSVDLAFHLTSSLLGAINFTNMRGPLFWTALLLLSLPVLAGTLLDRNFNTFEGGDPLYHLFWFFGHPEVYIIPGFGSHSTYKKFGMYASIGLGFVWSHHMYVGLDDRAYFTSATMIAPTGIKFSWLATYGGRPMLAFLFLFTGGTGVLNASDAFHDTYYTVMAFSLGYYYYNLFWFMFGMPDAGWSSSYQLGPDESNE'
p1233
sg123
F0.00093000000000000005
sg124
g125
sg33
S'103'
p1234
sg127
g1
(g128
g12
(dp1235
g130
I4
sg131
g132
sg133
g134
sg135
g132
sg136
I01
sg34
g137
sg138
g134
sg139
I0
sg140
I0
sg141
I0
sg142
g134
sg35
g143
sg144
I0
stRp1236
sg146
g147
sg148
F1
sg149
Nsg30
S'CorthB'
p1237
sbasg120
g1170
sg123
F0.00052999999999999998
sg124
g125
sg33
S'21'
p1238
sg127
g1
(g128
g12
(dp1239
g130
I6
sg131
g132
sg133
g134
sg135
g132
sg136
I01
sg34
g174
sg138
g134
sg139
I0
sg140
I0
sg141
I0
sg142
g134
sg35
g175
sg144
I0
stRp1240
sg146
g147
sg148
F0.85999999999999999
sg149
Nsg30
S'NoName'
p1241
sbag1
(g2
g3
NtRp1242
(dp1243
g6
g1
(g7
g3
NtRp1244
(dp1245
g10
g1
(g11
g12
(dtRp1246
sg14
g1
(g11
g12
(dtRp1247
sg16
g1
(g11
g12
(dtRp1248
sg18
g1
(g11
g12
(dtRp1249
sg20
g1
(g11
g12
(dtRp1250
sg22
g1
(g11
g12
(dtRp1251
sbsg24
S'Cor'
p1252
sg26
g27
((lp1253
g29
ag30
aS'sequence'
p1254
ag32
ag33
aS'species'
p1255
atRp1256
sg37
(lp1257
sg120
g1170
sg121
S'RWLSTKDLYSRLELPGLNQNVHAMFVMPLGFGNPMGDMFARLNNSFWLPPLSLEGAGTGWTVYPPLSHSGPSVDLAFHLTSSLLGAINFTNMRGPLFWTALLLLSLPVLAGTLLDRNFNTFEGGDPLYHLFWFFGHPEVYIIPGFGSHSTYKKFGMYASIGLGFVWSHHMYVGLDDRAYFTSATMIAPTGIKFSWLATYGGRPMLAFLFLFTGGTGVLNASDAFHDTYYTVMAFSLGYYYYNLFWFMFGMPDAGWSSSYQLGPDESNE'
p1258
sg123
F0.0021099999999999999
sg124
g125
sg33
S'87'
p1259
sg127
g1
(g128
g12
(dp1260
g130
I4
sg131
g132
sg133
g134
sg135
g132
sg136
I01
sg34
g137
sg138
g134
sg139
I0
sg140
I0
sg141
I0
sg142
g134
sg35
g143
sg144
I0
stRp1261
sg146
g147
sg148
F1
sg149
Nsg30
S'CorthA'
p1262
sbasg120
g1157
sg123
F0.0031199999999999999
sg124
g125
sg33
S'83'
p1263
sg127
g1
(g128
g12
(dp1264
g130
I6
sg131
g132
sg133
g134
sg135
g132
sg136
I01
sg34
g174
sg138
g134
sg139
I0
sg140
I0
sg141
I0
sg142
g134
sg35
g175
sg144
I0
stRp1265
sg146
g147
sg148
F0.98999999999999999
sg149
Nsg30
S'NoName'
p1266
sbag1
(g2
g3
NtRp1267
(dp1268
g6
g1
(g7
g3
NtRp1269
(dp1270
g10
g1
(g11
g12
(dtRp1271
sg14
g1
(g11
g12
(dtRp1272
sg16
g1
(g11
g12
(dtRp1273
sg18
g1
(g11
g12
(dtRp1274
sg20
g1
(g11
g12
(dtRp1275
sg22
g1
(g11
g12
(dtRp1276
sbsg24
g25
sg26
g27
((lp1277
g33
ag32
ag29
ag30
atRp1278
sg37
(lp1279
g1
(g2
g3
NtRp1280
(dp1281
g6
g1
(g7
g3
NtRp1282
(dp1283
g10
g1
(g11
g12
(dtRp1284
sg14
g1
(g11
g12
(dtRp1285
sg16
g1
(g11
g12
(dtRp1286
sg18
g1
(g11
g12
(dtRp1287
sg20
g1
(g11
g12
(dtRp1288
sg22
g1
(g11
g12
(dtRp1289
sbsg24
g25
sg26
g27
((lp1290
g33
ag32
ag29
ag30
atRp1291
sg37
(lp1292
g1
(g2
g3
NtRp1293
(dp1294
g6
g1
(g7
g3
NtRp1295
(dp1296
g10
g1
(g11
g12
(dtRp1297
sg14
g1
(g11
g12
(dtRp1298
sg16
g1
(g11
g12
(dtRp1299
sg18
g1
(g11
g12
(dtRp1300
sg20
g1
(g11
g12
(dtRp1301
sg22
g1
(g11
g12
(dtRp1302
sbsg24
S'Cpa'
p1303
sg26
g27
((lp1304
g29
ag30
aS'sequence'
p1305
ag32
ag33
aS'species'
p1306
atRp1307
sg37
(lp1308
sg120
g1280
sg121
S'RWLSTKDLYSRLELPGLNQNVHAMFVMPLGFGNPMGDMFARLNNSFWLPPLSLEGAGTGWTVYPPLSHSGPSVDLAFHLTSSLLGAINFTNMRGPLFWTALLLLSLPVLAGTLLDRNFNTFEGGDPLYHLFWFFGHPEVYIIPGFGSHSTYKKFGMYASIGLGFVWSHHMYVGLDDRAYFTSATMIAPTSIKFSWLATYGGRTALAFIFLFTGGTGVLNSADPFHDSYYVVMAFSIGWLPYNLFWFMFGMNDAGWSSAYQLGPSGTNE'
p1309
sg123
F0.00012999999999999999
sg124
g125
sg33
S'102'
p1310
sg127
g1
(g128
g12
(dp1311
g130
I4
sg131
g132
sg133
g134
sg135
g132
sg136
I01
sg34
g137
sg138
g134
sg139
I0
sg140
I0
sg141
I0
sg142
g134
sg35
g143
sg144
I0
stRp1312
sg146
g147
sg148
F1
sg149
Nsg30
S'CparaD'
p1313
sbag1
(g2
g3
NtRp1314
(dp1315
g6
g1
(g7
g3
NtRp1316
(dp1317
g10
g1
(g11
g12
(dtRp1318
sg14
g1
(g11
g12
(dtRp1319
sg16
g1
(g11
g12
(dtRp1320
sg18
g1
(g11
g12
(dtRp1321
sg20
g1
(g11
g12
(dtRp1322
sg22
g1
(g11
g12
(dtRp1323
sbsg24
S'Cpa'
p1324
sg26
g27
((lp1325
g29
ag30
aS'sequence'
p1326
ag32
ag33
aS'species'
p1327
atRp1328
sg37
(lp1329
sg120
g1280
sg121
S'RWLSTKDLYSRLELPGLNQNVHAMFVMPLGFGNPMGDMFARLNNSFWLPPLSLEGAGTGWTVYPPLSHSGPSVDLAFHLTSSLLGAINFTNMRGPLFWTALLLLSLPVLAGTLLDRNFNTFEGGDPLYHLFWFFGHPEVYIIPGFGSHSTYKKFGMYASIGLGFVWSHHMYVGLDDRAYFTSATMIAPTGIKFSWLATYGGRPMLAFLFLFTGGTGVVNASDAFHDTYYVVMAFSLGYYYYNLFWFMFGMPDAGWSSSYSLGPDESNE'
p1330
sg123
F0.00012999999999999999
sg124
g125
sg33
S'99'
p1331
sg127
g1
(g128
g12
(dp1332
g130
I4
sg131
g132
sg133
g134
sg135
g132
sg136
I01
sg34
g137
sg138
g134
sg139
I0
sg140
I0
sg141
I0
sg142
g134
sg35
g143
sg144
I0
stRp1333
sg146
g147
sg148
F1
sg149
Nsg30
S'CparaB'
p1334
sbasg120
g1267
sg123
F0.00051000000000000004
sg124
g125
sg33
S'98'
p1335
sg127
g1
(g128
g12
(dp1336
g130
I6
sg131
g132
sg133
g134
sg135
g132
sg136
I01
sg34
g174
sg138
g134
sg139
I0
sg140
I0
sg141
I0
sg142
g134
sg35
g175
sg144
I0
stRp1337
sg146
g147
sg148
F0.98999999999999999
sg149
Nsg30
S'NoName'
p1338
sbag1
(g2
g3
NtRp1339
(dp1340
g6
g1
(g7
g3
NtRp1341
(dp1342
g10
g1
(g11
g12
(dtRp1343
sg14
g1
(g11
g12
(dtRp1344
sg16
g1
(g11
g12
(dtRp1345
sg18
g1
(g11
g12
(dtRp1346
sg20
g1
(g11
g12
(dtRp1347
sg22
g1
(g11
g12
(dtRp1348
sbsg24
S'Cpa'
p1349
sg26
g27
((lp1350
g29
ag30
aS'sequence'
p1351
ag32
ag33
aS'species'
p1352
atRp1353
sg37
(lp1354
sg120
g1267
sg121
S'RWLSTKDLYSRLELPGLNQNVHAMFVMPLGFGNPMGDMFARLNNSFWLPPLSLEGAGTGWTVYPPLSHSGPSVDLAFHLTSSLLGAINFTNMRGPLFWTALLLLSLPVLAGTLLDRNFNTFEGGDPLYHLFWFFGHPEVYIIPGFGSHSTYKKFGMYASIGLGFVWSHHMYVGLDDRAYFTSATMIAPTGIKFSWLATYGGRPMLAFLFLFTGGTGVVNASDAFHDTYYVVMAFSLGYYYYNLFWFMFGMPDAGWSSSYSLGPDESNE'
p1355
sg123
F0.00012
sg124
g125
sg33
S'105'
p1356
sg127
g1
(g128
g12
(dp1357
g130
I4
sg131
g132
sg133
g134
sg135
g132
sg136
I01
sg34
g137
sg138
g134
sg139
I0
sg140
I0
sg141
I0
sg142
g134
sg35
g143
sg144
I0
stRp1358
sg146
g147
sg148
F1
sg149
Nsg30
S'CparaC'
p1359
sbasg120
g1157
sg123
F1.0000000000000001e-05
sg124
g125
sg33
S'104'
p1360
sg127
g1
(g128
g12
(dp1361
g130
I6
sg131
g132
sg133
g134
sg135
g132
sg136
I01
sg34
g174
sg138
g134
sg139
I0
sg140
I0
sg141
I0
sg142
g134
sg35
g175
sg144
I0
stRp1362
sg146
g147
sg148
F1
sg149
Nsg30
S'NoName'
p1363
sbasg120
g1124
sg123
F0.0032599999999999999
sg124
g125
sg33
S'11'
p1364
sg127
g1
(g128
g12
(dp1365
g130
I6
sg131
g132
sg133
g134
sg135
g132
sg136
I01
sg34
g174
sg138
g134
sg139
I0
sg140
I0
sg141
I0
sg142
g134
sg35
g175
sg144
I0
stRp1366
sg146
g147
sg148
F0.97999999999999998
sg149
Nsg30
S'NoName'
p1367
sbasg120
g1111
sg123
F1.0000000000000001e-05
sg124
g125
sg33
S'8'
sg127
g1
(g128
g12
(dp1368
g130
I6
sg131
g132
sg133
g134
sg135
g132
sg136
I01
sg34
g174
sg138
g134
sg139
I0
sg140
I0
sg141
I0
sg142
g134
sg35
g175
sg144
I0
stRp1369
sg146
g147
sg148
F1
sg149
Nsg30
S'NoName'
p1370
sbag1
(g2
g3
NtRp1371
(dp1372
g6
g1
(g7
g3
NtRp1373
(dp1374
g10
g1
(g11
g12
(dtRp1375
sg14
g1
(g11
g12
(dtRp1376
sg16
g1
(g11
g12
(dtRp1377
sg18
g1
(g11
g12
(dtRp1378
sg20
g1
(g11
g12
(dtRp1379
sg22
g1
(g11
g12
(dtRp1380
sbsg24
g25
sg26
g27
((lp1381
g33
ag32
ag29
ag30
atRp1382
sg37
(lp1383
g1
(g2
g3
NtRp1384
(dp1385
g6
g1
(g7
g3
NtRp1386
(dp1387
g10
g1
(g11
g12
(dtRp1388
sg14
g1
(g11
g12
(dtRp1389
sg16
g1
(g11
g12
(dtRp1390
sg18
g1
(g11
g12
(dtRp1391
sg20
g1
(g11
g12
(dtRp1392
sg22
g1
(g11
g12
(dtRp1393
sbsg24
g25
sg26
g27
((lp1394
g33
ag32
ag29
ag30
atRp1395
sg37
(lp1396
g1
(g2
g3
NtRp1397
(dp1398
g6
g1
(g7
g3
NtRp1399
(dp1400
g10
g1
(g11
g12
(dtRp1401
sg14
g1
(g11
g12
(dtRp1402
sg16
g1
(g11
g12
(dtRp1403
sg18
g1
(g11
g12
(dtRp1404
sg20
g1
(g11
g12
(dtRp1405
sg22
g1
(g11
g12
(dtRp1406
sbsg24
g25
sg26
g27
((lp1407
g33
ag32
ag29
ag30
atRp1408
sg37
(lp1409
g1
(g2
g3
NtRp1410
(dp1411
g6
g1
(g7
g3
NtRp1412
(dp1413
g10
g1
(g11
g12
(dtRp1414
sg14
g1
(g11
g12
(dtRp1415
sg16
g1
(g11
g12
(dtRp1416
sg18
g1
(g11
g12
(dtRp1417
sg20
g1
(g11
g12
(dtRp1418
sg22
g1
(g11
g12
(dtRp1419
sbsg24
g25
sg26
g27
((lp1420
g33
ag32
ag29
ag30
atRp1421
sg37
(lp1422
g1
(g2
g3
NtRp1423
(dp1424
g6
g1
(g7
g3
NtRp1425
(dp1426
g10
g1
(g11
g12
(dtRp1427
sg14
g1
(g11
g12
(dtRp1428
sg16
g1
(g11
g12
(dtRp1429
sg18
g1
(g11
g12
(dtRp1430
sg20
g1
(g11
g12
(dtRp1431
sg22
g1
(g11
g12
(dtRp1432
sbsg24
g25
sg26
g27
((lp1433
g33
ag32
ag29
ag30
atRp1434
sg37
(lp1435
g1
(g2
g3
NtRp1436
(dp1437
g6
g1
(g7
g3
NtRp1438
(dp1439
g10
g1
(g11
g12
(dtRp1440
sg14
g1
(g11
g12
(dtRp1441
sg16
g1
(g11
g12
(dtRp1442
sg18
g1
(g11
g12
(dtRp1443
sg20
g1
(g11
g12
(dtRp1444
sg22
g1
(g11
g12
(dtRp1445
sbsg24
S'Cme'
p1446
sg26
g27
((lp1447
g29
ag30
aS'sequence'
p1448
ag32
ag33
aS'species'
p1449
atRp1450
sg37
(lp1451
sg120
g1423
sg121
S'RWLSTKDLYSRLELPGLNQNVHAMFVMPLGFGNPMGDMFARLNNSFWLPPLSLEGAGTGWTVYPPLSHSGPSVDLAFHLTSSLLGAINFTNMRGPLYWTALLLLSLPVLAGTLLDRNFNTFEGGDPLYHLFWFFGHPEVYIIPGFGSHSTYKKFGMYASIGLGFVWSHHMYVGLDDRAYFTSATMIAPTGIKFSWLATYGGRPMLAFLFLFTGGTGVLNASDAFHDTYYVVMAFSLGYYYYNLFWFMFGMPDAGWSSSYQLGPDESNE'
p1452
sg123
F0.00012999999999999999
sg124
g125
sg33
S'159'
p1453
sg127
g1
(g128
g12
(dp1454
g130
I4
sg131
g132
sg133
g134
sg135
g132
sg136
I01
sg34
g137
sg138
g134
sg139
I0
sg140
I0
sg141
I0
sg142
g134
sg35
g143
sg144
I0
stRp1455
sg146
g147
sg148
F1
sg149
Nsg30
S'CmetaF'
p1456
sbag1
(g2
g3
NtRp1457
(dp1458
g6
g1
(g7
g3
NtRp1459
(dp1460
g10
g1
(g11
g12
(dtRp1461
sg14
g1
(g11
g12
(dtRp1462
sg16
g1
(g11
g12
(dtRp1463
sg18
g1
(g11
g12
(dtRp1464
sg20
g1
(g11
g12
(dtRp1465
sg22
g1
(g11
g12
(dtRp1466
sbsg24
S'Cme'
p1467
sg26
g27
((lp1468
g29
ag30
aS'sequence'
p1469
ag32
ag33
aS'species'
p1470
atRp1471
sg37
(lp1472
sg120
g1423
sg121
S'RWLSTKDLYSRLELPGLNQNVHAMFVMPLGFGNPMGDMFARLNNSFWLPPLSLEGAGTGWTVYPPLSHSGPSVDLAFHLTSSLLGAINFTNMRGPLYWTALLLLSLPVLAGTLLDRNFNTFEGGDPLYHLFWFFGHPEVYIIPGFGSHSTYKKFGMYASIGLGFVWSHHMYVGLDDRAYFTSATMIAPTGIKFSWLATYGGRPMLAFLFLFTGGTGVLNASDAFHDTYYVVMAFSLGYYYYNLFWFMFGMPDAGWSSSYQLGPDESNE'
p1473
sg123
F0.00012
sg124
g125
sg33
S'41'
p1474
sg127
g1
(g128
g12
(dp1475
g130
I4
sg131
g132
sg133
g134
sg135
g132
sg136
I01
sg34
g137
sg138
g134
sg139
I0
sg140
I0
sg141
I0
sg142
g134
sg35
g143
sg144
I0
stRp1476
sg146
g147
sg148
F1
sg149
Nsg30
S'CmetaE'
p1477
sbasg120
g1410
sg123
F1.0000000000000001e-05
sg124
g125
sg33
S'201'
p1478
sg127
g1
(g128
g12
(dp1479
g130
I6
sg131
g132
sg133
g134
sg135
g132
sg136
I01
sg34
g174
sg138
g134
sg139
I0
sg140
I0
sg141
I0
sg142
g134
sg35
g175
sg144
I0
stRp1480
sg146
g147
sg148
F1
sg149
Nsg30
S'NoName'
p1481
sbag1
(g2
g3
NtRp1482
(dp1483
g6
g1
(g7
g3
NtRp1484
(dp1485
g10
g1
(g11
g12
(dtRp1486
sg14
g1
(g11
g12
(dtRp1487
sg16
g1
(g11
g12
(dtRp1488
sg18
g1
(g11
g12
(dtRp1489
sg20
g1
(g11
g12
(dtRp1490
sg22
g1
(g11
g12
(dtRp1491
sbsg24
S'Cme'
p1492
sg26
g27
((lp1493
g29
ag30
aS'sequence'
p1494
ag32
ag33
aS'species'
p1495
atRp1496
sg37
(lp1497
sg120
g1410
sg121
S'RWLSTKDLYSRLELPGLNQNVHAMFVMPLGFGNPMGDMFARLNNSFWLPPLSLEGAGTGWTVYPPLSHSGPSVDLAFHLTSSLLGAINFTNMRGPLYWTALLLLSLPVLAGTLLDRNFNTFEGGDPLYHLFWFFGHPEVYIIPGFGSHSTYKKFGMYASIGLGFVWSHHMYVGLDDRAYFTSATMIAPTGIKFSWLATYGGRPMLAFLFLFTGGTGVLNASDAFHDTYYVVMAFSLGYYYYNLFWFMFGMPDAGWSSSYQLGPDESNE'
p1498
sg123
F0.00020000000000000001
sg124
g125
sg33
S'190'
p1499
sg127
g1
(g128
g12
(dp1500
g130
I4
sg131
g132
sg133
g134
sg135
g132
sg136
I01
sg34
g137
sg138
g134
sg139
I0
sg140
I0
sg141
I0
sg142
g134
sg35
g143
sg144
I0
stRp1501
sg146
g147
sg148
F1
sg149
Nsg30
S'CmetaD'
p1502
sbasg120
g1397
sg123
F1.0000000000000001e-05
sg124
g125
sg33
S'108'
p1503
sg127
g1
(g128
g12
(dp1504
g130
I6
sg131
g132
sg133
g134
sg135
g132
sg136
I01
sg34
g174
sg138
g134
sg139
I0
sg140
I0
sg141
I0
sg142
g134
sg35
g175
sg144
I0
stRp1505
sg146
g147
sg148
F1
sg149
Nsg30
S'NoName'
p1506
sbag1
(g2
g3
NtRp1507
(dp1508
g6
g1
(g7
g3
NtRp1509
(dp1510
g10
g1
(g11
g12
(dtRp1511
sg14
g1
(g11
g12
(dtRp1512
sg16
g1
(g11
g12
(dtRp1513
sg18
g1
(g11
g12
(dtRp1514
sg20
g1
(g11
g12
(dtRp1515
sg22
g1
(g11
g12
(dtRp1516
sbsg24
S'Cme'
p1517
sg26
g27
((lp1518
g29
ag30
aS'sequence'
p1519
ag32
ag33
aS'species'
p1520
atRp1521
sg37
(lp1522
sg120
g1397
sg121
S'RWLSTKDLYSRLELPGLNQNVHAMFVMPLGFGNPMGDMFARLNNSFWLPPLSLEGAGTGWTVYPPLSHSGPSVDLAFHLTSSLLGAINFTNMRGPLYWTALLLLSLPVLAGTLLDRNFNTFEGGDPLYHLFWFFGHPEVYIIPGFGSHSTYKKFGMYASIGLGFVWSHHMYVGLDDRAYFTSATMIAPTGIKFSWLATYGGRPMLAFLFLFTGGTGVLNASDAFHDTYYVVMAFSLGYYYYNLFWFMFGMPDAGWSSSYQLGPDESNE'
p1523
sg123
F0.00052999999999999998
sg124
g125
sg33
S'68'
p1524
sg127
g1
(g128
g12
(dp1525
g130
I4
sg131
g132
sg133
g134
sg135
g132
sg136
I01
sg34
g137
sg138
g134
sg139
I0
sg140
I0
sg141
I0
sg142
g134
sg35
g143
sg144
I0
stRp1526
sg146
g147
sg148
F1
sg149
Nsg30
S'CmetaC'
p1527
sbasg120
g1384
sg123
F1.0000000000000001e-05
sg124
g125
sg33
S'110'
p1528
sg127
g1
(g128
g12
(dp1529
g130
I6
sg131
g132
sg133
g134
sg135
g132
sg136
I01
sg34
g174
sg138
g134
sg139
I0
sg140
I0
sg141
I0
sg142
g134
sg35
g175
sg144
I0
stRp1530
sg146
g147
sg148
F1
sg149
Nsg30
S'NoName'
p1531
sbag1
(g2
g3
NtRp1532
(dp1533
g6
g1
(g7
g3
NtRp1534
(dp1535
g10
g1
(g11
g12
(dtRp1536
sg14
g1
(g11
g12
(dtRp1537
sg16
g1
(g11
g12
(dtRp1538
sg18
g1
(g11
g12
(dtRp1539
sg20
g1
(g11
g12
(dtRp1540
sg22
g1
(g11
g12
(dtRp1541
sbsg24
S'Cme'
p1542
sg26
g27
((lp1543
g29
ag30
aS'sequence'
p1544
ag32
ag33
aS'species'
p1545
atRp1546
sg37
(lp1547
sg120
g1384
sg121
S'RWLSTKDLYSRLELPGLNQNVHAMFVMPLGFGNPMGDMFARLNNSFWLPPLSLEGAGTGWTVYPPLSHSGPSVDLAFHLTSSLLGAINFTNMRGPLYWTALLLLSLPVLAGTLLDRNFNTFEGGDPLYHLFWFFGHPEVYIIPGFGSHSTYKKFGMYASIGLGFVWSHHMYVGLDDRAYFTSATMIAPTGIKFSWLATYGGRPMLAFLFLFTGGTGVLNASDAFHDTYYVVMAFSLGYYYYNLFWFMFGMPDAGWSSSYQLGPDESNE'
p1548
sg123
F0.00012
sg124
g125
sg33
S'199'
p1549
sg127
g1
(g128
g12
(dp1550
g130
I4
sg131
g132
sg133
g134
sg135
g132
sg136
I01
sg34
g137
sg138
g134
sg139
I0
sg140
I0
sg141
I0
sg142
g134
sg35
g143
sg144
I0
stRp1551
sg146
g147
sg148
F1
sg149
Nsg30
S'CmetaB'
p1552
sbasg120
g1371
sg123
F1.0000000000000001e-05
sg124
g125
sg33
S'112'
p1553
sg127
g1
(g128
g12
(dp1554
g130
I6
sg131
g132
sg133
g134
sg135
g132
sg136
I01
sg34
g174
sg138
g134
sg139
I0
sg140
I0
sg141
I0
sg142
g134
sg35
g175
sg144
I0
stRp1555
sg146
g147
sg148
F1
sg149
Nsg30
S'NoName'
p1556
sbag1
(g2
g3
NtRp1557
(dp1558
g6
g1
(g7
g3
NtRp1559
(dp1560
g10
g1
(g11
g12
(dtRp1561
sg14
g1
(g11
g12
(dtRp1562
sg16
g1
(g11
g12
(dtRp1563
sg18
g1
(g11
g12
(dtRp1564
sg20
g1
(g11
g12
(dtRp1565
sg22
g1
(g11
g12
(dtRp1566
sbsg24
S'Cme'
p1567
sg26
g27
((lp1568
g29
ag30
aS'sequence'
p1569
ag32
ag33
aS'species'
p1570
atRp1571
sg37
(lp1572
sg120
g1371
sg121
S'RWLSTKDLYSRLELPGLNQNVHAMFVMPLGFGNPMGDMFARLNNSFWLPPLSLEGAGTGWTVYPPLSHSGPSVDLAFHLTSSLLGAINFTNMRGPLYWTALLLLSLPVLAGTLLDRNFNTFEGGDPLYHLFWFFGHPEVYIIPGFGSHSTYKKFGMYASIGLGFVWSHHMYVGLDDRAYFTSATMIAPTGIKFSWLATYGGRPMLAFLFLFTGGTGVLNASDAFHDTYYVVMAFSLGYYYYNLFWFMFGMPDAGWSSSYQLGPDESNE'
p1573
sg123
F0.00012999999999999999
sg124
g125
sg33
S'20'
p1574
sg127
g1
(g128
g12
(dp1575
g130
I4
sg131
g132
sg133
g134
sg135
g132
sg136
I01
sg34
g137
sg138
g134
sg139
I0
sg140
I0
sg141
I0
sg142
g134
sg35
g143
sg144
I0
stRp1576
sg146
g147
sg148
F1
sg149
Nsg30
S'CmetaA'
p1577
sbasg120
g1111
sg123
F0.020930000000000001
sg124
g125
sg33
S'100'
p1578
sg127
g1
(g128
g12
(dp1579
g130
I6
sg131
g132
sg133
g134
sg135
g132
sg136
I01
sg34
g174
sg138
g134
sg139
I0
sg140
I0
sg141
I0
sg142
g134
sg35
g175
sg144
I0
stRp1580
sg146
g147
sg148
F0.98999999999999999
sg149
Nsg30
S'NoName'
p1581
sbasg120
g1098
sg123
F0.045289999999999997
sg124
g125
sg33
S'5'
sg127
g1
(g128
g12
(dp1582
g130
I6
sg131
g132
sg133
g134
sg135
g132
sg136
I01
sg34
g174
sg138
g134
sg139
I0
sg140
I0
sg141
I0
sg142
g134
sg35
g175
sg144
I0
stRp1583
sg146
g147
sg148
F0.98999999999999999
sg149
Nsg30
S'NoName'
p1584
sbag1
(g2
g3
NtRp1585
(dp1586
g6
g1
(g7
g3
NtRp1587
(dp1588
g10
g1
(g11
g12
(dtRp1589
sg14
g1
(g11
g12
(dtRp1590
sg16
g1
(g11
g12
(dtRp1591
sg18
g1
(g11
g12
(dtRp1592
sg20
g1
(g11
g12
(dtRp1593
sg22
g1
(g11
g12
(dtRp1594
sbsg24
S'Cji'
p1595
sg26
g27
((lp1596
g29
ag30
aS'sequence'
p1597
ag32
ag33
aS'species'
p1598
atRp1599
sg37
(lp1600
sg120
g1098
sg121
S'RWLSTKDLYSRLELPGLNQNVHAMFVMPLGFGNPMGDMFARLNNSFWLPPLSLEGAGTGWTVYPPLSHSGPSVDLAFHLTSSLLGAINFTNMRGPMFWTALLLLSLPVLAGTLLDRNFNTFDGGDPLYHLFWFFGHPEVYIIPGFGSHSTYKKFGMYASIGLGFVWSHHMYVGLDDRAYFTSATMIAPTGIKFSWLATYGGRPMLAFLFLFTGGTGVLNASDAFHDTYYTVMAFSLGYYYYNLFWFMFGMPDAGWSSSYQLGPDESNE'
p1601
sg123
F0.013140000000000001
sg124
g125
sg33
S'96'
p1602
sg127
g1
(g128
g12
(dp1603
g130
I4
sg131
g132
sg133
g134
sg135
g132
sg136
I01
sg34
g137
sg138
g134
sg139
I0
sg140
I0
sg141
I0
sg142
g134
sg35
g143
sg144
I0
stRp1604
sg146
g147
sg148
F1
sg149
Nsg30
S'CjiufA'
p1605
sbasg120
g1027
sg123
F0.044909999999999999
sg124
g125
sg33
S'38'
p1606
sg127
g1
(g128
g12
(dp1607
g130
I6
sg131
g132
sg133
g134
sg135
g132
sg136
I01
sg34
g174
sg138
g134
sg139
I0
sg140
I0
sg141
I0
sg142
g134
sg35
g175
sg144
I0
stRp1608
sg146
g147
sg148
F0.98999999999999999
sg149
Nsg30
S'NoName'
p1609
sbasg120
g1014
sg123
F0.082199999999999995
sg124
g125
sg33
S'42'
p1610
sg127
g1
(g128
g12
(dp1611
g130
I6
sg131
g132
sg133
g134
sg135
g132
sg136
I01
sg34
g174
sg138
g134
sg139
I0
sg140
I0
sg141
I0
sg142
g134
sg35
g175
sg144
I0
stRp1612
sg146
g147
sg148
F0.98999999999999999
sg149
Nsg30
S'NoName'
p1613
sbag1
(g2
g3
NtRp1614
(dp1615
g6
g1
(g7
g3
NtRp1616
(dp1617
g10
g1
(g11
g12
(dtRp1618
sg14
g1
(g11
g12
(dtRp1619
sg16
g1
(g11
g12
(dtRp1620
sg18
g1
(g11
g12
(dtRp1621
sg20
g1
(g11
g12
(dtRp1622
sg22
g1
(g11
g12
(dtRp1623
sbsg24
g25
sg26
g27
((lp1624
g33
ag32
ag29
ag30
atRp1625
sg37
(lp1626
g1
(g2
g3
NtRp1627
(dp1628
g6
g1
(g7
g3
NtRp1629
(dp1630
g10
g1
(g11
g12
(dtRp1631
sg14
g1
(g11
g12
(dtRp1632
sg16
g1
(g11
g12
(dtRp1633
sg18
g1
(g11
g12
(dtRp1634
sg20
g1
(g11
g12
(dtRp1635
sg22
g1
(g11
g12
(dtRp1636
sbsg24
g25
sg26
g27
((lp1637
g33
ag32
ag29
ag30
atRp1638
sg37
(lp1639
g1
(g2
g3
NtRp1640
(dp1641
g6
g1
(g7
g3
NtRp1642
(dp1643
g10
g1
(g11
g12
(dtRp1644
sg14
g1
(g11
g12
(dtRp1645
sg16
g1
(g11
g12
(dtRp1646
sg18
g1
(g11
g12
(dtRp1647
sg20
g1
(g11
g12
(dtRp1648
sg22
g1
(g11
g12
(dtRp1649
sbsg24
S'Cco'
p1650
sg26
g27
((lp1651
g29
ag30
aS'sequence'
p1652
ag32
ag33
aS'species'
p1653
atRp1654
sg37
(lp1655
sg120
g1627
sg121
S'RWLSTKDLYSRMELPGLNQNVHAMFVMPLGFGNPMGDMFARLNNSFWLPPLSLEGAGTGWTLYAPLSHSGPSVDLAFHLTSSLLGAINFTNMRGPLFWTALLLLSLPVLAATLLDRNFNTFEGGDPLYHLFFVLMHPEVYIIPGFGSHSTYKKFGMYASMGLGFVWSHHMYVGLDDRAYFTSATMIAPTGIKFSWLATYGGRPMLAFLFLFTGGTGVLNASDAFHDTYYIKMAFSLGYYYYNMFWFMFGMPDAGWSSSYQLGPDESNE'
p1656
sg123
F0.057970000000000001
sg124
g125
sg33
S'46'
p1657
sg127
g1
(g128
g12
(dp1658
g130
I4
sg131
g132
sg133
g134
sg135
g132
sg136
I01
sg34
g137
sg138
g134
sg139
I0
sg140
I0
sg141
I0
sg142
g134
sg35
g143
sg144
I0
stRp1659
sg146
g147
sg148
F1
sg149
Nsg30
S'CcoryA'
p1660
sbag1
(g2
g3
NtRp1661
(dp1662
g6
g1
(g7
g3
NtRp1663
(dp1664
g10
g1
(g11
g12
(dtRp1665
sg14
g1
(g11
g12
(dtRp1666
sg16
g1
(g11
g12
(dtRp1667
sg18
g1
(g11
g12
(dtRp1668
sg20
g1
(g11
g12
(dtRp1669
sg22
g1
(g11
g12
(dtRp1670
sbsg24
S'Cch'
p1671
sg26
g27
((lp1672
g29
ag30
aS'sequence'
p1673
ag32
ag33
aS'species'
p1674
atRp1675
sg37
(lp1676
sg120
g1627
sg121
S'RWLSTKDLYSRMELPSLNQNVHAMFVMPLGFGNPMGDMFARLNNSFWLPPLSLEGAGTGWTLYAPLSHSGPSVDLAFHLTSSLLGAINFTNMRGPLFWTALLLLSLPVLAATLLDRNFNTFEGGDPLYHLFWFYMYKDYYIIPGFGSHSTYKKFGMYASIGLGFVWSHHMFVGLDDRAYFTSATMIAPTGIKFSWLATYGGRPMLAFLFLFTGGTGVLNASDAFHDTYYVVMAFSLGYYYYNLFWFMFGMPDAGWSSSYQLGPDESNE'
p1677
sg123
F0.052440000000000001
sg124
g125
sg33
S'47'
p1678
sg127
g1
(g128
g12
(dp1679
g130
I4
sg131
g132
sg133
g134
sg135
g132
sg136
I01
sg34
g137
sg138
g134
sg139
I0
sg140
I0
sg141
I0
sg142
g134
sg35
g143
sg144
I0
stRp1680
sg146
g147
sg148
F1
sg149
Nsg30
S'CchauA'
p1681
sbasg120
g1614
sg123
F0.16861999999999999
sg124
g125
sg33
S'74'
p1682
sg127
g1
(g128
g12
(dp1683
g130
I6
sg131
g132
sg133
g134
sg135
g132
sg136
I01
sg34
g174
sg138
g134
sg139
I0
sg140
I0
sg141
I0
sg142
g134
sg35
g175
sg144
I0
stRp1684
sg146
g147
sg148
F0.98999999999999999
sg149
Nsg30
S'NoName'
p1685
sbag1
(g2
g3
NtRp1686
(dp1687
g6
g1
(g7
g3
NtRp1688
(dp1689
g10
g1
(g11
g12
(dtRp1690
sg14
g1
(g11
g12
(dtRp1691
sg16
g1
(g11
g12
(dtRp1692
sg18
g1
(g11
g12
(dtRp1693
sg20
g1
(g11
g12
(dtRp1694
sg22
g1
(g11
g12
(dtRp1695
sbsg24
S'Cbo'
p1696
sg26
g27
((lp1697
g29
ag30
aS'sequence'
p1698
ag32
ag33
aS'species'
p1699
atRp1700
sg37
(lp1701
sg120
g1614
sg121
S'RWLSTKDLYSRMELPGLNQNVHAMFVMPLGFGNPMGDMFARLNNSFWLPPLSLEGAGTGWTVYPPLSHSGPSVDLAFHLTSSLLGAINFTNMRGPLFWTALLLLSLPVLAATLLDRNFNTFEGGDPLYHLFWFFGHPEVYIIPGFGSHSTYKKFGMYASIGLGFVWSHHMYVGLDDRAYFTSATMIAPTGIKFSWLATYGGRPMLAFLFLFTGGTGVLNASDAFHDTYYVVMAFSLAYYYYNLFWFMFGMPDAGWSSSYQLGPDESNE'
p1702
sg123
F0.20199
sg124
g125
sg33
S'66'
p1703
sg127
g1
(g128
g12
(dp1704
g130
I4
sg131
g132
sg133
g134
sg135
g132
sg136
I01
sg34
g137
sg138
g134
sg139
I0
sg140
I0
sg141
I0
sg142
g134
sg35
g143
sg144
I0
stRp1705
sg146
g147
sg148
F1
sg149
Nsg30
S'CbohiA'
p1706
sbasg120
g1014
sg123
F0.14915999999999999
sg124
g125
sg33
S'114'
p1707
sg127
g1
(g128
g12
(dp1708
g130
I6
sg131
g132
sg133
g134
sg135
g132
sg136
I01
sg34
g174
sg138
g134
sg139
I0
sg140
I0
sg141
I0
sg142
g134
sg35
g175
sg144
I0
stRp1709
sg146
g147
sg148
F0.98999999999999999
sg149
Nsg30
S'NoName'
p1710
sbasg120
g1001
sg123
F0.036799999999999999
sg124
g125
sg33
S'36'
p1711
sg127
g1
(g128
g12
(dp1712
g130
I6
sg131
g132
sg133
g134
sg135
g132
sg136
I01
sg34
g174
sg138
g134
sg139
I0
sg140
I0
sg141
I0
sg142
g134
sg35
g175
sg144
I0
stRp1713
sg146
g147
sg148
F0.98999999999999999
sg149
Nsg30
S'NoName'
p1714
sbag1
(g2
g3
NtRp1715
(dp1716
g6
g1
(g7
g3
NtRp1717
(dp1718
g10
g1
(g11
g12
(dtRp1719
sg14
g1
(g11
g12
(dtRp1720
sg16
g1
(g11
g12
(dtRp1721
sg18
g1
(g11
g12
(dtRp1722
sg20
g1
(g11
g12
(dtRp1723
sg22
g1
(g11
g12
(dtRp1724
sbsg24
g25
sg26
g27
((lp1725
g33
ag32
ag29
ag30
atRp1726
sg37
(lp1727
g1
(g2
g3
NtRp1728
(dp1729
g6
g1
(g7
g3
NtRp1730
(dp1731
g10
g1
(g11
g12
(dtRp1732
sg14
g1
(g11
g12
(dtRp1733
sg16
g1
(g11
g12
(dtRp1734
sg18
g1
(g11
g12
(dtRp1735
sg20
g1
(g11
g12
(dtRp1736
sg22
g1
(g11
g12
(dtRp1737
sbsg24
g25
sg26
g27
((lp1738
g33
ag32
ag29
ag30
atRp1739
sg37
(lp1740
g1
(g2
g3
NtRp1741
(dp1742
g6
g1
(g7
g3
NtRp1743
(dp1744
g10
g1
(g11
g12
(dtRp1745
sg14
g1
(g11
g12
(dtRp1746
sg16
g1
(g11
g12
(dtRp1747
sg18
g1
(g11
g12
(dtRp1748
sg20
g1
(g11
g12
(dtRp1749
sg22
g1
(g11
g12
(dtRp1750
sbsg24
S'Cma'
p1751
sg26
g27
((lp1752
g29
ag30
aS'sequence'
p1753
ag32
ag33
aS'species'
p1754
atRp1755
sg37
(lp1756
sg120
g1728
sg121
S'RWLSTKDLYSRLELPGLSQNVHAMFVMPLGFGNPLGDMFARLNNSFWLPPLSLEGAGTGWTVYPPLSHSGPSVDLAFHLTSSLLGAINFTNMRGPLYWTALLLLSLPVLAGTLLDRNFNTFEGGDPLYHLFWFFGHPEVYMIPGFGSHSTYKKFGMYASMGLGFVWSHHMYVGLDDRAYFTSATMIAPTGIKFSWLATYGGRPMLAFLFLFTGGTGVLNASDAFHDTYYVVMAFSLGYYSYNLYWFMFGMPDAGWSSSYQLGPDESNE'
p1757
sg123
F0.24277000000000001
sg124
g125
sg33
S'101'
p1758
sg127
g1
(g128
g12
(dp1759
g130
I4
sg131
g132
sg133
g134
sg135
g132
sg136
I01
sg34
g137
sg138
g134
sg139
I0
sg140
I0
sg141
I0
sg142
g134
sg35
g143
sg144
I0
stRp1760
sg146
g147
sg148
F1
sg149
Nsg30
S'CmaltA'
p1761
sbag1
(g2
g3
NtRp1762
(dp1763
g6
g1
(g7
g3
NtRp1764
(dp1765
g10
g1
(g11
g12
(dtRp1766
sg14
g1
(g11
g12
(dtRp1767
sg16
g1
(g11
g12
(dtRp1768
sg18
g1
(g11
g12
(dtRp1769
sg20
g1
(g11
g12
(dtRp1770
sg22
g1
(g11
g12
(dtRp1771
sbsg24
g25
sg26
g27
((lp1772
g33
ag32
ag29
ag30
atRp1773
sg37
(lp1774
g1
(g2
g3
NtRp1775
(dp1776
g6
g1
(g7
g3
NtRp1777
(dp1778
g10
g1
(g11
g12
(dtRp1779
sg14
g1
(g11
g12
(dtRp1780
sg16
g1
(g11
g12
(dtRp1781
sg18
g1
(g11
g12
(dtRp1782
sg20
g1
(g11
g12
(dtRp1783
sg22
g1
(g11
g12
(dtRp1784
sbsg24
g25
sg26
g27
((lp1785
g33
ag32
ag29
ag30
atRp1786
sg37
(lp1787
g1
(g2
g3
NtRp1788
(dp1789
g6
g1
(g7
g3
NtRp1790
(dp1791
g10
g1
(g11
g12
(dtRp1792
sg14
g1
(g11
g12
(dtRp1793
sg16
g1
(g11
g12
(dtRp1794
sg18
g1
(g11
g12
(dtRp1795
sg20
g1
(g11
g12
(dtRp1796
sg22
g1
(g11
g12
(dtRp1797
sbsg24
g25
sg26
g27
((lp1798
g33
ag32
ag29
ag30
atRp1799
sg37
(lp1800
g1
(g2
g3
NtRp1801
(dp1802
g6
g1
(g7
g3
NtRp1803
(dp1804
g10
g1
(g11
g12
(dtRp1805
sg14
g1
(g11
g12
(dtRp1806
sg16
g1
(g11
g12
(dtRp1807
sg18
g1
(g11
g12
(dtRp1808
sg20
g1
(g11
g12
(dtRp1809
sg22
g1
(g11
g12
(dtRp1810
sbsg24
g25
sg26
g27
((lp1811
g33
ag32
ag29
ag30
atRp1812
sg37
(lp1813
g1
(g2
g3
NtRp1814
(dp1815
g6
g1
(g7
g3
NtRp1816
(dp1817
g10
g1
(g11
g12
(dtRp1818
sg14
g1
(g11
g12
(dtRp1819
sg16
g1
(g11
g12
(dtRp1820
sg18
g1
(g11
g12
(dtRp1821
sg20
g1
(g11
g12
(dtRp1822
sg22
g1
(g11
g12
(dtRp1823
sbsg24
S'Ctr'
p1824
sg26
g27
((lp1825
g29
ag30
aS'sequence'
p1826
ag32
ag33
aS'species'
p1827
atRp1828
sg37
(lp1829
sg120
g1801
sg121
S'RWLSTKDLYSRLELPGLNQNVHAMFVMPLGFGNPMGDMFARLNNSFWLPPLSLEGAGTGWTVYPPLSHSGPSVDLAFHLTSSLLGAINFTNMRGPLFWTALLLLSLPVLAGTLLDRNFNTFEGGDPLYHLFWFFGHPEVYIIPGFGSHSTYKKFGMYASIGLGFVWSHHMYVGLDDRAYFTSATMIAPTGIKFSWLATYGGRPMLAFLFLFTGGTGVLNASDAFHDSYYVVMAFSLGYYPYNLYWFMFGMPDAGWSSSYQLGPDEANE'
p1830
sg123
F0.00064000000000000005
sg124
g125
sg33
S'119'
p1831
sg127
g1
(g128
g12
(dp1832
g130
I4
sg131
g132
sg133
g134
sg135
g132
sg136
I01
sg34
g137
sg138
g134
sg139
I0
sg140
I0
sg141
I0
sg142
g134
sg35
g143
sg144
I0
stRp1833
sg146
g147
sg148
F1
sg149
Nsg30
S'CtropB'
p1834
sbag1
(g2
g3
NtRp1835
(dp1836
g6
g1
(g7
g3
NtRp1837
(dp1838
g10
g1
(g11
g12
(dtRp1839
sg14
g1
(g11
g12
(dtRp1840
sg16
g1
(g11
g12
(dtRp1841
sg18
g1
(g11
g12
(dtRp1842
sg20
g1
(g11
g12
(dtRp1843
sg22
g1
(g11
g12
(dtRp1844
sbsg24
S'Ctr'
p1845
sg26
g27
((lp1846
g29
ag30
aS'sequence'
p1847
ag32
ag33
aS'species'
p1848
atRp1849
sg37
(lp1850
sg120
g1801
sg121
S'RWLSTKDLYSRLELPGLNQNVHAMFVMPLGFGNPMGDMFARLNNSFWLPPLSLEGAGTGWTVYPPLSHSGPSVDLAFHLTSSLLGAINFTNMRGPLFWTALLLLSLPVLAGTLLDRNFNTFEGGDPLYHLFWFFGHPEVYIIPGFGSHSTYKKFGMYASIGLGFVWSHHMYVGLDDRAYFTSATMIAPTGIKFSWLATYGGRPMLAFLFLFTGGTGVLNASDAFHDSYYVVMAFSLGYYPYNLYWFMFGMPDAGWSSSYQLGPDEANE'
p1851
sg123
F0.00040000000000000002
sg124
g125
sg33
S'26'
p1852
sg127
g1
(g128
g12
(dp1853
g130
I4
sg131
g132
sg133
g134
sg135
g132
sg136
I01
sg34
g137
sg138
g134
sg139
I0
sg140
I0
sg141
I0
sg142
g134
sg35
g143
sg144
I0
stRp1854
sg146
g147
sg148
F1
sg149
Nsg30
S'CtropA'
p1855
sbasg120
g1788
sg123
F0.032030000000000003
sg124
g125
sg33
S'113'
p1856
sg127
g1
(g128
g12
(dp1857
g130
I6
sg131
g132
sg133
g134
sg135
g132
sg136
I01
sg34
g174
sg138
g134
sg139
I0
sg140
I0
sg141
I0
sg142
g134
sg35
g175
sg144
I0
stRp1858
sg146
g147
sg148
F0.98999999999999999
sg149
Nsg30
S'NoName'
p1859
sbag1
(g2
g3
NtRp1860
(dp1861
g6
g1
(g7
g3
NtRp1862
(dp1863
g10
g1
(g11
g12
(dtRp1864
sg14
g1
(g11
g12
(dtRp1865
sg16
g1
(g11
g12
(dtRp1866
sg18
g1
(g11
g12
(dtRp1867
sg20
g1
(g11
g12
(dtRp1868
sg22
g1
(g11
g12
(dtRp1869
sbsg24
S'Cso'
p1870
sg26
g27
((lp1871
g29
ag30
aS'sequence'
p1872
ag32
ag33
aS'species'
p1873
atRp1874
sg37
(lp1875
sg120
g1788
sg121
S'RWLSTKDLYSRLELPGLNQNVHAMFVMPLGFGNPMGDMFARLNNSFWLPPLSLEGAGTGWTVYPPLSHSGPSVDLAFHLTSSLLGAMNFTNMRGPLFWTALLLLSLPVLAGTLLDRNFNTFEGGDPLYHLFWFFGHPEVYIIPGFGSHSTYKKFGMYASIGLGFVWSHHMYVGLDDRAYFTSATMIAPTGIKFSWLATYGGRPMLAFLFLFTGGTGVLNASDAFHDTYYVVMAFSLGYYPYNLYWFMFGMPDAGWSSSYQLGPDEANE'
p1876
sg123
F0.033649999999999999
sg124
g125
sg33
S'48'
p1877
sg127
g1
(g128
g12
(dp1878
g130
I4
sg131
g132
sg133
g134
sg135
g132
sg136
I01
sg34
g137
sg138
g134
sg139
I0
sg140
I0
sg141
I0
sg142
g134
sg35
g143
sg144
I0
stRp1879
sg146
g147
sg148
F1
sg149
Nsg30
S'CsojaA'
p1880
sbasg120
g1775
sg123
F0.019990000000000001
sg124
g125
sg33
S'123'
p1881
sg127
g1
(g128
g12
(dp1882
g130
I6
sg131
g132
sg133
g134
sg135
g132
sg136
I01
sg34
g174
sg138
g134
sg139
I0
sg140
I0
sg141
I0
sg142
g134
sg35
g175
sg144
I0
stRp1883
sg146
g147
sg148
F0.98999999999999999
sg149
Nsg30
S'NoName'
p1884
sbag1
(g2
g3
NtRp1885
(dp1886
g6
g1
(g7
g3
NtRp1887
(dp1888
g10
g1
(g11
g12
(dtRp1889
sg14
g1
(g11
g12
(dtRp1890
sg16
g1
(g11
g12
(dtRp1891
sg18
g1
(g11
g12
(dtRp1892
sg20
g1
(g11
g12
(dtRp1893
sg22
g1
(g11
g12
(dtRp1894
sbsg24
g25
sg26
g27
((lp1895
g33
ag32
ag29
ag30
atRp1896
sg37
(lp1897
g1
(g2
g3
NtRp1898
(dp1899
g6
g1
(g7
g3
NtRp1900
(dp1901
g10
g1
(g11
g12
(dtRp1902
sg14
g1
(g11
g12
(dtRp1903
sg16
g1
(g11
g12
(dtRp1904
sg18
g1
(g11
g12
(dtRp1905
sg20
g1
(g11
g12
(dtRp1906
sg22
g1
(g11
g12
(dtRp1907
sbsg24
S'Cte'
p1908
sg26
g27
((lp1909
g29
ag30
aS'sequence'
p1910
ag32
ag33
aS'species'
p1911
atRp1912
sg37
(lp1913
sg120
g1885
sg121
S'RWLSTKDLYSRLELPGLNQNVHAMFVMPLGFGNPMGDMFARLNNSFWLPPLSLEGAGTGWTVYPPLSHSGPSVDMAFHLTSSLLGAINFTNMRGPLFWTALLLLSLPVLAGTLLDRNFNTFEGGDPLYHLFWFFGHPEVYIIPGFGSHSTYKKFGMYASIGLGFVWSHHMFVGLDDRAYFTSATMMAPTGIKFSWLATYGGRPMLAFLFLFTGGTGVLNASDSMHDTYYVVMAFSLGYYPYNLYWFMFGMPDAGWSSSLQLGPDESNE'
p1914
sg123
F0.084209999999999993
sg124
g125
sg33
S'37'
p1915
sg127
g1
(g128
g12
(dp1916
g130
I4
sg131
g132
sg133
g134
sg135
g132
sg136
I01
sg34
g137
sg138
g134
sg139
I0
sg140
I0
sg141
I0
sg142
g134
sg35
g143
sg144
I0
stRp1917
sg146
g147
sg148
F1
sg149
Nsg30
S'CtetrA'
p1918
sbag1
(g2
g3
NtRp1919
(dp1920
g6
g1
(g7
g3
NtRp1921
(dp1922
g10
g1
(g11
g12
(dtRp1923
sg14
g1
(g11
g12
(dtRp1924
sg16
g1
(g11
g12
(dtRp1925
sg18
g1
(g11
g12
(dtRp1926
sg20
g1
(g11
g12
(dtRp1927
sg22
g1
(g11
g12
(dtRp1928
sbsg24
g25
sg26
g27
((lp1929
g33
ag32
ag29
ag30
atRp1930
sg37
(lp1931
g1
(g2
g3
NtRp1932
(dp1933
g6
g1
(g7
g3
NtRp1934
(dp1935
g10
g1
(g11
g12
(dtRp1936
sg14
g1
(g11
g12
(dtRp1937
sg16
g1
(g11
g12
(dtRp1938
sg18
g1
(g11
g12
(dtRp1939
sg20
g1
(g11
g12
(dtRp1940
sg22
g1
(g11
g12
(dtRp1941
sbsg24
g25
sg26
g27
((lp1942
g33
ag32
ag29
ag30
atRp1943
sg37
(lp1944
g1
(g2
g3
NtRp1945
(dp1946
g6
g1
(g7
g3
NtRp1947
(dp1948
g10
g1
(g11
g12
(dtRp1949
sg14
g1
(g11
g12
(dtRp1950
sg16
g1
(g11
g12
(dtRp1951
sg18
g1
(g11
g12
(dtRp1952
sg20
g1
(g11
g12
(dtRp1953
sg22
g1
(g11
g12
(dtRp1954
sbsg24
S'Cvi'
p1955
sg26
g27
((lp1956
g29
ag30
aS'sequence'
p1957
ag32
ag33
aS'species'
p1958
atRp1959
sg37
(lp1960
sg120
g1932
sg121
S'RWFSTKDLYSRLELPGLNQNVHAMFVMPLGFGNPMGDMFARLNNSFWLPPLSLEGAGTGWTVYPPLSHSGPSVDLAFHLTSSLLGAINFTNMRGPLFWTALLLLSLPVLAGTLLDRNFNTFDGGDPLYHLFWFFGHPEVYMIPGFGSHSTYKKFGMYASIGLGFVWSHHMYVGLDDRAYFTSATMIAPTGIKFSWLSTYGGRPTLAFLFLFTGGTGVLNASDSMHDTYYVVMAFSLGYYPYNLYWFMFGMPDSGWSSSFQLGPDESNE'
p1961
sg123
F0.03977
sg124
g125
sg33
S'122'
p1962
sg127
g1
(g128
g12
(dp1963
g130
I4
sg131
g132
sg133
g134
sg135
g132
sg136
I01
sg34
g137
sg138
g134
sg139
I0
sg140
I0
sg141
I0
sg142
g134
sg35
g143
sg144
I0
stRp1964
sg146
g147
sg148
F1
sg149
Nsg30
S'CviswA'
p1965
sbag1
(g2
g3
NtRp1966
(dp1967
g6
g1
(g7
g3
NtRp1968
(dp1969
g10
g1
(g11
g12
(dtRp1970
sg14
g1
(g11
g12
(dtRp1971
sg16
g1
(g11
g12
(dtRp1972
sg18
g1
(g11
g12
(dtRp1973
sg20
g1
(g11
g12
(dtRp1974
sg22
g1
(g11
g12
(dtRp1975
sbsg24
S'Csa'
p1976
sg26
g27
((lp1977
g29
ag30
aS'sequence'
p1978
ag32
ag33
aS'species'
p1979
atRp1980
sg37
(lp1981
sg120
g1932
sg121
S'RWFSTKDLYSRLELPGLNQNVHAMFVMPLGFGNPMGDMFARLNNSFWLPPLSLEGAGTGWTVYPPLSHSGPSVDLAFHLTSSLLGAINFTNMRGVLFWTALLLLSLPVLAGTLLDRNFNTFDGGDPLYHLFWFFGHPEVYIIPGFGSHSTFKKFGMYASIGLGFVWSHHMYVGLDDRAYFTSATMIAPTGIKFSWIATYGGRPTLAFLFLFTGGTGVLNASDSMHDTYYVVMAFSLGYYPYNLYWFMFGMPDSGWSSSYQLGPDEGNE'
p1982
sg123
F0.065189999999999998
sg124
g125
sg33
S'95'
p1983
sg127
g1
(g128
g12
(dp1984
g130
I4
sg131
g132
sg133
g134
sg135
g132
sg136
I01
sg34
g137
sg138
g134
sg139
I0
sg140
I0
sg141
I0
sg142
g134
sg35
g143
sg144
I0
stRp1985
sg146
g147
sg148
F1
sg149
Nsg30
S'CsaraA'
p1986
sbasg120
g1919
sg123
F0.029960000000000001
sg124
g125
sg33
S'204'
p1987
sg127
g1
(g128
g12
(dp1988
g130
I6
sg131
g132
sg133
g134
sg135
g132
sg136
I01
sg34
g174
sg138
g134
sg139
I0
sg140
I0
sg141
I0
sg142
g134
sg35
g175
sg144
I0
stRp1989
sg146
g147
sg148
F0.98999999999999999
sg149
Nsg30
S'NoName'
p1990
sbag1
(g2
g3
NtRp1991
(dp1992
g6
g1
(g7
g3
NtRp1993
(dp1994
g10
g1
(g11
g12
(dtRp1995
sg14
g1
(g11
g12
(dtRp1996
sg16
g1
(g11
g12
(dtRp1997
sg18
g1
(g11
g12
(dtRp1998
sg20
g1
(g11
g12
(dtRp1999
sg22
g1
(g11
g12
(dtRp2000
sbsg24
S'Cpr'
p2001
sg26
g27
((lp2002
g29
ag30
aS'sequence'
p2003
ag32
ag33
aS'species'
p2004
atRp2005
sg37
(lp2006
sg120
g1919
sg121
S'RWFSTKDEYSRLELPGLNQNVHAMFVMPLGFGNPMGDMFARLNNSFWLPPLSLEGAGTGWTVYPPLSHSGPSVDLAFHLTSSLLGAINFTNMRGPLFWTALLLLSLPVLTGTLLDRNFNTFDGGDPLYHLFWFFGHPEVYMIPGFGSHSTYKKFGMYASMGLGFVWSHHMFVGLDDRAYFTSATMMAPTGIKFSWLATYGGRPMLAFLFLFTGGTGVLNASDSMHDTYYVVMAFSLGYYPYNLYWFMFGMPDSGWSSSVQLGPDENNE'
p2007
sg123
F0.17724999999999999
sg124
g125
sg33
S'53'
p2008
sg127
g1
(g128
g12
(dp2009
g130
I4
sg131
g132
sg133
g134
sg135
g132
sg136
I01
sg34
g137
sg138
g134
sg139
I0
sg140
I0
sg141
I0
sg142
g134
sg35
g143
sg144
I0
stRp2010
sg146
g147
sg148
F1
sg149
Nsg30
S'CpracA'
p2011
sbasg120
g1885
sg123
F0.02281
sg124
g125
sg33
S'59'
p2012
sg127
g1
(g128
g12
(dp2013
g130
I6
sg131
g132
sg133
g134
sg135
g132
sg136
I01
sg34
g174
sg138
g134
sg139
I0
sg140
I0
sg141
I0
sg142
g134
sg35
g175
sg144
I0
stRp2014
sg146
g147
sg148
F0.98999999999999999
sg149
Nsg30
S'NoName'
p2015
sbasg120
g1775
sg123
F0.01154
sg124
g125
sg33
S'70'
p2016
sg127
g1
(g128
g12
(dp2017
g130
I6
sg131
g132
sg133
g134
sg135
g132
sg136
I01
sg34
g174
sg138
g134
sg139
I0
sg140
I0
sg141
I0
sg142
g134
sg35
g175
sg144
I0
stRp2018
sg146
g147
sg148
F0.98999999999999999
sg149
Nsg30
S'NoName'
p2019
sbasg120
g1762
sg123
F0.02138
sg124
g125
sg33
S'133'
p2020
sg127
g1
(g128
g12
(dp2021
g130
I6
sg131
g132
sg133
g134
sg135
g132
sg136
I01
sg34
g174
sg138
g134
sg139
I0
sg140
I0
sg141
I0
sg142
g134
sg35
g175
sg144
I0
stRp2022
sg146
g147
sg148
F0.98999999999999999
sg149
Nsg30
S'NoName'
p2023
sbag1
(g2
g3
NtRp2024
(dp2025
g6
g1
(g7
g3
NtRp2026
(dp2027
g10
g1
(g11
g12
(dtRp2028
sg14
g1
(g11
g12
(dtRp2029
sg16
g1
(g11
g12
(dtRp2030
sg18
g1
(g11
g12
(dtRp2031
sg20
g1
(g11
g12
(dtRp2032
sg22
g1
(g11
g12
(dtRp2033
sbsg24
g25
sg26
g27
((lp2034
g33
ag32
ag29
ag30
atRp2035
sg37
(lp2036
g1
(g2
g3
NtRp2037
(dp2038
g6
g1
(g7
g3
NtRp2039
(dp2040
g10
g1
(g11
g12
(dtRp2041
sg14
g1
(g11
g12
(dtRp2042
sg16
g1
(g11
g12
(dtRp2043
sg18
g1
(g11
g12
(dtRp2044
sg20
g1
(g11
g12
(dtRp2045
sg22
g1
(g11
g12
(dtRp2046
sbsg24
S'Cne'
p2047
sg26
g27
((lp2048
g29
ag30
aS'sequence'
p2049
ag32
ag33
aS'species'
p2050
atRp2051
sg37
(lp2052
sg120
g2024
sg121
S'RWLSTKDLYSRLELPGLNQNVHAMFVMPLGFGNPMGDMFARLNNSFWLPPLSLEGAGTGWTVYPPLSHSGPSVDLAFHLTSSLLGAINFTNMRGPLFWTALLLLSLPVLAGTLLDRNFNTFDGGDPLYHLFWFFGHPEVYIIPGFGSHSTYKKFGMYASIGLGFVWSHHMYVGLDDRAYFTSATMIAPTGIKFSWLATYGGRPMLAFLFLFTGGTGVLNASDAFHDTYYVVMAFSLGYYPYNLYWFMFGMPDSGWSSSYQLGPDESNE'
p2053
sg123
F0.04879
sg124
g125
sg33
S'51'
p2054
sg127
g1
(g128
g12
(dp2055
g130
I4
sg131
g132
sg133
g134
sg135
g132
sg136
I01
sg34
g137
sg138
g134
sg139
I0
sg140
I0
sg141
I0
sg142
g134
sg35
g143
sg144
I0
stRp2056
sg146
g147
sg148
F1
sg149
Nsg30
S'CneerA'
p2057
sbag1
(g2
g3
NtRp2058
(dp2059
g6
g1
(g7
g3
NtRp2060
(dp2061
g10
g1
(g11
g12
(dtRp2062
sg14
g1
(g11
g12
(dtRp2063
sg16
g1
(g11
g12
(dtRp2064
sg18
g1
(g11
g12
(dtRp2065
sg20
g1
(g11
g12
(dtRp2066
sg22
g1
(g11
g12
(dtRp2067
sbsg24
S'Cfr'
p2068
sg26
g27
((lp2069
g29
ag30
aS'sequence'
p2070
ag32
ag33
aS'species'
p2071
atRp2072
sg37
(lp2073
sg120
g2024
sg121
S'RWLSTKDLYSRLELPGLNQNVHAMFVMPLGFGNPMGDMFARLNNSFWLPPLSLEGAGTGWTVYPPLSHSGPSVDLAFHLTSSLLGAMNFTNMRGPLFWTALLLLSLPVLAGTLLDRNFNTFDGGDPLYHLFWFFGHPEVYIIPGFGSHSTYKKFGMYASIGLGFVWSHHMYVGLDDRAYFTSATMIAPTGIKFSWLSTYGGRPMLAFLFLFTGGTGVLNASDAFHDTYYVVMAFSLGYYPYNLYWFMFGMPDSGWSSSYQLGPDESNE'
p2074
sg123
F0.050279999999999998
sg124
g125
sg33
S'73'
p2075
sg127
g1
(g128
g12
(dp2076
g130
I4
sg131
g132
sg133
g134
sg135
g132
sg136
I01
sg34
g137
sg138
g134
sg139
I0
sg140
I0
sg141
I0
sg142
g134
sg35
g143
sg144
I0
stRp2077
sg146
g147
sg148
F1
sg149
Nsg30
S'CfrijA'
p2078
sbasg120
g1762
sg123
F0.11378000000000001
sg124
g125
sg33
S'117'
p2079
sg127
g1
(g128
g12
(dp2080
g130
I6
sg131
g132
sg133
g134
sg135
g132
sg136
I01
sg34
g174
sg138
g134
sg139
I0
sg140
I0
sg141
I0
sg142
g134
sg35
g175
sg144
I0
stRp2081
sg146
g147
sg148
F0.98999999999999999
sg149
Nsg30
S'NoName'
p2082
sbasg120
g1728
sg123
F0.076910000000000006
sg124
g125
sg33
S'109'
p2083
sg127
g1
(g128
g12
(dp2084
g130
I6
sg131
g132
sg133
g134
sg135
g132
sg136
I01
sg34
g174
sg138
g134
sg139
I0
sg140
I0
sg141
I0
sg142
g134
sg35
g175
sg144
I0
stRp2085
sg146
g147
sg148
F0.98999999999999999
sg149
Nsg30
S'NoName'
p2086
sbasg120
g1715
sg123
F0.022950000000000002
sg124
g125
sg33
S'186'
p2087
sg127
g1
(g128
g12
(dp2088
g130
I6
sg131
g132
sg133
g134
sg135
g132
sg136
I01
sg34
g174
sg138
g134
sg139
I0
sg140
I0
sg141
I0
sg142
g134
sg35
g175
sg144
I0
stRp2089
sg146
g147
sg148
F0.65000000000000002
sg149
Nsg30
S'NoName'
p2090
sbag1
(g2
g3
NtRp2091
(dp2092
g6
g1
(g7
g3
NtRp2093
(dp2094
g10
g1
(g11
g12
(dtRp2095
sg14
g1
(g11
g12
(dtRp2096
sg16
g1
(g11
g12
(dtRp2097
sg18
g1
(g11
g12
(dtRp2098
sg20
g1
(g11
g12
(dtRp2099
sg22
g1
(g11
g12
(dtRp2100
sbsg24
g25
sg26
g27
((lp2101
g33
ag32
ag29
ag30
atRp2102
sg37
(lp2103
g1
(g2
g3
NtRp2104
(dp2105
g6
g1
(g7
g3
NtRp2106
(dp2107
g10
g1
(g11
g12
(dtRp2108
sg14
g1
(g11
g12
(dtRp2109
sg16
g1
(g11
g12
(dtRp2110
sg18
g1
(g11
g12
(dtRp2111
sg20
g1
(g11
g12
(dtRp2112
sg22
g1
(g11
g12
(dtRp2113
sbsg24
g25
sg26
g27
((lp2114
g33
ag32
ag29
ag30
atRp2115
sg37
(lp2116
g1
(g2
g3
NtRp2117
(dp2118
g6
g1
(g7
g3
NtRp2119
(dp2120
g10
g1
(g11
g12
(dtRp2121
sg14
g1
(g11
g12
(dtRp2122
sg16
g1
(g11
g12
(dtRp2123
sg18
g1
(g11
g12
(dtRp2124
sg20
g1
(g11
g12
(dtRp2125
sg22
g1
(g11
g12
(dtRp2126
sbsg24
S'Cgi'
p2127
sg26
g27
((lp2128
g29
ag30
aS'sequence'
p2129
ag32
ag33
aS'species'
p2130
atRp2131
sg37
(lp2132
sg120
g2104
sg121
S'RWLSTKDLYSRLELAGLNQNVHAMFVMPLGFGNPMGDMFARLNNSFWLPPLSLEGAGTGWTVYPPLSHSGPSVDMAFHLTSSLLGAINFTNMRGPLFWTALLLLSLPVLAATLLDRNFNTFEGGDPLYHAFWFFGHPEVYIIPGFGSHSTYKKFGMYASIGLGFVWSHHMYVGLDDRAYFTSATMIAPTGIKFSWLATYGGRPMLAFLFLFTGGTGVLNASDAFHDTYYVVMAFSLGYYPYNLYWFMFGMPDAGWSSSYQLGPDESNE'
p2133
sg123
F0.22796
sg124
g125
sg33
S'111'
p2134
sg127
g1
(g128
g12
(dp2135
g130
I4
sg131
g132
sg133
g134
sg135
g132
sg136
I01
sg34
g137
sg138
g134
sg139
I0
sg140
I0
sg141
I0
sg142
g134
sg35
g143
sg144
I0
stRp2136
sg146
g147
sg148
F1
sg149
Nsg30
S'CgigaA'
p2137
sbag1
(g2
g3
NtRp2138
(dp2139
g6
g1
(g7
g3
NtRp2140
(dp2141
g10
g1
(g11
g12
(dtRp2142
sg14
g1
(g11
g12
(dtRp2143
sg16
g1
(g11
g12
(dtRp2144
sg18
g1
(g11
g12
(dtRp2145
sg20
g1
(g11
g12
(dtRp2146
sg22
g1
(g11
g12
(dtRp2147
sbsg24
S'Cbu'
p2148
sg26
g27
((lp2149
g29
ag30
aS'sequence'
p2150
ag32
ag33
aS'species'
p2151
atRp2152
sg37
(lp2153
sg120
g2104
sg121
S'RWLSTKDLYSRLELAGLNQNVHAMFVMPLGFGNPMGDMFARLNNSFWLPPLSLEGAGTGWTVYPPLSHSGPSVDLAFHLTSSLLGAINFTNMRGPLFWTALLLLSLPVLAGTLLDRNFNTFEGGDPLYHLFWFFGHPEVYIIPGFGSHGTYKKFGMYASIGLGFVWSHHMFVGLDDRAYFTSATMIAPTGIKFSWLATYGGRPMLAFLFLFTGGTGVLNASDAFHDTYYVVMAFSLAYYPYNLFWFMFGMPDAGWSSSYQLGPDESNE'
p2154
sg123
F0.26118000000000002
sg124
g125
sg33
S'140'
p2155
sg127
g1
(g128
g12
(dp2156
g130
I4
sg131
g132
sg133
g134
sg135
g132
sg136
I01
sg34
g137
sg138
g134
sg139
I0
sg140
I0
sg141
I0
sg142
g134
sg35
g143
sg144
I0
stRp2157
sg146
g147
sg148
F1
sg149
Nsg30
S'CbuenA'
p2158
sbasg120
g2091
sg123
F0.037260000000000001
sg124
g125
sg33
S'222'
p2159
sg127
g1
(g128
g12
(dp2160
g130
I6
sg131
g132
sg133
g134
sg135
g132
sg136
I01
sg34
g174
sg138
g134
sg139
I0
sg140
I0
sg141
I0
sg142
g134
sg35
g175
sg144
I0
stRp2161
sg146
g147
sg148
F0.98999999999999999
sg149
Nsg30
S'NoName'
p2162
sbag1
(g2
g3
NtRp2163
(dp2164
g6
g1
(g7
g3
NtRp2165
(dp2166
g10
g1
(g11
g12
(dtRp2167
sg14
g1
(g11
g12
(dtRp2168
sg16
g1
(g11
g12
(dtRp2169
sg18
g1
(g11
g12
(dtRp2170
sg20
g1
(g11
g12
(dtRp2171
sg22
g1
(g11
g12
(dtRp2172
sbsg24
g25
sg26
g27
((lp2173
g33
ag32
ag29
ag30
atRp2174
sg37
(lp2175
g1
(g2
g3
NtRp2176
(dp2177
g6
g1
(g7
g3
NtRp2178
(dp2179
g10
g1
(g11
g12
(dtRp2180
sg14
g1
(g11
g12
(dtRp2181
sg16
g1
(g11
g12
(dtRp2182
sg18
g1
(g11
g12
(dtRp2183
sg20
g1
(g11
g12
(dtRp2184
sg22
g1
(g11
g12
(dtRp2185
sbsg24
S'Cdu'
p2186
sg26
g27
((lp2187
g29
ag30
aS'sequence'
p2188
ag32
ag33
aS'species'
p2189
atRp2190
sg37
(lp2191
sg120
g2163
sg121
S'RWLSTKDLYSRLELPGLNQNVHAMFVMPLGFGNPMGDMFARLNNSFWLPPLSLEGAGTGWTVYPPLSHSGPSVDLAFHLTSSLLGAINFTNMRGPLYWTALLLLSLPVLAGTLLDRNFNTFEGGDPLYHLFWFFGHPEVYIIPGFGSHSTYKKFGMYASIGLGFVWSHHMYVGLDDRAYFTSATMIAPTGIKFSWLATYGGRPMLAFLFLFTGGTGVLNASDAFHDTYYVVMAFSLGYYPYNLYWFMFGMPDAGWSSSYQLGPDESNE'
p2192
sg123
F0.025069999999999999
sg124
g125
sg33
S'121'
p2193
sg127
g1
(g128
g12
(dp2194
g130
I4
sg131
g132
sg133
g134
sg135
g132
sg136
I01
sg34
g137
sg138
g134
sg139
I0
sg140
I0
sg141
I0
sg142
g134
sg35
g143
sg144
I0
stRp2195
sg146
g147
sg148
F1
sg149
Nsg30
S'CdublA'
p2196
sbag1
(g2
g3
NtRp2197
(dp2198
g6
g1
(g7
g3
NtRp2199
(dp2200
g10
g1
(g11
g12
(dtRp2201
sg14
g1
(g11
g12
(dtRp2202
sg16
g1
(g11
g12
(dtRp2203
sg18
g1
(g11
g12
(dtRp2204
sg20
g1
(g11
g12
(dtRp2205
sg22
g1
(g11
g12
(dtRp2206
sbsg24
g25
sg26
g27
((lp2207
g33
ag32
ag29
ag30
atRp2208
sg37
(lp2209
g1
(g2
g3
NtRp2210
(dp2211
g6
g1
(g7
g3
NtRp2212
(dp2213
g10
g1
(g11
g12
(dtRp2214
sg14
g1
(g11
g12
(dtRp2215
sg16
g1
(g11
g12
(dtRp2216
sg18
g1
(g11
g12
(dtRp2217
sg20
g1
(g11
g12
(dtRp2218
sg22
g1
(g11
g12
(dtRp2219
sbsg24
g25
sg26
g27
((lp2220
g33
ag32
ag29
ag30
atRp2221
sg37
(lp2222
g1
(g2
g3
NtRp2223
(dp2224
g6
g1
(g7
g3
NtRp2225
(dp2226
g10
g1
(g11
g12
(dtRp2227
sg14
g1
(g11
g12
(dtRp2228
sg16
g1
(g11
g12
(dtRp2229
sg18
g1
(g11
g12
(dtRp2230
sg20
g1
(g11
g12
(dtRp2231
sg22
g1
(g11
g12
(dtRp2232
sbsg24
g25
sg26
g27
((lp2233
g33
ag32
ag29
ag30
atRp2234
sg37
(lp2235
g1
(g2
g3
NtRp2236
(dp2237
g6
g1
(g7
g3
NtRp2238
(dp2239
g10
g1
(g11
g12
(dtRp2240
sg14
g1
(g11
g12
(dtRp2241
sg16
g1
(g11
g12
(dtRp2242
sg18
g1
(g11
g12
(dtRp2243
sg20
g1
(g11
g12
(dtRp2244
sg22
g1
(g11
g12
(dtRp2245
sbsg24
g25
sg26
g27
((lp2246
g33
ag32
ag29
ag30
atRp2247
sg37
(lp2248
g1
(g2
g3
NtRp2249
(dp2250
g6
g1
(g7
g3
NtRp2251
(dp2252
g10
g1
(g11
g12
(dtRp2253
sg14
g1
(g11
g12
(dtRp2254
sg16
g1
(g11
g12
(dtRp2255
sg18
g1
(g11
g12
(dtRp2256
sg20
g1
(g11
g12
(dtRp2257
sg22
g1
(g11
g12
(dtRp2258
sbsg24
S'Cal'
p2259
sg26
g27
((lp2260
g29
ag30
aS'sequence'
p2261
ag32
ag33
aS'species'
p2262
atRp2263
sg37
(lp2264
sg120
g2236
sg121
S'RWLSTKDLYSRLELPGLNQNVHAMFVMPLGFGNPMGDMFARLNNSFWLPPLSLEGAGTGWTVYPPLSHSGPSVDLAFHLTSSLLGAINFTNMRGPLFWTALLLLSLPVLAGTLLDRNFNTFEGGDPLYHLFWFFGHPEVYIIPGFGSHSTYKKFGMYASIGLGFVWSHHMYVGLDDRAYFTSATMIAPTGIKFSWLATYGGRPMLAFLFLFTGGTGVLNASDAFHDTYYVVMAFSLGYYPYNLYWFMFGMPDAGWSSSYQLGPDESNE'
p2265
sg123
F0.00025000000000000001
sg124
g125
sg33
S'58'
p2266
sg127
g1
(g128
g12
(dp2267
g130
I4
sg131
g132
sg133
g134
sg135
g132
sg136
I01
sg34
g137
sg138
g134
sg139
I0
sg140
I0
sg141
I0
sg142
g134
sg35
g143
sg144
I0
stRp2268
sg146
g147
sg148
F1
sg149
Nsg30
S'CalbiE'
p2269
sbag1
(g2
g3
NtRp2270
(dp2271
g6
g1
(g7
g3
NtRp2272
(dp2273
g10
g1
(g11
g12
(dtRp2274
sg14
g1
(g11
g12
(dtRp2275
sg16
g1
(g11
g12
(dtRp2276
sg18
g1
(g11
g12
(dtRp2277
sg20
g1
(g11
g12
(dtRp2278
sg22
g1
(g11
g12
(dtRp2279
sbsg24
S'Cal'
p2280
sg26
g27
((lp2281
g29
ag30
aS'sequence'
p2282
ag32
ag33
aS'species'
p2283
atRp2284
sg37
(lp2285
sg120
g2236
sg121
S'RWLSTKDLYSRLELPGLNQNVHAMFVMPLGFGNPMGDMFARLNNSFWLPPLSLEGAGTGWTVYPPLSHSGPSVDLAFHLTSSLLGAINFTNMRGPLFWTALLLLSLPVLAGTLLDRNFNTFEGGDPLYHLFWFFGHPEVYIIPGFGSHSTYKKFGMYASIGLGFVWSHHMYVGLDDRAYFTSATMIAPTGIKFSWLATYGGRPMLAFLFLFTGGTGVLNASDAFHDTYYVVMAFSLGYYPYNLYWFMFGMPDAGWSSSYQLGPDESNE'
p2286
sg123
F0.00050000000000000001
sg124
g125
sg33
S'162'
p2287
sg127
g1
(g128
g12
(dp2288
g130
I4
sg131
g132
sg133
g134
sg135
g132
sg136
I01
sg34
g137
sg138
g134
sg139
I0
sg140
I0
sg141
I0
sg142
g134
sg35
g143
sg144
I0
stRp2289
sg146
g147
sg148
F1
sg149
Nsg30
S'CalbiD'
p2290
sbasg120
g2223
sg123
F0.00051999999999999995
sg124
g125
sg33
S'156'
p2291
sg127
g1
(g128
g12
(dp2292
g130
I6
sg131
g132
sg133
g134
sg135
g132
sg136
I01
sg34
g174
sg138
g134
sg139
I0
sg140
I0
sg141
I0
sg142
g134
sg35
g175
sg144
I0
stRp2293
sg146
g147
sg148
F0.73999999999999999
sg149
Nsg30
S'NoName'
p2294
sbag1
(g2
g3
NtRp2295
(dp2296
g6
g1
(g7
g3
NtRp2297
(dp2298
g10
g1
(g11
g12
(dtRp2299
sg14
g1
(g11
g12
(dtRp2300
sg16
g1
(g11
g12
(dtRp2301
sg18
g1
(g11
g12
(dtRp2302
sg20
g1
(g11
g12
(dtRp2303
sg22
g1
(g11
g12
(dtRp2304
sbsg24
S'Cal'
p2305
sg26
g27
((lp2306
g29
ag30
aS'sequence'
p2307
ag32
ag33
aS'species'
p2308
atRp2309
sg37
(lp2310
sg120
g2223
sg121
S'RWLSTKDLYSRLELPGLNQNVHAMFVMPLGFGNPMGDMFARLNNSFWLPPLSLEGAGTGWTVYPPLSHSGPSVDLAFHLTSSLLGAINFTNMRGPLFWTALLLLSLPVLAGTLLDRNFNTFEGGDPLYHLFWFFGHPEVYIIPGFGSHSTYKKFGMYASIGLGFVWSHHMYVGLDDRAYFTSATMIAPTGIKFSWLATYGGRPMLAFLFLFTGGTGVLNASDAFHDTYYVVMAFSLGYYPYNLYWFMFGMPDAGWSSSYQLGPDESNE'
p2311
sg123
F0.00012
sg124
g125
sg33
S'206'
p2312
sg127
g1
(g128
g12
(dp2313
g130
I4
sg131
g132
sg133
g134
sg135
g132
sg136
I01
sg34
g137
sg138
g134
sg139
I0
sg140
I0
sg141
I0
sg142
g134
sg35
g143
sg144
I0
stRp2314
sg146
g147
sg148
F1
sg149
Nsg30
S'CalbiC'
p2315
sbasg120
g2210
sg123
F1.0000000000000001e-05
sg124
g125
sg33
S'146'
p2316
sg127
g1
(g128
g12
(dp2317
g130
I6
sg131
g132
sg133
g134
sg135
g132
sg136
I01
sg34
g174
sg138
g134
sg139
I0
sg140
I0
sg141
I0
sg142
g134
sg35
g175
sg144
I0
stRp2318
sg146
g147
sg148
F1
sg149
Nsg30
S'NoName'
p2319
sbag1
(g2
g3
NtRp2320
(dp2321
g6
g1
(g7
g3
NtRp2322
(dp2323
g10
g1
(g11
g12
(dtRp2324
sg14
g1
(g11
g12
(dtRp2325
sg16
g1
(g11
g12
(dtRp2326
sg18
g1
(g11
g12
(dtRp2327
sg20
g1
(g11
g12
(dtRp2328
sg22
g1
(g11
g12
(dtRp2329
sbsg24
S'Cal'
p2330
sg26
g27
((lp2331
g29
ag30
aS'sequence'
p2332
ag32
ag33
aS'species'
p2333
atRp2334
sg37
(lp2335
sg120
g2210
sg121
S'RWLSTKDLYSRLELPGLNQNVHAMFVMPLGFGNPMGDMFARLNNSFWLPPLSLEGAGTGWTVYPPLSHSGPSVDLAFHLTSSLLGAINFTNMRGPLFWTALLLLSLPVLAGTLLDRNFNTFEGGDPLYHLFWFFGHPEVYIIPGFGSHSTYKKFGMYASIGLGFVWSHHMYVGLDDRAYFTSATMIAPTGIKFSWLATYGGRPMLAFLFLFTGGTGVLNASDAFHDTYYVVMAFSLGYYPYNLYWFMFGMPDAGWSSSYQLGPDESNE'
p2336
sg123
F0.00016000000000000001
sg124
g125
sg33
S'12'
p2337
sg127
g1
(g128
g12
(dp2338
g130
I4
sg131
g132
sg133
g134
sg135
g132
sg136
I01
sg34
g137
sg138
g134
sg139
I0
sg140
I0
sg141
I0
sg142
g134
sg35
g143
sg144
I0
stRp2339
sg146
g147
sg148
F1
sg149
Nsg30
S'CalbiB'
p2340
sbasg120
g2197
sg123
F1.0000000000000001e-05
sg124
g125
sg33
S'193'
p2341
sg127
g1
(g128
g12
(dp2342
g130
I6
sg131
g132
sg133
g134
sg135
g132
sg136
I01
sg34
g174
sg138
g134
sg139
I0
sg140
I0
sg141
I0
sg142
g134
sg35
g175
sg144
I0
stRp2343
sg146
g147
sg148
F1
sg149
Nsg30
S'NoName'
p2344
sbag1
(g2
g3
NtRp2345
(dp2346
g6
g1
(g7
g3
NtRp2347
(dp2348
g10
g1
(g11
g12
(dtRp2349
sg14
g1
(g11
g12
(dtRp2350
sg16
g1
(g11
g12
(dtRp2351
sg18
g1
(g11
g12
(dtRp2352
sg20
g1
(g11
g12
(dtRp2353
sg22
g1
(g11
g12
(dtRp2354
sbsg24
S'Cal'
p2355
sg26
g27
((lp2356
g29
ag30
aS'sequence'
p2357
ag32
ag33
aS'species'
p2358
atRp2359
sg37
(lp2360
sg120
g2197
sg121
S'RWLSTKDLYSRLELPGLNQNVHAMFVMPLGFGNPMGDMFARLNNSFWLPPLSLEGAGTGWTVYPPLSHSGPSVDLAFHLTSSLLGAINFTNMRGPLFWTALLLLSLPVLAGTLLDRNFNTFEGGDPLYHLFWFFGHPEVYIIPGFGSHSTYKKFGMYASIGLGFVWSHHMYVGLDDRAYFTSATMIAPTGIKFSWLATYGGRPMLAFLFLFTGGTGVLNASDAFHDTYYVVMAFSLGYYPYNLYWFMFGMPDAGWSSSYQLGPDESNE'
p2361
sg123
F0.00013999999999999999
sg124
g125
sg33
S'44'
p2362
sg127
g1
(g128
g12
(dp2363
g130
I4
sg131
g132
sg133
g134
sg135
g132
sg136
I01
sg34
g137
sg138
g134
sg139
I0
sg140
I0
sg141
I0
sg142
g134
sg35
g143
sg144
I0
stRp2364
sg146
g147
sg148
F1
sg149
Nsg30
S'CalbiA'
p2365
sbasg120
g2163
sg123
F0.014959999999999999
sg124
g125
sg33
S'129'
p2366
sg127
g1
(g128
g12
(dp2367
g130
I6
sg131
g132
sg133
g134
sg135
g132
sg136
I01
sg34
g174
sg138
g134
sg139
I0
sg140
I0
sg141
I0
sg142
g134
sg35
g175
sg144
I0
stRp2368
sg146
g147
sg148
F0.98999999999999999
sg149
Nsg30
S'NoName'
p2369
sbasg120
g2091
sg123
F0.05287
sg124
g125
sg33
S'92'
p2370
sg127
g1
(g128
g12
(dp2371
g130
I6
sg131
g132
sg133
g134
sg135
g132
sg136
I01
sg34
g174
sg138
g134
sg139
I0
sg140
I0
sg141
I0
sg142
g134
sg35
g175
sg144
I0
stRp2372
sg146
g147
sg148
F0.98999999999999999
sg149
Nsg30
S'NoName'
p2373
sbasg120
g1715
sg123
F0.037499999999999999
sg124
g125
sg33
S'40'
p2374
sg127
g1
(g128
g12
(dp2375
g130
I6
sg131
g132
sg133
g134
sg135
g132
sg136
I01
sg34
g174
sg138
g134
sg139
I0
sg140
I0
sg141
I0
sg142
g134
sg35
g175
sg144
I0
stRp2376
sg146
g147
sg148
F0.98999999999999999
sg149
Nsg30
S'NoName'
p2377
sbasg120
g1001
sg123
F0.10766000000000001
sg124
g125
sg33
S'16'
p2378
sg127
g1
(g128
g12
(dp2379
g130
I6
sg131
g132
sg133
g134
sg135
g132
sg136
I01
sg34
g174
sg138
g134
sg139
I0
sg140
I0
sg141
I0
sg142
g134
sg35
g175
sg144
I0
stRp2380
sg146
g147
sg148
F0.98999999999999999
sg149
Nsg30
S'NoName'
p2381
sbasg120
g967
sg123
F0.093560000000000004
sg124
g125
sg33
S'182'
p2382
sg127
g1
(g128
g12
(dp2383
g130
I6
sg131
g132
sg133
g134
sg135
g132
sg136
I01
sg34
g174
sg138
g134
sg139
I0
sg140
I0
sg141
I0
sg142
g134
sg35
g175
sg144
I0
stRp2384
sg146
g147
sg148
F0.97999999999999998
sg149
Nsg30
S'NoName'
p2385
sbasg120
g954
sg123
F0.036760000000000001
sg124
g125
sg33
S'31'
p2386
sg127
g1
(g128
g12
(dp2387
g130
I6
sg131
g132
sg133
g134
sg135
g132
sg136
I01
sg34
g174
sg138
g134
sg139
I0
sg140
I0
sg141
I0
sg142
g134
sg35
g175
sg144
I0
stRp2388
sg146
g147
sg148
F0.97999999999999998
sg149
Nsg30
S'NoName'
p2389
sbag1
(g2
g3
NtRp2390
(dp2391
g6
g1
(g7
g3
NtRp2392
(dp2393
g10
g1
(g11
g12
(dtRp2394
sg14
g1
(g11
g12
(dtRp2395
sg16
g1
(g11
g12
(dtRp2396
sg18
g1
(g11
g12
(dtRp2397
sg20
g1
(g11
g12
(dtRp2398
sg22
g1
(g11
g12
(dtRp2399
sbsg24
g25
sg26
g27
((lp2400
g33
ag32
ag29
ag30
atRp2401
sg37
(lp2402
g1
(g2
g3
NtRp2403
(dp2404
g6
g1
(g7
g3
NtRp2405
(dp2406
g10
g1
(g11
g12
(dtRp2407
sg14
g1
(g11
g12
(dtRp2408
sg16
g1
(g11
g12
(dtRp2409
sg18
g1
(g11
g12
(dtRp2410
sg20
g1
(g11
g12
(dtRp2411
sg22
g1
(g11
g12
(dtRp2412
sbsg24
g25
sg26
g27
((lp2413
g33
ag32
ag29
ag30
atRp2414
sg37
(lp2415
g1
(g2
g3
NtRp2416
(dp2417
g6
g1
(g7
g3
NtRp2418
(dp2419
g10
g1
(g11
g12
(dtRp2420
sg14
g1
(g11
g12
(dtRp2421
sg16
g1
(g11
g12
(dtRp2422
sg18
g1
(g11
g12
(dtRp2423
sg20
g1
(g11
g12
(dtRp2424
sg22
g1
(g11
g12
(dtRp2425
sbsg24
S'Csu'
p2426
sg26
g27
((lp2427
g29
ag30
aS'sequence'
p2428
ag32
ag33
aS'species'
p2429
atRp2430
sg37
(lp2431
sg120
g2403
sg121
S'RWLSTKDLYSRMELPGLNQNVHAMFIMPLGLGNPLGDMFARLNNSFWLPPLSLEGAGTGWTVYPPLSHSGPSVDLAFHLTSSLLGAINFTNMRGPLYWTALLLLSLPVLAATLLDRNFNTFEGGDPLYHLFWFFGHPEVYIIPGFGSHSTYKKFGMYASIGLGFVWSHHMFVGLDDRAYFTSATMIAPTGVKFSWLATYGGRPMLAFLFLFTGGTGVINASDAFHDTYYIVMAFSLGFYPYNLFWFMFGMPDAGWSSAYQLGPDESNE'
p2432
sg123
F0.00012999999999999999
sg124
g125
sg33
S'167'
p2433
sg127
g1
(g128
g12
(dp2434
g130
I4
sg131
g132
sg133
g134
sg135
g132
sg136
I01
sg34
g137
sg138
g134
sg139
I0
sg140
I0
sg141
I0
sg142
g134
sg35
g143
sg144
I0
stRp2435
sg146
g147
sg148
F1
sg149
Nsg30
S'CsubhB'
p2436
sbag1
(g2
g3
NtRp2437
(dp2438
g6
g1
(g7
g3
NtRp2439
(dp2440
g10
g1
(g11
g12
(dtRp2441
sg14
g1
(g11
g12
(dtRp2442
sg16
g1
(g11
g12
(dtRp2443
sg18
g1
(g11
g12
(dtRp2444
sg20
g1
(g11
g12
(dtRp2445
sg22
g1
(g11
g12
(dtRp2446
sbsg24
S'Csu'
p2447
sg26
g27
((lp2448
g29
ag30
aS'sequence'
p2449
ag32
ag33
aS'species'
p2450
atRp2451
sg37
(lp2452
sg120
g2403
sg121
S'RWLSTKDLYSRMELPGLNQNVHAMFIMPLGLGNPLGDMFARLNNSFWLPPLSLEGAGTGWTVYPPLSHSGPSVDLAFHLTSSLLGAINFTNMRGPLYWTALLLLSLPVLAATLLDRNFNTFEGGDPLYHLFWFFGHPEVYIIPGFGSHSTYKKFGMYASIGLGFVWSHHMFVGLDDRAYFTSATMIAPTGVKFSWLATYGGRPMLAFLFLFTGGTGVINASDAFHDTYYIVMAFSLGFYPYNLFWFMFGMPDAGWSSAYQLGPDESNE'
p2453
sg123
F0.00013999999999999999
sg124
g125
sg33
S'176'
p2454
sg127
g1
(g128
g12
(dp2455
g130
I4
sg131
g132
sg133
g134
sg135
g132
sg136
I01
sg34
g137
sg138
g134
sg139
I0
sg140
I0
sg141
I0
sg142
g134
sg35
g143
sg144
I0
stRp2456
sg146
g147
sg148
F1
sg149
Nsg30
S'CsubhA'
p2457
sbasg120
g2390
sg123
F0.59348999999999996
sg124
g125
sg33
S'216'
p2458
sg127
g1
(g128
g12
(dp2459
g130
I6
sg131
g132
sg133
g134
sg135
g132
sg136
I01
sg34
g174
sg138
g134
sg139
I0
sg140
I0
sg141
I0
sg142
g134
sg35
g175
sg144
I0
stRp2460
sg146
g147
sg148
F1
sg149
Nsg30
S'NoName'
p2461
sbag1
(g2
g3
NtRp2462
(dp2463
g6
g1
(g7
g3
NtRp2464
(dp2465
g10
g1
(g11
g12
(dtRp2466
sg14
g1
(g11
g12
(dtRp2467
sg16
g1
(g11
g12
(dtRp2468
sg18
g1
(g11
g12
(dtRp2469
sg20
g1
(g11
g12
(dtRp2470
sg22
g1
(g11
g12
(dtRp2471
sbsg24
S'Cal'
p2472
sg26
g27
((lp2473
g29
ag30
aS'sequence'
p2474
ag32
ag33
aS'species'
p2475
atRp2476
sg37
(lp2477
sg120
g2390
sg121
S'RWLSTKDLYSRMELPGLNQNVHAMFVMPLGFGNPLGDMFARLNNSFWLPPLSLDGPGTGWTVYPPLSHSGASVDFAFHLTSSLLGAINFTNMRGPLFWTALLLLSLPVLVATLLDRNFNTFEGGDPLYHLFWFFGHPEVYMIPGFGSHSTYKKFGMYASIGLGFVWSHHMFVGLDDRAYFTSATMMAPTGIKFSWMATYGGYPMLAFLFLFTGGTGVINASDAFHDTYYIVMAFSLGYYPYNLFWFMFGMPDAGWSSAYQLGPDESNE'
p2478
sg123
F0.40044000000000002
sg124
g125
sg33
S'197'
p2479
sg127
g1
(g128
g12
(dp2480
g130
I4
sg131
g132
sg133
g134
sg135
g132
sg136
I01
sg34
g137
sg138
g134
sg139
I0
sg140
I0
sg141
I0
sg142
g134
sg35
g143
sg144
I0
stRp2481
sg146
g147
sg148
F1
sg149
Nsg30
S'CalaiA'
p2482
sbasg120
g954
sg123
F0.080810000000000007
sg124
g125
sg33
S'173'
p2483
sg127
g1
(g128
g12
(dp2484
g130
I6
sg131
g132
sg133
g134
sg135
g132
sg136
I01
sg34
g174
sg138
g134
sg139
I0
sg140
I0
sg141
I0
sg142
g134
sg35
g175
sg144
I0
stRp2485
sg146
g147
sg148
F0.98999999999999999
sg149
Nsg30
S'NoName'
p2486
sbasg120
g692
sg123
F0.075389999999999999
sg124
g125
sg33
S'35'
p2487
sg127
g1
(g128
g12
(dp2488
g130
I6
sg131
g132
sg133
g134
sg135
g132
sg136
I01
sg34
g174
sg138
g134
sg139
I0
sg140
I0
sg141
I0
sg142
g134
sg35
g175
sg144
I0
stRp2489
sg146
g147
sg148
F0.94999999999999996
sg149
Nsg30
S'NoName'
p2490
sbasg120
g679
sg123
F1.2542500000000001
sg124
g125
sg33
S'91'
p2491
sg127
g1
(g128
g12
(dp2492
g130
I6
sg131
g132
sg133
g134
sg135
g132
sg136
I01
sg34
g174
sg138
g134
sg139
I0
sg140
I0
sg141
I0
sg142
g134
sg35
g175
sg144
I0
stRp2493
sg146
g147
sg148
F0.97999999999999998
sg149
Nsg30
S'NoName'
p2494
sbag1
(g2
g3
NtRp2495
(dp2496
g6
g1
(g7
g3
NtRp2497
(dp2498
g10
g1
(g11
g12
(dtRp2499
sg14
g1
(g11
g12
(dtRp2500
sg16
g1
(g11
g12
(dtRp2501
sg18
g1
(g11
g12
(dtRp2502
sg20
g1
(g11
g12
(dtRp2503
sg22
g1
(g11
g12
(dtRp2504
sbsg24
g25
sg26
g27
((lp2505
g33
ag32
ag29
ag30
atRp2506
sg37
(lp2507
g1
(g2
g3
NtRp2508
(dp2509
g6
g1
(g7
g3
NtRp2510
(dp2511
g10
g1
(g11
g12
(dtRp2512
sg14
g1
(g11
g12
(dtRp2513
sg16
g1
(g11
g12
(dtRp2514
sg18
g1
(g11
g12
(dtRp2515
sg20
g1
(g11
g12
(dtRp2516
sg22
g1
(g11
g12
(dtRp2517
sbsg24
g25
sg26
g27
((lp2518
g33
ag32
ag29
ag30
atRp2519
sg37
(lp2520
g1
(g2
g3
NtRp2521
(dp2522
g6
g1
(g7
g3
NtRp2523
(dp2524
g10
g1
(g11
g12
(dtRp2525
sg14
g1
(g11
g12
(dtRp2526
sg16
g1
(g11
g12
(dtRp2527
sg18
g1
(g11
g12
(dtRp2528
sg20
g1
(g11
g12
(dtRp2529
sg22
g1
(g11
g12
(dtRp2530
sbsg24
S'Ppa'
p2531
sg26
g27
((lp2532
g29
ag30
aS'sequence'
p2533
ag32
ag33
aS'species'
p2534
atRp2535
sg37
(lp2536
sg120
g2508
sg121
S'RWLSTKDLYSRLELPGLNQNVHAMFVMPAGFGNPMGDMFARLNNSFWLPPLSLEGAGTGWTVYPPLAHSGPSVDLAFHLTSSLLGAMNFTNMRGPLFWTSLLLLSLPVLAGTLLDRNFNTFEGGDPLYHLFWFFGHPEVYIMPGFGSHSTYKKFGMYASIGLGLVWSHHMYVGLDDRAYFTSATMMAPTGMKFSWLATYGGRPMLAFLFLFTGGSGVLNASDAFHDTYYVILAFSLGYYPYNLFWFMFGMPDAGWSSSYQLGPDESND'
p2537
sg123
F0.16184999999999999
sg124
g125
sg33
S'209'
p2538
sg127
g1
(g128
g12
(dp2539
g130
I4
sg131
g132
sg133
g134
sg135
g132
sg136
I01
sg34
g137
sg138
g134
sg139
I0
sg140
I0
sg141
I0
sg142
g134
sg35
g143
sg144
I0
stRp2540
sg146
g147
sg148
F1
sg149
Nsg30
S'PpastA'
p2541
sbag1
(g2
g3
NtRp2542
(dp2543
g6
g1
(g7
g3
NtRp2544
(dp2545
g10
g1
(g11
g12
(dtRp2546
sg14
g1
(g11
g12
(dtRp2547
sg16
g1
(g11
g12
(dtRp2548
sg18
g1
(g11
g12
(dtRp2549
sg20
g1
(g11
g12
(dtRp2550
sg22
g1
(g11
g12
(dtRp2551
sbsg24
g25
sg26
g27
((lp2552
g33
ag32
ag29
ag30
atRp2553
sg37
(lp2554
g1
(g2
g3
NtRp2555
(dp2556
g6
g1
(g7
g3
NtRp2557
(dp2558
g10
g1
(g11
g12
(dtRp2559
sg14
g1
(g11
g12
(dtRp2560
sg16
g1
(g11
g12
(dtRp2561
sg18
g1
(g11
g12
(dtRp2562
sg20
g1
(g11
g12
(dtRp2563
sg22
g1
(g11
g12
(dtRp2564
sbsg24
S'Pta'
p2565
sg26
g27
((lp2566
g29
ag30
aS'sequence'
p2567
ag32
ag33
aS'species'
p2568
atRp2569
sg37
(lp2570
sg120
g2542
sg121
S'RWLSTKDLYSRLELPGLNQNVHAMFVMPAGFGNPMGDMFARLNNSFWLPPLSLEGAGTGWTVYPPLSHSGPSVDLAFHLTSSLLGGMNFTNMRGPLFWTSLLVLTLPVLAGTLLDRNFNTFEGGDPLYHLFWFFGHPEVYIIPGFGSHSAYKKFGMYASIGLGLVWSHHMYVGLDDRAYFTSATMIAPTGIKFSWLATYGGRPMLAFLFLFTGGSGVLNASDAFHDTYYVMLAFSLGYYPYNLFWFMFGMPDAGFSSSYQLGPDESNE'
p2571
sg123
F0.23080999999999999
sg124
g125
sg33
S'200'
p2572
sg127
g1
(g128
g12
(dp2573
g130
I4
sg131
g132
sg133
g134
sg135
g132
sg136
I01
sg34
g137
sg138
g134
sg139
I0
sg140
I0
sg141
I0
sg142
g134
sg35
g143
sg144
I0
stRp2574
sg146
g147
sg148
F1
sg149
Nsg30
S'PtannA'
p2575
sbag1
(g2
g3
NtRp2576
(dp2577
g6
g1
(g7
g3
NtRp2578
(dp2579
g10
g1
(g11
g12
(dtRp2580
sg14
g1
(g11
g12
(dtRp2581
sg16
g1
(g11
g12
(dtRp2582
sg18
g1
(g11
g12
(dtRp2583
sg20
g1
(g11
g12
(dtRp2584
sg22
g1
(g11
g12
(dtRp2585
sbsg24
g25
sg26
g27
((lp2586
g33
ag32
ag29
ag30
atRp2587
sg37
(lp2588
g1
(g2
g3
NtRp2589
(dp2590
g6
g1
(g7
g3
NtRp2591
(dp2592
g10
g1
(g11
g12
(dtRp2593
sg14
g1
(g11
g12
(dtRp2594
sg16
g1
(g11
g12
(dtRp2595
sg18
g1
(g11
g12
(dtRp2596
sg20
g1
(g11
g12
(dtRp2597
sg22
g1
(g11
g12
(dtRp2598
sbsg24
g25
sg26
g27
((lp2599
g33
ag32
ag29
ag30
atRp2600
sg37
(lp2601
g1
(g2
g3
NtRp2602
(dp2603
g6
g1
(g7
g3
NtRp2604
(dp2605
g10
g1
(g11
g12
(dtRp2606
sg14
g1
(g11
g12
(dtRp2607
sg16
g1
(g11
g12
(dtRp2608
sg18
g1
(g11
g12
(dtRp2609
sg20
g1
(g11
g12
(dtRp2610
sg22
g1
(g11
g12
(dtRp2611
sbsg24
S'Pkl'
p2612
sg26
g27
((lp2613
g29
ag30
aS'sequence'
p2614
ag32
ag33
aS'species'
p2615
atRp2616
sg37
(lp2617
sg120
g2589
sg121
S'RWLSTKDLYSRLELPGLNQNVHAMFMMPTGFGNPMGDMFARLNNSFWLPPLSLEGPGTGWTVYPPLSHSGPSVDLAFHLTSSLLGAMNFTNMRGPLFWTALLVMTLPVLAGTLLDRNFNTFEGGDPLYHLFWFFGHPEVYMMPGFGSHSTYKKFGMYASMGLGLVWSHHMYVGLDDRAYFTSATMMAPTGMKFSWLATYGGRPMLAFMFIFTGGSGVLNASDAFHDTYYVMLAFAMGYYPFNLFWFMFGMPDAGFSASYQLGPDESNE'
p2618
sg123
F0.12625
sg124
g125
sg33
S'203'
p2619
sg127
g1
(g128
g12
(dp2620
g130
I4
sg131
g132
sg133
g134
sg135
g132
sg136
I01
sg34
g137
sg138
g134
sg139
I0
sg140
I0
sg141
I0
sg142
g134
sg35
g143
sg144
I0
stRp2621
sg146
g147
sg148
F1
sg149
Nsg30
S'PkluyA'
p2622
sbag1
(g2
g3
NtRp2623
(dp2624
g6
g1
(g7
g3
NtRp2625
(dp2626
g10
g1
(g11
g12
(dtRp2627
sg14
g1
(g11
g12
(dtRp2628
sg16
g1
(g11
g12
(dtRp2629
sg18
g1
(g11
g12
(dtRp2630
sg20
g1
(g11
g12
(dtRp2631
sg22
g1
(g11
g12
(dtRp2632
sbsg24
S'Bcu'
p2633
sg26
g27
((lp2634
g29
ag30
aS'sequence'
p2635
ag32
ag33
aS'species'
p2636
atRp2637
sg37
(lp2638
sg120
g2589
sg121
S'RWLSTKDLYSRLELPGLDQNVHSMFMMPTGFGNPMGDMFARLNNAFWYPPLSLEGPGTGWTVYPPLSHSGPSMDLAFHLTSSMLSSMNFTNMRGPLFWTALLMMTLPVLAGTLLDRNFNTFEGGDPLYHLYWFFGHPEVYIIPVFGSHSNYKKFGMYASMGLGLVWSHHMYVGLDDRAYFTSATMIAPTGIKFSWLATYGGRPMLAFLFMFTGGSGVLNASDAFHDTYFVVLVYGVGYFPYNMFWFMFGMPDAGFSSAYQLGPDESNE'
p2639
sg123
F0.30854999999999999
sg124
g125
sg33
S'211'
p2640
sg127
g1
(g128
g12
(dp2641
g130
I4
sg131
g132
sg133
g134
sg135
g132
sg136
I01
sg34
g137
sg138
g134
sg139
I0
sg140
I0
sg141
I0
sg142
g134
sg35
g143
sg144
I0
stRp2642
sg146
g147
sg148
F1
sg149
Nsg30
S'BcustA'
p2643
sbasg120
g2576
sg123
F0.19120999999999999
sg124
g125
sg33
S'205'
p2644
sg127
g1
(g128
g12
(dp2645
g130
I6
sg131
g132
sg133
g134
sg135
g132
sg136
I01
sg34
g174
sg138
g134
sg139
I0
sg140
I0
sg141
I0
sg142
g134
sg35
g175
sg144
I0
stRp2646
sg146
g147
sg148
F0.98999999999999999
sg149
Nsg30
S'NoName'
p2647
sbag1
(g2
g3
NtRp2648
(dp2649
g6
g1
(g7
g3
NtRp2650
(dp2651
g10
g1
(g11
g12
(dtRp2652
sg14
g1
(g11
g12
(dtRp2653
sg16
g1
(g11
g12
(dtRp2654
sg18
g1
(g11
g12
(dtRp2655
sg20
g1
(g11
g12
(dtRp2656
sg22
g1
(g11
g12
(dtRp2657
sbsg24
S'Oan'
p2658
sg26
g27
((lp2659
g29
ag30
aS'sequence'
p2660
ag32
ag33
aS'species'
p2661
atRp2662
sg37
(lp2663
sg120
g2576
sg121
S'RWLSTKDLYSRLELPGLNQNAHAMFVMPAGFGNPMGDMFARLNNSFWLPPLSLEGAGTGWTVYPPLSHSGPSVDLAFHLTSSLLGAINFTNMRGPLFWTALLLLSLPVLAGTLLDRNFNTFEGGDPLYHLFWFFGHPEVYIIPGFGSHSTYKKFGMYASIGLGLVWSHHMYVGLDDRAYFTSATMIAPTGIKFSWIATYGGRPMLAFLFLFTGGSGVLNASDAFHDTYYVILAFSLGYYPYNLFWFMFGMPDAGYSSSYQLGPDESNE'
p2664
sg123
F0.025399999999999999
sg124
g125
sg33
S'215'
p2665
sg127
g1
(g128
g12
(dp2666
g130
I4
sg131
g132
sg133
g134
sg135
g132
sg136
I01
sg34
g137
sg138
g134
sg139
I0
sg140
I0
sg141
I0
sg142
g134
sg35
g143
sg144
I0
stRp2667
sg146
g147
sg148
F1
sg149
Nsg30
S'OanguA'
p2668
sbasg120
g2542
sg123
F0.33273999999999998
sg124
g125
sg33
S'63'
p2669
sg127
g1
(g128
g12
(dp2670
g130
I6
sg131
g132
sg133
g134
sg135
g132
sg136
I01
sg34
g174
sg138
g134
sg139
I0
sg140
I0
sg141
I0
sg142
g134
sg35
g175
sg144
I0
stRp2671
sg146
g147
sg148
F0.98999999999999999
sg149
Nsg30
S'NoName'
p2672
sbasg120
g2508
sg123
F0.054379999999999998
sg124
g125
sg33
S'81'
p2673
sg127
g1
(g128
g12
(dp2674
g130
I6
sg131
g132
sg133
g134
sg135
g132
sg136
I01
sg34
g174
sg138
g134
sg139
I0
sg140
I0
sg141
I0
sg142
g134
sg35
g175
sg144
I0
stRp2675
sg146
g147
sg148
F0.96999999999999997
sg149
Nsg30
S'NoName'
p2676
sbasg120
g2495
sg123
F0.76378000000000001
sg124
g125
sg33
S'180'
p2677
sg127
g1
(g128
g12
(dp2678
g130
I6
sg131
g132
sg133
g134
sg135
g132
sg136
I01
sg34
g174
sg138
g134
sg139
I0
sg140
I0
sg141
I0
sg142
g134
sg35
g175
sg144
I0
stRp2679
sg146
g147
sg148
F0.98999999999999999
sg149
Nsg30
S'NoName'
p2680
sbag1
(g2
g3
NtRp2681
(dp2682
g6
g1
(g7
g3
NtRp2683
(dp2684
g10
g1
(g11
g12
(dtRp2685
sg14
g1
(g11
g12
(dtRp2686
sg16
g1
(g11
g12
(dtRp2687
sg18
g1
(g11
g12
(dtRp2688
sg20
g1
(g11
g12
(dtRp2689
sg22
g1
(g11
g12
(dtRp2690
sbsg24
g25
sg26
g27
((lp2691
g33
ag32
ag29
ag30
atRp2692
sg37
(lp2693
g1
(g2
g3
NtRp2694
(dp2695
g6
g1
(g7
g3
NtRp2696
(dp2697
g10
g1
(g11
g12
(dtRp2698
sg14
g1
(g11
g12
(dtRp2699
sg16
g1
(g11
g12
(dtRp2700
sg18
g1
(g11
g12
(dtRp2701
sg20
g1
(g11
g12
(dtRp2702
sg22
g1
(g11
g12
(dtRp2703
sbsg24
g25
sg26
g27
((lp2704
g33
ag32
ag29
ag30
atRp2705
sg37
(lp2706
g1
(g2
g3
NtRp2707
(dp2708
g6
g1
(g7
g3
NtRp2709
(dp2710
g10
g1
(g11
g12
(dtRp2711
sg14
g1
(g11
g12
(dtRp2712
sg16
g1
(g11
g12
(dtRp2713
sg18
g1
(g11
g12
(dtRp2714
sg20
g1
(g11
g12
(dtRp2715
sg22
g1
(g11
g12
(dtRp2716
sbsg24
g25
sg26
g27
((lp2717
g33
ag32
ag29
ag30
atRp2718
sg37
(lp2719
g1
(g2
g3
NtRp2720
(dp2721
g6
g1
(g7
g3
NtRp2722
(dp2723
g10
g1
(g11
g12
(dtRp2724
sg14
g1
(g11
g12
(dtRp2725
sg16
g1
(g11
g12
(dtRp2726
sg18
g1
(g11
g12
(dtRp2727
sg20
g1
(g11
g12
(dtRp2728
sg22
g1
(g11
g12
(dtRp2729
sbsg24
g25
sg26
g27
((lp2730
g33
ag32
ag29
ag30
atRp2731
sg37
(lp2732
g1
(g2
g3
NtRp2733
(dp2734
g6
g1
(g7
g3
NtRp2735
(dp2736
g10
g1
(g11
g12
(dtRp2737
sg14
g1
(g11
g12
(dtRp2738
sg16
g1
(g11
g12
(dtRp2739
sg18
g1
(g11
g12
(dtRp2740
sg20
g1
(g11
g12
(dtRp2741
sg22
g1
(g11
g12
(dtRp2742
sbsg24
S'Cva'
p2743
sg26
g27
((lp2744
g29
ag30
aS'sequence'
p2745
ag32
ag33
aS'species'
p2746
atRp2747
sg37
(lp2748
sg120
g2720
sg121
S'RWLSTKDLYSRLELPGLNQNVHAMFVMPLGFGNPLGDMFARLNNSFWLPPLSLEGAGTGWTIYPPLSHSSPSVDLGFHLTSSLLGAINFTNMRGPLFWTAMLLLSLPVLAGTLLDRNFNTFEGGDPLYHLFWFFGHPEVYIIPGFGSHSTYKKFGMYASIALGFVWSHHMYVGLDDRAYFTSSTMIAPTGIKFSWLATYGGRPMLAFLFLFTGGTGVLNASDAFHDTYYVVMAFSLGYYPYNLFWFMFGMPDAGWSSSYQLGPDESNE'
p2749
sg123
F0.043270000000000003
sg124
g125
sg33
S'142'
p2750
sg127
g1
(g128
g12
(dp2751
g130
I4
sg131
g132
sg133
g134
sg135
g132
sg136
I01
sg34
g137
sg138
g134
sg139
I0
sg140
I0
sg141
I0
sg142
g134
sg35
g143
sg144
I0
stRp2752
sg146
g147
sg148
F1
sg149
Nsg30
S'CvartA'
p2753
sbag1
(g2
g3
NtRp2754
(dp2755
g6
g1
(g7
g3
NtRp2756
(dp2757
g10
g1
(g11
g12
(dtRp2758
sg14
g1
(g11
g12
(dtRp2759
sg16
g1
(g11
g12
(dtRp2760
sg18
g1
(g11
g12
(dtRp2761
sg20
g1
(g11
g12
(dtRp2762
sg22
g1
(g11
g12
(dtRp2763
sbsg24
g25
sg26
g27
((lp2764
g33
ag32
ag29
ag30
atRp2765
sg37
(lp2766
g1
(g2
g3
NtRp2767
(dp2768
g6
g1
(g7
g3
NtRp2769
(dp2770
g10
g1
(g11
g12
(dtRp2771
sg14
g1
(g11
g12
(dtRp2772
sg16
g1
(g11
g12
(dtRp2773
sg18
g1
(g11
g12
(dtRp2774
sg20
g1
(g11
g12
(dtRp2775
sg22
g1
(g11
g12
(dtRp2776
sbsg24
S'Csu'
p2777
sg26
g27
((lp2778
g29
ag30
aS'sequence'
p2779
ag32
ag33
aS'species'
p2780
atRp2781
sg37
(lp2782
sg120
g2754
sg121
S'RWLSTKDLYSRLELPGLNQNVHAMFVMPLGFGNPLGDMFARLNNSFWLPPLSLEGAGTGWTIYPPLSHSSPSVDLGFHLTSSMLGAINFTNMRGPLFWTAMLLLSLPVLAGTLLDRNFNTFEGGDPLYHLFWFFGHPEVYIIPGFGSHSTYKKFGMYASIALGFVWSHHMYVGLDDRAYFTSSTMIAPTGIKFSWLATYGGRPMLAFLFLFTGGTGVLNASDAFHDSYYY-MAFSLGYYPYNLFWFMFGMPDAGWSSSYQLGPDESNE'
p2783
sg123
F0.0043699999999999998
sg124
g125
sg33
S'147'
p2784
sg127
g1
(g128
g12
(dp2785
g130
I4
sg131
g132
sg133
g134
sg135
g132
sg136
I01
sg34
g137
sg138
g134
sg139
I0
sg140
I0
sg141
I0
sg142
g134
sg35
g143
sg144
I0
stRp2786
sg146
g147
sg148
F1
sg149
Nsg30
S'CsuavB'
p2787
sbag1
(g2
g3
NtRp2788
(dp2789
g6
g1
(g7
g3
NtRp2790
(dp2791
g10
g1
(g11
g12
(dtRp2792
sg14
g1
(g11
g12
(dtRp2793
sg16
g1
(g11
g12
(dtRp2794
sg18
g1
(g11
g12
(dtRp2795
sg20
g1
(g11
g12
(dtRp2796
sg22
g1
(g11
g12
(dtRp2797
sbsg24
S'Csu'
p2798
sg26
g27
((lp2799
g29
ag30
aS'sequence'
p2800
ag32
ag33
aS'species'
p2801
atRp2802
sg37
(lp2803
sg120
g2754
sg121
S'RWLSTKDLYSRLELPGLNQNVHAMFVMPLGFGNPLGDMFARLNNSFWLPPLSLEGAGTGWTIYPPLSHSSPSVDLGFHLTSSLLGAINFTNMRGPLFWTAMLLLSLPVLAGTLLDRNFNTFEGGDPLYHLFWFFGHPEVYIIPGFGSHSTYKKFGMYASIALGFVWSHHMYVGLDDRAYFTSSTMIAPTGIKFSWLATYGGRPMLAFLFLFTGGTGVLNASDAFHDTYYVVMAFSLGYYPYNLFWFMFGMPDAGWSSSYQLGPDESNE'
p2804
sg123
F0.0025999999999999999
sg124
g125
sg33
S'144'
p2805
sg127
g1
(g128
g12
(dp2806
g130
I4
sg131
g132
sg133
g134
sg135
g132
sg136
I01
sg34
g137
sg138
g134
sg139
I0
sg140
I0
sg141
I0
sg142
g134
sg35
g143
sg144
I0
stRp2807
sg146
g147
sg148
F1
sg149
Nsg30
S'CsuavA'
p2808
sbasg120
g2720
sg123
F0.016740000000000001
sg124
g125
sg33
S'141'
p2809
sg127
g1
(g128
g12
(dp2810
g130
I6
sg131
g132
sg133
g134
sg135
g132
sg136
I01
sg34
g174
sg138
g134
sg139
I0
sg140
I0
sg141
I0
sg142
g134
sg35
g175
sg144
I0
stRp2811
sg146
g147
sg148
F0.98999999999999999
sg149
Nsg30
S'NoName'
p2812
sbasg120
g2707
sg123
F0.01158
sg124
g125
sg33
S'148'
p2813
sg127
g1
(g128
g12
(dp2814
g130
I6
sg131
g132
sg133
g134
sg135
g132
sg136
I01
sg34
g174
sg138
g134
sg139
I0
sg140
I0
sg141
I0
sg142
g134
sg35
g175
sg144
I0
stRp2815
sg146
g147
sg148
F0.97999999999999998
sg149
Nsg30
S'NoName'
p2816
sbag1
(g2
g3
NtRp2817
(dp2818
g6
g1
(g7
g3
NtRp2819
(dp2820
g10
g1
(g11
g12
(dtRp2821
sg14
g1
(g11
g12
(dtRp2822
sg16
g1
(g11
g12
(dtRp2823
sg18
g1
(g11
g12
(dtRp2824
sg20
g1
(g11
g12
(dtRp2825
sg22
g1
(g11
g12
(dtRp2826
sbsg24
S'Cja'
p2827
sg26
g27
((lp2828
g29
ag30
aS'sequence'
p2829
ag32
ag33
aS'species'
p2830
atRp2831
sg37
(lp2832
sg120
g2707
sg121
S'RWLSTKDLYSRLELPGLNQNVHAMFVMPLGFGNPLGDMFARLNNSFWLPPLSLEGAGTGWTIYPPLAHSSPSVDLGFHLTSSLLGAINFTNMRGPLFWTAMLLLSLPVLAGTLLDRNFNTFEGGDPLYHLFWFFGHPEVYIIPGFGSHSTYKKFGMYASIALGFVWSHHMYVGLDDRAYFTSSTMIAPTGIKFSWLATYGGRPMLAFLFLFTGGTGVLNASDAFHDTYYVVMAFSLGYYPYNLFWFMFGMPDAGWSSSYQLGPDESNE'
p2833
sg123
F0.033799999999999997
sg124
g125
sg33
S'151'
p2834
sg127
g1
(g128
g12
(dp2835
g130
I4
sg131
g132
sg133
g134
sg135
g132
sg136
I01
sg34
g137
sg138
g134
sg139
I0
sg140
I0
sg141
I0
sg142
g134
sg35
g143
sg144
I0
stRp2836
sg146
g147
sg148
F1
sg149
Nsg30
S'CjadiA'
p2837
sbasg120
g2694
sg123
F0.10375
sg124
g125
sg33
S'212'
p2838
sg127
g1
(g128
g12
(dp2839
g130
I6
sg131
g132
sg133
g134
sg135
g132
sg136
I01
sg34
g174
sg138
g134
sg139
I0
sg140
I0
sg141
I0
sg142
g134
sg35
g175
sg144
I0
stRp2840
sg146
g147
sg148
F0.98999999999999999
sg149
Nsg30
S'NoName'
p2841
sbag1
(g2
g3
NtRp2842
(dp2843
g6
g1
(g7
g3
NtRp2844
(dp2845
g10
g1
(g11
g12
(dtRp2846
sg14
g1
(g11
g12
(dtRp2847
sg16
g1
(g11
g12
(dtRp2848
sg18
g1
(g11
g12
(dtRp2849
sg20
g1
(g11
g12
(dtRp2850
sg22
g1
(g11
g12
(dtRp2851
sbsg24
g25
sg26
g27
((lp2852
g33
ag32
ag29
ag30
atRp2853
sg37
(lp2854
g1
(g2
g3
NtRp2855
(dp2856
g6
g1
(g7
g3
NtRp2857
(dp2858
g10
g1
(g11
g12
(dtRp2859
sg14
g1
(g11
g12
(dtRp2860
sg16
g1
(g11
g12
(dtRp2861
sg18
g1
(g11
g12
(dtRp2862
sg20
g1
(g11
g12
(dtRp2863
sg22
g1
(g11
g12
(dtRp2864
sbsg24
g25
sg26
g27
((lp2865
g33
ag32
ag29
ag30
atRp2866
sg37
(lp2867
g1
(g2
g3
NtRp2868
(dp2869
g6
g1
(g7
g3
NtRp2870
(dp2871
g10
g1
(g11
g12
(dtRp2872
sg14
g1
(g11
g12
(dtRp2873
sg16
g1
(g11
g12
(dtRp2874
sg18
g1
(g11
g12
(dtRp2875
sg20
g1
(g11
g12
(dtRp2876
sg22
g1
(g11
g12
(dtRp2877
sbsg24
S'Wpi'
p2878
sg26
g27
((lp2879
g29
ag30
aS'sequence'
p2880
ag32
ag33
aS'species'
p2881
atRp2882
sg37
(lp2883
sg120
g2855
sg121
S'RWLSTKDLYSRLELPGLNQNVHAMFVMPLGFGNPLGDMFARLNNSFWLPPLSLEGAGTGWTIYPPLSHSSPSVDLGFHLTSSLLGAINFTNMRGPLFWTAMLLLSLPVLAGTLLDRNFNTFEGGDPLYHLFWFFGHPEVYIIPGFGSHSTYKKFGMYASIALGFVWSHHMYVGLDDRAYFTSSTMIAPTGIKFSWLATYGGRPMLAFLFLFTGGTGVLNASDAFHDTYYVVMAFSLGYYPYNLFWFMFGMPDAGWSSSFQLGPDESNE'
p2884
sg123
F0.051209999999999999
sg124
g125
sg33
S'152'
p2885
sg127
g1
(g128
g12
(dp2886
g130
I4
sg131
g132
sg133
g134
sg135
g132
sg136
I01
sg34
g137
sg138
g134
sg139
I0
sg140
I0
sg141
I0
sg142
g134
sg35
g143
sg144
I0
stRp2887
sg146
g147
sg148
F1
sg149
Nsg30
S'WpijpA'
p2888
sbag1
(g2
g3
NtRp2889
(dp2890
g6
g1
(g7
g3
NtRp2891
(dp2892
g10
g1
(g11
g12
(dtRp2893
sg14
g1
(g11
g12
(dtRp2894
sg16
g1
(g11
g12
(dtRp2895
sg18
g1
(g11
g12
(dtRp2896
sg20
g1
(g11
g12
(dtRp2897
sg22
g1
(g11
g12
(dtRp2898
sbsg24
S'Wmu'
p2899
sg26
g27
((lp2900
g29
ag30
aS'sequence'
p2901
ag32
ag33
aS'species'
p2902
atRp2903
sg37
(lp2904
sg120
g2855
sg121
S'RWLSTKDLYSRLELPGLNQNVHAMFVMPLGFGNPLGDMFARLNNSFWLPPLSLEGAGTGWTIYPPLAHSSPSVDLGFHLTSSLLGAINFTNMRGPLFWTAMLLLSLPVLAGTLLDRNFNTFEGGDPLYHLFWFFGHPEVYIIPGFGSHSTYKKFGMYASIALGFVWSHHMYVGLDDRAYFTSSTMIAPTGIKFSWLATYGGRPMLAFLFLFTGGTGVLNASDAFHDTYYVVMAFSLGYYPYNLFWFMFGMPDAGWSSSYQLGPDESNE'
p2905
sg123
F0.079170000000000004
sg124
g125
sg33
S'168'
p2906
sg127
g1
(g128
g12
(dp2907
g130
I4
sg131
g132
sg133
g134
sg135
g132
sg136
I01
sg34
g137
sg138
g134
sg139
I0
sg140
I0
sg141
I0
sg142
g134
sg35
g143
sg144
I0
stRp2908
sg146
g147
sg148
F1
sg149
Nsg30
S'WmucoA'
p2909
sbasg120
g2842
sg123
F0.14757000000000001
sg124
g125
sg33
S'155'
p2910
sg127
g1
(g128
g12
(dp2911
g130
I6
sg131
g132
sg133
g134
sg135
g132
sg136
I01
sg34
g174
sg138
g134
sg139
I0
sg140
I0
sg141
I0
sg142
g134
sg35
g175
sg144
I0
stRp2912
sg146
g147
sg148
F0.98999999999999999
sg149
Nsg30
S'NoName'
p2913
sbag1
(g2
g3
NtRp2914
(dp2915
g6
g1
(g7
g3
NtRp2916
(dp2917
g10
g1
(g11
g12
(dtRp2918
sg14
g1
(g11
g12
(dtRp2919
sg16
g1
(g11
g12
(dtRp2920
sg18
g1
(g11
g12
(dtRp2921
sg20
g1
(g11
g12
(dtRp2922
sg22
g1
(g11
g12
(dtRp2923
sbsg24
g25
sg26
g27
((lp2924
g33
ag32
ag29
ag30
atRp2925
sg37
(lp2926
g1
(g2
g3
NtRp2927
(dp2928
g6
g1
(g7
g3
NtRp2929
(dp2930
g10
g1
(g11
g12
(dtRp2931
sg14
g1
(g11
g12
(dtRp2932
sg16
g1
(g11
g12
(dtRp2933
sg18
g1
(g11
g12
(dtRp2934
sg20
g1
(g11
g12
(dtRp2935
sg22
g1
(g11
g12
(dtRp2936
sbsg24
S'Pca'
p2937
sg26
g27
((lp2938
g29
ag30
aS'sequence'
p2939
ag32
ag33
aS'species'
p2940
atRp2941
sg37
(lp2942
sg120
g2914
sg121
S'RWLSTKDLYSRLELPGLNQNVHAMFVMPLGFGNPLGDMFARLNNSFWLPPLSLEWAGTGWTIYPPLSHSSPSVDLGFHLTSSLLGAINFTNMRGPLFWTAMLLLSLPVLAGTLLDRNFNTFEGGDPLYHLFWFFGHPEVYIIPGFGSHSTYKKFGMYASIALGFVWSHHMYVGLDDRAYFTSSTMIAPTGIKFSWLATYGGRPMLAFLFLFTGGTGVLNASDAFHDTYYVVMAFSLGYYPFNLFWFMFGMPDAGWSSSYQLGPDESNE'
p2943
sg123
F0.10655000000000001
sg124
g125
sg33
S'160'
p2944
sg127
g1
(g128
g12
(dp2945
g130
I4
sg131
g132
sg133
g134
sg135
g132
sg136
I01
sg34
g137
sg138
g134
sg139
I0
sg140
I0
sg141
I0
sg142
g134
sg35
g143
sg144
I0
stRp2946
sg146
g147
sg148
F1
sg149
Nsg30
S'PcanaA'
p2947
sbag1
(g2
g3
NtRp2948
(dp2949
g6
g1
(g7
g3
NtRp2950
(dp2951
g10
g1
(g11
g12
(dtRp2952
sg14
g1
(g11
g12
(dtRp2953
sg16
g1
(g11
g12
(dtRp2954
sg18
g1
(g11
g12
(dtRp2955
sg20
g1
(g11
g12
(dtRp2956
sg22
g1
(g11
g12
(dtRp2957
sbsg24
g25
sg26
g27
((lp2958
g33
ag32
ag29
ag30
atRp2959
sg37
(lp2960
g1
(g2
g3
NtRp2961
(dp2962
g6
g1
(g7
g3
NtRp2963
(dp2964
g10
g1
(g11
g12
(dtRp2965
sg14
g1
(g11
g12
(dtRp2966
sg16
g1
(g11
g12
(dtRp2967
sg18
g1
(g11
g12
(dtRp2968
sg20
g1
(g11
g12
(dtRp2969
sg22
g1
(g11
g12
(dtRp2970
sbsg24
S'Cno'
p2971
sg26
g27
((lp2972
g29
ag30
aS'sequence'
p2973
ag32
ag33
aS'species'
p2974
atRp2975
sg37
(lp2976
sg120
g2948
sg121
S'RWLSTKDLYSRLELPGLNQNVHAMFVMPLGFGNPLGDMFARLNNSFWLPPLSLEGAGTGWTIYPPLSHSSPSVDLGFHLTSSLLGAMNFTNMRGPLFWTAMLLLSLPVLAGTLLDRNFNTFEGGDPLYHLFWFFGHPEVYMIPGFGSHSTYKKFGMYASMALGFVWSHHMYVGLDDRAYFTSSTMMAPTGMKFSWLATYGGRPMLAFLFLFTGGTGVLNASDAFHDTYYVVMAFSLGYYPYNLFWFMFGMPDAGWSSSYQLGPDESNE'
p2977
sg123
F0.059069999999999998
sg124
g125
sg33
S'165'
p2978
sg127
g1
(g128
g12
(dp2979
g130
I4
sg131
g132
sg133
g134
sg135
g132
sg136
I01
sg34
g137
sg138
g134
sg139
I0
sg140
I0
sg141
I0
sg142
g134
sg35
g143
sg144
I0
stRp2980
sg146
g147
sg148
F1
sg149
Nsg30
S'CnorvA'
p2981
sbag1
(g2
g3
NtRp2982
(dp2983
g6
g1
(g7
g3
NtRp2984
(dp2985
g10
g1
(g11
g12
(dtRp2986
sg14
g1
(g11
g12
(dtRp2987
sg16
g1
(g11
g12
(dtRp2988
sg18
g1
(g11
g12
(dtRp2989
sg20
g1
(g11
g12
(dtRp2990
sg22
g1
(g11
g12
(dtRp2991
sbsg24
S'Bca'
p2992
sg26
g27
((lp2993
g29
ag30
aS'sequence'
p2994
ag32
ag33
aS'species'
p2995
atRp2996
sg37
(lp2997
sg120
g2948
sg121
S'RWLSTKDLYSRLELPGLNQNVHAMFVMPLGFGNPLGDMFARLNNSFWLPPLSLEGAGTGWTIYPPLSHSSPSVDLGFHLTSSLLGAINFTNMRGPLFWTAMLLLSLPVLAGTLLDRNFNTFEGGDPLYHLFWFFGHPEVYIMPGFGSHSTYKKFGMYASIALGFVWSHHMYVGLDDRAYFTSSTMIAPTGIKFSWLATYGGRPMLAFLFLFTGGTGVLNASDAFHDTYYVVMAFSLGYYPYNLFWFMFGMPDAGWSSSYQLGPDESNE'
p2998
sg123
F0.031899999999999998
sg124
g125
sg33
S'161'
p2999
sg127
g1
(g128
g12
(dp3000
g130
I4
sg131
g132
sg133
g134
sg135
g132
sg136
I01
sg34
g137
sg138
g134
sg139
I0
sg140
I0
sg141
I0
sg142
g134
sg35
g143
sg144
I0
stRp3001
sg146
g147
sg148
F1
sg149
Nsg30
S'BcaliA'
p3002
sbasg120
g2914
sg123
F0.09486
sg124
g125
sg33
S'158'
p3003
sg127
g1
(g128
g12
(dp3004
g130
I6
sg131
g132
sg133
g134
sg135
g132
sg136
I01
sg34
g174
sg138
g134
sg139
I0
sg140
I0
sg141
I0
sg142
g134
sg35
g175
sg144
I0
stRp3005
sg146
g147
sg148
F0.97999999999999998
sg149
Nsg30
S'NoName'
p3006
sbasg120
g2842
sg123
F0.054690000000000003
sg124
g125
sg33
S'154'
p3007
sg127
g1
(g128
g12
(dp3008
g130
I6
sg131
g132
sg133
g134
sg135
g132
sg136
I01
sg34
g174
sg138
g134
sg139
I0
sg140
I0
sg141
I0
sg142
g134
sg35
g175
sg144
I0
stRp3009
sg146
g147
sg148
F0.96999999999999997
sg149
Nsg30
S'NoName'
p3010
sbasg120
g2694
sg123
F0.051860000000000003
sg124
g125
sg33
S'145'
p3011
sg127
g1
(g128
g12
(dp3012
g130
I6
sg131
g132
sg133
g134
sg135
g132
sg136
I01
sg34
g174
sg138
g134
sg139
I0
sg140
I0
sg141
I0
sg142
g134
sg35
g175
sg144
I0
stRp3013
sg146
g147
sg148
F0.96999999999999997
sg149
Nsg30
S'NoName'
p3014
sbasg120
g2681
sg123
F0.52095999999999998
sg124
g125
sg33
S'214'
p3015
sg127
g1
(g128
g12
(dp3016
g130
I6
sg131
g132
sg133
g134
sg135
g132
sg136
I01
sg34
g174
sg138
g134
sg139
I0
sg140
I0
sg141
I0
sg142
g134
sg35
g175
sg144
I0
stRp3017
sg146
g147
sg148
F0.98999999999999999
sg149
Nsg30
S'NoName'
p3018
sbag1
(g2
g3
NtRp3019
(dp3020
g6
g1
(g7
g3
NtRp3021
(dp3022
g10
g1
(g11
g12
(dtRp3023
sg14
g1
(g11
g12
(dtRp3024
sg16
g1
(g11
g12
(dtRp3025
sg18
g1
(g11
g12
(dtRp3026
sg20
g1
(g11
g12
(dtRp3027
sg22
g1
(g11
g12
(dtRp3028
sbsg24
g25
sg26
g27
((lp3029
g33
ag32
ag29
ag30
atRp3030
sg37
(lp3031
g1
(g2
g3
NtRp3032
(dp3033
g6
g1
(g7
g3
NtRp3034
(dp3035
g10
g1
(g11
g12
(dtRp3036
sg14
g1
(g11
g12
(dtRp3037
sg16
g1
(g11
g12
(dtRp3038
sg18
g1
(g11
g12
(dtRp3039
sg20
g1
(g11
g12
(dtRp3040
sg22
g1
(g11
g12
(dtRp3041
sbsg24
g25
sg26
g27
((lp3042
g33
ag32
ag29
ag30
atRp3043
sg37
(lp3044
g1
(g2
g3
NtRp3045
(dp3046
g6
g1
(g7
g3
NtRp3047
(dp3048
g10
g1
(g11
g12
(dtRp3049
sg14
g1
(g11
g12
(dtRp3050
sg16
g1
(g11
g12
(dtRp3051
sg18
g1
(g11
g12
(dtRp3052
sg20
g1
(g11
g12
(dtRp3053
sg22
g1
(g11
g12
(dtRp3054
sbsg24
g25
sg26
g27
((lp3055
g33
ag32
ag29
ag30
atRp3056
sg37
(lp3057
g1
(g2
g3
NtRp3058
(dp3059
g6
g1
(g7
g3
NtRp3060
(dp3061
g10
g1
(g11
g12
(dtRp3062
sg14
g1
(g11
g12
(dtRp3063
sg16
g1
(g11
g12
(dtRp3064
sg18
g1
(g11
g12
(dtRp3065
sg20
g1
(g11
g12
(dtRp3066
sg22
g1
(g11
g12
(dtRp3067
sbsg24
g25
sg26
g27
((lp3068
g33
ag32
ag29
ag30
atRp3069
sg37
(lp3070
g1
(g2
g3
NtRp3071
(dp3072
g6
g1
(g7
g3
NtRp3073
(dp3074
g10
g1
(g11
g12
(dtRp3075
sg14
g1
(g11
g12
(dtRp3076
sg16
g1
(g11
g12
(dtRp3077
sg18
g1
(g11
g12
(dtRp3078
sg20
g1
(g11
g12
(dtRp3079
sg22
g1
(g11
g12
(dtRp3080
sbsg24
g25
sg26
g27
((lp3081
g33
ag32
ag29
ag30
atRp3082
sg37
(lp3083
g1
(g2
g3
NtRp3084
(dp3085
g6
g1
(g7
g3
NtRp3086
(dp3087
g10
g1
(g11
g12
(dtRp3088
sg14
g1
(g11
g12
(dtRp3089
sg16
g1
(g11
g12
(dtRp3090
sg18
g1
(g11
g12
(dtRp3091
sg20
g1
(g11
g12
(dtRp3092
sg22
g1
(g11
g12
(dtRp3093
sbsg24
g25
sg26
g27
((lp3094
g33
ag32
ag29
ag30
atRp3095
sg37
(lp3096
g1
(g2
g3
NtRp3097
(dp3098
g6
g1
(g7
g3
NtRp3099
(dp3100
g10
g1
(g11
g12
(dtRp3101
sg14
g1
(g11
g12
(dtRp3102
sg16
g1
(g11
g12
(dtRp3103
sg18
g1
(g11
g12
(dtRp3104
sg20
g1
(g11
g12
(dtRp3105
sg22
g1
(g11
g12
(dtRp3106
sbsg24
S'Lkl'
p3107
sg26
g27
((lp3108
g29
ag30
aS'sequence'
p3109
ag32
ag33
aS'species'
p3110
atRp3111
sg37
(lp3112
sg120
g3084
sg121
S'RWLSTKDLYSRLELPGLNQNVHAMFVMPLGFGNPMGDMFARLNNSFWLPPLSLEGAGTGWTVYPPLSHSGPSVDLAFHLTSSLLGAINFTNMRGPLFWTALLLLSLPVLAGTLLDRNFNTFEGGDPLYHLFWFFGHPEVYIIPGFGSHSTYKKFGMYASIGLGFVWSHHMYVGLDDRAYFLSATMIAPTGIKFSWLATYGGRPMLAFLFLFTGGTGVLNASDAFHDLYYVVMAFSLGYYPYNLFWFMFGMPDAGWSSSYQLGPDESNE'
p3113
sg123
F0.00044999999999999999
sg124
g125
sg33
S'177'
p3114
sg127
g1
(g128
g12
(dp3115
g130
I4
sg131
g132
sg133
g134
sg135
g132
sg136
I01
sg34
g137
sg138
g134
sg139
I0
sg140
I0
sg141
I0
sg142
g134
sg35
g143
sg144
I0
stRp3116
sg146
g147
sg148
F1
sg149
Nsg30
S'LkluyE'
p3117
sbag1
(g2
g3
NtRp3118
(dp3119
g6
g1
(g7
g3
NtRp3120
(dp3121
g10
g1
(g11
g12
(dtRp3122
sg14
g1
(g11
g12
(dtRp3123
sg16
g1
(g11
g12
(dtRp3124
sg18
g1
(g11
g12
(dtRp3125
sg20
g1
(g11
g12
(dtRp3126
sg22
g1
(g11
g12
(dtRp3127
sbsg24
S'Lkl'
p3128
sg26
g27
((lp3129
g29
ag30
aS'sequence'
p3130
ag32
ag33
aS'species'
p3131
atRp3132
sg37
(lp3133
sg120
g3084
sg121
S'RWLSTKDLYSRLELPGLNQNVHAMFVMPLGFGNPMGDMFARLNNSFWLPPLSLEGAGTGWTVYPPLSHSGPSVDLAFHLTSSLLGAINFTNMRGPLFWTALLLLSLPVLAGTLLDRNFNTFEGGDPLYHLFWFFGHPEVYIIPGFGSHSTYKKFGMYASIGLGFVWSHHMYVGLDDRAYFLSATMIAPTGIKFSWLATYGGRPMLAFLFLFTGGTGVLNASDAFHDLYYVVMAFSLGYYPYNLFWFMFGMPDAGWSSSYQLGPDESNE'
p3134
sg123
F0.0077400000000000004
sg124
g125
sg33
S'223'
p3135
sg127
g1
(g128
g12
(dp3136
g130
I4
sg131
g132
sg133
g134
sg135
g132
sg136
I01
sg34
g137
sg138
g134
sg139
I0
sg140
I0
sg141
I0
sg142
g134
sg35
g143
sg144
I0
stRp3137
sg146
g147
sg148
F1
sg149
Nsg30
S'LkluyD'
p3138
sbasg120
g3071
sg123
F0.0017099999999999999
sg124
g125
sg33
S'221'
p3139
sg127
g1
(g128
g12
(dp3140
g130
I6
sg131
g132
sg133
g134
sg135
g132
sg136
I01
sg34
g174
sg138
g134
sg139
I0
sg140
I0
sg141
I0
sg142
g134
sg35
g175
sg144
I0
stRp3141
sg146
g147
sg148
F0.56000000000000005
sg149
Nsg30
S'NoName'
p3142
sbag1
(g2
g3
NtRp3143
(dp3144
g6
g1
(g7
g3
NtRp3145
(dp3146
g10
g1
(g11
g12
(dtRp3147
sg14
g1
(g11
g12
(dtRp3148
sg16
g1
(g11
g12
(dtRp3149
sg18
g1
(g11
g12
(dtRp3150
sg20
g1
(g11
g12
(dtRp3151
sg22
g1
(g11
g12
(dtRp3152
sbsg24
g25
sg26
g27
((lp3153
g33
ag32
ag29
ag30
atRp3154
sg37
(lp3155
g1
(g2
g3
NtRp3156
(dp3157
g6
g1
(g7
g3
NtRp3158
(dp3159
g10
g1
(g11
g12
(dtRp3160
sg14
g1
(g11
g12
(dtRp3161
sg16
g1
(g11
g12
(dtRp3162
sg18
g1
(g11
g12
(dtRp3163
sg20
g1
(g11
g12
(dtRp3164
sg22
g1
(g11
g12
(dtRp3165
sbsg24
g25
sg26
g27
((lp3166
g33
ag32
ag29
ag30
atRp3167
sg37
(lp3168
g1
(g2
g3
NtRp3169
(dp3170
g6
g1
(g7
g3
NtRp3171
(dp3172
g10
g1
(g11
g12
(dtRp3173
sg14
g1
(g11
g12
(dtRp3174
sg16
g1
(g11
g12
(dtRp3175
sg18
g1
(g11
g12
(dtRp3176
sg20
g1
(g11
g12
(dtRp3177
sg22
g1
(g11
g12
(dtRp3178
sbsg24
g25
sg26
g27
((lp3179
g33
ag32
ag29
ag30
atRp3180
sg37
(lp3181
g1
(g2
g3
NtRp3182
(dp3183
g6
g1
(g7
g3
NtRp3184
(dp3185
g10
g1
(g11
g12
(dtRp3186
sg14
g1
(g11
g12
(dtRp3187
sg16
g1
(g11
g12
(dtRp3188
sg18
g1
(g11
g12
(dtRp3189
sg20
g1
(g11
g12
(dtRp3190
sg22
g1
(g11
g12
(dtRp3191
sbsg24
S'Lkl'
p3192
sg26
g27
((lp3193
g29
ag30
aS'sequence'
p3194
ag32
ag33
aS'species'
p3195
atRp3196
sg37
(lp3197
sg120
g3169
sg121
S'RWLSTKDLYSRLELPGLNQNVHAMFVMPLGFGNPMGDMFARLNNSFWLPPLSLEGAGTGWTVYPPLSHSGPSVDLAFHLTSSLLGAINFTNMRGPLFWTALLLLSLPVLAGTLLDRNFNTFEGGDPLYHLFWFFGHPEVYIIPGFGSHSTYKKFGMYASIGLGFVWSHHMYVGLDDRAYFLSATMIAPTGIKFSWLATYGGRPMLAFLFLFTGGTGVLNASDAFHDLYYVVMAFSLGYYPYNLFWFMFGMPDAGWSSSYQLGPDESNE'
p3198
sg123
F0.00038999999999999999
sg124
g125
sg33
S'179'
p3199
sg127
g1
(g128
g12
(dp3200
g130
I4
sg131
g132
sg133
g134
sg135
g132
sg136
I01
sg34
g137
sg138
g134
sg139
I0
sg140
I0
sg141
I0
sg142
g134
sg35
g143
sg144
I0
stRp3201
sg146
g147
sg148
F1
sg149
Nsg30
S'LkluyF'
p3202
sbag1
(g2
g3
NtRp3203
(dp3204
g6
g1
(g7
g3
NtRp3205
(dp3206
g10
g1
(g11
g12
(dtRp3207
sg14
g1
(g11
g12
(dtRp3208
sg16
g1
(g11
g12
(dtRp3209
sg18
g1
(g11
g12
(dtRp3210
sg20
g1
(g11
g12
(dtRp3211
sg22
g1
(g11
g12
(dtRp3212
sbsg24
S'Lkl'
p3213
sg26
g27
((lp3214
g29
ag30
aS'sequence'
p3215
ag32
ag33
aS'species'
p3216
atRp3217
sg37
(lp3218
sg120
g3169
sg121
S'RWLSTKDLYSRLELPGLNQNVHAMFVMPLGFGNPMGDMFARLNNSFWLPPLSLEGAGTGWTVYPPLSHSGPSVDLAFHLTSSLLGAINFTNMRGPLFWTALLLLSLPVLAGTLLDRNFNTFEGGDPLYHLFWFFGHPEVYIIPGFGSHSTYKKFGMYASIGLGFVWSHHMYVGLDDRAYFLSATMIAPTGIKFSWLATYGGRPMLAFLFLFTGGTGVLNASDAFHDLYYVVMAFSLGYYPYNLFWFMFGMPDAGWSSSYQLGPDESNE'
p3219
sg123
F0.00038000000000000002
sg124
g125
sg33
S'1'
sg127
g1
(g128
g12
(dp3220
g130
I4
sg131
g132
sg133
g134
sg135
g132
sg136
I01
sg34
g137
sg138
g134
sg139
I0
sg140
I0
sg141
I0
sg142
g134
sg35
g143
sg144
I0
stRp3221
sg146
g147
sg148
F1
sg149
Nsg30
S'LkluyC'
p3222
sbasg120
g3156
sg123
F1.0000000000000001e-05
sg124
g125
sg33
S'187'
p3223
sg127
g1
(g128
g12
(dp3224
g130
I6
sg131
g132
sg133
g134
sg135
g132
sg136
I01
sg34
g174
sg138
g134
sg139
I0
sg140
I0
sg141
I0
sg142
g134
sg35
g175
sg144
I0
stRp3225
sg146
g147
sg148
F1
sg149
Nsg30
S'NoName'
p3226
sbag1
(g2
g3
NtRp3227
(dp3228
g6
g1
(g7
g3
NtRp3229
(dp3230
g10
g1
(g11
g12
(dtRp3231
sg14
g1
(g11
g12
(dtRp3232
sg16
g1
(g11
g12
(dtRp3233
sg18
g1
(g11
g12
(dtRp3234
sg20
g1
(g11
g12
(dtRp3235
sg22
g1
(g11
g12
(dtRp3236
sbsg24
S'Lkl'
p3237
sg26
g27
((lp3238
g29
ag30
aS'sequence'
p3239
ag32
ag33
aS'species'
p3240
atRp3241
sg37
(lp3242
sg120
g3156
sg121
S'RWLSTKDLYSRLELPGLNQNVHAMFVMPLGFGNPMGDMFARLNNSFWLPPLSLEGAGTGWTVYPPLSHSGPSVDLAFHLTSSLLGAINFTNMRGPLFWTALLLLSLPVLAGTLLDRNFNTFEGGDPLYHLFWFFGHPEVYIIPGFGSHSTYKKFGMYASIGLGFVWSHHMYVGLDDRAYFLSATMIAPTGIKFSWLATYGGRPMLAFLFLFTGGTGVLNASDAFHDLYYVVMAFSLGYYPYNLFWFMFGMPDAGWSSSYQLGPDESNE'
p3243
sg123
F0.00040999999999999999
sg124
g125
sg33
S'184'
p3244
sg127
g1
(g128
g12
(dp3245
g130
I4
sg131
g132
sg133
g134
sg135
g132
sg136
I01
sg34
g137
sg138
g134
sg139
I0
sg140
I0
sg141
I0
sg142
g134
sg35
g143
sg144
I0
stRp3246
sg146
g147
sg148
F1
sg149
Nsg30
S'LkluyB'
p3247
sbasg120
g3143
sg123
F1.0000000000000001e-05
sg124
g125
sg33
S'183'
p3248
sg127
g1
(g128
g12
(dp3249
g130
I6
sg131
g132
sg133
g134
sg135
g132
sg136
I01
sg34
g174
sg138
g134
sg139
I0
sg140
I0
sg141
I0
sg142
g134
sg35
g175
sg144
I0
stRp3250
sg146
g147
sg148
F1
sg149
Nsg30
S'NoName'
p3251
sbag1
(g2
g3
NtRp3252
(dp3253
g6
g1
(g7
g3
NtRp3254
(dp3255
g10
g1
(g11
g12
(dtRp3256
sg14
g1
(g11
g12
(dtRp3257
sg16
g1
(g11
g12
(dtRp3258
sg18
g1
(g11
g12
(dtRp3259
sg20
g1
(g11
g12
(dtRp3260
sg22
g1
(g11
g12
(dtRp3261
sbsg24
S'Lkl'
p3262
sg26
g27
((lp3263
g29
ag30
aS'sequence'
p3264
ag32
ag33
aS'species'
p3265
atRp3266
sg37
(lp3267
sg120
g3143
sg121
S'RWLSTKDLYSRLELPGLNQNVHAMFVMPLGFGNPMGDMFARLNNSFWLPPLSLEGAGTGWTVYPPLSHSGPSVDLAFHLTSSLLGAINFTNMRGPLFWTALLLLSLPVLAGTLLDRNFNTFEGGDPLYHLFWFFGHPEVYIIPGFGSHSTYKKFGMYASIGLGFVWSHHMYVGLDDRAYFLSATMIAPTGIKFSWLATYGGRPMLAFLFLFTGGTGVLNASDAFHDLYYVVMAFSLGYYPYNLFWFMFGMPDAGWSSSYQLGPDESNE'
p3268
sg123
F0.00040999999999999999
sg124
g125
sg33
S'191'
p3269
sg127
g1
(g128
g12
(dp3270
g130
I4
sg131
g132
sg133
g134
sg135
g132
sg136
I01
sg34
g137
sg138
g134
sg139
I0
sg140
I0
sg141
I0
sg142
g134
sg35
g143
sg144
I0
stRp3271
sg146
g147
sg148
F1
sg149
Nsg30
S'LkluyA'
p3272
sbasg120
g3071
sg123
F0.0035300000000000002
sg124
g125
sg33
S'125'
p3273
sg127
g1
(g128
g12
(dp3274
g130
I6
sg131
g132
sg133
g134
sg135
g132
sg136
I01
sg34
g174
sg138
g134
sg139
I0
sg140
I0
sg141
I0
sg142
g134
sg35
g175
sg144
I0
stRp3275
sg146
g147
sg148
F0.91000000000000003
sg149
Nsg30
S'NoName'
p3276
sbasg120
g3058
sg123
F0.054280000000000002
sg124
g125
sg33
S'171'
p3277
sg127
g1
(g128
g12
(dp3278
g130
I6
sg131
g132
sg133
g134
sg135
g132
sg136
I01
sg34
g174
sg138
g134
sg139
I0
sg140
I0
sg141
I0
sg142
g134
sg35
g175
sg144
I0
stRp3279
sg146
g147
sg148
F0.98999999999999999
sg149
Nsg30
S'NoName'
p3280
sbag1
(g2
g3
NtRp3281
(dp3282
g6
g1
(g7
g3
NtRp3283
(dp3284
g10
g1
(g11
g12
(dtRp3285
sg14
g1
(g11
g12
(dtRp3286
sg16
g1
(g11
g12
(dtRp3287
sg18
g1
(g11
g12
(dtRp3288
sg20
g1
(g11
g12
(dtRp3289
sg22
g1
(g11
g12
(dtRp3290
sbsg24
g25
sg26
g27
((lp3291
g33
ag32
ag29
ag30
atRp3292
sg37
(lp3293
g1
(g2
g3
NtRp3294
(dp3295
g6
g1
(g7
g3
NtRp3296
(dp3297
g10
g1
(g11
g12
(dtRp3298
sg14
g1
(g11
g12
(dtRp3299
sg16
g1
(g11
g12
(dtRp3300
sg18
g1
(g11
g12
(dtRp3301
sg20
g1
(g11
g12
(dtRp3302
sg22
g1
(g11
g12
(dtRp3303
sbsg24
S'Lan'
p3304
sg26
g27
((lp3305
g29
ag30
aS'sequence'
p3306
ag32
ag33
aS'species'
p3307
atRp3308
sg37
(lp3309
sg120
g3281
sg121
S'RWLSTKDLYSRLELPGLNQNVHAMFVMPLGFGNPMGDMFARLNNSFWLPPLSLEGAGTGWTLYPPLSHSGPSVDLAFHLTSSLLGAINFTNMRGPLFWTALLLLSLPVLAGTVLDRNFNTFEGGDPLYHLFWFFGHPEVYIIPGFGSHSTYKKFGMYASIGLGFVWSHHMYVGLDDRAYFTSATMIAPTGIKFSWLALYGGRPMLAFLFLFTGGTGVLNASDAFHDTYYVVMAFSLGYYPYNLFWFMFGMPDAGWSSSYQLGPDESNE'
p3310
sg123
F0.10922999999999999
sg124
g125
sg33
S'107'
p3311
sg127
g1
(g128
g12
(dp3312
g130
I4
sg131
g132
sg133
g134
sg135
g132
sg136
I01
sg34
g137
sg138
g134
sg139
I0
sg140
I0
sg141
I0
sg142
g134
sg35
g143
sg144
I0
stRp3313
sg146
g147
sg148
F1
sg149
Nsg30
S'LanspA'
p3314
sbag1
(g2
g3
NtRp3315
(dp3316
g6
g1
(g7
g3
NtRp3317
(dp3318
g10
g1
(g11
g12
(dtRp3319
sg14
g1
(g11
g12
(dtRp3320
sg16
g1
(g11
g12
(dtRp3321
sg18
g1
(g11
g12
(dtRp3322
sg20
g1
(g11
g12
(dtRp3323
sg22
g1
(g11
g12
(dtRp3324
sbsg24
g25
sg26
g27
((lp3325
g33
ag32
ag29
ag30
atRp3326
sg37
(lp3327
g1
(g2
g3
NtRp3328
(dp3329
g6
g1
(g7
g3
NtRp3330
(dp3331
g10
g1
(g11
g12
(dtRp3332
sg14
g1
(g11
g12
(dtRp3333
sg16
g1
(g11
g12
(dtRp3334
sg18
g1
(g11
g12
(dtRp3335
sg20
g1
(g11
g12
(dtRp3336
sg22
g1
(g11
g12
(dtRp3337
sbsg24
g25
sg26
g27
((lp3338
g33
ag32
ag29
ag30
atRp3339
sg37
(lp3340
g1
(g2
g3
NtRp3341
(dp3342
g6
g1
(g7
g3
NtRp3343
(dp3344
g10
g1
(g11
g12
(dtRp3345
sg14
g1
(g11
g12
(dtRp3346
sg16
g1
(g11
g12
(dtRp3347
sg18
g1
(g11
g12
(dtRp3348
sg20
g1
(g11
g12
(dtRp3349
sg22
g1
(g11
g12
(dtRp3350
sbsg24
S'Lno'
p3351
sg26
g27
((lp3352
g29
ag30
aS'sequence'
p3353
ag32
ag33
aS'species'
p3354
atRp3355
sg37
(lp3356
sg120
g3328
sg121
S'RWLSTKDLYSRLELPGLNQNVHAMFVMPLGFGNPMGDMFARLNNSFWLPPLSLEGAGTGWTIYPPLSHSGPSVDLAFHLTSSLLGAINFTNMRGPLFWTALLLLSLPVLAGTILDRNFNTFEGGDPLYHLFWFFGHPEVYIIPGFGSHSTYKKFGMYASIGLGFVWSHHMYVGLDDRAYFTSALMIAPTGIKFSWLALYGGRPMLAFLFLFTGGTGVLNASDAFHDTYYVVMAFSLGYYPYNLFWFMFGMPDAGWSSSYQLGPDESNE'
p3357
sg123
F0.0075199999999999998
sg124
g125
sg33
S'131'
p3358
sg127
g1
(g128
g12
(dp3359
g130
I4
sg131
g132
sg133
g134
sg135
g132
sg136
I01
sg34
g137
sg138
g134
sg139
I0
sg140
I0
sg141
I0
sg142
g134
sg35
g143
sg144
I0
stRp3360
sg146
g147
sg148
F1
sg149
Nsg30
S'LnothA'
p3361
sbag1
(g2
g3
NtRp3362
(dp3363
g6
g1
(g7
g3
NtRp3364
(dp3365
g10
g1
(g11
g12
(dtRp3366
sg14
g1
(g11
g12
(dtRp3367
sg16
g1
(g11
g12
(dtRp3368
sg18
g1
(g11
g12
(dtRp3369
sg20
g1
(g11
g12
(dtRp3370
sg22
g1
(g11
g12
(dtRp3371
sbsg24
g25
sg26
g27
((lp3372
g33
ag32
ag29
ag30
atRp3373
sg37
(lp3374
g1
(g2
g3
NtRp3375
(dp3376
g6
g1
(g7
g3
NtRp3377
(dp3378
g10
g1
(g11
g12
(dtRp3379
sg14
g1
(g11
g12
(dtRp3380
sg16
g1
(g11
g12
(dtRp3381
sg18
g1
(g11
g12
(dtRp3382
sg20
g1
(g11
g12
(dtRp3383
sg22
g1
(g11
g12
(dtRp3384
sbsg24
S'Lda'
p3385
sg26
g27
((lp3386
g29
ag30
aS'sequence'
p3387
ag32
ag33
aS'species'
p3388
atRp3389
sg37
(lp3390
sg120
g3362
sg121
S'RWLSTKDLYSRLELPGLNQNVHAMFVMPLGFGNPMGDMFARLNNSFWLPPLSLEGAGTGWTVYPPLSHSGPSVDLAFHLTSSLLGAINFTNMRGPLFWTALLLLSLPVLAGTILDRNFNTFEGGDPLYHLFWFFGHPEVYIIPGFGSHSTYKKFGMYASIGLGFVWSHHMYVGLDDRAYFTSATMIAPTGIKFSWLALYGGRPMLAFLFLFTGGTGVLNASDAFHDTYYVVMAFSLGYYPYNLFWFMFGMPDAGWSSSYQLGPDESNE'
p3391
sg123
F0.023539999999999998
sg124
g125
sg33
S'124'
p3392
sg127
g1
(g128
g12
(dp3393
g130
I4
sg131
g132
sg133
g134
sg135
g132
sg136
I01
sg34
g137
sg138
g134
sg139
I0
sg140
I0
sg141
I0
sg142
g134
sg35
g143
sg144
I0
stRp3394
sg146
g147
sg148
F1
sg149
Nsg30
S'LdasiA'
p3395
sbag1
(g2
g3
NtRp3396
(dp3397
g6
g1
(g7
g3
NtRp3398
(dp3399
g10
g1
(g11
g12
(dtRp3400
sg14
g1
(g11
g12
(dtRp3401
sg16
g1
(g11
g12
(dtRp3402
sg18
g1
(g11
g12
(dtRp3403
sg20
g1
(g11
g12
(dtRp3404
sg22
g1
(g11
g12
(dtRp3405
sbsg24
g25
sg26
g27
((lp3406
g33
ag32
ag29
ag30
atRp3407
sg37
(lp3408
g1
(g2
g3
NtRp3409
(dp3410
g6
g1
(g7
g3
NtRp3411
(dp3412
g10
g1
(g11
g12
(dtRp3413
sg14
g1
(g11
g12
(dtRp3414
sg16
g1
(g11
g12
(dtRp3415
sg18
g1
(g11
g12
(dtRp3416
sg20
g1
(g11
g12
(dtRp3417
sg22
g1
(g11
g12
(dtRp3418
sbsg24
S'Lme'
p3419
sg26
g27
((lp3420
g29
ag30
aS'sequence'
p3421
ag32
ag33
aS'species'
p3422
atRp3423
sg37
(lp3424
sg120
g3396
sg121
S'RWLSTKDLYSRLELPGLNQNVHAMFVMPLGFGNPMGDMFARLNNSFWLPPLSLEGAGTGWTVYPPLSHSGPSVDLAFHLTSSLLGAINFTNMRGPLFWTALLLLSLPVLAGTILDRNFNTFEGGDPLYHLFWFFGHPEVYIIPGFGSHSTYKKFGMYASIGLGFVWSHHMYVGLDDRAYFTSATMIAPTGIKFSWLALYGGRPMLAFLFLFTGGTGVLNASDAFHDTYYVVMAFSLGYYPYNLFWFMFGMPDAGWSSSYQLGPDESNE'
p3425
sg123
F0.0050299999999999997
sg124
g125
sg33
S'128'
p3426
sg127
g1
(g128
g12
(dp3427
g130
I4
sg131
g132
sg133
g134
sg135
g132
sg136
I01
sg34
g137
sg138
g134
sg139
I0
sg140
I0
sg141
I0
sg142
g134
sg35
g143
sg144
I0
stRp3428
sg146
g147
sg148
F1
sg149
Nsg30
S'LmeyeA'
p3429
sbag1
(g2
g3
NtRp3430
(dp3431
g6
g1
(g7
g3
NtRp3432
(dp3433
g10
g1
(g11
g12
(dtRp3434
sg14
g1
(g11
g12
(dtRp3435
sg16
g1
(g11
g12
(dtRp3436
sg18
g1
(g11
g12
(dtRp3437
sg20
g1
(g11
g12
(dtRp3438
sg22
g1
(g11
g12
(dtRp3439
sbsg24
S'Lan'
p3440
sg26
g27
((lp3441
g29
ag30
aS'sequence'
p3442
ag32
ag33
aS'species'
p3443
atRp3444
sg37
(lp3445
sg120
g3396
sg121
S'RWLSTKDLYSRLELPGLNQNVHAMFVMPLGFGNPMGDMFARLNNSFWLPPLSLEGAGTGWTVYPPLSHSGPSVDLAFHLTSSLLGAINFTNMRGPLFWTALLLLSLPVLAGTILDRNFNTFEGGDPLYHLFWFFGHPEVYIIPGFGSHSTYKKFGMYASIGLGFVWSHHMYVGLDDRAYFTSALMIAPTGIKFSWLALYGGRPMLAFLFLFTGGTGVLNASDAFHDTYYVVMAFSLGYYPYNLFWFMFGMPDAGWSSSYQLGPDESNE'
p3446
sg123
F0.012290000000000001
sg124
g125
sg33
S'134'
p3447
sg127
g1
(g128
g12
(dp3448
g130
I4
sg131
g132
sg133
g134
sg135
g132
sg136
I01
sg34
g137
sg138
g134
sg139
I0
sg140
I0
sg141
I0
sg142
g134
sg35
g143
sg144
I0
stRp3449
sg146
g147
sg148
F1
sg149
Nsg30
S'LanspB'
p3450
sbasg120
g3362
sg123
F0.012070000000000001
sg124
g125
sg33
S'126'
p3451
sg127
g1
(g128
g12
(dp3452
g130
I6
sg131
g132
sg133
g134
sg135
g132
sg136
I01
sg34
g174
sg138
g134
sg139
I0
sg140
I0
sg141
I0
sg142
g134
sg35
g175
sg144
I0
stRp3453
sg146
g147
sg148
F0.98999999999999999
sg149
Nsg30
S'NoName'
p3454
sbasg120
g3328
sg123
F0.0088199999999999997
sg124
g125
sg33
S'127'
p3455
sg127
g1
(g128
g12
(dp3456
g130
I6
sg131
g132
sg133
g134
sg135
g132
sg136
I01
sg34
g174
sg138
g134
sg139
I0
sg140
I0
sg141
I0
sg142
g134
sg35
g175
sg144
I0
stRp3457
sg146
g147
sg148
F0.95999999999999996
sg149
Nsg30
S'NoName'
p3458
sbasg120
g3315
sg123
F0.016570000000000001
sg124
g125
sg33
S'192'
p3459
sg127
g1
(g128
g12
(dp3460
g130
I6
sg131
g132
sg133
g134
sg135
g132
sg136
I01
sg34
g174
sg138
g134
sg139
I0
sg140
I0
sg141
I0
sg142
g134
sg35
g175
sg144
I0
stRp3461
sg146
g147
sg148
F0.94999999999999996
sg149
Nsg30
S'NoName'
p3462
sbag1
(g2
g3
NtRp3463
(dp3464
g6
g1
(g7
g3
NtRp3465
(dp3466
g10
g1
(g11
g12
(dtRp3467
sg14
g1
(g11
g12
(dtRp3468
sg16
g1
(g11
g12
(dtRp3469
sg18
g1
(g11
g12
(dtRp3470
sg20
g1
(g11
g12
(dtRp3471
sg22
g1
(g11
g12
(dtRp3472
sbsg24
S'Kth'
p3473
sg26
g27
((lp3474
g29
ag30
aS'sequence'
p3475
ag32
ag33
aS'species'
p3476
atRp3477
sg37
(lp3478
sg120
g3315
sg121
S'RWLSTKDLYSRLELPGLNQNVHAMFVMPLGFGNPMGDMFARLNNSFWLPPLSLEGAGTGWTVYPPLSHSGPSVDLAFHLTSSLLGAINFTNMRGPLFWTALLLLSLPVLAGTILDRNFNTFEGGDPLYHLFWFFGHPEVYIIPGFGSHSTYKKFGMYASIGLGFVWSHHMYVGLDDRAYFTSATMIAPTGIKFSWLALYGGRPMLAFLFLFTGGTGVLNASDAFHDTYYVVMAFSLGYYPYNLFWFMFGMPDAGWSSSYQLGPDESNE'
p3479
sg123
F0.021499999999999998
sg124
g125
sg33
S'132'
p3480
sg127
g1
(g128
g12
(dp3481
g130
I4
sg131
g132
sg133
g134
sg135
g132
sg136
I01
sg34
g137
sg138
g134
sg139
I0
sg140
I0
sg141
I0
sg142
g134
sg35
g143
sg144
I0
stRp3482
sg146
g147
sg148
F1
sg149
Nsg30
S'KtherA'
p3483
sbasg120
g3281
sg123
F0.033250000000000002
sg124
g125
sg33
S'189'
p3484
sg127
g1
(g128
g12
(dp3485
g130
I6
sg131
g132
sg133
g134
sg135
g132
sg136
I01
sg34
g174
sg138
g134
sg139
I0
sg140
I0
sg141
I0
sg142
g134
sg35
g175
sg144
I0
stRp3486
sg146
g147
sg148
F0.93999999999999995
sg149
Nsg30
S'NoName'
p3487
sbasg120
g3058
sg123
F0.038859999999999999
sg124
g125
sg33
S'181'
p3488
sg127
g1
(g128
g12
(dp3489
g130
I6
sg131
g132
sg133
g134
sg135
g132
sg136
I01
sg34
g174
sg138
g134
sg139
I0
sg140
I0
sg141
I0
sg142
g134
sg35
g175
sg144
I0
stRp3490
sg146
g147
sg148
F0.92000000000000004
sg149
Nsg30
S'NoName'
p3491
sbasg120
g3045
sg123
F0.050380000000000001
sg124
g125
sg33
S'172'
p3492
sg127
g1
(g128
g12
(dp3493
g130
I6
sg131
g132
sg133
g134
sg135
g132
sg136
I01
sg34
g174
sg138
g134
sg139
I0
sg140
I0
sg141
I0
sg142
g134
sg35
g175
sg144
I0
stRp3494
sg146
g147
sg148
F0.89000000000000001
sg149
Nsg30
S'NoName'
p3495
sbag1
(g2
g3
NtRp3496
(dp3497
g6
g1
(g7
g3
NtRp3498
(dp3499
g10
g1
(g11
g12
(dtRp3500
sg14
g1
(g11
g12
(dtRp3501
sg16
g1
(g11
g12
(dtRp3502
sg18
g1
(g11
g12
(dtRp3503
sg20
g1
(g11
g12
(dtRp3504
sg22
g1
(g11
g12
(dtRp3505
sbsg24
g25
sg26
g27
((lp3506
g33
ag32
ag29
ag30
atRp3507
sg37
(lp3508
g1
(g2
g3
NtRp3509
(dp3510
g6
g1
(g7
g3
NtRp3511
(dp3512
g10
g1
(g11
g12
(dtRp3513
sg14
g1
(g11
g12
(dtRp3514
sg16
g1
(g11
g12
(dtRp3515
sg18
g1
(g11
g12
(dtRp3516
sg20
g1
(g11
g12
(dtRp3517
sg22
g1
(g11
g12
(dtRp3518
sbsg24
S'Kma'
p3519
sg26
g27
((lp3520
g29
ag30
aS'sequence'
p3521
ag32
ag33
aS'species'
p3522
atRp3523
sg37
(lp3524
sg120
g3496
sg121
S'RWLSTKDLYSRLELPGLNQNVHAMFVMPLGFGNPMGDMFARLNNSFWLPPLSLEGAGTGWTVYPPLSHSGPSVDLAFHLTSSLLGAINFTNMRGPLFWTALLLLSLPVLAGTLLDRNFNTFEGGDPLYHLFWFFGHPEVYIIPGFGSHSTYKKFGMYASIGLGFVWSHHMYVGLDDRAYFTSATMIAPTGIKFSWLATYGGRPMLAFLFLFTGGTGVLNASDAFHDTYYVVMAFSLGYYPYNLFWFMFGMPDAGWSSSYQLGPDESNE'
p3525
sg123
F0.04018
sg124
g125
sg33
S'106'
p3526
sg127
g1
(g128
g12
(dp3527
g130
I4
sg131
g132
sg133
g134
sg135
g132
sg136
I01
sg34
g137
sg138
g134
sg139
I0
sg140
I0
sg141
I0
sg142
g134
sg35
g143
sg144
I0
stRp3528
sg146
g147
sg148
F1
sg149
Nsg30
S'KmarxA'
p3529
sbag1
(g2
g3
NtRp3530
(dp3531
g6
g1
(g7
g3
NtRp3532
(dp3533
g10
g1
(g11
g12
(dtRp3534
sg14
g1
(g11
g12
(dtRp3535
sg16
g1
(g11
g12
(dtRp3536
sg18
g1
(g11
g12
(dtRp3537
sg20
g1
(g11
g12
(dtRp3538
sg22
g1
(g11
g12
(dtRp3539
sbsg24
S'Kla'
p3540
sg26
g27
((lp3541
g29
ag30
aS'sequence'
p3542
ag32
ag33
aS'species'
p3543
atRp3544
sg37
(lp3545
sg120
g3496
sg121
S'RWLSTKDLYSRLELPGLNQNVHAMFVMPLGFGNPLGDMFARLNNSFWLPPLSLEGAGTGWTVYPPLSHSGPSVDLAFHLTSSLLGAINFTNMRGPLFWTALLLLSLPVLAGTLLDRNFNTFEGGDPLYHLFWFFGHPEVYIIPGFGSHSTYKKFGMYASIGLGFVWSHHMYVGLDDRAYFTSATMIAPTGIKFSWLATYGGRPMLAFLFLFTGGTGVLNASDAFHDTYYVVMAFSLGYYPYNLFWFMFGMPDAGWSSSYQLGPDESNE'
p3546
sg123
F0.043529999999999999
sg124
g125
sg33
S'218'
p3547
sg127
g1
(g128
g12
(dp3548
g130
I4
sg131
g132
sg133
g134
sg135
g132
sg136
I01
sg34
g137
sg138
g134
sg139
I0
sg140
I0
sg141
I0
sg142
g134
sg35
g143
sg144
I0
stRp3549
sg146
g147
sg148
F1
sg149
Nsg30
S'KlactA'
p3550
sbasg120
g3045
sg123
F0.13938999999999999
sg124
g125
sg33
S'137'
p3551
sg127
g1
(g128
g12
(dp3552
g130
I6
sg131
g132
sg133
g134
sg135
g132
sg136
I01
sg34
g174
sg138
g134
sg139
I0
sg140
I0
sg141
I0
sg142
g134
sg35
g175
sg144
I0
stRp3553
sg146
g147
sg148
F0.98999999999999999
sg149
Nsg30
S'NoName'
p3554
sbasg120
g3032
sg123
F1.0000000000000001e-05
sg124
g125
sg33
S'174'
p3555
sg127
g1
(g128
g12
(dp3556
g130
I6
sg131
g132
sg133
g134
sg135
g132
sg136
I01
sg34
g174
sg138
g134
sg139
I0
sg140
I0
sg141
I0
sg142
g134
sg35
g175
sg144
I0
stRp3557
sg146
g147
sg148
F1
sg149
Nsg30
S'NoName'
p3558
sbag1
(g2
g3
NtRp3559
(dp3560
g6
g1
(g7
g3
NtRp3561
(dp3562
g10
g1
(g11
g12
(dtRp3563
sg14
g1
(g11
g12
(dtRp3564
sg16
g1
(g11
g12
(dtRp3565
sg18
g1
(g11
g12
(dtRp3566
sg20
g1
(g11
g12
(dtRp3567
sg22
g1
(g11
g12
(dtRp3568
sbsg24
g25
sg26
g27
((lp3569
g33
ag32
ag29
ag30
atRp3570
sg37
(lp3571
g1
(g2
g3
NtRp3572
(dp3573
g6
g1
(g7
g3
NtRp3574
(dp3575
g10
g1
(g11
g12
(dtRp3576
sg14
g1
(g11
g12
(dtRp3577
sg16
g1
(g11
g12
(dtRp3578
sg18
g1
(g11
g12
(dtRp3579
sg20
g1
(g11
g12
(dtRp3580
sg22
g1
(g11
g12
(dtRp3581
sbsg24
S'Huv'
p3582
sg26
g27
((lp3583
g29
ag30
aS'sequence'
p3584
ag32
ag33
aS'species'
p3585
atRp3586
sg37
(lp3587
sg120
g3559
sg121
S'-MITTKDLYSRLELSGINHNSHAMFIMPIGFGNPAGDMFPRLNNSFWLVPVSLEGAGTGWTVYYPLSHSSVSVDLVFHCLSSLLGAINFTNFL-SLFWLALLLLSLPVLVGTLLDRNFNLYEGGDPLYHLFWFFGHPEVYIIPAFGSMSAYSKFGMYASIGLGFVWVHHMFVGLDDRAYFTSATMIAPLGIKFSWLALIGGRPVLAFLVLFLGGTGVLNASDAFHDTYYVVLAFGIGYYPYNLFVVMYGMSDSAWTASVQLGTDLLPE'
p3588
sg123
F3.9441199999999998
sg124
g125
sg33
S'24'
p3589
sg127
g1
(g128
g12
(dp3590
g130
I4
sg131
g132
sg133
g134
sg135
g132
sg136
I01
sg34
g137
sg138
g134
sg139
I0
sg140
I0
sg141
I0
sg142
g134
sg35
g143
sg144
I0
stRp3591
sg146
g147
sg148
F1
sg149
Nsg30
S'HuvarA'
p3592
sbag1
(g2
g3
NtRp3593
(dp3594
g6
g1
(g7
g3
NtRp3595
(dp3596
g10
g1
(g11
g12
(dtRp3597
sg14
g1
(g11
g12
(dtRp3598
sg16
g1
(g11
g12
(dtRp3599
sg18
g1
(g11
g12
(dtRp3600
sg20
g1
(g11
g12
(dtRp3601
sg22
g1
(g11
g12
(dtRp3602
sbsg24
g25
sg26
g27
((lp3603
g33
ag32
ag29
ag30
atRp3604
sg37
(lp3605
g1
(g2
g3
NtRp3606
(dp3607
g6
g1
(g7
g3
NtRp3608
(dp3609
g10
g1
(g11
g12
(dtRp3610
sg14
g1
(g11
g12
(dtRp3611
sg16
g1
(g11
g12
(dtRp3612
sg18
g1
(g11
g12
(dtRp3613
sg20
g1
(g11
g12
(dtRp3614
sg22
g1
(g11
g12
(dtRp3615
sbsg24
g25
sg26
g27
((lp3616
g33
ag32
ag29
ag30
atRp3617
sg37
(lp3618
g1
(g2
g3
NtRp3619
(dp3620
g6
g1
(g7
g3
NtRp3621
(dp3622
g10
g1
(g11
g12
(dtRp3623
sg14
g1
(g11
g12
(dtRp3624
sg16
g1
(g11
g12
(dtRp3625
sg18
g1
(g11
g12
(dtRp3626
sg20
g1
(g11
g12
(dtRp3627
sg22
g1
(g11
g12
(dtRp3628
sbsg24
g25
sg26
g27
((lp3629
g33
ag32
ag29
ag30
atRp3630
sg37
(lp3631
g1
(g2
g3
NtRp3632
(dp3633
g6
g1
(g7
g3
NtRp3634
(dp3635
g10
g1
(g11
g12
(dtRp3636
sg14
g1
(g11
g12
(dtRp3637
sg16
g1
(g11
g12
(dtRp3638
sg18
g1
(g11
g12
(dtRp3639
sg20
g1
(g11
g12
(dtRp3640
sg22
g1
(g11
g12
(dtRp3641
sbsg24
S'Sse'
p3642
sg26
g27
((lp3643
g29
ag30
aS'sequence'
p3644
ag32
ag33
aS'species'
p3645
atRp3646
sg37
(lp3647
sg120
g3619
sg121
S'RWLSTKDMYSRMELPGLNQNVHAMFAMPLGFGNPMGDMFPRINSGFWLPMLSLEGAGTGWTVYPPLSHSGPSVDLAFHLTSSLLGAINFTNMRGPLFWTALLLLSLPVLAGTLLDRNFNTFEGGDPFYHAFWFFGHPEVYIIPGFGSHSTYKKFGMYASIGLGFVWSHHMYVGLDDRAYFTSATMIAPTGIKFSWLALYGGRPMMAFLFLFTGGTGVLNASDAFHDTYYVVMAFSLGYYPYNLFWFMFGMPDAGWSSSYQIGPDESNE'
p3648
sg123
F0.29805999999999999
sg124
g125
sg33
S'29'
p3649
sg127
g1
(g128
g12
(dp3650
g130
I4
sg131
g132
sg133
g134
sg135
g132
sg136
I01
sg34
g137
sg138
g134
sg139
I0
sg140
I0
sg141
I0
sg142
g134
sg35
g143
sg144
I0
stRp3651
sg146
g147
sg148
F1
sg149
Nsg30
S'SservA'
p3652
sbag1
(g2
g3
NtRp3653
(dp3654
g6
g1
(g7
g3
NtRp3655
(dp3656
g10
g1
(g11
g12
(dtRp3657
sg14
g1
(g11
g12
(dtRp3658
sg16
g1
(g11
g12
(dtRp3659
sg18
g1
(g11
g12
(dtRp3660
sg20
g1
(g11
g12
(dtRp3661
sg22
g1
(g11
g12
(dtRp3662
sbsg24
S'Sca'
p3663
sg26
g27
((lp3664
g29
ag30
aS'sequence'
p3665
ag32
ag33
aS'species'
p3666
atRp3667
sg37
(lp3668
sg120
g3619
sg121
S'RWLSTKDLYSRLELPGLNQNVHAMFVMPLGFGNPMGDTFPRINNGFWLPMLSLEGAGTGWTVYPPLAHSGPSVDLAFHMTSSLLGAINFTNMRGPLFWTALLLLTLPVLAGTLLDRNFNTFEGGDPLYHLFWFFGHPEVYIIPGFGSHSTYKKFGMYASIGLGLVWSHHMYVGLDDRAYFTSATMIAPTGIKFSWLATYGGRPMLAFLFLFTGGTGVLNASDAFHDLYYVVMAFSLGYYPYNLFWFMFGMPDAGWSASYQLGPDESNE'
p3669
sg123
F0.30890000000000001
sg124
g125
sg33
S'139'
p3670
sg127
g1
(g128
g12
(dp3671
g130
I4
sg131
g132
sg133
g134
sg135
g132
sg136
I01
sg34
g137
sg138
g134
sg139
I0
sg140
I0
sg141
I0
sg142
g134
sg35
g143
sg144
I0
stRp3672
sg146
g147
sg148
F1
sg149
Nsg30
S'ScastA'
p3673
sbasg120
g3606
sg123
F0.072319999999999995
sg124
g125
sg33
S'94'
p3674
sg127
g1
(g128
g12
(dp3675
g130
I6
sg131
g132
sg133
g134
sg135
g132
sg136
I01
sg34
g174
sg138
g134
sg139
I0
sg140
I0
sg141
I0
sg142
g134
sg35
g175
sg144
I0
stRp3676
sg146
g147
sg148
F0.98999999999999999
sg149
Nsg30
S'NoName'
p3677
sbag1
(g2
g3
NtRp3678
(dp3679
g6
g1
(g7
g3
NtRp3680
(dp3681
g10
g1
(g11
g12
(dtRp3682
sg14
g1
(g11
g12
(dtRp3683
sg16
g1
(g11
g12
(dtRp3684
sg18
g1
(g11
g12
(dtRp3685
sg20
g1
(g11
g12
(dtRp3686
sg22
g1
(g11
g12
(dtRp3687
sbsg24
g25
sg26
g27
((lp3688
g33
ag32
ag29
ag30
atRp3689
sg37
(lp3690
g1
(g2
g3
NtRp3691
(dp3692
g6
g1
(g7
g3
NtRp3693
(dp3694
g10
g1
(g11
g12
(dtRp3695
sg14
g1
(g11
g12
(dtRp3696
sg16
g1
(g11
g12
(dtRp3697
sg18
g1
(g11
g12
(dtRp3698
sg20
g1
(g11
g12
(dtRp3699
sg22
g1
(g11
g12
(dtRp3700
sbsg24
S'Spa'
p3701
sg26
g27
((lp3702
g29
ag30
aS'sequence'
p3703
ag32
ag33
aS'species'
p3704
atRp3705
sg37
(lp3706
sg120
g3678
sg121
S'RWLSTKDLYSRLELPGLNQNVHAMFVMPLGFGNPMGDTFPRINNAFWLPMLSLEGAGTGWTVYPPLSHSGPSVDLAFHLTSSLLGAINFTNMRGPLFWTALLLLSLPVLAGTLLDRNFNTFEGGDPLYHLFWFFGHPEVYIIPGFGSHSTYKKFGMYASIGLGFVWSHHMYVGLDDRAYFLSATMIAPTGIKFSWLATYGGRPMLAFLFLFTGGTGVLNASDAFHDTYYVVMAFSLGYYPYNLFWFMFGMPDAGWSSSYQLGPDESNE'
p3707
sg123
F0.029780000000000001
sg124
g125
sg33
S'4'
sg127
g1
(g128
g12
(dp3708
g130
I4
sg131
g132
sg133
g134
sg135
g132
sg136
I01
sg34
g137
sg138
g134
sg139
I0
sg140
I0
sg141
I0
sg142
g134
sg35
g143
sg144
I0
stRp3709
sg146
g147
sg148
F1
sg149
Nsg30
S'SpastA'
p3710
sbag1
(g2
g3
NtRp3711
(dp3712
g6
g1
(g7
g3
NtRp3713
(dp3714
g10
g1
(g11
g12
(dtRp3715
sg14
g1
(g11
g12
(dtRp3716
sg16
g1
(g11
g12
(dtRp3717
sg18
g1
(g11
g12
(dtRp3718
sg20
g1
(g11
g12
(dtRp3719
sg22
g1
(g11
g12
(dtRp3720
sbsg24
g25
sg26
g27
((lp3721
g33
ag32
ag29
ag30
atRp3722
sg37
(lp3723
g1
(g2
g3
NtRp3724
(dp3725
g6
g1
(g7
g3
NtRp3726
(dp3727
g10
g1
(g11
g12
(dtRp3728
sg14
g1
(g11
g12
(dtRp3729
sg16
g1
(g11
g12
(dtRp3730
sg18
g1
(g11
g12
(dtRp3731
sg20
g1
(g11
g12
(dtRp3732
sg22
g1
(g11
g12
(dtRp3733
sbsg24
g25
sg26
g27
((lp3734
g33
ag32
ag29
ag30
atRp3735
sg37
(lp3736
g1
(g2
g3
NtRp3737
(dp3738
g6
g1
(g7
g3
NtRp3739
(dp3740
g10
g1
(g11
g12
(dtRp3741
sg14
g1
(g11
g12
(dtRp3742
sg16
g1
(g11
g12
(dtRp3743
sg18
g1
(g11
g12
(dtRp3744
sg20
g1
(g11
g12
(dtRp3745
sg22
g1
(g11
g12
(dtRp3746
sbsg24
S'Sce'
p3747
sg26
g27
((lp3748
g29
ag30
aS'sequence'
p3749
ag32
ag33
aS'species'
p3750
atRp3751
sg37
(lp3752
sg120
g3724
sg121
S'RWLSTKDLYSRLELPGLNQNVHAMFVMPLGFGNPMGDTFPRINNAFWLPMLSLEGAGTGWTVYPPLSHSGPSVDLAFHLTSSLLGAINFTNMRGPLFWTALLLLSLPVLAGTLLDRNFNTFEGGDPLYHLFWFFGHPEVYIIPGFGSHSTYKKFGMYASIGLGFVWSHHMYVGLDDRAYFLSALMIAPTGIKFSWLALYGGRPMLAFLFLFTGGTGVLNASDAFHDTYYVVMAFSLGYYPYNLFWFMFGMPDAGWSSSYQLGPDESNE'
p3753
sg123
F0.0038700000000000002
sg124
g125
sg33
S'22'
p3754
sg127
g1
(g128
g12
(dp3755
g130
I4
sg131
g132
sg133
g134
sg135
g132
sg136
I01
sg34
g137
sg138
g134
sg139
I0
sg140
I0
sg141
I0
sg142
g134
sg35
g143
sg144
I0
stRp3756
sg146
g147
sg148
F1
sg149
Nsg30
S'ScereD'
p3757
sbag1
(g2
g3
NtRp3758
(dp3759
g6
g1
(g7
g3
NtRp3760
(dp3761
g10
g1
(g11
g12
(dtRp3762
sg14
g1
(g11
g12
(dtRp3763
sg16
g1
(g11
g12
(dtRp3764
sg18
g1
(g11
g12
(dtRp3765
sg20
g1
(g11
g12
(dtRp3766
sg22
g1
(g11
g12
(dtRp3767
sbsg24
g25
sg26
g27
((lp3768
g33
ag32
ag29
ag30
atRp3769
sg37
(lp3770
g1
(g2
g3
NtRp3771
(dp3772
g6
g1
(g7
g3
NtRp3773
(dp3774
g10
g1
(g11
g12
(dtRp3775
sg14
g1
(g11
g12
(dtRp3776
sg16
g1
(g11
g12
(dtRp3777
sg18
g1
(g11
g12
(dtRp3778
sg20
g1
(g11
g12
(dtRp3779
sg22
g1
(g11
g12
(dtRp3780
sbsg24
S'Sce'
p3781
sg26
g27
((lp3782
g29
ag30
aS'sequence'
p3783
ag32
ag33
aS'species'
p3784
atRp3785
sg37
(lp3786
sg120
g3758
sg121
S'RWLSTKDLYSRLELPGLNQNVHAMFVMPLGFGNPMGDTFPRINNAFWLPMLSLEGAGTGWTVYPPLSHSGPSVDLAFHLTSSLLGAINFTNMRGPLFWTALLLLSLPVLAGTLLDRNFNTFEGGDPLYHLFWFFGHPEVYIIPGFGSHSTYKKFGMYASIGLGFVWSHHMYVGLDDRAYFLSALMIAPTGIKFSWLALYGGRPMLAFLFLFTGGTGVLNASDAFHDTYYVVMAFSLGYYPYNLFWFMFGMPDAGWSSSYQLGPDESNE'
p3787
sg123
F0.0075900000000000004
sg124
g125
sg33
S'150'
p3788
sg127
g1
(g128
g12
(dp3789
g130
I4
sg131
g132
sg133
g134
sg135
g132
sg136
I01
sg34
g137
sg138
g134
sg139
I0
sg140
I0
sg141
I0
sg142
g134
sg35
g143
sg144
I0
stRp3790
sg146
g147
sg148
F1
sg149
Nsg30
S'ScereE'
p3791
sbag1
(g2
g3
NtRp3792
(dp3793
g6
g1
(g7
g3
NtRp3794
(dp3795
g10
g1
(g11
g12
(dtRp3796
sg14
g1
(g11
g12
(dtRp3797
sg16
g1
(g11
g12
(dtRp3798
sg18
g1
(g11
g12
(dtRp3799
sg20
g1
(g11
g12
(dtRp3800
sg22
g1
(g11
g12
(dtRp3801
sbsg24
g25
sg26
g27
((lp3802
g33
ag32
ag29
ag30
atRp3803
sg37
(lp3804
g1
(g2
g3
NtRp3805
(dp3806
g6
g1
(g7
g3
NtRp3807
(dp3808
g10
g1
(g11
g12
(dtRp3809
sg14
g1
(g11
g12
(dtRp3810
sg16
g1
(g11
g12
(dtRp3811
sg18
g1
(g11
g12
(dtRp3812
sg20
g1
(g11
g12
(dtRp3813
sg22
g1
(g11
g12
(dtRp3814
sbsg24
S'Sce'
p3815
sg26
g27
((lp3816
g29
ag30
aS'sequence'
p3817
ag32
ag33
aS'species'
p3818
atRp3819
sg37
(lp3820
sg120
g3792
sg121
S'RWLSTKDLYSRLELPGLNQNVHAMFVMPLGFGNPMGDTFPRINNAFWLPMLSLEGAGTGWTVYPPLSHSGPSVDLAFHLTSSLLGAINFTNMRGPLFWTALLLLSLPVLAGTLLDRNFNTFEGGDPLYHLFWFFGHPEVYIIPGFGSHSTYKKFGMYASIGLGFVWSHHMYVGLDDRAYFLSALMIAPTGIKFSWLALHGGRPMLAFLFLFTGGTGVLNASDAFHDTYYVVMAFSLGYYPYNLFWFMFGMPDAGWSSSYQLGPDESNE'
p3821
sg123
F0.0053899999999999998
sg124
g125
sg33
S'15'
p3822
sg127
g1
(g128
g12
(dp3823
g130
I4
sg131
g132
sg133
g134
sg135
g132
sg136
I01
sg34
g137
sg138
g134
sg139
I0
sg140
I0
sg141
I0
sg142
g134
sg35
g143
sg144
I0
stRp3824
sg146
g147
sg148
F1
sg149
Nsg30
S'ScereC'
p3825
sbag1
(g2
g3
NtRp3826
(dp3827
g6
g1
(g7
g3
NtRp3828
(dp3829
g10
g1
(g11
g12
(dtRp3830
sg14
g1
(g11
g12
(dtRp3831
sg16
g1
(g11
g12
(dtRp3832
sg18
g1
(g11
g12
(dtRp3833
sg20
g1
(g11
g12
(dtRp3834
sg22
g1
(g11
g12
(dtRp3835
sbsg24
S'Sce'
p3836
sg26
g27
((lp3837
g29
ag30
aS'sequence'
p3838
ag32
ag33
aS'species'
p3839
atRp3840
sg37
(lp3841
sg120
g3792
sg121
S'RWLSTKDLYSRLELPGLNQNVHAMFVMPLGFGNPMGDTFPRINNAFWLPMLSLEGAGTGWTVYPPLSHSGPSVDLAFHLTSSLLGAINFTNMRGPLFWTALLLLSLPVLAGTLLDRNFNTFEGGDPLYHLFWFFGHPEVYIIPGFGSHSTYKKFGMYASIGLGFVWSHHMYVGLDDRAYFLSALMIAPTGIKFSWLALYGGRPMLAFLFLFTGGTGVLNASDAFHDTYYVVMAFSLGYYPYNLFWFMFGMPDAGWSSSYQLGPDESNE'
p3842
sg123
F0.0066400000000000001
sg124
g125
sg33
S'195'
p3843
sg127
g1
(g128
g12
(dp3844
g130
I4
sg131
g132
sg133
g134
sg135
g132
sg136
I01
sg34
g137
sg138
g134
sg139
I0
sg140
I0
sg141
I0
sg142
g134
sg35
g143
sg144
I0
stRp3845
sg146
g147
sg148
F1
sg149
Nsg30
S'ScereA'
p3846
sbasg120
g3758
sg123
F0.00596
sg124
g125
sg33
S'175'
p3847
sg127
g1
(g128
g12
(dp3848
g130
I6
sg131
g132
sg133
g134
sg135
g132
sg136
I01
sg34
g174
sg138
g134
sg139
I0
sg140
I0
sg141
I0
sg142
g134
sg35
g175
sg144
I0
stRp3849
sg146
g147
sg148
F0.98999999999999999
sg149
Nsg30
S'NoName'
p3850
sbasg120
g3724
sg123
F0.0050600000000000003
sg124
g125
sg33
S'169'
p3851
sg127
g1
(g128
g12
(dp3852
g130
I6
sg131
g132
sg133
g134
sg135
g132
sg136
I01
sg34
g174
sg138
g134
sg139
I0
sg140
I0
sg141
I0
sg142
g134
sg35
g175
sg144
I0
stRp3853
sg146
g147
sg148
F0.66000000000000003
sg149
Nsg30
S'NoName'
p3854
sbasg120
g3711
sg123
F0.017850000000000001
sg124
g125
sg33
S'130'
p3855
sg127
g1
(g128
g12
(dp3856
g130
I6
sg131
g132
sg133
g134
sg135
g132
sg136
I01
sg34
g174
sg138
g134
sg139
I0
sg140
I0
sg141
I0
sg142
g134
sg35
g175
sg144
I0
stRp3857
sg146
g147
sg148
F0.89000000000000001
sg149
Nsg30
S'NoName'
p3858
sbag1
(g2
g3
NtRp3859
(dp3860
g6
g1
(g7
g3
NtRp3861
(dp3862
g10
g1
(g11
g12
(dtRp3863
sg14
g1
(g11
g12
(dtRp3864
sg16
g1
(g11
g12
(dtRp3865
sg18
g1
(g11
g12
(dtRp3866
sg20
g1
(g11
g12
(dtRp3867
sg22
g1
(g11
g12
(dtRp3868
sbsg24
S'Sar'
p3869
sg26
g27
((lp3870
g29
ag30
aS'sequence'
p3871
ag32
ag33
aS'species'
p3872
atRp3873
sg37
(lp3874
sg120
g3711
sg121
S'RWLSTKDLYSRLELPGLNQNVHAMFVMPLGFGNPMGDTFPRINNAFWLPMLSLEGAGTGWTVYPPLSHSGPSVDLAFHLTSSLLGAINFTNMRGPLFWTALLLLSLPVLAGTLLDRNFNTFEGGDPLYHLFWFFGHPEVYIIPGFGSHSTYKKFGMYASIGLGFVWSHHMYVGLDDRAYFLSALMIAPTGIKFSWLALYGGRPMLAFLFLFTGGTGVLNASDAFHDTYYVVMAFSLGYYPYNLFWFMFGMPDAGWSSSYQLGPDESNE'
p3875
sg123
F0.047230000000000001
sg124
g125
sg33
S'185'
p3876
sg127
g1
(g128
g12
(dp3877
g130
I4
sg131
g132
sg133
g134
sg135
g132
sg136
I01
sg34
g137
sg138
g134
sg139
I0
sg140
I0
sg141
I0
sg142
g134
sg35
g143
sg144
I0
stRp3878
sg146
g147
sg148
F1
sg149
Nsg30
S'SarboA'
p3879
sbasg120
g3678
sg123
F0.023619999999999999
sg124
g125
sg33
S'69'
p3880
sg127
g1
(g128
g12
(dp3881
g130
I6
sg131
g132
sg133
g134
sg135
g132
sg136
I01
sg34
g174
sg138
g134
sg139
I0
sg140
I0
sg141
I0
sg142
g134
sg35
g175
sg144
I0
stRp3882
sg146
g147
sg148
F0.92000000000000004
sg149
Nsg30
S'NoName'
p3883
sbasg120
g3606
sg123
F0.18547
sg124
g125
sg33
S'208'
p3884
sg127
g1
(g128
g12
(dp3885
g130
I6
sg131
g132
sg133
g134
sg135
g132
sg136
I01
sg34
g174
sg138
g134
sg139
I0
sg140
I0
sg141
I0
sg142
g134
sg35
g175
sg144
I0
stRp3886
sg146
g147
sg148
F0.98999999999999999
sg149
Nsg30
S'NoName'
p3887
sbasg120
g3593
sg123
F0.03594
sg124
g125
sg33
S'77'
p3888
sg127
g1
(g128
g12
(dp3889
g130
I6
sg131
g132
sg133
g134
sg135
g132
sg136
I01
sg34
g174
sg138
g134
sg139
I0
sg140
I0
sg141
I0
sg142
g134
sg35
g175
sg144
I0
stRp3890
sg146
g147
sg148
F0.98999999999999999
sg149
Nsg30
S'NoName'
p3891
sbag1
(g2
g3
NtRp3892
(dp3893
g6
g1
(g7
g3
NtRp3894
(dp3895
g10
g1
(g11
g12
(dtRp3896
sg14
g1
(g11
g12
(dtRp3897
sg16
g1
(g11
g12
(dtRp3898
sg18
g1
(g11
g12
(dtRp3899
sg20
g1
(g11
g12
(dtRp3900
sg22
g1
(g11
g12
(dtRp3901
sbsg24
g25
sg26
g27
((lp3902
g33
ag32
ag29
ag30
atRp3903
sg37
(lp3904
g1
(g2
g3
NtRp3905
(dp3906
g6
g1
(g7
g3
NtRp3907
(dp3908
g10
g1
(g11
g12
(dtRp3909
sg14
g1
(g11
g12
(dtRp3910
sg16
g1
(g11
g12
(dtRp3911
sg18
g1
(g11
g12
(dtRp3912
sg20
g1
(g11
g12
(dtRp3913
sg22
g1
(g11
g12
(dtRp3914
sbsg24
g25
sg26
g27
((lp3915
g33
ag32
ag29
ag30
atRp3916
sg37
(lp3917
g1
(g2
g3
NtRp3918
(dp3919
g6
g1
(g7
g3
NtRp3920
(dp3921
g10
g1
(g11
g12
(dtRp3922
sg14
g1
(g11
g12
(dtRp3923
sg16
g1
(g11
g12
(dtRp3924
sg18
g1
(g11
g12
(dtRp3925
sg20
g1
(g11
g12
(dtRp3926
sg22
g1
(g11
g12
(dtRp3927
sbsg24
S'Nde'
p3928
sg26
g27
((lp3929
g29
ag30
aS'sequence'
p3930
ag32
ag33
aS'species'
p3931
atRp3932
sg37
(lp3933
sg120
g3905
sg121
S'RWLSTKDLYSRLELPGLNQNVHAMFVMPLGFGNPMGDMFPRLNNGFWIVPLSLEGAGTGWTVYPPLSHSGPSVDLAFHMTSSLLGAINFTNMRGPLFWTALLLLSLPVFAGTLLDRNFNTFEGGDPLYHLFWFFGHPEVYIIPGFGSHSTYKKFGMYASIGLGFVWSHHMYVGLDDRAYFTSATMIAPTGIKFSWLATYGGRPMLAFLFLFTGGTGVLNASDAFHDTYYVVMAFSTGYYPYNLFWFMFGMPDAGWSSSYQFGPDESNE'
p3934
sg123
F0.063509999999999997
sg124
g125
sg33
S'0'
sg127
g1
(g128
g12
(dp3935
g130
I4
sg131
g132
sg133
g134
sg135
g132
sg136
I01
sg34
g137
sg138
g134
sg139
I0
sg140
I0
sg141
I0
sg142
g134
sg35
g143
sg144
I0
stRp3936
sg146
g147
sg148
F1
sg149
Nsg30
S'NdelpA'
p3937
sbag1
(g2
g3
NtRp3938
(dp3939
g6
g1
(g7
g3
NtRp3940
(dp3941
g10
g1
(g11
g12
(dtRp3942
sg14
g1
(g11
g12
(dtRp3943
sg16
g1
(g11
g12
(dtRp3944
sg18
g1
(g11
g12
(dtRp3945
sg20
g1
(g11
g12
(dtRp3946
sg22
g1
(g11
g12
(dtRp3947
sbsg24
S'Cgl'
p3948
sg26
g27
((lp3949
g29
ag30
aS'sequence'
p3950
ag32
ag33
aS'species'
p3951
atRp3952
sg37
(lp3953
sg120
g3905
sg121
S'RWLSTKDLYSRLELPGLNQNVHAMFVMPLGFGNPMGDMFPRLNNGFWIVPLSLEGAGTGWTVYPPLSHSGPSVDLAFHLTSSLLGSINFTNMRGPLFWTALLLLSLPVLAGTLLDRNFNTFEGGDPLYHLFWFFGHPEVYIIPGFGSHSTYKKFGMYASIGLGFVWSHHMYVGLDDRAYFTSATMIAPTGIKFSWLATYGGRPMLAFLFLFTGGTGVLNASDAFHDTYYVVMAFSTGYYPYNLFWFMFGMPDAGWSSSYQFGPDESNE'
p3954
sg123
F0.03882
sg124
g125
sg33
S'198'
p3955
sg127
g1
(g128
g12
(dp3956
g130
I4
sg131
g132
sg133
g134
sg135
g132
sg136
I01
sg34
g137
sg138
g134
sg139
I0
sg140
I0
sg141
I0
sg142
g134
sg35
g143
sg144
I0
stRp3957
sg146
g147
sg148
F1
sg149
Nsg30
S'CglabA'
p3958
sbasg120
g3892
sg123
F0.16661999999999999
sg124
g125
sg33
S'143'
p3959
sg127
g1
(g128
g12
(dp3960
g130
I6
sg131
g132
sg133
g134
sg135
g132
sg136
I01
sg34
g174
sg138
g134
sg139
I0
sg140
I0
sg141
I0
sg142
g134
sg35
g175
sg144
I0
stRp3961
sg146
g147
sg148
F0.98999999999999999
sg149
Nsg30
S'NoName'
p3962
sbag1
(g2
g3
NtRp3963
(dp3964
g6
g1
(g7
g3
NtRp3965
(dp3966
g10
g1
(g11
g12
(dtRp3967
sg14
g1
(g11
g12
(dtRp3968
sg16
g1
(g11
g12
(dtRp3969
sg18
g1
(g11
g12
(dtRp3970
sg20
g1
(g11
g12
(dtRp3971
sg22
g1
(g11
g12
(dtRp3972
sbsg24
g25
sg26
g27
((lp3973
g33
ag32
ag29
ag30
atRp3974
sg37
(lp3975
g1
(g2
g3
NtRp3976
(dp3977
g6
g1
(g7
g3
NtRp3978
(dp3979
g10
g1
(g11
g12
(dtRp3980
sg14
g1
(g11
g12
(dtRp3981
sg16
g1
(g11
g12
(dtRp3982
sg18
g1
(g11
g12
(dtRp3983
sg20
g1
(g11
g12
(dtRp3984
sg22
g1
(g11
g12
(dtRp3985
sbsg24
S'Nba'
p3986
sg26
g27
((lp3987
g29
ag30
aS'sequence'
p3988
ag32
ag33
aS'species'
p3989
atRp3990
sg37
(lp3991
sg120
g3963
sg121
S'RWLSTKDLYSRMELPGLNQNVHAMFVMPLGFGNPMGDMFPRLNNGFWMPALSLEGAGTGWTVYPPLSHSGPSVDLAFHLSSSLLGAINFTNMRGPLFWTALLLFSLPVFAGTLLDRNFNTFEGGDPLYHLFWFFGHPEVYIIPGFGSHSTYKKFGMYASIGLGFVWSHHMYVGLDDRAYFTSATMIAPTGIKFSWLALYGGRPMLAFLFLFTGGTGVLNASDAFHDTYYVVMAFSVAYYPYNLFWFMFGMPDAGWSSSYQLGPDESNE'
p3992
sg123
F0.29926999999999998
sg124
g125
sg33
S'45'
p3993
sg127
g1
(g128
g12
(dp3994
g130
I4
sg131
g132
sg133
g134
sg135
g132
sg136
I01
sg34
g137
sg138
g134
sg139
I0
sg140
I0
sg141
I0
sg142
g134
sg35
g143
sg144
I0
stRp3995
sg146
g147
sg148
F1
sg149
Nsg30
S'NbaciA'
p3996
sbag1
(g2
g3
NtRp3997
(dp3998
g6
g1
(g7
g3
NtRp3999
(dp4000
g10
g1
(g11
g12
(dtRp4001
sg14
g1
(g11
g12
(dtRp4002
sg16
g1
(g11
g12
(dtRp4003
sg18
g1
(g11
g12
(dtRp4004
sg20
g1
(g11
g12
(dtRp4005
sg22
g1
(g11
g12
(dtRp4006
sbsg24
S'Cca'
p4007
sg26
g27
((lp4008
g29
ag30
aS'sequence'
p4009
ag32
ag33
aS'species'
p4010
atRp4011
sg37
(lp4012
sg120
g3963
sg121
S'RWLSTKDLYSRLELPGLNQNVHAMFVMPLGIGNPMGDTFPRLNNGFWLPPLSLEGAGTGWTVYPPLSHSGPSVDLAFHLTSSLLGAINFTNMRGPLFWTALLLFSLPVFAGTLLDRNFNTFEGGDPLYHVFWFFGHPEVYIIPGFGSHSTYKKFGMYASIGLGFVWSHHMYVGLDDRAYFTSALMIAPTGIKFSWLATFGGRPMLAFLFLFTGGTGVLNASDAFHDTYYVVMAFSLGYYPYNLFWFMFGMPDAGWSSSYQLGPDESNE'
p4013
sg123
F0.26266
sg124
g125
sg33
S'86'
p4014
sg127
g1
(g128
g12
(dp4015
g130
I4
sg131
g132
sg133
g134
sg135
g132
sg136
I01
sg34
g137
sg138
g134
sg139
I0
sg140
I0
sg141
I0
sg142
g134
sg35
g143
sg144
I0
stRp4016
sg146
g147
sg148
F1
sg149
Nsg30
S'CcastA'
p4017
sbasg120
g3892
sg123
F0.15296999999999999
sg124
g125
sg33
S'80'
p4018
sg127
g1
(g128
g12
(dp4019
g130
I6
sg131
g132
sg133
g134
sg135
g132
sg136
I01
sg34
g174
sg138
g134
sg139
I0
sg140
I0
sg141
I0
sg142
g134
sg35
g175
sg144
I0
stRp4020
sg146
g147
sg148
F0.98999999999999999
sg149
Nsg30
S'NoName'
p4021
sbasg120
g3593
sg123
F0.042560000000000001
sg124
g125
sg33
S'18'
p4022
sg127
g1
(g128
g12
(dp4023
g130
I6
sg131
g132
sg133
g134
sg135
g132
sg136
I01
sg34
g174
sg138
g134
sg139
I0
sg140
I0
sg141
I0
sg142
g134
sg35
g175
sg144
I0
stRp4024
sg146
g147
sg148
F0.84999999999999998
sg149
Nsg30
S'NoName'
p4025
sbasg120
g3559
sg123
F0.094020000000000006
sg124
g125
sg33
S'9'
sg127
g1
(g128
g12
(dp4026
g130
I6
sg131
g132
sg133
g134
sg135
g132
sg136
I01
sg34
g174
sg138
g134
sg139
I0
sg140
I0
sg141
I0
sg142
g134
sg35
g175
sg144
I0
stRp4027
sg146
g147
sg148
F0.55000000000000004
sg149
Nsg30
S'NoName'
p4028
sbasg120
g3032
sg123
F0.11952
sg124
g125
sg33
S'135'
p4029
sg127
g1
(g128
g12
(dp4030
g130
I6
sg131
g132
sg133
g134
sg135
g132
sg136
I01
sg34
g174
sg138
g134
sg139
I0
sg140
I0
sg141
I0
sg142
g134
sg35
g175
sg144
I0
stRp4031
sg146
g147
sg148
F0.69999999999999996
sg149
Nsg30
S'NoName'
p4032
sbasg120
g3019
sg123
F0.029839999999999998
sg124
g125
sg33
S'170'
p4033
sg127
g1
(g128
g12
(dp4034
g130
I6
sg131
g132
sg133
g134
sg135
g132
sg136
I01
sg34
g174
sg138
g134
sg139
I0
sg140
I0
sg141
I0
sg142
g134
sg35
g175
sg144
I0
stRp4035
sg146
g147
sg148
F0.82999999999999996
sg149
Nsg30
S'NoName'
p4036
sbag1
(g2
g3
NtRp4037
(dp4038
g6
g1
(g7
g3
NtRp4039
(dp4040
g10
g1
(g11
g12
(dtRp4041
sg14
g1
(g11
g12
(dtRp4042
sg16
g1
(g11
g12
(dtRp4043
sg18
g1
(g11
g12
(dtRp4044
sg20
g1
(g11
g12
(dtRp4045
sg22
g1
(g11
g12
(dtRp4046
sbsg24
g25
sg26
g27
((lp4047
g33
ag32
ag29
ag30
atRp4048
sg37
(lp4049
g1
(g2
g3
NtRp4050
(dp4051
g6
g1
(g7
g3
NtRp4052
(dp4053
g10
g1
(g11
g12
(dtRp4054
sg14
g1
(g11
g12
(dtRp4055
sg16
g1
(g11
g12
(dtRp4056
sg18
g1
(g11
g12
(dtRp4057
sg20
g1
(g11
g12
(dtRp4058
sg22
g1
(g11
g12
(dtRp4059
sbsg24
S'Aac'
p4060
sg26
g27
((lp4061
g29
ag30
aS'sequence'
p4062
ag32
ag33
aS'species'
p4063
atRp4064
sg37
(lp4065
sg120
g4037
sg121
S'RWLSTKDLYSRMELPGLQQNVHLMFVMPLGFGNPMGDMFARLNNSFWLPPLSMEGLGTGWTVYPPLAHSGASVDLAFHLTSSLLGLINFTNMRGPLFWTAMLLMSLPVLAGTLLDRNFNTFEGGDPLYHLFWFFGHPEVYIIPLFGSHSTYKKFGMYASIGLGFVWSHHMYVGLDDRAYFTSLTMILPTSIKFSWLLTYGGRPMLAFLFLFTGGTGVLNLSDLFHDTYYVVLAFSMGYYPYNLFWFMFGMPDLGWSSSYQLGPDESNE'
p4066
sg123
F0.028920000000000001
sg124
g125
sg33
S'23'
p4067
sg127
g1
(g128
g12
(dp4068
g130
I4
sg131
g132
sg133
g134
sg135
g132
sg136
I01
sg34
g137
sg138
g134
sg139
I0
sg140
I0
sg141
I0
sg142
g134
sg35
g143
sg144
I0
stRp4069
sg146
g147
sg148
F1
sg149
Nsg30
S'AacerA'
p4070
sbag1
(g2
g3
NtRp4071
(dp4072
g6
g1
(g7
g3
NtRp4073
(dp4074
g10
g1
(g11
g12
(dtRp4075
sg14
g1
(g11
g12
(dtRp4076
sg16
g1
(g11
g12
(dtRp4077
sg18
g1
(g11
g12
(dtRp4078
sg20
g1
(g11
g12
(dtRp4079
sg22
g1
(g11
g12
(dtRp4080
sbsg24
g25
sg26
g27
((lp4081
g33
ag32
ag29
ag30
atRp4082
sg37
(lp4083
g1
(g2
g3
NtRp4084
(dp4085
g6
g1
(g7
g3
NtRp4086
(dp4087
g10
g1
(g11
g12
(dtRp4088
sg14
g1
(g11
g12
(dtRp4089
sg16
g1
(g11
g12
(dtRp4090
sg18
g1
(g11
g12
(dtRp4091
sg20
g1
(g11
g12
(dtRp4092
sg22
g1
(g11
g12
(dtRp4093
sbsg24
S'Ago'
p4094
sg26
g27
((lp4095
g29
ag30
aS'sequence'
p4096
ag32
ag33
aS'species'
p4097
atRp4098
sg37
(lp4099
sg120
g4071
sg121
S'RWLSTKDLYSRMELPGLQQNVHLMFVMPLGFGNPMGDMFARLNNSFWLPPLSMEGLGTGWTVYPPLSHSGASVDLAFHLTSSLLGLINFTNMRGPLFWTAMLLMSLPVLAGTLLDRNFNTFEGGDPLYHLFWFFGHPEVYIIPLFGSHSTYKKFGMYLSISLGFVWSHHMYVGLDDRAYFTSATMILPTSIKFSWLLTYGGRPMLLFLFLFTGGTGVLNLSDAFHDTYYVVLAFSMGYYPYNLFWFMFGMPDLGWSSSYQLGPDESNE'
p4100
sg123
F0.00088000000000000003
sg124
g125
sg33
S'202'
p4101
sg127
g1
(g128
g12
(dp4102
g130
I4
sg131
g132
sg133
g134
sg135
g132
sg136
I01
sg34
g137
sg138
g134
sg139
I0
sg140
I0
sg141
I0
sg142
g134
sg35
g143
sg144
I0
stRp4103
sg146
g147
sg148
F1
sg149
Nsg30
S'AgossB'
p4104
sbag1
(g2
g3
NtRp4105
(dp4106
g6
g1
(g7
g3
NtRp4107
(dp4108
g10
g1
(g11
g12
(dtRp4109
sg14
g1
(g11
g12
(dtRp4110
sg16
g1
(g11
g12
(dtRp4111
sg18
g1
(g11
g12
(dtRp4112
sg20
g1
(g11
g12
(dtRp4113
sg22
g1
(g11
g12
(dtRp4114
sbsg24
S'Ago'
p4115
sg26
g27
((lp4116
g29
ag30
aS'sequence'
p4117
ag32
ag33
aS'species'
p4118
atRp4119
sg37
(lp4120
sg120
g4071
sg121
S'RWLSTKDLYSRMELPGLQQNVHLMFVMPLGFGNPMGDMFARLNNSFWLPPLSMEGLGTGWTVYPPLSHSGASVDLAFHLTSSLLGLINFTNMRGPLFWTAMLLMSLPVLAGTLLDRNFNTFEGGDPLYHLFWFFGHPEVYIIPLFGSHSTYKKFGMYLSISLGFVWSHHMYVGLDDRAYFTSATMILPTSIKFSWLLTYGGRPMLLFLFLFTGGTGVLNLSDAFHDTYYVVLAFSMGYYPYNLFWFMFGMPDLGWSSSYQLGPDESNE'
p4121
sg123
F0.0023999999999999998
sg124
g125
sg33
S'138'
p4122
sg127
g1
(g128
g12
(dp4123
g130
I4
sg131
g132
sg133
g134
sg135
g132
sg136
I01
sg34
g137
sg138
g134
sg139
I0
sg140
I0
sg141
I0
sg142
g134
sg35
g143
sg144
I0
stRp4124
sg146
g147
sg148
F1
sg149
Nsg30
S'AgossA'
p4125
sbasg120
g4037
sg123
F0.075329999999999994
sg124
g125
sg33
S'163'
p4126
sg127
g1
(g128
g12
(dp4127
g130
I6
sg131
g132
sg133
g134
sg135
g132
sg136
I01
sg34
g174
sg138
g134
sg139
I0
sg140
I0
sg141
I0
sg142
g134
sg35
g175
sg144
I0
stRp4128
sg146
g147
sg148
F0.98999999999999999
sg149
Nsg30
S'NoName'
p4129
sbasg120
g3019
sg123
F0.56830999999999998
sg124
g125
sg33
S'136'
p4130
sg127
g1
(g128
g12
(dp4131
g130
I6
sg131
g132
sg133
g134
sg135
g132
sg136
I01
sg34
g174
sg138
g134
sg139
I0
sg140
I0
sg141
I0
sg142
g134
sg35
g175
sg144
I0
stRp4132
sg146
g147
sg148
F0.98999999999999999
sg149
Nsg30
S'NoName'
p4133
sbasg120
g2681
sg123
F0.14305999999999999
sg124
g125
sg33
S'164'
p4134
sg127
g1
(g128
g12
(dp4135
g130
I6
sg131
g132
sg133
g134
sg135
g132
sg136
I01
sg34
g174
sg138
g134
sg139
I0
sg140
I0
sg141
I0
sg142
g134
sg35
g175
sg144
I0
stRp4136
sg146
g147
sg148
F0.96999999999999997
sg149
Nsg30
S'NoName'
p4137
sbasg120
g2495
sg123
F0.26834000000000002
sg124
g125
sg33
S'207'
p4138
sg127
g1
(g128
g12
(dp4139
g130
I6
sg131
g132
sg133
g134
sg135
g132
sg136
I01
sg34
g174
sg138
g134
sg139
I0
sg140
I0
sg141
I0
sg142
g134
sg35
g175
sg144
I0
stRp4140
sg146
g147
sg148
F0.97999999999999998
sg149
Nsg30
S'NoName'
p4141
sbasg120
g679
sg123
F0.062890000000000001
sg124
g125
sg33
S'10'
p4142
sg127
g1
(g128
g12
(dp4143
g130
I6
sg131
g132
sg133
g134
sg135
g132
sg136
I01
sg34
g174
sg138
g134
sg139
I0
sg140
I0
sg141
I0
sg142
g134
sg35
g175
sg144
I0
stRp4144
sg146
g147
sg148
F0.67000000000000004
sg149
Nsg30
S'NoName'
p4145
sbasg120
g266
sg123
F0.52025999999999994
sg124
g125
sg33
S'85'
p4146
sg127
g1
(g128
g12
(dp4147
g130
I6
sg131
g132
sg133
g134
sg135
g132
sg136
I01
sg34
g174
sg138
g134
sg139
I0
sg140
I0
sg141
I0
sg142
g134
sg35
g175
sg144
I0
stRp4148
sg146
g147
sg148
F0.97999999999999998
sg149
Nsg30
S'NoName'
p4149
sbasg120
g52
sg123
F0.11274000000000001
sg124
g125
sg33
S'97'
p4150
sg127
g1
(g128
g12
(dp4151
g130
I6
sg131
g132
sg133
g134
sg135
g132
sg136
I01
sg34
g174
sg138
g134
sg139
I0
sg140
I0
sg141
I0
sg142
g134
sg35
g175
sg144
I0
stRp4152
sg146
g147
sg148
F0.88
sg149
Nsg30
S'NoName'
p4153
sbasg120
g39
sg123
F0.33485999999999999
sg124
g125
sg33
S'93'
p4154
sg127
g1
(g128
g12
(dp4155
g130
I6
sg131
g132
sg133
g134
sg135
g132
sg136
I01
sg34
g174
sg138
g134
sg139
I0
sg140
I0
sg141
I0
sg142
g134
sg35
g175
sg144
I0
stRp4156
sg146
g147
sg148
F0.95999999999999996
sg149
Nsg30
S'NoName'
p4157
sbag1
(g2
g3
NtRp4158
(dp4159
g6
g1
(g7
g3
NtRp4160
(dp4161
g10
g1
(g11
g12
(dtRp4162
sg14
g1
(g11
g12
(dtRp4163
sg16
g1
(g11
g12
(dtRp4164
sg18
g1
(g11
g12
(dtRp4165
sg20
g1
(g11
g12
(dtRp4166
sg22
g1
(g11
g12
(dtRp4167
sbsg24
S'Lst'
p4168
sg26
g27
((lp4169
g29
ag30
aS'sequence'
p4170
ag32
ag33
aS'species'
p4171
atRp4172
sg37
(lp4173
sg120
g39
sg121
S'RWLSTKDLYSRMELPGLNHNVHAMFVMPLGFGNPLGDMFPRLNNSFWLPPLSFEGAGTGWTVYPPLSHSGASVDLAFHLSSSMLGAMNFTNMRGPLFWTALLLLSLPVLGATLLDRNFNTFEGGDPLYHLFWFFGHPEVYIIPGFGSHCTYEKFGMYASMGLGFVWSHHMFVGLDERAYFTAATMIAPTGMKFSWLATYGGTPMVAFLFLFTGGTGVLNASDAFHDTYYVVMAFALGYYPYKYFWFMFGMPDAGWSSAIQLGPQATKE'
p4174
sg123
F1.13117
sg124
g125
sg33
S'166'
p4175
sg127
g1
(g128
g12
(dp4176
g130
I4
sg131
g132
sg133
g134
sg135
g132
sg136
I01
sg34
g137
sg138
g134
sg139
I0
sg140
I0
sg141
I0
sg142
g134
sg35
g143
sg144
I0
stRp4177
sg146
g147
sg148
F1
sg149
Nsg30
S'LstarA'
p4178
sbasg120
g4
sg123
F0.46844999999999998
sg124
g125
sg33
S'78'
p4179
sg127
g1
(g128
g12
(dp4180
g130
I6
sg131
g132
sg133
g134
sg135
g132
sg136
I01
sg34
g174
sg138
g134
sg139
I0
sg140
I0
sg141
I0
sg142
g134
sg35
g175
sg144
I0
stRp4181
sg146
g147
sg148
F1
sg149
Nsg30
S'NoName'
p4182
sbag1
(g2
g3
NtRp4183
(dp4184
g6
g1
(g7
g3
NtRp4185
(dp4186
g10
g1
(g11
g12
(dtRp4187
sg14
g1
(g11
g12
(dtRp4188
sg16
g1
(g11
g12
(dtRp4189
sg18
g1
(g11
g12
(dtRp4190
sg20
g1
(g11
g12
(dtRp4191
sg22
g1
(g11
g12
(dtRp4192
sbsg24
g25
sg26
g27
((lp4193
g33
ag32
ag29
ag30
atRp4194
sg37
(lp4195
g1
(g2
g3
NtRp4196
(dp4197
g6
g1
(g7
g3
NtRp4198
(dp4199
g10
g1
(g11
g12
(dtRp4200
sg14
g1
(g11
g12
(dtRp4201
sg16
g1
(g11
g12
(dtRp4202
sg18
g1
(g11
g12
(dtRp4203
sg20
g1
(g11
g12
(dtRp4204
sg22
g1
(g11
g12
(dtRp4205
sbsg24
S'Sja'
p4206
sg26
g27
((lp4207
g29
ag30
aS'sequence'
p4208
ag32
ag33
aS'species'
p4209
atRp4210
sg37
(lp4211
sg120
g4183
sg121
S'RWLSTKDLYSRLELPGLNQNVHGMFILPLGFGNPLGDVYPRMNNSFWLPPLSLEGPGVGWTMYYPLSHSGLSVDLLMQLTSSTLGSINLTNMRGPLFWTSLLVLTLPVLGGILLDRNWNTFAGGDPLYHLFWFFGHPEVYIIPAFGSHSTFHKFGMYASIALGCVWSHHLYVGLDDRAYFTAATMIAPTGIKFSWLATSGGEPMLVFLILFTGGTGVLNSVDAFHDTYFVVMAMGLAYFPYNMFWFQFNYPDAGWSSSYQFNPNDSNE'
p4212
sg123
F1.0686599999999999
sg124
g125
sg33
S'3'
sg127
g1
(g128
g12
(dp4213
g130
I4
sg131
g132
sg133
g134
sg135
g132
sg136
I01
sg34
g137
sg138
g134
sg139
I0
sg140
I0
sg141
I0
sg142
g134
sg35
g143
sg144
I0
stRp4214
sg146
g147
sg148
F1
sg149
Nsg30
S'SjapoA'
p4215
sbag1
(g2
g3
NtRp4216
(dp4217
g6
g1
(g7
g3
NtRp4218
(dp4219
g10
g1
(g11
g12
(dtRp4220
sg14
g1
(g11
g12
(dtRp4221
sg16
g1
(g11
g12
(dtRp4222
sg18
g1
(g11
g12
(dtRp4223
sg20
g1
(g11
g12
(dtRp4224
sg22
g1
(g11
g12
(dtRp4225
sbsg24
g25
sg26
g27
((lp4226
g33
ag32
ag29
ag30
atRp4227
sg37
(lp4228
g1
(g2
g3
NtRp4229
(dp4230
g6
g1
(g7
g3
NtRp4231
(dp4232
g10
g1
(g11
g12
(dtRp4233
sg14
g1
(g11
g12
(dtRp4234
sg16
g1
(g11
g12
(dtRp4235
sg18
g1
(g11
g12
(dtRp4236
sg20
g1
(g11
g12
(dtRp4237
sg22
g1
(g11
g12
(dtRp4238
sbsg24
S'Spo'
p4239
sg26
g27
((lp4240
g29
ag30
aS'sequence'
p4241
ag32
ag33
aS'species'
p4242
atRp4243
sg37
(lp4244
sg120
g4216
sg121
S'RWMSTKDLYSRMELPGLNQNVHGMFIIPLGFGNPMGDVYPRVNNTFWLPPLSLEGPGGGWTVYPPLSHSGPAIDLALQLTSSTLGSVNLTNMRGPLFWTSLLLLTLPVLGGFLFDRNLNTFAGGDPLYHLFWFFGHPEVYIIPAFGSHPSLHKFGMWASIALGLVWSHHLFVGLDDRAYFSAATMIAPTGIKFSWLATTGGQPMLAFLILFTGGTGVLNSVDAFHDTYFVVMAFGLAY-PYNLFWFQFGMPEAGWSSSYQFNPSDDNE'
p4245
sg123
F0.12372
sg124
g125
sg33
S'89'
p4246
sg127
g1
(g128
g12
(dp4247
g130
I4
sg131
g132
sg133
g134
sg135
g132
sg136
I01
sg34
g137
sg138
g134
sg139
I0
sg140
I0
sg141
I0
sg142
g134
sg35
g143
sg144
I0
stRp4248
sg146
g147
sg148
F1
sg149
Nsg30
S'SpombA'
p4249
sbag1
(g2
g3
NtRp4250
(dp4251
g6
g1
(g7
g3
NtRp4252
(dp4253
g10
g1
(g11
g12
(dtRp4254
sg14
g1
(g11
g12
(dtRp4255
sg16
g1
(g11
g12
(dtRp4256
sg18
g1
(g11
g12
(dtRp4257
sg20
g1
(g11
g12
(dtRp4258
sg22
g1
(g11
g12
(dtRp4259
sbsg24
g25
sg26
g27
((lp4260
g33
ag32
ag29
ag30
atRp4261
sg37
(lp4262
g1
(g2
g3
NtRp4263
(dp4264
g6
g1
(g7
g3
NtRp4265
(dp4266
g10
g1
(g11
g12
(dtRp4267
sg14
g1
(g11
g12
(dtRp4268
sg16
g1
(g11
g12
(dtRp4269
sg18
g1
(g11
g12
(dtRp4270
sg20
g1
(g11
g12
(dtRp4271
sg22
g1
(g11
g12
(dtRp4272
sbsg24
S'Soc'
p4273
sg26
g27
((lp4274
g29
ag30
aS'sequence'
p4275
ag32
ag33
aS'species'
p4276
atRp4277
sg37
(lp4278
sg120
g4250
sg121
S'RWLSTKDLYSRMELPGLNQNVHGMFIIPLGFGNPMGDVYPRVNNTFWLPPLSLEGPGTGWTVYPPLSHSGPAVDLALQLTSSTLGSLNLTNMRGPLFWTSLLLLTLPVLGGFLFDRNLNTFAGGDPLYHLFWFFGHPEVYIIPAFGSHSTLNKFGMCASIALGLVWSHHLFVGLDDRAYFSAATMIAPTGIKFSWLATTGGQPMLAFLILFTGGTGVLNSVDAFHDTYFVVMAFGLAYFPYNLFWFQFGMPDAGWSSSYQYNPSDDNE'
p4279
sg123
F0.03637
sg124
g125
sg33
S'32'
p4280
sg127
g1
(g128
g12
(dp4281
g130
I4
sg131
g132
sg133
g134
sg135
g132
sg136
I01
sg34
g137
sg138
g134
sg139
I0
sg140
I0
sg141
I0
sg142
g134
sg35
g143
sg144
I0
stRp4282
sg146
g147
sg148
F1
sg149
Nsg30
S'SoctoA'
p4283
sbag1
(g2
g3
NtRp4284
(dp4285
g6
g1
(g7
g3
NtRp4286
(dp4287
g10
g1
(g11
g12
(dtRp4288
sg14
g1
(g11
g12
(dtRp4289
sg16
g1
(g11
g12
(dtRp4290
sg18
g1
(g11
g12
(dtRp4291
sg20
g1
(g11
g12
(dtRp4292
sg22
g1
(g11
g12
(dtRp4293
sbsg24
S'Scr'
p4294
sg26
g27
((lp4295
g29
ag30
aS'sequence'
p4296
ag32
ag33
aS'species'
p4297
atRp4298
sg37
(lp4299
sg120
g4250
sg121
S'RWLSTKDLYSRMELPGLNQNVHGMFIIPLGFGNPMGDVYPRVNNTYWLPPLSLEGPGTGWTVYPPLSHSGPSVDLALQLTSSTLGSLNLTNMRGPLFWTSLLLLTLPVLGGFLFDRNLNTFAGGDPLYHLFWFFGHPEVYIIPAFGSHPTLNKFGMCASIALGLVWSHHLFVGLDDRAYFSAATMIAPTGIKFSWLATTGGQPMLAFLILFTGGTGVLNSVDAFHDTYFVVMAFGLAYFPYNLFWFQFGMPDAGWSSSYQYNPSDDNE'
p4300
sg123
F0.036740000000000002
sg124
g125
sg33
S'188'
p4301
sg127
g1
(g128
g12
(dp4302
g130
I4
sg131
g132
sg133
g134
sg135
g132
sg136
I01
sg34
g137
sg138
g134
sg139
I0
sg140
I0
sg141
I0
sg142
g134
sg35
g143
sg144
I0
stRp4303
sg146
g147
sg148
F1
sg149
Nsg30
S'ScryoA'
p4304
sbasg120
g4216
sg123
F0.18453
sg124
g125
sg33
S'62'
p4305
sg127
g1
(g128
g12
(dp4306
g130
I6
sg131
g132
sg133
g134
sg135
g132
sg136
I01
sg34
g174
sg138
g134
sg139
I0
sg140
I0
sg141
I0
sg142
g134
sg35
g175
sg144
I0
stRp4307
sg146
g147
sg148
F0.98999999999999999
sg149
Nsg30
S'NoName'
p4308
sbasg120
g4183
sg123
F0.73307
sg124
g125
sg33
S'196'
p4309
sg127
g1
(g128
g12
(dp4310
g130
I6
sg131
g132
sg133
g134
sg135
g132
sg136
I01
sg34
g174
sg138
g134
sg139
I0
sg140
I0
sg141
I0
sg142
g134
sg35
g175
sg144
I0
stRp4311
sg146
g147
sg148
F0.98999999999999999
sg149
Nsg30
S'NoName'
p4312
sbasg120
g4
sg123
F1.7741899999999999
sg124
g125
sg33
S'34'
p4313
sg127
g1
(g128
g12
(dp4314
g130
I6
sg131
g132
sg133
g134
sg135
g132
sg136
I01
sg34
g174
sg138
g134
sg139
I0
sg140
I0
sg141
I0
sg142
g134
sg35
g175
sg144
I0
stRp4315
sg146
g147
sg148
F1
sg149
Nsg30
S'NoName'
p4316
sbasg31
S'8'
sg120
Nsg123
F0
sg124
g125
sg33
S'219'
p4317
sg34
S'sphere'
p4318
sg127
g1
(g128
g12
(dp4319
g130
I6
sg131
g132
sg133
g134
sg135
g132
sg136
I01
sg34
g174
sg138
g134
sg139
I0
sg140
I0
sg141
I0
sg142
g134
sg35
g175
sg144
I0
stRp4320
sg146
g147
sg148
F1
sg149
Nsg35
S'#833DB4'
p4321
sg30
g125
sb.