ccopy_reg
_reconstructor
p1
(cete2.phylo.phylotree
PhyloNode
p2
c__builtin__
object
p3
NtRp4
(dp5
S'_faces'
p6
g1
(cete2.treeview.main
_FaceAreas
p7
g3
NtRp8
(dp9
S'branch-top'
p10
g1
(cete2.treeview.main
FaceContainer
p11
c__builtin__
dict
p12
(dtRp13
sS'float'
p14
g1
(g11
g12
(dtRp15
sS'branch-bottom'
p16
g1
(g11
g12
(dtRp17
sS'aligned'
p18
g1
(g11
g12
(dtRp19
sS'branch-right'
p20
g1
(g11
g12
(dtRp21
sS'float-behind'
p22
g1
(g11
g12
(dtRp23
sbsS'_species'
p24
S'Unknown'
p25
sS'features'
p26
c__builtin__
set
p27
((lp28
S'dist'
p29
aS'name'
p30
aS'bsize'
p31
aS'support'
p32
aS'_nid'
p33
aS'shape'
p34
aS'fgcolor'
p35
atRp36
sS'_children'
p37
(lp38
g1
(g2
g3
NtRp39
(dp40
g6
g1
(g7
g3
NtRp41
(dp42
g10
g1
(g11
g12
(dtRp43
sg14
g1
(g11
g12
(dtRp44
sg16
g1
(g11
g12
(dtRp45
sg18
g1
(g11
g12
(dtRp46
sg20
g1
(g11
g12
(dtRp47
sg22
g1
(g11
g12
(dtRp48
sbsg24
g25
sg26
g27
((lp49
g33
ag32
ag29
ag30
atRp50
sg37
(lp51
g1
(g2
g3
NtRp52
(dp53
g6
g1
(g7
g3
NtRp54
(dp55
g10
g1
(g11
g12
(dtRp56
sg14
g1
(g11
g12
(dtRp57
sg16
g1
(g11
g12
(dtRp58
sg18
g1
(g11
g12
(dtRp59
sg20
g1
(g11
g12
(dtRp60
sg22
g1
(g11
g12
(dtRp61
sbsg24
g25
sg26
g27
((lp62
g33
ag32
ag29
ag30
atRp63
sg37
(lp64
g1
(g2
g3
NtRp65
(dp66
g6
g1
(g7
g3
NtRp67
(dp68
g10
g1
(g11
g12
(dtRp69
sg14
g1
(g11
g12
(dtRp70
sg16
g1
(g11
g12
(dtRp71
sg18
g1
(g11
g12
(dtRp72
sg20
g1
(g11
g12
(dtRp73
sg22
g1
(g11
g12
(dtRp74
sbsg24
g25
sg26
g27
((lp75
g33
ag32
ag29
ag30
atRp76
sg37
(lp77
g1
(g2
g3
NtRp78
(dp79
g6
g1
(g7
g3
NtRp80
(dp81
g10
g1
(g11
g12
(dtRp82
sg14
g1
(g11
g12
(dtRp83
sg16
g1
(g11
g12
(dtRp84
sg18
g1
(g11
g12
(dtRp85
sg20
g1
(g11
g12
(dtRp86
sg22
g1
(g11
g12
(dtRp87
sbsg24
g25
sg26
g27
((lp88
g33
ag32
ag29
ag30
atRp89
sg37
(lp90
g1
(g2
g3
NtRp91
(dp92
g6
g1
(g7
g3
NtRp93
(dp94
g10
g1
(g11
g12
(dtRp95
sg14
g1
(g11
g12
(dtRp96
sg16
g1
(g11
g12
(dtRp97
sg18
g1
(g11
g12
(dtRp98
sg20
g1
(g11
g12
(dtRp99
sg22
g1
(g11
g12
(dtRp100
sbsg24
g25
sg26
g27
((lp101
g33
ag32
ag29
ag30
atRp102
sg37
(lp103
g1
(g2
g3
NtRp104
(dp105
g6
g1
(g7
g3
NtRp106
(dp107
g10
g1
(g11
g12
(dtRp108
sg14
g1
(g11
g12
(dtRp109
sg16
g1
(g11
g12
(dtRp110
sg18
g1
(g11
g12
(dtRp111
sg20
g1
(g11
g12
(dtRp112
sg22
g1
(g11
g12
(dtRp113
sbsg24
S'Yli'
p114
sg26
g27
((lp115
g29
ag30
aS'sequence'
p116
ag32
ag33
aS'species'
p117
atRp118
sg37
(lp119
sS'_up'
p120
g91
sS'sequence'
p121
S'RWLSTKDLYSRLELTGLNQNVHAMFVMPLGFGNPMGDMFARLNNSFWLVPLSLEGAGTGWTVYFPLAHSGPAVDLAFHLSSSLLGAINFTNMRGPLFWTALLLLSLPVLAGTGIDRNFNTFEGGDALYHLFWFFGHPEVYIIPGFGSHSAISKFGMYASIGLGFVWSHHMFVGLDDRAYFTSATMIAPTSIKFSWLATYGGRTALAFIFLFTGGTGVLNSADPFHDSYYVVMAFSIGWLPYNLFWFMFGMNDAGWSSAYQLGPSGTNE'
p122
sS'_dist'
p123
F0.00011
sS'_name'
p124
S'NoName'
p125
sg33
S'186'
p126
sS'_img_style'
p127
g1
(cete2.treeview.main
NodeStyle
p128
g12
(dp129
S'size'
p130
I4
sS'hz_line_color'
p131
S'#000000'
p132
sS'faces_bgcolor'
p133
S'#FFFFFF'
p134
sS'vt_line_color'
p135
g132
sS'draw_descendants'
p136
I01
sg34
S'square'
p137
sS'bgcolor'
p138
g134
sS'hz_line_type'
p139
I0
sS'vt_line_width'
p140
I0
sS'vt_line_type'
p141
I0
sS'node_bgcolor'
p142
g134
sg35
g132
sS'hz_line_width'
p143
I0
stRp144
sS'_speciesFunction'
p145
cete2.phylo.phylotree
_parse_species
p146
sS'_support'
p147
F1
sS'_temp_faces'
p148
Nsg30
S'YlipoB'
p149
sbag1
(g2
g3
NtRp150
(dp151
g6
g1
(g7
g3
NtRp152
(dp153
g10
g1
(g11
g12
(dtRp154
sg14
g1
(g11
g12
(dtRp155
sg16
g1
(g11
g12
(dtRp156
sg18
g1
(g11
g12
(dtRp157
sg20
g1
(g11
g12
(dtRp158
sg22
g1
(g11
g12
(dtRp159
sbsg24
S'Yli'
p160
sg26
g27
((lp161
g29
ag30
aS'sequence'
p162
ag32
ag33
aS'species'
p163
atRp164
sg37
(lp165
sg120
g91
sg121
S'RWLSTKDLYSRLELTGLNQNVHAMFVMPLGFGNPMGDMFARLNNSFWLVPLSLEGAGTGWTVYFPLAHSGPAVDLAFHLSSSLLGAINFTNMRGPLFWTALLLLSLPVLAGTGIDRNFNTFEGGDALYHLFWFFGHPEVYIIPGFGSHSAISKFGMYASIGLGFVWSHHMFVGLDDRAYFTSATMIAPTSIKFSWLATYGGRTALAFIFLFTGGTGVLNSADPFHDSYYVVMAFSIGWLPYNLFWFMFGMNDAGWSSAYQLGPSGTNE'
p166
sg123
F0.00048000000000000001
sg124
g125
sg33
S'170'
p167
sg127
g1
(g128
g12
(dp168
g130
I4
sg131
g132
sg133
g134
sg135
g132
sg136
I01
sg34
g137
sg138
g134
sg139
I0
sg140
I0
sg141
I0
sg142
g134
sg35
g132
sg143
I0
stRp169
sg145
g146
sg147
F1
sg148
Nsg30
S'YlipoA'
p170
sbasg120
g78
sg123
F0.02656
sg124
g125
sg33
S'168'
p171
sg127
g1
(g128
g12
(dp172
g130
I8
sg131
g132
sg133
g134
sg135
g132
sg136
I01
sg34
S'sphere'
p173
sg138
g134
sg139
I0
sg140
I0
sg141
I0
sg142
g134
sg35
g132
sg143
I0
stRp174
sg145
g146
sg147
F1
sg148
Nsg30
S'NoName'
p175
sbag1
(g2
g3
NtRp176
(dp177
g6
g1
(g7
g3
NtRp178
(dp179
g10
g1
(g11
g12
(dtRp180
sg14
g1
(g11
g12
(dtRp181
sg16
g1
(g11
g12
(dtRp182
sg18
g1
(g11
g12
(dtRp183
sg20
g1
(g11
g12
(dtRp184
sg22
g1
(g11
g12
(dtRp185
sbsg24
g25
sg26
g27
((lp186
g33
ag32
ag29
ag30
atRp187
sg37
(lp188
g1
(g2
g3
NtRp189
(dp190
g6
g1
(g7
g3
NtRp191
(dp192
g10
g1
(g11
g12
(dtRp193
sg14
g1
(g11
g12
(dtRp194
sg16
g1
(g11
g12
(dtRp195
sg18
g1
(g11
g12
(dtRp196
sg20
g1
(g11
g12
(dtRp197
sg22
g1
(g11
g12
(dtRp198
sbsg24
S'Cga'
p199
sg26
g27
((lp200
g29
ag30
aS'sequence'
p201
ag32
ag33
aS'species'
p202
atRp203
sg37
(lp204
sg120
g176
sg121
S'RWLSTKDLYSRLELTGLNQNVHAMFVMPLGFGNPMGDMFARLNNSFWLVPLSLEGAGTGWTVYFPLAHSGPAVDLAFHLSSSLLGAINFTNMRGPLFWTALLLLSLPVLAGTGIDRNFNTFEGGDALYHLFWFFGHPEVYIIPGFGSHSAISKFGMYASIGLGFVWSHHMFVGLDDRAYFTSATMIAPTSIKFSWLSTYGGRTALAFIFLFTGGTGVLNSADPFHDSYYVVMAFSIGWLPYNLFWFMFGMNDAGWSSAYQLGPSGTNE'
p205
sg123
F0.016299999999999999
sg124
g125
sg33
S'179'
p206
sg127
g1
(g128
g12
(dp207
g130
I4
sg131
g132
sg133
g134
sg135
g132
sg136
I01
sg34
g137
sg138
g134
sg139
I0
sg140
I0
sg141
I0
sg142
g134
sg35
g132
sg143
I0
stRp208
sg145
g146
sg147
F1
sg148
Nsg30
S'CgallA'
p209
sbag1
(g2
g3
NtRp210
(dp211
g6
g1
(g7
g3
NtRp212
(dp213
g10
g1
(g11
g12
(dtRp214
sg14
g1
(g11
g12
(dtRp215
sg16
g1
(g11
g12
(dtRp216
sg18
g1
(g11
g12
(dtRp217
sg20
g1
(g11
g12
(dtRp218
sg22
g1
(g11
g12
(dtRp219
sbsg24
S'Cde'
p220
sg26
g27
((lp221
g29
ag30
aS'sequence'
p222
ag32
ag33
aS'species'
p223
atRp224
sg37
(lp225
sg120
g176
sg121
S'RWLSTKDLYSRLELTGLNQNVHAMFVMPLGFGNPMGDMFARLNNSFWLVPLSLEGAGTGWTVYFPLAHSGPAVDLAFHLSSSLLGAINFTNMRGPLFWTALLLLSLPVLAGTGIDRNFNTFEGGDALYHLFFFNGHPEVYIIPGFGSHSAISKFGMYASIGLGFVWSHHMFVGLDDRAYFTSATMIAPTSIKFSWLATYGGRTALAFIFLFTGGTGVLNSADPFHDSYYVVMAFSIGWLPYNLFWFMFGMNDAGWSSAYQLGPSGTNE'
p226
sg123
F0.018610000000000002
sg124
g125
sg33
S'185'
p227
sg127
g1
(g128
g12
(dp228
g130
I4
sg131
g132
sg133
g134
sg135
g132
sg136
I01
sg34
g137
sg138
g134
sg139
I0
sg140
I0
sg141
I0
sg142
g134
sg35
g132
sg143
I0
stRp229
sg145
g146
sg147
F1
sg148
Nsg30
S'CdefoA'
p230
sbasg120
g78
sg123
F0.00282
sg124
g125
sg33
S'182'
p231
sg127
g1
(g128
g12
(dp232
g130
I8
sg131
g132
sg133
g134
sg135
g132
sg136
I01
sg34
g173
sg138
g134
sg139
I0
sg140
I0
sg141
I0
sg142
g134
sg35
g132
sg143
I0
stRp233
sg145
g146
sg147
F0.96999999999999997
sg148
Nsg30
S'NoName'
p234
sbasg120
g65
sg123
F0.00479
sg124
g125
sg33
S'123'
p235
sg127
g1
(g128
g12
(dp236
g130
I8
sg131
g132
sg133
g134
sg135
g132
sg136
I01
sg34
g173
sg138
g134
sg139
I0
sg140
I0
sg141
I0
sg142
g134
sg35
g132
sg143
I0
stRp237
sg145
g146
sg147
F0.80000000000000004
sg148
Nsg30
S'NoName'
p238
sbag1
(g2
g3
NtRp239
(dp240
g6
g1
(g7
g3
NtRp241
(dp242
g10
g1
(g11
g12
(dtRp243
sg14
g1
(g11
g12
(dtRp244
sg16
g1
(g11
g12
(dtRp245
sg18
g1
(g11
g12
(dtRp246
sg20
g1
(g11
g12
(dtRp247
sg22
g1
(g11
g12
(dtRp248
sbsg24
S'Cal'
p249
sg26
g27
((lp250
g29
ag30
aS'sequence'
p251
ag32
ag33
aS'species'
p252
atRp253
sg37
(lp254
sg120
g65
sg121
S'RWLSTKDLYSRLELTGLNQNVHAMFVMPLGFGNPMGDMFARLNNSFWLVPMSLEGAGTGWTVYFPLAHSGPAVDLAFHLASSLLGAINFTNMRGPLFWTALLLLSLPVLAGTGIDRNFNTFEGGDALYHLFWFFGHPEVYIIPGFGSHSAISKFGMYASIGLGFVWSHHMFVGLDDRAYFTSATMIAPTSIKFSWLATYGGRTALAFIFLFTGGTGVLNSADPFHDSYYVVMAFSIGWLPYNLFWFMFGMNDAGWSSAYQLGPSGTNE'
p255
sg123
F0.035970000000000002
sg124
g125
sg33
S'217'
p256
sg127
g1
(g128
g12
(dp257
g130
I4
sg131
g132
sg133
g134
sg135
g132
sg136
I01
sg34
g137
sg138
g134
sg139
I0
sg140
I0
sg141
I0
sg142
g134
sg35
g132
sg143
I0
stRp258
sg145
g146
sg147
F1
sg148
Nsg30
S'CalimA'
p259
sbasg120
g52
sg123
F1.1444799999999999
sg124
g125
sg33
S'122'
p260
sg127
g1
(g128
g12
(dp261
g130
I8
sg131
g132
sg133
g134
sg135
g132
sg136
I01
sg34
g173
sg138
g134
sg139
I0
sg140
I0
sg141
I0
sg142
g134
sg35
g132
sg143
I0
stRp262
sg145
g146
sg147
F0.97999999999999998
sg148
Nsg30
S'NoName'
p263
sbag1
(g2
g3
NtRp264
(dp265
g6
g1
(g7
g3
NtRp266
(dp267
g10
g1
(g11
g12
(dtRp268
sg14
g1
(g11
g12
(dtRp269
sg16
g1
(g11
g12
(dtRp270
sg18
g1
(g11
g12
(dtRp271
sg20
g1
(g11
g12
(dtRp272
sg22
g1
(g11
g12
(dtRp273
sbsg24
g25
sg26
g27
((lp274
g33
ag32
ag29
ag30
atRp275
sg37
(lp276
g1
(g2
g3
NtRp277
(dp278
g6
g1
(g7
g3
NtRp279
(dp280
g10
g1
(g11
g12
(dtRp281
sg14
g1
(g11
g12
(dtRp282
sg16
g1
(g11
g12
(dtRp283
sg18
g1
(g11
g12
(dtRp284
sg20
g1
(g11
g12
(dtRp285
sg22
g1
(g11
g12
(dtRp286
sbsg24
g25
sg26
g27
((lp287
g33
ag32
ag29
ag30
atRp288
sg37
(lp289
g1
(g2
g3
NtRp290
(dp291
g6
g1
(g7
g3
NtRp292
(dp293
g10
g1
(g11
g12
(dtRp294
sg14
g1
(g11
g12
(dtRp295
sg16
g1
(g11
g12
(dtRp296
sg18
g1
(g11
g12
(dtRp297
sg20
g1
(g11
g12
(dtRp298
sg22
g1
(g11
g12
(dtRp299
sbsg24
g25
sg26
g27
((lp300
g33
ag32
ag29
ag30
atRp301
sg37
(lp302
g1
(g2
g3
NtRp303
(dp304
g6
g1
(g7
g3
NtRp305
(dp306
g10
g1
(g11
g12
(dtRp307
sg14
g1
(g11
g12
(dtRp308
sg16
g1
(g11
g12
(dtRp309
sg18
g1
(g11
g12
(dtRp310
sg20
g1
(g11
g12
(dtRp311
sg22
g1
(g11
g12
(dtRp312
sbsg24
g25
sg26
g27
((lp313
g33
ag32
ag29
ag30
atRp314
sg37
(lp315
g1
(g2
g3
NtRp316
(dp317
g6
g1
(g7
g3
NtRp318
(dp319
g10
g1
(g11
g12
(dtRp320
sg14
g1
(g11
g12
(dtRp321
sg16
g1
(g11
g12
(dtRp322
sg18
g1
(g11
g12
(dtRp323
sg20
g1
(g11
g12
(dtRp324
sg22
g1
(g11
g12
(dtRp325
sbsg24
S'Mst'
p326
sg26
g27
((lp327
g29
ag30
aS'sequence'
p328
ag32
ag33
aS'species'
p329
atRp330
sg37
(lp331
sg120
g303
sg121
S'RWLSTKDLYSRLELPTLNQNVHAMFVMPSGFGNPMGDMLARLNNSFWLVPVSLEGAGTGWTVYPPLSHSGASVDLVFHMSSSLLGAINFTNMRGTLFWTALLLLSLPVLSGTLLDRNFNTFEGGDPLYHLFWFFGHPEVYIIPGFGSHSTYKKFGMYASMGLGFVWSHHMYVGLDDRAYFTSATMMAPTGVKFSWLATYGGRPFLAFMFLFTGGTGVLNASDAFHDTYYVVLAFSLGYFPYNLFMFLFGMPDAGWSSSYQLGPDESNE'
p332
sg123
F0.087190000000000004
sg124
g125
sg33
S'148'
p333
sg127
g1
(g128
g12
(dp334
g130
I4
sg131
g132
sg133
g134
sg135
g132
sg136
I01
sg34
g137
sg138
g134
sg139
I0
sg140
I0
sg141
I0
sg142
g134
sg35
g132
sg143
I0
stRp335
sg145
g146
sg147
F1
sg148
Nsg30
S'MstarA'
p336
sbag1
(g2
g3
NtRp337
(dp338
g6
g1
(g7
g3
NtRp339
(dp340
g10
g1
(g11
g12
(dtRp341
sg14
g1
(g11
g12
(dtRp342
sg16
g1
(g11
g12
(dtRp343
sg18
g1
(g11
g12
(dtRp344
sg20
g1
(g11
g12
(dtRp345
sg22
g1
(g11
g12
(dtRp346
sbsg24
S'Min'
p347
sg26
g27
((lp348
g29
ag30
aS'sequence'
p349
ag32
ag33
aS'species'
p350
atRp351
sg37
(lp352
sg120
g303
sg121
S'RWLSTKDLYSRLELPTLNQNVHAMFVMPAGFGNPMGDMLARLNNSFWLVPVSLEGAGTGWTVYPPLSHSGPSVDLVFHISSSLLGSMNFTNMRGTLFWTSLLLLSLPVLSGTLLDRNFNTFEGGDPLYHLFYKMMLFSMYMMPGFGSHSAYKKFGMYASIGLGFVWSHHMYVGLDDRAYFTSATMIAPTGVKFSWLATYGGRPFLAFMFLFTGGTGVLNASDAFHDTYYVVLAFSLGYFPYNLFTFLFGMPDAGWSSSYQLGPDESNE'
p353
sg123
F0.040719999999999999
sg124
g125
sg33
S'85'
p354
sg127
g1
(g128
g12
(dp355
g130
I4
sg131
g132
sg133
g134
sg135
g132
sg136
I01
sg34
g137
sg138
g134
sg139
I0
sg140
I0
sg141
I0
sg142
g134
sg35
g132
sg143
I0
stRp356
sg145
g146
sg147
F1
sg148
Nsg30
S'MingeA'
p357
sbasg120
g290
sg123
F0.037420000000000002
sg124
g125
sg33
S'146'
p358
sg127
g1
(g128
g12
(dp359
g130
I8
sg131
g132
sg133
g134
sg135
g132
sg136
I01
sg34
g173
sg138
g134
sg139
I0
sg140
I0
sg141
I0
sg142
g134
sg35
g132
sg143
I0
stRp360
sg145
g146
sg147
F0.98999999999999999
sg148
Nsg30
S'NoName'
p361
sbag1
(g2
g3
NtRp362
(dp363
g6
g1
(g7
g3
NtRp364
(dp365
g10
g1
(g11
g12
(dtRp366
sg14
g1
(g11
g12
(dtRp367
sg16
g1
(g11
g12
(dtRp368
sg18
g1
(g11
g12
(dtRp369
sg20
g1
(g11
g12
(dtRp370
sg22
g1
(g11
g12
(dtRp371
sbsg24
g25
sg26
g27
((lp372
g33
ag32
ag29
ag30
atRp373
sg37
(lp374
g1
(g2
g3
NtRp375
(dp376
g6
g1
(g7
g3
NtRp377
(dp378
g10
g1
(g11
g12
(dtRp379
sg14
g1
(g11
g12
(dtRp380
sg16
g1
(g11
g12
(dtRp381
sg18
g1
(g11
g12
(dtRp382
sg20
g1
(g11
g12
(dtRp383
sg22
g1
(g11
g12
(dtRp384
sbsg24
g25
sg26
g27
((lp385
g33
ag32
ag29
ag30
atRp386
sg37
(lp387
g1
(g2
g3
NtRp388
(dp389
g6
g1
(g7
g3
NtRp390
(dp391
g10
g1
(g11
g12
(dtRp392
sg14
g1
(g11
g12
(dtRp393
sg16
g1
(g11
g12
(dtRp394
sg18
g1
(g11
g12
(dtRp395
sg20
g1
(g11
g12
(dtRp396
sg22
g1
(g11
g12
(dtRp397
sbsg24
S'Mte'
p398
sg26
g27
((lp399
g29
ag30
aS'sequence'
p400
ag32
ag33
aS'species'
p401
atRp402
sg37
(lp403
sg120
g375
sg121
S'RWLSTKDLYSRLELPTLNQNVHAMFVMPAGFGNPMGDMLARLNNSFWLVPLSLEGAGTGWTVYPPLSHSGPSVDMVFHISSSLLGAINFTNMRGTLFWTALLLLSLPVLSGTLLDRNFNTFEGGDPLYHLFWFFGHPEVYIIPGFGSHSAYKKFGMYASIGLGFVWSHHMYVGLDDRAYFTSATMIAPTGVKFSWLATYGGRPFLAFIFLFTGGTGVLNASDAFHDTYYVVLAFSLGYFPYNLFYFMAGMPDAGWSSSYQLGPDESNE'
p404
sg123
F0.042599999999999999
sg124
g125
sg33
S'75'
p405
sg127
g1
(g128
g12
(dp406
g130
I4
sg131
g132
sg133
g134
sg135
g132
sg136
I01
sg34
g137
sg138
g134
sg139
I0
sg140
I0
sg141
I0
sg142
g134
sg35
g132
sg143
I0
stRp407
sg145
g146
sg147
F1
sg148
Nsg30
S'MtetrA'
p408
sbag1
(g2
g3
NtRp409
(dp410
g6
g1
(g7
g3
NtRp411
(dp412
g10
g1
(g11
g12
(dtRp413
sg14
g1
(g11
g12
(dtRp414
sg16
g1
(g11
g12
(dtRp415
sg18
g1
(g11
g12
(dtRp416
sg20
g1
(g11
g12
(dtRp417
sg22
g1
(g11
g12
(dtRp418
sbsg24
g25
sg26
g27
((lp419
g33
ag32
ag29
ag30
atRp420
sg37
(lp421
g1
(g2
g3
NtRp422
(dp423
g6
g1
(g7
g3
NtRp424
(dp425
g10
g1
(g11
g12
(dtRp426
sg14
g1
(g11
g12
(dtRp427
sg16
g1
(g11
g12
(dtRp428
sg18
g1
(g11
g12
(dtRp429
sg20
g1
(g11
g12
(dtRp430
sg22
g1
(g11
g12
(dtRp431
sbsg24
S'Mma'
p432
sg26
g27
((lp433
g29
ag30
aS'sequence'
p434
ag32
ag33
aS'species'
p435
atRp436
sg37
(lp437
sg120
g409
sg121
S'RWLSTKDLYSRLELPTLNQNVHAMFVMPAGFGNPMGDMLARLNNSFWLVPLSLEGPGTGWTVYPPLSHSGPSVDMVFHISSSLLGAINFTNMRGTLFWTALLLLSLPVLSGTLLDRNFNTFEGGDPLYHLFWFFGHPEVYIIPGFGSHSAYKKFGMYASIGLGFVWSHHMYVGLDDRAYFTSATMIAPTGVKFSWLATYGGRPFLAFIFLFTGGTGVLNASDAFHDSYYVVLAFSLGYFPYNLFFFMAGMPDAGWSSSYQLGPDESNE'
p438
sg123
F0.00055000000000000003
sg124
g125
sg33
S'202'
p439
sg127
g1
(g128
g12
(dp440
g130
I4
sg131
g132
sg133
g134
sg135
g132
sg136
I01
sg34
g137
sg138
g134
sg139
I0
sg140
I0
sg141
I0
sg142
g134
sg35
g132
sg143
I0
stRp441
sg145
g146
sg147
F1
sg148
Nsg30
S'MmagnB'
p442
sbag1
(g2
g3
NtRp443
(dp444
g6
g1
(g7
g3
NtRp445
(dp446
g10
g1
(g11
g12
(dtRp447
sg14
g1
(g11
g12
(dtRp448
sg16
g1
(g11
g12
(dtRp449
sg18
g1
(g11
g12
(dtRp450
sg20
g1
(g11
g12
(dtRp451
sg22
g1
(g11
g12
(dtRp452
sbsg24
S'Mma'
p453
sg26
g27
((lp454
g29
ag30
aS'sequence'
p455
ag32
ag33
aS'species'
p456
atRp457
sg37
(lp458
sg120
g409
sg121
S'RWLSTKDLYSRLELPTLNQNVHAMFVMPAGFGNPMGDMLARLNNSFWLVPLSLEGPGTGWTVYPPLSHSGPSVDMVFHISSSLLGAINFTNMRGTLFWTALLLLSLPVLSGTLLDRNFNTFEGGDPLYHLFWFFGHPEVYIIPGFGSHSAYKKFGMYASIGLGFVWSHHMYVGLDDRAYFTSATMIAPTGVKFSWLATYGGRPFLAFIFLFTGGTGVLNASDAFHDSYYVVLAFSLGYFPYNLFFFMAGMPDAGWSSSYQLGPDESNE'
p459
sg123
F0.00088000000000000003
sg124
g125
sg33
S'199'
p460
sg127
g1
(g128
g12
(dp461
g130
I4
sg131
g132
sg133
g134
sg135
g132
sg136
I01
sg34
g137
sg138
g134
sg139
I0
sg140
I0
sg141
I0
sg142
g134
sg35
g132
sg143
I0
stRp462
sg145
g146
sg147
F1
sg148
Nsg30
S'MmagnA'
p463
sbasg120
g375
sg123
F0.011140000000000001
sg124
g125
sg33
S'163'
p464
sg127
g1
(g128
g12
(dp465
g130
I8
sg131
g132
sg133
g134
sg135
g132
sg136
I01
sg34
g173
sg138
g134
sg139
I0
sg140
I0
sg141
I0
sg142
g134
sg35
g132
sg143
I0
stRp466
sg145
g146
sg147
F0.98999999999999999
sg148
Nsg30
S'NoName'
p467
sbasg120
g362
sg123
F0.11189
sg124
g125
sg33
S'58'
p468
sg127
g1
(g128
g12
(dp469
g130
I8
sg131
g132
sg133
g134
sg135
g132
sg136
I01
sg34
g173
sg138
g134
sg139
I0
sg140
I0
sg141
I0
sg142
g134
sg35
g132
sg143
I0
stRp470
sg145
g146
sg147
F0.98999999999999999
sg148
Nsg30
S'NoName'
p471
sbag1
(g2
g3
NtRp472
(dp473
g6
g1
(g7
g3
NtRp474
(dp475
g10
g1
(g11
g12
(dtRp476
sg14
g1
(g11
g12
(dtRp477
sg16
g1
(g11
g12
(dtRp478
sg18
g1
(g11
g12
(dtRp479
sg20
g1
(g11
g12
(dtRp480
sg22
g1
(g11
g12
(dtRp481
sbsg24
g25
sg26
g27
((lp482
g33
ag32
ag29
ag30
atRp483
sg37
(lp484
g1
(g2
g3
NtRp485
(dp486
g6
g1
(g7
g3
NtRp487
(dp488
g10
g1
(g11
g12
(dtRp489
sg14
g1
(g11
g12
(dtRp490
sg16
g1
(g11
g12
(dtRp491
sg18
g1
(g11
g12
(dtRp492
sg20
g1
(g11
g12
(dtRp493
sg22
g1
(g11
g12
(dtRp494
sbsg24
S'Scl'
p495
sg26
g27
((lp496
g29
ag30
aS'sequence'
p497
ag32
ag33
aS'species'
p498
atRp499
sg37
(lp500
sg120
g472
sg121
S'RWLSTKDLYSRLELPTLNQNVHAMFVMPAGFGNPMGDMLARLNNSFWLVPLSLEGPGTGWTVYPPLSHSGPSVDMVFHMSSSLLGAINFTNMRGTLFWTALLLLSLPVLAGTLLDRNFNTFEGGDPLYHLFWFFGHPEVYMIPGFGSHSTYKKFGMYASMGLGFVWSHHMYVGLDDRAYFTAATMIAPTGVKFSWLATYGGRPFLTFMFLFTGGTGVLNASDAFHDTYYVVLAFSLGYFPYNLFMFLFGMPDAGWSSSYQLGPDESNE'
p501
sg123
F0.020899999999999998
sg124
g125
sg33
S'194'
p502
sg127
g1
(g128
g12
(dp503
g130
I4
sg131
g132
sg133
g134
sg135
g132
sg136
I01
sg34
g137
sg138
g134
sg139
I0
sg140
I0
sg141
I0
sg142
g134
sg35
g132
sg143
I0
stRp504
sg145
g146
sg147
F1
sg148
Nsg30
S'SclavA'
p505
sbag1
(g2
g3
NtRp506
(dp507
g6
g1
(g7
g3
NtRp508
(dp509
g10
g1
(g11
g12
(dtRp510
sg14
g1
(g11
g12
(dtRp511
sg16
g1
(g11
g12
(dtRp512
sg18
g1
(g11
g12
(dtRp513
sg20
g1
(g11
g12
(dtRp514
sg22
g1
(g11
g12
(dtRp515
sbsg24
S'Msp'
p516
sg26
g27
((lp517
g29
ag30
aS'sequence'
p518
ag32
ag33
aS'species'
p519
atRp520
sg37
(lp521
sg120
g472
sg121
S'RWLSTKDLYSRLELPTLNQNVHAMFVMPAGFGNPMGDMLARLNNSFWLVPLSLEGPGTGWTVYPPLSHSGPSVDMVFHMSSSLLGAMNFTNMRGTLFWTALLLLSLPVLAGTLLDRNFNTFEGGDPLYHLFWFFGHPEVYMIPGFGSHSTYKKFGMYASMGLGFVWSHHMYVGLDDRAYFTAATMIAPTGVKFSWLATYGGRPFLTFMFLFTGGTGVLNASDAFHDTYYVVLAFSLGYFPYNLFMFLFGMPDAGWSSSYQLGPDESNE'
p522
sg123
F0.13538
sg124
g125
sg33
S'207'
p523
sg127
g1
(g128
g12
(dp524
g130
I4
sg131
g132
sg133
g134
sg135
g132
sg136
I01
sg34
g137
sg138
g134
sg139
I0
sg140
I0
sg141
I0
sg142
g134
sg35
g132
sg143
I0
stRp525
sg145
g146
sg147
F1
sg148
Nsg30
S'MspicA'
p526
sbasg120
g362
sg123
F0.10536
sg124
g125
sg33
S'197'
p527
sg127
g1
(g128
g12
(dp528
g130
I8
sg131
g132
sg133
g134
sg135
g132
sg136
I01
sg34
g173
sg138
g134
sg139
I0
sg140
I0
sg141
I0
sg142
g134
sg35
g132
sg143
I0
stRp529
sg145
g146
sg147
F0.98999999999999999
sg148
Nsg30
S'NoName'
p530
sbasg120
g290
sg123
F0.03209
sg124
g125
sg33
S'68'
p531
sg127
g1
(g128
g12
(dp532
g130
I8
sg131
g132
sg133
g134
sg135
g132
sg136
I01
sg34
g173
sg138
g134
sg139
I0
sg140
I0
sg141
I0
sg142
g134
sg35
g132
sg143
I0
stRp533
sg145
g146
sg147
F0.98999999999999999
sg148
Nsg30
S'NoName'
p534
sbasg120
g277
sg123
F0.32869999999999999
sg124
g125
sg33
S'49'
p535
sg127
g1
(g128
g12
(dp536
g130
I8
sg131
g132
sg133
g134
sg135
g132
sg136
I01
sg34
g173
sg138
g134
sg139
I0
sg140
I0
sg141
I0
sg142
g134
sg35
g132
sg143
I0
stRp537
sg145
g146
sg147
F0.98999999999999999
sg148
Nsg30
S'NoName'
p538
sbag1
(g2
g3
NtRp539
(dp540
g6
g1
(g7
g3
NtRp541
(dp542
g10
g1
(g11
g12
(dtRp543
sg14
g1
(g11
g12
(dtRp544
sg16
g1
(g11
g12
(dtRp545
sg18
g1
(g11
g12
(dtRp546
sg20
g1
(g11
g12
(dtRp547
sg22
g1
(g11
g12
(dtRp548
sbsg24
g25
sg26
g27
((lp549
g33
ag32
ag29
ag30
atRp550
sg37
(lp551
g1
(g2
g3
NtRp552
(dp553
g6
g1
(g7
g3
NtRp554
(dp555
g10
g1
(g11
g12
(dtRp556
sg14
g1
(g11
g12
(dtRp557
sg16
g1
(g11
g12
(dtRp558
sg18
g1
(g11
g12
(dtRp559
sg20
g1
(g11
g12
(dtRp560
sg22
g1
(g11
g12
(dtRp561
sbsg24
g25
sg26
g27
((lp562
g33
ag32
ag29
ag30
atRp563
sg37
(lp564
g1
(g2
g3
NtRp565
(dp566
g6
g1
(g7
g3
NtRp567
(dp568
g10
g1
(g11
g12
(dtRp569
sg14
g1
(g11
g12
(dtRp570
sg16
g1
(g11
g12
(dtRp571
sg18
g1
(g11
g12
(dtRp572
sg20
g1
(g11
g12
(dtRp573
sg22
g1
(g11
g12
(dtRp574
sbsg24
S'Cze'
p575
sg26
g27
((lp576
g29
ag30
aS'sequence'
p577
ag32
ag33
aS'species'
p578
atRp579
sg37
(lp580
sg120
g552
sg121
S'SWLSTQNLYSRIELPNLNQNVHAMFVMPTGLANPQGDTFPRMNNAFVLLPMSLDGPGSGWTLYPPLTHSGSSMDMAFHLSSSIFGAINLTNMRGPLFWTALMMLALPVLAGTLLDRNFNTFVGGDPLYHIFWFFGHPEVYIIPVFGSQQVYKKFGMYASIGLGFVWSHHMFVGLDDRAYFSGASLIAPTGSKFSWLATYGGRPLLAFMVLFTGGTGVMNSSDMFHDTYYVVLVFGVAYFPYNLFWFLFGLPDAGWSSSYQFGPDESNE'
p581
sg123
F1.5682799999999999
sg124
g125
sg33
S'205'
p582
sg127
g1
(g128
g12
(dp583
g130
I4
sg131
g132
sg133
g134
sg135
g132
sg136
I01
sg34
g137
sg138
g134
sg139
I0
sg140
I0
sg141
I0
sg142
g134
sg35
g132
sg143
I0
stRp584
sg145
g146
sg147
F1
sg148
Nsg30
S'CzempA'
p585
sbag1
(g2
g3
NtRp586
(dp587
g6
g1
(g7
g3
NtRp588
(dp589
g10
g1
(g11
g12
(dtRp590
sg14
g1
(g11
g12
(dtRp591
sg16
g1
(g11
g12
(dtRp592
sg18
g1
(g11
g12
(dtRp593
sg20
g1
(g11
g12
(dtRp594
sg22
g1
(g11
g12
(dtRp595
sbsg24
g25
sg26
g27
((lp596
g33
ag32
ag29
ag30
atRp597
sg37
(lp598
g1
(g2
g3
NtRp599
(dp600
g6
g1
(g7
g3
NtRp601
(dp602
g10
g1
(g11
g12
(dtRp603
sg14
g1
(g11
g12
(dtRp604
sg16
g1
(g11
g12
(dtRp605
sg18
g1
(g11
g12
(dtRp606
sg20
g1
(g11
g12
(dtRp607
sg22
g1
(g11
g12
(dtRp608
sbsg24
S'Csa'
p609
sg26
g27
((lp610
g29
ag30
aS'sequence'
p611
ag32
ag33
aS'species'
p612
atRp613
sg37
(lp614
sg120
g586
sg121
S'----------RLELPNLNQNVHAMFVMPSGFGNPMGDMLARLNNSFWLVPLSLDGPGTGWTMYPPLSHSGASVDLVFHISSSLLGAMNFTNMRGTLFWTALLLLSLPVLSGTLLDRNFNTFEGGDMLYHMFWFFGHPEVYMMPGFGSQSVYKKFGMYASMGLGFVWSHHMFVGLDDRAYFTAATLMAPTGVKFSWLASYGGRPLLAFMFLFTGGTGVLNASDAFHDTYYVVLAFSLGYFPYNLFWFQFAMPDAGWSSSYQMGPDFSNE'
p615
sg123
F0.65920000000000001
sg124
g125
sg33
S'50'
p616
sg127
g1
(g128
g12
(dp617
g130
I4
sg131
g132
sg133
g134
sg135
g132
sg136
I01
sg34
g137
sg138
g134
sg139
I0
sg140
I0
sg141
I0
sg142
g134
sg35
g132
sg143
I0
stRp618
sg145
g146
sg147
F1
sg148
Nsg30
S'CsantA'
p619
sbag1
(g2
g3
NtRp620
(dp621
g6
g1
(g7
g3
NtRp622
(dp623
g10
g1
(g11
g12
(dtRp624
sg14
g1
(g11
g12
(dtRp625
sg16
g1
(g11
g12
(dtRp626
sg18
g1
(g11
g12
(dtRp627
sg20
g1
(g11
g12
(dtRp628
sg22
g1
(g11
g12
(dtRp629
sbsg24
S'Csa'
p630
sg26
g27
((lp631
g29
ag30
aS'sequence'
p632
ag32
ag33
aS'species'
p633
atRp634
sg37
(lp635
sg120
g586
sg121
S'RWLSTKDLYSRLELPAMSQNVHAMFVMPSGFANPMGDTLPRVNNAAILMPMSLEGPGTGWTVYPPLSHSGVSVDLVFHISSSLAGAMNLTNMRGPLFWTALLLLSLPVLAGTLIDRNFNTFDGGDVLYHLFWFFGHPEVYIIPGFGSESRYNKFGMYASIGLGFVWSHHMYVGLDDRSYFTAATLIAPTGVKFSWMATFGGRPFLTFLALFTGGTGVLNASDAFHDTYYVVLAFSMGYYPYNLFWFQFGQSDAGWSSSYQLGPDESNE'
p636
sg123
F1.3581099999999999
sg124
g125
sg33
S'91'
p637
sg127
g1
(g128
g12
(dp638
g130
I4
sg131
g132
sg133
g134
sg135
g132
sg136
I01
sg34
g137
sg138
g134
sg139
I0
sg140
I0
sg141
I0
sg142
g134
sg35
g132
sg143
I0
stRp639
sg145
g146
sg147
F1
sg148
Nsg30
S'CsalmA'
p640
sbasg120
g552
sg123
F0.19968
sg124
g125
sg33
S'204'
p641
sg127
g1
(g128
g12
(dp642
g130
I8
sg131
g132
sg133
g134
sg135
g132
sg136
I01
sg34
g173
sg138
g134
sg139
I0
sg140
I0
sg141
I0
sg142
g134
sg35
g132
sg143
I0
stRp643
sg145
g146
sg147
F0.97999999999999998
sg148
Nsg30
S'NoName'
p644
sbasg120
g539
sg123
F0.14363999999999999
sg124
g125
sg33
S'176'
p645
sg127
g1
(g128
g12
(dp646
g130
I8
sg131
g132
sg133
g134
sg135
g132
sg136
I01
sg34
g173
sg138
g134
sg139
I0
sg140
I0
sg141
I0
sg142
g134
sg35
g132
sg143
I0
stRp647
sg145
g146
sg147
F0.93000000000000005
sg148
Nsg30
S'NoName'
p648
sbag1
(g2
g3
NtRp649
(dp650
g6
g1
(g7
g3
NtRp651
(dp652
g10
g1
(g11
g12
(dtRp653
sg14
g1
(g11
g12
(dtRp654
sg16
g1
(g11
g12
(dtRp655
sg18
g1
(g11
g12
(dtRp656
sg20
g1
(g11
g12
(dtRp657
sg22
g1
(g11
g12
(dtRp658
sbsg24
S'Bar'
p659
sg26
g27
((lp660
g29
ag30
aS'sequence'
p661
ag32
ag33
aS'species'
p662
atRp663
sg37
(lp664
sg120
g539
sg121
S'RWLSTKDLYSRLELPNLNQNSHAMFVMPTGFGNPMGDMLSRLNNSFWLVPLSLEGPGTGWTVYPPLSHSGPSVDLVFHVSSSLLGAMNFTNMRGTLFWTVLLLLALPVLAGTLLDRNFNTFEGGDPLYHMFWFFGHPEVYIIPGFGSQAVYNKFGMYASIGLGFVWSHHMYVGMDDRAYFTAATLIAPTGVKFSWLASYGGRPLLTFIGLFTGGTGVLNAADAFHDSYYVVLAFSLGYFPYNLFWFQFSMPDAGWSSSVQLGPDVNNE'
p665
sg123
F0.74575000000000002
sg124
g125
sg33
S'44'
p666
sg127
g1
(g128
g12
(dp667
g130
I4
sg131
g132
sg133
g134
sg135
g132
sg136
I01
sg34
g137
sg138
g134
sg139
I0
sg140
I0
sg141
I0
sg142
g134
sg35
g132
sg143
I0
stRp668
sg145
g146
sg147
F1
sg148
Nsg30
S'BarxA'
p669
sbasg120
g277
sg123
F0.25233
sg124
g125
sg33
S'193'
p670
sg127
g1
(g128
g12
(dp671
g130
I8
sg131
g132
sg133
g134
sg135
g132
sg136
I01
sg34
g173
sg138
g134
sg139
I0
sg140
I0
sg141
I0
sg142
g134
sg35
g132
sg143
I0
stRp672
sg145
g146
sg147
F0.97999999999999998
sg148
Nsg30
S'NoName'
p673
sbasg120
g264
sg123
F0.42224
sg124
g125
sg33
S'42'
p674
sg127
g1
(g128
g12
(dp675
g130
I8
sg131
g132
sg133
g134
sg135
g132
sg136
I01
sg34
g173
sg138
g134
sg139
I0
sg140
I0
sg141
I0
sg142
g134
sg35
g132
sg143
I0
stRp676
sg145
g146
sg147
F0.97999999999999998
sg148
Nsg30
S'NoName'
p677
sbag1
(g2
g3
NtRp678
(dp679
g6
g1
(g7
g3
NtRp680
(dp681
g10
g1
(g11
g12
(dtRp682
sg14
g1
(g11
g12
(dtRp683
sg16
g1
(g11
g12
(dtRp684
sg18
g1
(g11
g12
(dtRp685
sg20
g1
(g11
g12
(dtRp686
sg22
g1
(g11
g12
(dtRp687
sbsg24
g25
sg26
g27
((lp688
g33
ag32
ag29
ag30
atRp689
sg37
(lp690
g1
(g2
g3
NtRp691
(dp692
g6
g1
(g7
g3
NtRp693
(dp694
g10
g1
(g11
g12
(dtRp695
sg14
g1
(g11
g12
(dtRp696
sg16
g1
(g11
g12
(dtRp697
sg18
g1
(g11
g12
(dtRp698
sg20
g1
(g11
g12
(dtRp699
sg22
g1
(g11
g12
(dtRp700
sbsg24
g25
sg26
g27
((lp701
g33
ag32
ag29
ag30
atRp702
sg37
(lp703
g1
(g2
g3
NtRp704
(dp705
g6
g1
(g7
g3
NtRp706
(dp707
g10
g1
(g11
g12
(dtRp708
sg14
g1
(g11
g12
(dtRp709
sg16
g1
(g11
g12
(dtRp710
sg18
g1
(g11
g12
(dtRp711
sg20
g1
(g11
g12
(dtRp712
sg22
g1
(g11
g12
(dtRp713
sbsg24
g25
sg26
g27
((lp714
g33
ag32
ag29
ag30
atRp715
sg37
(lp716
g1
(g2
g3
NtRp717
(dp718
g6
g1
(g7
g3
NtRp719
(dp720
g10
g1
(g11
g12
(dtRp721
sg14
g1
(g11
g12
(dtRp722
sg16
g1
(g11
g12
(dtRp723
sg18
g1
(g11
g12
(dtRp724
sg20
g1
(g11
g12
(dtRp725
sg22
g1
(g11
g12
(dtRp726
sbsg24
g25
sg26
g27
((lp727
g33
ag32
ag29
ag30
atRp728
sg37
(lp729
g1
(g2
g3
NtRp730
(dp731
g6
g1
(g7
g3
NtRp732
(dp733
g10
g1
(g11
g12
(dtRp734
sg14
g1
(g11
g12
(dtRp735
sg16
g1
(g11
g12
(dtRp736
sg18
g1
(g11
g12
(dtRp737
sg20
g1
(g11
g12
(dtRp738
sg22
g1
(g11
g12
(dtRp739
sbsg24
S'Mfa'
p740
sg26
g27
((lp741
g29
ag30
aS'sequence'
p742
ag32
ag33
aS'species'
p743
atRp744
sg37
(lp745
sg120
g717
sg121
S'RWLSTKDLYSRLELGNLNQNVHAMFVMPLGFGNPLGDMFARLNNSFWLPPLSLEGAGTGWTVYPPLSHSGPSVDLAFHLTSSLLGAINFTNMRGPLFWTALLLLSLPVLAGTLLDRNFNTFEGGDPLYHLFWFFGHPEVYIIPGFGSHSTYKKFGMYASIGLGFVWSHHMYVGLDDRAYFTSATMIAPTGIKFSWLATYGGRPMLAFLFLFTGGTGVLNASDAFHDTYFVVMAFSLAYYPYNLFWFMFGMPDAGWSSSYQMGPDESNE'
p746
sg123
F0.14163999999999999
sg124
g125
sg33
S'101'
p747
sg127
g1
(g128
g12
(dp748
g130
I4
sg131
g132
sg133
g134
sg135
g132
sg136
I01
sg34
g137
sg138
g134
sg139
I0
sg140
I0
sg141
I0
sg142
g134
sg35
g132
sg143
I0
stRp749
sg145
g146
sg147
F1
sg148
Nsg30
S'MfariB'
p750
sbag1
(g2
g3
NtRp751
(dp752
g6
g1
(g7
g3
NtRp753
(dp754
g10
g1
(g11
g12
(dtRp755
sg14
g1
(g11
g12
(dtRp756
sg16
g1
(g11
g12
(dtRp757
sg18
g1
(g11
g12
(dtRp758
sg20
g1
(g11
g12
(dtRp759
sg22
g1
(g11
g12
(dtRp760
sbsg24
S'Csa'
p761
sg26
g27
((lp762
g29
ag30
aS'sequence'
p763
ag32
ag33
aS'species'
p764
atRp765
sg37
(lp766
sg120
g717
sg121
S'RWLSTKDLYSRLELGNFNQNVHAMFVMPLGFGNPLGDMFARLNNSFWLPPLSLEGAGTGWTVYPPLSHSGPSVDLAFHLTSSLLGAINFTNMRGPLFWTALLLLSLPVLAATLLDRNFNTFEGGDPLYHLFWFFGHPEVYIIPGFGSHSTYKKFGMYASMGLGFVWSHHMYVGLDDRAYFTSATMIAPTGMKFSWLATYGGRPMLAFLFLFTGGTGVLNASDAFHDTYYVVMAFSLAYYPYNWFWFMFGMPDAGWSSSYQMGPDESNE'
p767
sg123
F0.069970000000000004
sg124
g125
sg33
S'27'
p768
sg127
g1
(g128
g12
(dp769
g130
I4
sg131
g132
sg133
g134
sg135
g132
sg136
I01
sg34
g137
sg138
g134
sg139
I0
sg140
I0
sg141
I0
sg142
g134
sg35
g132
sg143
I0
stRp770
sg145
g146
sg147
F1
sg148
Nsg30
S'CsakeA'
p771
sbasg120
g704
sg123
F0.048980000000000003
sg124
g125
sg33
S'24'
p772
sg127
g1
(g128
g12
(dp773
g130
I8
sg131
g132
sg133
g134
sg135
g132
sg136
I01
sg34
g173
sg138
g134
sg139
I0
sg140
I0
sg141
I0
sg142
g134
sg35
g132
sg143
I0
stRp774
sg145
g146
sg147
F0.98999999999999999
sg148
Nsg30
S'NoName'
p775
sbag1
(g2
g3
NtRp776
(dp777
g6
g1
(g7
g3
NtRp778
(dp779
g10
g1
(g11
g12
(dtRp780
sg14
g1
(g11
g12
(dtRp781
sg16
g1
(g11
g12
(dtRp782
sg18
g1
(g11
g12
(dtRp783
sg20
g1
(g11
g12
(dtRp784
sg22
g1
(g11
g12
(dtRp785
sbsg24
g25
sg26
g27
((lp786
g33
ag32
ag29
ag30
atRp787
sg37
(lp788
g1
(g2
g3
NtRp789
(dp790
g6
g1
(g7
g3
NtRp791
(dp792
g10
g1
(g11
g12
(dtRp793
sg14
g1
(g11
g12
(dtRp794
sg16
g1
(g11
g12
(dtRp795
sg18
g1
(g11
g12
(dtRp796
sg20
g1
(g11
g12
(dtRp797
sg22
g1
(g11
g12
(dtRp798
sbsg24
g25
sg26
g27
((lp799
g33
ag32
ag29
ag30
atRp800
sg37
(lp801
g1
(g2
g3
NtRp802
(dp803
g6
g1
(g7
g3
NtRp804
(dp805
g10
g1
(g11
g12
(dtRp806
sg14
g1
(g11
g12
(dtRp807
sg16
g1
(g11
g12
(dtRp808
sg18
g1
(g11
g12
(dtRp809
sg20
g1
(g11
g12
(dtRp810
sg22
g1
(g11
g12
(dtRp811
sbsg24
S'Mfa'
p812
sg26
g27
((lp813
g29
ag30
aS'sequence'
p814
ag32
ag33
aS'species'
p815
atRp816
sg37
(lp817
sg120
g789
sg121
S'RWLSTKDLYSRAELGNFNHNVHAMFVMPLGFGNPMGDMFARLNNSFWLPPLSLEGAGTGWTVYPPLSHSGPSVDLAFHLTSSLLGAMNFTNMRGPLFWTALLLLSLPVLAGTLLDRNFNTFEGGDPLYHLFWFFGHPEVYIIPGFGSHSTYKKFGMYASMGLGFVWSHHMYVGLDDRAYFTSATMMAPTGIKFSWLATYGGRPMLAFLFLFTGGTGVLNASDAFHDTYYMYMAFSLGYYPYNWFWFMFGMPDAGWSSSKQLGPDESNE'
p818
sg123
F0.29086000000000001
sg124
g125
sg33
S'98'
p819
sg127
g1
(g128
g12
(dp820
g130
I4
sg131
g132
sg133
g134
sg135
g132
sg136
I01
sg34
g137
sg138
g134
sg139
I0
sg140
I0
sg141
I0
sg142
g134
sg35
g132
sg143
I0
stRp821
sg145
g146
sg147
F1
sg148
Nsg30
S'MfariA'
p822
sbag1
(g2
g3
NtRp823
(dp824
g6
g1
(g7
g3
NtRp825
(dp826
g10
g1
(g11
g12
(dtRp827
sg14
g1
(g11
g12
(dtRp828
sg16
g1
(g11
g12
(dtRp829
sg18
g1
(g11
g12
(dtRp830
sg20
g1
(g11
g12
(dtRp831
sg22
g1
(g11
g12
(dtRp832
sbsg24
S'Dha'
p833
sg26
g27
((lp834
g29
ag30
aS'sequence'
p835
ag32
ag33
aS'species'
p836
atRp837
sg37
(lp838
sg120
g789
sg121
S'RWLSTKDLYSRMELGNFNQNVHAMFIMPWGFGNPLGDMFARLNNSFWLPPLSLEGAGTGWTLYPPLSHSGPSVDLAFHLTSSLLGAMNFTNMRGPLFWTALLLLSLPVLAATLLDRNFNTFEGGDPLYHLFWFFGHPEVYIMPGFGSHSTYKKFGMYASIGLGFVWSHHMFVGLDDRAYFTSATMIAPTGIKFSWLATYGGRPMLAFLFLFTGGTGVLNASDAFHDTYYVVMAFSLAYYPYNLFWFMFGMPDAGWSSSKQLGPDESND'
p839
sg123
F0.11043
sg124
g125
sg33
S'102'
p840
sg127
g1
(g128
g12
(dp841
g130
I4
sg131
g132
sg133
g134
sg135
g132
sg136
I01
sg34
g137
sg138
g134
sg139
I0
sg140
I0
sg141
I0
sg142
g134
sg35
g132
sg143
I0
stRp842
sg145
g146
sg147
F1
sg148
Nsg30
S'DhansA'
p843
sbasg120
g776
sg123
F0.046699999999999998
sg124
g125
sg33
S'89'
p844
sg127
g1
(g128
g12
(dp845
g130
I8
sg131
g132
sg133
g134
sg135
g132
sg136
I01
sg34
g173
sg138
g134
sg139
I0
sg140
I0
sg141
I0
sg142
g134
sg35
g132
sg143
I0
stRp846
sg145
g146
sg147
F0.65000000000000002
sg148
Nsg30
S'NoName'
p847
sbag1
(g2
g3
NtRp848
(dp849
g6
g1
(g7
g3
NtRp850
(dp851
g10
g1
(g11
g12
(dtRp852
sg14
g1
(g11
g12
(dtRp853
sg16
g1
(g11
g12
(dtRp854
sg18
g1
(g11
g12
(dtRp855
sg20
g1
(g11
g12
(dtRp856
sg22
g1
(g11
g12
(dtRp857
sbsg24
g25
sg26
g27
((lp858
g33
ag32
ag29
ag30
atRp859
sg37
(lp860
g1
(g2
g3
NtRp861
(dp862
g6
g1
(g7
g3
NtRp863
(dp864
g10
g1
(g11
g12
(dtRp865
sg14
g1
(g11
g12
(dtRp866
sg16
g1
(g11
g12
(dtRp867
sg18
g1
(g11
g12
(dtRp868
sg20
g1
(g11
g12
(dtRp869
sg22
g1
(g11
g12
(dtRp870
sbsg24
S'Clu'
p871
sg26
g27
((lp872
g29
ag30
aS'sequence'
p873
ag32
ag33
aS'species'
p874
atRp875
sg37
(lp876
sg120
g848
sg121
S'RWLSTKDLYSRLELPDLNQNVHAMFVMPLGFGNPMGDMFARLNNSFWLPPLSLEGAGTGWTVYPPLSHSGPSVDLAFHLTSSLLGAINFTNMRGPLFWTALLLLSLPVLAGTLLDRNFNTFEGGDPLYHLFWFFGHPEVYMMPGFGSHSTYKKFGMYASMGLGFVWSHHMYVGLDDRAYFTSATMMAPTGMKFSWLATYGGRPMLAFLFLFTGGTGVLNASDAFHDTYYVVMAFSLGYYPYNWFWFMFGMPDAGWSSSRQLGPDESNE'
p877
sg123
F0.037310000000000003
sg124
g125
sg33
S'80'
p878
sg127
g1
(g128
g12
(dp879
g130
I4
sg131
g132
sg133
g134
sg135
g132
sg136
I01
sg34
g137
sg138
g134
sg139
I0
sg140
I0
sg141
I0
sg142
g134
sg35
g132
sg143
I0
stRp880
sg145
g146
sg147
F1
sg148
Nsg30
S'ClusiA'
p881
sbag1
(g2
g3
NtRp882
(dp883
g6
g1
(g7
g3
NtRp884
(dp885
g10
g1
(g11
g12
(dtRp886
sg14
g1
(g11
g12
(dtRp887
sg16
g1
(g11
g12
(dtRp888
sg18
g1
(g11
g12
(dtRp889
sg20
g1
(g11
g12
(dtRp890
sg22
g1
(g11
g12
(dtRp891
sbsg24
g25
sg26
g27
((lp892
g33
ag32
ag29
ag30
atRp893
sg37
(lp894
g1
(g2
g3
NtRp895
(dp896
g6
g1
(g7
g3
NtRp897
(dp898
g10
g1
(g11
g12
(dtRp899
sg14
g1
(g11
g12
(dtRp900
sg16
g1
(g11
g12
(dtRp901
sg18
g1
(g11
g12
(dtRp902
sg20
g1
(g11
g12
(dtRp903
sg22
g1
(g11
g12
(dtRp904
sbsg24
S'Mgu'
p905
sg26
g27
((lp906
g29
ag30
aS'sequence'
p907
ag32
ag33
aS'species'
p908
atRp909
sg37
(lp910
sg120
g882
sg121
S'---------------------------------------------------------------------------------------------------------------------------------------------------------------------------------------------------------------------------------------MAFSLGYYPYNWFWFMFGMPDAGWSSSKQLGPDESNE'
p911
sg123
F0.0044999999999999997
sg124
g125
sg33
S'10'
p912
sg127
g1
(g128
g12
(dp913
g130
I4
sg131
g132
sg133
g134
sg135
g132
sg136
I01
sg34
g137
sg138
g134
sg139
I0
sg140
I0
sg141
I0
sg142
g134
sg35
g132
sg143
I0
stRp914
sg145
g146
sg147
F1
sg148
Nsg30
S'MguilB'
p915
sbag1
(g2
g3
NtRp916
(dp917
g6
g1
(g7
g3
NtRp918
(dp919
g10
g1
(g11
g12
(dtRp920
sg14
g1
(g11
g12
(dtRp921
sg16
g1
(g11
g12
(dtRp922
sg18
g1
(g11
g12
(dtRp923
sg20
g1
(g11
g12
(dtRp924
sg22
g1
(g11
g12
(dtRp925
sbsg24
S'Mgu'
p926
sg26
g27
((lp927
g29
ag30
aS'sequence'
p928
ag32
ag33
aS'species'
p929
atRp930
sg37
(lp931
sg120
g882
sg121
S'RWLSTKDLYSRMELGNFNQNVHAMFVMPIGFGNPMGDMFARLNNSFWLPPLSLEGAGTGWTVYPPLSHSGPSVDMAFHLTSSLLGAMNFTNMRGPLFWTALLLLSLPVLAGTLLDRNFNTFEGGDPLYHLFWFFGHPEVYMMPGFGSHSTYKKFGMYASIGLGFVWSHHMYVGLDDRAYFTSATMMAPTGMKFSWLSTYGGRPMLAFLFLFTGGTGVLNASDAFHDTYYVVMAFSLGYYPYNWFWFMFGMPDAGWSSSKQLGPDESNE'
p932
sg123
F0.0020100000000000001
sg124
g125
sg33
S'79'
p933
sg127
g1
(g128
g12
(dp934
g130
I4
sg131
g132
sg133
g134
sg135
g132
sg136
I01
sg34
g137
sg138
g134
sg139
I0
sg140
I0
sg141
I0
sg142
g134
sg35
g132
sg143
I0
stRp935
sg145
g146
sg147
F1
sg148
Nsg30
S'MguilA'
p936
sbasg120
g848
sg123
F0.25231999999999999
sg124
g125
sg33
S'74'
p937
sg127
g1
(g128
g12
(dp938
g130
I8
sg131
g132
sg133
g134
sg135
g132
sg136
I01
sg34
g173
sg138
g134
sg139
I0
sg140
I0
sg141
I0
sg142
g134
sg35
g132
sg143
I0
stRp939
sg145
g146
sg147
F0.98999999999999999
sg148
Nsg30
S'NoName'
p940
sbasg120
g776
sg123
F0.090679999999999997
sg124
g125
sg33
S'94'
p941
sg127
g1
(g128
g12
(dp942
g130
I8
sg131
g132
sg133
g134
sg135
g132
sg136
I01
sg34
g173
sg138
g134
sg139
I0
sg140
I0
sg141
I0
sg142
g134
sg35
g132
sg143
I0
stRp943
sg145
g146
sg147
F0.98999999999999999
sg148
Nsg30
S'NoName'
p944
sbasg120
g704
sg123
F0.032190000000000003
sg124
g125
sg33
S'97'
p945
sg127
g1
(g128
g12
(dp946
g130
I8
sg131
g132
sg133
g134
sg135
g132
sg136
I01
sg34
g173
sg138
g134
sg139
I0
sg140
I0
sg141
I0
sg142
g134
sg35
g132
sg143
I0
stRp947
sg145
g146
sg147
F0.64000000000000001
sg148
Nsg30
S'NoName'
p948
sbasg120
g691
sg123
F0.12181
sg124
g125
sg33
S'41'
p949
sg127
g1
(g128
g12
(dp950
g130
I8
sg131
g132
sg133
g134
sg135
g132
sg136
I01
sg34
g173
sg138
g134
sg139
I0
sg140
I0
sg141
I0
sg142
g134
sg35
g132
sg143
I0
stRp951
sg145
g146
sg147
F0.98999999999999999
sg148
Nsg30
S'NoName'
p952
sbag1
(g2
g3
NtRp953
(dp954
g6
g1
(g7
g3
NtRp955
(dp956
g10
g1
(g11
g12
(dtRp957
sg14
g1
(g11
g12
(dtRp958
sg16
g1
(g11
g12
(dtRp959
sg18
g1
(g11
g12
(dtRp960
sg20
g1
(g11
g12
(dtRp961
sg22
g1
(g11
g12
(dtRp962
sbsg24
g25
sg26
g27
((lp963
g33
ag32
ag29
ag30
atRp964
sg37
(lp965
g1
(g2
g3
NtRp966
(dp967
g6
g1
(g7
g3
NtRp968
(dp969
g10
g1
(g11
g12
(dtRp970
sg14
g1
(g11
g12
(dtRp971
sg16
g1
(g11
g12
(dtRp972
sg18
g1
(g11
g12
(dtRp973
sg20
g1
(g11
g12
(dtRp974
sg22
g1
(g11
g12
(dtRp975
sbsg24
g25
sg26
g27
((lp976
g33
ag32
ag29
ag30
atRp977
sg37
(lp978
g1
(g2
g3
NtRp979
(dp980
g6
g1
(g7
g3
NtRp981
(dp982
g10
g1
(g11
g12
(dtRp983
sg14
g1
(g11
g12
(dtRp984
sg16
g1
(g11
g12
(dtRp985
sg18
g1
(g11
g12
(dtRp986
sg20
g1
(g11
g12
(dtRp987
sg22
g1
(g11
g12
(dtRp988
sbsg24
S'Cbl'
p989
sg26
g27
((lp990
g29
ag30
aS'sequence'
p991
ag32
ag33
aS'species'
p992
atRp993
sg37
(lp994
sg120
g966
sg121
S'RWLSTKDLYSRLELANLNQNVHAMFVMPLGMGNPMGDMFARLNNSFWLPPLSLEGPGTGWTLYAPLSHSGPSVDMAFHLTSSLLGAINFTNMRGPLYWTALLLLSLPVLAATLLDRNFNTFEGGDPLYHLFWFFGHPEVYMIPGFGSHSTYKKFGMYASIGLGFVWSHHMYVGLDDRAYFTSATMIAPTGIKFSWMATYGGRPMLAFLFLFTGGTGVLNASDAFHDTYYVVMAFSLGYYPYNLFWFMFGMPDAGWSSSYQLGPDESNE'
p995
sg123
F0.36785000000000001
sg124
g125
sg33
S'14'
p996
sg127
g1
(g128
g12
(dp997
g130
I4
sg131
g132
sg133
g134
sg135
g132
sg136
I01
sg34
g137
sg138
g134
sg139
I0
sg140
I0
sg141
I0
sg142
g134
sg35
g132
sg143
I0
stRp998
sg145
g146
sg147
F1
sg148
Nsg30
S'CblacA'
p999
sbag1
(g2
g3
NtRp1000
(dp1001
g6
g1
(g7
g3
NtRp1002
(dp1003
g10
g1
(g11
g12
(dtRp1004
sg14
g1
(g11
g12
(dtRp1005
sg16
g1
(g11
g12
(dtRp1006
sg18
g1
(g11
g12
(dtRp1007
sg20
g1
(g11
g12
(dtRp1008
sg22
g1
(g11
g12
(dtRp1009
sbsg24
g25
sg26
g27
((lp1010
g33
ag32
ag29
ag30
atRp1011
sg37
(lp1012
g1
(g2
g3
NtRp1013
(dp1014
g6
g1
(g7
g3
NtRp1015
(dp1016
g10
g1
(g11
g12
(dtRp1017
sg14
g1
(g11
g12
(dtRp1018
sg16
g1
(g11
g12
(dtRp1019
sg18
g1
(g11
g12
(dtRp1020
sg20
g1
(g11
g12
(dtRp1021
sg22
g1
(g11
g12
(dtRp1022
sbsg24
g25
sg26
g27
((lp1023
g33
ag32
ag29
ag30
atRp1024
sg37
(lp1025
g1
(g2
g3
NtRp1026
(dp1027
g6
g1
(g7
g3
NtRp1028
(dp1029
g10
g1
(g11
g12
(dtRp1030
sg14
g1
(g11
g12
(dtRp1031
sg16
g1
(g11
g12
(dtRp1032
sg18
g1
(g11
g12
(dtRp1033
sg20
g1
(g11
g12
(dtRp1034
sg22
g1
(g11
g12
(dtRp1035
sbsg24
g25
sg26
g27
((lp1036
g33
ag32
ag29
ag30
atRp1037
sg37
(lp1038
g1
(g2
g3
NtRp1039
(dp1040
g6
g1
(g7
g3
NtRp1041
(dp1042
g10
g1
(g11
g12
(dtRp1043
sg14
g1
(g11
g12
(dtRp1044
sg16
g1
(g11
g12
(dtRp1045
sg18
g1
(g11
g12
(dtRp1046
sg20
g1
(g11
g12
(dtRp1047
sg22
g1
(g11
g12
(dtRp1048
sbsg24
g25
sg26
g27
((lp1049
g33
ag32
ag29
ag30
atRp1050
sg37
(lp1051
g1
(g2
g3
NtRp1052
(dp1053
g6
g1
(g7
g3
NtRp1054
(dp1055
g10
g1
(g11
g12
(dtRp1056
sg14
g1
(g11
g12
(dtRp1057
sg16
g1
(g11
g12
(dtRp1058
sg18
g1
(g11
g12
(dtRp1059
sg20
g1
(g11
g12
(dtRp1060
sg22
g1
(g11
g12
(dtRp1061
sbsg24
S'Lel'
p1062
sg26
g27
((lp1063
g29
ag30
aS'sequence'
p1064
ag32
ag33
aS'species'
p1065
atRp1066
sg37
(lp1067
sg120
g1039
sg121
S'RWLSTKDLYSRLELPGLDQNVHAMFVMPLGFGNPMGDMFARLNNSFWLPPLSLEGAGTGWTVYPPLSHSGPSVDLAFHLTSSLLGAINFTNMRGPLYWTALLLFSLPVLAGTLLDRNFNTFDGGDPLYHLFWFFGHPEVYIIPGFGSHSTYKKFGMYASIGLGFVWSHHMYVGLDDRAYFTSATMIAPTGIKFSWLATYGGRPMLAFLFLFTGGTGVLNASDAFHDTYYTVMAFSLGYYYYNLFWFMFGMPDAGWSSSYQLGPDESNE'
p1068
sg123
F0.18278
sg124
g125
sg33
S'67'
p1069
sg127
g1
(g128
g12
(dp1070
g130
I4
sg131
g132
sg133
g134
sg135
g132
sg136
I01
sg34
g137
sg138
g134
sg139
I0
sg140
I0
sg141
I0
sg142
g134
sg35
g132
sg143
I0
stRp1071
sg145
g146
sg147
F1
sg148
Nsg30
S'LelonA'
p1072
sbag1
(g2
g3
NtRp1073
(dp1074
g6
g1
(g7
g3
NtRp1075
(dp1076
g10
g1
(g11
g12
(dtRp1077
sg14
g1
(g11
g12
(dtRp1078
sg16
g1
(g11
g12
(dtRp1079
sg18
g1
(g11
g12
(dtRp1080
sg20
g1
(g11
g12
(dtRp1081
sg22
g1
(g11
g12
(dtRp1082
sbsg24
S'Cox'
p1083
sg26
g27
((lp1084
g29
ag30
aS'sequence'
p1085
ag32
ag33
aS'species'
p1086
atRp1087
sg37
(lp1088
sg120
g1039
sg121
S'RWLSTKDLYSRLELSGLDQNVHAMFVMPIGFGNPMGDMFARLNNSFWLPPLSLEGPGVGWTVYPPLSHSGPSVDLAFHLTSSLLGAINFTNMRGPLYWTALLLLSLPVLAGTLLDRNFNTFDGGDPLYHLFWFFGHPEVYMIPGFGSHATYKKFGMYASIGLGFVWSHHMYVGLDDRAYFTSATMIAPTGIKFSWLATYGGRPMLAFLFLFTGGTGILNASDAFHDTYYTVMAFSLGYLYYNIFWFMFGMPDAGWSSSYQLGPDESNE'
p1089
sg123
F0.17860000000000001
sg124
g125
sg33
S'62'
p1090
sg127
g1
(g128
g12
(dp1091
g130
I4
sg131
g132
sg133
g134
sg135
g132
sg136
I01
sg34
g137
sg138
g134
sg139
I0
sg140
I0
sg141
I0
sg142
g134
sg35
g132
sg143
I0
stRp1092
sg145
g146
sg147
F1
sg148
Nsg30
S'CoxycA'
p1093
sbasg120
g1026
sg123
F0.041480000000000003
sg124
g125
sg33
S'65'
p1094
sg127
g1
(g128
g12
(dp1095
g130
I8
sg131
g132
sg133
g134
sg135
g132
sg136
I01
sg34
g173
sg138
g134
sg139
I0
sg140
I0
sg141
I0
sg142
g134
sg35
g132
sg143
I0
stRp1096
sg145
g146
sg147
F0.98999999999999999
sg148
Nsg30
S'NoName'
p1097
sbag1
(g2
g3
NtRp1098
(dp1099
g6
g1
(g7
g3
NtRp1100
(dp1101
g10
g1
(g11
g12
(dtRp1102
sg14
g1
(g11
g12
(dtRp1103
sg16
g1
(g11
g12
(dtRp1104
sg18
g1
(g11
g12
(dtRp1105
sg20
g1
(g11
g12
(dtRp1106
sg22
g1
(g11
g12
(dtRp1107
sbsg24
g25
sg26
g27
((lp1108
g33
ag32
ag29
ag30
atRp1109
sg37
(lp1110
g1
(g2
g3
NtRp1111
(dp1112
g6
g1
(g7
g3
NtRp1113
(dp1114
g10
g1
(g11
g12
(dtRp1115
sg14
g1
(g11
g12
(dtRp1116
sg16
g1
(g11
g12
(dtRp1117
sg18
g1
(g11
g12
(dtRp1118
sg20
g1
(g11
g12
(dtRp1119
sg22
g1
(g11
g12
(dtRp1120
sbsg24
g25
sg26
g27
((lp1121
g33
ag32
ag29
ag30
atRp1122
sg37
(lp1123
g1
(g2
g3
NtRp1124
(dp1125
g6
g1
(g7
g3
NtRp1126
(dp1127
g10
g1
(g11
g12
(dtRp1128
sg14
g1
(g11
g12
(dtRp1129
sg16
g1
(g11
g12
(dtRp1130
sg18
g1
(g11
g12
(dtRp1131
sg20
g1
(g11
g12
(dtRp1132
sg22
g1
(g11
g12
(dtRp1133
sbsg24
g25
sg26
g27
((lp1134
g33
ag32
ag29
ag30
atRp1135
sg37
(lp1136
g1
(g2
g3
NtRp1137
(dp1138
g6
g1
(g7
g3
NtRp1139
(dp1140
g10
g1
(g11
g12
(dtRp1141
sg14
g1
(g11
g12
(dtRp1142
sg16
g1
(g11
g12
(dtRp1143
sg18
g1
(g11
g12
(dtRp1144
sg20
g1
(g11
g12
(dtRp1145
sg22
g1
(g11
g12
(dtRp1146
sbsg24
S'Cth'
p1147
sg26
g27
((lp1148
g29
ag30
aS'sequence'
p1149
ag32
ag33
aS'species'
p1150
atRp1151
sg37
(lp1152
sg120
g1124
sg121
S'RWLSTKDLYSRLELPGLNQNVHAMFVMPLGFGNPMGDMFARLNNSFWLPPLSLEGAGTGWTVYPPLSHSGPSVDLAFHLTSSLLGAINFTNMRGPLYWTALLLLSLPVLAGTLLDRNFNTFEGGDPLYHLFWFFGHPEVYIIPGFGSHSTYKKFGMYASIGLGFVWSHHMYVGLDDRAYFTSATMIAPTGIKFSWLATYGGRPMLAFLFLFTGGTGVLNASDAFHDTYYTVMAFSLGYYYYNLFWFMFGMPDAGWSSSYQLGPDESNE'
p1153
sg123
F0.010059999999999999
sg124
g125
sg33
S'70'
p1154
sg127
g1
(g128
g12
(dp1155
g130
I4
sg131
g132
sg133
g134
sg135
g132
sg136
I01
sg34
g137
sg138
g134
sg139
I0
sg140
I0
sg141
I0
sg142
g134
sg35
g132
sg143
I0
stRp1156
sg145
g146
sg147
F1
sg148
Nsg30
S'CtheaA'
p1157
sbag1
(g2
g3
NtRp1158
(dp1159
g6
g1
(g7
g3
NtRp1160
(dp1161
g10
g1
(g11
g12
(dtRp1162
sg14
g1
(g11
g12
(dtRp1163
sg16
g1
(g11
g12
(dtRp1164
sg18
g1
(g11
g12
(dtRp1165
sg20
g1
(g11
g12
(dtRp1166
sg22
g1
(g11
g12
(dtRp1167
sbsg24
g25
sg26
g27
((lp1168
g33
ag32
ag29
ag30
atRp1169
sg37
(lp1170
g1
(g2
g3
NtRp1171
(dp1172
g6
g1
(g7
g3
NtRp1173
(dp1174
g10
g1
(g11
g12
(dtRp1175
sg14
g1
(g11
g12
(dtRp1176
sg16
g1
(g11
g12
(dtRp1177
sg18
g1
(g11
g12
(dtRp1178
sg20
g1
(g11
g12
(dtRp1179
sg22
g1
(g11
g12
(dtRp1180
sbsg24
g25
sg26
g27
((lp1181
g33
ag32
ag29
ag30
atRp1182
sg37
(lp1183
g1
(g2
g3
NtRp1184
(dp1185
g6
g1
(g7
g3
NtRp1186
(dp1187
g10
g1
(g11
g12
(dtRp1188
sg14
g1
(g11
g12
(dtRp1189
sg16
g1
(g11
g12
(dtRp1190
sg18
g1
(g11
g12
(dtRp1191
sg20
g1
(g11
g12
(dtRp1192
sg22
g1
(g11
g12
(dtRp1193
sbsg24
g25
sg26
g27
((lp1194
g33
ag32
ag29
ag30
atRp1195
sg37
(lp1196
g1
(g2
g3
NtRp1197
(dp1198
g6
g1
(g7
g3
NtRp1199
(dp1200
g10
g1
(g11
g12
(dtRp1201
sg14
g1
(g11
g12
(dtRp1202
sg16
g1
(g11
g12
(dtRp1203
sg18
g1
(g11
g12
(dtRp1204
sg20
g1
(g11
g12
(dtRp1205
sg22
g1
(g11
g12
(dtRp1206
sbsg24
S'Cor'
p1207
sg26
g27
((lp1208
g29
ag30
aS'sequence'
p1209
ag32
ag33
aS'species'
p1210
atRp1211
sg37
(lp1212
sg120
g1184
sg121
S'RWLSTKDLYSRLELPGLNQNVHAMFVMPLGFGNPMGDMFARLNNSFWLPPLSLEGAGTGWTVYPPLSHSGPSVDLAFHLTSSLLGAINFTNMRGPLFWTALLLLSLPVLAGTLLDRNFNTFEGGDPLYHLFWFFGHPEVYIIPGFGSHSTYKKFGMYASIGLGFVWSHHMYVGLDDRAYFTSATMIAPTGIKFSWLATYGGRPMLAFLFLFTGGTGVLNASDAFHDTYYTVMAFSLGYYYYNLFWFMFGMPDAGWSSSYQLGPDESNE'
p1213
sg123
F0.00132
sg124
g125
sg33
S'223'
p1214
sg127
g1
(g128
g12
(dp1215
g130
I4
sg131
g132
sg133
g134
sg135
g132
sg136
I01
sg34
g137
sg138
g134
sg139
I0
sg140
I0
sg141
I0
sg142
g134
sg35
g132
sg143
I0
stRp1216
sg145
g146
sg147
F1
sg148
Nsg30
S'CorthC'
p1217
sbag1
(g2
g3
NtRp1218
(dp1219
g6
g1
(g7
g3
NtRp1220
(dp1221
g10
g1
(g11
g12
(dtRp1222
sg14
g1
(g11
g12
(dtRp1223
sg16
g1
(g11
g12
(dtRp1224
sg18
g1
(g11
g12
(dtRp1225
sg20
g1
(g11
g12
(dtRp1226
sg22
g1
(g11
g12
(dtRp1227
sbsg24
S'Cor'
p1228
sg26
g27
((lp1229
g29
ag30
aS'sequence'
p1230
ag32
ag33
aS'species'
p1231
atRp1232
sg37
(lp1233
sg120
g1184
sg121
S'RWLSTKDLYSRLELPGLNQNVHAMFVMPLGFGNPMGDMFARLNNSFWLPPLSLEGAGTGWTVYPPLSHSGPSVDLAFHLTSSLLGAINFTNMRGPLFWTALLLLSLPVLAGTLLDRNFNTFEGGDPLYHLFWFFGHPEVYIIPGFGSHSTYKKFGMYASIGLGFVWSHHMYVGLDDRAYFTSATMIAPTGIKFSWLATYGGRPMLAFLFLFTGGTGVLNASDAFHDTYYTVMAFSLGYYYYNLFWFMFGMPDAGWSSSYQLGPDESNE'
p1234
sg123
F0.00093000000000000005
sg124
g125
sg33
S'220'
p1235
sg127
g1
(g128
g12
(dp1236
g130
I4
sg131
g132
sg133
g134
sg135
g132
sg136
I01
sg34
g137
sg138
g134
sg139
I0
sg140
I0
sg141
I0
sg142
g134
sg35
g132
sg143
I0
stRp1237
sg145
g146
sg147
F1
sg148
Nsg30
S'CorthB'
p1238
sbasg120
g1171
sg123
F0.00052999999999999998
sg124
g125
sg33
S'32'
p1239
sg127
g1
(g128
g12
(dp1240
g130
I8
sg131
g132
sg133
g134
sg135
g132
sg136
I01
sg34
g173
sg138
g134
sg139
I0
sg140
I0
sg141
I0
sg142
g134
sg35
g132
sg143
I0
stRp1241
sg145
g146
sg147
F0.85999999999999999
sg148
Nsg30
S'NoName'
p1242
sbag1
(g2
g3
NtRp1243
(dp1244
g6
g1
(g7
g3
NtRp1245
(dp1246
g10
g1
(g11
g12
(dtRp1247
sg14
g1
(g11
g12
(dtRp1248
sg16
g1
(g11
g12
(dtRp1249
sg18
g1
(g11
g12
(dtRp1250
sg20
g1
(g11
g12
(dtRp1251
sg22
g1
(g11
g12
(dtRp1252
sbsg24
S'Cor'
p1253
sg26
g27
((lp1254
g29
ag30
aS'sequence'
p1255
ag32
ag33
aS'species'
p1256
atRp1257
sg37
(lp1258
sg120
g1171
sg121
S'RWLSTKDLYSRLELPGLNQNVHAMFVMPLGFGNPMGDMFARLNNSFWLPPLSLEGAGTGWTVYPPLSHSGPSVDLAFHLTSSLLGAINFTNMRGPLFWTALLLLSLPVLAGTLLDRNFNTFEGGDPLYHLFWFFGHPEVYIIPGFGSHSTYKKFGMYASIGLGFVWSHHMYVGLDDRAYFTSATMIAPTGIKFSWLATYGGRPMLAFLFLFTGGTGVLNASDAFHDTYYTVMAFSLGYYYYNLFWFMFGMPDAGWSSSYQLGPDESNE'
p1259
sg123
F0.0021099999999999999
sg124
g125
sg33
S'222'
p1260
sg127
g1
(g128
g12
(dp1261
g130
I4
sg131
g132
sg133
g134
sg135
g132
sg136
I01
sg34
g137
sg138
g134
sg139
I0
sg140
I0
sg141
I0
sg142
g134
sg35
g132
sg143
I0
stRp1262
sg145
g146
sg147
F1
sg148
Nsg30
S'CorthA'
p1263
sbasg120
g1158
sg123
F0.0031199999999999999
sg124
g125
sg33
S'3'
sg127
g1
(g128
g12
(dp1264
g130
I8
sg131
g132
sg133
g134
sg135
g132
sg136
I01
sg34
g173
sg138
g134
sg139
I0
sg140
I0
sg141
I0
sg142
g134
sg35
g132
sg143
I0
stRp1265
sg145
g146
sg147
F0.98999999999999999
sg148
Nsg30
S'NoName'
p1266
sbag1
(g2
g3
NtRp1267
(dp1268
g6
g1
(g7
g3
NtRp1269
(dp1270
g10
g1
(g11
g12
(dtRp1271
sg14
g1
(g11
g12
(dtRp1272
sg16
g1
(g11
g12
(dtRp1273
sg18
g1
(g11
g12
(dtRp1274
sg20
g1
(g11
g12
(dtRp1275
sg22
g1
(g11
g12
(dtRp1276
sbsg24
g25
sg26
g27
((lp1277
g33
ag32
ag29
ag30
atRp1278
sg37
(lp1279
g1
(g2
g3
NtRp1280
(dp1281
g6
g1
(g7
g3
NtRp1282
(dp1283
g10
g1
(g11
g12
(dtRp1284
sg14
g1
(g11
g12
(dtRp1285
sg16
g1
(g11
g12
(dtRp1286
sg18
g1
(g11
g12
(dtRp1287
sg20
g1
(g11
g12
(dtRp1288
sg22
g1
(g11
g12
(dtRp1289
sbsg24
g25
sg26
g27
((lp1290
g33
ag32
ag29
ag30
atRp1291
sg37
(lp1292
g1
(g2
g3
NtRp1293
(dp1294
g6
g1
(g7
g3
NtRp1295
(dp1296
g10
g1
(g11
g12
(dtRp1297
sg14
g1
(g11
g12
(dtRp1298
sg16
g1
(g11
g12
(dtRp1299
sg18
g1
(g11
g12
(dtRp1300
sg20
g1
(g11
g12
(dtRp1301
sg22
g1
(g11
g12
(dtRp1302
sbsg24
S'Cpa'
p1303
sg26
g27
((lp1304
g29
ag30
aS'sequence'
p1305
ag32
ag33
aS'species'
p1306
atRp1307
sg37
(lp1308
sg120
g1280
sg121
S'RWLSTKDLYSRLELPGLNQNVHAMFVMPLGFGNPMGDMFARLNNSFWLPPLSLEGAGTGWTVYPPLSHSGPSVDLAFHLTSSLLGAINFTNMRGPLFWTALLLLSLPVLAGTLLDRNFNTFEGGDPLYHLFWFFGHPEVYIIPGFGSHSTYKKFGMYASIGLGFVWSHHMYVGLDDRAYFTSATMIAPTSIKFSWLATYGGRTALAFIFLFTGGTGVLNSADPFHDSYYVVMAFSIGWLPYNLFWFMFGMNDAGWSSAYQLGPSGTNE'
p1309
sg123
F0.00012999999999999999
sg124
g125
sg33
S'152'
p1310
sg127
g1
(g128
g12
(dp1311
g130
I4
sg131
g132
sg133
g134
sg135
g132
sg136
I01
sg34
g137
sg138
g134
sg139
I0
sg140
I0
sg141
I0
sg142
g134
sg35
g132
sg143
I0
stRp1312
sg145
g146
sg147
F1
sg148
Nsg30
S'CparaD'
p1313
sbag1
(g2
g3
NtRp1314
(dp1315
g6
g1
(g7
g3
NtRp1316
(dp1317
g10
g1
(g11
g12
(dtRp1318
sg14
g1
(g11
g12
(dtRp1319
sg16
g1
(g11
g12
(dtRp1320
sg18
g1
(g11
g12
(dtRp1321
sg20
g1
(g11
g12
(dtRp1322
sg22
g1
(g11
g12
(dtRp1323
sbsg24
S'Cpa'
p1324
sg26
g27
((lp1325
g29
ag30
aS'sequence'
p1326
ag32
ag33
aS'species'
p1327
atRp1328
sg37
(lp1329
sg120
g1280
sg121
S'RWLSTKDLYSRLELPGLNQNVHAMFVMPLGFGNPMGDMFARLNNSFWLPPLSLEGAGTGWTVYPPLSHSGPSVDLAFHLTSSLLGAINFTNMRGPLFWTALLLLSLPVLAGTLLDRNFNTFEGGDPLYHLFWFFGHPEVYIIPGFGSHSTYKKFGMYASIGLGFVWSHHMYVGLDDRAYFTSATMIAPTGIKFSWLATYGGRPMLAFLFLFTGGTGVVNASDAFHDTYYVVMAFSLGYYYYNLFWFMFGMPDAGWSSSYSLGPDESNE'
p1330
sg123
F0.00012999999999999999
sg124
g125
sg33
S'149'
p1331
sg127
g1
(g128
g12
(dp1332
g130
I4
sg131
g132
sg133
g134
sg135
g132
sg136
I01
sg34
g137
sg138
g134
sg139
I0
sg140
I0
sg141
I0
sg142
g134
sg35
g132
sg143
I0
stRp1333
sg145
g146
sg147
F1
sg148
Nsg30
S'CparaB'
p1334
sbasg120
g1267
sg123
F0.00051000000000000004
sg124
g125
sg33
S'140'
p1335
sg127
g1
(g128
g12
(dp1336
g130
I8
sg131
g132
sg133
g134
sg135
g132
sg136
I01
sg34
g173
sg138
g134
sg139
I0
sg140
I0
sg141
I0
sg142
g134
sg35
g132
sg143
I0
stRp1337
sg145
g146
sg147
F0.98999999999999999
sg148
Nsg30
S'NoName'
p1338
sbag1
(g2
g3
NtRp1339
(dp1340
g6
g1
(g7
g3
NtRp1341
(dp1342
g10
g1
(g11
g12
(dtRp1343
sg14
g1
(g11
g12
(dtRp1344
sg16
g1
(g11
g12
(dtRp1345
sg18
g1
(g11
g12
(dtRp1346
sg20
g1
(g11
g12
(dtRp1347
sg22
g1
(g11
g12
(dtRp1348
sbsg24
S'Cpa'
p1349
sg26
g27
((lp1350
g29
ag30
aS'sequence'
p1351
ag32
ag33
aS'species'
p1352
atRp1353
sg37
(lp1354
sg120
g1267
sg121
S'RWLSTKDLYSRLELPGLNQNVHAMFVMPLGFGNPMGDMFARLNNSFWLPPLSLEGAGTGWTVYPPLSHSGPSVDLAFHLTSSLLGAINFTNMRGPLFWTALLLLSLPVLAGTLLDRNFNTFEGGDPLYHLFWFFGHPEVYIIPGFGSHSTYKKFGMYASIGLGFVWSHHMYVGLDDRAYFTSATMIAPTGIKFSWLATYGGRPMLAFLFLFTGGTGVVNASDAFHDTYYVVMAFSLGYYYYNLFWFMFGMPDAGWSSSYSLGPDESNE'
p1355
sg123
F0.00012
sg124
g125
sg33
S'151'
p1356
sg127
g1
(g128
g12
(dp1357
g130
I4
sg131
g132
sg133
g134
sg135
g132
sg136
I01
sg34
g137
sg138
g134
sg139
I0
sg140
I0
sg141
I0
sg142
g134
sg35
g132
sg143
I0
stRp1358
sg145
g146
sg147
F1
sg148
Nsg30
S'CparaC'
p1359
sbasg120
g1158
sg123
F1.0000000000000001e-05
sg124
g125
sg33
S'218'
p1360
sg127
g1
(g128
g12
(dp1361
g130
I8
sg131
g132
sg133
g134
sg135
g132
sg136
I01
sg34
g173
sg138
g134
sg139
I0
sg140
I0
sg141
I0
sg142
g134
sg35
g132
sg143
I0
stRp1362
sg145
g146
sg147
F1
sg148
Nsg30
S'NoName'
p1363
sbasg120
g1124
sg123
F0.0032599999999999999
sg124
g125
sg33
S'37'
p1364
sg127
g1
(g128
g12
(dp1365
g130
I8
sg131
g132
sg133
g134
sg135
g132
sg136
I01
sg34
g173
sg138
g134
sg139
I0
sg140
I0
sg141
I0
sg142
g134
sg35
g132
sg143
I0
stRp1366
sg145
g146
sg147
F0.97999999999999998
sg148
Nsg30
S'NoName'
p1367
sbasg120
g1111
sg123
F1.0000000000000001e-05
sg124
g125
sg33
S'63'
p1368
sg127
g1
(g128
g12
(dp1369
g130
I8
sg131
g132
sg133
g134
sg135
g132
sg136
I01
sg34
g173
sg138
g134
sg139
I0
sg140
I0
sg141
I0
sg142
g134
sg35
g132
sg143
I0
stRp1370
sg145
g146
sg147
F1
sg148
Nsg30
S'NoName'
p1371
sbag1
(g2
g3
NtRp1372
(dp1373
g6
g1
(g7
g3
NtRp1374
(dp1375
g10
g1
(g11
g12
(dtRp1376
sg14
g1
(g11
g12
(dtRp1377
sg16
g1
(g11
g12
(dtRp1378
sg18
g1
(g11
g12
(dtRp1379
sg20
g1
(g11
g12
(dtRp1380
sg22
g1
(g11
g12
(dtRp1381
sbsg24
g25
sg26
g27
((lp1382
g33
ag32
ag29
ag30
atRp1383
sg37
(lp1384
g1
(g2
g3
NtRp1385
(dp1386
g6
g1
(g7
g3
NtRp1387
(dp1388
g10
g1
(g11
g12
(dtRp1389
sg14
g1
(g11
g12
(dtRp1390
sg16
g1
(g11
g12
(dtRp1391
sg18
g1
(g11
g12
(dtRp1392
sg20
g1
(g11
g12
(dtRp1393
sg22
g1
(g11
g12
(dtRp1394
sbsg24
g25
sg26
g27
((lp1395
g33
ag32
ag29
ag30
atRp1396
sg37
(lp1397
g1
(g2
g3
NtRp1398
(dp1399
g6
g1
(g7
g3
NtRp1400
(dp1401
g10
g1
(g11
g12
(dtRp1402
sg14
g1
(g11
g12
(dtRp1403
sg16
g1
(g11
g12
(dtRp1404
sg18
g1
(g11
g12
(dtRp1405
sg20
g1
(g11
g12
(dtRp1406
sg22
g1
(g11
g12
(dtRp1407
sbsg24
g25
sg26
g27
((lp1408
g33
ag32
ag29
ag30
atRp1409
sg37
(lp1410
g1
(g2
g3
NtRp1411
(dp1412
g6
g1
(g7
g3
NtRp1413
(dp1414
g10
g1
(g11
g12
(dtRp1415
sg14
g1
(g11
g12
(dtRp1416
sg16
g1
(g11
g12
(dtRp1417
sg18
g1
(g11
g12
(dtRp1418
sg20
g1
(g11
g12
(dtRp1419
sg22
g1
(g11
g12
(dtRp1420
sbsg24
g25
sg26
g27
((lp1421
g33
ag32
ag29
ag30
atRp1422
sg37
(lp1423
g1
(g2
g3
NtRp1424
(dp1425
g6
g1
(g7
g3
NtRp1426
(dp1427
g10
g1
(g11
g12
(dtRp1428
sg14
g1
(g11
g12
(dtRp1429
sg16
g1
(g11
g12
(dtRp1430
sg18
g1
(g11
g12
(dtRp1431
sg20
g1
(g11
g12
(dtRp1432
sg22
g1
(g11
g12
(dtRp1433
sbsg24
g25
sg26
g27
((lp1434
g33
ag32
ag29
ag30
atRp1435
sg37
(lp1436
g1
(g2
g3
NtRp1437
(dp1438
g6
g1
(g7
g3
NtRp1439
(dp1440
g10
g1
(g11
g12
(dtRp1441
sg14
g1
(g11
g12
(dtRp1442
sg16
g1
(g11
g12
(dtRp1443
sg18
g1
(g11
g12
(dtRp1444
sg20
g1
(g11
g12
(dtRp1445
sg22
g1
(g11
g12
(dtRp1446
sbsg24
S'Cme'
p1447
sg26
g27
((lp1448
g29
ag30
aS'sequence'
p1449
ag32
ag33
aS'species'
p1450
atRp1451
sg37
(lp1452
sg120
g1424
sg121
S'RWLSTKDLYSRLELPGLNQNVHAMFVMPLGFGNPMGDMFARLNNSFWLPPLSLEGAGTGWTVYPPLSHSGPSVDLAFHLTSSLLGAINFTNMRGPLYWTALLLLSLPVLAGTLLDRNFNTFEGGDPLYHLFWFFGHPEVYIIPGFGSHSTYKKFGMYASIGLGFVWSHHMYVGLDDRAYFTSATMIAPTGIKFSWLATYGGRPMLAFLFLFTGGTGVLNASDAFHDTYYVVMAFSLGYYYYNLFWFMFGMPDAGWSSSYQLGPDESNE'
p1453
sg123
F0.00012999999999999999
sg124
g125
sg33
S'126'
p1454
sg127
g1
(g128
g12
(dp1455
g130
I4
sg131
g132
sg133
g134
sg135
g132
sg136
I01
sg34
g137
sg138
g134
sg139
I0
sg140
I0
sg141
I0
sg142
g134
sg35
g132
sg143
I0
stRp1456
sg145
g146
sg147
F1
sg148
Nsg30
S'CmetaF'
p1457
sbag1
(g2
g3
NtRp1458
(dp1459
g6
g1
(g7
g3
NtRp1460
(dp1461
g10
g1
(g11
g12
(dtRp1462
sg14
g1
(g11
g12
(dtRp1463
sg16
g1
(g11
g12
(dtRp1464
sg18
g1
(g11
g12
(dtRp1465
sg20
g1
(g11
g12
(dtRp1466
sg22
g1
(g11
g12
(dtRp1467
sbsg24
S'Cme'
p1468
sg26
g27
((lp1469
g29
ag30
aS'sequence'
p1470
ag32
ag33
aS'species'
p1471
atRp1472
sg37
(lp1473
sg120
g1424
sg121
S'RWLSTKDLYSRLELPGLNQNVHAMFVMPLGFGNPMGDMFARLNNSFWLPPLSLEGAGTGWTVYPPLSHSGPSVDLAFHLTSSLLGAINFTNMRGPLYWTALLLLSLPVLAGTLLDRNFNTFEGGDPLYHLFWFFGHPEVYIIPGFGSHSTYKKFGMYASIGLGFVWSHHMYVGLDDRAYFTSATMIAPTGIKFSWLATYGGRPMLAFLFLFTGGTGVLNASDAFHDTYYVVMAFSLGYYYYNLFWFMFGMPDAGWSSSYQLGPDESNE'
p1474
sg123
F0.00012
sg124
g125
sg33
S'135'
p1475
sg127
g1
(g128
g12
(dp1476
g130
I4
sg131
g132
sg133
g134
sg135
g132
sg136
I01
sg34
g137
sg138
g134
sg139
I0
sg140
I0
sg141
I0
sg142
g134
sg35
g132
sg143
I0
stRp1477
sg145
g146
sg147
F1
sg148
Nsg30
S'CmetaE'
p1478
sbasg120
g1411
sg123
F1.0000000000000001e-05
sg124
g125
sg33
S'160'
p1479
sg127
g1
(g128
g12
(dp1480
g130
I8
sg131
g132
sg133
g134
sg135
g132
sg136
I01
sg34
g173
sg138
g134
sg139
I0
sg140
I0
sg141
I0
sg142
g134
sg35
g132
sg143
I0
stRp1481
sg145
g146
sg147
F1
sg148
Nsg30
S'NoName'
p1482
sbag1
(g2
g3
NtRp1483
(dp1484
g6
g1
(g7
g3
NtRp1485
(dp1486
g10
g1
(g11
g12
(dtRp1487
sg14
g1
(g11
g12
(dtRp1488
sg16
g1
(g11
g12
(dtRp1489
sg18
g1
(g11
g12
(dtRp1490
sg20
g1
(g11
g12
(dtRp1491
sg22
g1
(g11
g12
(dtRp1492
sbsg24
S'Cme'
p1493
sg26
g27
((lp1494
g29
ag30
aS'sequence'
p1495
ag32
ag33
aS'species'
p1496
atRp1497
sg37
(lp1498
sg120
g1411
sg121
S'RWLSTKDLYSRLELPGLNQNVHAMFVMPLGFGNPMGDMFARLNNSFWLPPLSLEGAGTGWTVYPPLSHSGPSVDLAFHLTSSLLGAINFTNMRGPLYWTALLLLSLPVLAGTLLDRNFNTFEGGDPLYHLFWFFGHPEVYIIPGFGSHSTYKKFGMYASIGLGFVWSHHMYVGLDDRAYFTSATMIAPTGIKFSWLATYGGRPMLAFLFLFTGGTGVLNASDAFHDTYYVVMAFSLGYYYYNLFWFMFGMPDAGWSSSYQLGPDESNE'
p1499
sg123
F0.00020000000000000001
sg124
g125
sg33
S'131'
p1500
sg127
g1
(g128
g12
(dp1501
g130
I4
sg131
g132
sg133
g134
sg135
g132
sg136
I01
sg34
g137
sg138
g134
sg139
I0
sg140
I0
sg141
I0
sg142
g134
sg35
g132
sg143
I0
stRp1502
sg145
g146
sg147
F1
sg148
Nsg30
S'CmetaD'
p1503
sbasg120
g1398
sg123
F1.0000000000000001e-05
sg124
g125
sg33
S'158'
p1504
sg127
g1
(g128
g12
(dp1505
g130
I8
sg131
g132
sg133
g134
sg135
g132
sg136
I01
sg34
g173
sg138
g134
sg139
I0
sg140
I0
sg141
I0
sg142
g134
sg35
g132
sg143
I0
stRp1506
sg145
g146
sg147
F1
sg148
Nsg30
S'NoName'
p1507
sbag1
(g2
g3
NtRp1508
(dp1509
g6
g1
(g7
g3
NtRp1510
(dp1511
g10
g1
(g11
g12
(dtRp1512
sg14
g1
(g11
g12
(dtRp1513
sg16
g1
(g11
g12
(dtRp1514
sg18
g1
(g11
g12
(dtRp1515
sg20
g1
(g11
g12
(dtRp1516
sg22
g1
(g11
g12
(dtRp1517
sbsg24
S'Cme'
p1518
sg26
g27
((lp1519
g29
ag30
aS'sequence'
p1520
ag32
ag33
aS'species'
p1521
atRp1522
sg37
(lp1523
sg120
g1398
sg121
S'RWLSTKDLYSRLELPGLNQNVHAMFVMPLGFGNPMGDMFARLNNSFWLPPLSLEGAGTGWTVYPPLSHSGPSVDLAFHLTSSLLGAINFTNMRGPLYWTALLLLSLPVLAGTLLDRNFNTFEGGDPLYHLFWFFGHPEVYIIPGFGSHSTYKKFGMYASIGLGFVWSHHMYVGLDDRAYFTSATMIAPTGIKFSWLATYGGRPMLAFLFLFTGGTGVLNASDAFHDTYYVVMAFSLGYYYYNLFWFMFGMPDAGWSSSYQLGPDESNE'
p1524
sg123
F0.00052999999999999998
sg124
g125
sg33
S'128'
p1525
sg127
g1
(g128
g12
(dp1526
g130
I4
sg131
g132
sg133
g134
sg135
g132
sg136
I01
sg34
g137
sg138
g134
sg139
I0
sg140
I0
sg141
I0
sg142
g134
sg35
g132
sg143
I0
stRp1527
sg145
g146
sg147
F1
sg148
Nsg30
S'CmetaC'
p1528
sbasg120
g1385
sg123
F1.0000000000000001e-05
sg124
g125
sg33
S'164'
p1529
sg127
g1
(g128
g12
(dp1530
g130
I8
sg131
g132
sg133
g134
sg135
g132
sg136
I01
sg34
g173
sg138
g134
sg139
I0
sg140
I0
sg141
I0
sg142
g134
sg35
g132
sg143
I0
stRp1531
sg145
g146
sg147
F1
sg148
Nsg30
S'NoName'
p1532
sbag1
(g2
g3
NtRp1533
(dp1534
g6
g1
(g7
g3
NtRp1535
(dp1536
g10
g1
(g11
g12
(dtRp1537
sg14
g1
(g11
g12
(dtRp1538
sg16
g1
(g11
g12
(dtRp1539
sg18
g1
(g11
g12
(dtRp1540
sg20
g1
(g11
g12
(dtRp1541
sg22
g1
(g11
g12
(dtRp1542
sbsg24
S'Cme'
p1543
sg26
g27
((lp1544
g29
ag30
aS'sequence'
p1545
ag32
ag33
aS'species'
p1546
atRp1547
sg37
(lp1548
sg120
g1385
sg121
S'RWLSTKDLYSRLELPGLNQNVHAMFVMPLGFGNPMGDMFARLNNSFWLPPLSLEGAGTGWTVYPPLSHSGPSVDLAFHLTSSLLGAINFTNMRGPLYWTALLLLSLPVLAGTLLDRNFNTFEGGDPLYHLFWFFGHPEVYIIPGFGSHSTYKKFGMYASIGLGFVWSHHMYVGLDDRAYFTSATMIAPTGIKFSWLATYGGRPMLAFLFLFTGGTGVLNASDAFHDTYYVVMAFSLGYYYYNLFWFMFGMPDAGWSSSYQLGPDESNE'
p1549
sg123
F0.00012
sg124
g125
sg33
S'129'
p1550
sg127
g1
(g128
g12
(dp1551
g130
I4
sg131
g132
sg133
g134
sg135
g132
sg136
I01
sg34
g137
sg138
g134
sg139
I0
sg140
I0
sg141
I0
sg142
g134
sg35
g132
sg143
I0
stRp1552
sg145
g146
sg147
F1
sg148
Nsg30
S'CmetaB'
p1553
sbasg120
g1372
sg123
F1.0000000000000001e-05
sg124
g125
sg33
S'154'
p1554
sg127
g1
(g128
g12
(dp1555
g130
I8
sg131
g132
sg133
g134
sg135
g132
sg136
I01
sg34
g173
sg138
g134
sg139
I0
sg140
I0
sg141
I0
sg142
g134
sg35
g132
sg143
I0
stRp1556
sg145
g146
sg147
F1
sg148
Nsg30
S'NoName'
p1557
sbag1
(g2
g3
NtRp1558
(dp1559
g6
g1
(g7
g3
NtRp1560
(dp1561
g10
g1
(g11
g12
(dtRp1562
sg14
g1
(g11
g12
(dtRp1563
sg16
g1
(g11
g12
(dtRp1564
sg18
g1
(g11
g12
(dtRp1565
sg20
g1
(g11
g12
(dtRp1566
sg22
g1
(g11
g12
(dtRp1567
sbsg24
S'Cme'
p1568
sg26
g27
((lp1569
g29
ag30
aS'sequence'
p1570
ag32
ag33
aS'species'
p1571
atRp1572
sg37
(lp1573
sg120
g1372
sg121
S'RWLSTKDLYSRLELPGLNQNVHAMFVMPLGFGNPMGDMFARLNNSFWLPPLSLEGAGTGWTVYPPLSHSGPSVDLAFHLTSSLLGAINFTNMRGPLYWTALLLLSLPVLAGTLLDRNFNTFEGGDPLYHLFWFFGHPEVYIIPGFGSHSTYKKFGMYASIGLGFVWSHHMYVGLDDRAYFTSATMIAPTGIKFSWLATYGGRPMLAFLFLFTGGTGVLNASDAFHDTYYVVMAFSLGYYYYNLFWFMFGMPDAGWSSSYQLGPDESNE'
p1574
sg123
F0.00012999999999999999
sg124
g125
sg33
S'133'
p1575
sg127
g1
(g128
g12
(dp1576
g130
I4
sg131
g132
sg133
g134
sg135
g132
sg136
I01
sg34
g137
sg138
g134
sg139
I0
sg140
I0
sg141
I0
sg142
g134
sg35
g132
sg143
I0
stRp1577
sg145
g146
sg147
F1
sg148
Nsg30
S'CmetaA'
p1578
sbasg120
g1111
sg123
F0.020930000000000001
sg124
g125
sg33
S'156'
p1579
sg127
g1
(g128
g12
(dp1580
g130
I8
sg131
g132
sg133
g134
sg135
g132
sg136
I01
sg34
g173
sg138
g134
sg139
I0
sg140
I0
sg141
I0
sg142
g134
sg35
g132
sg143
I0
stRp1581
sg145
g146
sg147
F0.98999999999999999
sg148
Nsg30
S'NoName'
p1582
sbasg120
g1098
sg123
F0.045289999999999997
sg124
g125
sg33
S'59'
p1583
sg127
g1
(g128
g12
(dp1584
g130
I8
sg131
g132
sg133
g134
sg135
g132
sg136
I01
sg34
g173
sg138
g134
sg139
I0
sg140
I0
sg141
I0
sg142
g134
sg35
g132
sg143
I0
stRp1585
sg145
g146
sg147
F0.98999999999999999
sg148
Nsg30
S'NoName'
p1586
sbag1
(g2
g3
NtRp1587
(dp1588
g6
g1
(g7
g3
NtRp1589
(dp1590
g10
g1
(g11
g12
(dtRp1591
sg14
g1
(g11
g12
(dtRp1592
sg16
g1
(g11
g12
(dtRp1593
sg18
g1
(g11
g12
(dtRp1594
sg20
g1
(g11
g12
(dtRp1595
sg22
g1
(g11
g12
(dtRp1596
sbsg24
S'Cji'
p1597
sg26
g27
((lp1598
g29
ag30
aS'sequence'
p1599
ag32
ag33
aS'species'
p1600
atRp1601
sg37
(lp1602
sg120
g1098
sg121
S'RWLSTKDLYSRLELPGLNQNVHAMFVMPLGFGNPMGDMFARLNNSFWLPPLSLEGAGTGWTVYPPLSHSGPSVDLAFHLTSSLLGAINFTNMRGPMFWTALLLLSLPVLAGTLLDRNFNTFDGGDPLYHLFWFFGHPEVYIIPGFGSHSTYKKFGMYASIGLGFVWSHHMYVGLDDRAYFTSATMIAPTGIKFSWLATYGGRPMLAFLFLFTGGTGVLNASDAFHDTYYTVMAFSLGYYYYNLFWFMFGMPDAGWSSSYQLGPDESNE'
p1603
sg123
F0.013140000000000001
sg124
g125
sg33
S'141'
p1604
sg127
g1
(g128
g12
(dp1605
g130
I4
sg131
g132
sg133
g134
sg135
g132
sg136
I01
sg34
g137
sg138
g134
sg139
I0
sg140
I0
sg141
I0
sg142
g134
sg35
g132
sg143
I0
stRp1606
sg145
g146
sg147
F1
sg148
Nsg30
S'CjiufA'
p1607
sbasg120
g1026
sg123
F0.044909999999999999
sg124
g125
sg33
S'76'
p1608
sg127
g1
(g128
g12
(dp1609
g130
I8
sg131
g132
sg133
g134
sg135
g132
sg136
I01
sg34
g173
sg138
g134
sg139
I0
sg140
I0
sg141
I0
sg142
g134
sg35
g132
sg143
I0
stRp1610
sg145
g146
sg147
F0.98999999999999999
sg148
Nsg30
S'NoName'
p1611
sbasg120
g1013
sg123
F0.082199999999999995
sg124
g125
sg33
S'16'
p1612
sg127
g1
(g128
g12
(dp1613
g130
I8
sg131
g132
sg133
g134
sg135
g132
sg136
I01
sg34
g173
sg138
g134
sg139
I0
sg140
I0
sg141
I0
sg142
g134
sg35
g132
sg143
I0
stRp1614
sg145
g146
sg147
F0.98999999999999999
sg148
Nsg30
S'NoName'
p1615
sbag1
(g2
g3
NtRp1616
(dp1617
g6
g1
(g7
g3
NtRp1618
(dp1619
g10
g1
(g11
g12
(dtRp1620
sg14
g1
(g11
g12
(dtRp1621
sg16
g1
(g11
g12
(dtRp1622
sg18
g1
(g11
g12
(dtRp1623
sg20
g1
(g11
g12
(dtRp1624
sg22
g1
(g11
g12
(dtRp1625
sbsg24
g25
sg26
g27
((lp1626
g33
ag32
ag29
ag30
atRp1627
sg37
(lp1628
g1
(g2
g3
NtRp1629
(dp1630
g6
g1
(g7
g3
NtRp1631
(dp1632
g10
g1
(g11
g12
(dtRp1633
sg14
g1
(g11
g12
(dtRp1634
sg16
g1
(g11
g12
(dtRp1635
sg18
g1
(g11
g12
(dtRp1636
sg20
g1
(g11
g12
(dtRp1637
sg22
g1
(g11
g12
(dtRp1638
sbsg24
g25
sg26
g27
((lp1639
g33
ag32
ag29
ag30
atRp1640
sg37
(lp1641
g1
(g2
g3
NtRp1642
(dp1643
g6
g1
(g7
g3
NtRp1644
(dp1645
g10
g1
(g11
g12
(dtRp1646
sg14
g1
(g11
g12
(dtRp1647
sg16
g1
(g11
g12
(dtRp1648
sg18
g1
(g11
g12
(dtRp1649
sg20
g1
(g11
g12
(dtRp1650
sg22
g1
(g11
g12
(dtRp1651
sbsg24
S'Cco'
p1652
sg26
g27
((lp1653
g29
ag30
aS'sequence'
p1654
ag32
ag33
aS'species'
p1655
atRp1656
sg37
(lp1657
sg120
g1629
sg121
S'RWLSTKDLYSRMELPGLNQNVHAMFVMPLGFGNPMGDMFARLNNSFWLPPLSLEGAGTGWTLYAPLSHSGPSVDLAFHLTSSLLGAINFTNMRGPLFWTALLLLSLPVLAATLLDRNFNTFEGGDPLYHLFFVLMHPEVYIIPGFGSHSTYKKFGMYASMGLGFVWSHHMYVGLDDRAYFTSATMIAPTGIKFSWLATYGGRPMLAFLFLFTGGTGVLNASDAFHDTYYIKMAFSLGYYYYNMFWFMFGMPDAGWSSSYQLGPDESNE'
p1658
sg123
F0.057970000000000001
sg124
g125
sg33
S'139'
p1659
sg127
g1
(g128
g12
(dp1660
g130
I4
sg131
g132
sg133
g134
sg135
g132
sg136
I01
sg34
g137
sg138
g134
sg139
I0
sg140
I0
sg141
I0
sg142
g134
sg35
g132
sg143
I0
stRp1661
sg145
g146
sg147
F1
sg148
Nsg30
S'CcoryA'
p1662
sbag1
(g2
g3
NtRp1663
(dp1664
g6
g1
(g7
g3
NtRp1665
(dp1666
g10
g1
(g11
g12
(dtRp1667
sg14
g1
(g11
g12
(dtRp1668
sg16
g1
(g11
g12
(dtRp1669
sg18
g1
(g11
g12
(dtRp1670
sg20
g1
(g11
g12
(dtRp1671
sg22
g1
(g11
g12
(dtRp1672
sbsg24
S'Cch'
p1673
sg26
g27
((lp1674
g29
ag30
aS'sequence'
p1675
ag32
ag33
aS'species'
p1676
atRp1677
sg37
(lp1678
sg120
g1629
sg121
S'RWLSTKDLYSRMELPSLNQNVHAMFVMPLGFGNPMGDMFARLNNSFWLPPLSLEGAGTGWTLYAPLSHSGPSVDLAFHLTSSLLGAINFTNMRGPLFWTALLLLSLPVLAATLLDRNFNTFEGGDPLYHLFWFYMYKDYYIIPGFGSHSTYKKFGMYASIGLGFVWSHHMFVGLDDRAYFTSATMIAPTGIKFSWLATYGGRPMLAFLFLFTGGTGVLNASDAFHDTYYVVMAFSLGYYYYNLFWFMFGMPDAGWSSSYQLGPDESNE'
p1679
sg123
F0.052440000000000001
sg124
g125
sg33
S'64'
p1680
sg127
g1
(g128
g12
(dp1681
g130
I4
sg131
g132
sg133
g134
sg135
g132
sg136
I01
sg34
g137
sg138
g134
sg139
I0
sg140
I0
sg141
I0
sg142
g134
sg35
g132
sg143
I0
stRp1682
sg145
g146
sg147
F1
sg148
Nsg30
S'CchauA'
p1683
sbasg120
g1616
sg123
F0.16861999999999999
sg124
g125
sg33
S'136'
p1684
sg127
g1
(g128
g12
(dp1685
g130
I8
sg131
g132
sg133
g134
sg135
g132
sg136
I01
sg34
g173
sg138
g134
sg139
I0
sg140
I0
sg141
I0
sg142
g134
sg35
g132
sg143
I0
stRp1686
sg145
g146
sg147
F0.98999999999999999
sg148
Nsg30
S'NoName'
p1687
sbag1
(g2
g3
NtRp1688
(dp1689
g6
g1
(g7
g3
NtRp1690
(dp1691
g10
g1
(g11
g12
(dtRp1692
sg14
g1
(g11
g12
(dtRp1693
sg16
g1
(g11
g12
(dtRp1694
sg18
g1
(g11
g12
(dtRp1695
sg20
g1
(g11
g12
(dtRp1696
sg22
g1
(g11
g12
(dtRp1697
sbsg24
S'Cbo'
p1698
sg26
g27
((lp1699
g29
ag30
aS'sequence'
p1700
ag32
ag33
aS'species'
p1701
atRp1702
sg37
(lp1703
sg120
g1616
sg121
S'RWLSTKDLYSRMELPGLNQNVHAMFVMPLGFGNPMGDMFARLNNSFWLPPLSLEGAGTGWTVYPPLSHSGPSVDLAFHLTSSLLGAINFTNMRGPLFWTALLLLSLPVLAATLLDRNFNTFEGGDPLYHLFWFFGHPEVYIIPGFGSHSTYKKFGMYASIGLGFVWSHHMYVGLDDRAYFTSATMIAPTGIKFSWLATYGGRPMLAFLFLFTGGTGVLNASDAFHDTYYVVMAFSLAYYYYNLFWFMFGMPDAGWSSSYQLGPDESNE'
p1704
sg123
F0.20199
sg124
g125
sg33
S'116'
p1705
sg127
g1
(g128
g12
(dp1706
g130
I4
sg131
g132
sg133
g134
sg135
g132
sg136
I01
sg34
g137
sg138
g134
sg139
I0
sg140
I0
sg141
I0
sg142
g134
sg35
g132
sg143
I0
stRp1707
sg145
g146
sg147
F1
sg148
Nsg30
S'CbohiA'
p1708
sbasg120
g1013
sg123
F0.14915999999999999
sg124
g125
sg33
S'109'
p1709
sg127
g1
(g128
g12
(dp1710
g130
I8
sg131
g132
sg133
g134
sg135
g132
sg136
I01
sg34
g173
sg138
g134
sg139
I0
sg140
I0
sg141
I0
sg142
g134
sg35
g132
sg143
I0
stRp1711
sg145
g146
sg147
F0.98999999999999999
sg148
Nsg30
S'NoName'
p1712
sbasg120
g1000
sg123
F0.036799999999999999
sg124
g125
sg33
S'22'
p1713
sg127
g1
(g128
g12
(dp1714
g130
I8
sg131
g132
sg133
g134
sg135
g132
sg136
I01
sg34
g173
sg138
g134
sg139
I0
sg140
I0
sg141
I0
sg142
g134
sg35
g132
sg143
I0
stRp1715
sg145
g146
sg147
F0.98999999999999999
sg148
Nsg30
S'NoName'
p1716
sbag1
(g2
g3
NtRp1717
(dp1718
g6
g1
(g7
g3
NtRp1719
(dp1720
g10
g1
(g11
g12
(dtRp1721
sg14
g1
(g11
g12
(dtRp1722
sg16
g1
(g11
g12
(dtRp1723
sg18
g1
(g11
g12
(dtRp1724
sg20
g1
(g11
g12
(dtRp1725
sg22
g1
(g11
g12
(dtRp1726
sbsg24
g25
sg26
g27
((lp1727
g33
ag32
ag29
ag30
atRp1728
sg37
(lp1729
g1
(g2
g3
NtRp1730
(dp1731
g6
g1
(g7
g3
NtRp1732
(dp1733
g10
g1
(g11
g12
(dtRp1734
sg14
g1
(g11
g12
(dtRp1735
sg16
g1
(g11
g12
(dtRp1736
sg18
g1
(g11
g12
(dtRp1737
sg20
g1
(g11
g12
(dtRp1738
sg22
g1
(g11
g12
(dtRp1739
sbsg24
g25
sg26
g27
((lp1740
g33
ag32
ag29
ag30
atRp1741
sg37
(lp1742
g1
(g2
g3
NtRp1743
(dp1744
g6
g1
(g7
g3
NtRp1745
(dp1746
g10
g1
(g11
g12
(dtRp1747
sg14
g1
(g11
g12
(dtRp1748
sg16
g1
(g11
g12
(dtRp1749
sg18
g1
(g11
g12
(dtRp1750
sg20
g1
(g11
g12
(dtRp1751
sg22
g1
(g11
g12
(dtRp1752
sbsg24
S'Cma'
p1753
sg26
g27
((lp1754
g29
ag30
aS'sequence'
p1755
ag32
ag33
aS'species'
p1756
atRp1757
sg37
(lp1758
sg120
g1730
sg121
S'RWLSTKDLYSRLELPGLSQNVHAMFVMPLGFGNPLGDMFARLNNSFWLPPLSLEGAGTGWTVYPPLSHSGPSVDLAFHLTSSLLGAINFTNMRGPLYWTALLLLSLPVLAGTLLDRNFNTFEGGDPLYHLFWFFGHPEVYMIPGFGSHSTYKKFGMYASMGLGFVWSHHMYVGLDDRAYFTSATMIAPTGIKFSWLATYGGRPMLAFLFLFTGGTGVLNASDAFHDTYYVVMAFSLGYYSYNLYWFMFGMPDAGWSSSYQLGPDESNE'
p1759
sg123
F0.24277000000000001
sg124
g125
sg33
S'81'
p1760
sg127
g1
(g128
g12
(dp1761
g130
I4
sg131
g132
sg133
g134
sg135
g132
sg136
I01
sg34
g137
sg138
g134
sg139
I0
sg140
I0
sg141
I0
sg142
g134
sg35
g132
sg143
I0
stRp1762
sg145
g146
sg147
F1
sg148
Nsg30
S'CmaltA'
p1763
sbag1
(g2
g3
NtRp1764
(dp1765
g6
g1
(g7
g3
NtRp1766
(dp1767
g10
g1
(g11
g12
(dtRp1768
sg14
g1
(g11
g12
(dtRp1769
sg16
g1
(g11
g12
(dtRp1770
sg18
g1
(g11
g12
(dtRp1771
sg20
g1
(g11
g12
(dtRp1772
sg22
g1
(g11
g12
(dtRp1773
sbsg24
g25
sg26
g27
((lp1774
g33
ag32
ag29
ag30
atRp1775
sg37
(lp1776
g1
(g2
g3
NtRp1777
(dp1778
g6
g1
(g7
g3
NtRp1779
(dp1780
g10
g1
(g11
g12
(dtRp1781
sg14
g1
(g11
g12
(dtRp1782
sg16
g1
(g11
g12
(dtRp1783
sg18
g1
(g11
g12
(dtRp1784
sg20
g1
(g11
g12
(dtRp1785
sg22
g1
(g11
g12
(dtRp1786
sbsg24
g25
sg26
g27
((lp1787
g33
ag32
ag29
ag30
atRp1788
sg37
(lp1789
g1
(g2
g3
NtRp1790
(dp1791
g6
g1
(g7
g3
NtRp1792
(dp1793
g10
g1
(g11
g12
(dtRp1794
sg14
g1
(g11
g12
(dtRp1795
sg16
g1
(g11
g12
(dtRp1796
sg18
g1
(g11
g12
(dtRp1797
sg20
g1
(g11
g12
(dtRp1798
sg22
g1
(g11
g12
(dtRp1799
sbsg24
g25
sg26
g27
((lp1800
g33
ag32
ag29
ag30
atRp1801
sg37
(lp1802
g1
(g2
g3
NtRp1803
(dp1804
g6
g1
(g7
g3
NtRp1805
(dp1806
g10
g1
(g11
g12
(dtRp1807
sg14
g1
(g11
g12
(dtRp1808
sg16
g1
(g11
g12
(dtRp1809
sg18
g1
(g11
g12
(dtRp1810
sg20
g1
(g11
g12
(dtRp1811
sg22
g1
(g11
g12
(dtRp1812
sbsg24
g25
sg26
g27
((lp1813
g33
ag32
ag29
ag30
atRp1814
sg37
(lp1815
g1
(g2
g3
NtRp1816
(dp1817
g6
g1
(g7
g3
NtRp1818
(dp1819
g10
g1
(g11
g12
(dtRp1820
sg14
g1
(g11
g12
(dtRp1821
sg16
g1
(g11
g12
(dtRp1822
sg18
g1
(g11
g12
(dtRp1823
sg20
g1
(g11
g12
(dtRp1824
sg22
g1
(g11
g12
(dtRp1825
sbsg24
S'Ctr'
p1826
sg26
g27
((lp1827
g29
ag30
aS'sequence'
p1828
ag32
ag33
aS'species'
p1829
atRp1830
sg37
(lp1831
sg120
g1803
sg121
S'RWLSTKDLYSRLELPGLNQNVHAMFVMPLGFGNPMGDMFARLNNSFWLPPLSLEGAGTGWTVYPPLSHSGPSVDLAFHLTSSLLGAINFTNMRGPLFWTALLLLSLPVLAGTLLDRNFNTFEGGDPLYHLFWFFGHPEVYIIPGFGSHSTYKKFGMYASIGLGFVWSHHMYVGLDDRAYFTSATMIAPTGIKFSWLATYGGRPMLAFLFLFTGGTGVLNASDAFHDSYYVVMAFSLGYYPYNLYWFMFGMPDAGWSSSYQLGPDEANE'
p1832
sg123
F0.00064000000000000005
sg124
g125
sg33
S'212'
p1833
sg127
g1
(g128
g12
(dp1834
g130
I4
sg131
g132
sg133
g134
sg135
g132
sg136
I01
sg34
g137
sg138
g134
sg139
I0
sg140
I0
sg141
I0
sg142
g134
sg35
g132
sg143
I0
stRp1835
sg145
g146
sg147
F1
sg148
Nsg30
S'CtropB'
p1836
sbag1
(g2
g3
NtRp1837
(dp1838
g6
g1
(g7
g3
NtRp1839
(dp1840
g10
g1
(g11
g12
(dtRp1841
sg14
g1
(g11
g12
(dtRp1842
sg16
g1
(g11
g12
(dtRp1843
sg18
g1
(g11
g12
(dtRp1844
sg20
g1
(g11
g12
(dtRp1845
sg22
g1
(g11
g12
(dtRp1846
sbsg24
S'Ctr'
p1847
sg26
g27
((lp1848
g29
ag30
aS'sequence'
p1849
ag32
ag33
aS'species'
p1850
atRp1851
sg37
(lp1852
sg120
g1803
sg121
S'RWLSTKDLYSRLELPGLNQNVHAMFVMPLGFGNPMGDMFARLNNSFWLPPLSLEGAGTGWTVYPPLSHSGPSVDLAFHLTSSLLGAINFTNMRGPLFWTALLLLSLPVLAGTLLDRNFNTFEGGDPLYHLFWFFGHPEVYIIPGFGSHSTYKKFGMYASIGLGFVWSHHMYVGLDDRAYFTSATMIAPTGIKFSWLATYGGRPMLAFLFLFTGGTGVLNASDAFHDSYYVVMAFSLGYYPYNLYWFMFGMPDAGWSSSYQLGPDEANE'
p1853
sg123
F0.00040000000000000002
sg124
g125
sg33
S'173'
p1854
sg127
g1
(g128
g12
(dp1855
g130
I4
sg131
g132
sg133
g134
sg135
g132
sg136
I01
sg34
g137
sg138
g134
sg139
I0
sg140
I0
sg141
I0
sg142
g134
sg35
g132
sg143
I0
stRp1856
sg145
g146
sg147
F1
sg148
Nsg30
S'CtropA'
p1857
sbasg120
g1790
sg123
F0.032030000000000003
sg124
g125
sg33
S'208'
p1858
sg127
g1
(g128
g12
(dp1859
g130
I8
sg131
g132
sg133
g134
sg135
g132
sg136
I01
sg34
g173
sg138
g134
sg139
I0
sg140
I0
sg141
I0
sg142
g134
sg35
g132
sg143
I0
stRp1860
sg145
g146
sg147
F0.98999999999999999
sg148
Nsg30
S'NoName'
p1861
sbag1
(g2
g3
NtRp1862
(dp1863
g6
g1
(g7
g3
NtRp1864
(dp1865
g10
g1
(g11
g12
(dtRp1866
sg14
g1
(g11
g12
(dtRp1867
sg16
g1
(g11
g12
(dtRp1868
sg18
g1
(g11
g12
(dtRp1869
sg20
g1
(g11
g12
(dtRp1870
sg22
g1
(g11
g12
(dtRp1871
sbsg24
S'Cso'
p1872
sg26
g27
((lp1873
g29
ag30
aS'sequence'
p1874
ag32
ag33
aS'species'
p1875
atRp1876
sg37
(lp1877
sg120
g1790
sg121
S'RWLSTKDLYSRLELPGLNQNVHAMFVMPLGFGNPMGDMFARLNNSFWLPPLSLEGAGTGWTVYPPLSHSGPSVDLAFHLTSSLLGAMNFTNMRGPLFWTALLLLSLPVLAGTLLDRNFNTFEGGDPLYHLFWFFGHPEVYIIPGFGSHSTYKKFGMYASIGLGFVWSHHMYVGLDDRAYFTSATMIAPTGIKFSWLATYGGRPMLAFLFLFTGGTGVLNASDAFHDTYYVVMAFSLGYYPYNLYWFMFGMPDAGWSSSYQLGPDEANE'
p1878
sg123
F0.033649999999999999
sg124
g125
sg33
S'4'
sg127
g1
(g128
g12
(dp1879
g130
I4
sg131
g132
sg133
g134
sg135
g132
sg136
I01
sg34
g137
sg138
g134
sg139
I0
sg140
I0
sg141
I0
sg142
g134
sg35
g132
sg143
I0
stRp1880
sg145
g146
sg147
F1
sg148
Nsg30
S'CsojaA'
p1881
sbasg120
g1777
sg123
F0.019990000000000001
sg124
g125
sg33
S'214'
p1882
sg127
g1
(g128
g12
(dp1883
g130
I8
sg131
g132
sg133
g134
sg135
g132
sg136
I01
sg34
g173
sg138
g134
sg139
I0
sg140
I0
sg141
I0
sg142
g134
sg35
g132
sg143
I0
stRp1884
sg145
g146
sg147
F0.98999999999999999
sg148
Nsg30
S'NoName'
p1885
sbag1
(g2
g3
NtRp1886
(dp1887
g6
g1
(g7
g3
NtRp1888
(dp1889
g10
g1
(g11
g12
(dtRp1890
sg14
g1
(g11
g12
(dtRp1891
sg16
g1
(g11
g12
(dtRp1892
sg18
g1
(g11
g12
(dtRp1893
sg20
g1
(g11
g12
(dtRp1894
sg22
g1
(g11
g12
(dtRp1895
sbsg24
g25
sg26
g27
((lp1896
g33
ag32
ag29
ag30
atRp1897
sg37
(lp1898
g1
(g2
g3
NtRp1899
(dp1900
g6
g1
(g7
g3
NtRp1901
(dp1902
g10
g1
(g11
g12
(dtRp1903
sg14
g1
(g11
g12
(dtRp1904
sg16
g1
(g11
g12
(dtRp1905
sg18
g1
(g11
g12
(dtRp1906
sg20
g1
(g11
g12
(dtRp1907
sg22
g1
(g11
g12
(dtRp1908
sbsg24
S'Cte'
p1909
sg26
g27
((lp1910
g29
ag30
aS'sequence'
p1911
ag32
ag33
aS'species'
p1912
atRp1913
sg37
(lp1914
sg120
g1886
sg121
S'RWLSTKDLYSRLELPGLNQNVHAMFVMPLGFGNPMGDMFARLNNSFWLPPLSLEGAGTGWTVYPPLSHSGPSVDMAFHLTSSLLGAINFTNMRGPLFWTALLLLSLPVLAGTLLDRNFNTFEGGDPLYHLFWFFGHPEVYIIPGFGSHSTYKKFGMYASIGLGFVWSHHMFVGLDDRAYFTSATMMAPTGIKFSWLATYGGRPMLAFLFLFTGGTGVLNASDSMHDTYYVVMAFSLGYYPYNLYWFMFGMPDAGWSSSLQLGPDESNE'
p1915
sg123
F0.084209999999999993
sg124
g125
sg33
S'187'
p1916
sg127
g1
(g128
g12
(dp1917
g130
I4
sg131
g132
sg133
g134
sg135
g132
sg136
I01
sg34
g137
sg138
g134
sg139
I0
sg140
I0
sg141
I0
sg142
g134
sg35
g132
sg143
I0
stRp1918
sg145
g146
sg147
F1
sg148
Nsg30
S'CtetrA'
p1919
sbag1
(g2
g3
NtRp1920
(dp1921
g6
g1
(g7
g3
NtRp1922
(dp1923
g10
g1
(g11
g12
(dtRp1924
sg14
g1
(g11
g12
(dtRp1925
sg16
g1
(g11
g12
(dtRp1926
sg18
g1
(g11
g12
(dtRp1927
sg20
g1
(g11
g12
(dtRp1928
sg22
g1
(g11
g12
(dtRp1929
sbsg24
g25
sg26
g27
((lp1930
g33
ag32
ag29
ag30
atRp1931
sg37
(lp1932
g1
(g2
g3
NtRp1933
(dp1934
g6
g1
(g7
g3
NtRp1935
(dp1936
g10
g1
(g11
g12
(dtRp1937
sg14
g1
(g11
g12
(dtRp1938
sg16
g1
(g11
g12
(dtRp1939
sg18
g1
(g11
g12
(dtRp1940
sg20
g1
(g11
g12
(dtRp1941
sg22
g1
(g11
g12
(dtRp1942
sbsg24
g25
sg26
g27
((lp1943
g33
ag32
ag29
ag30
atRp1944
sg37
(lp1945
g1
(g2
g3
NtRp1946
(dp1947
g6
g1
(g7
g3
NtRp1948
(dp1949
g10
g1
(g11
g12
(dtRp1950
sg14
g1
(g11
g12
(dtRp1951
sg16
g1
(g11
g12
(dtRp1952
sg18
g1
(g11
g12
(dtRp1953
sg20
g1
(g11
g12
(dtRp1954
sg22
g1
(g11
g12
(dtRp1955
sbsg24
S'Cvi'
p1956
sg26
g27
((lp1957
g29
ag30
aS'sequence'
p1958
ag32
ag33
aS'species'
p1959
atRp1960
sg37
(lp1961
sg120
g1933
sg121
S'RWFSTKDLYSRLELPGLNQNVHAMFVMPLGFGNPMGDMFARLNNSFWLPPLSLEGAGTGWTVYPPLSHSGPSVDLAFHLTSSLLGAINFTNMRGPLFWTALLLLSLPVLAGTLLDRNFNTFDGGDPLYHLFWFFGHPEVYMIPGFGSHSTYKKFGMYASIGLGFVWSHHMYVGLDDRAYFTSATMIAPTGIKFSWLSTYGGRPTLAFLFLFTGGTGVLNASDSMHDTYYVVMAFSLGYYPYNLYWFMFGMPDSGWSSSFQLGPDESNE'
p1962
sg123
F0.03977
sg124
g125
sg33
S'46'
p1963
sg127
g1
(g128
g12
(dp1964
g130
I4
sg131
g132
sg133
g134
sg135
g132
sg136
I01
sg34
g137
sg138
g134
sg139
I0
sg140
I0
sg141
I0
sg142
g134
sg35
g132
sg143
I0
stRp1965
sg145
g146
sg147
F1
sg148
Nsg30
S'CviswA'
p1966
sbag1
(g2
g3
NtRp1967
(dp1968
g6
g1
(g7
g3
NtRp1969
(dp1970
g10
g1
(g11
g12
(dtRp1971
sg14
g1
(g11
g12
(dtRp1972
sg16
g1
(g11
g12
(dtRp1973
sg18
g1
(g11
g12
(dtRp1974
sg20
g1
(g11
g12
(dtRp1975
sg22
g1
(g11
g12
(dtRp1976
sbsg24
S'Csa'
p1977
sg26
g27
((lp1978
g29
ag30
aS'sequence'
p1979
ag32
ag33
aS'species'
p1980
atRp1981
sg37
(lp1982
sg120
g1933
sg121
S'RWFSTKDLYSRLELPGLNQNVHAMFVMPLGFGNPMGDMFARLNNSFWLPPLSLEGAGTGWTVYPPLSHSGPSVDLAFHLTSSLLGAINFTNMRGVLFWTALLLLSLPVLAGTLLDRNFNTFDGGDPLYHLFWFFGHPEVYIIPGFGSHSTFKKFGMYASIGLGFVWSHHMYVGLDDRAYFTSATMIAPTGIKFSWIATYGGRPTLAFLFLFTGGTGVLNASDSMHDTYYVVMAFSLGYYPYNLYWFMFGMPDSGWSSSYQLGPDEGNE'
p1983
sg123
F0.065189999999999998
sg124
g125
sg33
S'188'
p1984
sg127
g1
(g128
g12
(dp1985
g130
I4
sg131
g132
sg133
g134
sg135
g132
sg136
I01
sg34
g137
sg138
g134
sg139
I0
sg140
I0
sg141
I0
sg142
g134
sg35
g132
sg143
I0
stRp1986
sg145
g146
sg147
F1
sg148
Nsg30
S'CsaraA'
p1987
sbasg120
g1920
sg123
F0.029960000000000001
sg124
g125
sg33
S'200'
p1988
sg127
g1
(g128
g12
(dp1989
g130
I8
sg131
g132
sg133
g134
sg135
g132
sg136
I01
sg34
g173
sg138
g134
sg139
I0
sg140
I0
sg141
I0
sg142
g134
sg35
g132
sg143
I0
stRp1990
sg145
g146
sg147
F0.98999999999999999
sg148
Nsg30
S'NoName'
p1991
sbag1
(g2
g3
NtRp1992
(dp1993
g6
g1
(g7
g3
NtRp1994
(dp1995
g10
g1
(g11
g12
(dtRp1996
sg14
g1
(g11
g12
(dtRp1997
sg16
g1
(g11
g12
(dtRp1998
sg18
g1
(g11
g12
(dtRp1999
sg20
g1
(g11
g12
(dtRp2000
sg22
g1
(g11
g12
(dtRp2001
sbsg24
S'Cpr'
p2002
sg26
g27
((lp2003
g29
ag30
aS'sequence'
p2004
ag32
ag33
aS'species'
p2005
atRp2006
sg37
(lp2007
sg120
g1920
sg121
S'RWFSTKDEYSRLELPGLNQNVHAMFVMPLGFGNPMGDMFARLNNSFWLPPLSLEGAGTGWTVYPPLSHSGPSVDLAFHLTSSLLGAINFTNMRGPLFWTALLLLSLPVLTGTLLDRNFNTFDGGDPLYHLFWFFGHPEVYMIPGFGSHSTYKKFGMYASMGLGFVWSHHMFVGLDDRAYFTSATMMAPTGIKFSWLATYGGRPMLAFLFLFTGGTGVLNASDSMHDTYYVVMAFSLGYYPYNLYWFMFGMPDSGWSSSVQLGPDENNE'
p2008
sg123
F0.17724999999999999
sg124
g125
sg33
S'29'
p2009
sg127
g1
(g128
g12
(dp2010
g130
I4
sg131
g132
sg133
g134
sg135
g132
sg136
I01
sg34
g137
sg138
g134
sg139
I0
sg140
I0
sg141
I0
sg142
g134
sg35
g132
sg143
I0
stRp2011
sg145
g146
sg147
F1
sg148
Nsg30
S'CpracA'
p2012
sbasg120
g1886
sg123
F0.02281
sg124
g125
sg33
S'209'
p2013
sg127
g1
(g128
g12
(dp2014
g130
I8
sg131
g132
sg133
g134
sg135
g132
sg136
I01
sg34
g173
sg138
g134
sg139
I0
sg140
I0
sg141
I0
sg142
g134
sg35
g132
sg143
I0
stRp2015
sg145
g146
sg147
F0.98999999999999999
sg148
Nsg30
S'NoName'
p2016
sbasg120
g1777
sg123
F0.01154
sg124
g125
sg33
S'210'
p2017
sg127
g1
(g128
g12
(dp2018
g130
I8
sg131
g132
sg133
g134
sg135
g132
sg136
I01
sg34
g173
sg138
g134
sg139
I0
sg140
I0
sg141
I0
sg142
g134
sg35
g132
sg143
I0
stRp2019
sg145
g146
sg147
F0.98999999999999999
sg148
Nsg30
S'NoName'
p2020
sbasg120
g1764
sg123
F0.02138
sg124
g125
sg33
S'105'
p2021
sg127
g1
(g128
g12
(dp2022
g130
I8
sg131
g132
sg133
g134
sg135
g132
sg136
I01
sg34
g173
sg138
g134
sg139
I0
sg140
I0
sg141
I0
sg142
g134
sg35
g132
sg143
I0
stRp2023
sg145
g146
sg147
F0.98999999999999999
sg148
Nsg30
S'NoName'
p2024
sbag1
(g2
g3
NtRp2025
(dp2026
g6
g1
(g7
g3
NtRp2027
(dp2028
g10
g1
(g11
g12
(dtRp2029
sg14
g1
(g11
g12
(dtRp2030
sg16
g1
(g11
g12
(dtRp2031
sg18
g1
(g11
g12
(dtRp2032
sg20
g1
(g11
g12
(dtRp2033
sg22
g1
(g11
g12
(dtRp2034
sbsg24
g25
sg26
g27
((lp2035
g33
ag32
ag29
ag30
atRp2036
sg37
(lp2037
g1
(g2
g3
NtRp2038
(dp2039
g6
g1
(g7
g3
NtRp2040
(dp2041
g10
g1
(g11
g12
(dtRp2042
sg14
g1
(g11
g12
(dtRp2043
sg16
g1
(g11
g12
(dtRp2044
sg18
g1
(g11
g12
(dtRp2045
sg20
g1
(g11
g12
(dtRp2046
sg22
g1
(g11
g12
(dtRp2047
sbsg24
S'Cne'
p2048
sg26
g27
((lp2049
g29
ag30
aS'sequence'
p2050
ag32
ag33
aS'species'
p2051
atRp2052
sg37
(lp2053
sg120
g2025
sg121
S'RWLSTKDLYSRLELPGLNQNVHAMFVMPLGFGNPMGDMFARLNNSFWLPPLSLEGAGTGWTVYPPLSHSGPSVDLAFHLTSSLLGAINFTNMRGPLFWTALLLLSLPVLAGTLLDRNFNTFDGGDPLYHLFWFFGHPEVYIIPGFGSHSTYKKFGMYASIGLGFVWSHHMYVGLDDRAYFTSATMIAPTGIKFSWLATYGGRPMLAFLFLFTGGTGVLNASDAFHDTYYVVMAFSLGYYPYNLYWFMFGMPDSGWSSSYQLGPDESNE'
p2054
sg123
F0.04879
sg124
g125
sg33
S'115'
p2055
sg127
g1
(g128
g12
(dp2056
g130
I4
sg131
g132
sg133
g134
sg135
g132
sg136
I01
sg34
g137
sg138
g134
sg139
I0
sg140
I0
sg141
I0
sg142
g134
sg35
g132
sg143
I0
stRp2057
sg145
g146
sg147
F1
sg148
Nsg30
S'CneerA'
p2058
sbag1
(g2
g3
NtRp2059
(dp2060
g6
g1
(g7
g3
NtRp2061
(dp2062
g10
g1
(g11
g12
(dtRp2063
sg14
g1
(g11
g12
(dtRp2064
sg16
g1
(g11
g12
(dtRp2065
sg18
g1
(g11
g12
(dtRp2066
sg20
g1
(g11
g12
(dtRp2067
sg22
g1
(g11
g12
(dtRp2068
sbsg24
S'Cfr'
p2069
sg26
g27
((lp2070
g29
ag30
aS'sequence'
p2071
ag32
ag33
aS'species'
p2072
atRp2073
sg37
(lp2074
sg120
g2025
sg121
S'RWLSTKDLYSRLELPGLNQNVHAMFVMPLGFGNPMGDMFARLNNSFWLPPLSLEGAGTGWTVYPPLSHSGPSVDLAFHLTSSLLGAMNFTNMRGPLFWTALLLLSLPVLAGTLLDRNFNTFDGGDPLYHLFWFFGHPEVYIIPGFGSHSTYKKFGMYASIGLGFVWSHHMYVGLDDRAYFTSATMIAPTGIKFSWLSTYGGRPMLAFLFLFTGGTGVLNASDAFHDTYYVVMAFSLGYYPYNLYWFMFGMPDSGWSSSYQLGPDESNE'
p2075
sg123
F0.050279999999999998
sg124
g125
sg33
S'112'
p2076
sg127
g1
(g128
g12
(dp2077
g130
I4
sg131
g132
sg133
g134
sg135
g132
sg136
I01
sg34
g137
sg138
g134
sg139
I0
sg140
I0
sg141
I0
sg142
g134
sg35
g132
sg143
I0
stRp2078
sg145
g146
sg147
F1
sg148
Nsg30
S'CfrijA'
p2079
sbasg120
g1764
sg123
F0.11378000000000001
sg124
g125
sg33
S'221'
p2080
sg127
g1
(g128
g12
(dp2081
g130
I8
sg131
g132
sg133
g134
sg135
g132
sg136
I01
sg34
g173
sg138
g134
sg139
I0
sg140
I0
sg141
I0
sg142
g134
sg35
g132
sg143
I0
stRp2082
sg145
g146
sg147
F0.98999999999999999
sg148
Nsg30
S'NoName'
p2083
sbasg120
g1730
sg123
F0.076910000000000006
sg124
g125
sg33
S'201'
p2084
sg127
g1
(g128
g12
(dp2085
g130
I8
sg131
g132
sg133
g134
sg135
g132
sg136
I01
sg34
g173
sg138
g134
sg139
I0
sg140
I0
sg141
I0
sg142
g134
sg35
g132
sg143
I0
stRp2086
sg145
g146
sg147
F0.98999999999999999
sg148
Nsg30
S'NoName'
p2087
sbasg120
g1717
sg123
F0.022950000000000002
sg124
g125
sg33
S'95'
p2088
sg127
g1
(g128
g12
(dp2089
g130
I8
sg131
g132
sg133
g134
sg135
g132
sg136
I01
sg34
g173
sg138
g134
sg139
I0
sg140
I0
sg141
I0
sg142
g134
sg35
g132
sg143
I0
stRp2090
sg145
g146
sg147
F0.65000000000000002
sg148
Nsg30
S'NoName'
p2091
sbag1
(g2
g3
NtRp2092
(dp2093
g6
g1
(g7
g3
NtRp2094
(dp2095
g10
g1
(g11
g12
(dtRp2096
sg14
g1
(g11
g12
(dtRp2097
sg16
g1
(g11
g12
(dtRp2098
sg18
g1
(g11
g12
(dtRp2099
sg20
g1
(g11
g12
(dtRp2100
sg22
g1
(g11
g12
(dtRp2101
sbsg24
g25
sg26
g27
((lp2102
g33
ag32
ag29
ag30
atRp2103
sg37
(lp2104
g1
(g2
g3
NtRp2105
(dp2106
g6
g1
(g7
g3
NtRp2107
(dp2108
g10
g1
(g11
g12
(dtRp2109
sg14
g1
(g11
g12
(dtRp2110
sg16
g1
(g11
g12
(dtRp2111
sg18
g1
(g11
g12
(dtRp2112
sg20
g1
(g11
g12
(dtRp2113
sg22
g1
(g11
g12
(dtRp2114
sbsg24
g25
sg26
g27
((lp2115
g33
ag32
ag29
ag30
atRp2116
sg37
(lp2117
g1
(g2
g3
NtRp2118
(dp2119
g6
g1
(g7
g3
NtRp2120
(dp2121
g10
g1
(g11
g12
(dtRp2122
sg14
g1
(g11
g12
(dtRp2123
sg16
g1
(g11
g12
(dtRp2124
sg18
g1
(g11
g12
(dtRp2125
sg20
g1
(g11
g12
(dtRp2126
sg22
g1
(g11
g12
(dtRp2127
sbsg24
S'Cgi'
p2128
sg26
g27
((lp2129
g29
ag30
aS'sequence'
p2130
ag32
ag33
aS'species'
p2131
atRp2132
sg37
(lp2133
sg120
g2105
sg121
S'RWLSTKDLYSRLELAGLNQNVHAMFVMPLGFGNPMGDMFARLNNSFWLPPLSLEGAGTGWTVYPPLSHSGPSVDMAFHLTSSLLGAINFTNMRGPLFWTALLLLSLPVLAATLLDRNFNTFEGGDPLYHAFWFFGHPEVYIIPGFGSHSTYKKFGMYASIGLGFVWSHHMYVGLDDRAYFTSATMIAPTGIKFSWLATYGGRPMLAFLFLFTGGTGVLNASDAFHDTYYVVMAFSLGYYPYNLYWFMFGMPDAGWSSSYQLGPDESNE'
p2134
sg123
F0.22796
sg124
g125
sg33
S'114'
p2135
sg127
g1
(g128
g12
(dp2136
g130
I4
sg131
g132
sg133
g134
sg135
g132
sg136
I01
sg34
g137
sg138
g134
sg139
I0
sg140
I0
sg141
I0
sg142
g134
sg35
g132
sg143
I0
stRp2137
sg145
g146
sg147
F1
sg148
Nsg30
S'CgigaA'
p2138
sbag1
(g2
g3
NtRp2139
(dp2140
g6
g1
(g7
g3
NtRp2141
(dp2142
g10
g1
(g11
g12
(dtRp2143
sg14
g1
(g11
g12
(dtRp2144
sg16
g1
(g11
g12
(dtRp2145
sg18
g1
(g11
g12
(dtRp2146
sg20
g1
(g11
g12
(dtRp2147
sg22
g1
(g11
g12
(dtRp2148
sbsg24
S'Cbu'
p2149
sg26
g27
((lp2150
g29
ag30
aS'sequence'
p2151
ag32
ag33
aS'species'
p2152
atRp2153
sg37
(lp2154
sg120
g2105
sg121
S'RWLSTKDLYSRLELAGLNQNVHAMFVMPLGFGNPMGDMFARLNNSFWLPPLSLEGAGTGWTVYPPLSHSGPSVDLAFHLTSSLLGAINFTNMRGPLFWTALLLLSLPVLAGTLLDRNFNTFEGGDPLYHLFWFFGHPEVYIIPGFGSHGTYKKFGMYASIGLGFVWSHHMFVGLDDRAYFTSATMIAPTGIKFSWLATYGGRPMLAFLFLFTGGTGVLNASDAFHDTYYVVMAFSLAYYPYNLFWFMFGMPDAGWSSSYQLGPDESNE'
p2155
sg123
F0.26118000000000002
sg124
g125
sg33
S'90'
p2156
sg127
g1
(g128
g12
(dp2157
g130
I4
sg131
g132
sg133
g134
sg135
g132
sg136
I01
sg34
g137
sg138
g134
sg139
I0
sg140
I0
sg141
I0
sg142
g134
sg35
g132
sg143
I0
stRp2158
sg145
g146
sg147
F1
sg148
Nsg30
S'CbuenA'
p2159
sbasg120
g2092
sg123
F0.037260000000000001
sg124
g125
sg33
S'108'
p2160
sg127
g1
(g128
g12
(dp2161
g130
I8
sg131
g132
sg133
g134
sg135
g132
sg136
I01
sg34
g173
sg138
g134
sg139
I0
sg140
I0
sg141
I0
sg142
g134
sg35
g132
sg143
I0
stRp2162
sg145
g146
sg147
F0.98999999999999999
sg148
Nsg30
S'NoName'
p2163
sbag1
(g2
g3
NtRp2164
(dp2165
g6
g1
(g7
g3
NtRp2166
(dp2167
g10
g1
(g11
g12
(dtRp2168
sg14
g1
(g11
g12
(dtRp2169
sg16
g1
(g11
g12
(dtRp2170
sg18
g1
(g11
g12
(dtRp2171
sg20
g1
(g11
g12
(dtRp2172
sg22
g1
(g11
g12
(dtRp2173
sbsg24
g25
sg26
g27
((lp2174
g33
ag32
ag29
ag30
atRp2175
sg37
(lp2176
g1
(g2
g3
NtRp2177
(dp2178
g6
g1
(g7
g3
NtRp2179
(dp2180
g10
g1
(g11
g12
(dtRp2181
sg14
g1
(g11
g12
(dtRp2182
sg16
g1
(g11
g12
(dtRp2183
sg18
g1
(g11
g12
(dtRp2184
sg20
g1
(g11
g12
(dtRp2185
sg22
g1
(g11
g12
(dtRp2186
sbsg24
S'Cdu'
p2187
sg26
g27
((lp2188
g29
ag30
aS'sequence'
p2189
ag32
ag33
aS'species'
p2190
atRp2191
sg37
(lp2192
sg120
g2164
sg121
S'RWLSTKDLYSRLELPGLNQNVHAMFVMPLGFGNPMGDMFARLNNSFWLPPLSLEGAGTGWTVYPPLSHSGPSVDLAFHLTSSLLGAINFTNMRGPLYWTALLLLSLPVLAGTLLDRNFNTFEGGDPLYHLFWFFGHPEVYIIPGFGSHSTYKKFGMYASIGLGFVWSHHMYVGLDDRAYFTSATMIAPTGIKFSWLATYGGRPMLAFLFLFTGGTGVLNASDAFHDTYYVVMAFSLGYYPYNLYWFMFGMPDAGWSSSYQLGPDESNE'
p2193
sg123
F0.025069999999999999
sg124
g125
sg33
S'71'
p2194
sg127
g1
(g128
g12
(dp2195
g130
I4
sg131
g132
sg133
g134
sg135
g132
sg136
I01
sg34
g137
sg138
g134
sg139
I0
sg140
I0
sg141
I0
sg142
g134
sg35
g132
sg143
I0
stRp2196
sg145
g146
sg147
F1
sg148
Nsg30
S'CdublA'
p2197
sbag1
(g2
g3
NtRp2198
(dp2199
g6
g1
(g7
g3
NtRp2200
(dp2201
g10
g1
(g11
g12
(dtRp2202
sg14
g1
(g11
g12
(dtRp2203
sg16
g1
(g11
g12
(dtRp2204
sg18
g1
(g11
g12
(dtRp2205
sg20
g1
(g11
g12
(dtRp2206
sg22
g1
(g11
g12
(dtRp2207
sbsg24
g25
sg26
g27
((lp2208
g33
ag32
ag29
ag30
atRp2209
sg37
(lp2210
g1
(g2
g3
NtRp2211
(dp2212
g6
g1
(g7
g3
NtRp2213
(dp2214
g10
g1
(g11
g12
(dtRp2215
sg14
g1
(g11
g12
(dtRp2216
sg16
g1
(g11
g12
(dtRp2217
sg18
g1
(g11
g12
(dtRp2218
sg20
g1
(g11
g12
(dtRp2219
sg22
g1
(g11
g12
(dtRp2220
sbsg24
g25
sg26
g27
((lp2221
g33
ag32
ag29
ag30
atRp2222
sg37
(lp2223
g1
(g2
g3
NtRp2224
(dp2225
g6
g1
(g7
g3
NtRp2226
(dp2227
g10
g1
(g11
g12
(dtRp2228
sg14
g1
(g11
g12
(dtRp2229
sg16
g1
(g11
g12
(dtRp2230
sg18
g1
(g11
g12
(dtRp2231
sg20
g1
(g11
g12
(dtRp2232
sg22
g1
(g11
g12
(dtRp2233
sbsg24
g25
sg26
g27
((lp2234
g33
ag32
ag29
ag30
atRp2235
sg37
(lp2236
g1
(g2
g3
NtRp2237
(dp2238
g6
g1
(g7
g3
NtRp2239
(dp2240
g10
g1
(g11
g12
(dtRp2241
sg14
g1
(g11
g12
(dtRp2242
sg16
g1
(g11
g12
(dtRp2243
sg18
g1
(g11
g12
(dtRp2244
sg20
g1
(g11
g12
(dtRp2245
sg22
g1
(g11
g12
(dtRp2246
sbsg24
g25
sg26
g27
((lp2247
g33
ag32
ag29
ag30
atRp2248
sg37
(lp2249
g1
(g2
g3
NtRp2250
(dp2251
g6
g1
(g7
g3
NtRp2252
(dp2253
g10
g1
(g11
g12
(dtRp2254
sg14
g1
(g11
g12
(dtRp2255
sg16
g1
(g11
g12
(dtRp2256
sg18
g1
(g11
g12
(dtRp2257
sg20
g1
(g11
g12
(dtRp2258
sg22
g1
(g11
g12
(dtRp2259
sbsg24
S'Cal'
p2260
sg26
g27
((lp2261
g29
ag30
aS'sequence'
p2262
ag32
ag33
aS'species'
p2263
atRp2264
sg37
(lp2265
sg120
g2237
sg121
S'RWLSTKDLYSRLELPGLNQNVHAMFVMPLGFGNPMGDMFARLNNSFWLPPLSLEGAGTGWTVYPPLSHSGPSVDLAFHLTSSLLGAINFTNMRGPLFWTALLLLSLPVLAGTLLDRNFNTFEGGDPLYHLFWFFGHPEVYIIPGFGSHSTYKKFGMYASIGLGFVWSHHMYVGLDDRAYFTSATMIAPTGIKFSWLATYGGRPMLAFLFLFTGGTGVLNASDAFHDTYYVVMAFSLGYYPYNLYWFMFGMPDAGWSSSYQLGPDESNE'
p2266
sg123
F0.00025000000000000001
sg124
g125
sg33
S'36'
p2267
sg127
g1
(g128
g12
(dp2268
g130
I4
sg131
g132
sg133
g134
sg135
g132
sg136
I01
sg34
g137
sg138
g134
sg139
I0
sg140
I0
sg141
I0
sg142
g134
sg35
g132
sg143
I0
stRp2269
sg145
g146
sg147
F1
sg148
Nsg30
S'CalbiE'
p2270
sbag1
(g2
g3
NtRp2271
(dp2272
g6
g1
(g7
g3
NtRp2273
(dp2274
g10
g1
(g11
g12
(dtRp2275
sg14
g1
(g11
g12
(dtRp2276
sg16
g1
(g11
g12
(dtRp2277
sg18
g1
(g11
g12
(dtRp2278
sg20
g1
(g11
g12
(dtRp2279
sg22
g1
(g11
g12
(dtRp2280
sbsg24
S'Cal'
p2281
sg26
g27
((lp2282
g29
ag30
aS'sequence'
p2283
ag32
ag33
aS'species'
p2284
atRp2285
sg37
(lp2286
sg120
g2237
sg121
S'RWLSTKDLYSRLELPGLNQNVHAMFVMPLGFGNPMGDMFARLNNSFWLPPLSLEGAGTGWTVYPPLSHSGPSVDLAFHLTSSLLGAINFTNMRGPLFWTALLLLSLPVLAGTLLDRNFNTFEGGDPLYHLFWFFGHPEVYIIPGFGSHSTYKKFGMYASIGLGFVWSHHMYVGLDDRAYFTSATMIAPTGIKFSWLATYGGRPMLAFLFLFTGGTGVLNASDAFHDTYYVVMAFSLGYYPYNLYWFMFGMPDAGWSSSYQLGPDESNE'
p2287
sg123
F0.00050000000000000001
sg124
g125
sg33
S'169'
p2288
sg127
g1
(g128
g12
(dp2289
g130
I4
sg131
g132
sg133
g134
sg135
g132
sg136
I01
sg34
g137
sg138
g134
sg139
I0
sg140
I0
sg141
I0
sg142
g134
sg35
g132
sg143
I0
stRp2290
sg145
g146
sg147
F1
sg148
Nsg30
S'CalbiD'
p2291
sbasg120
g2224
sg123
F0.00051999999999999995
sg124
g125
sg33
S'86'
p2292
sg127
g1
(g128
g12
(dp2293
g130
I8
sg131
g132
sg133
g134
sg135
g132
sg136
I01
sg34
g173
sg138
g134
sg139
I0
sg140
I0
sg141
I0
sg142
g134
sg35
g132
sg143
I0
stRp2294
sg145
g146
sg147
F0.73999999999999999
sg148
Nsg30
S'NoName'
p2295
sbag1
(g2
g3
NtRp2296
(dp2297
g6
g1
(g7
g3
NtRp2298
(dp2299
g10
g1
(g11
g12
(dtRp2300
sg14
g1
(g11
g12
(dtRp2301
sg16
g1
(g11
g12
(dtRp2302
sg18
g1
(g11
g12
(dtRp2303
sg20
g1
(g11
g12
(dtRp2304
sg22
g1
(g11
g12
(dtRp2305
sbsg24
S'Cal'
p2306
sg26
g27
((lp2307
g29
ag30
aS'sequence'
p2308
ag32
ag33
aS'species'
p2309
atRp2310
sg37
(lp2311
sg120
g2224
sg121
S'RWLSTKDLYSRLELPGLNQNVHAMFVMPLGFGNPMGDMFARLNNSFWLPPLSLEGAGTGWTVYPPLSHSGPSVDLAFHLTSSLLGAINFTNMRGPLFWTALLLLSLPVLAGTLLDRNFNTFEGGDPLYHLFWFFGHPEVYIIPGFGSHSTYKKFGMYASIGLGFVWSHHMYVGLDDRAYFTSATMIAPTGIKFSWLATYGGRPMLAFLFLFTGGTGVLNASDAFHDTYYVVMAFSLGYYPYNLYWFMFGMPDAGWSSSYQLGPDESNE'
p2312
sg123
F0.00012
sg124
g125
sg33
S'143'
p2313
sg127
g1
(g128
g12
(dp2314
g130
I4
sg131
g132
sg133
g134
sg135
g132
sg136
I01
sg34
g137
sg138
g134
sg139
I0
sg140
I0
sg141
I0
sg142
g134
sg35
g132
sg143
I0
stRp2315
sg145
g146
sg147
F1
sg148
Nsg30
S'CalbiC'
p2316
sbasg120
g2211
sg123
F1.0000000000000001e-05
sg124
g125
sg33
S'150'
p2317
sg127
g1
(g128
g12
(dp2318
g130
I8
sg131
g132
sg133
g134
sg135
g132
sg136
I01
sg34
g173
sg138
g134
sg139
I0
sg140
I0
sg141
I0
sg142
g134
sg35
g132
sg143
I0
stRp2319
sg145
g146
sg147
F1
sg148
Nsg30
S'NoName'
p2320
sbag1
(g2
g3
NtRp2321
(dp2322
g6
g1
(g7
g3
NtRp2323
(dp2324
g10
g1
(g11
g12
(dtRp2325
sg14
g1
(g11
g12
(dtRp2326
sg16
g1
(g11
g12
(dtRp2327
sg18
g1
(g11
g12
(dtRp2328
sg20
g1
(g11
g12
(dtRp2329
sg22
g1
(g11
g12
(dtRp2330
sbsg24
S'Cal'
p2331
sg26
g27
((lp2332
g29
ag30
aS'sequence'
p2333
ag32
ag33
aS'species'
p2334
atRp2335
sg37
(lp2336
sg120
g2211
sg121
S'RWLSTKDLYSRLELPGLNQNVHAMFVMPLGFGNPMGDMFARLNNSFWLPPLSLEGAGTGWTVYPPLSHSGPSVDLAFHLTSSLLGAINFTNMRGPLFWTALLLLSLPVLAGTLLDRNFNTFEGGDPLYHLFWFFGHPEVYIIPGFGSHSTYKKFGMYASIGLGFVWSHHMYVGLDDRAYFTSATMIAPTGIKFSWLATYGGRPMLAFLFLFTGGTGVLNASDAFHDTYYVVMAFSLGYYPYNLYWFMFGMPDAGWSSSYQLGPDESNE'
p2337
sg123
F0.00016000000000000001
sg124
g125
sg33
S'6'
sg127
g1
(g128
g12
(dp2338
g130
I4
sg131
g132
sg133
g134
sg135
g132
sg136
I01
sg34
g137
sg138
g134
sg139
I0
sg140
I0
sg141
I0
sg142
g134
sg35
g132
sg143
I0
stRp2339
sg145
g146
sg147
F1
sg148
Nsg30
S'CalbiB'
p2340
sbasg120
g2198
sg123
F1.0000000000000001e-05
sg124
g125
sg33
S'78'
p2341
sg127
g1
(g128
g12
(dp2342
g130
I8
sg131
g132
sg133
g134
sg135
g132
sg136
I01
sg34
g173
sg138
g134
sg139
I0
sg140
I0
sg141
I0
sg142
g134
sg35
g132
sg143
I0
stRp2343
sg145
g146
sg147
F1
sg148
Nsg30
S'NoName'
p2344
sbag1
(g2
g3
NtRp2345
(dp2346
g6
g1
(g7
g3
NtRp2347
(dp2348
g10
g1
(g11
g12
(dtRp2349
sg14
g1
(g11
g12
(dtRp2350
sg16
g1
(g11
g12
(dtRp2351
sg18
g1
(g11
g12
(dtRp2352
sg20
g1
(g11
g12
(dtRp2353
sg22
g1
(g11
g12
(dtRp2354
sbsg24
S'Cal'
p2355
sg26
g27
((lp2356
g29
ag30
aS'sequence'
p2357
ag32
ag33
aS'species'
p2358
atRp2359
sg37
(lp2360
sg120
g2198
sg121
S'RWLSTKDLYSRLELPGLNQNVHAMFVMPLGFGNPMGDMFARLNNSFWLPPLSLEGAGTGWTVYPPLSHSGPSVDLAFHLTSSLLGAINFTNMRGPLFWTALLLLSLPVLAGTLLDRNFNTFEGGDPLYHLFWFFGHPEVYIIPGFGSHSTYKKFGMYASIGLGFVWSHHMYVGLDDRAYFTSATMIAPTGIKFSWLATYGGRPMLAFLFLFTGGTGVLNASDAFHDTYYVVMAFSLGYYPYNLYWFMFGMPDAGWSSSYQLGPDESNE'
p2361
sg123
F0.00013999999999999999
sg124
g125
sg33
S'198'
p2362
sg127
g1
(g128
g12
(dp2363
g130
I4
sg131
g132
sg133
g134
sg135
g132
sg136
I01
sg34
g137
sg138
g134
sg139
I0
sg140
I0
sg141
I0
sg142
g134
sg35
g132
sg143
I0
stRp2364
sg145
g146
sg147
F1
sg148
Nsg30
S'CalbiA'
p2365
sbasg120
g2164
sg123
F0.014959999999999999
sg124
g125
sg33
S'117'
p2366
sg127
g1
(g128
g12
(dp2367
g130
I8
sg131
g132
sg133
g134
sg135
g132
sg136
I01
sg34
g173
sg138
g134
sg139
I0
sg140
I0
sg141
I0
sg142
g134
sg35
g132
sg143
I0
stRp2368
sg145
g146
sg147
F0.98999999999999999
sg148
Nsg30
S'NoName'
p2369
sbasg120
g2092
sg123
F0.05287
sg124
g125
sg33
S'111'
p2370
sg127
g1
(g128
g12
(dp2371
g130
I8
sg131
g132
sg133
g134
sg135
g132
sg136
I01
sg34
g173
sg138
g134
sg139
I0
sg140
I0
sg141
I0
sg142
g134
sg35
g132
sg143
I0
stRp2372
sg145
g146
sg147
F0.98999999999999999
sg148
Nsg30
S'NoName'
p2373
sbasg120
g1717
sg123
F0.037499999999999999
sg124
g125
sg33
S'38'
p2374
sg127
g1
(g128
g12
(dp2375
g130
I8
sg131
g132
sg133
g134
sg135
g132
sg136
I01
sg34
g173
sg138
g134
sg139
I0
sg140
I0
sg141
I0
sg142
g134
sg35
g132
sg143
I0
stRp2376
sg145
g146
sg147
F0.98999999999999999
sg148
Nsg30
S'NoName'
p2377
sbasg120
g1000
sg123
F0.10766000000000001
sg124
g125
sg33
S'138'
p2378
sg127
g1
(g128
g12
(dp2379
g130
I8
sg131
g132
sg133
g134
sg135
g132
sg136
I01
sg34
g173
sg138
g134
sg139
I0
sg140
I0
sg141
I0
sg142
g134
sg35
g132
sg143
I0
stRp2380
sg145
g146
sg147
F0.98999999999999999
sg148
Nsg30
S'NoName'
p2381
sbasg120
g966
sg123
F0.093560000000000004
sg124
g125
sg33
S'13'
p2382
sg127
g1
(g128
g12
(dp2383
g130
I8
sg131
g132
sg133
g134
sg135
g132
sg136
I01
sg34
g173
sg138
g134
sg139
I0
sg140
I0
sg141
I0
sg142
g134
sg35
g132
sg143
I0
stRp2384
sg145
g146
sg147
F0.97999999999999998
sg148
Nsg30
S'NoName'
p2385
sbasg120
g953
sg123
F0.036760000000000001
sg124
g125
sg33
S'77'
p2386
sg127
g1
(g128
g12
(dp2387
g130
I8
sg131
g132
sg133
g134
sg135
g132
sg136
I01
sg34
g173
sg138
g134
sg139
I0
sg140
I0
sg141
I0
sg142
g134
sg35
g132
sg143
I0
stRp2388
sg145
g146
sg147
F0.97999999999999998
sg148
Nsg30
S'NoName'
p2389
sbag1
(g2
g3
NtRp2390
(dp2391
g6
g1
(g7
g3
NtRp2392
(dp2393
g10
g1
(g11
g12
(dtRp2394
sg14
g1
(g11
g12
(dtRp2395
sg16
g1
(g11
g12
(dtRp2396
sg18
g1
(g11
g12
(dtRp2397
sg20
g1
(g11
g12
(dtRp2398
sg22
g1
(g11
g12
(dtRp2399
sbsg24
g25
sg26
g27
((lp2400
g33
ag32
ag29
ag30
atRp2401
sg37
(lp2402
g1
(g2
g3
NtRp2403
(dp2404
g6
g1
(g7
g3
NtRp2405
(dp2406
g10
g1
(g11
g12
(dtRp2407
sg14
g1
(g11
g12
(dtRp2408
sg16
g1
(g11
g12
(dtRp2409
sg18
g1
(g11
g12
(dtRp2410
sg20
g1
(g11
g12
(dtRp2411
sg22
g1
(g11
g12
(dtRp2412
sbsg24
g25
sg26
g27
((lp2413
g33
ag32
ag29
ag30
atRp2414
sg37
(lp2415
g1
(g2
g3
NtRp2416
(dp2417
g6
g1
(g7
g3
NtRp2418
(dp2419
g10
g1
(g11
g12
(dtRp2420
sg14
g1
(g11
g12
(dtRp2421
sg16
g1
(g11
g12
(dtRp2422
sg18
g1
(g11
g12
(dtRp2423
sg20
g1
(g11
g12
(dtRp2424
sg22
g1
(g11
g12
(dtRp2425
sbsg24
S'Csu'
p2426
sg26
g27
((lp2427
g29
ag30
aS'sequence'
p2428
ag32
ag33
aS'species'
p2429
atRp2430
sg37
(lp2431
sg120
g2403
sg121
S'RWLSTKDLYSRMELPGLNQNVHAMFIMPLGLGNPLGDMFARLNNSFWLPPLSLEGAGTGWTVYPPLSHSGPSVDLAFHLTSSLLGAINFTNMRGPLYWTALLLLSLPVLAATLLDRNFNTFEGGDPLYHLFWFFGHPEVYIIPGFGSHSTYKKFGMYASIGLGFVWSHHMFVGLDDRAYFTSATMIAPTGVKFSWLATYGGRPMLAFLFLFTGGTGVINASDAFHDTYYIVMAFSLGFYPYNLFWFMFGMPDAGWSSAYQLGPDESNE'
p2432
sg123
F0.00012999999999999999
sg124
g125
sg33
S'55'
p2433
sg127
g1
(g128
g12
(dp2434
g130
I4
sg131
g132
sg133
g134
sg135
g132
sg136
I01
sg34
g137
sg138
g134
sg139
I0
sg140
I0
sg141
I0
sg142
g134
sg35
g132
sg143
I0
stRp2435
sg145
g146
sg147
F1
sg148
Nsg30
S'CsubhB'
p2436
sbag1
(g2
g3
NtRp2437
(dp2438
g6
g1
(g7
g3
NtRp2439
(dp2440
g10
g1
(g11
g12
(dtRp2441
sg14
g1
(g11
g12
(dtRp2442
sg16
g1
(g11
g12
(dtRp2443
sg18
g1
(g11
g12
(dtRp2444
sg20
g1
(g11
g12
(dtRp2445
sg22
g1
(g11
g12
(dtRp2446
sbsg24
S'Csu'
p2447
sg26
g27
((lp2448
g29
ag30
aS'sequence'
p2449
ag32
ag33
aS'species'
p2450
atRp2451
sg37
(lp2452
sg120
g2403
sg121
S'RWLSTKDLYSRMELPGLNQNVHAMFIMPLGLGNPLGDMFARLNNSFWLPPLSLEGAGTGWTVYPPLSHSGPSVDLAFHLTSSLLGAINFTNMRGPLYWTALLLLSLPVLAATLLDRNFNTFEGGDPLYHLFWFFGHPEVYIIPGFGSHSTYKKFGMYASIGLGFVWSHHMFVGLDDRAYFTSATMIAPTGVKFSWLATYGGRPMLAFLFLFTGGTGVINASDAFHDTYYIVMAFSLGFYPYNLFWFMFGMPDAGWSSAYQLGPDESNE'
p2453
sg123
F0.00013999999999999999
sg124
g125
sg33
S'57'
p2454
sg127
g1
(g128
g12
(dp2455
g130
I4
sg131
g132
sg133
g134
sg135
g132
sg136
I01
sg34
g137
sg138
g134
sg139
I0
sg140
I0
sg141
I0
sg142
g134
sg35
g132
sg143
I0
stRp2456
sg145
g146
sg147
F1
sg148
Nsg30
S'CsubhA'
p2457
sbasg120
g2390
sg123
F0.59348999999999996
sg124
g125
sg33
S'83'
p2458
sg127
g1
(g128
g12
(dp2459
g130
I8
sg131
g132
sg133
g134
sg135
g132
sg136
I01
sg34
g173
sg138
g134
sg139
I0
sg140
I0
sg141
I0
sg142
g134
sg35
g132
sg143
I0
stRp2460
sg145
g146
sg147
F1
sg148
Nsg30
S'NoName'
p2461
sbag1
(g2
g3
NtRp2462
(dp2463
g6
g1
(g7
g3
NtRp2464
(dp2465
g10
g1
(g11
g12
(dtRp2466
sg14
g1
(g11
g12
(dtRp2467
sg16
g1
(g11
g12
(dtRp2468
sg18
g1
(g11
g12
(dtRp2469
sg20
g1
(g11
g12
(dtRp2470
sg22
g1
(g11
g12
(dtRp2471
sbsg24
S'Cal'
p2472
sg26
g27
((lp2473
g29
ag30
aS'sequence'
p2474
ag32
ag33
aS'species'
p2475
atRp2476
sg37
(lp2477
sg120
g2390
sg121
S'RWLSTKDLYSRMELPGLNQNVHAMFVMPLGFGNPLGDMFARLNNSFWLPPLSLDGPGTGWTVYPPLSHSGASVDFAFHLTSSLLGAINFTNMRGPLFWTALLLLSLPVLVATLLDRNFNTFEGGDPLYHLFWFFGHPEVYMIPGFGSHSTYKKFGMYASIGLGFVWSHHMFVGLDDRAYFTSATMMAPTGIKFSWMATYGGYPMLAFLFLFTGGTGVINASDAFHDTYYIVMAFSLGYYPYNLFWFMFGMPDAGWSSAYQLGPDESNE'
p2478
sg123
F0.40044000000000002
sg124
g125
sg33
S'147'
p2479
sg127
g1
(g128
g12
(dp2480
g130
I4
sg131
g132
sg133
g134
sg135
g132
sg136
I01
sg34
g137
sg138
g134
sg139
I0
sg140
I0
sg141
I0
sg142
g134
sg35
g132
sg143
I0
stRp2481
sg145
g146
sg147
F1
sg148
Nsg30
S'CalaiA'
p2482
sbasg120
g953
sg123
F0.080810000000000007
sg124
g125
sg33
S'5'
sg127
g1
(g128
g12
(dp2483
g130
I8
sg131
g132
sg133
g134
sg135
g132
sg136
I01
sg34
g173
sg138
g134
sg139
I0
sg140
I0
sg141
I0
sg142
g134
sg35
g132
sg143
I0
stRp2484
sg145
g146
sg147
F0.98999999999999999
sg148
Nsg30
S'NoName'
p2485
sbasg120
g691
sg123
F0.075389999999999999
sg124
g125
sg33
S'82'
p2486
sg127
g1
(g128
g12
(dp2487
g130
I8
sg131
g132
sg133
g134
sg135
g132
sg136
I01
sg34
g173
sg138
g134
sg139
I0
sg140
I0
sg141
I0
sg142
g134
sg35
g132
sg143
I0
stRp2488
sg145
g146
sg147
F0.94999999999999996
sg148
Nsg30
S'NoName'
p2489
sbasg120
g678
sg123
F1.2542500000000001
sg124
g125
sg33
S'40'
p2490
sg127
g1
(g128
g12
(dp2491
g130
I8
sg131
g132
sg133
g134
sg135
g132
sg136
I01
sg34
g173
sg138
g134
sg139
I0
sg140
I0
sg141
I0
sg142
g134
sg35
g132
sg143
I0
stRp2492
sg145
g146
sg147
F0.97999999999999998
sg148
Nsg30
S'NoName'
p2493
sbag1
(g2
g3
NtRp2494
(dp2495
g6
g1
(g7
g3
NtRp2496
(dp2497
g10
g1
(g11
g12
(dtRp2498
sg14
g1
(g11
g12
(dtRp2499
sg16
g1
(g11
g12
(dtRp2500
sg18
g1
(g11
g12
(dtRp2501
sg20
g1
(g11
g12
(dtRp2502
sg22
g1
(g11
g12
(dtRp2503
sbsg24
g25
sg26
g27
((lp2504
g33
ag32
ag29
ag30
atRp2505
sg37
(lp2506
g1
(g2
g3
NtRp2507
(dp2508
g6
g1
(g7
g3
NtRp2509
(dp2510
g10
g1
(g11
g12
(dtRp2511
sg14
g1
(g11
g12
(dtRp2512
sg16
g1
(g11
g12
(dtRp2513
sg18
g1
(g11
g12
(dtRp2514
sg20
g1
(g11
g12
(dtRp2515
sg22
g1
(g11
g12
(dtRp2516
sbsg24
g25
sg26
g27
((lp2517
g33
ag32
ag29
ag30
atRp2518
sg37
(lp2519
g1
(g2
g3
NtRp2520
(dp2521
g6
g1
(g7
g3
NtRp2522
(dp2523
g10
g1
(g11
g12
(dtRp2524
sg14
g1
(g11
g12
(dtRp2525
sg16
g1
(g11
g12
(dtRp2526
sg18
g1
(g11
g12
(dtRp2527
sg20
g1
(g11
g12
(dtRp2528
sg22
g1
(g11
g12
(dtRp2529
sbsg24
S'Ppa'
p2530
sg26
g27
((lp2531
g29
ag30
aS'sequence'
p2532
ag32
ag33
aS'species'
p2533
atRp2534
sg37
(lp2535
sg120
g2507
sg121
S'RWLSTKDLYSRLELPGLNQNVHAMFVMPAGFGNPMGDMFARLNNSFWLPPLSLEGAGTGWTVYPPLAHSGPSVDLAFHLTSSLLGAMNFTNMRGPLFWTSLLLLSLPVLAGTLLDRNFNTFEGGDPLYHLFWFFGHPEVYIMPGFGSHSTYKKFGMYASIGLGLVWSHHMYVGLDDRAYFTSATMMAPTGMKFSWLATYGGRPMLAFLFLFTGGSGVLNASDAFHDTYYVILAFSLGYYPYNLFWFMFGMPDAGWSSSYQLGPDESND'
p2536
sg123
F0.16184999999999999
sg124
g125
sg33
S'8'
sg127
g1
(g128
g12
(dp2537
g130
I4
sg131
g132
sg133
g134
sg135
g132
sg136
I01
sg34
g137
sg138
g134
sg139
I0
sg140
I0
sg141
I0
sg142
g134
sg35
g132
sg143
I0
stRp2538
sg145
g146
sg147
F1
sg148
Nsg30
S'PpastA'
p2539
sbag1
(g2
g3
NtRp2540
(dp2541
g6
g1
(g7
g3
NtRp2542
(dp2543
g10
g1
(g11
g12
(dtRp2544
sg14
g1
(g11
g12
(dtRp2545
sg16
g1
(g11
g12
(dtRp2546
sg18
g1
(g11
g12
(dtRp2547
sg20
g1
(g11
g12
(dtRp2548
sg22
g1
(g11
g12
(dtRp2549
sbsg24
g25
sg26
g27
((lp2550
g33
ag32
ag29
ag30
atRp2551
sg37
(lp2552
g1
(g2
g3
NtRp2553
(dp2554
g6
g1
(g7
g3
NtRp2555
(dp2556
g10
g1
(g11
g12
(dtRp2557
sg14
g1
(g11
g12
(dtRp2558
sg16
g1
(g11
g12
(dtRp2559
sg18
g1
(g11
g12
(dtRp2560
sg20
g1
(g11
g12
(dtRp2561
sg22
g1
(g11
g12
(dtRp2562
sbsg24
S'Pta'
p2563
sg26
g27
((lp2564
g29
ag30
aS'sequence'
p2565
ag32
ag33
aS'species'
p2566
atRp2567
sg37
(lp2568
sg120
g2540
sg121
S'RWLSTKDLYSRLELPGLNQNVHAMFVMPAGFGNPMGDMFARLNNSFWLPPLSLEGAGTGWTVYPPLSHSGPSVDLAFHLTSSLLGGMNFTNMRGPLFWTSLLVLTLPVLAGTLLDRNFNTFEGGDPLYHLFWFFGHPEVYIIPGFGSHSAYKKFGMYASIGLGLVWSHHMYVGLDDRAYFTSATMIAPTGIKFSWLATYGGRPMLAFLFLFTGGSGVLNASDAFHDTYYVMLAFSLGYYPYNLFWFMFGMPDAGFSSSYQLGPDESNE'
p2569
sg123
F0.23080999999999999
sg124
g125
sg33
S'25'
p2570
sg127
g1
(g128
g12
(dp2571
g130
I4
sg131
g132
sg133
g134
sg135
g132
sg136
I01
sg34
g137
sg138
g134
sg139
I0
sg140
I0
sg141
I0
sg142
g134
sg35
g132
sg143
I0
stRp2572
sg145
g146
sg147
F1
sg148
Nsg30
S'PtannA'
p2573
sbag1
(g2
g3
NtRp2574
(dp2575
g6
g1
(g7
g3
NtRp2576
(dp2577
g10
g1
(g11
g12
(dtRp2578
sg14
g1
(g11
g12
(dtRp2579
sg16
g1
(g11
g12
(dtRp2580
sg18
g1
(g11
g12
(dtRp2581
sg20
g1
(g11
g12
(dtRp2582
sg22
g1
(g11
g12
(dtRp2583
sbsg24
g25
sg26
g27
((lp2584
g33
ag32
ag29
ag30
atRp2585
sg37
(lp2586
g1
(g2
g3
NtRp2587
(dp2588
g6
g1
(g7
g3
NtRp2589
(dp2590
g10
g1
(g11
g12
(dtRp2591
sg14
g1
(g11
g12
(dtRp2592
sg16
g1
(g11
g12
(dtRp2593
sg18
g1
(g11
g12
(dtRp2594
sg20
g1
(g11
g12
(dtRp2595
sg22
g1
(g11
g12
(dtRp2596
sbsg24
g25
sg26
g27
((lp2597
g33
ag32
ag29
ag30
atRp2598
sg37
(lp2599
g1
(g2
g3
NtRp2600
(dp2601
g6
g1
(g7
g3
NtRp2602
(dp2603
g10
g1
(g11
g12
(dtRp2604
sg14
g1
(g11
g12
(dtRp2605
sg16
g1
(g11
g12
(dtRp2606
sg18
g1
(g11
g12
(dtRp2607
sg20
g1
(g11
g12
(dtRp2608
sg22
g1
(g11
g12
(dtRp2609
sbsg24
S'Pkl'
p2610
sg26
g27
((lp2611
g29
ag30
aS'sequence'
p2612
ag32
ag33
aS'species'
p2613
atRp2614
sg37
(lp2615
sg120
g2587
sg121
S'RWLSTKDLYSRLELPGLNQNVHAMFMMPTGFGNPMGDMFARLNNSFWLPPLSLEGPGTGWTVYPPLSHSGPSVDLAFHLTSSLLGAMNFTNMRGPLFWTALLVMTLPVLAGTLLDRNFNTFEGGDPLYHLFWFFGHPEVYMMPGFGSHSTYKKFGMYASMGLGLVWSHHMYVGLDDRAYFTSATMMAPTGMKFSWLATYGGRPMLAFMFIFTGGSGVLNASDAFHDTYYVMLAFAMGYYPFNLFWFMFGMPDAGFSASYQLGPDESNE'
p2616
sg123
F0.12625
sg124
g125
sg33
S'19'
p2617
sg127
g1
(g128
g12
(dp2618
g130
I4
sg131
g132
sg133
g134
sg135
g132
sg136
I01
sg34
g137
sg138
g134
sg139
I0
sg140
I0
sg141
I0
sg142
g134
sg35
g132
sg143
I0
stRp2619
sg145
g146
sg147
F1
sg148
Nsg30
S'PkluyA'
p2620
sbag1
(g2
g3
NtRp2621
(dp2622
g6
g1
(g7
g3
NtRp2623
(dp2624
g10
g1
(g11
g12
(dtRp2625
sg14
g1
(g11
g12
(dtRp2626
sg16
g1
(g11
g12
(dtRp2627
sg18
g1
(g11
g12
(dtRp2628
sg20
g1
(g11
g12
(dtRp2629
sg22
g1
(g11
g12
(dtRp2630
sbsg24
S'Bcu'
p2631
sg26
g27
((lp2632
g29
ag30
aS'sequence'
p2633
ag32
ag33
aS'species'
p2634
atRp2635
sg37
(lp2636
sg120
g2587
sg121
S'RWLSTKDLYSRLELPGLDQNVHSMFMMPTGFGNPMGDMFARLNNAFWYPPLSLEGPGTGWTVYPPLSHSGPSMDLAFHLTSSMLSSMNFTNMRGPLFWTALLMMTLPVLAGTLLDRNFNTFEGGDPLYHLYWFFGHPEVYIIPVFGSHSNYKKFGMYASMGLGLVWSHHMYVGLDDRAYFTSATMIAPTGIKFSWLATYGGRPMLAFLFMFTGGSGVLNASDAFHDTYFVVLVYGVGYFPYNMFWFMFGMPDAGFSSAYQLGPDESNE'
p2637
sg123
F0.30854999999999999
sg124
g125
sg33
S'137'
p2638
sg127
g1
(g128
g12
(dp2639
g130
I4
sg131
g132
sg133
g134
sg135
g132
sg136
I01
sg34
g137
sg138
g134
sg139
I0
sg140
I0
sg141
I0
sg142
g134
sg35
g132
sg143
I0
stRp2640
sg145
g146
sg147
F1
sg148
Nsg30
S'BcustA'
p2641
sbasg120
g2574
sg123
F0.19120999999999999
sg124
g125
sg33
S'51'
p2642
sg127
g1
(g128
g12
(dp2643
g130
I8
sg131
g132
sg133
g134
sg135
g132
sg136
I01
sg34
g173
sg138
g134
sg139
I0
sg140
I0
sg141
I0
sg142
g134
sg35
g132
sg143
I0
stRp2644
sg145
g146
sg147
F0.98999999999999999
sg148
Nsg30
S'NoName'
p2645
sbag1
(g2
g3
NtRp2646
(dp2647
g6
g1
(g7
g3
NtRp2648
(dp2649
g10
g1
(g11
g12
(dtRp2650
sg14
g1
(g11
g12
(dtRp2651
sg16
g1
(g11
g12
(dtRp2652
sg18
g1
(g11
g12
(dtRp2653
sg20
g1
(g11
g12
(dtRp2654
sg22
g1
(g11
g12
(dtRp2655
sbsg24
S'Oan'
p2656
sg26
g27
((lp2657
g29
ag30
aS'sequence'
p2658
ag32
ag33
aS'species'
p2659
atRp2660
sg37
(lp2661
sg120
g2574
sg121
S'RWLSTKDLYSRLELPGLNQNAHAMFVMPAGFGNPMGDMFARLNNSFWLPPLSLEGAGTGWTVYPPLSHSGPSVDLAFHLTSSLLGAINFTNMRGPLFWTALLLLSLPVLAGTLLDRNFNTFEGGDPLYHLFWFFGHPEVYIIPGFGSHSTYKKFGMYASIGLGLVWSHHMYVGLDDRAYFTSATMIAPTGIKFSWIATYGGRPMLAFLFLFTGGSGVLNASDAFHDTYYVILAFSLGYYPYNLFWFMFGMPDAGYSSSYQLGPDESNE'
p2662
sg123
F0.025399999999999999
sg124
g125
sg33
S'178'
p2663
sg127
g1
(g128
g12
(dp2664
g130
I4
sg131
g132
sg133
g134
sg135
g132
sg136
I01
sg34
g137
sg138
g134
sg139
I0
sg140
I0
sg141
I0
sg142
g134
sg35
g132
sg143
I0
stRp2665
sg145
g146
sg147
F1
sg148
Nsg30
S'OanguA'
p2666
sbasg120
g2540
sg123
F0.33273999999999998
sg124
g125
sg33
S'30'
p2667
sg127
g1
(g128
g12
(dp2668
g130
I8
sg131
g132
sg133
g134
sg135
g132
sg136
I01
sg34
g173
sg138
g134
sg139
I0
sg140
I0
sg141
I0
sg142
g134
sg35
g132
sg143
I0
stRp2669
sg145
g146
sg147
F0.98999999999999999
sg148
Nsg30
S'NoName'
p2670
sbasg120
g2507
sg123
F0.054379999999999998
sg124
g125
sg33
S'69'
p2671
sg127
g1
(g128
g12
(dp2672
g130
I8
sg131
g132
sg133
g134
sg135
g132
sg136
I01
sg34
g173
sg138
g134
sg139
I0
sg140
I0
sg141
I0
sg142
g134
sg35
g132
sg143
I0
stRp2673
sg145
g146
sg147
F0.96999999999999997
sg148
Nsg30
S'NoName'
p2674
sbasg120
g2494
sg123
F0.76378000000000001
sg124
g125
sg33
S'184'
p2675
sg127
g1
(g128
g12
(dp2676
g130
I8
sg131
g132
sg133
g134
sg135
g132
sg136
I01
sg34
g173
sg138
g134
sg139
I0
sg140
I0
sg141
I0
sg142
g134
sg35
g132
sg143
I0
stRp2677
sg145
g146
sg147
F0.98999999999999999
sg148
Nsg30
S'NoName'
p2678
sbag1
(g2
g3
NtRp2679
(dp2680
g6
g1
(g7
g3
NtRp2681
(dp2682
g10
g1
(g11
g12
(dtRp2683
sg14
g1
(g11
g12
(dtRp2684
sg16
g1
(g11
g12
(dtRp2685
sg18
g1
(g11
g12
(dtRp2686
sg20
g1
(g11
g12
(dtRp2687
sg22
g1
(g11
g12
(dtRp2688
sbsg24
g25
sg26
g27
((lp2689
g33
ag32
ag29
ag30
atRp2690
sg37
(lp2691
g1
(g2
g3
NtRp2692
(dp2693
g6
g1
(g7
g3
NtRp2694
(dp2695
g10
g1
(g11
g12
(dtRp2696
sg14
g1
(g11
g12
(dtRp2697
sg16
g1
(g11
g12
(dtRp2698
sg18
g1
(g11
g12
(dtRp2699
sg20
g1
(g11
g12
(dtRp2700
sg22
g1
(g11
g12
(dtRp2701
sbsg24
g25
sg26
g27
((lp2702
g33
ag32
ag29
ag30
atRp2703
sg37
(lp2704
g1
(g2
g3
NtRp2705
(dp2706
g6
g1
(g7
g3
NtRp2707
(dp2708
g10
g1
(g11
g12
(dtRp2709
sg14
g1
(g11
g12
(dtRp2710
sg16
g1
(g11
g12
(dtRp2711
sg18
g1
(g11
g12
(dtRp2712
sg20
g1
(g11
g12
(dtRp2713
sg22
g1
(g11
g12
(dtRp2714
sbsg24
g25
sg26
g27
((lp2715
g33
ag32
ag29
ag30
atRp2716
sg37
(lp2717
g1
(g2
g3
NtRp2718
(dp2719
g6
g1
(g7
g3
NtRp2720
(dp2721
g10
g1
(g11
g12
(dtRp2722
sg14
g1
(g11
g12
(dtRp2723
sg16
g1
(g11
g12
(dtRp2724
sg18
g1
(g11
g12
(dtRp2725
sg20
g1
(g11
g12
(dtRp2726
sg22
g1
(g11
g12
(dtRp2727
sbsg24
g25
sg26
g27
((lp2728
g33
ag32
ag29
ag30
atRp2729
sg37
(lp2730
g1
(g2
g3
NtRp2731
(dp2732
g6
g1
(g7
g3
NtRp2733
(dp2734
g10
g1
(g11
g12
(dtRp2735
sg14
g1
(g11
g12
(dtRp2736
sg16
g1
(g11
g12
(dtRp2737
sg18
g1
(g11
g12
(dtRp2738
sg20
g1
(g11
g12
(dtRp2739
sg22
g1
(g11
g12
(dtRp2740
sbsg24
S'Cva'
p2741
sg26
g27
((lp2742
g29
ag30
aS'sequence'
p2743
ag32
ag33
aS'species'
p2744
atRp2745
sg37
(lp2746
sg120
g2718
sg121
S'RWLSTKDLYSRLELPGLNQNVHAMFVMPLGFGNPLGDMFARLNNSFWLPPLSLEGAGTGWTIYPPLSHSSPSVDLGFHLTSSLLGAINFTNMRGPLFWTAMLLLSLPVLAGTLLDRNFNTFEGGDPLYHLFWFFGHPEVYIIPGFGSHSTYKKFGMYASIALGFVWSHHMYVGLDDRAYFTSSTMIAPTGIKFSWLATYGGRPMLAFLFLFTGGTGVLNASDAFHDTYYVVMAFSLGYYPYNLFWFMFGMPDAGWSSSYQLGPDESNE'
p2747
sg123
F0.043270000000000003
sg124
g125
sg33
S'162'
p2748
sg127
g1
(g128
g12
(dp2749
g130
I4
sg131
g132
sg133
g134
sg135
g132
sg136
I01
sg34
g137
sg138
g134
sg139
I0
sg140
I0
sg141
I0
sg142
g134
sg35
g132
sg143
I0
stRp2750
sg145
g146
sg147
F1
sg148
Nsg30
S'CvartA'
p2751
sbag1
(g2
g3
NtRp2752
(dp2753
g6
g1
(g7
g3
NtRp2754
(dp2755
g10
g1
(g11
g12
(dtRp2756
sg14
g1
(g11
g12
(dtRp2757
sg16
g1
(g11
g12
(dtRp2758
sg18
g1
(g11
g12
(dtRp2759
sg20
g1
(g11
g12
(dtRp2760
sg22
g1
(g11
g12
(dtRp2761
sbsg24
g25
sg26
g27
((lp2762
g33
ag32
ag29
ag30
atRp2763
sg37
(lp2764
g1
(g2
g3
NtRp2765
(dp2766
g6
g1
(g7
g3
NtRp2767
(dp2768
g10
g1
(g11
g12
(dtRp2769
sg14
g1
(g11
g12
(dtRp2770
sg16
g1
(g11
g12
(dtRp2771
sg18
g1
(g11
g12
(dtRp2772
sg20
g1
(g11
g12
(dtRp2773
sg22
g1
(g11
g12
(dtRp2774
sbsg24
S'Csu'
p2775
sg26
g27
((lp2776
g29
ag30
aS'sequence'
p2777
ag32
ag33
aS'species'
p2778
atRp2779
sg37
(lp2780
sg120
g2752
sg121
S'RWLSTKDLYSRLELPGLNQNVHAMFVMPLGFGNPLGDMFARLNNSFWLPPLSLEGAGTGWTIYPPLSHSSPSVDLGFHLTSSMLGAINFTNMRGPLFWTAMLLLSLPVLAGTLLDRNFNTFEGGDPLYHLFWFFGHPEVYIIPGFGSHSTYKKFGMYASIALGFVWSHHMYVGLDDRAYFTSSTMIAPTGIKFSWLATYGGRPMLAFLFLFTGGTGVLNASDAFHDSYYY-MAFSLGYYPYNLFWFMFGMPDAGWSSSYQLGPDESNE'
p2781
sg123
F0.0043699999999999998
sg124
g125
sg33
S'130'
p2782
sg127
g1
(g128
g12
(dp2783
g130
I4
sg131
g132
sg133
g134
sg135
g132
sg136
I01
sg34
g137
sg138
g134
sg139
I0
sg140
I0
sg141
I0
sg142
g134
sg35
g132
sg143
I0
stRp2784
sg145
g146
sg147
F1
sg148
Nsg30
S'CsuavB'
p2785
sbag1
(g2
g3
NtRp2786
(dp2787
g6
g1
(g7
g3
NtRp2788
(dp2789
g10
g1
(g11
g12
(dtRp2790
sg14
g1
(g11
g12
(dtRp2791
sg16
g1
(g11
g12
(dtRp2792
sg18
g1
(g11
g12
(dtRp2793
sg20
g1
(g11
g12
(dtRp2794
sg22
g1
(g11
g12
(dtRp2795
sbsg24
S'Csu'
p2796
sg26
g27
((lp2797
g29
ag30
aS'sequence'
p2798
ag32
ag33
aS'species'
p2799
atRp2800
sg37
(lp2801
sg120
g2752
sg121
S'RWLSTKDLYSRLELPGLNQNVHAMFVMPLGFGNPLGDMFARLNNSFWLPPLSLEGAGTGWTIYPPLSHSSPSVDLGFHLTSSLLGAINFTNMRGPLFWTAMLLLSLPVLAGTLLDRNFNTFEGGDPLYHLFWFFGHPEVYIIPGFGSHSTYKKFGMYASIALGFVWSHHMYVGLDDRAYFTSSTMIAPTGIKFSWLATYGGRPMLAFLFLFTGGTGVLNASDAFHDTYYVVMAFSLGYYPYNLFWFMFGMPDAGWSSSYQLGPDESNE'
p2802
sg123
F0.0025999999999999999
sg124
g125
sg33
S'110'
p2803
sg127
g1
(g128
g12
(dp2804
g130
I4
sg131
g132
sg133
g134
sg135
g132
sg136
I01
sg34
g137
sg138
g134
sg139
I0
sg140
I0
sg141
I0
sg142
g134
sg35
g132
sg143
I0
stRp2805
sg145
g146
sg147
F1
sg148
Nsg30
S'CsuavA'
p2806
sbasg120
g2718
sg123
F0.016740000000000001
sg124
g125
sg33
S'99'
p2807
sg127
g1
(g128
g12
(dp2808
g130
I8
sg131
g132
sg133
g134
sg135
g132
sg136
I01
sg34
g173
sg138
g134
sg139
I0
sg140
I0
sg141
I0
sg142
g134
sg35
g132
sg143
I0
stRp2809
sg145
g146
sg147
F0.98999999999999999
sg148
Nsg30
S'NoName'
p2810
sbasg120
g2705
sg123
F0.01158
sg124
g125
sg33
S'23'
p2811
sg127
g1
(g128
g12
(dp2812
g130
I8
sg131
g132
sg133
g134
sg135
g132
sg136
I01
sg34
g173
sg138
g134
sg139
I0
sg140
I0
sg141
I0
sg142
g134
sg35
g132
sg143
I0
stRp2813
sg145
g146
sg147
F0.97999999999999998
sg148
Nsg30
S'NoName'
p2814
sbag1
(g2
g3
NtRp2815
(dp2816
g6
g1
(g7
g3
NtRp2817
(dp2818
g10
g1
(g11
g12
(dtRp2819
sg14
g1
(g11
g12
(dtRp2820
sg16
g1
(g11
g12
(dtRp2821
sg18
g1
(g11
g12
(dtRp2822
sg20
g1
(g11
g12
(dtRp2823
sg22
g1
(g11
g12
(dtRp2824
sbsg24
S'Cja'
p2825
sg26
g27
((lp2826
g29
ag30
aS'sequence'
p2827
ag32
ag33
aS'species'
p2828
atRp2829
sg37
(lp2830
sg120
g2705
sg121
S'RWLSTKDLYSRLELPGLNQNVHAMFVMPLGFGNPLGDMFARLNNSFWLPPLSLEGAGTGWTIYPPLAHSSPSVDLGFHLTSSLLGAINFTNMRGPLFWTAMLLLSLPVLAGTLLDRNFNTFEGGDPLYHLFWFFGHPEVYIIPGFGSHSTYKKFGMYASIALGFVWSHHMYVGLDDRAYFTSSTMIAPTGIKFSWLATYGGRPMLAFLFLFTGGTGVLNASDAFHDTYYVVMAFSLGYYPYNLFWFMFGMPDAGWSSSYQLGPDESNE'
p2831
sg123
F0.033799999999999997
sg124
g125
sg33
S'167'
p2832
sg127
g1
(g128
g12
(dp2833
g130
I4
sg131
g132
sg133
g134
sg135
g132
sg136
I01
sg34
g137
sg138
g134
sg139
I0
sg140
I0
sg141
I0
sg142
g134
sg35
g132
sg143
I0
stRp2834
sg145
g146
sg147
F1
sg148
Nsg30
S'CjadiA'
p2835
sbasg120
g2692
sg123
F0.10375
sg124
g125
sg33
S'195'
p2836
sg127
g1
(g128
g12
(dp2837
g130
I8
sg131
g132
sg133
g134
sg135
g132
sg136
I01
sg34
g173
sg138
g134
sg139
I0
sg140
I0
sg141
I0
sg142
g134
sg35
g132
sg143
I0
stRp2838
sg145
g146
sg147
F0.98999999999999999
sg148
Nsg30
S'NoName'
p2839
sbag1
(g2
g3
NtRp2840
(dp2841
g6
g1
(g7
g3
NtRp2842
(dp2843
g10
g1
(g11
g12
(dtRp2844
sg14
g1
(g11
g12
(dtRp2845
sg16
g1
(g11
g12
(dtRp2846
sg18
g1
(g11
g12
(dtRp2847
sg20
g1
(g11
g12
(dtRp2848
sg22
g1
(g11
g12
(dtRp2849
sbsg24
g25
sg26
g27
((lp2850
g33
ag32
ag29
ag30
atRp2851
sg37
(lp2852
g1
(g2
g3
NtRp2853
(dp2854
g6
g1
(g7
g3
NtRp2855
(dp2856
g10
g1
(g11
g12
(dtRp2857
sg14
g1
(g11
g12
(dtRp2858
sg16
g1
(g11
g12
(dtRp2859
sg18
g1
(g11
g12
(dtRp2860
sg20
g1
(g11
g12
(dtRp2861
sg22
g1
(g11
g12
(dtRp2862
sbsg24
g25
sg26
g27
((lp2863
g33
ag32
ag29
ag30
atRp2864
sg37
(lp2865
g1
(g2
g3
NtRp2866
(dp2867
g6
g1
(g7
g3
NtRp2868
(dp2869
g10
g1
(g11
g12
(dtRp2870
sg14
g1
(g11
g12
(dtRp2871
sg16
g1
(g11
g12
(dtRp2872
sg18
g1
(g11
g12
(dtRp2873
sg20
g1
(g11
g12
(dtRp2874
sg22
g1
(g11
g12
(dtRp2875
sbsg24
S'Wpi'
p2876
sg26
g27
((lp2877
g29
ag30
aS'sequence'
p2878
ag32
ag33
aS'species'
p2879
atRp2880
sg37
(lp2881
sg120
g2853
sg121
S'RWLSTKDLYSRLELPGLNQNVHAMFVMPLGFGNPLGDMFARLNNSFWLPPLSLEGAGTGWTIYPPLSHSSPSVDLGFHLTSSLLGAINFTNMRGPLFWTAMLLLSLPVLAGTLLDRNFNTFEGGDPLYHLFWFFGHPEVYIIPGFGSHSTYKKFGMYASIALGFVWSHHMYVGLDDRAYFTSSTMIAPTGIKFSWLATYGGRPMLAFLFLFTGGTGVLNASDAFHDTYYVVMAFSLGYYPYNLFWFMFGMPDAGWSSSFQLGPDESNE'
p2882
sg123
F0.051209999999999999
sg124
g125
sg33
S'34'
p2883
sg127
g1
(g128
g12
(dp2884
g130
I4
sg131
g132
sg133
g134
sg135
g132
sg136
I01
sg34
g137
sg138
g134
sg139
I0
sg140
I0
sg141
I0
sg142
g134
sg35
g132
sg143
I0
stRp2885
sg145
g146
sg147
F1
sg148
Nsg30
S'WpijpA'
p2886
sbag1
(g2
g3
NtRp2887
(dp2888
g6
g1
(g7
g3
NtRp2889
(dp2890
g10
g1
(g11
g12
(dtRp2891
sg14
g1
(g11
g12
(dtRp2892
sg16
g1
(g11
g12
(dtRp2893
sg18
g1
(g11
g12
(dtRp2894
sg20
g1
(g11
g12
(dtRp2895
sg22
g1
(g11
g12
(dtRp2896
sbsg24
S'Wmu'
p2897
sg26
g27
((lp2898
g29
ag30
aS'sequence'
p2899
ag32
ag33
aS'species'
p2900
atRp2901
sg37
(lp2902
sg120
g2853
sg121
S'RWLSTKDLYSRLELPGLNQNVHAMFVMPLGFGNPLGDMFARLNNSFWLPPLSLEGAGTGWTIYPPLAHSSPSVDLGFHLTSSLLGAINFTNMRGPLFWTAMLLLSLPVLAGTLLDRNFNTFEGGDPLYHLFWFFGHPEVYIIPGFGSHSTYKKFGMYASIALGFVWSHHMYVGLDDRAYFTSSTMIAPTGIKFSWLATYGGRPMLAFLFLFTGGTGVLNASDAFHDTYYVVMAFSLGYYPYNLFWFMFGMPDAGWSSSYQLGPDESNE'
p2903
sg123
F0.079170000000000004
sg124
g125
sg33
S'45'
p2904
sg127
g1
(g128
g12
(dp2905
g130
I4
sg131
g132
sg133
g134
sg135
g132
sg136
I01
sg34
g137
sg138
g134
sg139
I0
sg140
I0
sg141
I0
sg142
g134
sg35
g132
sg143
I0
stRp2906
sg145
g146
sg147
F1
sg148
Nsg30
S'WmucoA'
p2907
sbasg120
g2840
sg123
F0.14757000000000001
sg124
g125
sg33
S'211'
p2908
sg127
g1
(g128
g12
(dp2909
g130
I8
sg131
g132
sg133
g134
sg135
g132
sg136
I01
sg34
g173
sg138
g134
sg139
I0
sg140
I0
sg141
I0
sg142
g134
sg35
g132
sg143
I0
stRp2910
sg145
g146
sg147
F0.98999999999999999
sg148
Nsg30
S'NoName'
p2911
sbag1
(g2
g3
NtRp2912
(dp2913
g6
g1
(g7
g3
NtRp2914
(dp2915
g10
g1
(g11
g12
(dtRp2916
sg14
g1
(g11
g12
(dtRp2917
sg16
g1
(g11
g12
(dtRp2918
sg18
g1
(g11
g12
(dtRp2919
sg20
g1
(g11
g12
(dtRp2920
sg22
g1
(g11
g12
(dtRp2921
sbsg24
g25
sg26
g27
((lp2922
g33
ag32
ag29
ag30
atRp2923
sg37
(lp2924
g1
(g2
g3
NtRp2925
(dp2926
g6
g1
(g7
g3
NtRp2927
(dp2928
g10
g1
(g11
g12
(dtRp2929
sg14
g1
(g11
g12
(dtRp2930
sg16
g1
(g11
g12
(dtRp2931
sg18
g1
(g11
g12
(dtRp2932
sg20
g1
(g11
g12
(dtRp2933
sg22
g1
(g11
g12
(dtRp2934
sbsg24
S'Pca'
p2935
sg26
g27
((lp2936
g29
ag30
aS'sequence'
p2937
ag32
ag33
aS'species'
p2938
atRp2939
sg37
(lp2940
sg120
g2912
sg121
S'RWLSTKDLYSRLELPGLNQNVHAMFVMPLGFGNPLGDMFARLNNSFWLPPLSLEWAGTGWTIYPPLSHSSPSVDLGFHLTSSLLGAINFTNMRGPLFWTAMLLLSLPVLAGTLLDRNFNTFEGGDPLYHLFWFFGHPEVYIIPGFGSHSTYKKFGMYASIALGFVWSHHMYVGLDDRAYFTSSTMIAPTGIKFSWLATYGGRPMLAFLFLFTGGTGVLNASDAFHDTYYVVMAFSLGYYPFNLFWFMFGMPDAGWSSSYQLGPDESNE'
p2941
sg123
F0.10655000000000001
sg124
g125
sg33
S'113'
p2942
sg127
g1
(g128
g12
(dp2943
g130
I4
sg131
g132
sg133
g134
sg135
g132
sg136
I01
sg34
g137
sg138
g134
sg139
I0
sg140
I0
sg141
I0
sg142
g134
sg35
g132
sg143
I0
stRp2944
sg145
g146
sg147
F1
sg148
Nsg30
S'PcanaA'
p2945
sbag1
(g2
g3
NtRp2946
(dp2947
g6
g1
(g7
g3
NtRp2948
(dp2949
g10
g1
(g11
g12
(dtRp2950
sg14
g1
(g11
g12
(dtRp2951
sg16
g1
(g11
g12
(dtRp2952
sg18
g1
(g11
g12
(dtRp2953
sg20
g1
(g11
g12
(dtRp2954
sg22
g1
(g11
g12
(dtRp2955
sbsg24
g25
sg26
g27
((lp2956
g33
ag32
ag29
ag30
atRp2957
sg37
(lp2958
g1
(g2
g3
NtRp2959
(dp2960
g6
g1
(g7
g3
NtRp2961
(dp2962
g10
g1
(g11
g12
(dtRp2963
sg14
g1
(g11
g12
(dtRp2964
sg16
g1
(g11
g12
(dtRp2965
sg18
g1
(g11
g12
(dtRp2966
sg20
g1
(g11
g12
(dtRp2967
sg22
g1
(g11
g12
(dtRp2968
sbsg24
S'Cno'
p2969
sg26
g27
((lp2970
g29
ag30
aS'sequence'
p2971
ag32
ag33
aS'species'
p2972
atRp2973
sg37
(lp2974
sg120
g2946
sg121
S'RWLSTKDLYSRLELPGLNQNVHAMFVMPLGFGNPLGDMFARLNNSFWLPPLSLEGAGTGWTIYPPLSHSSPSVDLGFHLTSSLLGAMNFTNMRGPLFWTAMLLLSLPVLAGTLLDRNFNTFEGGDPLYHLFWFFGHPEVYMIPGFGSHSTYKKFGMYASMALGFVWSHHMYVGLDDRAYFTSSTMMAPTGMKFSWLATYGGRPMLAFLFLFTGGTGVLNASDAFHDTYYVVMAFSLGYYPYNLFWFMFGMPDAGWSSSYQLGPDESNE'
p2975
sg123
F0.059069999999999998
sg124
g125
sg33
S'84'
p2976
sg127
g1
(g128
g12
(dp2977
g130
I4
sg131
g132
sg133
g134
sg135
g132
sg136
I01
sg34
g137
sg138
g134
sg139
I0
sg140
I0
sg141
I0
sg142
g134
sg35
g132
sg143
I0
stRp2978
sg145
g146
sg147
F1
sg148
Nsg30
S'CnorvA'
p2979
sbag1
(g2
g3
NtRp2980
(dp2981
g6
g1
(g7
g3
NtRp2982
(dp2983
g10
g1
(g11
g12
(dtRp2984
sg14
g1
(g11
g12
(dtRp2985
sg16
g1
(g11
g12
(dtRp2986
sg18
g1
(g11
g12
(dtRp2987
sg20
g1
(g11
g12
(dtRp2988
sg22
g1
(g11
g12
(dtRp2989
sbsg24
S'Bca'
p2990
sg26
g27
((lp2991
g29
ag30
aS'sequence'
p2992
ag32
ag33
aS'species'
p2993
atRp2994
sg37
(lp2995
sg120
g2946
sg121
S'RWLSTKDLYSRLELPGLNQNVHAMFVMPLGFGNPLGDMFARLNNSFWLPPLSLEGAGTGWTIYPPLSHSSPSVDLGFHLTSSLLGAINFTNMRGPLFWTAMLLLSLPVLAGTLLDRNFNTFEGGDPLYHLFWFFGHPEVYIMPGFGSHSTYKKFGMYASIALGFVWSHHMYVGLDDRAYFTSSTMIAPTGIKFSWLATYGGRPMLAFLFLFTGGTGVLNASDAFHDTYYVVMAFSLGYYPYNLFWFMFGMPDAGWSSSYQLGPDESNE'
p2996
sg123
F0.031899999999999998
sg124
g125
sg33
S'125'
p2997
sg127
g1
(g128
g12
(dp2998
g130
I4
sg131
g132
sg133
g134
sg135
g132
sg136
I01
sg34
g137
sg138
g134
sg139
I0
sg140
I0
sg141
I0
sg142
g134
sg35
g132
sg143
I0
stRp2999
sg145
g146
sg147
F1
sg148
Nsg30
S'BcaliA'
p3000
sbasg120
g2912
sg123
F0.09486
sg124
g125
sg33
S'61'
p3001
sg127
g1
(g128
g12
(dp3002
g130
I8
sg131
g132
sg133
g134
sg135
g132
sg136
I01
sg34
g173
sg138
g134
sg139
I0
sg140
I0
sg141
I0
sg142
g134
sg35
g132
sg143
I0
stRp3003
sg145
g146
sg147
F0.97999999999999998
sg148
Nsg30
S'NoName'
p3004
sbasg120
g2840
sg123
F0.054690000000000003
sg124
g125
sg33
S'52'
p3005
sg127
g1
(g128
g12
(dp3006
g130
I8
sg131
g132
sg133
g134
sg135
g132
sg136
I01
sg34
g173
sg138
g134
sg139
I0
sg140
I0
sg141
I0
sg142
g134
sg35
g132
sg143
I0
stRp3007
sg145
g146
sg147
F0.96999999999999997
sg148
Nsg30
S'NoName'
p3008
sbasg120
g2692
sg123
F0.051860000000000003
sg124
g125
sg33
S'120'
p3009
sg127
g1
(g128
g12
(dp3010
g130
I8
sg131
g132
sg133
g134
sg135
g132
sg136
I01
sg34
g173
sg138
g134
sg139
I0
sg140
I0
sg141
I0
sg142
g134
sg35
g132
sg143
I0
stRp3011
sg145
g146
sg147
F0.96999999999999997
sg148
Nsg30
S'NoName'
p3012
sbasg120
g2679
sg123
F0.52095999999999998
sg124
g125
sg33
S'28'
p3013
sg127
g1
(g128
g12
(dp3014
g130
I8
sg131
g132
sg133
g134
sg135
g132
sg136
I01
sg34
g173
sg138
g134
sg139
I0
sg140
I0
sg141
I0
sg142
g134
sg35
g132
sg143
I0
stRp3015
sg145
g146
sg147
F0.98999999999999999
sg148
Nsg30
S'NoName'
p3016
sbag1
(g2
g3
NtRp3017
(dp3018
g6
g1
(g7
g3
NtRp3019
(dp3020
g10
g1
(g11
g12
(dtRp3021
sg14
g1
(g11
g12
(dtRp3022
sg16
g1
(g11
g12
(dtRp3023
sg18
g1
(g11
g12
(dtRp3024
sg20
g1
(g11
g12
(dtRp3025
sg22
g1
(g11
g12
(dtRp3026
sbsg24
g25
sg26
g27
((lp3027
g33
ag32
ag29
ag30
atRp3028
sg37
(lp3029
g1
(g2
g3
NtRp3030
(dp3031
g6
g1
(g7
g3
NtRp3032
(dp3033
g10
g1
(g11
g12
(dtRp3034
sg14
g1
(g11
g12
(dtRp3035
sg16
g1
(g11
g12
(dtRp3036
sg18
g1
(g11
g12
(dtRp3037
sg20
g1
(g11
g12
(dtRp3038
sg22
g1
(g11
g12
(dtRp3039
sbsg24
g25
sg26
g27
((lp3040
g33
ag32
ag29
ag30
atRp3041
sg37
(lp3042
g1
(g2
g3
NtRp3043
(dp3044
g6
g1
(g7
g3
NtRp3045
(dp3046
g10
g1
(g11
g12
(dtRp3047
sg14
g1
(g11
g12
(dtRp3048
sg16
g1
(g11
g12
(dtRp3049
sg18
g1
(g11
g12
(dtRp3050
sg20
g1
(g11
g12
(dtRp3051
sg22
g1
(g11
g12
(dtRp3052
sbsg24
g25
sg26
g27
((lp3053
g33
ag32
ag29
ag30
atRp3054
sg37
(lp3055
g1
(g2
g3
NtRp3056
(dp3057
g6
g1
(g7
g3
NtRp3058
(dp3059
g10
g1
(g11
g12
(dtRp3060
sg14
g1
(g11
g12
(dtRp3061
sg16
g1
(g11
g12
(dtRp3062
sg18
g1
(g11
g12
(dtRp3063
sg20
g1
(g11
g12
(dtRp3064
sg22
g1
(g11
g12
(dtRp3065
sbsg24
g25
sg26
g27
((lp3066
g33
ag32
ag29
ag30
atRp3067
sg37
(lp3068
g1
(g2
g3
NtRp3069
(dp3070
g6
g1
(g7
g3
NtRp3071
(dp3072
g10
g1
(g11
g12
(dtRp3073
sg14
g1
(g11
g12
(dtRp3074
sg16
g1
(g11
g12
(dtRp3075
sg18
g1
(g11
g12
(dtRp3076
sg20
g1
(g11
g12
(dtRp3077
sg22
g1
(g11
g12
(dtRp3078
sbsg24
g25
sg26
g27
((lp3079
g33
ag32
ag29
ag30
atRp3080
sg37
(lp3081
g1
(g2
g3
NtRp3082
(dp3083
g6
g1
(g7
g3
NtRp3084
(dp3085
g10
g1
(g11
g12
(dtRp3086
sg14
g1
(g11
g12
(dtRp3087
sg16
g1
(g11
g12
(dtRp3088
sg18
g1
(g11
g12
(dtRp3089
sg20
g1
(g11
g12
(dtRp3090
sg22
g1
(g11
g12
(dtRp3091
sbsg24
g25
sg26
g27
((lp3092
g33
ag32
ag29
ag30
atRp3093
sg37
(lp3094
g1
(g2
g3
NtRp3095
(dp3096
g6
g1
(g7
g3
NtRp3097
(dp3098
g10
g1
(g11
g12
(dtRp3099
sg14
g1
(g11
g12
(dtRp3100
sg16
g1
(g11
g12
(dtRp3101
sg18
g1
(g11
g12
(dtRp3102
sg20
g1
(g11
g12
(dtRp3103
sg22
g1
(g11
g12
(dtRp3104
sbsg24
S'Lkl'
p3105
sg26
g27
((lp3106
g29
ag30
aS'sequence'
p3107
ag32
ag33
aS'species'
p3108
atRp3109
sg37
(lp3110
sg120
g3082
sg121
S'RWLSTKDLYSRLELPGLNQNVHAMFVMPLGFGNPMGDMFARLNNSFWLPPLSLEGAGTGWTVYPPLSHSGPSVDLAFHLTSSLLGAINFTNMRGPLFWTALLLLSLPVLAGTLLDRNFNTFEGGDPLYHLFWFFGHPEVYIIPGFGSHSTYKKFGMYASIGLGFVWSHHMYVGLDDRAYFLSATMIAPTGIKFSWLATYGGRPMLAFLFLFTGGTGVLNASDAFHDLYYVVMAFSLGYYPYNLFWFMFGMPDAGWSSSYQLGPDESNE'
p3111
sg123
F0.00044999999999999999
sg124
g125
sg33
S'183'
p3112
sg127
g1
(g128
g12
(dp3113
g130
I4
sg131
g132
sg133
g134
sg135
g132
sg136
I01
sg34
g137
sg138
g134
sg139
I0
sg140
I0
sg141
I0
sg142
g134
sg35
g132
sg143
I0
stRp3114
sg145
g146
sg147
F1
sg148
Nsg30
S'LkluyE'
p3115
sbag1
(g2
g3
NtRp3116
(dp3117
g6
g1
(g7
g3
NtRp3118
(dp3119
g10
g1
(g11
g12
(dtRp3120
sg14
g1
(g11
g12
(dtRp3121
sg16
g1
(g11
g12
(dtRp3122
sg18
g1
(g11
g12
(dtRp3123
sg20
g1
(g11
g12
(dtRp3124
sg22
g1
(g11
g12
(dtRp3125
sbsg24
S'Lkl'
p3126
sg26
g27
((lp3127
g29
ag30
aS'sequence'
p3128
ag32
ag33
aS'species'
p3129
atRp3130
sg37
(lp3131
sg120
g3082
sg121
S'RWLSTKDLYSRLELPGLNQNVHAMFVMPLGFGNPMGDMFARLNNSFWLPPLSLEGAGTGWTVYPPLSHSGPSVDLAFHLTSSLLGAINFTNMRGPLFWTALLLLSLPVLAGTLLDRNFNTFEGGDPLYHLFWFFGHPEVYIIPGFGSHSTYKKFGMYASIGLGFVWSHHMYVGLDDRAYFLSATMIAPTGIKFSWLATYGGRPMLAFLFLFTGGTGVLNASDAFHDLYYVVMAFSLGYYPYNLFWFMFGMPDAGWSSSYQLGPDESNE'
p3132
sg123
F0.0077400000000000004
sg124
g125
sg33
S'145'
p3133
sg127
g1
(g128
g12
(dp3134
g130
I4
sg131
g132
sg133
g134
sg135
g132
sg136
I01
sg34
g137
sg138
g134
sg139
I0
sg140
I0
sg141
I0
sg142
g134
sg35
g132
sg143
I0
stRp3135
sg145
g146
sg147
F1
sg148
Nsg30
S'LkluyD'
p3136
sbasg120
g3069
sg123
F0.0017099999999999999
sg124
g125
sg33
S'159'
p3137
sg127
g1
(g128
g12
(dp3138
g130
I8
sg131
g132
sg133
g134
sg135
g132
sg136
I01
sg34
g173
sg138
g134
sg139
I0
sg140
I0
sg141
I0
sg142
g134
sg35
g132
sg143
I0
stRp3139
sg145
g146
sg147
F0.56000000000000005
sg148
Nsg30
S'NoName'
p3140
sbag1
(g2
g3
NtRp3141
(dp3142
g6
g1
(g7
g3
NtRp3143
(dp3144
g10
g1
(g11
g12
(dtRp3145
sg14
g1
(g11
g12
(dtRp3146
sg16
g1
(g11
g12
(dtRp3147
sg18
g1
(g11
g12
(dtRp3148
sg20
g1
(g11
g12
(dtRp3149
sg22
g1
(g11
g12
(dtRp3150
sbsg24
g25
sg26
g27
((lp3151
g33
ag32
ag29
ag30
atRp3152
sg37
(lp3153
g1
(g2
g3
NtRp3154
(dp3155
g6
g1
(g7
g3
NtRp3156
(dp3157
g10
g1
(g11
g12
(dtRp3158
sg14
g1
(g11
g12
(dtRp3159
sg16
g1
(g11
g12
(dtRp3160
sg18
g1
(g11
g12
(dtRp3161
sg20
g1
(g11
g12
(dtRp3162
sg22
g1
(g11
g12
(dtRp3163
sbsg24
g25
sg26
g27
((lp3164
g33
ag32
ag29
ag30
atRp3165
sg37
(lp3166
g1
(g2
g3
NtRp3167
(dp3168
g6
g1
(g7
g3
NtRp3169
(dp3170
g10
g1
(g11
g12
(dtRp3171
sg14
g1
(g11
g12
(dtRp3172
sg16
g1
(g11
g12
(dtRp3173
sg18
g1
(g11
g12
(dtRp3174
sg20
g1
(g11
g12
(dtRp3175
sg22
g1
(g11
g12
(dtRp3176
sbsg24
g25
sg26
g27
((lp3177
g33
ag32
ag29
ag30
atRp3178
sg37
(lp3179
g1
(g2
g3
NtRp3180
(dp3181
g6
g1
(g7
g3
NtRp3182
(dp3183
g10
g1
(g11
g12
(dtRp3184
sg14
g1
(g11
g12
(dtRp3185
sg16
g1
(g11
g12
(dtRp3186
sg18
g1
(g11
g12
(dtRp3187
sg20
g1
(g11
g12
(dtRp3188
sg22
g1
(g11
g12
(dtRp3189
sbsg24
S'Lkl'
p3190
sg26
g27
((lp3191
g29
ag30
aS'sequence'
p3192
ag32
ag33
aS'species'
p3193
atRp3194
sg37
(lp3195
sg120
g3167
sg121
S'RWLSTKDLYSRLELPGLNQNVHAMFVMPLGFGNPMGDMFARLNNSFWLPPLSLEGAGTGWTVYPPLSHSGPSVDLAFHLTSSLLGAINFTNMRGPLFWTALLLLSLPVLAGTLLDRNFNTFEGGDPLYHLFWFFGHPEVYIIPGFGSHSTYKKFGMYASIGLGFVWSHHMYVGLDDRAYFLSATMIAPTGIKFSWLATYGGRPMLAFLFLFTGGTGVLNASDAFHDLYYVVMAFSLGYYPYNLFWFMFGMPDAGWSSSYQLGPDESNE'
p3196
sg123
F0.00038999999999999999
sg124
g125
sg33
S'213'
p3197
sg127
g1
(g128
g12
(dp3198
g130
I4
sg131
g132
sg133
g134
sg135
g132
sg136
I01
sg34
g137
sg138
g134
sg139
I0
sg140
I0
sg141
I0
sg142
g134
sg35
g132
sg143
I0
stRp3199
sg145
g146
sg147
F1
sg148
Nsg30
S'LkluyF'
p3200
sbag1
(g2
g3
NtRp3201
(dp3202
g6
g1
(g7
g3
NtRp3203
(dp3204
g10
g1
(g11
g12
(dtRp3205
sg14
g1
(g11
g12
(dtRp3206
sg16
g1
(g11
g12
(dtRp3207
sg18
g1
(g11
g12
(dtRp3208
sg20
g1
(g11
g12
(dtRp3209
sg22
g1
(g11
g12
(dtRp3210
sbsg24
S'Lkl'
p3211
sg26
g27
((lp3212
g29
ag30
aS'sequence'
p3213
ag32
ag33
aS'species'
p3214
atRp3215
sg37
(lp3216
sg120
g3167
sg121
S'RWLSTKDLYSRLELPGLNQNVHAMFVMPLGFGNPMGDMFARLNNSFWLPPLSLEGAGTGWTVYPPLSHSGPSVDLAFHLTSSLLGAINFTNMRGPLFWTALLLLSLPVLAGTLLDRNFNTFEGGDPLYHLFWFFGHPEVYIIPGFGSHSTYKKFGMYASIGLGFVWSHHMYVGLDDRAYFLSATMIAPTGIKFSWLATYGGRPMLAFLFLFTGGTGVLNASDAFHDLYYVVMAFSLGYYPYNLFWFMFGMPDAGWSSSYQLGPDESNE'
p3217
sg123
F0.00038000000000000002
sg124
g125
sg33
S'191'
p3218
sg127
g1
(g128
g12
(dp3219
g130
I4
sg131
g132
sg133
g134
sg135
g132
sg136
I01
sg34
g137
sg138
g134
sg139
I0
sg140
I0
sg141
I0
sg142
g134
sg35
g132
sg143
I0
stRp3220
sg145
g146
sg147
F1
sg148
Nsg30
S'LkluyC'
p3221
sbasg120
g3154
sg123
F1.0000000000000001e-05
sg124
g125
sg33
S'216'
p3222
sg127
g1
(g128
g12
(dp3223
g130
I8
sg131
g132
sg133
g134
sg135
g132
sg136
I01
sg34
g173
sg138
g134
sg139
I0
sg140
I0
sg141
I0
sg142
g134
sg35
g132
sg143
I0
stRp3224
sg145
g146
sg147
F1
sg148
Nsg30
S'NoName'
p3225
sbag1
(g2
g3
NtRp3226
(dp3227
g6
g1
(g7
g3
NtRp3228
(dp3229
g10
g1
(g11
g12
(dtRp3230
sg14
g1
(g11
g12
(dtRp3231
sg16
g1
(g11
g12
(dtRp3232
sg18
g1
(g11
g12
(dtRp3233
sg20
g1
(g11
g12
(dtRp3234
sg22
g1
(g11
g12
(dtRp3235
sbsg24
S'Lkl'
p3236
sg26
g27
((lp3237
g29
ag30
aS'sequence'
p3238
ag32
ag33
aS'species'
p3239
atRp3240
sg37
(lp3241
sg120
g3154
sg121
S'RWLSTKDLYSRLELPGLNQNVHAMFVMPLGFGNPMGDMFARLNNSFWLPPLSLEGAGTGWTVYPPLSHSGPSVDLAFHLTSSLLGAINFTNMRGPLFWTALLLLSLPVLAGTLLDRNFNTFEGGDPLYHLFWFFGHPEVYIIPGFGSHSTYKKFGMYASIGLGFVWSHHMYVGLDDRAYFLSATMIAPTGIKFSWLATYGGRPMLAFLFLFTGGTGVLNASDAFHDLYYVVMAFSLGYYPYNLFWFMFGMPDAGWSSSYQLGPDESNE'
p3242
sg123
F0.00040999999999999999
sg124
g125
sg33
S'165'
p3243
sg127
g1
(g128
g12
(dp3244
g130
I4
sg131
g132
sg133
g134
sg135
g132
sg136
I01
sg34
g137
sg138
g134
sg139
I0
sg140
I0
sg141
I0
sg142
g134
sg35
g132
sg143
I0
stRp3245
sg145
g146
sg147
F1
sg148
Nsg30
S'LkluyB'
p3246
sbasg120
g3141
sg123
F1.0000000000000001e-05
sg124
g125
sg33
S'157'
p3247
sg127
g1
(g128
g12
(dp3248
g130
I8
sg131
g132
sg133
g134
sg135
g132
sg136
I01
sg34
g173
sg138
g134
sg139
I0
sg140
I0
sg141
I0
sg142
g134
sg35
g132
sg143
I0
stRp3249
sg145
g146
sg147
F1
sg148
Nsg30
S'NoName'
p3250
sbag1
(g2
g3
NtRp3251
(dp3252
g6
g1
(g7
g3
NtRp3253
(dp3254
g10
g1
(g11
g12
(dtRp3255
sg14
g1
(g11
g12
(dtRp3256
sg16
g1
(g11
g12
(dtRp3257
sg18
g1
(g11
g12
(dtRp3258
sg20
g1
(g11
g12
(dtRp3259
sg22
g1
(g11
g12
(dtRp3260
sbsg24
S'Lkl'
p3261
sg26
g27
((lp3262
g29
ag30
aS'sequence'
p3263
ag32
ag33
aS'species'
p3264
atRp3265
sg37
(lp3266
sg120
g3141
sg121
S'RWLSTKDLYSRLELPGLNQNVHAMFVMPLGFGNPMGDMFARLNNSFWLPPLSLEGAGTGWTVYPPLSHSGPSVDLAFHLTSSLLGAINFTNMRGPLFWTALLLLSLPVLAGTLLDRNFNTFEGGDPLYHLFWFFGHPEVYIIPGFGSHSTYKKFGMYASIGLGFVWSHHMYVGLDDRAYFLSATMIAPTGIKFSWLATYGGRPMLAFLFLFTGGTGVLNASDAFHDLYYVVMAFSLGYYPYNLFWFMFGMPDAGWSSSYQLGPDESNE'
p3267
sg123
F0.00040999999999999999
sg124
g125
sg33
S'177'
p3268
sg127
g1
(g128
g12
(dp3269
g130
I4
sg131
g132
sg133
g134
sg135
g132
sg136
I01
sg34
g137
sg138
g134
sg139
I0
sg140
I0
sg141
I0
sg142
g134
sg35
g132
sg143
I0
stRp3270
sg145
g146
sg147
F1
sg148
Nsg30
S'LkluyA'
p3271
sbasg120
g3069
sg123
F0.0035300000000000002
sg124
g125
sg33
S'127'
p3272
sg127
g1
(g128
g12
(dp3273
g130
I8
sg131
g132
sg133
g134
sg135
g132
sg136
I01
sg34
g173
sg138
g134
sg139
I0
sg140
I0
sg141
I0
sg142
g134
sg35
g132
sg143
I0
stRp3274
sg145
g146
sg147
F0.91000000000000003
sg148
Nsg30
S'NoName'
p3275
sbasg120
g3056
sg123
F0.054280000000000002
sg124
g125
sg33
S'107'
p3276
sg127
g1
(g128
g12
(dp3277
g130
I8
sg131
g132
sg133
g134
sg135
g132
sg136
I01
sg34
g173
sg138
g134
sg139
I0
sg140
I0
sg141
I0
sg142
g134
sg35
g132
sg143
I0
stRp3278
sg145
g146
sg147
F0.98999999999999999
sg148
Nsg30
S'NoName'
p3279
sbag1
(g2
g3
NtRp3280
(dp3281
g6
g1
(g7
g3
NtRp3282
(dp3283
g10
g1
(g11
g12
(dtRp3284
sg14
g1
(g11
g12
(dtRp3285
sg16
g1
(g11
g12
(dtRp3286
sg18
g1
(g11
g12
(dtRp3287
sg20
g1
(g11
g12
(dtRp3288
sg22
g1
(g11
g12
(dtRp3289
sbsg24
g25
sg26
g27
((lp3290
g33
ag32
ag29
ag30
atRp3291
sg37
(lp3292
g1
(g2
g3
NtRp3293
(dp3294
g6
g1
(g7
g3
NtRp3295
(dp3296
g10
g1
(g11
g12
(dtRp3297
sg14
g1
(g11
g12
(dtRp3298
sg16
g1
(g11
g12
(dtRp3299
sg18
g1
(g11
g12
(dtRp3300
sg20
g1
(g11
g12
(dtRp3301
sg22
g1
(g11
g12
(dtRp3302
sbsg24
S'Lan'
p3303
sg26
g27
((lp3304
g29
ag30
aS'sequence'
p3305
ag32
ag33
aS'species'
p3306
atRp3307
sg37
(lp3308
sg120
g3280
sg121
S'RWLSTKDLYSRLELPGLNQNVHAMFVMPLGFGNPMGDMFARLNNSFWLPPLSLEGAGTGWTLYPPLSHSGPSVDLAFHLTSSLLGAINFTNMRGPLFWTALLLLSLPVLAGTVLDRNFNTFEGGDPLYHLFWFFGHPEVYIIPGFGSHSTYKKFGMYASIGLGFVWSHHMYVGLDDRAYFTSATMIAPTGIKFSWLALYGGRPMLAFLFLFTGGTGVLNASDAFHDTYYVVMAFSLGYYPYNLFWFMFGMPDAGWSSSYQLGPDESNE'
p3309
sg123
F0.10922999999999999
sg124
g125
sg33
S'142'
p3310
sg127
g1
(g128
g12
(dp3311
g130
I4
sg131
g132
sg133
g134
sg135
g132
sg136
I01
sg34
g137
sg138
g134
sg139
I0
sg140
I0
sg141
I0
sg142
g134
sg35
g132
sg143
I0
stRp3312
sg145
g146
sg147
F1
sg148
Nsg30
S'LanspA'
p3313
sbag1
(g2
g3
NtRp3314
(dp3315
g6
g1
(g7
g3
NtRp3316
(dp3317
g10
g1
(g11
g12
(dtRp3318
sg14
g1
(g11
g12
(dtRp3319
sg16
g1
(g11
g12
(dtRp3320
sg18
g1
(g11
g12
(dtRp3321
sg20
g1
(g11
g12
(dtRp3322
sg22
g1
(g11
g12
(dtRp3323
sbsg24
g25
sg26
g27
((lp3324
g33
ag32
ag29
ag30
atRp3325
sg37
(lp3326
g1
(g2
g3
NtRp3327
(dp3328
g6
g1
(g7
g3
NtRp3329
(dp3330
g10
g1
(g11
g12
(dtRp3331
sg14
g1
(g11
g12
(dtRp3332
sg16
g1
(g11
g12
(dtRp3333
sg18
g1
(g11
g12
(dtRp3334
sg20
g1
(g11
g12
(dtRp3335
sg22
g1
(g11
g12
(dtRp3336
sbsg24
g25
sg26
g27
((lp3337
g33
ag32
ag29
ag30
atRp3338
sg37
(lp3339
g1
(g2
g3
NtRp3340
(dp3341
g6
g1
(g7
g3
NtRp3342
(dp3343
g10
g1
(g11
g12
(dtRp3344
sg14
g1
(g11
g12
(dtRp3345
sg16
g1
(g11
g12
(dtRp3346
sg18
g1
(g11
g12
(dtRp3347
sg20
g1
(g11
g12
(dtRp3348
sg22
g1
(g11
g12
(dtRp3349
sbsg24
S'Lno'
p3350
sg26
g27
((lp3351
g29
ag30
aS'sequence'
p3352
ag32
ag33
aS'species'
p3353
atRp3354
sg37
(lp3355
sg120
g3327
sg121
S'RWLSTKDLYSRLELPGLNQNVHAMFVMPLGFGNPMGDMFARLNNSFWLPPLSLEGAGTGWTIYPPLSHSGPSVDLAFHLTSSLLGAINFTNMRGPLFWTALLLLSLPVLAGTILDRNFNTFEGGDPLYHLFWFFGHPEVYIIPGFGSHSTYKKFGMYASIGLGFVWSHHMYVGLDDRAYFTSALMIAPTGIKFSWLALYGGRPMLAFLFLFTGGTGVLNASDAFHDTYYVVMAFSLGYYPYNLFWFMFGMPDAGWSSSYQLGPDESNE'
p3356
sg123
F0.0075199999999999998
sg124
g125
sg33
S'20'
p3357
sg127
g1
(g128
g12
(dp3358
g130
I4
sg131
g132
sg133
g134
sg135
g132
sg136
I01
sg34
g137
sg138
g134
sg139
I0
sg140
I0
sg141
I0
sg142
g134
sg35
g132
sg143
I0
stRp3359
sg145
g146
sg147
F1
sg148
Nsg30
S'LnothA'
p3360
sbag1
(g2
g3
NtRp3361
(dp3362
g6
g1
(g7
g3
NtRp3363
(dp3364
g10
g1
(g11
g12
(dtRp3365
sg14
g1
(g11
g12
(dtRp3366
sg16
g1
(g11
g12
(dtRp3367
sg18
g1
(g11
g12
(dtRp3368
sg20
g1
(g11
g12
(dtRp3369
sg22
g1
(g11
g12
(dtRp3370
sbsg24
g25
sg26
g27
((lp3371
g33
ag32
ag29
ag30
atRp3372
sg37
(lp3373
g1
(g2
g3
NtRp3374
(dp3375
g6
g1
(g7
g3
NtRp3376
(dp3377
g10
g1
(g11
g12
(dtRp3378
sg14
g1
(g11
g12
(dtRp3379
sg16
g1
(g11
g12
(dtRp3380
sg18
g1
(g11
g12
(dtRp3381
sg20
g1
(g11
g12
(dtRp3382
sg22
g1
(g11
g12
(dtRp3383
sbsg24
S'Lda'
p3384
sg26
g27
((lp3385
g29
ag30
aS'sequence'
p3386
ag32
ag33
aS'species'
p3387
atRp3388
sg37
(lp3389
sg120
g3361
sg121
S'RWLSTKDLYSRLELPGLNQNVHAMFVMPLGFGNPMGDMFARLNNSFWLPPLSLEGAGTGWTVYPPLSHSGPSVDLAFHLTSSLLGAINFTNMRGPLFWTALLLLSLPVLAGTILDRNFNTFEGGDPLYHLFWFFGHPEVYIIPGFGSHSTYKKFGMYASIGLGFVWSHHMYVGLDDRAYFTSATMIAPTGIKFSWLALYGGRPMLAFLFLFTGGTGVLNASDAFHDTYYVVMAFSLGYYPYNLFWFMFGMPDAGWSSSYQLGPDESNE'
p3390
sg123
F0.023539999999999998
sg124
g125
sg33
S'47'
p3391
sg127
g1
(g128
g12
(dp3392
g130
I4
sg131
g132
sg133
g134
sg135
g132
sg136
I01
sg34
g137
sg138
g134
sg139
I0
sg140
I0
sg141
I0
sg142
g134
sg35
g132
sg143
I0
stRp3393
sg145
g146
sg147
F1
sg148
Nsg30
S'LdasiA'
p3394
sbag1
(g2
g3
NtRp3395
(dp3396
g6
g1
(g7
g3
NtRp3397
(dp3398
g10
g1
(g11
g12
(dtRp3399
sg14
g1
(g11
g12
(dtRp3400
sg16
g1
(g11
g12
(dtRp3401
sg18
g1
(g11
g12
(dtRp3402
sg20
g1
(g11
g12
(dtRp3403
sg22
g1
(g11
g12
(dtRp3404
sbsg24
g25
sg26
g27
((lp3405
g33
ag32
ag29
ag30
atRp3406
sg37
(lp3407
g1
(g2
g3
NtRp3408
(dp3409
g6
g1
(g7
g3
NtRp3410
(dp3411
g10
g1
(g11
g12
(dtRp3412
sg14
g1
(g11
g12
(dtRp3413
sg16
g1
(g11
g12
(dtRp3414
sg18
g1
(g11
g12
(dtRp3415
sg20
g1
(g11
g12
(dtRp3416
sg22
g1
(g11
g12
(dtRp3417
sbsg24
S'Lme'
p3418
sg26
g27
((lp3419
g29
ag30
aS'sequence'
p3420
ag32
ag33
aS'species'
p3421
atRp3422
sg37
(lp3423
sg120
g3395
sg121
S'RWLSTKDLYSRLELPGLNQNVHAMFVMPLGFGNPMGDMFARLNNSFWLPPLSLEGAGTGWTVYPPLSHSGPSVDLAFHLTSSLLGAINFTNMRGPLFWTALLLLSLPVLAGTILDRNFNTFEGGDPLYHLFWFFGHPEVYIIPGFGSHSTYKKFGMYASIGLGFVWSHHMYVGLDDRAYFTSATMIAPTGIKFSWLALYGGRPMLAFLFLFTGGTGVLNASDAFHDTYYVVMAFSLGYYPYNLFWFMFGMPDAGWSSSYQLGPDESNE'
p3424
sg123
F0.0050299999999999997
sg124
g125
sg33
S'196'
p3425
sg127
g1
(g128
g12
(dp3426
g130
I4
sg131
g132
sg133
g134
sg135
g132
sg136
I01
sg34
g137
sg138
g134
sg139
I0
sg140
I0
sg141
I0
sg142
g134
sg35
g132
sg143
I0
stRp3427
sg145
g146
sg147
F1
sg148
Nsg30
S'LmeyeA'
p3428
sbag1
(g2
g3
NtRp3429
(dp3430
g6
g1
(g7
g3
NtRp3431
(dp3432
g10
g1
(g11
g12
(dtRp3433
sg14
g1
(g11
g12
(dtRp3434
sg16
g1
(g11
g12
(dtRp3435
sg18
g1
(g11
g12
(dtRp3436
sg20
g1
(g11
g12
(dtRp3437
sg22
g1
(g11
g12
(dtRp3438
sbsg24
S'Lan'
p3439
sg26
g27
((lp3440
g29
ag30
aS'sequence'
p3441
ag32
ag33
aS'species'
p3442
atRp3443
sg37
(lp3444
sg120
g3395
sg121
S'RWLSTKDLYSRLELPGLNQNVHAMFVMPLGFGNPMGDMFARLNNSFWLPPLSLEGAGTGWTVYPPLSHSGPSVDLAFHLTSSLLGAINFTNMRGPLFWTALLLLSLPVLAGTILDRNFNTFEGGDPLYHLFWFFGHPEVYIIPGFGSHSTYKKFGMYASIGLGFVWSHHMYVGLDDRAYFTSALMIAPTGIKFSWLALYGGRPMLAFLFLFTGGTGVLNASDAFHDTYYVVMAFSLGYYPYNLFWFMFGMPDAGWSSSYQLGPDESNE'
p3445
sg123
F0.012290000000000001
sg124
g125
sg33
S'96'
p3446
sg127
g1
(g128
g12
(dp3447
g130
I4
sg131
g132
sg133
g134
sg135
g132
sg136
I01
sg34
g137
sg138
g134
sg139
I0
sg140
I0
sg141
I0
sg142
g134
sg35
g132
sg143
I0
stRp3448
sg145
g146
sg147
F1
sg148
Nsg30
S'LanspB'
p3449
sbasg120
g3361
sg123
F0.012070000000000001
sg124
g125
sg33
S'18'
p3450
sg127
g1
(g128
g12
(dp3451
g130
I8
sg131
g132
sg133
g134
sg135
g132
sg136
I01
sg34
g173
sg138
g134
sg139
I0
sg140
I0
sg141
I0
sg142
g134
sg35
g132
sg143
I0
stRp3452
sg145
g146
sg147
F0.98999999999999999
sg148
Nsg30
S'NoName'
p3453
sbasg120
g3327
sg123
F0.0088199999999999997
sg124
g125
sg33
S'144'
p3454
sg127
g1
(g128
g12
(dp3455
g130
I8
sg131
g132
sg133
g134
sg135
g132
sg136
I01
sg34
g173
sg138
g134
sg139
I0
sg140
I0
sg141
I0
sg142
g134
sg35
g132
sg143
I0
stRp3456
sg145
g146
sg147
F0.95999999999999996
sg148
Nsg30
S'NoName'
p3457
sbasg120
g3314
sg123
F0.016570000000000001
sg124
g125
sg33
S'224'
p3458
sg127
g1
(g128
g12
(dp3459
g130
I8
sg131
g132
sg133
g134
sg135
g132
sg136
I01
sg34
g173
sg138
g134
sg139
I0
sg140
I0
sg141
I0
sg142
g134
sg35
g132
sg143
I0
stRp3460
sg145
g146
sg147
F0.94999999999999996
sg148
Nsg30
S'NoName'
p3461
sbag1
(g2
g3
NtRp3462
(dp3463
g6
g1
(g7
g3
NtRp3464
(dp3465
g10
g1
(g11
g12
(dtRp3466
sg14
g1
(g11
g12
(dtRp3467
sg16
g1
(g11
g12
(dtRp3468
sg18
g1
(g11
g12
(dtRp3469
sg20
g1
(g11
g12
(dtRp3470
sg22
g1
(g11
g12
(dtRp3471
sbsg24
S'Kth'
p3472
sg26
g27
((lp3473
g29
ag30
aS'sequence'
p3474
ag32
ag33
aS'species'
p3475
atRp3476
sg37
(lp3477
sg120
g3314
sg121
S'RWLSTKDLYSRLELPGLNQNVHAMFVMPLGFGNPMGDMFARLNNSFWLPPLSLEGAGTGWTVYPPLSHSGPSVDLAFHLTSSLLGAINFTNMRGPLFWTALLLLSLPVLAGTILDRNFNTFEGGDPLYHLFWFFGHPEVYIIPGFGSHSTYKKFGMYASIGLGFVWSHHMYVGLDDRAYFTSATMIAPTGIKFSWLALYGGRPMLAFLFLFTGGTGVLNASDAFHDTYYVVMAFSLGYYPYNLFWFMFGMPDAGWSSSYQLGPDESNE'
p3478
sg123
F0.021499999999999998
sg124
g125
sg33
S'124'
p3479
sg127
g1
(g128
g12
(dp3480
g130
I4
sg131
g132
sg133
g134
sg135
g132
sg136
I01
sg34
g137
sg138
g134
sg139
I0
sg140
I0
sg141
I0
sg142
g134
sg35
g132
sg143
I0
stRp3481
sg145
g146
sg147
F1
sg148
Nsg30
S'KtherA'
p3482
sbasg120
g3280
sg123
F0.033250000000000002
sg124
g125
sg33
S'203'
p3483
sg127
g1
(g128
g12
(dp3484
g130
I8
sg131
g132
sg133
g134
sg135
g132
sg136
I01
sg34
g173
sg138
g134
sg139
I0
sg140
I0
sg141
I0
sg142
g134
sg35
g132
sg143
I0
stRp3485
sg145
g146
sg147
F0.93999999999999995
sg148
Nsg30
S'NoName'
p3486
sbasg120
g3056
sg123
F0.038859999999999999
sg124
g125
sg33
S'153'
p3487
sg127
g1
(g128
g12
(dp3488
g130
I8
sg131
g132
sg133
g134
sg135
g132
sg136
I01
sg34
g173
sg138
g134
sg139
I0
sg140
I0
sg141
I0
sg142
g134
sg35
g132
sg143
I0
stRp3489
sg145
g146
sg147
F0.92000000000000004
sg148
Nsg30
S'NoName'
p3490
sbasg120
g3043
sg123
F0.050380000000000001
sg124
g125
sg33
S'219'
p3491
sg127
g1
(g128
g12
(dp3492
g130
I8
sg131
g132
sg133
g134
sg135
g132
sg136
I01
sg34
g173
sg138
g134
sg139
I0
sg140
I0
sg141
I0
sg142
g134
sg35
g132
sg143
I0
stRp3493
sg145
g146
sg147
F0.89000000000000001
sg148
Nsg30
S'NoName'
p3494
sbag1
(g2
g3
NtRp3495
(dp3496
g6
g1
(g7
g3
NtRp3497
(dp3498
g10
g1
(g11
g12
(dtRp3499
sg14
g1
(g11
g12
(dtRp3500
sg16
g1
(g11
g12
(dtRp3501
sg18
g1
(g11
g12
(dtRp3502
sg20
g1
(g11
g12
(dtRp3503
sg22
g1
(g11
g12
(dtRp3504
sbsg24
g25
sg26
g27
((lp3505
g33
ag32
ag29
ag30
atRp3506
sg37
(lp3507
g1
(g2
g3
NtRp3508
(dp3509
g6
g1
(g7
g3
NtRp3510
(dp3511
g10
g1
(g11
g12
(dtRp3512
sg14
g1
(g11
g12
(dtRp3513
sg16
g1
(g11
g12
(dtRp3514
sg18
g1
(g11
g12
(dtRp3515
sg20
g1
(g11
g12
(dtRp3516
sg22
g1
(g11
g12
(dtRp3517
sbsg24
S'Kma'
p3518
sg26
g27
((lp3519
g29
ag30
aS'sequence'
p3520
ag32
ag33
aS'species'
p3521
atRp3522
sg37
(lp3523
sg120
g3495
sg121
S'RWLSTKDLYSRLELPGLNQNVHAMFVMPLGFGNPMGDMFARLNNSFWLPPLSLEGAGTGWTVYPPLSHSGPSVDLAFHLTSSLLGAINFTNMRGPLFWTALLLLSLPVLAGTLLDRNFNTFEGGDPLYHLFWFFGHPEVYIIPGFGSHSTYKKFGMYASIGLGFVWSHHMYVGLDDRAYFTSATMIAPTGIKFSWLATYGGRPMLAFLFLFTGGTGVLNASDAFHDTYYVVMAFSLGYYPYNLFWFMFGMPDAGWSSSYQLGPDESNE'
p3524
sg123
F0.04018
sg124
g125
sg33
S'53'
p3525
sg127
g1
(g128
g12
(dp3526
g130
I4
sg131
g132
sg133
g134
sg135
g132
sg136
I01
sg34
g137
sg138
g134
sg139
I0
sg140
I0
sg141
I0
sg142
g134
sg35
g132
sg143
I0
stRp3527
sg145
g146
sg147
F1
sg148
Nsg30
S'KmarxA'
p3528
sbag1
(g2
g3
NtRp3529
(dp3530
g6
g1
(g7
g3
NtRp3531
(dp3532
g10
g1
(g11
g12
(dtRp3533
sg14
g1
(g11
g12
(dtRp3534
sg16
g1
(g11
g12
(dtRp3535
sg18
g1
(g11
g12
(dtRp3536
sg20
g1
(g11
g12
(dtRp3537
sg22
g1
(g11
g12
(dtRp3538
sbsg24
S'Kla'
p3539
sg26
g27
((lp3540
g29
ag30
aS'sequence'
p3541
ag32
ag33
aS'species'
p3542
atRp3543
sg37
(lp3544
sg120
g3495
sg121
S'RWLSTKDLYSRLELPGLNQNVHAMFVMPLGFGNPLGDMFARLNNSFWLPPLSLEGAGTGWTVYPPLSHSGPSVDLAFHLTSSLLGAINFTNMRGPLFWTALLLLSLPVLAGTLLDRNFNTFEGGDPLYHLFWFFGHPEVYIIPGFGSHSTYKKFGMYASIGLGFVWSHHMYVGLDDRAYFTSATMIAPTGIKFSWLATYGGRPMLAFLFLFTGGTGVLNASDAFHDTYYVVMAFSLGYYPYNLFWFMFGMPDAGWSSSYQLGPDESNE'
p3545
sg123
F0.043529999999999999
sg124
g125
sg33
S'15'
p3546
sg127
g1
(g128
g12
(dp3547
g130
I4
sg131
g132
sg133
g134
sg135
g132
sg136
I01
sg34
g137
sg138
g134
sg139
I0
sg140
I0
sg141
I0
sg142
g134
sg35
g132
sg143
I0
stRp3548
sg145
g146
sg147
F1
sg148
Nsg30
S'KlactA'
p3549
sbasg120
g3043
sg123
F0.13938999999999999
sg124
g125
sg33
S'100'
p3550
sg127
g1
(g128
g12
(dp3551
g130
I8
sg131
g132
sg133
g134
sg135
g132
sg136
I01
sg34
g173
sg138
g134
sg139
I0
sg140
I0
sg141
I0
sg142
g134
sg35
g132
sg143
I0
stRp3552
sg145
g146
sg147
F0.98999999999999999
sg148
Nsg30
S'NoName'
p3553
sbasg120
g3030
sg123
F1.0000000000000001e-05
sg124
g125
sg33
S'93'
p3554
sg127
g1
(g128
g12
(dp3555
g130
I8
sg131
g132
sg133
g134
sg135
g132
sg136
I01
sg34
g173
sg138
g134
sg139
I0
sg140
I0
sg141
I0
sg142
g134
sg35
g132
sg143
I0
stRp3556
sg145
g146
sg147
F1
sg148
Nsg30
S'NoName'
p3557
sbag1
(g2
g3
NtRp3558
(dp3559
g6
g1
(g7
g3
NtRp3560
(dp3561
g10
g1
(g11
g12
(dtRp3562
sg14
g1
(g11
g12
(dtRp3563
sg16
g1
(g11
g12
(dtRp3564
sg18
g1
(g11
g12
(dtRp3565
sg20
g1
(g11
g12
(dtRp3566
sg22
g1
(g11
g12
(dtRp3567
sbsg24
g25
sg26
g27
((lp3568
g33
ag32
ag29
ag30
atRp3569
sg37
(lp3570
g1
(g2
g3
NtRp3571
(dp3572
g6
g1
(g7
g3
NtRp3573
(dp3574
g10
g1
(g11
g12
(dtRp3575
sg14
g1
(g11
g12
(dtRp3576
sg16
g1
(g11
g12
(dtRp3577
sg18
g1
(g11
g12
(dtRp3578
sg20
g1
(g11
g12
(dtRp3579
sg22
g1
(g11
g12
(dtRp3580
sbsg24
S'Huv'
p3581
sg26
g27
((lp3582
g29
ag30
aS'sequence'
p3583
ag32
ag33
aS'species'
p3584
atRp3585
sg37
(lp3586
sg120
g3558
sg121
S'-MITTKDLYSRLELSGINHNSHAMFIMPIGFGNPAGDMFPRLNNSFWLVPVSLEGAGTGWTVYYPLSHSSVSVDLVFHCLSSLLGAINFTNFL-SLFWLALLLLSLPVLVGTLLDRNFNLYEGGDPLYHLFWFFGHPEVYIIPAFGSMSAYSKFGMYASIGLGFVWVHHMFVGLDDRAYFTSATMIAPLGIKFSWLALIGGRPVLAFLVLFLGGTGVLNASDAFHDTYYVVLAFGIGYYPYNLFVVMYGMSDSAWTASVQLGTDLLPE'
p3587
sg123
F3.9441199999999998
sg124
g125
sg33
S'73'
p3588
sg127
g1
(g128
g12
(dp3589
g130
I4
sg131
g132
sg133
g134
sg135
g132
sg136
I01
sg34
g137
sg138
g134
sg139
I0
sg140
I0
sg141
I0
sg142
g134
sg35
g132
sg143
I0
stRp3590
sg145
g146
sg147
F1
sg148
Nsg30
S'HuvarA'
p3591
sbag1
(g2
g3
NtRp3592
(dp3593
g6
g1
(g7
g3
NtRp3594
(dp3595
g10
g1
(g11
g12
(dtRp3596
sg14
g1
(g11
g12
(dtRp3597
sg16
g1
(g11
g12
(dtRp3598
sg18
g1
(g11
g12
(dtRp3599
sg20
g1
(g11
g12
(dtRp3600
sg22
g1
(g11
g12
(dtRp3601
sbsg24
g25
sg26
g27
((lp3602
g33
ag32
ag29
ag30
atRp3603
sg37
(lp3604
g1
(g2
g3
NtRp3605
(dp3606
g6
g1
(g7
g3
NtRp3607
(dp3608
g10
g1
(g11
g12
(dtRp3609
sg14
g1
(g11
g12
(dtRp3610
sg16
g1
(g11
g12
(dtRp3611
sg18
g1
(g11
g12
(dtRp3612
sg20
g1
(g11
g12
(dtRp3613
sg22
g1
(g11
g12
(dtRp3614
sbsg24
g25
sg26
g27
((lp3615
g33
ag32
ag29
ag30
atRp3616
sg37
(lp3617
g1
(g2
g3
NtRp3618
(dp3619
g6
g1
(g7
g3
NtRp3620
(dp3621
g10
g1
(g11
g12
(dtRp3622
sg14
g1
(g11
g12
(dtRp3623
sg16
g1
(g11
g12
(dtRp3624
sg18
g1
(g11
g12
(dtRp3625
sg20
g1
(g11
g12
(dtRp3626
sg22
g1
(g11
g12
(dtRp3627
sbsg24
g25
sg26
g27
((lp3628
g33
ag32
ag29
ag30
atRp3629
sg37
(lp3630
g1
(g2
g3
NtRp3631
(dp3632
g6
g1
(g7
g3
NtRp3633
(dp3634
g10
g1
(g11
g12
(dtRp3635
sg14
g1
(g11
g12
(dtRp3636
sg16
g1
(g11
g12
(dtRp3637
sg18
g1
(g11
g12
(dtRp3638
sg20
g1
(g11
g12
(dtRp3639
sg22
g1
(g11
g12
(dtRp3640
sbsg24
S'Sse'
p3641
sg26
g27
((lp3642
g29
ag30
aS'sequence'
p3643
ag32
ag33
aS'species'
p3644
atRp3645
sg37
(lp3646
sg120
g3618
sg121
S'RWLSTKDMYSRMELPGLNQNVHAMFAMPLGFGNPMGDMFPRINSGFWLPMLSLEGAGTGWTVYPPLSHSGPSVDLAFHLTSSLLGAINFTNMRGPLFWTALLLLSLPVLAGTLLDRNFNTFEGGDPFYHAFWFFGHPEVYIIPGFGSHSTYKKFGMYASIGLGFVWSHHMYVGLDDRAYFTSATMIAPTGIKFSWLALYGGRPMMAFLFLFTGGTGVLNASDAFHDTYYVVMAFSLGYYPYNLFWFMFGMPDAGWSSSYQIGPDESNE'
p3647
sg123
F0.29805999999999999
sg124
g125
sg33
S'118'
p3648
sg127
g1
(g128
g12
(dp3649
g130
I4
sg131
g132
sg133
g134
sg135
g132
sg136
I01
sg34
g137
sg138
g134
sg139
I0
sg140
I0
sg141
I0
sg142
g134
sg35
g132
sg143
I0
stRp3650
sg145
g146
sg147
F1
sg148
Nsg30
S'SservA'
p3651
sbag1
(g2
g3
NtRp3652
(dp3653
g6
g1
(g7
g3
NtRp3654
(dp3655
g10
g1
(g11
g12
(dtRp3656
sg14
g1
(g11
g12
(dtRp3657
sg16
g1
(g11
g12
(dtRp3658
sg18
g1
(g11
g12
(dtRp3659
sg20
g1
(g11
g12
(dtRp3660
sg22
g1
(g11
g12
(dtRp3661
sbsg24
S'Sca'
p3662
sg26
g27
((lp3663
g29
ag30
aS'sequence'
p3664
ag32
ag33
aS'species'
p3665
atRp3666
sg37
(lp3667
sg120
g3618
sg121
S'RWLSTKDLYSRLELPGLNQNVHAMFVMPLGFGNPMGDTFPRINNGFWLPMLSLEGAGTGWTVYPPLAHSGPSVDLAFHMTSSLLGAINFTNMRGPLFWTALLLLTLPVLAGTLLDRNFNTFEGGDPLYHLFWFFGHPEVYIIPGFGSHSTYKKFGMYASIGLGLVWSHHMYVGLDDRAYFTSATMIAPTGIKFSWLATYGGRPMLAFLFLFTGGTGVLNASDAFHDLYYVVMAFSLGYYPYNLFWFMFGMPDAGWSASYQLGPDESNE'
p3668
sg123
F0.30890000000000001
sg124
g125
sg33
S'134'
p3669
sg127
g1
(g128
g12
(dp3670
g130
I4
sg131
g132
sg133
g134
sg135
g132
sg136
I01
sg34
g137
sg138
g134
sg139
I0
sg140
I0
sg141
I0
sg142
g134
sg35
g132
sg143
I0
stRp3671
sg145
g146
sg147
F1
sg148
Nsg30
S'ScastA'
p3672
sbasg120
g3605
sg123
F0.072319999999999995
sg124
g125
sg33
S'192'
p3673
sg127
g1
(g128
g12
(dp3674
g130
I8
sg131
g132
sg133
g134
sg135
g132
sg136
I01
sg34
g173
sg138
g134
sg139
I0
sg140
I0
sg141
I0
sg142
g134
sg35
g132
sg143
I0
stRp3675
sg145
g146
sg147
F0.98999999999999999
sg148
Nsg30
S'NoName'
p3676
sbag1
(g2
g3
NtRp3677
(dp3678
g6
g1
(g7
g3
NtRp3679
(dp3680
g10
g1
(g11
g12
(dtRp3681
sg14
g1
(g11
g12
(dtRp3682
sg16
g1
(g11
g12
(dtRp3683
sg18
g1
(g11
g12
(dtRp3684
sg20
g1
(g11
g12
(dtRp3685
sg22
g1
(g11
g12
(dtRp3686
sbsg24
g25
sg26
g27
((lp3687
g33
ag32
ag29
ag30
atRp3688
sg37
(lp3689
g1
(g2
g3
NtRp3690
(dp3691
g6
g1
(g7
g3
NtRp3692
(dp3693
g10
g1
(g11
g12
(dtRp3694
sg14
g1
(g11
g12
(dtRp3695
sg16
g1
(g11
g12
(dtRp3696
sg18
g1
(g11
g12
(dtRp3697
sg20
g1
(g11
g12
(dtRp3698
sg22
g1
(g11
g12
(dtRp3699
sbsg24
S'Spa'
p3700
sg26
g27
((lp3701
g29
ag30
aS'sequence'
p3702
ag32
ag33
aS'species'
p3703
atRp3704
sg37
(lp3705
sg120
g3677
sg121
S'RWLSTKDLYSRLELPGLNQNVHAMFVMPLGFGNPMGDTFPRINNAFWLPMLSLEGAGTGWTVYPPLSHSGPSVDLAFHLTSSLLGAINFTNMRGPLFWTALLLLSLPVLAGTLLDRNFNTFEGGDPLYHLFWFFGHPEVYIIPGFGSHSTYKKFGMYASIGLGFVWSHHMYVGLDDRAYFLSATMIAPTGIKFSWLATYGGRPMLAFLFLFTGGTGVLNASDAFHDTYYVVMAFSLGYYPYNLFWFMFGMPDAGWSSSYQLGPDESNE'
p3706
sg123
F0.029780000000000001
sg124
g125
sg33
S'87'
p3707
sg127
g1
(g128
g12
(dp3708
g130
I4
sg131
g132
sg133
g134
sg135
g132
sg136
I01
sg34
g137
sg138
g134
sg139
I0
sg140
I0
sg141
I0
sg142
g134
sg35
g132
sg143
I0
stRp3709
sg145
g146
sg147
F1
sg148
Nsg30
S'SpastA'
p3710
sbag1
(g2
g3
NtRp3711
(dp3712
g6
g1
(g7
g3
NtRp3713
(dp3714
g10
g1
(g11
g12
(dtRp3715
sg14
g1
(g11
g12
(dtRp3716
sg16
g1
(g11
g12
(dtRp3717
sg18
g1
(g11
g12
(dtRp3718
sg20
g1
(g11
g12
(dtRp3719
sg22
g1
(g11
g12
(dtRp3720
sbsg24
g25
sg26
g27
((lp3721
g33
ag32
ag29
ag30
atRp3722
sg37
(lp3723
g1
(g2
g3
NtRp3724
(dp3725
g6
g1
(g7
g3
NtRp3726
(dp3727
g10
g1
(g11
g12
(dtRp3728
sg14
g1
(g11
g12
(dtRp3729
sg16
g1
(g11
g12
(dtRp3730
sg18
g1
(g11
g12
(dtRp3731
sg20
g1
(g11
g12
(dtRp3732
sg22
g1
(g11
g12
(dtRp3733
sbsg24
g25
sg26
g27
((lp3734
g33
ag32
ag29
ag30
atRp3735
sg37
(lp3736
g1
(g2
g3
NtRp3737
(dp3738
g6
g1
(g7
g3
NtRp3739
(dp3740
g10
g1
(g11
g12
(dtRp3741
sg14
g1
(g11
g12
(dtRp3742
sg16
g1
(g11
g12
(dtRp3743
sg18
g1
(g11
g12
(dtRp3744
sg20
g1
(g11
g12
(dtRp3745
sg22
g1
(g11
g12
(dtRp3746
sbsg24
S'Sce'
p3747
sg26
g27
((lp3748
g29
ag30
aS'sequence'
p3749
ag32
ag33
aS'species'
p3750
atRp3751
sg37
(lp3752
sg120
g3724
sg121
S'RWLSTKDLYSRLELPGLNQNVHAMFVMPLGFGNPMGDTFPRINNAFWLPMLSLEGAGTGWTVYPPLSHSGPSVDLAFHLTSSLLGAINFTNMRGPLFWTALLLLSLPVLAGTLLDRNFNTFEGGDPLYHLFWFFGHPEVYIIPGFGSHSTYKKFGMYASIGLGFVWSHHMYVGLDDRAYFLSALMIAPTGIKFSWLALYGGRPMLAFLFLFTGGTGVLNASDAFHDTYYVVMAFSLGYYPYNLFWFMFGMPDAGWSSSYQLGPDESNE'
p3753
sg123
F0.0038700000000000002
sg124
g125
sg33
S'0'
sg127
g1
(g128
g12
(dp3754
g130
I4
sg131
g132
sg133
g134
sg135
g132
sg136
I01
sg34
g137
sg138
g134
sg139
I0
sg140
I0
sg141
I0
sg142
g134
sg35
g132
sg143
I0
stRp3755
sg145
g146
sg147
F1
sg148
Nsg30
S'ScereD'
p3756
sbag1
(g2
g3
NtRp3757
(dp3758
g6
g1
(g7
g3
NtRp3759
(dp3760
g10
g1
(g11
g12
(dtRp3761
sg14
g1
(g11
g12
(dtRp3762
sg16
g1
(g11
g12
(dtRp3763
sg18
g1
(g11
g12
(dtRp3764
sg20
g1
(g11
g12
(dtRp3765
sg22
g1
(g11
g12
(dtRp3766
sbsg24
g25
sg26
g27
((lp3767
g33
ag32
ag29
ag30
atRp3768
sg37
(lp3769
g1
(g2
g3
NtRp3770
(dp3771
g6
g1
(g7
g3
NtRp3772
(dp3773
g10
g1
(g11
g12
(dtRp3774
sg14
g1
(g11
g12
(dtRp3775
sg16
g1
(g11
g12
(dtRp3776
sg18
g1
(g11
g12
(dtRp3777
sg20
g1
(g11
g12
(dtRp3778
sg22
g1
(g11
g12
(dtRp3779
sbsg24
S'Sce'
p3780
sg26
g27
((lp3781
g29
ag30
aS'sequence'
p3782
ag32
ag33
aS'species'
p3783
atRp3784
sg37
(lp3785
sg120
g3757
sg121
S'RWLSTKDLYSRLELPGLNQNVHAMFVMPLGFGNPMGDTFPRINNAFWLPMLSLEGAGTGWTVYPPLSHSGPSVDLAFHLTSSLLGAINFTNMRGPLFWTALLLLSLPVLAGTLLDRNFNTFEGGDPLYHLFWFFGHPEVYIIPGFGSHSTYKKFGMYASIGLGFVWSHHMYVGLDDRAYFLSALMIAPTGIKFSWLALYGGRPMLAFLFLFTGGTGVLNASDAFHDTYYVVMAFSLGYYPYNLFWFMFGMPDAGWSSSYQLGPDESNE'
p3786
sg123
F0.0075900000000000004
sg124
g125
sg33
S'17'
p3787
sg127
g1
(g128
g12
(dp3788
g130
I4
sg131
g132
sg133
g134
sg135
g132
sg136
I01
sg34
g137
sg138
g134
sg139
I0
sg140
I0
sg141
I0
sg142
g134
sg35
g132
sg143
I0
stRp3789
sg145
g146
sg147
F1
sg148
Nsg30
S'ScereE'
p3790
sbag1
(g2
g3
NtRp3791
(dp3792
g6
g1
(g7
g3
NtRp3793
(dp3794
g10
g1
(g11
g12
(dtRp3795
sg14
g1
(g11
g12
(dtRp3796
sg16
g1
(g11
g12
(dtRp3797
sg18
g1
(g11
g12
(dtRp3798
sg20
g1
(g11
g12
(dtRp3799
sg22
g1
(g11
g12
(dtRp3800
sbsg24
g25
sg26
g27
((lp3801
g33
ag32
ag29
ag30
atRp3802
sg37
(lp3803
g1
(g2
g3
NtRp3804
(dp3805
g6
g1
(g7
g3
NtRp3806
(dp3807
g10
g1
(g11
g12
(dtRp3808
sg14
g1
(g11
g12
(dtRp3809
sg16
g1
(g11
g12
(dtRp3810
sg18
g1
(g11
g12
(dtRp3811
sg20
g1
(g11
g12
(dtRp3812
sg22
g1
(g11
g12
(dtRp3813
sbsg24
S'Sce'
p3814
sg26
g27
((lp3815
g29
ag30
aS'sequence'
p3816
ag32
ag33
aS'species'
p3817
atRp3818
sg37
(lp3819
sg120
g3791
sg121
S'RWLSTKDLYSRLELPGLNQNVHAMFVMPLGFGNPMGDTFPRINNAFWLPMLSLEGAGTGWTVYPPLSHSGPSVDLAFHLTSSLLGAINFTNMRGPLFWTALLLLSLPVLAGTLLDRNFNTFEGGDPLYHLFWFFGHPEVYIIPGFGSHSTYKKFGMYASIGLGFVWSHHMYVGLDDRAYFLSALMIAPTGIKFSWLALHGGRPMLAFLFLFTGGTGVLNASDAFHDTYYVVMAFSLGYYPYNLFWFMFGMPDAGWSSSYQLGPDESNE'
p3820
sg123
F0.0053899999999999998
sg124
g125
sg33
S'33'
p3821
sg127
g1
(g128
g12
(dp3822
g130
I4
sg131
g132
sg133
g134
sg135
g132
sg136
I01
sg34
g137
sg138
g134
sg139
I0
sg140
I0
sg141
I0
sg142
g134
sg35
g132
sg143
I0
stRp3823
sg145
g146
sg147
F1
sg148
Nsg30
S'ScereC'
p3824
sbag1
(g2
g3
NtRp3825
(dp3826
g6
g1
(g7
g3
NtRp3827
(dp3828
g10
g1
(g11
g12
(dtRp3829
sg14
g1
(g11
g12
(dtRp3830
sg16
g1
(g11
g12
(dtRp3831
sg18
g1
(g11
g12
(dtRp3832
sg20
g1
(g11
g12
(dtRp3833
sg22
g1
(g11
g12
(dtRp3834
sbsg24
S'Sce'
p3835
sg26
g27
((lp3836
g29
ag30
aS'sequence'
p3837
ag32
ag33
aS'species'
p3838
atRp3839
sg37
(lp3840
sg120
g3791
sg121
S'RWLSTKDLYSRLELPGLNQNVHAMFVMPLGFGNPMGDTFPRINNAFWLPMLSLEGAGTGWTVYPPLSHSGPSVDLAFHLTSSLLGAINFTNMRGPLFWTALLLLSLPVLAGTLLDRNFNTFEGGDPLYHLFWFFGHPEVYIIPGFGSHSTYKKFGMYASIGLGFVWSHHMYVGLDDRAYFLSALMIAPTGIKFSWLALYGGRPMLAFLFLFTGGTGVLNASDAFHDTYYVVMAFSLGYYPYNLFWFMFGMPDAGWSSSYQLGPDESNE'
p3841
sg123
F0.0066400000000000001
sg124
g125
sg33
S'66'
p3842
sg127
g1
(g128
g12
(dp3843
g130
I4
sg131
g132
sg133
g134
sg135
g132
sg136
I01
sg34
g137
sg138
g134
sg139
I0
sg140
I0
sg141
I0
sg142
g134
sg35
g132
sg143
I0
stRp3844
sg145
g146
sg147
F1
sg148
Nsg30
S'ScereA'
p3845
sbasg120
g3757
sg123
F0.00596
sg124
g125
sg33
S'92'
p3846
sg127
g1
(g128
g12
(dp3847
g130
I8
sg131
g132
sg133
g134
sg135
g132
sg136
I01
sg34
g173
sg138
g134
sg139
I0
sg140
I0
sg141
I0
sg142
g134
sg35
g132
sg143
I0
stRp3848
sg145
g146
sg147
F0.98999999999999999
sg148
Nsg30
S'NoName'
p3849
sbasg120
g3724
sg123
F0.0050600000000000003
sg124
g125
sg33
S'121'
p3850
sg127
g1
(g128
g12
(dp3851
g130
I8
sg131
g132
sg133
g134
sg135
g132
sg136
I01
sg34
g173
sg138
g134
sg139
I0
sg140
I0
sg141
I0
sg142
g134
sg35
g132
sg143
I0
stRp3852
sg145
g146
sg147
F0.66000000000000003
sg148
Nsg30
S'NoName'
p3853
sbasg120
g3711
sg123
F0.017850000000000001
sg124
g125
sg33
S'21'
p3854
sg127
g1
(g128
g12
(dp3855
g130
I8
sg131
g132
sg133
g134
sg135
g132
sg136
I01
sg34
g173
sg138
g134
sg139
I0
sg140
I0
sg141
I0
sg142
g134
sg35
g132
sg143
I0
stRp3856
sg145
g146
sg147
F0.89000000000000001
sg148
Nsg30
S'NoName'
p3857
sbag1
(g2
g3
NtRp3858
(dp3859
g6
g1
(g7
g3
NtRp3860
(dp3861
g10
g1
(g11
g12
(dtRp3862
sg14
g1
(g11
g12
(dtRp3863
sg16
g1
(g11
g12
(dtRp3864
sg18
g1
(g11
g12
(dtRp3865
sg20
g1
(g11
g12
(dtRp3866
sg22
g1
(g11
g12
(dtRp3867
sbsg24
S'Sar'
p3868
sg26
g27
((lp3869
g29
ag30
aS'sequence'
p3870
ag32
ag33
aS'species'
p3871
atRp3872
sg37
(lp3873
sg120
g3711
sg121
S'RWLSTKDLYSRLELPGLNQNVHAMFVMPLGFGNPMGDTFPRINNAFWLPMLSLEGAGTGWTVYPPLSHSGPSVDLAFHLTSSLLGAINFTNMRGPLFWTALLLLSLPVLAGTLLDRNFNTFEGGDPLYHLFWFFGHPEVYIIPGFGSHSTYKKFGMYASIGLGFVWSHHMYVGLDDRAYFLSALMIAPTGIKFSWLALYGGRPMLAFLFLFTGGTGVLNASDAFHDTYYVVMAFSLGYYPYNLFWFMFGMPDAGWSSSYQLGPDESNE'
p3874
sg123
F0.047230000000000001
sg124
g125
sg33
S'189'
p3875
sg127
g1
(g128
g12
(dp3876
g130
I4
sg131
g132
sg133
g134
sg135
g132
sg136
I01
sg34
g137
sg138
g134
sg139
I0
sg140
I0
sg141
I0
sg142
g134
sg35
g132
sg143
I0
stRp3877
sg145
g146
sg147
F1
sg148
Nsg30
S'SarboA'
p3878
sbasg120
g3677
sg123
F0.023619999999999999
sg124
g125
sg33
S'172'
p3879
sg127
g1
(g128
g12
(dp3880
g130
I8
sg131
g132
sg133
g134
sg135
g132
sg136
I01
sg34
g173
sg138
g134
sg139
I0
sg140
I0
sg141
I0
sg142
g134
sg35
g132
sg143
I0
stRp3881
sg145
g146
sg147
F0.92000000000000004
sg148
Nsg30
S'NoName'
p3882
sbasg120
g3605
sg123
F0.18547
sg124
g125
sg33
S'174'
p3883
sg127
g1
(g128
g12
(dp3884
g130
I8
sg131
g132
sg133
g134
sg135
g132
sg136
I01
sg34
g173
sg138
g134
sg139
I0
sg140
I0
sg141
I0
sg142
g134
sg35
g132
sg143
I0
stRp3885
sg145
g146
sg147
F0.98999999999999999
sg148
Nsg30
S'NoName'
p3886
sbasg120
g3592
sg123
F0.03594
sg124
g125
sg33
S'60'
p3887
sg127
g1
(g128
g12
(dp3888
g130
I8
sg131
g132
sg133
g134
sg135
g132
sg136
I01
sg34
g173
sg138
g134
sg139
I0
sg140
I0
sg141
I0
sg142
g134
sg35
g132
sg143
I0
stRp3889
sg145
g146
sg147
F0.98999999999999999
sg148
Nsg30
S'NoName'
p3890
sbag1
(g2
g3
NtRp3891
(dp3892
g6
g1
(g7
g3
NtRp3893
(dp3894
g10
g1
(g11
g12
(dtRp3895
sg14
g1
(g11
g12
(dtRp3896
sg16
g1
(g11
g12
(dtRp3897
sg18
g1
(g11
g12
(dtRp3898
sg20
g1
(g11
g12
(dtRp3899
sg22
g1
(g11
g12
(dtRp3900
sbsg24
g25
sg26
g27
((lp3901
g33
ag32
ag29
ag30
atRp3902
sg37
(lp3903
g1
(g2
g3
NtRp3904
(dp3905
g6
g1
(g7
g3
NtRp3906
(dp3907
g10
g1
(g11
g12
(dtRp3908
sg14
g1
(g11
g12
(dtRp3909
sg16
g1
(g11
g12
(dtRp3910
sg18
g1
(g11
g12
(dtRp3911
sg20
g1
(g11
g12
(dtRp3912
sg22
g1
(g11
g12
(dtRp3913
sbsg24
g25
sg26
g27
((lp3914
g33
ag32
ag29
ag30
atRp3915
sg37
(lp3916
g1
(g2
g3
NtRp3917
(dp3918
g6
g1
(g7
g3
NtRp3919
(dp3920
g10
g1
(g11
g12
(dtRp3921
sg14
g1
(g11
g12
(dtRp3922
sg16
g1
(g11
g12
(dtRp3923
sg18
g1
(g11
g12
(dtRp3924
sg20
g1
(g11
g12
(dtRp3925
sg22
g1
(g11
g12
(dtRp3926
sbsg24
S'Nde'
p3927
sg26
g27
((lp3928
g29
ag30
aS'sequence'
p3929
ag32
ag33
aS'species'
p3930
atRp3931
sg37
(lp3932
sg120
g3904
sg121
S'RWLSTKDLYSRLELPGLNQNVHAMFVMPLGFGNPMGDMFPRLNNGFWIVPLSLEGAGTGWTVYPPLSHSGPSVDLAFHMTSSLLGAINFTNMRGPLFWTALLLLSLPVFAGTLLDRNFNTFEGGDPLYHLFWFFGHPEVYIIPGFGSHSTYKKFGMYASIGLGFVWSHHMYVGLDDRAYFTSATMIAPTGIKFSWLATYGGRPMLAFLFLFTGGTGVLNASDAFHDTYYVVMAFSTGYYPYNLFWFMFGMPDAGWSSSYQFGPDESNE'
p3933
sg123
F0.063509999999999997
sg124
g125
sg33
S'181'
p3934
sg127
g1
(g128
g12
(dp3935
g130
I4
sg131
g132
sg133
g134
sg135
g132
sg136
I01
sg34
g137
sg138
g134
sg139
I0
sg140
I0
sg141
I0
sg142
g134
sg35
g132
sg143
I0
stRp3936
sg145
g146
sg147
F1
sg148
Nsg30
S'NdelpA'
p3937
sbag1
(g2
g3
NtRp3938
(dp3939
g6
g1
(g7
g3
NtRp3940
(dp3941
g10
g1
(g11
g12
(dtRp3942
sg14
g1
(g11
g12
(dtRp3943
sg16
g1
(g11
g12
(dtRp3944
sg18
g1
(g11
g12
(dtRp3945
sg20
g1
(g11
g12
(dtRp3946
sg22
g1
(g11
g12
(dtRp3947
sbsg24
S'Cgl'
p3948
sg26
g27
((lp3949
g29
ag30
aS'sequence'
p3950
ag32
ag33
aS'species'
p3951
atRp3952
sg37
(lp3953
sg120
g3904
sg121
S'RWLSTKDLYSRLELPGLNQNVHAMFVMPLGFGNPMGDMFPRLNNGFWIVPLSLEGAGTGWTVYPPLSHSGPSVDLAFHLTSSLLGSINFTNMRGPLFWTALLLLSLPVLAGTLLDRNFNTFEGGDPLYHLFWFFGHPEVYIIPGFGSHSTYKKFGMYASIGLGFVWSHHMYVGLDDRAYFTSATMIAPTGIKFSWLATYGGRPMLAFLFLFTGGTGVLNASDAFHDTYYVVMAFSTGYYPYNLFWFMFGMPDAGWSSSYQFGPDESNE'
p3954
sg123
F0.03882
sg124
g125
sg33
S'26'
p3955
sg127
g1
(g128
g12
(dp3956
g130
I4
sg131
g132
sg133
g134
sg135
g132
sg136
I01
sg34
g137
sg138
g134
sg139
I0
sg140
I0
sg141
I0
sg142
g134
sg35
g132
sg143
I0
stRp3957
sg145
g146
sg147
F1
sg148
Nsg30
S'CglabA'
p3958
sbasg120
g3891
sg123
F0.16661999999999999
sg124
g125
sg33
S'9'
sg127
g1
(g128
g12
(dp3959
g130
I8
sg131
g132
sg133
g134
sg135
g132
sg136
I01
sg34
g173
sg138
g134
sg139
I0
sg140
I0
sg141
I0
sg142
g134
sg35
g132
sg143
I0
stRp3960
sg145
g146
sg147
F0.98999999999999999
sg148
Nsg30
S'NoName'
p3961
sbag1
(g2
g3
NtRp3962
(dp3963
g6
g1
(g7
g3
NtRp3964
(dp3965
g10
g1
(g11
g12
(dtRp3966
sg14
g1
(g11
g12
(dtRp3967
sg16
g1
(g11
g12
(dtRp3968
sg18
g1
(g11
g12
(dtRp3969
sg20
g1
(g11
g12
(dtRp3970
sg22
g1
(g11
g12
(dtRp3971
sbsg24
g25
sg26
g27
((lp3972
g33
ag32
ag29
ag30
atRp3973
sg37
(lp3974
g1
(g2
g3
NtRp3975
(dp3976
g6
g1
(g7
g3
NtRp3977
(dp3978
g10
g1
(g11
g12
(dtRp3979
sg14
g1
(g11
g12
(dtRp3980
sg16
g1
(g11
g12
(dtRp3981
sg18
g1
(g11
g12
(dtRp3982
sg20
g1
(g11
g12
(dtRp3983
sg22
g1
(g11
g12
(dtRp3984
sbsg24
S'Nba'
p3985
sg26
g27
((lp3986
g29
ag30
aS'sequence'
p3987
ag32
ag33
aS'species'
p3988
atRp3989
sg37
(lp3990
sg120
g3962
sg121
S'RWLSTKDLYSRMELPGLNQNVHAMFVMPLGFGNPMGDMFPRLNNGFWMPALSLEGAGTGWTVYPPLSHSGPSVDLAFHLSSSLLGAINFTNMRGPLFWTALLLFSLPVFAGTLLDRNFNTFEGGDPLYHLFWFFGHPEVYIIPGFGSHSTYKKFGMYASIGLGFVWSHHMYVGLDDRAYFTSATMIAPTGIKFSWLALYGGRPMLAFLFLFTGGTGVLNASDAFHDTYYVVMAFSVAYYPYNLFWFMFGMPDAGWSSSYQLGPDESNE'
p3991
sg123
F0.29926999999999998
sg124
g125
sg33
S'215'
p3992
sg127
g1
(g128
g12
(dp3993
g130
I4
sg131
g132
sg133
g134
sg135
g132
sg136
I01
sg34
g137
sg138
g134
sg139
I0
sg140
I0
sg141
I0
sg142
g134
sg35
g132
sg143
I0
stRp3994
sg145
g146
sg147
F1
sg148
Nsg30
S'NbaciA'
p3995
sbag1
(g2
g3
NtRp3996
(dp3997
g6
g1
(g7
g3
NtRp3998
(dp3999
g10
g1
(g11
g12
(dtRp4000
sg14
g1
(g11
g12
(dtRp4001
sg16
g1
(g11
g12
(dtRp4002
sg18
g1
(g11
g12
(dtRp4003
sg20
g1
(g11
g12
(dtRp4004
sg22
g1
(g11
g12
(dtRp4005
sbsg24
S'Cca'
p4006
sg26
g27
((lp4007
g29
ag30
aS'sequence'
p4008
ag32
ag33
aS'species'
p4009
atRp4010
sg37
(lp4011
sg120
g3962
sg121
S'RWLSTKDLYSRLELPGLNQNVHAMFVMPLGIGNPMGDTFPRLNNGFWLPPLSLEGAGTGWTVYPPLSHSGPSVDLAFHLTSSLLGAINFTNMRGPLFWTALLLFSLPVFAGTLLDRNFNTFEGGDPLYHVFWFFGHPEVYIIPGFGSHSTYKKFGMYASIGLGFVWSHHMYVGLDDRAYFTSALMIAPTGIKFSWLATFGGRPMLAFLFLFTGGTGVLNASDAFHDTYYVVMAFSLGYYPYNLFWFMFGMPDAGWSSSYQLGPDESNE'
p4012
sg123
F0.26266
sg124
g125
sg33
S'171'
p4013
sg127
g1
(g128
g12
(dp4014
g130
I4
sg131
g132
sg133
g134
sg135
g132
sg136
I01
sg34
g137
sg138
g134
sg139
I0
sg140
I0
sg141
I0
sg142
g134
sg35
g132
sg143
I0
stRp4015
sg145
g146
sg147
F1
sg148
Nsg30
S'CcastA'
p4016
sbasg120
g3891
sg123
F0.15296999999999999
sg124
g125
sg33
S'11'
p4017
sg127
g1
(g128
g12
(dp4018
g130
I8
sg131
g132
sg133
g134
sg135
g132
sg136
I01
sg34
g173
sg138
g134
sg139
I0
sg140
I0
sg141
I0
sg142
g134
sg35
g132
sg143
I0
stRp4019
sg145
g146
sg147
F0.98999999999999999
sg148
Nsg30
S'NoName'
p4020
sbasg120
g3592
sg123
F0.042560000000000001
sg124
g125
sg33
S'132'
p4021
sg127
g1
(g128
g12
(dp4022
g130
I8
sg131
g132
sg133
g134
sg135
g132
sg136
I01
sg34
g173
sg138
g134
sg139
I0
sg140
I0
sg141
I0
sg142
g134
sg35
g132
sg143
I0
stRp4023
sg145
g146
sg147
F0.84999999999999998
sg148
Nsg30
S'NoName'
p4024
sbasg120
g3558
sg123
F0.094020000000000006
sg124
g125
sg33
S'12'
p4025
sg127
g1
(g128
g12
(dp4026
g130
I8
sg131
g132
sg133
g134
sg135
g132
sg136
I01
sg34
g173
sg138
g134
sg139
I0
sg140
I0
sg141
I0
sg142
g134
sg35
g132
sg143
I0
stRp4027
sg145
g146
sg147
F0.55000000000000004
sg148
Nsg30
S'NoName'
p4028
sbasg120
g3030
sg123
F0.11952
sg124
g125
sg33
S'39'
p4029
sg127
g1
(g128
g12
(dp4030
g130
I8
sg131
g132
sg133
g134
sg135
g132
sg136
I01
sg34
g173
sg138
g134
sg139
I0
sg140
I0
sg141
I0
sg142
g134
sg35
g132
sg143
I0
stRp4031
sg145
g146
sg147
F0.69999999999999996
sg148
Nsg30
S'NoName'
p4032
sbasg120
g3017
sg123
F0.029839999999999998
sg124
g125
sg33
S'56'
p4033
sg127
g1
(g128
g12
(dp4034
g130
I8
sg131
g132
sg133
g134
sg135
g132
sg136
I01
sg34
g173
sg138
g134
sg139
I0
sg140
I0
sg141
I0
sg142
g134
sg35
g132
sg143
I0
stRp4035
sg145
g146
sg147
F0.82999999999999996
sg148
Nsg30
S'NoName'
p4036
sbag1
(g2
g3
NtRp4037
(dp4038
g6
g1
(g7
g3
NtRp4039
(dp4040
g10
g1
(g11
g12
(dtRp4041
sg14
g1
(g11
g12
(dtRp4042
sg16
g1
(g11
g12
(dtRp4043
sg18
g1
(g11
g12
(dtRp4044
sg20
g1
(g11
g12
(dtRp4045
sg22
g1
(g11
g12
(dtRp4046
sbsg24
g25
sg26
g27
((lp4047
g33
ag32
ag29
ag30
atRp4048
sg37
(lp4049
g1
(g2
g3
NtRp4050
(dp4051
g6
g1
(g7
g3
NtRp4052
(dp4053
g10
g1
(g11
g12
(dtRp4054
sg14
g1
(g11
g12
(dtRp4055
sg16
g1
(g11
g12
(dtRp4056
sg18
g1
(g11
g12
(dtRp4057
sg20
g1
(g11
g12
(dtRp4058
sg22
g1
(g11
g12
(dtRp4059
sbsg24
S'Aac'
p4060
sg26
g27
((lp4061
g29
ag30
aS'sequence'
p4062
ag32
ag33
aS'species'
p4063
atRp4064
sg37
(lp4065
sg120
g4037
sg121
S'RWLSTKDLYSRMELPGLQQNVHLMFVMPLGFGNPMGDMFARLNNSFWLPPLSMEGLGTGWTVYPPLAHSGASVDLAFHLTSSLLGLINFTNMRGPLFWTAMLLMSLPVLAGTLLDRNFNTFEGGDPLYHLFWFFGHPEVYIIPLFGSHSTYKKFGMYASIGLGFVWSHHMYVGLDDRAYFTSLTMILPTSIKFSWLLTYGGRPMLAFLFLFTGGTGVLNLSDLFHDTYYVVLAFSMGYYPYNLFWFMFGMPDLGWSSSYQLGPDESNE'
p4066
sg123
F0.028920000000000001
sg124
g125
sg33
S'88'
p4067
sg127
g1
(g128
g12
(dp4068
g130
I4
sg131
g132
sg133
g134
sg135
g132
sg136
I01
sg34
g137
sg138
g134
sg139
I0
sg140
I0
sg141
I0
sg142
g134
sg35
g132
sg143
I0
stRp4069
sg145
g146
sg147
F1
sg148
Nsg30
S'AacerA'
p4070
sbag1
(g2
g3
NtRp4071
(dp4072
g6
g1
(g7
g3
NtRp4073
(dp4074
g10
g1
(g11
g12
(dtRp4075
sg14
g1
(g11
g12
(dtRp4076
sg16
g1
(g11
g12
(dtRp4077
sg18
g1
(g11
g12
(dtRp4078
sg20
g1
(g11
g12
(dtRp4079
sg22
g1
(g11
g12
(dtRp4080
sbsg24
g25
sg26
g27
((lp4081
g33
ag32
ag29
ag30
atRp4082
sg37
(lp4083
g1
(g2
g3
NtRp4084
(dp4085
g6
g1
(g7
g3
NtRp4086
(dp4087
g10
g1
(g11
g12
(dtRp4088
sg14
g1
(g11
g12
(dtRp4089
sg16
g1
(g11
g12
(dtRp4090
sg18
g1
(g11
g12
(dtRp4091
sg20
g1
(g11
g12
(dtRp4092
sg22
g1
(g11
g12
(dtRp4093
sbsg24
S'Ago'
p4094
sg26
g27
((lp4095
g29
ag30
aS'sequence'
p4096
ag32
ag33
aS'species'
p4097
atRp4098
sg37
(lp4099
sg120
g4071
sg121
S'RWLSTKDLYSRMELPGLQQNVHLMFVMPLGFGNPMGDMFARLNNSFWLPPLSMEGLGTGWTVYPPLSHSGASVDLAFHLTSSLLGLINFTNMRGPLFWTAMLLMSLPVLAGTLLDRNFNTFEGGDPLYHLFWFFGHPEVYIIPLFGSHSTYKKFGMYLSISLGFVWSHHMYVGLDDRAYFTSATMILPTSIKFSWLLTYGGRPMLLFLFLFTGGTGVLNLSDAFHDTYYVVLAFSMGYYPYNLFWFMFGMPDLGWSSSYQLGPDESNE'
p4100
sg123
F0.00088000000000000003
sg124
g125
sg33
S'155'
p4101
sg127
g1
(g128
g12
(dp4102
g130
I4
sg131
g132
sg133
g134
sg135
g132
sg136
I01
sg34
g137
sg138
g134
sg139
I0
sg140
I0
sg141
I0
sg142
g134
sg35
g132
sg143
I0
stRp4103
sg145
g146
sg147
F1
sg148
Nsg30
S'AgossB'
p4104
sbag1
(g2
g3
NtRp4105
(dp4106
g6
g1
(g7
g3
NtRp4107
(dp4108
g10
g1
(g11
g12
(dtRp4109
sg14
g1
(g11
g12
(dtRp4110
sg16
g1
(g11
g12
(dtRp4111
sg18
g1
(g11
g12
(dtRp4112
sg20
g1
(g11
g12
(dtRp4113
sg22
g1
(g11
g12
(dtRp4114
sbsg24
S'Ago'
p4115
sg26
g27
((lp4116
g29
ag30
aS'sequence'
p4117
ag32
ag33
aS'species'
p4118
atRp4119
sg37
(lp4120
sg120
g4071
sg121
S'RWLSTKDLYSRMELPGLQQNVHLMFVMPLGFGNPMGDMFARLNNSFWLPPLSMEGLGTGWTVYPPLSHSGASVDLAFHLTSSLLGLINFTNMRGPLFWTAMLLMSLPVLAGTLLDRNFNTFEGGDPLYHLFWFFGHPEVYIIPLFGSHSTYKKFGMYLSISLGFVWSHHMYVGLDDRAYFTSATMILPTSIKFSWLLTYGGRPMLLFLFLFTGGTGVLNLSDAFHDTYYVVLAFSMGYYPYNLFWFMFGMPDLGWSSSYQLGPDESNE'
p4121
sg123
F0.0023999999999999998
sg124
g125
sg33
S'206'
p4122
sg127
g1
(g128
g12
(dp4123
g130
I4
sg131
g132
sg133
g134
sg135
g132
sg136
I01
sg34
g137
sg138
g134
sg139
I0
sg140
I0
sg141
I0
sg142
g134
sg35
g132
sg143
I0
stRp4124
sg145
g146
sg147
F1
sg148
Nsg30
S'AgossA'
p4125
sbasg120
g4037
sg123
F0.075329999999999994
sg124
g125
sg33
S'103'
p4126
sg127
g1
(g128
g12
(dp4127
g130
I8
sg131
g132
sg133
g134
sg135
g132
sg136
I01
sg34
g173
sg138
g134
sg139
I0
sg140
I0
sg141
I0
sg142
g134
sg35
g132
sg143
I0
stRp4128
sg145
g146
sg147
F0.98999999999999999
sg148
Nsg30
S'NoName'
p4129
sbasg120
g3017
sg123
F0.56830999999999998
sg124
g125
sg33
S'2'
sg127
g1
(g128
g12
(dp4130
g130
I8
sg131
g132
sg133
g134
sg135
g132
sg136
I01
sg34
g173
sg138
g134
sg139
I0
sg140
I0
sg141
I0
sg142
g134
sg35
g132
sg143
I0
stRp4131
sg145
g146
sg147
F0.98999999999999999
sg148
Nsg30
S'NoName'
p4132
sbasg120
g2679
sg123
F0.14305999999999999
sg124
g125
sg33
S'180'
p4133
sg127
g1
(g128
g12
(dp4134
g130
I8
sg131
g132
sg133
g134
sg135
g132
sg136
I01
sg34
g173
sg138
g134
sg139
I0
sg140
I0
sg141
I0
sg142
g134
sg35
g132
sg143
I0
stRp4135
sg145
g146
sg147
F0.96999999999999997
sg148
Nsg30
S'NoName'
p4136
sbasg120
g2494
sg123
F0.26834000000000002
sg124
g125
sg33
S'31'
p4137
sg127
g1
(g128
g12
(dp4138
g130
I8
sg131
g132
sg133
g134
sg135
g132
sg136
I01
sg34
g173
sg138
g134
sg139
I0
sg140
I0
sg141
I0
sg142
g134
sg35
g132
sg143
I0
stRp4139
sg145
g146
sg147
F0.97999999999999998
sg148
Nsg30
S'NoName'
p4140
sbasg120
g678
sg123
F0.062890000000000001
sg124
g125
sg33
S'48'
p4141
sg127
g1
(g128
g12
(dp4142
g130
I8
sg131
g132
sg133
g134
sg135
g132
sg136
I01
sg34
g173
sg138
g134
sg139
I0
sg140
I0
sg141
I0
sg142
g134
sg35
g132
sg143
I0
stRp4143
sg145
g146
sg147
F0.67000000000000004
sg148
Nsg30
S'NoName'
p4144
sbasg120
g264
sg123
F0.52025999999999994
sg124
g125
sg33
S'166'
p4145
sg127
g1
(g128
g12
(dp4146
g130
I8
sg131
g132
sg133
g134
sg135
g132
sg136
I01
sg34
g173
sg138
g134
sg139
I0
sg140
I0
sg141
I0
sg142
g134
sg35
g132
sg143
I0
stRp4147
sg145
g146
sg147
F0.97999999999999998
sg148
Nsg30
S'NoName'
p4148
sbasg120
g52
sg123
F0.11274000000000001
sg124
g125
sg33
S'175'
p4149
sg127
g1
(g128
g12
(dp4150
g130
I8
sg131
g132
sg133
g134
sg135
g132
sg136
I01
sg34
g173
sg138
g134
sg139
I0
sg140
I0
sg141
I0
sg142
g134
sg35
g132
sg143
I0
stRp4151
sg145
g146
sg147
F0.88
sg148
Nsg30
S'NoName'
p4152
sbasg120
g39
sg123
F0.33485999999999999
sg124
g125
sg33
S'119'
p4153
sg127
g1
(g128
g12
(dp4154
g130
I8
sg131
g132
sg133
g134
sg135
g132
sg136
I01
sg34
g173
sg138
g134
sg139
I0
sg140
I0
sg141
I0
sg142
g134
sg35
g132
sg143
I0
stRp4155
sg145
g146
sg147
F0.95999999999999996
sg148
Nsg30
S'NoName'
p4156
sbag1
(g2
g3
NtRp4157
(dp4158
g6
g1
(g7
g3
NtRp4159
(dp4160
g10
g1
(g11
g12
(dtRp4161
sg14
g1
(g11
g12
(dtRp4162
sg16
g1
(g11
g12
(dtRp4163
sg18
g1
(g11
g12
(dtRp4164
sg20
g1
(g11
g12
(dtRp4165
sg22
g1
(g11
g12
(dtRp4166
sbsg24
S'Lst'
p4167
sg26
g27
((lp4168
g29
ag30
aS'sequence'
p4169
ag32
ag33
aS'species'
p4170
atRp4171
sg37
(lp4172
sg120
g39
sg121
S'RWLSTKDLYSRMELPGLNHNVHAMFVMPLGFGNPLGDMFPRLNNSFWLPPLSFEGAGTGWTVYPPLSHSGASVDLAFHLSSSMLGAMNFTNMRGPLFWTALLLLSLPVLGATLLDRNFNTFEGGDPLYHLFWFFGHPEVYIIPGFGSHCTYEKFGMYASMGLGFVWSHHMFVGLDERAYFTAATMIAPTGMKFSWLATYGGTPMVAFLFLFTGGTGVLNASDAFHDTYYVVMAFALGYYPYKYFWFMFGMPDAGWSSAIQLGPQATKE'
p4173
sg123
F1.13117
sg124
g125
sg33
S'106'
p4174
sg127
g1
(g128
g12
(dp4175
g130
I4
sg131
g132
sg133
g134
sg135
g132
sg136
I01
sg34
g137
sg138
g134
sg139
I0
sg140
I0
sg141
I0
sg142
g134
sg35
g132
sg143
I0
stRp4176
sg145
g146
sg147
F1
sg148
Nsg30
S'LstarA'
p4177
sbasg120
g4
sg123
F0.46844999999999998
sg124
g125
sg33
S'190'
p4178
sg127
g1
(g128
g12
(dp4179
g130
I8
sg131
g132
sg133
g134
sg135
g132
sg136
I01
sg34
g173
sg138
g134
sg139
I0
sg140
I0
sg141
I0
sg142
g134
sg35
g132
sg143
I0
stRp4180
sg145
g146
sg147
F1
sg148
Nsg30
S'NoName'
p4181
sbag1
(g2
g3
NtRp4182
(dp4183
g6
g1
(g7
g3
NtRp4184
(dp4185
g10
g1
(g11
g12
(dtRp4186
sg14
g1
(g11
g12
(dtRp4187
sg16
g1
(g11
g12
(dtRp4188
sg18
g1
(g11
g12
(dtRp4189
sg20
g1
(g11
g12
(dtRp4190
sg22
g1
(g11
g12
(dtRp4191
sbsg24
g25
sg26
g27
((lp4192
g33
ag32
ag29
ag30
atRp4193
sg37
(lp4194
g1
(g2
g3
NtRp4195
(dp4196
g6
g1
(g7
g3
NtRp4197
(dp4198
g10
g1
(g11
g12
(dtRp4199
sg14
g1
(g11
g12
(dtRp4200
sg16
g1
(g11
g12
(dtRp4201
sg18
g1
(g11
g12
(dtRp4202
sg20
g1
(g11
g12
(dtRp4203
sg22
g1
(g11
g12
(dtRp4204
sbsg24
S'Sja'
p4205
sg26
g27
((lp4206
g29
ag30
aS'sequence'
p4207
ag32
ag33
aS'species'
p4208
atRp4209
sg37
(lp4210
sg120
g4182
sg121
S'RWLSTKDLYSRLELPGLNQNVHGMFILPLGFGNPLGDVYPRMNNSFWLPPLSLEGPGVGWTMYYPLSHSGLSVDLLMQLTSSTLGSINLTNMRGPLFWTSLLVLTLPVLGGILLDRNWNTFAGGDPLYHLFWFFGHPEVYIIPAFGSHSTFHKFGMYASIALGCVWSHHLYVGLDDRAYFTAATMIAPTGIKFSWLATSGGEPMLVFLILFTGGTGVLNSVDAFHDTYFVVMAMGLAYFPYNMFWFQFNYPDAGWSSSYQFNPNDSNE'
p4211
sg123
F1.0686599999999999
sg124
g125
sg33
S'161'
p4212
sg127
g1
(g128
g12
(dp4213
g130
I4
sg131
g132
sg133
g134
sg135
g132
sg136
I01
sg34
g137
sg138
g134
sg139
I0
sg140
I0
sg141
I0
sg142
g134
sg35
g132
sg143
I0
stRp4214
sg145
g146
sg147
F1
sg148
Nsg30
S'SjapoA'
p4215
sbag1
(g2
g3
NtRp4216
(dp4217
g6
g1
(g7
g3
NtRp4218
(dp4219
g10
g1
(g11
g12
(dtRp4220
sg14
g1
(g11
g12
(dtRp4221
sg16
g1
(g11
g12
(dtRp4222
sg18
g1
(g11
g12
(dtRp4223
sg20
g1
(g11
g12
(dtRp4224
sg22
g1
(g11
g12
(dtRp4225
sbsg24
g25
sg26
g27
((lp4226
g33
ag32
ag29
ag30
atRp4227
sg37
(lp4228
g1
(g2
g3
NtRp4229
(dp4230
g6
g1
(g7
g3
NtRp4231
(dp4232
g10
g1
(g11
g12
(dtRp4233
sg14
g1
(g11
g12
(dtRp4234
sg16
g1
(g11
g12
(dtRp4235
sg18
g1
(g11
g12
(dtRp4236
sg20
g1
(g11
g12
(dtRp4237
sg22
g1
(g11
g12
(dtRp4238
sbsg24
S'Spo'
p4239
sg26
g27
((lp4240
g29
ag30
aS'sequence'
p4241
ag32
ag33
aS'species'
p4242
atRp4243
sg37
(lp4244
sg120
g4216
sg121
S'RWMSTKDLYSRMELPGLNQNVHGMFIIPLGFGNPMGDVYPRVNNTFWLPPLSLEGPGGGWTVYPPLSHSGPAIDLALQLTSSTLGSVNLTNMRGPLFWTSLLLLTLPVLGGFLFDRNLNTFAGGDPLYHLFWFFGHPEVYIIPAFGSHPSLHKFGMWASIALGLVWSHHLFVGLDDRAYFSAATMIAPTGIKFSWLATTGGQPMLAFLILFTGGTGVLNSVDAFHDTYFVVMAFGLAY-PYNLFWFQFGMPEAGWSSSYQFNPSDDNE'
p4245
sg123
F0.12372
sg124
g125
sg33
S'1'
sg127
g1
(g128
g12
(dp4246
g130
I4
sg131
g132
sg133
g134
sg135
g132
sg136
I01
sg34
g137
sg138
g134
sg139
I0
sg140
I0
sg141
I0
sg142
g134
sg35
g132
sg143
I0
stRp4247
sg145
g146
sg147
F1
sg148
Nsg30
S'SpombA'
p4248
sbag1
(g2
g3
NtRp4249
(dp4250
g6
g1
(g7
g3
NtRp4251
(dp4252
g10
g1
(g11
g12
(dtRp4253
sg14
g1
(g11
g12
(dtRp4254
sg16
g1
(g11
g12
(dtRp4255
sg18
g1
(g11
g12
(dtRp4256
sg20
g1
(g11
g12
(dtRp4257
sg22
g1
(g11
g12
(dtRp4258
sbsg24
g25
sg26
g27
((lp4259
g33
ag32
ag29
ag30
atRp4260
sg37
(lp4261
g1
(g2
g3
NtRp4262
(dp4263
g6
g1
(g7
g3
NtRp4264
(dp4265
g10
g1
(g11
g12
(dtRp4266
sg14
g1
(g11
g12
(dtRp4267
sg16
g1
(g11
g12
(dtRp4268
sg18
g1
(g11
g12
(dtRp4269
sg20
g1
(g11
g12
(dtRp4270
sg22
g1
(g11
g12
(dtRp4271
sbsg24
S'Soc'
p4272
sg26
g27
((lp4273
g29
ag30
aS'sequence'
p4274
ag32
ag33
aS'species'
p4275
atRp4276
sg37
(lp4277
sg120
g4249
sg121
S'RWLSTKDLYSRMELPGLNQNVHGMFIIPLGFGNPMGDVYPRVNNTFWLPPLSLEGPGTGWTVYPPLSHSGPAVDLALQLTSSTLGSLNLTNMRGPLFWTSLLLLTLPVLGGFLFDRNLNTFAGGDPLYHLFWFFGHPEVYIIPAFGSHSTLNKFGMCASIALGLVWSHHLFVGLDDRAYFSAATMIAPTGIKFSWLATTGGQPMLAFLILFTGGTGVLNSVDAFHDTYFVVMAFGLAYFPYNLFWFQFGMPDAGWSSSYQYNPSDDNE'
p4278
sg123
F0.03637
sg124
g125
sg33
S'72'
p4279
sg127
g1
(g128
g12
(dp4280
g130
I4
sg131
g132
sg133
g134
sg135
g132
sg136
I01
sg34
g137
sg138
g134
sg139
I0
sg140
I0
sg141
I0
sg142
g134
sg35
g132
sg143
I0
stRp4281
sg145
g146
sg147
F1
sg148
Nsg30
S'SoctoA'
p4282
sbag1
(g2
g3
NtRp4283
(dp4284
g6
g1
(g7
g3
NtRp4285
(dp4286
g10
g1
(g11
g12
(dtRp4287
sg14
g1
(g11
g12
(dtRp4288
sg16
g1
(g11
g12
(dtRp4289
sg18
g1
(g11
g12
(dtRp4290
sg20
g1
(g11
g12
(dtRp4291
sg22
g1
(g11
g12
(dtRp4292
sbsg24
S'Scr'
p4293
sg26
g27
((lp4294
g29
ag30
aS'sequence'
p4295
ag32
ag33
aS'species'
p4296
atRp4297
sg37
(lp4298
sg120
g4249
sg121
S'RWLSTKDLYSRMELPGLNQNVHGMFIIPLGFGNPMGDVYPRVNNTYWLPPLSLEGPGTGWTVYPPLSHSGPSVDLALQLTSSTLGSLNLTNMRGPLFWTSLLLLTLPVLGGFLFDRNLNTFAGGDPLYHLFWFFGHPEVYIIPAFGSHPTLNKFGMCASIALGLVWSHHLFVGLDDRAYFSAATMIAPTGIKFSWLATTGGQPMLAFLILFTGGTGVLNSVDAFHDTYFVVMAFGLAYFPYNLFWFQFGMPDAGWSSSYQYNPSDDNE'
p4299
sg123
F0.036740000000000002
sg124
g125
sg33
S'35'
p4300
sg127
g1
(g128
g12
(dp4301
g130
I4
sg131
g132
sg133
g134
sg135
g132
sg136
I01
sg34
g137
sg138
g134
sg139
I0
sg140
I0
sg141
I0
sg142
g134
sg35
g132
sg143
I0
stRp4302
sg145
g146
sg147
F1
sg148
Nsg30
S'ScryoA'
p4303
sbasg120
g4216
sg123
F0.18453
sg124
g125
sg33
S'7'
sg127
g1
(g128
g12
(dp4304
g130
I8
sg131
g132
sg133
g134
sg135
g132
sg136
I01
sg34
g173
sg138
g134
sg139
I0
sg140
I0
sg141
I0
sg142
g134
sg35
g132
sg143
I0
stRp4305
sg145
g146
sg147
F0.98999999999999999
sg148
Nsg30
S'NoName'
p4306
sbasg120
g4182
sg123
F0.73307
sg124
g125
sg33
S'104'
p4307
sg127
g1
(g128
g12
(dp4308
g130
I8
sg131
g132
sg133
g134
sg135
g132
sg136
I01
sg34
g173
sg138
g134
sg139
I0
sg140
I0
sg141
I0
sg142
g134
sg35
g132
sg143
I0
stRp4309
sg145
g146
sg147
F0.98999999999999999
sg148
Nsg30
S'NoName'
p4310
sbasg120
g4
sg123
F1.7741899999999999
sg124
g125
sg33
S'54'
p4311
sg127
g1
(g128
g12
(dp4312
g130
I8
sg131
g132
sg133
g134
sg135
g132
sg136
I01
sg34
g173
sg138
g134
sg139
I0
sg140
I0
sg141
I0
sg142
g134
sg35
g132
sg143
I0
stRp4313
sg145
g146
sg147
F1
sg148
Nsg30
S'NoName'
p4314
sbasg31
S'8'
sg120
Nsg123
F0
sg124
g125
sg33
S'43'
p4315
sg34
g173
sg127
g1
(g128
g12
(dp4316
g130
I8
sg131
g132
sg133
g134
sg135
g132
sg136
I01
sg34
g173
sg138
g134
sg139
I0
sg140
I0
sg141
I0
sg142
g134
sg35
S'#833DB4'
p4317
sg143
I0
stRp4318
sg145
g146
sg147
F1
sg148
Nsg35
g4317
sg30
g125
sb.