ccopy_reg
_reconstructor
p1
(cete2.phylo.phylotree
PhyloNode
p2
c__builtin__
object
p3
NtRp4
(dp5
S'_faces'
p6
g1
(cete2.treeview.main
_FaceAreas
p7
g3
NtRp8
(dp9
S'branch-top'
p10
g1
(cete2.treeview.main
FaceContainer
p11
c__builtin__
dict
p12
(dtRp13
sS'float'
p14
g1
(g11
g12
(dtRp15
sS'branch-bottom'
p16
g1
(g11
g12
(dtRp17
sS'aligned'
p18
g1
(g11
g12
(dtRp19
sS'branch-right'
p20
g1
(g11
g12
(dtRp21
sS'float-behind'
p22
g1
(g11
g12
(dtRp23
sbsS'_species'
p24
S'Unknown'
p25
sS'features'
p26
c__builtin__
set
p27
((lp28
S'dist'
p29
aS'name'
p30
aS'bsize'
p31
aS'support'
p32
aS'_nid'
p33
aS'shape'
p34
aS'fgcolor'
p35
atRp36
sS'_children'
p37
(lp38
g1
(g2
g3
NtRp39
(dp40
g6
g1
(g7
g3
NtRp41
(dp42
g10
g1
(g11
g12
(dtRp43
sg14
g1
(g11
g12
(dtRp44
sg16
g1
(g11
g12
(dtRp45
sg18
g1
(g11
g12
(dtRp46
sg20
g1
(g11
g12
(dtRp47
sg22
g1
(g11
g12
(dtRp48
sbsg24
g25
sg26
g27
((lp49
g33
ag32
ag29
ag30
atRp50
sg37
(lp51
g1
(g2
g3
NtRp52
(dp53
g6
g1
(g7
g3
NtRp54
(dp55
g10
g1
(g11
g12
(dtRp56
sg14
g1
(g11
g12
(dtRp57
sg16
g1
(g11
g12
(dtRp58
sg18
g1
(g11
g12
(dtRp59
sg20
g1
(g11
g12
(dtRp60
sg22
g1
(g11
g12
(dtRp61
sbsg24
g25
sg26
g27
((lp62
g33
ag32
ag29
ag30
atRp63
sg37
(lp64
g1
(g2
g3
NtRp65
(dp66
g6
g1
(g7
g3
NtRp67
(dp68
g10
g1
(g11
g12
(dtRp69
sg14
g1
(g11
g12
(dtRp70
sg16
g1
(g11
g12
(dtRp71
sg18
g1
(g11
g12
(dtRp72
sg20
g1
(g11
g12
(dtRp73
sg22
g1
(g11
g12
(dtRp74
sbsg24
g25
sg26
g27
((lp75
g33
ag32
ag29
ag30
atRp76
sg37
(lp77
g1
(g2
g3
NtRp78
(dp79
g6
g1
(g7
g3
NtRp80
(dp81
g10
g1
(g11
g12
(dtRp82
sg14
g1
(g11
g12
(dtRp83
sg16
g1
(g11
g12
(dtRp84
sg18
g1
(g11
g12
(dtRp85
sg20
g1
(g11
g12
(dtRp86
sg22
g1
(g11
g12
(dtRp87
sbsg24
g25
sg26
g27
((lp88
g33
ag32
ag29
ag30
atRp89
sg37
(lp90
g1
(g2
g3
NtRp91
(dp92
g6
g1
(g7
g3
NtRp93
(dp94
g10
g1
(g11
g12
(dtRp95
sg14
g1
(g11
g12
(dtRp96
sg16
g1
(g11
g12
(dtRp97
sg18
g1
(g11
g12
(dtRp98
sg20
g1
(g11
g12
(dtRp99
sg22
g1
(g11
g12
(dtRp100
sbsg24
g25
sg26
g27
((lp101
g33
ag32
ag29
ag30
atRp102
sg37
(lp103
g1
(g2
g3
NtRp104
(dp105
g6
g1
(g7
g3
NtRp106
(dp107
g10
g1
(g11
g12
(dtRp108
sg14
g1
(g11
g12
(dtRp109
sg16
g1
(g11
g12
(dtRp110
sg18
g1
(g11
g12
(dtRp111
sg20
g1
(g11
g12
(dtRp112
sg22
g1
(g11
g12
(dtRp113
sbsg24
S'Yli'
p114
sg26
g27
((lp115
g29
ag30
aS'sequence'
p116
ag32
ag33
aS'species'
p117
atRp118
sg37
(lp119
sS'_up'
p120
g91
sS'sequence'
p121
S'KLNIQRWLFSTNAKDIAVLYFIFALFSAMIGTGLSAMIRLELANTGSPFLHGNTQAFNVVITAHAMLMMFFFVMPALVGGFGNYLMPLMLGASDMAFARLNNISFWLLVPSLMLMLTSALVEAGAGTGWTVYFPLAGIQSHSGPAVDLAIFSLHLSGFSSLLGAINFMTTFINMRTIGMKYENVPLFAWAVLFTAILLLLSLPVLAAGLTMGIFDRNFNTSFFEYAGGGDAVLYQHLFWFFGHPEVYILIMPGFGMISHAVSAIASKPVFGVQGMIYAMGSIGLLGFCVWSHHMFAVGLDSDTRAYFTSATMVIAVPTSIKIFSWLATLYGGTIRLNVTALFALGFIFLFTMGGLTGVVLANSALDIPFHDSYYVVAHFHYVLSMGAVFSIFCGWYLWSPKILGLHYNERLSHIHFWLMFIGVNVTFFPMHFLGLQGMPRRINDYPDAFIGWNQVASLGSIMSIVASMVFIYVVYDQLTNGLHQ--GNKALDSQFKPSFMGTNLN--VEGYTGPTLEWTVSTPPSLHAFNTPAVLY---'
p122
sS'_dist'
p123
F0.00011
sS'_name'
p124
S'NoName'
p125
sg33
S'188'
p126
sS'_img_style'
p127
g1
(cete2.treeview.main
NodeStyle
p128
g12
(dp129
S'size'
p130
I4
sS'hz_line_color'
p131
S'#000000'
p132
sS'faces_bgcolor'
p133
S'#FFFFFF'
p134
sS'vt_line_color'
p135
g132
sS'draw_descendants'
p136
I01
sg34
S'square'
p137
sS'bgcolor'
p138
g134
sS'hz_line_type'
p139
I0
sS'vt_line_width'
p140
I0
sS'vt_line_type'
p141
I0
sS'node_bgcolor'
p142
g134
sg35
S'#000000'
p143
sS'hz_line_width'
p144
I0
stRp145
sS'_speciesFunction'
p146
cete2.phylo.phylotree
_parse_species
p147
sS'_support'
p148
F1
sS'_temp_faces'
p149
Nsg30
S'YlipoB'
p150
sbag1
(g2
g3
NtRp151
(dp152
g6
g1
(g7
g3
NtRp153
(dp154
g10
g1
(g11
g12
(dtRp155
sg14
g1
(g11
g12
(dtRp156
sg16
g1
(g11
g12
(dtRp157
sg18
g1
(g11
g12
(dtRp158
sg20
g1
(g11
g12
(dtRp159
sg22
g1
(g11
g12
(dtRp160
sbsg24
S'Yli'
p161
sg26
g27
((lp162
g29
ag30
aS'sequence'
p163
ag32
ag33
aS'species'
p164
atRp165
sg37
(lp166
sg120
g91
sg121
S'KLNIQRWLFSTNAKDIAVLYFIFALFSAMIGTGLSAMIRLELANTGSPFLHGNTQAFNVVITAHAMLMMFFFVMPALVGGFGNYLMPLMLGASDMAFARLNNISFWLLVPSLMLMLTSALVEAGAGTGWTVYFPLAGIQSHSGPAVDLAIFSLHLSGFSSLLGAINFMTTFINMRTIGMKYENVPLFAWAVLFTAILLLLSLPVLAAGLTMGIFDRNFNTSFFEYAGGGDAVLYQHLFWFFGHPEVYILIMPGFGMISHAVSAIASKPVFGVQGMIYAMWSIGLLGFCVWSHHMFAVGLDSDTRAYFTSATMVIAVPTSIKIFSWLATLYGGTIRLNVTALFALGFIFLFTMGGLTGVVLANSALDIPFHDSYYVVAHFHYVLSMGAVFSIFCGWYLWSPKILGLHYNERLSHIHFWLMFIGVNVTFFPMHFLGLQGMPRRINDYPDAFIGWNQVASLGSIMSIVASMVFIYVVYDQLTNGLHQ--GNKALDSQFKPSFMGTNLN--VEGYTGPTLEWTVSTPPSLHAFNTPAVLY---'
p167
sg123
F0.00048000000000000001
sg124
g125
sg33
S'167'
p168
sg127
g1
(g128
g12
(dp169
g130
I4
sg131
g132
sg133
g134
sg135
g132
sg136
I01
sg34
g137
sg138
g134
sg139
I0
sg140
I0
sg141
I0
sg142
g134
sg35
g143
sg144
I0
stRp170
sg146
g147
sg148
F1
sg149
Nsg30
S'YlipoA'
p171
sbasg120
g78
sg123
F0.02656
sg124
g125
sg33
S'147'
p172
sg127
g1
(g128
g12
(dp173
g130
I6
sg131
g132
sg133
g134
sg135
g132
sg136
I01
sg34
S'circle'
p174
sg138
g134
sg139
I0
sg140
I0
sg141
I0
sg142
g134
sg35
S'#0030c1'
p175
sg144
I0
stRp176
sg146
g147
sg148
F1
sg149
Nsg30
S'NoName'
p177
sbag1
(g2
g3
NtRp178
(dp179
g6
g1
(g7
g3
NtRp180
(dp181
g10
g1
(g11
g12
(dtRp182
sg14
g1
(g11
g12
(dtRp183
sg16
g1
(g11
g12
(dtRp184
sg18
g1
(g11
g12
(dtRp185
sg20
g1
(g11
g12
(dtRp186
sg22
g1
(g11
g12
(dtRp187
sbsg24
g25
sg26
g27
((lp188
g33
ag32
ag29
ag30
atRp189
sg37
(lp190
g1
(g2
g3
NtRp191
(dp192
g6
g1
(g7
g3
NtRp193
(dp194
g10
g1
(g11
g12
(dtRp195
sg14
g1
(g11
g12
(dtRp196
sg16
g1
(g11
g12
(dtRp197
sg18
g1
(g11
g12
(dtRp198
sg20
g1
(g11
g12
(dtRp199
sg22
g1
(g11
g12
(dtRp200
sbsg24
S'Cga'
p201
sg26
g27
((lp202
g29
ag30
aS'sequence'
p203
ag32
ag33
aS'species'
p204
atRp205
sg37
(lp206
sg120
g178
sg121
S'KLNIQRWLFSTNAKDIAVLYFIFVIFLAMIGTGLSAMIRLELANTGSPFLNHNTQAFNVVITAHAILMIFFFVMPALVGGFGNYLMPLMLGASDMAFARLNNISFWLLVPSLMLMLTSALVEAGAGTGWTVYFPLAGMQSHSGPAVDLAIFSLHLSGFSSLLGAINFMTTFINMRTIGMKYENVPLFAWAVLFTAILLLLSLPVLAAGLTMGIFDRNFNTSFFEYAGGGDAVLYQHLFWFFGHPEVYILIIPGFGMISHAVSAIASKPVFGVQGMIYAMGSIGLLGFCVWSHHMFAVGLDSDTRAYFTSATMVIAVPTSIKIFSWLSTLYGGTIRLNVTALFALGFIFLFTIGGLTGVVLANSALDIPFHDSYYVVAHFHYVLSMGAVFSIFCGWYLWSPKILGLHYNERLSHIHFWLMFMGVNVTFFPMHFLGLQGMPRRINDYPDAFIGWNQVASLGSIMSIVASMVFIYVVYDQLTNGLHQ--GNKALDSQFKPSFMGTNLN--VEGYTGPTLEWTVSTPPSLHAFNTPAVLY---'
p207
sg123
F0.016299999999999999
sg124
g125
sg33
S'125'
p208
sg127
g1
(g128
g12
(dp209
g130
I4
sg131
g132
sg133
g134
sg135
g132
sg136
I01
sg34
g137
sg138
g134
sg139
I0
sg140
I0
sg141
I0
sg142
g134
sg35
g143
sg144
I0
stRp210
sg146
g147
sg148
F1
sg149
Nsg30
S'CgallA'
p211
sbag1
(g2
g3
NtRp212
(dp213
g6
g1
(g7
g3
NtRp214
(dp215
g10
g1
(g11
g12
(dtRp216
sg14
g1
(g11
g12
(dtRp217
sg16
g1
(g11
g12
(dtRp218
sg18
g1
(g11
g12
(dtRp219
sg20
g1
(g11
g12
(dtRp220
sg22
g1
(g11
g12
(dtRp221
sbsg24
S'Cde'
p222
sg26
g27
((lp223
g29
ag30
aS'sequence'
p224
ag32
ag33
aS'species'
p225
atRp226
sg37
(lp227
sg120
g178
sg121
S'KLNIQRWLFSTNAKDIAVLYFIFALFSAMIGTGLSAMIRLELANTGSPFLNHNTQAFNVVITAHAILMIFFFVMPALVGGFGNYLMPLMLGASDMAFARLNNISFWLLVPSLMLMLTSALVEAGAGTGWTVYFPLAGIQSHSGPAVDLAIFSLHLSGFSSLLGAINFMTTFINMRTIGMKYENVPLFAWAVLFTAILLLLSLPVLAAGLTMGIFDRNFNTSFFEYAGGGDAVLYQHLFFFNGHPEVYILIMPGFGMISHAVSAIASKPVFGVQGMIYAMGSIGLLGFCVWSHHMFAVGLDSDTRAYFTSATMVIAVPTSIKIFSWLATLYGGTIRLNVTALFALGFIFLFTMGGLTGVVLANSALDIPFHDSYYVVAHFHYVLSMGAVFSIFCGWYLWSPKILGLHYNERLSHMHFWLMFMGVNVTFFPMHFLGLQGMPRRINDYPDAFMGWNQVASLGSIMSIVASMVFIYVVYDQLTNGLHQ--GNKALDSQFKPSFMGTNLN--VEGYTGPTLEWTVSTPPSLHAFNTPAVLY---'
p228
sg123
F0.018610000000000002
sg124
g125
sg33
S'190'
p229
sg127
g1
(g128
g12
(dp230
g130
I4
sg131
g132
sg133
g134
sg135
g132
sg136
I01
sg34
g137
sg138
g134
sg139
I0
sg140
I0
sg141
I0
sg142
g134
sg35
g143
sg144
I0
stRp231
sg146
g147
sg148
F1
sg149
Nsg30
S'CdefoA'
p232
sbasg120
g78
sg123
F0.00282
sg124
g125
sg33
S'172'
p233
sg127
g1
(g128
g12
(dp234
g130
I6
sg131
g132
sg133
g134
sg135
g132
sg136
I01
sg34
g174
sg138
g134
sg139
I0
sg140
I0
sg141
I0
sg142
g134
sg35
g175
sg144
I0
stRp235
sg146
g147
sg148
F0.96999999999999997
sg149
Nsg30
S'NoName'
p236
sbasg120
g65
sg123
F0.00479
sg124
g125
sg33
S'136'
p237
sg127
g1
(g128
g12
(dp238
g130
I6
sg131
g132
sg133
g134
sg135
g132
sg136
I01
sg34
g174
sg138
g134
sg139
I0
sg140
I0
sg141
I0
sg142
g134
sg35
g175
sg144
I0
stRp239
sg146
g147
sg148
F0.80000000000000004
sg149
Nsg30
S'NoName'
p240
sbag1
(g2
g3
NtRp241
(dp242
g6
g1
(g7
g3
NtRp243
(dp244
g10
g1
(g11
g12
(dtRp245
sg14
g1
(g11
g12
(dtRp246
sg16
g1
(g11
g12
(dtRp247
sg18
g1
(g11
g12
(dtRp248
sg20
g1
(g11
g12
(dtRp249
sg22
g1
(g11
g12
(dtRp250
sbsg24
S'Cal'
p251
sg26
g27
((lp252
g29
ag30
aS'sequence'
p253
ag32
ag33
aS'species'
p254
atRp255
sg37
(lp256
sg120
g65
sg121
S'KLNIQRWLFSTNAKDIAMLYFMFALFSAMMGTGLSAMIRLELANTGSPFLNGNTQAFNVVITAHAILMIFFFVMPALVGGFGNYLMPLMLGASDMAFARLNNISFWLLVPSMMLMLTSALVEAGAGTGWTVYFPLAGMQSHSGPAVDLAIFSLHLAGFSSLLGAINFITTFINMRTIGMKYENVPLFAWAVLFTAILLLLSLPVLAAGLTMGIFDRNFNTSFFEYAGGGDAVLYQHLFWFFGHPEVYILIMPGFGMISHAVSAIASKPVFGVQGMIYAMGSIGLLGFCVWSHHMFAVGLDSDTRAYFTSATMVIAVPTSIKIFSWLATLYGGTIRLNVTALFALGFIFLFTIGGLTGVVLANSALDIPFHDSYYVVAHFHYVLSMGAVFSIFCGWYLWSPKILGLHYNERLSHMHFWLMFIGVNVTFFPMHFLGLQGMPRRINDYPDAFIGWNQVASLGSMISIVASIVFIYVVYDQLTNGLHQ--GNKALESQFKPSFMGTNLN--VEGYTGPTLEWTVSTPPSLHAFNTPAVLY---'
p257
sg123
F0.035970000000000002
sg124
g125
sg33
S'123'
p258
sg127
g1
(g128
g12
(dp259
g130
I4
sg131
g132
sg133
g134
sg135
g132
sg136
I01
sg34
g137
sg138
g134
sg139
I0
sg140
I0
sg141
I0
sg142
g134
sg35
g143
sg144
I0
stRp260
sg146
g147
sg148
F1
sg149
Nsg30
S'CalimA'
p261
sbasg120
g52
sg123
F1.1444799999999999
sg124
g125
sg33
S'155'
p262
sg127
g1
(g128
g12
(dp263
g130
I6
sg131
g132
sg133
g134
sg135
g132
sg136
I01
sg34
g174
sg138
g134
sg139
I0
sg140
I0
sg141
I0
sg142
g134
sg35
g175
sg144
I0
stRp264
sg146
g147
sg148
F0.97999999999999998
sg149
Nsg30
S'NoName'
p265
sbag1
(g2
g3
NtRp266
(dp267
g6
g1
(g7
g3
NtRp268
(dp269
g10
g1
(g11
g12
(dtRp270
sg14
g1
(g11
g12
(dtRp271
sg16
g1
(g11
g12
(dtRp272
sg18
g1
(g11
g12
(dtRp273
sg20
g1
(g11
g12
(dtRp274
sg22
g1
(g11
g12
(dtRp275
sbsg24
g25
sg26
g27
((lp276
g33
ag32
ag29
ag30
atRp277
sg37
(lp278
g1
(g2
g3
NtRp279
(dp280
g6
g1
(g7
g3
NtRp281
(dp282
g10
g1
(g11
g12
(dtRp283
sg14
g1
(g11
g12
(dtRp284
sg16
g1
(g11
g12
(dtRp285
sg18
g1
(g11
g12
(dtRp286
sg20
g1
(g11
g12
(dtRp287
sg22
g1
(g11
g12
(dtRp288
sbsg24
g25
sg26
g27
((lp289
g33
ag32
ag29
ag30
atRp290
sg37
(lp291
g1
(g2
g3
NtRp292
(dp293
g6
g1
(g7
g3
NtRp294
(dp295
g10
g1
(g11
g12
(dtRp296
sg14
g1
(g11
g12
(dtRp297
sg16
g1
(g11
g12
(dtRp298
sg18
g1
(g11
g12
(dtRp299
sg20
g1
(g11
g12
(dtRp300
sg22
g1
(g11
g12
(dtRp301
sbsg24
g25
sg26
g27
((lp302
g33
ag32
ag29
ag30
atRp303
sg37
(lp304
g1
(g2
g3
NtRp305
(dp306
g6
g1
(g7
g3
NtRp307
(dp308
g10
g1
(g11
g12
(dtRp309
sg14
g1
(g11
g12
(dtRp310
sg16
g1
(g11
g12
(dtRp311
sg18
g1
(g11
g12
(dtRp312
sg20
g1
(g11
g12
(dtRp313
sg22
g1
(g11
g12
(dtRp314
sbsg24
g25
sg26
g27
((lp315
g33
ag32
ag29
ag30
atRp316
sg37
(lp317
g1
(g2
g3
NtRp318
(dp319
g6
g1
(g7
g3
NtRp320
(dp321
g10
g1
(g11
g12
(dtRp322
sg14
g1
(g11
g12
(dtRp323
sg16
g1
(g11
g12
(dtRp324
sg18
g1
(g11
g12
(dtRp325
sg20
g1
(g11
g12
(dtRp326
sg22
g1
(g11
g12
(dtRp327
sbsg24
S'Mst'
p328
sg26
g27
((lp329
g29
ag30
aS'sequence'
p330
ag32
ag33
aS'species'
p331
atRp332
sg37
(lp333
sg120
g305
sg121
S'KLFMTRWLFSTNCKDIAMLYMMLAMFSGLVGTGLSLMMRLELAGPTPQMLQNNGQVFNVVMSAHAIFMMFFLVMPMSVGFFGNYLMPLMLGCADMSLARLNNMSFWLLVPSVLLALSSTLVESGAGTGWTVYPPLSSVQSHSGASVDLVMFSLHMSGMSSLLGAINFMVTVMNMRTNGMTYSKLTLFSWSIVITAVLLLLSLPVLASGLTMLLTDRNFNTSFFEVASGGDPVLYQHLFWFFGHPEVYILIIPGFGMVSHIVSTYAKKPVFGQLGMVYAMASMGFLGFCVWSHHMYVVGLDTDTRAYFTSATMIMAMPTGVKMFSWLATLYGGSLRFTTPFLYALGFMFLFTVGGVTGVALANASLDMAFHDTYYVVAHFHYVLSLGAVFSLFAGYYFWSPKVLGLYYNERLGQMQFMTFFMGANLTFMPLHFLGMQGMPRRMPNYPDAYLGWNYMASFGSMVSLMSLMLFFYMVYNQLVYGLENK-NTVAVSNLYEPDFMESNLMFINNSMKATSMEWMTSTPPALHTFSSPALQS---'
p334
sg123
F0.087190000000000004
sg124
g125
sg33
S'185'
p335
sg127
g1
(g128
g12
(dp336
g130
I4
sg131
g132
sg133
g134
sg135
g132
sg136
I01
sg34
g137
sg138
g134
sg139
I0
sg140
I0
sg141
I0
sg142
g134
sg35
g143
sg144
I0
stRp337
sg146
g147
sg148
F1
sg149
Nsg30
S'MstarA'
p338
sbag1
(g2
g3
NtRp339
(dp340
g6
g1
(g7
g3
NtRp341
(dp342
g10
g1
(g11
g12
(dtRp343
sg14
g1
(g11
g12
(dtRp344
sg16
g1
(g11
g12
(dtRp345
sg18
g1
(g11
g12
(dtRp346
sg20
g1
(g11
g12
(dtRp347
sg22
g1
(g11
g12
(dtRp348
sbsg24
S'Min'
p349
sg26
g27
((lp350
g29
ag30
aS'sequence'
p351
ag32
ag33
aS'species'
p352
atRp353
sg37
(lp354
sg120
g305
sg121
S'KQFVTRWLFSTNCKDIAMLYLMLAVFSGLVGTGLSLIIRLELAGPTPQMLQNNGQVFNVVISAHAIFMIFFLVMPMAVGFFGNYLVPLMLGCADMSLARLNNISFWLLVPSVLLALASTLVESGAGTGWTVYPPLSSVQSHSGPSVDLVMFSLHISGMSSLLGSMNFMVTVMNMRTNGITYSKLTLFSWAMVMTSVLLLLSLPVLASGLTMLLTDRNFNTSFFEVASGGDPVLYQHLFYKMMLFSMYMLMMPGFGMVSHIVSAYAKKPVFGQLGMMYAMASIGFLGFCVWSHHMYVVGLDTDTRAYFTSATMMIAMPTGVKMFSWLATLYGGSLRFTTPFLYAMGFMFLFTMGGVTGVCLANASLDIAFHDTYYVVAHFHYVLSLGAVFSLFAGYYFWSPKMLGLYYNERLGQIQFTTFFIGANLTFMPLHFLGMQGMPRRMPNYPDAYLGWNYMASFGSMVSLVSLMLFFYIVYNQLVYGLENK-NTVAVANLYEPDFMESNLMFTNHSMKASSIEWITSTPPALHTFSSPALQS---'
p355
sg123
F0.040719999999999999
sg124
g125
sg33
S'181'
p356
sg127
g1
(g128
g12
(dp357
g130
I4
sg131
g132
sg133
g134
sg135
g132
sg136
I01
sg34
g137
sg138
g134
sg139
I0
sg140
I0
sg141
I0
sg142
g134
sg35
g143
sg144
I0
stRp358
sg146
g147
sg148
F1
sg149
Nsg30
S'MingeA'
p359
sbasg120
g292
sg123
F0.037420000000000002
sg124
g125
sg33
S'156'
p360
sg127
g1
(g128
g12
(dp361
g130
I6
sg131
g132
sg133
g134
sg135
g132
sg136
I01
sg34
g174
sg138
g134
sg139
I0
sg140
I0
sg141
I0
sg142
g134
sg35
g175
sg144
I0
stRp362
sg146
g147
sg148
F0.98999999999999999
sg149
Nsg30
S'NoName'
p363
sbag1
(g2
g3
NtRp364
(dp365
g6
g1
(g7
g3
NtRp366
(dp367
g10
g1
(g11
g12
(dtRp368
sg14
g1
(g11
g12
(dtRp369
sg16
g1
(g11
g12
(dtRp370
sg18
g1
(g11
g12
(dtRp371
sg20
g1
(g11
g12
(dtRp372
sg22
g1
(g11
g12
(dtRp373
sbsg24
g25
sg26
g27
((lp374
g33
ag32
ag29
ag30
atRp375
sg37
(lp376
g1
(g2
g3
NtRp377
(dp378
g6
g1
(g7
g3
NtRp379
(dp380
g10
g1
(g11
g12
(dtRp381
sg14
g1
(g11
g12
(dtRp382
sg16
g1
(g11
g12
(dtRp383
sg18
g1
(g11
g12
(dtRp384
sg20
g1
(g11
g12
(dtRp385
sg22
g1
(g11
g12
(dtRp386
sbsg24
g25
sg26
g27
((lp387
g33
ag32
ag29
ag30
atRp388
sg37
(lp389
g1
(g2
g3
NtRp390
(dp391
g6
g1
(g7
g3
NtRp392
(dp393
g10
g1
(g11
g12
(dtRp394
sg14
g1
(g11
g12
(dtRp395
sg16
g1
(g11
g12
(dtRp396
sg18
g1
(g11
g12
(dtRp397
sg20
g1
(g11
g12
(dtRp398
sg22
g1
(g11
g12
(dtRp399
sbsg24
S'Mte'
p400
sg26
g27
((lp401
g29
ag30
aS'sequence'
p402
ag32
ag33
aS'species'
p403
atRp404
sg37
(lp405
sg120
g377
sg121
S'NKFITRWLFSTNCKDIAILYLIFAVFSGLIGTGLSLIIRLELAGPTPQILADNGQVFNVVISAHAIFMIFFLVMPMAVGFFGNYLVPLMLGCADMSLARLNNISFWLLVPSLLLAVASTLVETGAGTGWTVYPPLSSIQSHSGPSVDMVIFSLHISGISSLLGAINFIVTVMNMRTNGITYSKLTLFSWAIVITAVLLLLSLPVLASGLTMLLTDRNFNTSFFEAASGGDPVLYQHLFWFFGHPEVYILIIPGFGIVSHIVSAYAKKPVFGQLGMVYAMASIGFLGFCVWSHHMYVVGLDTDTRAYFTSATMIIAIPTGVKIFSWLATLYGGSLRFTTPFLYALGFIFLFTVGGVTGVALANASLDIAFHDTYYVVAHFHYVLSLGAVFSLFAGYYFWSPKVLGLYYNERLAQIQFYTLFIGTNLTFMPMHALGLQGMPRRIPQYPDAYAGWNYVSSFGSIISLISLVLFFYVVYNQLVYGLENK-NTVAVANLSEPDFLESNQIFVNHSMKATSIEWITSTPPALHTFNSPALQS---'
p406
sg123
F0.042599999999999999
sg124
g125
sg33
S'208'
p407
sg127
g1
(g128
g12
(dp408
g130
I4
sg131
g132
sg133
g134
sg135
g132
sg136
I01
sg34
g137
sg138
g134
sg139
I0
sg140
I0
sg141
I0
sg142
g134
sg35
g143
sg144
I0
stRp409
sg146
g147
sg148
F1
sg149
Nsg30
S'MtetrA'
p410
sbag1
(g2
g3
NtRp411
(dp412
g6
g1
(g7
g3
NtRp413
(dp414
g10
g1
(g11
g12
(dtRp415
sg14
g1
(g11
g12
(dtRp416
sg16
g1
(g11
g12
(dtRp417
sg18
g1
(g11
g12
(dtRp418
sg20
g1
(g11
g12
(dtRp419
sg22
g1
(g11
g12
(dtRp420
sbsg24
g25
sg26
g27
((lp421
g33
ag32
ag29
ag30
atRp422
sg37
(lp423
g1
(g2
g3
NtRp424
(dp425
g6
g1
(g7
g3
NtRp426
(dp427
g10
g1
(g11
g12
(dtRp428
sg14
g1
(g11
g12
(dtRp429
sg16
g1
(g11
g12
(dtRp430
sg18
g1
(g11
g12
(dtRp431
sg20
g1
(g11
g12
(dtRp432
sg22
g1
(g11
g12
(dtRp433
sbsg24
S'Mma'
p434
sg26
g27
((lp435
g29
ag30
aS'sequence'
p436
ag32
ag33
aS'species'
p437
atRp438
sg37
(lp439
sg120
g411
sg121
S'NKFITRWLFSTNCKDIAVLYLIFAVFSGLIGTGLSLIIRLELAGPTPQILADNGQVFNVVISAHAIFMIFFLVMPMAVGFFGNYLVPLMLGCADMSLARLNNISFWLLVPSLLLAVASTLVETGPGTGWTVYPPLSSIQSHSGPSVDMVIFSLHISGISSLLGAINFIVTVMNMRTNGITYSKLTLFSWAILITAVLLLLSLPVLASGLTMLLTDRNFNTSFFEAASGGDPVLYQHLFWFFGHPEVYILIIPGFGIVSHIVSAYAKKPVFGQLGMVYAMASIGFLGFCVWSHHMYVVGLDTDTRAYFTSATMIIAIPTGVKIFSWLATLYGGSLRFTTPFLYALGFIFLFTVGGVTGVALANASLDIAFHDSYYVVAHFHYVLSLGAVFSLFAGYYFWSPKVLGLYYNERLAQIQFFTLFIGTNLTFMPMHALGLQGMPRRIPQYPDAYAGWNYVSSFGSIISLISLVLFFYVVYNQLVYGLENK-NTVAVANLSEPDFLESNQIFVNNSMKATSIEWITSTPPALHTFNSPALQS---'
p440
sg123
F0.00055000000000000003
sg124
g125
sg33
S'203'
p441
sg127
g1
(g128
g12
(dp442
g130
I4
sg131
g132
sg133
g134
sg135
g132
sg136
I01
sg34
g137
sg138
g134
sg139
I0
sg140
I0
sg141
I0
sg142
g134
sg35
g143
sg144
I0
stRp443
sg146
g147
sg148
F1
sg149
Nsg30
S'MmagnB'
p444
sbag1
(g2
g3
NtRp445
(dp446
g6
g1
(g7
g3
NtRp447
(dp448
g10
g1
(g11
g12
(dtRp449
sg14
g1
(g11
g12
(dtRp450
sg16
g1
(g11
g12
(dtRp451
sg18
g1
(g11
g12
(dtRp452
sg20
g1
(g11
g12
(dtRp453
sg22
g1
(g11
g12
(dtRp454
sbsg24
S'Mma'
p455
sg26
g27
((lp456
g29
ag30
aS'sequence'
p457
ag32
ag33
aS'species'
p458
atRp459
sg37
(lp460
sg120
g411
sg121
S'NKFITRWLFSTNCKDIAVLYLIFAVFSGLIGTGLSLIIRLELAGPTPQILADNGQVFNVVISAHAIFMIFFLVMPMAVGFFGNYLVPLMLGCADMSLARLNNISFWLLVPSLLLAVASTLVETGPGTGWTVYPPLSSIQSHSGPSVDMVIFSLHISGISSLLGAINFIVTVMNMRTNGITYSKLTLFSWAILITAVLLLLSLPVLASGLTMLLTDRNFNTSFFEAASGGDPVLYQHLFWFFGHPEVYILIIPGFGIVSHIVSAYAKKPVFGQLGMVYAMASIGFLGFCVWSHHMYVVGLDTDTRAYFTSATMIIAIPTGVKIFSWLATLYGGSLRFTTPFLYALGFIFLFTVGGVTGVALANASLDIAFHDSYYVVAHFHYVLSLGAVFSLFAGYYFWSPKVLGLYYNERLAQIQFFTLFIGTNLTFMPMHALGLQGMPRRIPQYPDAYAGWNYVSSFGSIISLISLVLFFYVVYNQLVYGLENK-NTVAVANLSEPDFLESNQIFVNNSMKATSIEWITSTPPALHTFNSPALQS---'
p461
sg123
F0.00088000000000000003
sg124
g125
sg33
S'194'
p462
sg127
g1
(g128
g12
(dp463
g130
I4
sg131
g132
sg133
g134
sg135
g132
sg136
I01
sg34
g137
sg138
g134
sg139
I0
sg140
I0
sg141
I0
sg142
g134
sg35
g143
sg144
I0
stRp464
sg146
g147
sg148
F1
sg149
Nsg30
S'MmagnA'
p465
sbasg120
g377
sg123
F0.011140000000000001
sg124
g125
sg33
S'178'
p466
sg127
g1
(g128
g12
(dp467
g130
I6
sg131
g132
sg133
g134
sg135
g132
sg136
I01
sg34
g174
sg138
g134
sg139
I0
sg140
I0
sg141
I0
sg142
g134
sg35
g175
sg144
I0
stRp468
sg146
g147
sg148
F0.98999999999999999
sg149
Nsg30
S'NoName'
p469
sbasg120
g364
sg123
F0.11189
sg124
g125
sg33
S'209'
p470
sg127
g1
(g128
g12
(dp471
g130
I6
sg131
g132
sg133
g134
sg135
g132
sg136
I01
sg34
g174
sg138
g134
sg139
I0
sg140
I0
sg141
I0
sg142
g134
sg35
g175
sg144
I0
stRp472
sg146
g147
sg148
F0.98999999999999999
sg149
Nsg30
S'NoName'
p473
sbag1
(g2
g3
NtRp474
(dp475
g6
g1
(g7
g3
NtRp476
(dp477
g10
g1
(g11
g12
(dtRp478
sg14
g1
(g11
g12
(dtRp479
sg16
g1
(g11
g12
(dtRp480
sg18
g1
(g11
g12
(dtRp481
sg20
g1
(g11
g12
(dtRp482
sg22
g1
(g11
g12
(dtRp483
sbsg24
g25
sg26
g27
((lp484
g33
ag32
ag29
ag30
atRp485
sg37
(lp486
g1
(g2
g3
NtRp487
(dp488
g6
g1
(g7
g3
NtRp489
(dp490
g10
g1
(g11
g12
(dtRp491
sg14
g1
(g11
g12
(dtRp492
sg16
g1
(g11
g12
(dtRp493
sg18
g1
(g11
g12
(dtRp494
sg20
g1
(g11
g12
(dtRp495
sg22
g1
(g11
g12
(dtRp496
sbsg24
S'Scl'
p497
sg26
g27
((lp498
g29
ag30
aS'sequence'
p499
ag32
ag33
aS'species'
p500
atRp501
sg37
(lp502
sg120
g474
sg121
S'KQFMTRWLFSTNCKDMAVLYMMFAMFSGLMGTGLSLMMRLELAGPTPQILQNNGQMFNVVMSAHAIFMMFFLVMPMAVGFFGNYLVPLMLGCADMSLARLNNISFWLLVPSLLLAVASTLVEAGPGTGWTVYPPLSGMQSHSGPSVDMVMFSLHMSGMSSLLGAINFMVTVMNMRTNGITYSKLTLFSWAIVITAVLLLLSLPVLAAGLTMLLTDRNFNTSFFESAAGGDPVLYQHLFWFFGHPEVYMLIMPGFGMVSHIISTYAKKPMFGKLGMVYAMASMGFLGFCVWSHHMYVVGLDTDTRAYFTAATMMIAMPTGVKMFSWLATLYGGSLRFTTPFLYTLGFMFLFTMGGVTGVALANASLDIAFHDTYYVVAHFHYVLSLGAVFSLFAGYYFWSPKVLGLYYNERLGQIQFMTLFMGANLTFMPLHFLGLQGMPRRIPNYPDAYYGWNLMASFGSMISLMSLMLFFYIIYNQLVHGLENK-NTVAVANIYEPDFLESNLIFTNNCLKATSMEWITSTPPALHTFSSPALQS---'
p503
sg123
F0.020899999999999998
sg124
g125
sg33
S'116'
p504
sg127
g1
(g128
g12
(dp505
g130
I4
sg131
g132
sg133
g134
sg135
g132
sg136
I01
sg34
g137
sg138
g134
sg139
I0
sg140
I0
sg141
I0
sg142
g134
sg35
g143
sg144
I0
stRp506
sg146
g147
sg148
F1
sg149
Nsg30
S'SclavA'
p507
sbag1
(g2
g3
NtRp508
(dp509
g6
g1
(g7
g3
NtRp510
(dp511
g10
g1
(g11
g12
(dtRp512
sg14
g1
(g11
g12
(dtRp513
sg16
g1
(g11
g12
(dtRp514
sg18
g1
(g11
g12
(dtRp515
sg20
g1
(g11
g12
(dtRp516
sg22
g1
(g11
g12
(dtRp517
sbsg24
S'Msp'
p518
sg26
g27
((lp519
g29
ag30
aS'sequence'
p520
ag32
ag33
aS'species'
p521
atRp522
sg37
(lp523
sg120
g474
sg121
S'KQFMTRWLFSTNCKDMAVLYMMFAMFSGLMGTGLSLMMRLELAGPTPQMLQNNGQMFNVVMSAHAIFMMFFLVMPMAVGFFGNYLVPLMLGCADMSLARLNNISFWLLVPSLLLAVASTLVEAGPGTGWTVYPPLSGMQSHSGPSVDMVMFSLHMSGMSSLLGAMNFMVTVMNMRTNGITYSKLTLFSWAIVITAVLLLLSLPVLAAGLTMLLTDRNFNTSFFESAAGGDPVLYQHLFWFFGHPEVYMLIMPGFGMVSHIISTYAKKPMFGKLGMVYAMASMGFLGFCVWSHHMYVVGLDTDTRAYFTAATMIIAMPTGVKMFSWLATLYGGSLRFTTPFLYTLGFMFLFTIGGVTGVALANASLDIAFHDTYYVVAHFHYVLSLGAVFSLFAGYYFWSPKVLGLYYNERLGQIQFMTLFMGANLTFMPLHFLGLQGMPRRMPNYPDAYYGWNLMASFGSMISLMSLILFFYIIYNQLVHGLENK-NSVAVANIYEPDFLESNLIFTNNCLKATSMEWITSTPPALHTFSSPALQS---'
p524
sg123
F0.13538
sg124
g125
sg33
S'199'
p525
sg127
g1
(g128
g12
(dp526
g130
I4
sg131
g132
sg133
g134
sg135
g132
sg136
I01
sg34
g137
sg138
g134
sg139
I0
sg140
I0
sg141
I0
sg142
g134
sg35
g143
sg144
I0
stRp527
sg146
g147
sg148
F1
sg149
Nsg30
S'MspicA'
p528
sbasg120
g364
sg123
F0.10536
sg124
g125
sg33
S'79'
p529
sg127
g1
(g128
g12
(dp530
g130
I6
sg131
g132
sg133
g134
sg135
g132
sg136
I01
sg34
g174
sg138
g134
sg139
I0
sg140
I0
sg141
I0
sg142
g134
sg35
g175
sg144
I0
stRp531
sg146
g147
sg148
F0.98999999999999999
sg149
Nsg30
S'NoName'
p532
sbasg120
g292
sg123
F0.03209
sg124
g125
sg33
S'204'
p533
sg127
g1
(g128
g12
(dp534
g130
I6
sg131
g132
sg133
g134
sg135
g132
sg136
I01
sg34
g174
sg138
g134
sg139
I0
sg140
I0
sg141
I0
sg142
g134
sg35
g175
sg144
I0
stRp535
sg146
g147
sg148
F0.98999999999999999
sg149
Nsg30
S'NoName'
p536
sbasg120
g279
sg123
F0.32869999999999999
sg124
g125
sg33
S'157'
p537
sg127
g1
(g128
g12
(dp538
g130
I6
sg131
g132
sg133
g134
sg135
g132
sg136
I01
sg34
g174
sg138
g134
sg139
I0
sg140
I0
sg141
I0
sg142
g134
sg35
g175
sg144
I0
stRp539
sg146
g147
sg148
F0.98999999999999999
sg149
Nsg30
S'NoName'
p540
sbag1
(g2
g3
NtRp541
(dp542
g6
g1
(g7
g3
NtRp543
(dp544
g10
g1
(g11
g12
(dtRp545
sg14
g1
(g11
g12
(dtRp546
sg16
g1
(g11
g12
(dtRp547
sg18
g1
(g11
g12
(dtRp548
sg20
g1
(g11
g12
(dtRp549
sg22
g1
(g11
g12
(dtRp550
sbsg24
g25
sg26
g27
((lp551
g33
ag32
ag29
ag30
atRp552
sg37
(lp553
g1
(g2
g3
NtRp554
(dp555
g6
g1
(g7
g3
NtRp556
(dp557
g10
g1
(g11
g12
(dtRp558
sg14
g1
(g11
g12
(dtRp559
sg16
g1
(g11
g12
(dtRp560
sg18
g1
(g11
g12
(dtRp561
sg20
g1
(g11
g12
(dtRp562
sg22
g1
(g11
g12
(dtRp563
sbsg24
g25
sg26
g27
((lp564
g33
ag32
ag29
ag30
atRp565
sg37
(lp566
g1
(g2
g3
NtRp567
(dp568
g6
g1
(g7
g3
NtRp569
(dp570
g10
g1
(g11
g12
(dtRp571
sg14
g1
(g11
g12
(dtRp572
sg16
g1
(g11
g12
(dtRp573
sg18
g1
(g11
g12
(dtRp574
sg20
g1
(g11
g12
(dtRp575
sg22
g1
(g11
g12
(dtRp576
sbsg24
S'Cze'
p577
sg26
g27
((lp578
g29
ag30
aS'sequence'
p579
ag32
ag33
aS'species'
p580
atRp581
sg37
(lp582
sg120
g554
sg121
S'YHWVESWLFSTNCQNMSILYGMFSLFSGLVGLSLSVLMRIELSSPNPQMLMHNGQLWNVLMTAHALFMVFYLVMPMTMGALANYLVPLQMGSNDTAFPRMNNLAFVVLLPSMLFAVLSCLIDEGPGSGWTLYPPLTSLQSHSGSSMDMAMFALHLSGLSSIFGAINLMVTIINMRANGMDYSKLPLFVWSVLMTAVLMMLALPVLAAGLTMLLMDRNFNTSFFVVSGGGDPLLYEHIFWFFGHPEVYILIVPVFGVVSQIVQVYAKKPMFGKMGMIYAMASIGFLGFCVWSHHMFTVGLDADSRAYFSGASLMIAMPTGSKMFSWLATIYGGTLRWTTPLLYAVGFMVLFTMGGVTGVVMANSSLDIMFHDTYYVVAHFHYVLSLGVVFGVFAAYYFWSPKMFGLYYNETLAQMQFWILFIGSNTTFMPLHFLGLQGLPRRYPNYPDAYYGWNLMASFGSIISTISIVLFFYIMYDQFVNGLNN--NQKASPRALDPDFTESNIIFNYNSNRTSSLEWASENPAPLHSYNSTPIM----'
p583
sg123
F1.5682799999999999
sg124
g125
sg33
S'0'
sg127
g1
(g128
g12
(dp584
g130
I4
sg131
g132
sg133
g134
sg135
g132
sg136
I01
sg34
g137
sg138
g134
sg139
I0
sg140
I0
sg141
I0
sg142
g134
sg35
g143
sg144
I0
stRp585
sg146
g147
sg148
F1
sg149
Nsg30
S'CzempA'
p586
sbag1
(g2
g3
NtRp587
(dp588
g6
g1
(g7
g3
NtRp589
(dp590
g10
g1
(g11
g12
(dtRp591
sg14
g1
(g11
g12
(dtRp592
sg16
g1
(g11
g12
(dtRp593
sg18
g1
(g11
g12
(dtRp594
sg20
g1
(g11
g12
(dtRp595
sg22
g1
(g11
g12
(dtRp596
sbsg24
g25
sg26
g27
((lp597
g33
ag32
ag29
ag30
atRp598
sg37
(lp599
g1
(g2
g3
NtRp600
(dp601
g6
g1
(g7
g3
NtRp602
(dp603
g10
g1
(g11
g12
(dtRp604
sg14
g1
(g11
g12
(dtRp605
sg16
g1
(g11
g12
(dtRp606
sg18
g1
(g11
g12
(dtRp607
sg20
g1
(g11
g12
(dtRp608
sg22
g1
(g11
g12
(dtRp609
sbsg24
S'Csa'
p610
sg26
g27
((lp611
g29
ag30
aS'sequence'
p612
ag32
ag33
aS'species'
p613
atRp614
sg37
(lp615
sg120
g587
sg121
S'-------------------------------------MRLELAGPNAQMLYNNGQLFNVVMSAHAMFMMFFFVMPLSMGFFGNYMVPLMLGAVDMSLARLNNMSFWLLVPSLLLAVLSTLMDSGPGTGWTMYPPLSSLQSHSGASVDLVMFSLHISGMSSLLGAMNFMVTMTNMRGNGMSLTNMTLFTWAMLMTAVLLLLSLPVLASGLTMLLTDRNFNTSFFEVSGGGDMLLYEHMFWFFGHPEVYMLMMPGFGMVSQMMSVYAKKPMFGNMGMVYAMGSMGFLGFCVWSHHMFAVGLDADSRAYFTAATLMMAVPTGVKMFSWLASLYGGSLRFTTPLLYAMGFMFLFTTGGVTGVALANASLDIAFHDTYYVVAHFHYVLSLGAVFSLFAGYYFWSPKVLGLYYNEMLGQVQFWTLFAGANMTFMPQHFLGLQAMPRRMPNYPDAFYGWNFVSSMGSMMSLVSVMLFFYMMYDQMVYGMPNK-DTVGMATLYNPDYMFSNSMA-MQQKRAHSLEWATSSPAALHTYNTPVLQS---'
p616
sg123
F0.65920000000000001
sg124
g125
sg33
S'112'
p617
sg127
g1
(g128
g12
(dp618
g130
I4
sg131
g132
sg133
g134
sg135
g132
sg136
I01
sg34
g137
sg138
g134
sg139
I0
sg140
I0
sg141
I0
sg142
g134
sg35
g143
sg144
I0
stRp619
sg146
g147
sg148
F1
sg149
Nsg30
S'CsantA'
p620
sbag1
(g2
g3
NtRp621
(dp622
g6
g1
(g7
g3
NtRp623
(dp624
g10
g1
(g11
g12
(dtRp625
sg14
g1
(g11
g12
(dtRp626
sg16
g1
(g11
g12
(dtRp627
sg18
g1
(g11
g12
(dtRp628
sg20
g1
(g11
g12
(dtRp629
sg22
g1
(g11
g12
(dtRp630
sbsg24
S'Csa'
p631
sg26
g27
((lp632
g29
ag30
aS'sequence'
p633
ag32
ag33
aS'species'
p634
atRp635
sg37
(lp636
sg120
g587
sg121
S'YNWSQRWLFSTNHKDIGMLYLIIAIFSALVGTSLSILIRLELANPAPNIMFDSGQIFNVVISAHAIFMIFFFVMPLSMGFFANYFVPLMIGAVDTSLPRVNNIAAILLMPSMLLAVLSTLIESGPGTGWTVYPPLSSLLSHSGVSVDLVMFSLHISGVSSLAGAMNLMVTIMNMRANGLTFTQLPLFVWSIFITAILLLLSLPVLAAGLTMLITDRNFNTSFFDPAGGGDVLLYQHLFWFFGHPEVYILIIPGFGMVSEIISRYANKPMFGSIGMMYAMGSIGFLGFCVWSHHMYIVGLDVDTRSYFTAATLIIAIPTGVKMFSWMATLFGGSFRLTVPFLYTLGFLALFTMGGVTGVALANASLDMAFHDTYYVVGHFHYVLSLGAVFSMIAGYYYWSPKFLGLNYNEYLAQMQFWTLFIGANVTFLPQHFLGLNGQPRRMSSYPDAFYGWNLMSSMGSLMSAVSVLLLAYMMYDQLVYGY--K-RTLNAMPVYVPDFMESNENF-INNEHRTSLEWITSSPAPLHTFNTTPM-----'
p637
sg123
F1.3581099999999999
sg124
g125
sg33
S'115'
p638
sg127
g1
(g128
g12
(dp639
g130
I4
sg131
g132
sg133
g134
sg135
g132
sg136
I01
sg34
g137
sg138
g134
sg139
I0
sg140
I0
sg141
I0
sg142
g134
sg35
g143
sg144
I0
stRp640
sg146
g147
sg148
F1
sg149
Nsg30
S'CsalmA'
p641
sbasg120
g554
sg123
F0.19968
sg124
g125
sg33
S'110'
p642
sg127
g1
(g128
g12
(dp643
g130
I6
sg131
g132
sg133
g134
sg135
g132
sg136
I01
sg34
g174
sg138
g134
sg139
I0
sg140
I0
sg141
I0
sg142
g134
sg35
g175
sg144
I0
stRp644
sg146
g147
sg148
F0.97999999999999998
sg149
Nsg30
S'NoName'
p645
sbasg120
g541
sg123
F0.14363999999999999
sg124
g125
sg33
S'72'
p646
sg127
g1
(g128
g12
(dp647
g130
I6
sg131
g132
sg133
g134
sg135
g132
sg136
I01
sg34
g174
sg138
g134
sg139
I0
sg140
I0
sg141
I0
sg142
g134
sg35
g175
sg144
I0
stRp648
sg146
g147
sg148
F0.93000000000000005
sg149
Nsg30
S'NoName'
p649
sbag1
(g2
g3
NtRp650
(dp651
g6
g1
(g7
g3
NtRp652
(dp653
g10
g1
(g11
g12
(dtRp654
sg14
g1
(g11
g12
(dtRp655
sg16
g1
(g11
g12
(dtRp656
sg18
g1
(g11
g12
(dtRp657
sg20
g1
(g11
g12
(dtRp658
sg22
g1
(g11
g12
(dtRp659
sbsg24
S'Bar'
p660
sg26
g27
((lp661
g29
ag30
aS'sequence'
p662
ag32
ag33
aS'species'
p663
atRp664
sg37
(lp665
sg120
g541
sg121
S'MSYMERWLYSTNCKDMAMLYMMFAMFAGLMGTGLSIMMRLELAGPNPQILHNNGQLFNSMMSLHAVAMMFFFVMPMTVGFFGNYLVPQMIGAVDMSLSRLNNMSFWLLVPSLLLGVSSALIESGPGTGWTVYPPLSSMQAHSGPSVDLVMFALHVSGVSSLLGAMNFMVTMMNMRTSGMKYSDMTLFTWSMLMTVMLLLLALPVLAAGLTMLLTDRNFNTSFFEPAGGGDPVLYQHMFWFFGHPEVYILIMPGFGMVSQIMAVYANKPMFGSLGMVYAMASIGFLGFCVWSHHMYMVGMDVDSRAYFTAATLIIAVPTGVKMFSWLASLYGGTLRFTTPLLYTMGFIGLFTMGGVTGVVLANAALDIAFHDSYYVVGHFHYVLSLGAVFSLFAGYYFWSPKMLGLYYNELLGQMQFWTLFMGANVTFLPQHFLGLQSMPRRMPNYPDAFTGWNMVSSFGSLMSFVSLMLFFVVMYDQLCNGLYNK-HTVSVANMYAPDFTVNNMLF-DMFDKAPSLEWATDSPASLHTYNTPAVQS---'
p666
sg123
F0.74575000000000002
sg124
g125
sg33
S'22'
p667
sg127
g1
(g128
g12
(dp668
g130
I4
sg131
g132
sg133
g134
sg135
g132
sg136
I01
sg34
g137
sg138
g134
sg139
I0
sg140
I0
sg141
I0
sg142
g134
sg35
g143
sg144
I0
stRp669
sg146
g147
sg148
F1
sg149
Nsg30
S'BarxA'
p670
sbasg120
g279
sg123
F0.25233
sg124
g125
sg33
S'215'
p671
sg127
g1
(g128
g12
(dp672
g130
I6
sg131
g132
sg133
g134
sg135
g132
sg136
I01
sg34
g174
sg138
g134
sg139
I0
sg140
I0
sg141
I0
sg142
g134
sg35
g175
sg144
I0
stRp673
sg146
g147
sg148
F0.97999999999999998
sg149
Nsg30
S'NoName'
p674
sbasg120
g266
sg123
F0.42224
sg124
g125
sg33
S'139'
p675
sg127
g1
(g128
g12
(dp676
g130
I6
sg131
g132
sg133
g134
sg135
g132
sg136
I01
sg34
g174
sg138
g134
sg139
I0
sg140
I0
sg141
I0
sg142
g134
sg35
g175
sg144
I0
stRp677
sg146
g147
sg148
F0.97999999999999998
sg149
Nsg30
S'NoName'
p678
sbag1
(g2
g3
NtRp679
(dp680
g6
g1
(g7
g3
NtRp681
(dp682
g10
g1
(g11
g12
(dtRp683
sg14
g1
(g11
g12
(dtRp684
sg16
g1
(g11
g12
(dtRp685
sg18
g1
(g11
g12
(dtRp686
sg20
g1
(g11
g12
(dtRp687
sg22
g1
(g11
g12
(dtRp688
sbsg24
g25
sg26
g27
((lp689
g33
ag32
ag29
ag30
atRp690
sg37
(lp691
g1
(g2
g3
NtRp692
(dp693
g6
g1
(g7
g3
NtRp694
(dp695
g10
g1
(g11
g12
(dtRp696
sg14
g1
(g11
g12
(dtRp697
sg16
g1
(g11
g12
(dtRp698
sg18
g1
(g11
g12
(dtRp699
sg20
g1
(g11
g12
(dtRp700
sg22
g1
(g11
g12
(dtRp701
sbsg24
g25
sg26
g27
((lp702
g33
ag32
ag29
ag30
atRp703
sg37
(lp704
g1
(g2
g3
NtRp705
(dp706
g6
g1
(g7
g3
NtRp707
(dp708
g10
g1
(g11
g12
(dtRp709
sg14
g1
(g11
g12
(dtRp710
sg16
g1
(g11
g12
(dtRp711
sg18
g1
(g11
g12
(dtRp712
sg20
g1
(g11
g12
(dtRp713
sg22
g1
(g11
g12
(dtRp714
sbsg24
g25
sg26
g27
((lp715
g33
ag32
ag29
ag30
atRp716
sg37
(lp717
g1
(g2
g3
NtRp718
(dp719
g6
g1
(g7
g3
NtRp720
(dp721
g10
g1
(g11
g12
(dtRp722
sg14
g1
(g11
g12
(dtRp723
sg16
g1
(g11
g12
(dtRp724
sg18
g1
(g11
g12
(dtRp725
sg20
g1
(g11
g12
(dtRp726
sg22
g1
(g11
g12
(dtRp727
sbsg24
g25
sg26
g27
((lp728
g33
ag32
ag29
ag30
atRp729
sg37
(lp730
g1
(g2
g3
NtRp731
(dp732
g6
g1
(g7
g3
NtRp733
(dp734
g10
g1
(g11
g12
(dtRp735
sg14
g1
(g11
g12
(dtRp736
sg16
g1
(g11
g12
(dtRp737
sg18
g1
(g11
g12
(dtRp738
sg20
g1
(g11
g12
(dtRp739
sg22
g1
(g11
g12
(dtRp740
sbsg24
S'Mfa'
p741
sg26
g27
((lp742
g29
ag30
aS'sequence'
p743
ag32
ag33
aS'species'
p744
atRp745
sg37
(lp746
sg120
g718
sg121
S'MSYVTRWLFSTSHKDIGMLYLAFGMMSAMAATAMSVIMRLELSSGNSQFLHGNNQVFNVLVTGHAMLMMFFFVMPVLMGAFGNFLVPILIGGVDMAFARLNNISFWCLPPALVSIMASVLMENGAGTGWTVYPPLSSISAHSGPSVDLAMFALHLTSMSSLLGAINFMVTMLNMRTMGIHMMNAPLFVWAVFFTAMLLLLSLPVLTAGVTLLLLDRNFNTGFYEVGFGGDPILYEHLFWFFGHPEVYILIMPGFGMISHILSTYSKKPIFGEIGMLYAMGSIGLLGFLVWSHHMYMVGLDIDSRAYFTSATMVIAVPTGIKIFSWLATMYGGEIRLAVPMLFALGFLFLFTIGGLTGVVLSNASLDVAFHDTYFVVGHFHYVLSMGALFSLMGAYYYWGPSMFGLNYNRVLAEMHFWLLFMSVNIMFLPMHFLGLNGMPRRMPQYPDAFVGWNLVSSWGSMLSIMSVVVALYSVQVQMTNG-----LNEEEEVQTTPDFTESNL---MRDQRSSDLELMLDRPANFHTFNELPILLDRS'
p747
sg123
F0.14163999999999999
sg124
g125
sg33
S'35'
p748
sg127
g1
(g128
g12
(dp749
g130
I4
sg131
g132
sg133
g134
sg135
g132
sg136
I01
sg34
g137
sg138
g134
sg139
I0
sg140
I0
sg141
I0
sg142
g134
sg35
g143
sg144
I0
stRp750
sg146
g147
sg148
F1
sg149
Nsg30
S'MfariB'
p751
sbag1
(g2
g3
NtRp752
(dp753
g6
g1
(g7
g3
NtRp754
(dp755
g10
g1
(g11
g12
(dtRp756
sg14
g1
(g11
g12
(dtRp757
sg16
g1
(g11
g12
(dtRp758
sg18
g1
(g11
g12
(dtRp759
sg20
g1
(g11
g12
(dtRp760
sg22
g1
(g11
g12
(dtRp761
sbsg24
S'Csa'
p762
sg26
g27
((lp763
g29
ag30
aS'sequence'
p764
ag32
ag33
aS'species'
p765
atRp766
sg37
(lp767
sg120
g718
sg121
S'MSYVTRWLFSTSHKDMGILYLAFGMMSAMVGTAMSVMMRLELSNGNSQFFHNNNQAYNVLVTGHAMAMMFLFVMPVLIGAFGNFLVPMLMGGVDMAFARLNNISFWCLPPALVCVMASVLIEQGAGTGWTVYPPLSSMGAHSGPSVDLAMFALHLTTMSSLLGAINFMVTMLNMRTMGVHMMNTPLFVWAMFFTAMLLLLSLPVLTAAVTLLLMDRNFNTGFYEVGAGGDPILYEHLFWFFGHPEVYILIMPGFGMISHIVSTYSKKPMFGEMGMLYAMGSMGLLGFLVWSHHMYMVGLDIDSRAYFTSATMVIAVPTGMKMFSWLATIYGGELRLAVPMLFALGFLFLFTVGGLTGVMLSNASMDVAFHDTYYVVGHFHYVLSMGALFSLMGAYYYWGPSMFGLNYNRVWGEMHFWLLFMSVNMIFLPMHFLGLNGMPRRIPQYPDAFIGWNWMSSWGSILSVISVFVGMYSVYMQMNNG-----ENEELEVQVTPDFPESNL---TRDERSSDLELILDKPANFHTFNELPILMSNE'
p768
sg123
F0.069970000000000004
sg124
g125
sg33
S'40'
p769
sg127
g1
(g128
g12
(dp770
g130
I4
sg131
g132
sg133
g134
sg135
g132
sg136
I01
sg34
g137
sg138
g134
sg139
I0
sg140
I0
sg141
I0
sg142
g134
sg35
g143
sg144
I0
stRp771
sg146
g147
sg148
F1
sg149
Nsg30
S'CsakeA'
p772
sbasg120
g705
sg123
F0.048980000000000003
sg124
g125
sg33
S'29'
p773
sg127
g1
(g128
g12
(dp774
g130
I6
sg131
g132
sg133
g134
sg135
g132
sg136
I01
sg34
g174
sg138
g134
sg139
I0
sg140
I0
sg141
I0
sg142
g134
sg35
g175
sg144
I0
stRp775
sg146
g147
sg148
F0.98999999999999999
sg149
Nsg30
S'NoName'
p776
sbag1
(g2
g3
NtRp777
(dp778
g6
g1
(g7
g3
NtRp779
(dp780
g10
g1
(g11
g12
(dtRp781
sg14
g1
(g11
g12
(dtRp782
sg16
g1
(g11
g12
(dtRp783
sg18
g1
(g11
g12
(dtRp784
sg20
g1
(g11
g12
(dtRp785
sg22
g1
(g11
g12
(dtRp786
sbsg24
g25
sg26
g27
((lp787
g33
ag32
ag29
ag30
atRp788
sg37
(lp789
g1
(g2
g3
NtRp790
(dp791
g6
g1
(g7
g3
NtRp792
(dp793
g10
g1
(g11
g12
(dtRp794
sg14
g1
(g11
g12
(dtRp795
sg16
g1
(g11
g12
(dtRp796
sg18
g1
(g11
g12
(dtRp797
sg20
g1
(g11
g12
(dtRp798
sg22
g1
(g11
g12
(dtRp799
sbsg24
g25
sg26
g27
((lp800
g33
ag32
ag29
ag30
atRp801
sg37
(lp802
g1
(g2
g3
NtRp803
(dp804
g6
g1
(g7
g3
NtRp805
(dp806
g10
g1
(g11
g12
(dtRp807
sg14
g1
(g11
g12
(dtRp808
sg16
g1
(g11
g12
(dtRp809
sg18
g1
(g11
g12
(dtRp810
sg20
g1
(g11
g12
(dtRp811
sg22
g1
(g11
g12
(dtRp812
sbsg24
S'Mfa'
p813
sg26
g27
((lp814
g29
ag30
aS'sequence'
p815
ag32
ag33
aS'species'
p816
atRp817
sg37
(lp818
sg120
g790
sg121
S'MSYMTRWLYSTSHKDMAMLYLMYGMMSAMMGTGMSVMMRAELSNGNSQFFHGNNHAFNVIITGHAMAMIFLFVMPVLMGAFGNFFLPMMIGAVDMAFARLNNISFWCLPPGLVCIMCSVLMENGAGTGWTVYPPLSSMGSHSGPSVDLAMFALHLTSISSLLGAMNFMVTVFNMRTMGLHMMNMPLFVWAMFFTAFLLLLSLPVLTAGVTLLLMDRNFNTGFYEVGAGGDPILYEHLFWFFGHPEVYIMIMPGFGMMSHMMSTYSKKPVFGEMGMIYAMGSMGLLGFLVWSHHMYVVGLDMDSRAYFTSATMMMAVPTGIKIFSWLATLYGGELRLGVPMLFALGFLFLFTMGGLTGVMLSNASMDVAFHDTYYMYMHFHYVLSMGALFSLVGGYYYWGPAMFGLKYNRMWGEVHFWLLFMSVNMMFLPMHFLGLNGMPRRMPQYPDAFMGWNYVSSMGSAISMMSVMVGLKSVLMQLEDG-----ENQDMEVQVTPDFVESNL---TRDIRDSDLELILSRPAEYHTFSELPMLISH-'
p819
sg123
F0.29086000000000001
sg124
g125
sg33
S'14'
p820
sg127
g1
(g128
g12
(dp821
g130
I4
sg131
g132
sg133
g134
sg135
g132
sg136
I01
sg34
g137
sg138
g134
sg139
I0
sg140
I0
sg141
I0
sg142
g134
sg35
g143
sg144
I0
stRp822
sg146
g147
sg148
F1
sg149
Nsg30
S'MfariA'
p823
sbag1
(g2
g3
NtRp824
(dp825
g6
g1
(g7
g3
NtRp826
(dp827
g10
g1
(g11
g12
(dtRp828
sg14
g1
(g11
g12
(dtRp829
sg16
g1
(g11
g12
(dtRp830
sg18
g1
(g11
g12
(dtRp831
sg20
g1
(g11
g12
(dtRp832
sg22
g1
(g11
g12
(dtRp833
sbsg24
S'Dha'
p834
sg26
g27
((lp835
g29
ag30
aS'sequence'
p836
ag32
ag33
aS'species'
p837
atRp838
sg37
(lp839
sg120
g790
sg121
S'MSYVTRWLYSTSHKDIGMLYLGFGMLSAMMGTGMSVMMRMELSNGNSQFFHGNNQAFNVMMSGHALLMMFFFIMPVWMGAFGNFFLPMLMGAADMAFARLNNISFWCLPPALVCMVCSVLMEQGAGTGWTLYPPLSSMSAHSGPSVDLAMFAMHLTSMSSLLGAMNFMVTVLNMRTMGLHMVNMPLFAWAMFLTAMLLLLSLPVLTAAVTLLLMDRNFNTGFYEVGAGGDPVLYEHLFWFFGHPEVYILMMPGFGVMSHMVSTYSKKPMFGEMGMLYAMGSIGFLGFLVWSHHMFVVGLDIDSRAYFTSATMVIAVPTGIKIFSWLATIYGGELRLGVPMLFALGFLFLFTMGGLTGVMLSNASMDVAFHDTYYVVGHFHYVLSMGALFSLMGAYYYWGPAMFGLKYNRMLGEMHFWLLFMSVNVMFLPMHFLGLNGMPRRMPQYPDAFMGWNYMSSMGSAMSVMSVLVGLKSVLVQLENG-----ENEELEMQVTPDFTESNL---NREIRDSDLDLILTRPAEYHTYSELPVLTSNS'
p840
sg123
F0.11043
sg124
g125
sg33
S'26'
p841
sg127
g1
(g128
g12
(dp842
g130
I4
sg131
g132
sg133
g134
sg135
g132
sg136
I01
sg34
g137
sg138
g134
sg139
I0
sg140
I0
sg141
I0
sg142
g134
sg35
g143
sg144
I0
stRp843
sg146
g147
sg148
F1
sg149
Nsg30
S'DhansA'
p844
sbasg120
g777
sg123
F0.046699999999999998
sg124
g125
sg33
S'58'
p845
sg127
g1
(g128
g12
(dp846
g130
I6
sg131
g132
sg133
g134
sg135
g132
sg136
I01
sg34
g174
sg138
g134
sg139
I0
sg140
I0
sg141
I0
sg142
g134
sg35
g175
sg144
I0
stRp847
sg146
g147
sg148
F0.65000000000000002
sg149
Nsg30
S'NoName'
p848
sbag1
(g2
g3
NtRp849
(dp850
g6
g1
(g7
g3
NtRp851
(dp852
g10
g1
(g11
g12
(dtRp853
sg14
g1
(g11
g12
(dtRp854
sg16
g1
(g11
g12
(dtRp855
sg18
g1
(g11
g12
(dtRp856
sg20
g1
(g11
g12
(dtRp857
sg22
g1
(g11
g12
(dtRp858
sbsg24
g25
sg26
g27
((lp859
g33
ag32
ag29
ag30
atRp860
sg37
(lp861
g1
(g2
g3
NtRp862
(dp863
g6
g1
(g7
g3
NtRp864
(dp865
g10
g1
(g11
g12
(dtRp866
sg14
g1
(g11
g12
(dtRp867
sg16
g1
(g11
g12
(dtRp868
sg18
g1
(g11
g12
(dtRp869
sg20
g1
(g11
g12
(dtRp870
sg22
g1
(g11
g12
(dtRp871
sbsg24
S'Clu'
p872
sg26
g27
((lp873
g29
ag30
aS'sequence'
p874
ag32
ag33
aS'species'
p875
atRp876
sg37
(lp877
sg120
g849
sg121
S'MSYMTRWLYSTSHKDMAMLYLGYGLMSSMVATGMSVMMRLELSGPDAQFLHGNNQVFNVLVTGHAMAMMFLFVMPVLMGAFGNFYLPMMMGAVDMAFARLNNMSFWCLPPALVCMMASVLMEQGAGTGWTVYPPLSSMNAHSGPSVDLAMFALHLTSISSLLGAINFMVTVLNMRTMGLHMVNAPLFVWAMFFTAMLLLLSLPVLTAGVTLLLMDRNFNTGFYEVAAGGDPVLYQHLFWFFGHPEVYMMMMPGFGMMSHMVSTYSKKPMFGEMGMLYAMGSMGLLGFLVWSHHMYVVGLDMDSRAYFTSATMVMAVPTGMKMFSWLATMYGGEVRLAVPMLFALGFLFLFTMGGLTGVMLSNASIDVAFHDTYYVVGHFHYVLSMGALFSLVGGYYYWGPSMFGLKYNKVWAEMHFWLLFMSVNMIFLPMHFLGLNGMPRRMPQYPDAFVGWNYMSSIGSAISIMSVLVGLRSVQMQLENG-----ENEDLEIQVTPDFIESNL---TRDVRDSDLELMLTRPAEYHTFSELPVLTSPT'
p878
sg123
F0.037310000000000003
sg124
g125
sg33
S'77'
p879
sg127
g1
(g128
g12
(dp880
g130
I4
sg131
g132
sg133
g134
sg135
g132
sg136
I01
sg34
g137
sg138
g134
sg139
I0
sg140
I0
sg141
I0
sg142
g134
sg35
g143
sg144
I0
stRp881
sg146
g147
sg148
F1
sg149
Nsg30
S'ClusiA'
p882
sbag1
(g2
g3
NtRp883
(dp884
g6
g1
(g7
g3
NtRp885
(dp886
g10
g1
(g11
g12
(dtRp887
sg14
g1
(g11
g12
(dtRp888
sg16
g1
(g11
g12
(dtRp889
sg18
g1
(g11
g12
(dtRp890
sg20
g1
(g11
g12
(dtRp891
sg22
g1
(g11
g12
(dtRp892
sbsg24
g25
sg26
g27
((lp893
g33
ag32
ag29
ag30
atRp894
sg37
(lp895
g1
(g2
g3
NtRp896
(dp897
g6
g1
(g7
g3
NtRp898
(dp899
g10
g1
(g11
g12
(dtRp900
sg14
g1
(g11
g12
(dtRp901
sg16
g1
(g11
g12
(dtRp902
sg18
g1
(g11
g12
(dtRp903
sg20
g1
(g11
g12
(dtRp904
sg22
g1
(g11
g12
(dtRp905
sbsg24
S'Mgu'
p906
sg26
g27
((lp907
g29
ag30
aS'sequence'
p908
ag32
ag33
aS'species'
p909
atRp910
sg37
(lp911
sg120
g883
sg121
S'M----------------------------------------------------------------------------------------------------------------------------------------------------------------------------------------------------------------------------------------------------------------------------------------------------------------------------------------------------------------------------------------HFHYVLSMGALFSLMGGYYYWGPAMFGLKYNRMWGEMHFWLLFMSVNIIFLPMHFLGLNGMPRRMPQYPDAFMGWNLMASVGSAMSVMSVMVGLKSVLVQLENG-----ENEEMEVPVTPDFTESNL---AREVRESDLELMLTRPAEYHTFTELPVLTSPS'
p912
sg123
F0.0044999999999999997
sg124
g125
sg33
S'52'
p913
sg127
g1
(g128
g12
(dp914
g130
I4
sg131
g132
sg133
g134
sg135
g132
sg136
I01
sg34
g137
sg138
g134
sg139
I0
sg140
I0
sg141
I0
sg142
g134
sg35
g143
sg144
I0
stRp915
sg146
g147
sg148
F1
sg149
Nsg30
S'MguilB'
p916
sbag1
(g2
g3
NtRp917
(dp918
g6
g1
(g7
g3
NtRp919
(dp920
g10
g1
(g11
g12
(dtRp921
sg14
g1
(g11
g12
(dtRp922
sg16
g1
(g11
g12
(dtRp923
sg18
g1
(g11
g12
(dtRp924
sg20
g1
(g11
g12
(dtRp925
sg22
g1
(g11
g12
(dtRp926
sbsg24
S'Mgu'
p927
sg26
g27
((lp928
g29
ag30
aS'sequence'
p929
ag32
ag33
aS'species'
p930
atRp931
sg37
(lp932
sg120
g883
sg121
S'MSYMTRWLYSTSHKDMAMLYLGYGMMASMVGTGMSVMMRMELSSGNSQFFHGNNQAYNVLITGHAMAMMFLFVMPVIMGAFGNFFLPMMMGAVDMAFARLNNMSFWCLPPALVCIMASVLMEQGAGTGWTVYPPLSSMSAHSGPSVDMAMFALHLTSMSSLLGAMNFMVTTLNMRTMGLHMMNMPLFVWAMFFTAMLLLLSLPVLTAGVTLLLLDRNFNTGFYEVGAGGDPVLYEHLFWFFGHPEVYMMMMPGFGMMSHMVSTYSKKPMFGEMGMIYAMGSIGLLGFLVWSHHMYMVGLDIDSRAYFTSATMVMAVPTGMKIFSWLSTLYGGELRLGVPMLFALGFLFLFTVGGLTGVMLSNASMDVAFHDTYYVVGHFHYVLSMGALFSLMGGYYYWGPAMFGLKYNRMWGEMHFWLLFMSVNIIFLPMHFLGLNGMPRRMPQYPDAFMGWNLMASVGSAMSVMSVMVGLKSVLVQLENG-----ENEEMEVPVTPDFTESNL---AREVRESDLELMLTRPAEYHTFTELPVLTSPS'
p933
sg123
F0.0020100000000000001
sg124
g125
sg33
S'1'
sg127
g1
(g128
g12
(dp934
g130
I4
sg131
g132
sg133
g134
sg135
g132
sg136
I01
sg34
g137
sg138
g134
sg139
I0
sg140
I0
sg141
I0
sg142
g134
sg35
g143
sg144
I0
stRp935
sg146
g147
sg148
F1
sg149
Nsg30
S'MguilA'
p936
sbasg120
g849
sg123
F0.25231999999999999
sg124
g125
sg33
S'8'
sg127
g1
(g128
g12
(dp937
g130
I6
sg131
g132
sg133
g134
sg135
g132
sg136
I01
sg34
g174
sg138
g134
sg139
I0
sg140
I0
sg141
I0
sg142
g134
sg35
g175
sg144
I0
stRp938
sg146
g147
sg148
F0.98999999999999999
sg149
Nsg30
S'NoName'
p939
sbasg120
g777
sg123
F0.090679999999999997
sg124
g125
sg33
S'28'
p940
sg127
g1
(g128
g12
(dp941
g130
I6
sg131
g132
sg133
g134
sg135
g132
sg136
I01
sg34
g174
sg138
g134
sg139
I0
sg140
I0
sg141
I0
sg142
g134
sg35
g175
sg144
I0
stRp942
sg146
g147
sg148
F0.98999999999999999
sg149
Nsg30
S'NoName'
p943
sbasg120
g705
sg123
F0.032190000000000003
sg124
g125
sg33
S'18'
p944
sg127
g1
(g128
g12
(dp945
g130
I6
sg131
g132
sg133
g134
sg135
g132
sg136
I01
sg34
g174
sg138
g134
sg139
I0
sg140
I0
sg141
I0
sg142
g134
sg35
g175
sg144
I0
stRp946
sg146
g147
sg148
F0.64000000000000001
sg149
Nsg30
S'NoName'
p947
sbasg120
g692
sg123
F0.12181
sg124
g125
sg33
S'33'
p948
sg127
g1
(g128
g12
(dp949
g130
I6
sg131
g132
sg133
g134
sg135
g132
sg136
I01
sg34
g174
sg138
g134
sg139
I0
sg140
I0
sg141
I0
sg142
g134
sg35
g175
sg144
I0
stRp950
sg146
g147
sg148
F0.98999999999999999
sg149
Nsg30
S'NoName'
p951
sbag1
(g2
g3
NtRp952
(dp953
g6
g1
(g7
g3
NtRp954
(dp955
g10
g1
(g11
g12
(dtRp956
sg14
g1
(g11
g12
(dtRp957
sg16
g1
(g11
g12
(dtRp958
sg18
g1
(g11
g12
(dtRp959
sg20
g1
(g11
g12
(dtRp960
sg22
g1
(g11
g12
(dtRp961
sbsg24
g25
sg26
g27
((lp962
g33
ag32
ag29
ag30
atRp963
sg37
(lp964
g1
(g2
g3
NtRp965
(dp966
g6
g1
(g7
g3
NtRp967
(dp968
g10
g1
(g11
g12
(dtRp969
sg14
g1
(g11
g12
(dtRp970
sg16
g1
(g11
g12
(dtRp971
sg18
g1
(g11
g12
(dtRp972
sg20
g1
(g11
g12
(dtRp973
sg22
g1
(g11
g12
(dtRp974
sbsg24
g25
sg26
g27
((lp975
g33
ag32
ag29
ag30
atRp976
sg37
(lp977
g1
(g2
g3
NtRp978
(dp979
g6
g1
(g7
g3
NtRp980
(dp981
g10
g1
(g11
g12
(dtRp982
sg14
g1
(g11
g12
(dtRp983
sg16
g1
(g11
g12
(dtRp984
sg18
g1
(g11
g12
(dtRp985
sg20
g1
(g11
g12
(dtRp986
sg22
g1
(g11
g12
(dtRp987
sbsg24
S'Cbl'
p988
sg26
g27
((lp989
g29
ag30
aS'sequence'
p990
ag32
ag33
aS'species'
p991
atRp992
sg37
(lp993
sg120
g965
sg121
S'MSWSTRWLFSTSHKDMGILYLMFGMMSAMVATAMSVMIRLELSGANAQFLHNNNQVYNVLVTGHAVVMMFLFVMPVLIGAMGNYMLPMMIGAVDMAFARLNNISFWCLPPALVCIIASVLMESGPGTGWTLYAPLSAISAHSGPSVDMAIFAIHLTSISSLLGAINFIVTTINMRAMGMHLTDMPLYVWAMFFTAMLLLLSLPVLTAAVTLLLMDRNFNTGFYEVAAGGDPMLYEHLFWFFGHPEVYMLIMPGFGIMSHVMSTYTKKEVFGKTGMIYAMGSIGLLGFLVWSHHMYVVGLDIDSRAYFTSATMVIAVPTGIKMFSWMATLYGGELRLSVPMLFALGFLFLFTVGGLTGVMLSNASIDVAFHDTYYVVGHFHYVLSMGALFSLIAGYYYWGPSMFGLSYNRNLAEMHFWLLFMSVNIMFLPMHFLGLNGMPRRVPNYPDAFIGWNIISSFGSILSVMSVIVGLYSVLVQLTNG-----ENEKAEEVVTPDYTESNM---LRNERVSDLELMLSRPAQYHTYSELPMLISKV'
p994
sg123
F0.36785000000000001
sg124
g125
sg33
S'80'
p995
sg127
g1
(g128
g12
(dp996
g130
I4
sg131
g132
sg133
g134
sg135
g132
sg136
I01
sg34
g137
sg138
g134
sg139
I0
sg140
I0
sg141
I0
sg142
g134
sg35
g143
sg144
I0
stRp997
sg146
g147
sg148
F1
sg149
Nsg30
S'CblacA'
p998
sbag1
(g2
g3
NtRp999
(dp1000
g6
g1
(g7
g3
NtRp1001
(dp1002
g10
g1
(g11
g12
(dtRp1003
sg14
g1
(g11
g12
(dtRp1004
sg16
g1
(g11
g12
(dtRp1005
sg18
g1
(g11
g12
(dtRp1006
sg20
g1
(g11
g12
(dtRp1007
sg22
g1
(g11
g12
(dtRp1008
sbsg24
g25
sg26
g27
((lp1009
g33
ag32
ag29
ag30
atRp1010
sg37
(lp1011
g1
(g2
g3
NtRp1012
(dp1013
g6
g1
(g7
g3
NtRp1014
(dp1015
g10
g1
(g11
g12
(dtRp1016
sg14
g1
(g11
g12
(dtRp1017
sg16
g1
(g11
g12
(dtRp1018
sg18
g1
(g11
g12
(dtRp1019
sg20
g1
(g11
g12
(dtRp1020
sg22
g1
(g11
g12
(dtRp1021
sbsg24
g25
sg26
g27
((lp1022
g33
ag32
ag29
ag30
atRp1023
sg37
(lp1024
g1
(g2
g3
NtRp1025
(dp1026
g6
g1
(g7
g3
NtRp1027
(dp1028
g10
g1
(g11
g12
(dtRp1029
sg14
g1
(g11
g12
(dtRp1030
sg16
g1
(g11
g12
(dtRp1031
sg18
g1
(g11
g12
(dtRp1032
sg20
g1
(g11
g12
(dtRp1033
sg22
g1
(g11
g12
(dtRp1034
sbsg24
g25
sg26
g27
((lp1035
g33
ag32
ag29
ag30
atRp1036
sg37
(lp1037
g1
(g2
g3
NtRp1038
(dp1039
g6
g1
(g7
g3
NtRp1040
(dp1041
g10
g1
(g11
g12
(dtRp1042
sg14
g1
(g11
g12
(dtRp1043
sg16
g1
(g11
g12
(dtRp1044
sg18
g1
(g11
g12
(dtRp1045
sg20
g1
(g11
g12
(dtRp1046
sg22
g1
(g11
g12
(dtRp1047
sbsg24
g25
sg26
g27
((lp1048
g33
ag32
ag29
ag30
atRp1049
sg37
(lp1050
g1
(g2
g3
NtRp1051
(dp1052
g6
g1
(g7
g3
NtRp1053
(dp1054
g10
g1
(g11
g12
(dtRp1055
sg14
g1
(g11
g12
(dtRp1056
sg16
g1
(g11
g12
(dtRp1057
sg18
g1
(g11
g12
(dtRp1058
sg20
g1
(g11
g12
(dtRp1059
sg22
g1
(g11
g12
(dtRp1060
sbsg24
S'Lel'
p1061
sg26
g27
((lp1062
g29
ag30
aS'sequence'
p1063
ag32
ag33
aS'species'
p1064
atRp1065
sg37
(lp1066
sg120
g1038
sg121
S'MSYSTRWLFSTSHKDIAMLYLIFGMVSAMVATAMSVMIRLELSGPGPQLLNNDNQTYNVLITGHALAMIFLFVMPVLIGAFGNFFLPIMIGAVDMAFARLNNISFWCLPPALVCIMCSVLIENGAGTGWTVYPPLSSITAHSGPSVDLAMFAIHLTSISSLLGAINFIVTTLNMRSIGIHMIDAPLYVWSVFFTAFLLLFSLPVLTAGVTLLLMDRNFNTGFYDVAAGGDPMLYEHLFWFFGHPEVYILIIPGFGMISHVISTYSKKEMFGHVGMIYAIASIGMLGFLVWSHHMYVVGLDIDSRAYFTSATMVIAVPTGIKIFSWLATLYGGELRLAVPMLFALGFLFLFTIGGLTGVMLSNASIDIAFHDTYYTVGHFHYVLSMGALFSLIAGYYYWSYAMFGLNYNKTLGEAHFWVLFISVNMMFLPMHFLGLNGMPRRMPQYPDAFYGWNLISSWGSVMSVFSVVMGLYSVLVQLTHG-----TTMPREMAVTPDYLESNM---TRGERDSDLELMLSKPAHYHTFSELPMLMERF'
p1067
sg123
F0.18278
sg124
g125
sg33
S'132'
p1068
sg127
g1
(g128
g12
(dp1069
g130
I4
sg131
g132
sg133
g134
sg135
g132
sg136
I01
sg34
g137
sg138
g134
sg139
I0
sg140
I0
sg141
I0
sg142
g134
sg35
g143
sg144
I0
stRp1070
sg146
g147
sg148
F1
sg149
Nsg30
S'LelonA'
p1071
sbag1
(g2
g3
NtRp1072
(dp1073
g6
g1
(g7
g3
NtRp1074
(dp1075
g10
g1
(g11
g12
(dtRp1076
sg14
g1
(g11
g12
(dtRp1077
sg16
g1
(g11
g12
(dtRp1078
sg18
g1
(g11
g12
(dtRp1079
sg20
g1
(g11
g12
(dtRp1080
sg22
g1
(g11
g12
(dtRp1081
sbsg24
S'Cox'
p1082
sg26
g27
((lp1083
g29
ag30
aS'sequence'
p1084
ag32
ag33
aS'species'
p1085
atRp1086
sg37
(lp1087
sg120
g1038
sg121
S'MSYMTRWLFSTSHKDMAMLYLIYGMISAMVGTGMSVMMRLELSGSGPLYLNSDNQVYNVLISGHALAMMFLFVMPVIMGAFGNFFLPMMLGAVDMAFARLNNISFWCLPPALVCMMGSLLMENGPGVGWTVYPPLSSISAHSGPSVDLAMFAMHLTSMSSLLGAINFMVTTLNMRSIGIHMMDMPLYAWSMFFTAWLLLLSLPVLTAGVTLLLMDRNFNTGFYDVAAGGDPMLYEHLFWFFGHPEVYMLIMPGFGMMSHVIATYSKKEIFGRMGMVYAIASIGLLGFLVWSHHMYMVGLDIDSRAYFTSATMVIAVPTGIKIFSWLATLYGGEMRIAVPMLFALGFLFLFTVGGCTGIMLSNASIDIAFHDTYYTVGHFHYVLSMGAVFSLIAGYYLWSYPMFGLNYNKVIGEAHFWTLFISVNLMFLPMHFLGLNGMPRRMPQYPDAFLGWNIISSWGSMMSIISVLIGLYGMLMQLTNG-----ENMEREEPVTPDFLESNT---TRETRDSDLEMILNKPAYYHTFSELPMLITA-'
p1088
sg123
F0.17860000000000001
sg124
g125
sg33
S'162'
p1089
sg127
g1
(g128
g12
(dp1090
g130
I4
sg131
g132
sg133
g134
sg135
g132
sg136
I01
sg34
g137
sg138
g134
sg139
I0
sg140
I0
sg141
I0
sg142
g134
sg35
g143
sg144
I0
stRp1091
sg146
g147
sg148
F1
sg149
Nsg30
S'CoxycA'
p1092
sbasg120
g1025
sg123
F0.041480000000000003
sg124
g125
sg33
S'145'
p1093
sg127
g1
(g128
g12
(dp1094
g130
I6
sg131
g132
sg133
g134
sg135
g132
sg136
I01
sg34
g174
sg138
g134
sg139
I0
sg140
I0
sg141
I0
sg142
g134
sg35
g175
sg144
I0
stRp1095
sg146
g147
sg148
F0.98999999999999999
sg149
Nsg30
S'NoName'
p1096
sbag1
(g2
g3
NtRp1097
(dp1098
g6
g1
(g7
g3
NtRp1099
(dp1100
g10
g1
(g11
g12
(dtRp1101
sg14
g1
(g11
g12
(dtRp1102
sg16
g1
(g11
g12
(dtRp1103
sg18
g1
(g11
g12
(dtRp1104
sg20
g1
(g11
g12
(dtRp1105
sg22
g1
(g11
g12
(dtRp1106
sbsg24
g25
sg26
g27
((lp1107
g33
ag32
ag29
ag30
atRp1108
sg37
(lp1109
g1
(g2
g3
NtRp1110
(dp1111
g6
g1
(g7
g3
NtRp1112
(dp1113
g10
g1
(g11
g12
(dtRp1114
sg14
g1
(g11
g12
(dtRp1115
sg16
g1
(g11
g12
(dtRp1116
sg18
g1
(g11
g12
(dtRp1117
sg20
g1
(g11
g12
(dtRp1118
sg22
g1
(g11
g12
(dtRp1119
sbsg24
g25
sg26
g27
((lp1120
g33
ag32
ag29
ag30
atRp1121
sg37
(lp1122
g1
(g2
g3
NtRp1123
(dp1124
g6
g1
(g7
g3
NtRp1125
(dp1126
g10
g1
(g11
g12
(dtRp1127
sg14
g1
(g11
g12
(dtRp1128
sg16
g1
(g11
g12
(dtRp1129
sg18
g1
(g11
g12
(dtRp1130
sg20
g1
(g11
g12
(dtRp1131
sg22
g1
(g11
g12
(dtRp1132
sbsg24
g25
sg26
g27
((lp1133
g33
ag32
ag29
ag30
atRp1134
sg37
(lp1135
g1
(g2
g3
NtRp1136
(dp1137
g6
g1
(g7
g3
NtRp1138
(dp1139
g10
g1
(g11
g12
(dtRp1140
sg14
g1
(g11
g12
(dtRp1141
sg16
g1
(g11
g12
(dtRp1142
sg18
g1
(g11
g12
(dtRp1143
sg20
g1
(g11
g12
(dtRp1144
sg22
g1
(g11
g12
(dtRp1145
sbsg24
S'Cth'
p1146
sg26
g27
((lp1147
g29
ag30
aS'sequence'
p1148
ag32
ag33
aS'species'
p1149
atRp1150
sg37
(lp1151
sg120
g1123
sg121
S'MSYTTRWLFSTSHKDIGILYLIYGMISAMVATAMSVIIRLELSGPGDQFLHENRQVYNVLVTGHAIAMIFLFVMPVLIGAFGNFFLPMMIGAVDMAFARLNNISFWCLPPALVCIIGSMLIESGAGTGWTVYPPLSSMSAHSGPSVDLAIFALHLTSISSLLGAINFIVTTLNMRSMGVHMIDMPLYVWAMFFTAMLLLLSLPVLTAGVTLLLMDRNFNTGFYEVAAGGDPILYEHLFWFFGHPEVYIMIMPGFGMMSHVISTYSKKEIFGHTGMIYAIASIGLLGFLVWSHHMYVVGLDIDSRAYFTSATMVIAVPTGIKMFSWLATLYGGELRLAVPMLFALGFLFLFTVGGLTGVMLSNASIDVAFHDTYYTVGHFHYVLSMGALFSLIAGYYYWGYAMFGLNYNKVLAEAHFWLLFIAVNLVFLPMHFLGLNGMPRRMPEYPDAFLGWNMVSSWGSVMSVLSVVLGLYSVLVQLTEG-----ENMAREEAVTPDYLESNN---TRETRDSDLELMLSKPAHYHTYSELPILIERV'
p1152
sg123
F0.010059999999999999
sg124
g125
sg33
S'137'
p1153
sg127
g1
(g128
g12
(dp1154
g130
I4
sg131
g132
sg133
g134
sg135
g132
sg136
I01
sg34
g137
sg138
g134
sg139
I0
sg140
I0
sg141
I0
sg142
g134
sg35
g143
sg144
I0
stRp1155
sg146
g147
sg148
F1
sg149
Nsg30
S'CtheaA'
p1156
sbag1
(g2
g3
NtRp1157
(dp1158
g6
g1
(g7
g3
NtRp1159
(dp1160
g10
g1
(g11
g12
(dtRp1161
sg14
g1
(g11
g12
(dtRp1162
sg16
g1
(g11
g12
(dtRp1163
sg18
g1
(g11
g12
(dtRp1164
sg20
g1
(g11
g12
(dtRp1165
sg22
g1
(g11
g12
(dtRp1166
sbsg24
g25
sg26
g27
((lp1167
g33
ag32
ag29
ag30
atRp1168
sg37
(lp1169
g1
(g2
g3
NtRp1170
(dp1171
g6
g1
(g7
g3
NtRp1172
(dp1173
g10
g1
(g11
g12
(dtRp1174
sg14
g1
(g11
g12
(dtRp1175
sg16
g1
(g11
g12
(dtRp1176
sg18
g1
(g11
g12
(dtRp1177
sg20
g1
(g11
g12
(dtRp1178
sg22
g1
(g11
g12
(dtRp1179
sbsg24
g25
sg26
g27
((lp1180
g33
ag32
ag29
ag30
atRp1181
sg37
(lp1182
g1
(g2
g3
NtRp1183
(dp1184
g6
g1
(g7
g3
NtRp1185
(dp1186
g10
g1
(g11
g12
(dtRp1187
sg14
g1
(g11
g12
(dtRp1188
sg16
g1
(g11
g12
(dtRp1189
sg18
g1
(g11
g12
(dtRp1190
sg20
g1
(g11
g12
(dtRp1191
sg22
g1
(g11
g12
(dtRp1192
sbsg24
g25
sg26
g27
((lp1193
g33
ag32
ag29
ag30
atRp1194
sg37
(lp1195
g1
(g2
g3
NtRp1196
(dp1197
g6
g1
(g7
g3
NtRp1198
(dp1199
g10
g1
(g11
g12
(dtRp1200
sg14
g1
(g11
g12
(dtRp1201
sg16
g1
(g11
g12
(dtRp1202
sg18
g1
(g11
g12
(dtRp1203
sg20
g1
(g11
g12
(dtRp1204
sg22
g1
(g11
g12
(dtRp1205
sbsg24
S'Cor'
p1206
sg26
g27
((lp1207
g29
ag30
aS'sequence'
p1208
ag32
ag33
aS'species'
p1209
atRp1210
sg37
(lp1211
sg120
g1183
sg121
S'MSYTTRWLFSTSHKDIGILYLIYGMISAMVATAMSVIIRLELSGPGDQFLHENRQVYNVLVTGHAMAMIFLFVMPVLIGAFGNFFLPIMIGAVDMAFARLNNISFWCLPPALVCIIGSMLIESGAGTGWTVYPPLSSISAHSGPSVDLAIFALHLTSISSLLGAINFIVTTLNMRSMGVHMIDMPLFVWAIFFTAMLLLLSLPVLTAGVTLLLMDRNFNTGFYEVAAGGDPILYEHLFWFFGHPEVYIIIIPGFGIISHMISTYSKKEIFGHTGMIYAIASIGLLGFLVWSHHMYVVGLDIDSRAYFTSATMVIAVPTGIKIFSWLATLYGGELRLAVPMLFALGFLFLFTVGGLTGVMLSNASIDVAFHDTYYTVGHFHYVLSMGALFSLIAGYYYWGYAMFGLNYNKVLGEAHFWLLFIAVNLVFLPMHFLGLNGMPRRIPEYPDAYLGWNMVSSWGSVMSVISVVLGLYSVLVQLTDG-----ENMAREEAVTPDYLESNN---TRETRDSDLELILSKPAQYHTYSELPILIERV'
p1212
sg123
F0.00132
sg124
g125
sg33
S'135'
p1213
sg127
g1
(g128
g12
(dp1214
g130
I4
sg131
g132
sg133
g134
sg135
g132
sg136
I01
sg34
g137
sg138
g134
sg139
I0
sg140
I0
sg141
I0
sg142
g134
sg35
g143
sg144
I0
stRp1215
sg146
g147
sg148
F1
sg149
Nsg30
S'CorthC'
p1216
sbag1
(g2
g3
NtRp1217
(dp1218
g6
g1
(g7
g3
NtRp1219
(dp1220
g10
g1
(g11
g12
(dtRp1221
sg14
g1
(g11
g12
(dtRp1222
sg16
g1
(g11
g12
(dtRp1223
sg18
g1
(g11
g12
(dtRp1224
sg20
g1
(g11
g12
(dtRp1225
sg22
g1
(g11
g12
(dtRp1226
sbsg24
S'Cor'
p1227
sg26
g27
((lp1228
g29
ag30
aS'sequence'
p1229
ag32
ag33
aS'species'
p1230
atRp1231
sg37
(lp1232
sg120
g1183
sg121
S'MSYTTRWLFSTSHKDIGILYLIYGMISAMVATAMSVIIRLELSGPGDQFLHENRQVYNVLVTGHAMAMIFLFVMPVLIGAFGNFFLPIMIGAVDMAFARLNNISFWCLPPALVCIIGSMLIESGAGTGWTVYPPLSSISAHSGPSVDLAIFALHLTSISSLLGAINFIVTTLNMRSMGVHMIDMPLFVWAIFFTAMLLLLSLPVLTAGVTLLLMDRNFNTGFYEVAAGGDPILYEHLFWFFGHPEVYIIIIPGFGIISHVISTYSKKEIFGHTGMIYAIASIGLLGFLVWSHHMYVVGLDIDSRAYFTSATMVIAVPTGIKIFSWLATLYGGELRLAVPMLFALGFLFLFTIGGLTGVMLSNASIDVAFHDTYYTVGHFHYVLSMGALFSLIAGYYYWGYAMFGLNYNKVLGEAHFWLLFIAVNLVFLPMHFLGLNGMPRRIPEYPDAYLGWNMVSSWGSVMSVISVVLGLYSVLVQLTDG-----ENMAREEAVTPDYLESNN---TRETRDSDLELILSKPAQYHTYSELPILIERV'
p1233
sg123
F0.00093000000000000005
sg124
g125
sg33
S'202'
p1234
sg127
g1
(g128
g12
(dp1235
g130
I4
sg131
g132
sg133
g134
sg135
g132
sg136
I01
sg34
g137
sg138
g134
sg139
I0
sg140
I0
sg141
I0
sg142
g134
sg35
g143
sg144
I0
stRp1236
sg146
g147
sg148
F1
sg149
Nsg30
S'CorthB'
p1237
sbasg120
g1170
sg123
F0.00052999999999999998
sg124
g125
sg33
S'142'
p1238
sg127
g1
(g128
g12
(dp1239
g130
I6
sg131
g132
sg133
g134
sg135
g132
sg136
I01
sg34
g174
sg138
g134
sg139
I0
sg140
I0
sg141
I0
sg142
g134
sg35
g175
sg144
I0
stRp1240
sg146
g147
sg148
F0.85999999999999999
sg149
Nsg30
S'NoName'
p1241
sbag1
(g2
g3
NtRp1242
(dp1243
g6
g1
(g7
g3
NtRp1244
(dp1245
g10
g1
(g11
g12
(dtRp1246
sg14
g1
(g11
g12
(dtRp1247
sg16
g1
(g11
g12
(dtRp1248
sg18
g1
(g11
g12
(dtRp1249
sg20
g1
(g11
g12
(dtRp1250
sg22
g1
(g11
g12
(dtRp1251
sbsg24
S'Cor'
p1252
sg26
g27
((lp1253
g29
ag30
aS'sequence'
p1254
ag32
ag33
aS'species'
p1255
atRp1256
sg37
(lp1257
sg120
g1170
sg121
S'MSYTTRWLFSTSHKDIGILYLIYGMISAMVATAMSVIIRLELSGPGDQFLHENRQVYNVLVTGHAMAMIFLFVMPVLIGAFGNFFLPIMIGAVDMAFARLNNISFWCLPPALVCIIGSMLIESGAGTGWTVYPPLSSISAHSGPSVDLAIFALHLTSISSLLGAINFIVTTLNMRSMGVHMIDMPLFVWAIFFTAMLLLLSLPVLTAGVTLLLMDRNFNTGFYEVAAGGDPILYEHLFWFFGHPEVYIIIIPGFGIISHVISTYSKKEIFGHTGMIYAIASIGLLGFLVWSHHMYVVGLDIDSRAYFTSATMVIAVPTGIKIFSWLATLYGGELRLAVPMLFALGFLFLFTIGGLTGVMLSNASIDVAFHDTYYTVGHFHYVLSMGALFSLIAGYYYWGYAMFGLNYNKVLGEAHFWLLFIAVNLVFLPMHFLGLNGMPRRIPEYPDAYLGWNMVSSWGSVMSVISVVLGLYSVLVQLTDG-----ENMAREEAVTPDYMESNN---TRETRDSDLELILSKPAQYHTYSELPILIERV'
p1258
sg123
F0.0021099999999999999
sg124
g125
sg33
S'196'
p1259
sg127
g1
(g128
g12
(dp1260
g130
I4
sg131
g132
sg133
g134
sg135
g132
sg136
I01
sg34
g137
sg138
g134
sg139
I0
sg140
I0
sg141
I0
sg142
g134
sg35
g143
sg144
I0
stRp1261
sg146
g147
sg148
F1
sg149
Nsg30
S'CorthA'
p1262
sbasg120
g1157
sg123
F0.0031199999999999999
sg124
g125
sg33
S'168'
p1263
sg127
g1
(g128
g12
(dp1264
g130
I6
sg131
g132
sg133
g134
sg135
g132
sg136
I01
sg34
g174
sg138
g134
sg139
I0
sg140
I0
sg141
I0
sg142
g134
sg35
g175
sg144
I0
stRp1265
sg146
g147
sg148
F0.98999999999999999
sg149
Nsg30
S'NoName'
p1266
sbag1
(g2
g3
NtRp1267
(dp1268
g6
g1
(g7
g3
NtRp1269
(dp1270
g10
g1
(g11
g12
(dtRp1271
sg14
g1
(g11
g12
(dtRp1272
sg16
g1
(g11
g12
(dtRp1273
sg18
g1
(g11
g12
(dtRp1274
sg20
g1
(g11
g12
(dtRp1275
sg22
g1
(g11
g12
(dtRp1276
sbsg24
g25
sg26
g27
((lp1277
g33
ag32
ag29
ag30
atRp1278
sg37
(lp1279
g1
(g2
g3
NtRp1280
(dp1281
g6
g1
(g7
g3
NtRp1282
(dp1283
g10
g1
(g11
g12
(dtRp1284
sg14
g1
(g11
g12
(dtRp1285
sg16
g1
(g11
g12
(dtRp1286
sg18
g1
(g11
g12
(dtRp1287
sg20
g1
(g11
g12
(dtRp1288
sg22
g1
(g11
g12
(dtRp1289
sbsg24
g25
sg26
g27
((lp1290
g33
ag32
ag29
ag30
atRp1291
sg37
(lp1292
g1
(g2
g3
NtRp1293
(dp1294
g6
g1
(g7
g3
NtRp1295
(dp1296
g10
g1
(g11
g12
(dtRp1297
sg14
g1
(g11
g12
(dtRp1298
sg16
g1
(g11
g12
(dtRp1299
sg18
g1
(g11
g12
(dtRp1300
sg20
g1
(g11
g12
(dtRp1301
sg22
g1
(g11
g12
(dtRp1302
sbsg24
S'Cpa'
p1303
sg26
g27
((lp1304
g29
ag30
aS'sequence'
p1305
ag32
ag33
aS'species'
p1306
atRp1307
sg37
(lp1308
sg120
g1280
sg121
S'MSYTTRWLFSTSHKDIGILYLIYGMISAMVATAMSVIIRLELSGPGDQFLHENRQVYNVLVTGHAMAMIFLFVMPVLMGAFGNFFLPIMMGAVDMAFARLNNISFWCLPPALVCIIGSILIESGAGTGWTVYPPLSSISAHSGPSVDLAMFALHLTSISSLLGAINFIVTTLNMRSMGVHMMDMPLFVWAMFFTAMLLLLSLPVLTAGVTLLLMDRNFNTGFYEVAAGGDPILYEHLFWFFGHPEVYIIIMPGFGIMSHMVSTYSKKEIFGHTGMIYAIASIGLLGFLVWSHHMYVVGLDSDTRAYFTSATMVIAVPTSIKIFSWLATLYGGTIRLNVTALFALGFIFLFTMGGLTGVVLANSALDMPFHDSYYVVAHFHYVLSMGAVFSIFCGWYLWSPKILGLHYNERLSHIHFWLMFMGVNVTFFPMHFLGLQGMPRRINDYPDAFLGWNQVASLGSIISMVASMVFIYVVYDQLTNGLH--QGNKALESQFKPSFMGTNN---VEGFTGPTLEWTVSTPPSLHAFNTPAVLY---'
p1309
sg123
F0.00012999999999999999
sg124
g125
sg33
S'184'
p1310
sg127
g1
(g128
g12
(dp1311
g130
I4
sg131
g132
sg133
g134
sg135
g132
sg136
I01
sg34
g137
sg138
g134
sg139
I0
sg140
I0
sg141
I0
sg142
g134
sg35
g143
sg144
I0
stRp1312
sg146
g147
sg148
F1
sg149
Nsg30
S'CparaD'
p1313
sbag1
(g2
g3
NtRp1314
(dp1315
g6
g1
(g7
g3
NtRp1316
(dp1317
g10
g1
(g11
g12
(dtRp1318
sg14
g1
(g11
g12
(dtRp1319
sg16
g1
(g11
g12
(dtRp1320
sg18
g1
(g11
g12
(dtRp1321
sg20
g1
(g11
g12
(dtRp1322
sg22
g1
(g11
g12
(dtRp1323
sbsg24
S'Cpa'
p1324
sg26
g27
((lp1325
g29
ag30
aS'sequence'
p1326
ag32
ag33
aS'species'
p1327
atRp1328
sg37
(lp1329
sg120
g1280
sg121
S'MSYTTRWLFSTSHKDIGILYLIYGMISAMVATAMSVIIRLELSGPGDQFLHENRQVYNVLVTGHAMAMIFLFVMPVLMGAFGNFFLPIMMGAVDMAFARLNNISFWCLPPALVCIIGSILIESGAGTGWTVYPPLSSISAHSGPSVDLAMFALHLTSISSLLGAINFIVTTLNMRSMGVHMMDMPLFVWAMFFTAMLLLLSLPVLTAGVTLLLMDRNFNTGFYEVAAGGDPILYEHLFWFFGHPEVYIIIMPGFGIMSHMVSTYSKKEIFGHTGMIYAIASIGLLGFLVWSHHMYVVGLDIDSRAYFTSATMVIAVPTGIKMFSWLATLYGGELRLAVPMLFALGFLFLFTIGGLTGVMVSNASIDVAFHDTYYVVGHFHYVLSMGALFSLIAGYYYWGYAMFGLNYNKVLGEAHFWLLFIAVNLVFLPMHFLGLNGMPRRMPEYPDAYLGWNMVSSWGSVMSVMSVVLGLYSVLVSLTDG-----ENMVREEAVTPDYLESNN---TRETRDSDLELILSKPAQYHTYSELPILIERV'
p1330
sg123
F0.00012999999999999999
sg124
g125
sg33
S'206'
p1331
sg127
g1
(g128
g12
(dp1332
g130
I4
sg131
g132
sg133
g134
sg135
g132
sg136
I01
sg34
g137
sg138
g134
sg139
I0
sg140
I0
sg141
I0
sg142
g134
sg35
g143
sg144
I0
stRp1333
sg146
g147
sg148
F1
sg149
Nsg30
S'CparaB'
p1334
sbasg120
g1267
sg123
F0.00051000000000000004
sg124
g125
sg33
S'217'
p1335
sg127
g1
(g128
g12
(dp1336
g130
I6
sg131
g132
sg133
g134
sg135
g132
sg136
I01
sg34
g174
sg138
g134
sg139
I0
sg140
I0
sg141
I0
sg142
g134
sg35
g175
sg144
I0
stRp1337
sg146
g147
sg148
F0.98999999999999999
sg149
Nsg30
S'NoName'
p1338
sbag1
(g2
g3
NtRp1339
(dp1340
g6
g1
(g7
g3
NtRp1341
(dp1342
g10
g1
(g11
g12
(dtRp1343
sg14
g1
(g11
g12
(dtRp1344
sg16
g1
(g11
g12
(dtRp1345
sg18
g1
(g11
g12
(dtRp1346
sg20
g1
(g11
g12
(dtRp1347
sg22
g1
(g11
g12
(dtRp1348
sbsg24
S'Cpa'
p1349
sg26
g27
((lp1350
g29
ag30
aS'sequence'
p1351
ag32
ag33
aS'species'
p1352
atRp1353
sg37
(lp1354
sg120
g1267
sg121
S'MSYTTRWLFSTSHKDIGILYLIYGMISAMVATAMSVIIRLELSGPGDQFLHENRQVYNVLVTGHAMAMIFLFVMPVLMGAFGNFFLPIMMGAVDMAFARLNNISFWCLPPALVCIIGSILIESGAGTGWTVYPPLSSISAHSGPSVDLAMFALHLTSISSLLGAINFIVTTLNMRSMGVHMMDMPLFVWAMFFTAMLLLLSLPVLTAGVTLLLMDRNFNTGFYEVAAGGDPILYEHLFWFFGHPEVYIIIMPGFGIMSHMVSTYSKKEIFGHTGMIYAIASIGLLGFLVWSHHMYVVGLDIDSRAYFTSATMVIAVPTGIKMFSWLATLYGGELRLAVPMLFALGFLFLFTIGGLTGVMVSNASIDVAFHDTYYVVGHFHYVLSMGALFSLIAGYYYWGYAMFGLNYNKVLGEAHFWLLFIAVNLVFLPMHFLGLNGMPRRMPEYPDAYLGWNMVSSWGSVMSVMSVVLGLYSVLVSLTDG-----ENMVREEAVTPDYLESNN---TRETRDSDLELILSKPAQYHTYSELPILIERV'
p1355
sg123
F0.00012
sg124
g125
sg33
S'210'
p1356
sg127
g1
(g128
g12
(dp1357
g130
I4
sg131
g132
sg133
g134
sg135
g132
sg136
I01
sg34
g137
sg138
g134
sg139
I0
sg140
I0
sg141
I0
sg142
g134
sg35
g143
sg144
I0
stRp1358
sg146
g147
sg148
F1
sg149
Nsg30
S'CparaC'
p1359
sbasg120
g1157
sg123
F1.0000000000000001e-05
sg124
g125
sg33
S'64'
p1360
sg127
g1
(g128
g12
(dp1361
g130
I6
sg131
g132
sg133
g134
sg135
g132
sg136
I01
sg34
g174
sg138
g134
sg139
I0
sg140
I0
sg141
I0
sg142
g134
sg35
g175
sg144
I0
stRp1362
sg146
g147
sg148
F1
sg149
Nsg30
S'NoName'
p1363
sbasg120
g1123
sg123
F0.0032599999999999999
sg124
g125
sg33
S'141'
p1364
sg127
g1
(g128
g12
(dp1365
g130
I6
sg131
g132
sg133
g134
sg135
g132
sg136
I01
sg34
g174
sg138
g134
sg139
I0
sg140
I0
sg141
I0
sg142
g134
sg35
g175
sg144
I0
stRp1366
sg146
g147
sg148
F0.97999999999999998
sg149
Nsg30
S'NoName'
p1367
sbasg120
g1110
sg123
F1.0000000000000001e-05
sg124
g125
sg33
S'159'
p1368
sg127
g1
(g128
g12
(dp1369
g130
I6
sg131
g132
sg133
g134
sg135
g132
sg136
I01
sg34
g174
sg138
g134
sg139
I0
sg140
I0
sg141
I0
sg142
g134
sg35
g175
sg144
I0
stRp1370
sg146
g147
sg148
F1
sg149
Nsg30
S'NoName'
p1371
sbag1
(g2
g3
NtRp1372
(dp1373
g6
g1
(g7
g3
NtRp1374
(dp1375
g10
g1
(g11
g12
(dtRp1376
sg14
g1
(g11
g12
(dtRp1377
sg16
g1
(g11
g12
(dtRp1378
sg18
g1
(g11
g12
(dtRp1379
sg20
g1
(g11
g12
(dtRp1380
sg22
g1
(g11
g12
(dtRp1381
sbsg24
g25
sg26
g27
((lp1382
g33
ag32
ag29
ag30
atRp1383
sg37
(lp1384
g1
(g2
g3
NtRp1385
(dp1386
g6
g1
(g7
g3
NtRp1387
(dp1388
g10
g1
(g11
g12
(dtRp1389
sg14
g1
(g11
g12
(dtRp1390
sg16
g1
(g11
g12
(dtRp1391
sg18
g1
(g11
g12
(dtRp1392
sg20
g1
(g11
g12
(dtRp1393
sg22
g1
(g11
g12
(dtRp1394
sbsg24
g25
sg26
g27
((lp1395
g33
ag32
ag29
ag30
atRp1396
sg37
(lp1397
g1
(g2
g3
NtRp1398
(dp1399
g6
g1
(g7
g3
NtRp1400
(dp1401
g10
g1
(g11
g12
(dtRp1402
sg14
g1
(g11
g12
(dtRp1403
sg16
g1
(g11
g12
(dtRp1404
sg18
g1
(g11
g12
(dtRp1405
sg20
g1
(g11
g12
(dtRp1406
sg22
g1
(g11
g12
(dtRp1407
sbsg24
g25
sg26
g27
((lp1408
g33
ag32
ag29
ag30
atRp1409
sg37
(lp1410
g1
(g2
g3
NtRp1411
(dp1412
g6
g1
(g7
g3
NtRp1413
(dp1414
g10
g1
(g11
g12
(dtRp1415
sg14
g1
(g11
g12
(dtRp1416
sg16
g1
(g11
g12
(dtRp1417
sg18
g1
(g11
g12
(dtRp1418
sg20
g1
(g11
g12
(dtRp1419
sg22
g1
(g11
g12
(dtRp1420
sbsg24
g25
sg26
g27
((lp1421
g33
ag32
ag29
ag30
atRp1422
sg37
(lp1423
g1
(g2
g3
NtRp1424
(dp1425
g6
g1
(g7
g3
NtRp1426
(dp1427
g10
g1
(g11
g12
(dtRp1428
sg14
g1
(g11
g12
(dtRp1429
sg16
g1
(g11
g12
(dtRp1430
sg18
g1
(g11
g12
(dtRp1431
sg20
g1
(g11
g12
(dtRp1432
sg22
g1
(g11
g12
(dtRp1433
sbsg24
g25
sg26
g27
((lp1434
g33
ag32
ag29
ag30
atRp1435
sg37
(lp1436
g1
(g2
g3
NtRp1437
(dp1438
g6
g1
(g7
g3
NtRp1439
(dp1440
g10
g1
(g11
g12
(dtRp1441
sg14
g1
(g11
g12
(dtRp1442
sg16
g1
(g11
g12
(dtRp1443
sg18
g1
(g11
g12
(dtRp1444
sg20
g1
(g11
g12
(dtRp1445
sg22
g1
(g11
g12
(dtRp1446
sbsg24
S'Cme'
p1447
sg26
g27
((lp1448
g29
ag30
aS'sequence'
p1449
ag32
ag33
aS'species'
p1450
atRp1451
sg37
(lp1452
sg120
g1424
sg121
S'MSYSTRWLFSTSHKDIGILYLIYGMISAMVATAMSVIIRLELSGPGDQMLHENRQVYNVLVTGHAVAMIFLFVMPVLIGAFGNFFLPIMIGAVDMAFARLNNISFWCLPPALVCIIGSLLIESGAGTGWTVYPPLSSISAHSGPSVDLAIFALHLTSISSLLGAINFIVTTLNMRSIGVHMIDMPLYVWSIFFTAMLLLLSLPVLTAGITLLLLDRNFNTGFYEVAAGGDPILYEHLFWFFGHPEVYIIIMPGFGIISHVISTYSKKEMFGHTGMIYAIASIGLLGFLVWSHHMYVVGLDIDSRAYFTSATMVIAVPTGIKMFSWLATLYGGELRLAVPMLFALGFLFLFTIGGLTGVMLSNASIDVAFHDTYYVVGHFHYVLSMGALFSLIAGYYYWGYPMFGLNYNKVLAEAHFWLLFIAVNLVFLPMHFLGLNGMPRRMPEYPDAYWGWNMVSSWGSVMSILSVILGLYSVLVQLTEG-----ENMAREEVVTPDYLESNN---TRETRDSDLEFILSKPAQYHTYSELPILIERV'
p1453
sg123
F0.00012999999999999999
sg124
g125
sg33
S'165'
p1454
sg127
g1
(g128
g12
(dp1455
g130
I4
sg131
g132
sg133
g134
sg135
g132
sg136
I01
sg34
g137
sg138
g134
sg139
I0
sg140
I0
sg141
I0
sg142
g134
sg35
g143
sg144
I0
stRp1456
sg146
g147
sg148
F1
sg149
Nsg30
S'CmetaF'
p1457
sbag1
(g2
g3
NtRp1458
(dp1459
g6
g1
(g7
g3
NtRp1460
(dp1461
g10
g1
(g11
g12
(dtRp1462
sg14
g1
(g11
g12
(dtRp1463
sg16
g1
(g11
g12
(dtRp1464
sg18
g1
(g11
g12
(dtRp1465
sg20
g1
(g11
g12
(dtRp1466
sg22
g1
(g11
g12
(dtRp1467
sbsg24
S'Cme'
p1468
sg26
g27
((lp1469
g29
ag30
aS'sequence'
p1470
ag32
ag33
aS'species'
p1471
atRp1472
sg37
(lp1473
sg120
g1424
sg121
S'MSYSTRWLFSTSHKDIGILYLIYGMISAMVATAMSVIIRLELSGPGDQMLHENRQVYNVLVTGHAVAMIFLFVMPVLIGAFGNFFLPIMIGAVDMAFARLNNISFWCLPPALVCIIGSLLIESGAGTGWTVYPPLSSISAHSGPSVDLAIFALHLTSISSLLGAINFIVTTLNMRSIGVHMIDMPLYVWSIFFTAMLLLLSLPVLTAGITLLLLDRNFNTGFYEVAAGGDPILYEHLFWFFGHPEVYIIIMPGFGIISHVISTYSKKEMFGHTGMIYAIASIGLLGFLVWSHHMYVVGLDIDSRAYFTSATMVIAVPTGIKMFSWLATLYGGELRLAVPMLFALGFLFLFTIGGLTGVMLSNASIDVAFHDTYYVVGHFHYVLSMGALFSLIAGYYYWGYPMFGLNYNKVLAEAHFWLLFIAVNLVFLPMHFLGLNGMPRRMPEYPDAYWGWNMVSSWGSVMSILSVILGLYSVLVQLTEG-----ENMAREEVVTPDYLESNN---TRETRDSDLEFILSKPAQYHTYSELPILIERV'
p1474
sg123
F0.00012
sg124
g125
sg33
S'20'
p1475
sg127
g1
(g128
g12
(dp1476
g130
I4
sg131
g132
sg133
g134
sg135
g132
sg136
I01
sg34
g137
sg138
g134
sg139
I0
sg140
I0
sg141
I0
sg142
g134
sg35
g143
sg144
I0
stRp1477
sg146
g147
sg148
F1
sg149
Nsg30
S'CmetaE'
p1478
sbasg120
g1411
sg123
F1.0000000000000001e-05
sg124
g125
sg33
S'163'
p1479
sg127
g1
(g128
g12
(dp1480
g130
I6
sg131
g132
sg133
g134
sg135
g132
sg136
I01
sg34
g174
sg138
g134
sg139
I0
sg140
I0
sg141
I0
sg142
g134
sg35
g175
sg144
I0
stRp1481
sg146
g147
sg148
F1
sg149
Nsg30
S'NoName'
p1482
sbag1
(g2
g3
NtRp1483
(dp1484
g6
g1
(g7
g3
NtRp1485
(dp1486
g10
g1
(g11
g12
(dtRp1487
sg14
g1
(g11
g12
(dtRp1488
sg16
g1
(g11
g12
(dtRp1489
sg18
g1
(g11
g12
(dtRp1490
sg20
g1
(g11
g12
(dtRp1491
sg22
g1
(g11
g12
(dtRp1492
sbsg24
S'Cme'
p1493
sg26
g27
((lp1494
g29
ag30
aS'sequence'
p1495
ag32
ag33
aS'species'
p1496
atRp1497
sg37
(lp1498
sg120
g1411
sg121
S'MSYSTRWLFSTSHKDIGILYLIYGMISAMVATAMSVIIRLELSGPGDQMLHENRQVYNVLVTGHAVAMIFLFVMPVLIGAFGNFFLPIMIGAVDMAFARLNNISFWCLPPALVCIIGSLLIESGAGTGWTVYPPLSSISAHSGPSVDLAIFALHLTSISSLLGAINFIVTTLNMRSIGVHMIDMPLYVWSIFFTAMLLLLSLPVLTAGITLLLLDRNFNTGFYEVAAGGDPILYEHLFWFFGHPEVYIIIMPGFGIISHVISTYSKKEMFGHTGMIYAIASIGLLGFLVWSHHMYVVGLDIDSRAYFTSATMVIAVPTGIKMFSWLATLYGGELRLAVPMLFALGFLFLFTIGGLTGVMLSNASIDVAFHDTYYVVGHFHYVLSMGALFSLIAGYYYWGYPMFGLNYNKVLAEAHFWLLFIAVNLVFLPMHFLGLNGMPRRMPEYPDAYWGWNMVSSWGSVMSILSVILGLYSVLVQLTEG-----ENMAREEVVTPDYLESNN---TRETRDSDLEFILSKPAQYHTYSELPILIERV'
p1499
sg123
F0.00020000000000000001
sg124
g125
sg33
S'191'
p1500
sg127
g1
(g128
g12
(dp1501
g130
I4
sg131
g132
sg133
g134
sg135
g132
sg136
I01
sg34
g137
sg138
g134
sg139
I0
sg140
I0
sg141
I0
sg142
g134
sg35
g143
sg144
I0
stRp1502
sg146
g147
sg148
F1
sg149
Nsg30
S'CmetaD'
p1503
sbasg120
g1398
sg123
F1.0000000000000001e-05
sg124
g125
sg33
S'122'
p1504
sg127
g1
(g128
g12
(dp1505
g130
I6
sg131
g132
sg133
g134
sg135
g132
sg136
I01
sg34
g174
sg138
g134
sg139
I0
sg140
I0
sg141
I0
sg142
g134
sg35
g175
sg144
I0
stRp1506
sg146
g147
sg148
F1
sg149
Nsg30
S'NoName'
p1507
sbag1
(g2
g3
NtRp1508
(dp1509
g6
g1
(g7
g3
NtRp1510
(dp1511
g10
g1
(g11
g12
(dtRp1512
sg14
g1
(g11
g12
(dtRp1513
sg16
g1
(g11
g12
(dtRp1514
sg18
g1
(g11
g12
(dtRp1515
sg20
g1
(g11
g12
(dtRp1516
sg22
g1
(g11
g12
(dtRp1517
sbsg24
S'Cme'
p1518
sg26
g27
((lp1519
g29
ag30
aS'sequence'
p1520
ag32
ag33
aS'species'
p1521
atRp1522
sg37
(lp1523
sg120
g1398
sg121
S'MSYSTRWLFSTSHKDIGILYLIYGMISAMVATAMSVIIRLELSGPGDQMLHENRQVYNVLVTGHAVAMIFLFVMPVLIGAFGNFFLPIMIGAVDMAFARLNNISFWCLPPALVCIIGSLLIESGAGTGWTVYPPLSSISAHSGPSVDLAIFALHLTSISSLLGAINFIVTTLNMRSIGVHMIDMPLYVWSIFFTAMLLLLSLPVLTAGITLLLLDRNFNTGFYEVAAGGDPILYEHLFWFFGHPEVYIIIMPGFGIISHVISTYSKKEMFGHTGMIYAIASIGLLGFLVWSHHMYVVGLDIDSRAYFTSATMVIAVPTGIKMFSWLATLYGGELRLAVPMLFALGFLFLFTIGGLTGVMLSNASIDVAFHDTYYVVGHFHYVLSMGALFSLIAGYYYWGYPMFGLNYNKVLAEAHFWLLFIAVNLVFLPMHFLGLNGMPRRMPEYPDAYWGWNMVSSWGSVMSILSVILGLYSVLVQLTEG-----ENMAREEVVTPDYLESNN---TRETRDSDLEFILSKPAQYHTYSELPILIERV'
p1524
sg123
F0.00052999999999999998
sg124
g125
sg33
S'7'
sg127
g1
(g128
g12
(dp1525
g130
I4
sg131
g132
sg133
g134
sg135
g132
sg136
I01
sg34
g137
sg138
g134
sg139
I0
sg140
I0
sg141
I0
sg142
g134
sg35
g143
sg144
I0
stRp1526
sg146
g147
sg148
F1
sg149
Nsg30
S'CmetaC'
p1527
sbasg120
g1385
sg123
F1.0000000000000001e-05
sg124
g125
sg33
S'124'
p1528
sg127
g1
(g128
g12
(dp1529
g130
I6
sg131
g132
sg133
g134
sg135
g132
sg136
I01
sg34
g174
sg138
g134
sg139
I0
sg140
I0
sg141
I0
sg142
g134
sg35
g175
sg144
I0
stRp1530
sg146
g147
sg148
F1
sg149
Nsg30
S'NoName'
p1531
sbag1
(g2
g3
NtRp1532
(dp1533
g6
g1
(g7
g3
NtRp1534
(dp1535
g10
g1
(g11
g12
(dtRp1536
sg14
g1
(g11
g12
(dtRp1537
sg16
g1
(g11
g12
(dtRp1538
sg18
g1
(g11
g12
(dtRp1539
sg20
g1
(g11
g12
(dtRp1540
sg22
g1
(g11
g12
(dtRp1541
sbsg24
S'Cme'
p1542
sg26
g27
((lp1543
g29
ag30
aS'sequence'
p1544
ag32
ag33
aS'species'
p1545
atRp1546
sg37
(lp1547
sg120
g1385
sg121
S'MSYSTRWLFSTSHKDIGILYLIYGMISAMVATAMSVIIRLELSGPGDQMLHENRQVYNVLVTGHAVAMIFLFVMPVLIGAFGNFFLPIMIGAVDMAFARLNNISFWCLPPALVCIIGSLLIESGAGTGWTVYPPLSSISAHSGPSVDLAIFALHLTSISSLLGAINFIVTTLNMRSIGVHMIDMPLYVWSIFFTAMLLLLSLPVLTAGITLLLLDRNFNTGFYEVAAGGDPILYEHLFWFFGHPEVYIIIMPGFGIISHVISTYSKKEMFGHTGMIYAIASIGLLGFLVWSHHMYVVGLDIDSRAYFTSATMVIAVPTGIKMFSWLATLYGGELRLAVPMLFALGFLFLFTIGGLTGVMLSNASIDVAFHDTYYVVGHFHYVLSMGALFSLIAGYYYWGYPMFGLNYNKVLAEAHFWLLFIAVNLVFLPMHFLGLNGMPRRMPEYPDAYWGWNMVSSWGSVMSILSVILGLYSVLVQLTEG-----ENMAREEVVTPDYLESNN---TRETRDSDLEFILSKPAQYHTYSELPILIERV'
p1548
sg123
F0.00012
sg124
g125
sg33
S'152'
p1549
sg127
g1
(g128
g12
(dp1550
g130
I4
sg131
g132
sg133
g134
sg135
g132
sg136
I01
sg34
g137
sg138
g134
sg139
I0
sg140
I0
sg141
I0
sg142
g134
sg35
g143
sg144
I0
stRp1551
sg146
g147
sg148
F1
sg149
Nsg30
S'CmetaB'
p1552
sbasg120
g1372
sg123
F1.0000000000000001e-05
sg124
g125
sg33
S'223'
p1553
sg127
g1
(g128
g12
(dp1554
g130
I6
sg131
g132
sg133
g134
sg135
g132
sg136
I01
sg34
g174
sg138
g134
sg139
I0
sg140
I0
sg141
I0
sg142
g134
sg35
g175
sg144
I0
stRp1555
sg146
g147
sg148
F1
sg149
Nsg30
S'NoName'
p1556
sbag1
(g2
g3
NtRp1557
(dp1558
g6
g1
(g7
g3
NtRp1559
(dp1560
g10
g1
(g11
g12
(dtRp1561
sg14
g1
(g11
g12
(dtRp1562
sg16
g1
(g11
g12
(dtRp1563
sg18
g1
(g11
g12
(dtRp1564
sg20
g1
(g11
g12
(dtRp1565
sg22
g1
(g11
g12
(dtRp1566
sbsg24
S'Cme'
p1567
sg26
g27
((lp1568
g29
ag30
aS'sequence'
p1569
ag32
ag33
aS'species'
p1570
atRp1571
sg37
(lp1572
sg120
g1372
sg121
S'MSYSTRWLFSTSHKDIGILYLIYGMISAMVATAMSVIIRLELSGPGDQMLHENRQVYNVLVTGHAVAMIFLFVMPVLIGAFGNFFLPIMIGAVDMAFARLNNISFWCLPPALVCIIGSLLIESGAGTGWTVYPPLSSISAHSGPSVDLAIFALHLTSISSLLGAINFIVTTLNMRSIGVHMIDMPLYVWSIFFTAMLLLLSLPVLTAGITLLLLDRNFNTGFYEVAAGGDPILYEHLFWFFGHPEVYIIIMPGFGIISHVISTYSKKEMFGHTGMIYAIASIGLLGFLVWSHHMYVVGLDIDSRAYFTSATMVIAVPTGIKMFSWLATLYGGELRLAVPMLFALGFLFLFTIGGLTGVMLSNASIDVAFHDTYYVVGHFHYVLSMGALFSLIAGYYYWGYPMFGLNYNKVLAEAHFWLLFIAVNLVFLPMHFLGLNGMPRRMPEYPDAYWGWNMVSSWGSVMSILSVILGLYSVLVQLTEG-----ENMAREEVVTPDYLESNN---TRETRDSDLEFILSKPAQYHTYSELPILIERV'
p1573
sg123
F0.00012999999999999999
sg124
g125
sg33
S'166'
p1574
sg127
g1
(g128
g12
(dp1575
g130
I4
sg131
g132
sg133
g134
sg135
g132
sg136
I01
sg34
g137
sg138
g134
sg139
I0
sg140
I0
sg141
I0
sg142
g134
sg35
g143
sg144
I0
stRp1576
sg146
g147
sg148
F1
sg149
Nsg30
S'CmetaA'
p1577
sbasg120
g1110
sg123
F0.020930000000000001
sg124
g125
sg33
S'220'
p1578
sg127
g1
(g128
g12
(dp1579
g130
I6
sg131
g132
sg133
g134
sg135
g132
sg136
I01
sg34
g174
sg138
g134
sg139
I0
sg140
I0
sg141
I0
sg142
g134
sg35
g175
sg144
I0
stRp1580
sg146
g147
sg148
F0.98999999999999999
sg149
Nsg30
S'NoName'
p1581
sbasg120
g1097
sg123
F0.045289999999999997
sg124
g125
sg33
S'169'
p1582
sg127
g1
(g128
g12
(dp1583
g130
I6
sg131
g132
sg133
g134
sg135
g132
sg136
I01
sg34
g174
sg138
g134
sg139
I0
sg140
I0
sg141
I0
sg142
g134
sg35
g175
sg144
I0
stRp1584
sg146
g147
sg148
F0.98999999999999999
sg149
Nsg30
S'NoName'
p1585
sbag1
(g2
g3
NtRp1586
(dp1587
g6
g1
(g7
g3
NtRp1588
(dp1589
g10
g1
(g11
g12
(dtRp1590
sg14
g1
(g11
g12
(dtRp1591
sg16
g1
(g11
g12
(dtRp1592
sg18
g1
(g11
g12
(dtRp1593
sg20
g1
(g11
g12
(dtRp1594
sg22
g1
(g11
g12
(dtRp1595
sbsg24
S'Cji'
p1596
sg26
g27
((lp1597
g29
ag30
aS'sequence'
p1598
ag32
ag33
aS'species'
p1599
atRp1600
sg37
(lp1601
sg120
g1097
sg121
S'MSYTTRWLFSTSHKDIGILYLMFGMMSAMVATSMSVMIRLELSGPGSQYLHNNNQVYNVLVTGHALAMIFLFVMPVLIGAFGNFFLPIMIGAVDMAFARLNNISFWCLPPALVCMIGSVLMESGAGTGWTVYPPLSAISAHSGPSVDLAIFAIHLTSISSLLGAINFIVTTLNMRSIGVHMMDMPMFVWAMFFTAFLLLLSLPVLTAGVTLLLMDRNFNTGFYDVAAGGDPILYEHLFWFFGHPEVYILIIPGFGIISHVISTYSKKEIFGHVGMIYAIASIGLLGFLVWSHHMYTVGLDIDSRAYFTSATMIIAVPTGIKIFSWLATLYGGELRLAVPMLFALGFLFLFTVGGLTGVMLSNASIDVAFHDTYYTVGHFHYVLSMGALFSLIAGYYYWGYAMFGLNYNKVLGEAHFWLLFISVNVIFLPMHFLGLNGMPRRIPQYPDAFLGWNVISSWGSVMSVISVIVGLYSILIQLTEG-----ENITREAAVTPDYLESNN---TRETRDSDLELILSKPAQYHTYSELPILMERV'
p1602
sg123
F0.013140000000000001
sg124
g125
sg33
S'179'
p1603
sg127
g1
(g128
g12
(dp1604
g130
I4
sg131
g132
sg133
g134
sg135
g132
sg136
I01
sg34
g137
sg138
g134
sg139
I0
sg140
I0
sg141
I0
sg142
g134
sg35
g143
sg144
I0
stRp1605
sg146
g147
sg148
F1
sg149
Nsg30
S'CjiufA'
p1606
sbasg120
g1025
sg123
F0.044909999999999999
sg124
g125
sg33
S'160'
p1607
sg127
g1
(g128
g12
(dp1608
g130
I6
sg131
g132
sg133
g134
sg135
g132
sg136
I01
sg34
g174
sg138
g134
sg139
I0
sg140
I0
sg141
I0
sg142
g134
sg35
g175
sg144
I0
stRp1609
sg146
g147
sg148
F0.98999999999999999
sg149
Nsg30
S'NoName'
p1610
sbasg120
g1012
sg123
F0.082199999999999995
sg124
g125
sg33
S'95'
p1611
sg127
g1
(g128
g12
(dp1612
g130
I6
sg131
g132
sg133
g134
sg135
g132
sg136
I01
sg34
g174
sg138
g134
sg139
I0
sg140
I0
sg141
I0
sg142
g134
sg35
g175
sg144
I0
stRp1613
sg146
g147
sg148
F0.98999999999999999
sg149
Nsg30
S'NoName'
p1614
sbag1
(g2
g3
NtRp1615
(dp1616
g6
g1
(g7
g3
NtRp1617
(dp1618
g10
g1
(g11
g12
(dtRp1619
sg14
g1
(g11
g12
(dtRp1620
sg16
g1
(g11
g12
(dtRp1621
sg18
g1
(g11
g12
(dtRp1622
sg20
g1
(g11
g12
(dtRp1623
sg22
g1
(g11
g12
(dtRp1624
sbsg24
g25
sg26
g27
((lp1625
g33
ag32
ag29
ag30
atRp1626
sg37
(lp1627
g1
(g2
g3
NtRp1628
(dp1629
g6
g1
(g7
g3
NtRp1630
(dp1631
g10
g1
(g11
g12
(dtRp1632
sg14
g1
(g11
g12
(dtRp1633
sg16
g1
(g11
g12
(dtRp1634
sg18
g1
(g11
g12
(dtRp1635
sg20
g1
(g11
g12
(dtRp1636
sg22
g1
(g11
g12
(dtRp1637
sbsg24
g25
sg26
g27
((lp1638
g33
ag32
ag29
ag30
atRp1639
sg37
(lp1640
g1
(g2
g3
NtRp1641
(dp1642
g6
g1
(g7
g3
NtRp1643
(dp1644
g10
g1
(g11
g12
(dtRp1645
sg14
g1
(g11
g12
(dtRp1646
sg16
g1
(g11
g12
(dtRp1647
sg18
g1
(g11
g12
(dtRp1648
sg20
g1
(g11
g12
(dtRp1649
sg22
g1
(g11
g12
(dtRp1650
sbsg24
S'Cco'
p1651
sg26
g27
((lp1652
g29
ag30
aS'sequence'
p1653
ag32
ag33
aS'species'
p1654
atRp1655
sg37
(lp1656
sg120
g1628
sg121
S'MSYSTRWLFSTSHKDIGILYLLFGMVSAMVATSMSVIIRMELSGPGAQFLHSNNQVYNVLVTGHALAMIFLFVMPVLIGSFGNFFLPIMMGGVDMAFARLNNISFWCLPPALVCIMASVLVESGAGTGWTLYAPLSAMSAHSGPSVDLAIFAVHLTSISSLLGAINFMVTTLNMRAMGINMIDMPLFVWAVFFTAMLLLLSLPVLTAAVTLLLMDRNFNTGFYEVAAGGDPILYEHLFFVLMHPEVYILIMPGFGIMSHVISTYSKKEMFGHVGMIYAIGSMGLLGFLVWSHHMYIVGLDIDSRAYFTSATMVIAVPTGIKIFSWLATLYGGELRLGVPMLFALGFLFLFTIGGLTGVMLSNASIDVAFHDTYYIKGHFHYVLSMGALFSLMAGYYYWGYAMFGLNYNRMMAEMHFWLLFMSVNVIFLPMHFLGLNGMPRRMPLYPDAFLGWNVVSSWGSVMSVLSVIVGLYSVLIQLSNG-----ENEAGELPVTPDYLESNN---TRSVRESDLELILDKPAHYHTYNELPILIQR-'
p1657
sg123
F0.057970000000000001
sg124
g125
sg33
S'175'
p1658
sg127
g1
(g128
g12
(dp1659
g130
I4
sg131
g132
sg133
g134
sg135
g132
sg136
I01
sg34
g137
sg138
g134
sg139
I0
sg140
I0
sg141
I0
sg142
g134
sg35
g143
sg144
I0
stRp1660
sg146
g147
sg148
F1
sg149
Nsg30
S'CcoryA'
p1661
sbag1
(g2
g3
NtRp1662
(dp1663
g6
g1
(g7
g3
NtRp1664
(dp1665
g10
g1
(g11
g12
(dtRp1666
sg14
g1
(g11
g12
(dtRp1667
sg16
g1
(g11
g12
(dtRp1668
sg18
g1
(g11
g12
(dtRp1669
sg20
g1
(g11
g12
(dtRp1670
sg22
g1
(g11
g12
(dtRp1671
sbsg24
S'Cch'
p1672
sg26
g27
((lp1673
g29
ag30
aS'sequence'
p1674
ag32
ag33
aS'species'
p1675
atRp1676
sg37
(lp1677
sg120
g1628
sg121
S'MSYSTRWLFSTSHKDIGILYLLFGMMSAMVATSMSVIIRMELSGPSAQYLHTNNQVYNVLVTGHALAMIFLFVMPVLMGAFGNFFLPMMIGGVDMAFARLNNISFWCLPPALVCIIASVLVESGAGTGWTLYAPLSAISAHSGPSVDLAIFAVHLTSISSLLGAINFIVTTLNMRAIGINMIDLPLFVWSVFFTAILLLLSLPVLTAAVTLLLMDRNFNTGFYEVAAGGDPMLYEHLFWFYMYKDYYILIMPGFGMISHVMSTYSKKEIFGHVGMIYAIGSIGLLGFLVWSHHMFIVGLDMDSRAYFTSATMVIAVPTGIKMFSWLATIYGGELRLGVPMLFALGFLFLFTIGGLTGVMLSNASIDVAFHDTYYVVGHFHYVLSMGALFSLIAGYYYWGYAMFGLNYNRVLGEMHFWVLFISVNVMFLPMHFLGLNGMPRRMPLYPDAFTGWNIVSSWGSVMSVLSVMMGLYSVLIQLSNG-----ENEAGELPVTPDYLESNN---TRSVRESDLELMLDKPAHYHTYNELPMLMQR-'
p1678
sg123
F0.052440000000000001
sg124
g125
sg33
S'176'
p1679
sg127
g1
(g128
g12
(dp1680
g130
I4
sg131
g132
sg133
g134
sg135
g132
sg136
I01
sg34
g137
sg138
g134
sg139
I0
sg140
I0
sg141
I0
sg142
g134
sg35
g143
sg144
I0
stRp1681
sg146
g147
sg148
F1
sg149
Nsg30
S'CchauA'
p1682
sbasg120
g1615
sg123
F0.16861999999999999
sg124
g125
sg33
S'171'
p1683
sg127
g1
(g128
g12
(dp1684
g130
I6
sg131
g132
sg133
g134
sg135
g132
sg136
I01
sg34
g174
sg138
g134
sg139
I0
sg140
I0
sg141
I0
sg142
g134
sg35
g175
sg144
I0
stRp1685
sg146
g147
sg148
F0.98999999999999999
sg149
Nsg30
S'NoName'
p1686
sbag1
(g2
g3
NtRp1687
(dp1688
g6
g1
(g7
g3
NtRp1689
(dp1690
g10
g1
(g11
g12
(dtRp1691
sg14
g1
(g11
g12
(dtRp1692
sg16
g1
(g11
g12
(dtRp1693
sg18
g1
(g11
g12
(dtRp1694
sg20
g1
(g11
g12
(dtRp1695
sg22
g1
(g11
g12
(dtRp1696
sbsg24
S'Cbo'
p1697
sg26
g27
((lp1698
g29
ag30
aS'sequence'
p1699
ag32
ag33
aS'species'
p1700
atRp1701
sg37
(lp1702
sg120
g1615
sg121
S'MSYVTRWLFSTSHKDIGMLYLLFGMMSAMVATAMSVMIRMELSGPGAQFLHGNNQMFNVLVTGHALAMIFLFVMPVLIGAFGNFFLPIMIGGVDMAFARLNNISFWCLPPALVCIIASVLIESGAGTGWTVYPPLSAISAHSGPSVDLAMFAMHLTSMSSLLGAINFMVTTLNMRTMGMHMIDLPLFVWSMFFTAMLLLLSLPVLTAAVTLLLLDRNFNTGFYEVAAGGDPMLYEHLFWFFGHPEVYILIMPGFGIMSHVVSTYSKKEIFGQMGMIYAIASIGLLGFLVWSHHMYVVGLDIDSRAYFTSATMVIAVPTGIKMFSWLATVYGGELRLGVPMLFALGFLFLFTIGGLTGVLLSNASIDVAFHDTYYVVGHFHYVLSMGALFSLMAAYYYWGYAMFGLRYNRVLAEMHFWVLFMSVNVMFLPMHFLGLNGMPRRIPLYPDAFLGWNLVSSWGSVMSVLSVMIGLYSVLMQLTNG-----ENEMRELPVTPDYLESNN---TRSMRESDLELMLNKPANYHTFNELPMLMGRY'
p1703
sg123
F0.20199
sg124
g125
sg33
S'174'
p1704
sg127
g1
(g128
g12
(dp1705
g130
I4
sg131
g132
sg133
g134
sg135
g132
sg136
I01
sg34
g137
sg138
g134
sg139
I0
sg140
I0
sg141
I0
sg142
g134
sg35
g143
sg144
I0
stRp1706
sg146
g147
sg148
F1
sg149
Nsg30
S'CbohiA'
p1707
sbasg120
g1012
sg123
F0.14915999999999999
sg124
g125
sg33
S'117'
p1708
sg127
g1
(g128
g12
(dp1709
g130
I6
sg131
g132
sg133
g134
sg135
g132
sg136
I01
sg34
g174
sg138
g134
sg139
I0
sg140
I0
sg141
I0
sg142
g134
sg35
g175
sg144
I0
stRp1710
sg146
g147
sg148
F0.98999999999999999
sg149
Nsg30
S'NoName'
p1711
sbasg120
g999
sg123
F0.036799999999999999
sg124
g125
sg33
S'44'
p1712
sg127
g1
(g128
g12
(dp1713
g130
I6
sg131
g132
sg133
g134
sg135
g132
sg136
I01
sg34
g174
sg138
g134
sg139
I0
sg140
I0
sg141
I0
sg142
g134
sg35
g175
sg144
I0
stRp1714
sg146
g147
sg148
F0.98999999999999999
sg149
Nsg30
S'NoName'
p1715
sbag1
(g2
g3
NtRp1716
(dp1717
g6
g1
(g7
g3
NtRp1718
(dp1719
g10
g1
(g11
g12
(dtRp1720
sg14
g1
(g11
g12
(dtRp1721
sg16
g1
(g11
g12
(dtRp1722
sg18
g1
(g11
g12
(dtRp1723
sg20
g1
(g11
g12
(dtRp1724
sg22
g1
(g11
g12
(dtRp1725
sbsg24
g25
sg26
g27
((lp1726
g33
ag32
ag29
ag30
atRp1727
sg37
(lp1728
g1
(g2
g3
NtRp1729
(dp1730
g6
g1
(g7
g3
NtRp1731
(dp1732
g10
g1
(g11
g12
(dtRp1733
sg14
g1
(g11
g12
(dtRp1734
sg16
g1
(g11
g12
(dtRp1735
sg18
g1
(g11
g12
(dtRp1736
sg20
g1
(g11
g12
(dtRp1737
sg22
g1
(g11
g12
(dtRp1738
sbsg24
g25
sg26
g27
((lp1739
g33
ag32
ag29
ag30
atRp1740
sg37
(lp1741
g1
(g2
g3
NtRp1742
(dp1743
g6
g1
(g7
g3
NtRp1744
(dp1745
g10
g1
(g11
g12
(dtRp1746
sg14
g1
(g11
g12
(dtRp1747
sg16
g1
(g11
g12
(dtRp1748
sg18
g1
(g11
g12
(dtRp1749
sg20
g1
(g11
g12
(dtRp1750
sg22
g1
(g11
g12
(dtRp1751
sbsg24
S'Cma'
p1752
sg26
g27
((lp1753
g29
ag30
aS'sequence'
p1754
ag32
ag33
aS'species'
p1755
atRp1756
sg37
(lp1757
sg120
g1729
sg121
S'MSYVTRWLFSTSHKDMAMLYLMFGMMSAMVATAMSVIIRLELSGPGPMYLQGSNQVFNVLVTGHAIAMIFLFVMPMLMGGFGNFFLPMLIGAVDMAFARLNNISFWCLPPALVCMMASVLIESGAGTGWTVYPPLSSMSAHSGPSVDLAIFAIHLTSISSLLGAINFMVTTLNMRSMGIHLTDMPLYVWAVFFTAMLLLLSLPVLTAGVTLLLMDRNFNTGFYEVAAGGDPILYQHLFWFFGHPEVYMIIMPGFGIISHIISTYSKKQMFGQIGMMYAMGSMGLLGFLVWSHHMYMVGLDMDSRAYFTSATMVIAIPTGIKMFSWLATLYGGELRLAVPMLFALGFLFLFTVGGLTGVMLSNASMDVAFHDTYYVVGHFHYVLSMGALFSLIAGYYYWGSAMFGLSYNKVLAEAHYWLLFISVNLMFLPMHFLGLNGMPRRMPQYPDAFTGWNLVSSWGSVMSMLSVVLGLYSVLYQLENG-----ENIKEEVAVTPDYLESNN---TRSNRNSDIELMLARPANYHTYTELPMLMQNI'
p1758
sg123
F0.24277000000000001
sg124
g125
sg33
S'170'
p1759
sg127
g1
(g128
g12
(dp1760
g130
I4
sg131
g132
sg133
g134
sg135
g132
sg136
I01
sg34
g137
sg138
g134
sg139
I0
sg140
I0
sg141
I0
sg142
g134
sg35
g143
sg144
I0
stRp1761
sg146
g147
sg148
F1
sg149
Nsg30
S'CmaltA'
p1762
sbag1
(g2
g3
NtRp1763
(dp1764
g6
g1
(g7
g3
NtRp1765
(dp1766
g10
g1
(g11
g12
(dtRp1767
sg14
g1
(g11
g12
(dtRp1768
sg16
g1
(g11
g12
(dtRp1769
sg18
g1
(g11
g12
(dtRp1770
sg20
g1
(g11
g12
(dtRp1771
sg22
g1
(g11
g12
(dtRp1772
sbsg24
g25
sg26
g27
((lp1773
g33
ag32
ag29
ag30
atRp1774
sg37
(lp1775
g1
(g2
g3
NtRp1776
(dp1777
g6
g1
(g7
g3
NtRp1778
(dp1779
g10
g1
(g11
g12
(dtRp1780
sg14
g1
(g11
g12
(dtRp1781
sg16
g1
(g11
g12
(dtRp1782
sg18
g1
(g11
g12
(dtRp1783
sg20
g1
(g11
g12
(dtRp1784
sg22
g1
(g11
g12
(dtRp1785
sbsg24
g25
sg26
g27
((lp1786
g33
ag32
ag29
ag30
atRp1787
sg37
(lp1788
g1
(g2
g3
NtRp1789
(dp1790
g6
g1
(g7
g3
NtRp1791
(dp1792
g10
g1
(g11
g12
(dtRp1793
sg14
g1
(g11
g12
(dtRp1794
sg16
g1
(g11
g12
(dtRp1795
sg18
g1
(g11
g12
(dtRp1796
sg20
g1
(g11
g12
(dtRp1797
sg22
g1
(g11
g12
(dtRp1798
sbsg24
g25
sg26
g27
((lp1799
g33
ag32
ag29
ag30
atRp1800
sg37
(lp1801
g1
(g2
g3
NtRp1802
(dp1803
g6
g1
(g7
g3
NtRp1804
(dp1805
g10
g1
(g11
g12
(dtRp1806
sg14
g1
(g11
g12
(dtRp1807
sg16
g1
(g11
g12
(dtRp1808
sg18
g1
(g11
g12
(dtRp1809
sg20
g1
(g11
g12
(dtRp1810
sg22
g1
(g11
g12
(dtRp1811
sbsg24
g25
sg26
g27
((lp1812
g33
ag32
ag29
ag30
atRp1813
sg37
(lp1814
g1
(g2
g3
NtRp1815
(dp1816
g6
g1
(g7
g3
NtRp1817
(dp1818
g10
g1
(g11
g12
(dtRp1819
sg14
g1
(g11
g12
(dtRp1820
sg16
g1
(g11
g12
(dtRp1821
sg18
g1
(g11
g12
(dtRp1822
sg20
g1
(g11
g12
(dtRp1823
sg22
g1
(g11
g12
(dtRp1824
sbsg24
S'Ctr'
p1825
sg26
g27
((lp1826
g29
ag30
aS'sequence'
p1827
ag32
ag33
aS'species'
p1828
atRp1829
sg37
(lp1830
sg120
g1802
sg121
S'MNYVTRWLFSTSHKDIGILYMIFGMICAMVATAMSVIIRLELSGPGPMFLHGNNQVFNVLVTGHAIAMIFLFVMPFLIGGFGNYFLPIMIGGVDMAFARLNNISFWCLPPALVCVIASLLIETGAGTGWTVYPPLSSISAHSGPSVDLAIFAMHLTSISSLLGAINFIVTTLNMRSIGIHMTDMPLFVWSVFFTAILLLLSLPVLTAGVTLLLMDRNFNTGFYEVAAGGDPILYQHLFWFFGHPEVYILIMPGFGIISHIISTYTKKQIFGQIGMIYAIGSIGLLGFLVWSHHMYVVGLDIDSRAYFTSATMVIAIPTGIKIFSWLATLYGGELRLAVPMLFALGFLFLFTIGGTTGVMLSNASIDVAFHDSYYVVGHFHYVLSMGALFSLIGGYYYWGPSMFGLNYNKVLAEVHYWVLFMSVNIIFLPMHFLGLNGMPRRIPQYPDAFYGWNLISSWGSIMSVLSVVIGLYSVLVQLENG-----ENEREEIQVTPDFLEANN---TRATRDSDLELILARPANYHTFNELPILMQHV'
p1831
sg123
F0.00064000000000000005
sg124
g125
sg33
S'224'
p1832
sg127
g1
(g128
g12
(dp1833
g130
I4
sg131
g132
sg133
g134
sg135
g132
sg136
I01
sg34
g137
sg138
g134
sg139
I0
sg140
I0
sg141
I0
sg142
g134
sg35
g143
sg144
I0
stRp1834
sg146
g147
sg148
F1
sg149
Nsg30
S'CtropB'
p1835
sbag1
(g2
g3
NtRp1836
(dp1837
g6
g1
(g7
g3
NtRp1838
(dp1839
g10
g1
(g11
g12
(dtRp1840
sg14
g1
(g11
g12
(dtRp1841
sg16
g1
(g11
g12
(dtRp1842
sg18
g1
(g11
g12
(dtRp1843
sg20
g1
(g11
g12
(dtRp1844
sg22
g1
(g11
g12
(dtRp1845
sbsg24
S'Ctr'
p1846
sg26
g27
((lp1847
g29
ag30
aS'sequence'
p1848
ag32
ag33
aS'species'
p1849
atRp1850
sg37
(lp1851
sg120
g1802
sg121
S'MNYVTRWLFSTSHKDIGILYMIFGMICAMVATAMSVIIRLELSGPGPMFLHGNNQVFNVLVTGHAIAMIFLFVMPFLIGGFGNYFLPIMIGGVDMAFARLNNISFWCLPPALVCVIASLLIETGAGTGWTVYPPLSSISAHSGPSVDLAIFAMHLTSMSSLLGAINFIVTTLNMRSIGIHMTDMPLFVWSVFFTAILLLLSLPVLTAGVTLLLMDRNFNTGFYEVAAGGDPILYQHLFWFFGHPEVYILIMPGFGIISHIISTYTKKQIFGQIGMIYAIGSIGLLGFLVWSHHMYVVGLDIDSRAYFTSATMVIAIPTGIKIFSWLATLYGGELRLAVPMLFALGFLFLFTIGGTTGVMLSNASIDVAFHDSYYVVGHFHYVLSMGALFSLIGGYYYWGPSMFGLNYNKVLAEVHYWVLFISVNIIFLPMHFLGLNGMPRRIPQYPDAFYGWNLISSWGSIMSVLSVVIGLYSVLVQLENG-----ENEREEIQVTPDFLEANN---TRATRDSDLELILARPANYHTFNELPILMQHV'
p1852
sg123
F0.00040000000000000002
sg124
g125
sg33
S'146'
p1853
sg127
g1
(g128
g12
(dp1854
g130
I4
sg131
g132
sg133
g134
sg135
g132
sg136
I01
sg34
g137
sg138
g134
sg139
I0
sg140
I0
sg141
I0
sg142
g134
sg35
g143
sg144
I0
stRp1855
sg146
g147
sg148
F1
sg149
Nsg30
S'CtropA'
p1856
sbasg120
g1789
sg123
F0.032030000000000003
sg124
g125
sg33
S'108'
p1857
sg127
g1
(g128
g12
(dp1858
g130
I6
sg131
g132
sg133
g134
sg135
g132
sg136
I01
sg34
g174
sg138
g134
sg139
I0
sg140
I0
sg141
I0
sg142
g134
sg35
g175
sg144
I0
stRp1859
sg146
g147
sg148
F0.98999999999999999
sg149
Nsg30
S'NoName'
p1860
sbag1
(g2
g3
NtRp1861
(dp1862
g6
g1
(g7
g3
NtRp1863
(dp1864
g10
g1
(g11
g12
(dtRp1865
sg14
g1
(g11
g12
(dtRp1866
sg16
g1
(g11
g12
(dtRp1867
sg18
g1
(g11
g12
(dtRp1868
sg20
g1
(g11
g12
(dtRp1869
sg22
g1
(g11
g12
(dtRp1870
sbsg24
S'Cso'
p1871
sg26
g27
((lp1872
g29
ag30
aS'sequence'
p1873
ag32
ag33
aS'species'
p1874
atRp1875
sg37
(lp1876
sg120
g1789
sg121
S'MNYMTRWLFSTSHKDIGMLYMMFGMMCAMVATAMSVMMRLELSGPGPMFLHGNNQVFNVLVTGHAMAMIFLFVMPFLIGGFGNYFLPMMIGGVDMAFARLNNISFWCLPPALVCVMASLLMETGAGTGWTVYPPLSSISAHSGPSVDLAMFAMHLTSMSSLLGAMNFMVTTLNMRSMGIHMTDMPLFVWSMFFTAMLLLLSLPVLTAGVTLLLMDRNFNTGFYEVAAGGDPMLYQHLFWFFGHPEVYILIMPGFGMMSHIMSTYTKKQMFGQIGMMYAIGSIGLLGFLVWSHHMYVVGLDIDSRAYFTSATMVIAIPTGIKIFSWLATLYGGELRLAVPMLFALGFLFLFTIGGTTGVMLSNASIDVAFHDTYYVVGHFHYVLSMGALFSLIGGYYYWGPSMFGLNYNKVLAEVHYWLLFISVNIIFLPMHFLGLNGMPRRMPQYPDAFFGWNFMSSWGSMMSVLSVVVALYSVLVQLENG-----EEERAEVQVTPDFLEANN---TRSLRDSDLELMLARPANYHTFNELPILIQHV'
p1877
sg123
F0.033649999999999999
sg124
g125
sg33
S'84'
p1878
sg127
g1
(g128
g12
(dp1879
g130
I4
sg131
g132
sg133
g134
sg135
g132
sg136
I01
sg34
g137
sg138
g134
sg139
I0
sg140
I0
sg141
I0
sg142
g134
sg35
g143
sg144
I0
stRp1880
sg146
g147
sg148
F1
sg149
Nsg30
S'CsojaA'
p1881
sbasg120
g1776
sg123
F0.019990000000000001
sg124
g125
sg33
S'211'
p1882
sg127
g1
(g128
g12
(dp1883
g130
I6
sg131
g132
sg133
g134
sg135
g132
sg136
I01
sg34
g174
sg138
g134
sg139
I0
sg140
I0
sg141
I0
sg142
g134
sg35
g175
sg144
I0
stRp1884
sg146
g147
sg148
F0.98999999999999999
sg149
Nsg30
S'NoName'
p1885
sbag1
(g2
g3
NtRp1886
(dp1887
g6
g1
(g7
g3
NtRp1888
(dp1889
g10
g1
(g11
g12
(dtRp1890
sg14
g1
(g11
g12
(dtRp1891
sg16
g1
(g11
g12
(dtRp1892
sg18
g1
(g11
g12
(dtRp1893
sg20
g1
(g11
g12
(dtRp1894
sg22
g1
(g11
g12
(dtRp1895
sbsg24
g25
sg26
g27
((lp1896
g33
ag32
ag29
ag30
atRp1897
sg37
(lp1898
g1
(g2
g3
NtRp1899
(dp1900
g6
g1
(g7
g3
NtRp1901
(dp1902
g10
g1
(g11
g12
(dtRp1903
sg14
g1
(g11
g12
(dtRp1904
sg16
g1
(g11
g12
(dtRp1905
sg18
g1
(g11
g12
(dtRp1906
sg20
g1
(g11
g12
(dtRp1907
sg22
g1
(g11
g12
(dtRp1908
sbsg24
S'Cte'
p1909
sg26
g27
((lp1910
g29
ag30
aS'sequence'
p1911
ag32
ag33
aS'species'
p1912
atRp1913
sg37
(lp1914
sg120
g1886
sg121
S'MNYVTRWLFSTSHKDIGMLYMMFGMMCAMVATAMSVMIRLELSGPGPMFLHGNNQAFNVLVTGHALAMIFLFVMPFLMGGFGNYFLPIMIGGVDMAFARLNNISFWCLPPALVCIIASLLIETGAGTGWTVYPPLSSISAHSGPSVDMAMFAMHLTSMSSLLGAINFMVTTLNMRSMGMHMIDMPLFVWSVFFTAMLLLLSLPVLTAGVTLLLMDRNFNTGFYEVGAGGDPVLYQHLFWFFGHPEVYILIIPGFGMISHIISTYTKKQMFGQIGMIYAMGSIGLLGFLVWSHHMFVVGLDIDSRAYFTSATMVMAMPTGIKMFSWLATLYGGELRLGVPMLFALGFLFLFTMGGTTGVMLSNASIDVSMHDTYYVVGHFHYVLSMGALFSLIGGYYYWGPSMFGLNYNRVLGEVHYWILFISVNIMFLPMHFLGLNGMPRRMPQYPDAFYGWNLMSSWGSILSVLSVVMGLLSVLVQLENG-----QNEREEIQVTPDYLESNN---TRLTRNSDLELMLSRPASYHTFSELPILVQHV'
p1915
sg123
F0.084209999999999993
sg124
g125
sg33
S'94'
p1916
sg127
g1
(g128
g12
(dp1917
g130
I4
sg131
g132
sg133
g134
sg135
g132
sg136
I01
sg34
g137
sg138
g134
sg139
I0
sg140
I0
sg141
I0
sg142
g134
sg35
g143
sg144
I0
stRp1918
sg146
g147
sg148
F1
sg149
Nsg30
S'CtetrA'
p1919
sbag1
(g2
g3
NtRp1920
(dp1921
g6
g1
(g7
g3
NtRp1922
(dp1923
g10
g1
(g11
g12
(dtRp1924
sg14
g1
(g11
g12
(dtRp1925
sg16
g1
(g11
g12
(dtRp1926
sg18
g1
(g11
g12
(dtRp1927
sg20
g1
(g11
g12
(dtRp1928
sg22
g1
(g11
g12
(dtRp1929
sbsg24
g25
sg26
g27
((lp1930
g33
ag32
ag29
ag30
atRp1931
sg37
(lp1932
g1
(g2
g3
NtRp1933
(dp1934
g6
g1
(g7
g3
NtRp1935
(dp1936
g10
g1
(g11
g12
(dtRp1937
sg14
g1
(g11
g12
(dtRp1938
sg16
g1
(g11
g12
(dtRp1939
sg18
g1
(g11
g12
(dtRp1940
sg20
g1
(g11
g12
(dtRp1941
sg22
g1
(g11
g12
(dtRp1942
sbsg24
g25
sg26
g27
((lp1943
g33
ag32
ag29
ag30
atRp1944
sg37
(lp1945
g1
(g2
g3
NtRp1946
(dp1947
g6
g1
(g7
g3
NtRp1948
(dp1949
g10
g1
(g11
g12
(dtRp1950
sg14
g1
(g11
g12
(dtRp1951
sg16
g1
(g11
g12
(dtRp1952
sg18
g1
(g11
g12
(dtRp1953
sg20
g1
(g11
g12
(dtRp1954
sg22
g1
(g11
g12
(dtRp1955
sbsg24
S'Cvi'
p1956
sg26
g27
((lp1957
g29
ag30
aS'sequence'
p1958
ag32
ag33
aS'species'
p1959
atRp1960
sg37
(lp1961
sg120
g1933
sg121
S'MSYMTRWFFSTSHKDIGMLYMMFGMICAMVATAMSVIIRLELSGPGPMFLHSNNQVFNVLVTGHAIAMMFLFVMPFLMGGFGNYFLPIMIGGVDMAFARLNNISFWCLPPALVCVIASLLMETGAGTGWTVYPPLSSISAHSGPSVDLAMFAMHLTSISSLLGAINFMVTALNMRSMGMHMVDMPLFAWSMFFTAMLLLLSLPVLTAGVTLLLMDRNFNTGFYDVAAGGDPVLYQHLFWFFGHPEVYMLIMPGFGIMSHMISTYTKKQMFGQIGMIYAMGSIGLLGFLVWSHHMYVVGLDMDSRAYFTSATMVIAIPTGIKIFSWLSTLYGGELRLAVPTLFALGFLFLFTMGGTTGVMLSNASIDVSMHDTYYVVGHFHYVLSMGALFSLIGGYYYWGPSMFGLNYNKVLGEMHYWMLFMSVNLMFLPMHFLGLNGMPRRMPQYPDSFYGWNLMSSWGSIMSVISVVMGLFSVLVQLTEG-----ETLREEMQVTPDYIESNN---TRENRNSDMELILPRPANYHTFLELPVLATAE'
p1962
sg123
F0.03977
sg124
g125
sg33
S'150'
p1963
sg127
g1
(g128
g12
(dp1964
g130
I4
sg131
g132
sg133
g134
sg135
g132
sg136
I01
sg34
g137
sg138
g134
sg139
I0
sg140
I0
sg141
I0
sg142
g134
sg35
g143
sg144
I0
stRp1965
sg146
g147
sg148
F1
sg149
Nsg30
S'CviswA'
p1966
sbag1
(g2
g3
NtRp1967
(dp1968
g6
g1
(g7
g3
NtRp1969
(dp1970
g10
g1
(g11
g12
(dtRp1971
sg14
g1
(g11
g12
(dtRp1972
sg16
g1
(g11
g12
(dtRp1973
sg18
g1
(g11
g12
(dtRp1974
sg20
g1
(g11
g12
(dtRp1975
sg22
g1
(g11
g12
(dtRp1976
sbsg24
S'Csa'
p1977
sg26
g27
((lp1978
g29
ag30
aS'sequence'
p1979
ag32
ag33
aS'species'
p1980
atRp1981
sg37
(lp1982
sg120
g1933
sg121
S'MDYMTRWFFSTSHKDIGILYMMFGMICAMVATAMSVIIRLELSGPGPMFLHNNNQVFNVLVTGHAIAMIFLFVMPFLMGGFGNYFLPIMIGGVDMAFARLNNISFWCLPPALVCIMASLLMETGAGTGWTVYPPLSSISAHSGPSVDLAMFAIHLTSMSSLLGAINFMVTALNMRSMGMHMGNMVLFAWSIFFTAILLLLSLPVLTAGVTLLLMDRNFNTGFYDVAAGGDPVLYQHLFWFFGHPEVYILIIPGFGIISHIISTFSKKPMFGQIGMIYAIGSIGLLGFLVWSHHMYVVGLDMDSRAYFTSATMVIAMPTGIKIFSWIATLYGGELRLAVPTLFALGFLFLFTMGGTTGVMLSNASIDVSMHDTYYVVGHFHYVLSMGALFSLMGGYYYWGPSMFGLNYNKVLGELHYWILFMSVNLMFLPMHFLGLNGMPRRMPQYPDSFYGWNLMSSWGSIMSVLSVVMGLYSVLVQLEQG-----ETLREEMQVTPDYIEGNM---TRNNRNSDLELMLDRPAKYHTFAELPILKSLK'
p1983
sg123
F0.065189999999999998
sg124
g125
sg33
S'212'
p1984
sg127
g1
(g128
g12
(dp1985
g130
I4
sg131
g132
sg133
g134
sg135
g132
sg136
I01
sg34
g137
sg138
g134
sg139
I0
sg140
I0
sg141
I0
sg142
g134
sg35
g143
sg144
I0
stRp1986
sg146
g147
sg148
F1
sg149
Nsg30
S'CsaraA'
p1987
sbasg120
g1920
sg123
F0.029960000000000001
sg124
g125
sg33
S'154'
p1988
sg127
g1
(g128
g12
(dp1989
g130
I6
sg131
g132
sg133
g134
sg135
g132
sg136
I01
sg34
g174
sg138
g134
sg139
I0
sg140
I0
sg141
I0
sg142
g134
sg35
g175
sg144
I0
stRp1990
sg146
g147
sg148
F0.98999999999999999
sg149
Nsg30
S'NoName'
p1991
sbag1
(g2
g3
NtRp1992
(dp1993
g6
g1
(g7
g3
NtRp1994
(dp1995
g10
g1
(g11
g12
(dtRp1996
sg14
g1
(g11
g12
(dtRp1997
sg16
g1
(g11
g12
(dtRp1998
sg18
g1
(g11
g12
(dtRp1999
sg20
g1
(g11
g12
(dtRp2000
sg22
g1
(g11
g12
(dtRp2001
sbsg24
S'Cpr'
p2002
sg26
g27
((lp2003
g29
ag30
aS'sequence'
p2004
ag32
ag33
aS'species'
p2005
atRp2006
sg37
(lp2007
sg120
g1920
sg121
S'MPYTTRWFLSTAHKDMGIEYMMFGIMCAMVATAMSVMMRLELSGPGPMFLHGNNQMFNVLVTGHAMAMLFLFVMPFLMGGFGNYFLPMMVGGVDMAFARLNNISFWCLPPALVCVMASLLMETGAGTGWTVYPPLSSMSAHSGPSVDLAMFAMHLTSMSSLLGAINFIVTTLNMRTMGMFMQTMPLFVWSMFFTAMLLLLSLPVLSTGVTLLLMDRNFNTGFYDVAAGGDPMLYQHLFWFFGHPEVYMLIMPGFGMMSHIISTYTKKPMFGQMGMMYAMGSMGLLGFLVWSHHMFVVGLDIDSRAYFTSATMVMAMPTGIKIFSWLATLYGGELRLAVPMLFALGFLFLFTIGGTTGVMLSNASMDVSMHDTYYVVGHFHYVLSMGALFSLIGGYYYWGPSIFGLQYNKVLGELHYWALFVSVNMMFLPMHFLGLNGMPRRMPQYPDSFFGWNFMSSWGSVMSVMSVMMALVSVSQQLEHG-----TVLREEVQVTPDYLENNN---LRNHRNTDMEFVLSRPAPYHTFAELPVAVNS-'
p2008
sg123
F0.17724999999999999
sg124
g125
sg33
S'34'
p2009
sg127
g1
(g128
g12
(dp2010
g130
I4
sg131
g132
sg133
g134
sg135
g132
sg136
I01
sg34
g137
sg138
g134
sg139
I0
sg140
I0
sg141
I0
sg142
g134
sg35
g143
sg144
I0
stRp2011
sg146
g147
sg148
F1
sg149
Nsg30
S'CpracA'
p2012
sbasg120
g1886
sg123
F0.02281
sg124
g125
sg33
S'129'
p2013
sg127
g1
(g128
g12
(dp2014
g130
I6
sg131
g132
sg133
g134
sg135
g132
sg136
I01
sg34
g174
sg138
g134
sg139
I0
sg140
I0
sg141
I0
sg142
g134
sg35
g175
sg144
I0
stRp2015
sg146
g147
sg148
F0.98999999999999999
sg149
Nsg30
S'NoName'
p2016
sbasg120
g1776
sg123
F0.01154
sg124
g125
sg33
S'43'
p2017
sg127
g1
(g128
g12
(dp2018
g130
I6
sg131
g132
sg133
g134
sg135
g132
sg136
I01
sg34
g174
sg138
g134
sg139
I0
sg140
I0
sg141
I0
sg142
g134
sg35
g175
sg144
I0
stRp2019
sg146
g147
sg148
F0.98999999999999999
sg149
Nsg30
S'NoName'
p2020
sbasg120
g1763
sg123
F0.02138
sg124
g125
sg33
S'205'
p2021
sg127
g1
(g128
g12
(dp2022
g130
I6
sg131
g132
sg133
g134
sg135
g132
sg136
I01
sg34
g174
sg138
g134
sg139
I0
sg140
I0
sg141
I0
sg142
g134
sg35
g175
sg144
I0
stRp2023
sg146
g147
sg148
F0.98999999999999999
sg149
Nsg30
S'NoName'
p2024
sbag1
(g2
g3
NtRp2025
(dp2026
g6
g1
(g7
g3
NtRp2027
(dp2028
g10
g1
(g11
g12
(dtRp2029
sg14
g1
(g11
g12
(dtRp2030
sg16
g1
(g11
g12
(dtRp2031
sg18
g1
(g11
g12
(dtRp2032
sg20
g1
(g11
g12
(dtRp2033
sg22
g1
(g11
g12
(dtRp2034
sbsg24
g25
sg26
g27
((lp2035
g33
ag32
ag29
ag30
atRp2036
sg37
(lp2037
g1
(g2
g3
NtRp2038
(dp2039
g6
g1
(g7
g3
NtRp2040
(dp2041
g10
g1
(g11
g12
(dtRp2042
sg14
g1
(g11
g12
(dtRp2043
sg16
g1
(g11
g12
(dtRp2044
sg18
g1
(g11
g12
(dtRp2045
sg20
g1
(g11
g12
(dtRp2046
sg22
g1
(g11
g12
(dtRp2047
sbsg24
S'Cne'
p2048
sg26
g27
((lp2049
g29
ag30
aS'sequence'
p2050
ag32
ag33
aS'species'
p2051
atRp2052
sg37
(lp2053
sg120
g2025
sg121
S'MSYMTRWLFSTSHKDIGILYMMFGMICAMVATAMSVIIRLELSGPGPMFLHGNNQVFNVLVTGHAIAMMFLFVMPFLMGGFGNFYLPIMIGGVDMAFARLNNISFWCLPPALVCVMASLLMETGAGTGWTVYPPLSAISAHSGPSVDLAMFAIHLTSISSLLGAINFIVTTLNMRSIGIHMTDMPLFAWSMFFTAMLLLLSLPVLTAGVTLLLMDRNFNTGFYDVGAGGDPVLYQHLFWFFGHPEVYILIIPGFGMISHIISTYTKKQIFGQMGMIYAIGSIGLLGFLVWSHHMYVVGLDIDSRAYFTSATMVIAIPTGIKMFSWLATLYGGELRLAVPMLFALGFLFLFTIGGTTGVMLSNASIDVAFHDTYYVVGHFHYVLSMGALFSLIGGYYYWGPSMFGLNYNKVLAEVHYWMLFMSVNIMFLPMHFLGLNGMPRRMPQYPDSFYGWNLISSWGSIMSILSVMIALYSVLVQLENG-----ENEREEVQVTPDFLESNN---TRSTRNSDLELILSRPANYHTFIELPILIQHY'
p2054
sg123
F0.04879
sg124
g125
sg33
S'3'
sg127
g1
(g128
g12
(dp2055
g130
I4
sg131
g132
sg133
g134
sg135
g132
sg136
I01
sg34
g137
sg138
g134
sg139
I0
sg140
I0
sg141
I0
sg142
g134
sg35
g143
sg144
I0
stRp2056
sg146
g147
sg148
F1
sg149
Nsg30
S'CneerA'
p2057
sbag1
(g2
g3
NtRp2058
(dp2059
g6
g1
(g7
g3
NtRp2060
(dp2061
g10
g1
(g11
g12
(dtRp2062
sg14
g1
(g11
g12
(dtRp2063
sg16
g1
(g11
g12
(dtRp2064
sg18
g1
(g11
g12
(dtRp2065
sg20
g1
(g11
g12
(dtRp2066
sg22
g1
(g11
g12
(dtRp2067
sbsg24
S'Cfr'
p2068
sg26
g27
((lp2069
g29
ag30
aS'sequence'
p2070
ag32
ag33
aS'species'
p2071
atRp2072
sg37
(lp2073
sg120
g2025
sg121
S'MSYLTRWLFSTSHKDIGILYMMFGMMCAMVATAMSVIIRLELSGPGPMYLHSNNQVFNVLVTGHAMAMIFLFVMPFLIGGFGNFYLPMMIGGVDMAFARLNNISFWCLPPALVCVMASLLIETGAGTGWTVYPPLSSISAHSGPSVDLAMFAMHLTSMSSLLGAMNFMVTTMNMRSIGMHMTDMPLFAWAMFFTAMLLLLSLPVLTAGVTLLLMDRNFNTGFYDVGAGGDPVLYQHLFWFFGHPEVYILIMPGFGIMSHMISTYTKKQMFGQMGMIYAMGSIGLLGFLVWSHHMYVVGLDIDSRAYFTSATMVIAIPTGIKMFSWLSTLYGGELRLAVPMLFALGFLFLFTIGGTTGVMLSNASIDIAFHDTYYVVGHFHYVLSMGALFSLMGGYYYWGPSMFGLNYNKVLAEVHYWMLFMSVNIMFLPMHFLGLNGMPRRMPQYPDSFYGWNLMSSWGSMMSMLSVMMALYSMLMQLDNG-----QNEREEMHVTPDFLESNN---TRSMRDSDIELMLSKPANYHTFIELPILIQHY'
p2074
sg123
F0.050279999999999998
sg124
g125
sg33
S'23'
p2075
sg127
g1
(g128
g12
(dp2076
g130
I4
sg131
g132
sg133
g134
sg135
g132
sg136
I01
sg34
g137
sg138
g134
sg139
I0
sg140
I0
sg141
I0
sg142
g134
sg35
g143
sg144
I0
stRp2077
sg146
g147
sg148
F1
sg149
Nsg30
S'CfrijA'
p2078
sbasg120
g1763
sg123
F0.11378000000000001
sg124
g125
sg33
S'15'
p2079
sg127
g1
(g128
g12
(dp2080
g130
I6
sg131
g132
sg133
g134
sg135
g132
sg136
I01
sg34
g174
sg138
g134
sg139
I0
sg140
I0
sg141
I0
sg142
g134
sg35
g175
sg144
I0
stRp2081
sg146
g147
sg148
F0.98999999999999999
sg149
Nsg30
S'NoName'
p2082
sbasg120
g1729
sg123
F0.076910000000000006
sg124
g125
sg33
S'54'
p2083
sg127
g1
(g128
g12
(dp2084
g130
I6
sg131
g132
sg133
g134
sg135
g132
sg136
I01
sg34
g174
sg138
g134
sg139
I0
sg140
I0
sg141
I0
sg142
g134
sg35
g175
sg144
I0
stRp2085
sg146
g147
sg148
F0.98999999999999999
sg149
Nsg30
S'NoName'
p2086
sbasg120
g1716
sg123
F0.022950000000000002
sg124
g125
sg33
S'221'
p2087
sg127
g1
(g128
g12
(dp2088
g130
I6
sg131
g132
sg133
g134
sg135
g132
sg136
I01
sg34
g174
sg138
g134
sg139
I0
sg140
I0
sg141
I0
sg142
g134
sg35
g175
sg144
I0
stRp2089
sg146
g147
sg148
F0.65000000000000002
sg149
Nsg30
S'NoName'
p2090
sbag1
(g2
g3
NtRp2091
(dp2092
g6
g1
(g7
g3
NtRp2093
(dp2094
g10
g1
(g11
g12
(dtRp2095
sg14
g1
(g11
g12
(dtRp2096
sg16
g1
(g11
g12
(dtRp2097
sg18
g1
(g11
g12
(dtRp2098
sg20
g1
(g11
g12
(dtRp2099
sg22
g1
(g11
g12
(dtRp2100
sbsg24
g25
sg26
g27
((lp2101
g33
ag32
ag29
ag30
atRp2102
sg37
(lp2103
g1
(g2
g3
NtRp2104
(dp2105
g6
g1
(g7
g3
NtRp2106
(dp2107
g10
g1
(g11
g12
(dtRp2108
sg14
g1
(g11
g12
(dtRp2109
sg16
g1
(g11
g12
(dtRp2110
sg18
g1
(g11
g12
(dtRp2111
sg20
g1
(g11
g12
(dtRp2112
sg22
g1
(g11
g12
(dtRp2113
sbsg24
g25
sg26
g27
((lp2114
g33
ag32
ag29
ag30
atRp2115
sg37
(lp2116
g1
(g2
g3
NtRp2117
(dp2118
g6
g1
(g7
g3
NtRp2119
(dp2120
g10
g1
(g11
g12
(dtRp2121
sg14
g1
(g11
g12
(dtRp2122
sg16
g1
(g11
g12
(dtRp2123
sg18
g1
(g11
g12
(dtRp2124
sg20
g1
(g11
g12
(dtRp2125
sg22
g1
(g11
g12
(dtRp2126
sbsg24
S'Cgi'
p2127
sg26
g27
((lp2128
g29
ag30
aS'sequence'
p2129
ag32
ag33
aS'species'
p2130
atRp2131
sg37
(lp2132
sg120
g2104
sg121
S'MNYSTRWLYSTSHKDIGVLYLIFGMVCAMVATAMSVLIRLELSGAGPMYLHANNQVFNVLVTGHALVMIFLFVMPVLIGAFGNYFLPIMIGAVDMAFARLNNISFWCLPPALVCVIASVLIETGAGTGWTVYPPLSSISAHSGPSVDMAIFAIHLTTISSLLGAINFIVTTLNMRSIGVHMADMPLFAWAVFFTAILLLLSLPVLTAAVTLLLMDRNFNTGFYEVAAGGDPILYQHAFWFFGHPEVYILIIPGFGIVSHILSTYSKKEIFGRIGMVYAIGSIGLLGFLVWSHHMYVVGLDIDSRAYFTSATMVIAIPTGIKIFSWLATLYGGELRLAVPMLFALGFLFLFTVGGLTGVMLSNASIDVAFHDTYYVVGHFHYVLSMGALFSLVGGYYYWGPAMFGLNYNRVLAEAHYWLLFISVNLIFLPMHFLGLNGMPRRIPLYPDAFLGWNVVSSWGSVMSVLSIIVALYSVQVQLTDG-----ESQARLVDVTPDYLESNG---LRATRDSDLELILDRPAHYHTYAELPILIQQV'
p2133
sg123
F0.22796
sg124
g125
sg33
S'48'
p2134
sg127
g1
(g128
g12
(dp2135
g130
I4
sg131
g132
sg133
g134
sg135
g132
sg136
I01
sg34
g137
sg138
g134
sg139
I0
sg140
I0
sg141
I0
sg142
g134
sg35
g143
sg144
I0
stRp2136
sg146
g147
sg148
F1
sg149
Nsg30
S'CgigaA'
p2137
sbag1
(g2
g3
NtRp2138
(dp2139
g6
g1
(g7
g3
NtRp2140
(dp2141
g10
g1
(g11
g12
(dtRp2142
sg14
g1
(g11
g12
(dtRp2143
sg16
g1
(g11
g12
(dtRp2144
sg18
g1
(g11
g12
(dtRp2145
sg20
g1
(g11
g12
(dtRp2146
sg22
g1
(g11
g12
(dtRp2147
sbsg24
S'Cbu'
p2148
sg26
g27
((lp2149
g29
ag30
aS'sequence'
p2150
ag32
ag33
aS'species'
p2151
atRp2152
sg37
(lp2153
sg120
g2104
sg121
S'MSYTTRWLFSTSHKDMGMLYLMFGMVSAMVATAMSVMMRLELSGAGPMFLHGNNQVFNVLVTGHALAMMFLFVMPMLMGAFGNYFLPMMMGAVDMAFARLNNISFWCLPPALVCMMASVLMETGAGTGWTVYPPLSSISAHSGPSVDLAMFTMHLTSMSSLLGAINFMVTTLNMRSMGMHMTDMPLFVWAVFFTAMLLLLSLPVLTAGVTLLLMDRNFNTGFYEVAAGGDPMLYEHLFWFFGHPEVYILIMPGFGMISHMLGTYSKKEMFGHIGMIYAIGSIGLLGFLVWSHHMFVVGLDMDSRAYFTSATMVIAIPTGIKIFSWLATLYGGELRLGVPMLFALGFLFLFTVGGLTGVMLSNASIDVAFHDTYYVVGHFHYVLSMGALFSLIGAYYYWGPTMFGLQYNRVLGEVHFWLLFISVNIIFLPMHFLGLNGMPRRMPQYPDAFLGWNIVSSWGSIMSMLSVMMGLYSMQMQLTNG-----EDQREVVPVTPDYMESNN---LRNQRESDLELMLSRPAHYHTFTELPMLMQRV'
p2154
sg123
F0.26118000000000002
sg124
g125
sg33
S'85'
p2155
sg127
g1
(g128
g12
(dp2156
g130
I4
sg131
g132
sg133
g134
sg135
g132
sg136
I01
sg34
g137
sg138
g134
sg139
I0
sg140
I0
sg141
I0
sg142
g134
sg35
g143
sg144
I0
stRp2157
sg146
g147
sg148
F1
sg149
Nsg30
S'CbuenA'
p2158
sbasg120
g2091
sg123
F0.037260000000000001
sg124
g125
sg33
S'193'
p2159
sg127
g1
(g128
g12
(dp2160
g130
I6
sg131
g132
sg133
g134
sg135
g132
sg136
I01
sg34
g174
sg138
g134
sg139
I0
sg140
I0
sg141
I0
sg142
g134
sg35
g175
sg144
I0
stRp2161
sg146
g147
sg148
F0.98999999999999999
sg149
Nsg30
S'NoName'
p2162
sbag1
(g2
g3
NtRp2163
(dp2164
g6
g1
(g7
g3
NtRp2165
(dp2166
g10
g1
(g11
g12
(dtRp2167
sg14
g1
(g11
g12
(dtRp2168
sg16
g1
(g11
g12
(dtRp2169
sg18
g1
(g11
g12
(dtRp2170
sg20
g1
(g11
g12
(dtRp2171
sg22
g1
(g11
g12
(dtRp2172
sbsg24
g25
sg26
g27
((lp2173
g33
ag32
ag29
ag30
atRp2174
sg37
(lp2175
g1
(g2
g3
NtRp2176
(dp2177
g6
g1
(g7
g3
NtRp2178
(dp2179
g10
g1
(g11
g12
(dtRp2180
sg14
g1
(g11
g12
(dtRp2181
sg16
g1
(g11
g12
(dtRp2182
sg18
g1
(g11
g12
(dtRp2183
sg20
g1
(g11
g12
(dtRp2184
sg22
g1
(g11
g12
(dtRp2185
sbsg24
S'Cdu'
p2186
sg26
g27
((lp2187
g29
ag30
aS'sequence'
p2188
ag32
ag33
aS'species'
p2189
atRp2190
sg37
(lp2191
sg120
g2163
sg121
S'MSYVTRWLFSTSHKDMGMLYLMYGMVSAMVATAMSVMIRLELSGPGPMFLHGNNQVFNVLVTGHALAMIFLFVMPILIGSFGNYFLPIMMGAVDMAFARLNNISFWCLPPALVCVIASVLIETGAGTGWTVYPPLSSISAHSGPSVDLAMFAIHLTSISSLLGAINFIVTTLNMRSMGIHMMDMPLYVWAIFFTAMLLLLSLPVLTAGVTLLLMDRNFNTGFYEVAAGGDPMLYEHLFWFFGHPEVYIIIIPGFGIISHVISTYSKKPIFGQIGMIYAMGSIGLLGFLVWSHHMYVVGLDIDSRAYFTSATMVIAIPTGIKIFSWLATLYGGELRLAVPMLFALGFLFLFTIGGLTGVMLSNASMDVAFHDTYYVVGHFHYVLSMGALFSLMAGYYYWGPTMFGLNYNKVLAEVHYWLLFVSVNMMFLPMHFLGLNGMPRRMPQYPDAFVGWNVVSSWGSMMSMLSVMVGLYSVLVQLNNG-----ENEREEIQVTPDYLESNN---TREVRDSDLELITSKPAQYHTFSELPMLMQQM'
p2192
sg123
F0.025069999999999999
sg124
g125
sg33
S'158'
p2193
sg127
g1
(g128
g12
(dp2194
g130
I4
sg131
g132
sg133
g134
sg135
g132
sg136
I01
sg34
g137
sg138
g134
sg139
I0
sg140
I0
sg141
I0
sg142
g134
sg35
g143
sg144
I0
stRp2195
sg146
g147
sg148
F1
sg149
Nsg30
S'CdublA'
p2196
sbag1
(g2
g3
NtRp2197
(dp2198
g6
g1
(g7
g3
NtRp2199
(dp2200
g10
g1
(g11
g12
(dtRp2201
sg14
g1
(g11
g12
(dtRp2202
sg16
g1
(g11
g12
(dtRp2203
sg18
g1
(g11
g12
(dtRp2204
sg20
g1
(g11
g12
(dtRp2205
sg22
g1
(g11
g12
(dtRp2206
sbsg24
g25
sg26
g27
((lp2207
g33
ag32
ag29
ag30
atRp2208
sg37
(lp2209
g1
(g2
g3
NtRp2210
(dp2211
g6
g1
(g7
g3
NtRp2212
(dp2213
g10
g1
(g11
g12
(dtRp2214
sg14
g1
(g11
g12
(dtRp2215
sg16
g1
(g11
g12
(dtRp2216
sg18
g1
(g11
g12
(dtRp2217
sg20
g1
(g11
g12
(dtRp2218
sg22
g1
(g11
g12
(dtRp2219
sbsg24
g25
sg26
g27
((lp2220
g33
ag32
ag29
ag30
atRp2221
sg37
(lp2222
g1
(g2
g3
NtRp2223
(dp2224
g6
g1
(g7
g3
NtRp2225
(dp2226
g10
g1
(g11
g12
(dtRp2227
sg14
g1
(g11
g12
(dtRp2228
sg16
g1
(g11
g12
(dtRp2229
sg18
g1
(g11
g12
(dtRp2230
sg20
g1
(g11
g12
(dtRp2231
sg22
g1
(g11
g12
(dtRp2232
sbsg24
g25
sg26
g27
((lp2233
g33
ag32
ag29
ag30
atRp2234
sg37
(lp2235
g1
(g2
g3
NtRp2236
(dp2237
g6
g1
(g7
g3
NtRp2238
(dp2239
g10
g1
(g11
g12
(dtRp2240
sg14
g1
(g11
g12
(dtRp2241
sg16
g1
(g11
g12
(dtRp2242
sg18
g1
(g11
g12
(dtRp2243
sg20
g1
(g11
g12
(dtRp2244
sg22
g1
(g11
g12
(dtRp2245
sbsg24
g25
sg26
g27
((lp2246
g33
ag32
ag29
ag30
atRp2247
sg37
(lp2248
g1
(g2
g3
NtRp2249
(dp2250
g6
g1
(g7
g3
NtRp2251
(dp2252
g10
g1
(g11
g12
(dtRp2253
sg14
g1
(g11
g12
(dtRp2254
sg16
g1
(g11
g12
(dtRp2255
sg18
g1
(g11
g12
(dtRp2256
sg20
g1
(g11
g12
(dtRp2257
sg22
g1
(g11
g12
(dtRp2258
sbsg24
S'Cal'
p2259
sg26
g27
((lp2260
g29
ag30
aS'sequence'
p2261
ag32
ag33
aS'species'
p2262
atRp2263
sg37
(lp2264
sg120
g2236
sg121
S'MSYVTRWLFSTSHKDMGMLYLIYGMVSAMVATGMSVMIRLELSGPGPMFLHGNNQVFNVLVTGHAMAMIFLFVMPILIGSFGNYFLPMMMGAVDMAFARLNNISFWCLPPALVCVIASVLIETGAGTGWTVYPPLSSISAHSGPSVDLAMFAIHLTSISSLLGAINFMVTTLNMRSMGIHMMDMPLFVWAIFFTAMLLLLSLPVLTAGVTLLLMDRNFNTGFYEVAAGGDPILYEHLFWFFGHPEVYIIIMPGFGIISHVISTYTKKPIFGQIGMIYAIGSIGLLGFLVWSHHMYVVGLDIDSRAYFTSATMVIAMPTGIKIFSWLATLYGGELRLAVPMLFALGFLFLFTIGGLTGVMLSNASMDVAFHDTYYVVGHFHYVLSMGALFSLIAGYYYWGPAMFGLKYNKVLAEVHYWLLFVSVNIIFLPMHFLGLNGMPRRMPQYPDAFVGWNVVSSWGSIMSVMSVLIGLYSVLVQLTNG-----ENEREEMQVTPDYLESNN---TRDVRDSDLELMTSRPAQYHTFSELPMLMQQM'
p2265
sg123
F0.00025000000000000001
sg124
g125
sg33
S'222'
p2266
sg127
g1
(g128
g12
(dp2267
g130
I4
sg131
g132
sg133
g134
sg135
g132
sg136
I01
sg34
g137
sg138
g134
sg139
I0
sg140
I0
sg141
I0
sg142
g134
sg35
g143
sg144
I0
stRp2268
sg146
g147
sg148
F1
sg149
Nsg30
S'CalbiE'
p2269
sbag1
(g2
g3
NtRp2270
(dp2271
g6
g1
(g7
g3
NtRp2272
(dp2273
g10
g1
(g11
g12
(dtRp2274
sg14
g1
(g11
g12
(dtRp2275
sg16
g1
(g11
g12
(dtRp2276
sg18
g1
(g11
g12
(dtRp2277
sg20
g1
(g11
g12
(dtRp2278
sg22
g1
(g11
g12
(dtRp2279
sbsg24
S'Cal'
p2280
sg26
g27
((lp2281
g29
ag30
aS'sequence'
p2282
ag32
ag33
aS'species'
p2283
atRp2284
sg37
(lp2285
sg120
g2236
sg121
S'MSYVTRWLFSTSHKDMGMLYLIYGMVSAMVATGMSVMIRLELSGPGPMFLHGNNQVFNVLVTGHAMAMIFLFVMPILIGSFGNYFLPMMMGAVDMAFARLNNISFWCLPPALVCVIASVLIETGAGTGWTVYPPLSSISAHSGPSVDLAMFAIHLTSISSLLGAINFMVTTLNMRSMGIHMMDMPLFVWAIFFTAMLLLLSLPVLTAGVTLLLMDRNFNTGFYEVAAGGDPILYEHLFWFFGHPEVYIIIMPGFGIISHVISTYTKKPIFGQIGMIYAIGSIGLLGFLVWSHHMYVVGLDIDSRAYFTSATMVIAMPTGIKIFSWLATLYGGELRLAVPMLFALGFLFLFTIGGLTGVMLSNASMDVAFHDTYYVVGHFHYVLSMGALFSLIAGYYYWGPAMFGLKYNKVLAEVHYWLLFVSVNIIFLPMHFLGLNGMPRRMPQYPDAFVGWNVVSSWGSIMSVMSVLIGLYSVLVQLTNG-----ENEREEMQVTPDYLESNN---TRDVRDSDLELMTSRPAQYHTFSELPMLMQQM'
p2286
sg123
F0.00050000000000000001
sg124
g125
sg33
S'51'
p2287
sg127
g1
(g128
g12
(dp2288
g130
I4
sg131
g132
sg133
g134
sg135
g132
sg136
I01
sg34
g137
sg138
g134
sg139
I0
sg140
I0
sg141
I0
sg142
g134
sg35
g143
sg144
I0
stRp2289
sg146
g147
sg148
F1
sg149
Nsg30
S'CalbiD'
p2290
sbasg120
g2223
sg123
F0.00051999999999999995
sg124
g125
sg33
S'218'
p2291
sg127
g1
(g128
g12
(dp2292
g130
I6
sg131
g132
sg133
g134
sg135
g132
sg136
I01
sg34
g174
sg138
g134
sg139
I0
sg140
I0
sg141
I0
sg142
g134
sg35
g175
sg144
I0
stRp2293
sg146
g147
sg148
F0.73999999999999999
sg149
Nsg30
S'NoName'
p2294
sbag1
(g2
g3
NtRp2295
(dp2296
g6
g1
(g7
g3
NtRp2297
(dp2298
g10
g1
(g11
g12
(dtRp2299
sg14
g1
(g11
g12
(dtRp2300
sg16
g1
(g11
g12
(dtRp2301
sg18
g1
(g11
g12
(dtRp2302
sg20
g1
(g11
g12
(dtRp2303
sg22
g1
(g11
g12
(dtRp2304
sbsg24
S'Cal'
p2305
sg26
g27
((lp2306
g29
ag30
aS'sequence'
p2307
ag32
ag33
aS'species'
p2308
atRp2309
sg37
(lp2310
sg120
g2223
sg121
S'MSYVTRWLFSTSHKDMGMLYLIYGMVSAMVATGMSVMIRLELSGPGPMFLHGNNQVFNVLVTGHAMAMIFLFVMPILIGSFGNYFLPMMMGAVDMAFARLNNISFWCLPPALVCVIASVLIETGAGTGWTVYPPLSSISAHSGPSVDLAMFAIHLTSISSLLGAINFMVTTLNMRSMGIHMMDMPLFVWAIFFTAMLLLLSLPVLTAGVTLLLMDRNFNTGFYEVAAGGDPILYEHLFWFFGHPEVYIIIMPGFGIISHVISTYTKKPIFGQIGMIYAIGSIGLLGFLVWSHHMYVVGLDIDSRAYFTSATMVIAMPTGIKIFSWLATLYGGELRLAVPMLFALGFLFLFTIGGLTGVMLSNASMDVAFHDTYYVVGHFHYVLSMGALFSLIAGYYYWGPAMFGLKYNKVLAEVHYWLLFVSVNIIFLPMHFLGLNGMPRRMPQYPDAFVGWNVVSSWGSIMSVMSVLIGLYSVLVQLTNG-----ENEREEMQVTPDYLESNN---TRDVRDSDLELMTSRPAQYHTFSELPMLMQQM'
p2311
sg123
F0.00012
sg124
g125
sg33
S'207'
p2312
sg127
g1
(g128
g12
(dp2313
g130
I4
sg131
g132
sg133
g134
sg135
g132
sg136
I01
sg34
g137
sg138
g134
sg139
I0
sg140
I0
sg141
I0
sg142
g134
sg35
g143
sg144
I0
stRp2314
sg146
g147
sg148
F1
sg149
Nsg30
S'CalbiC'
p2315
sbasg120
g2210
sg123
F1.0000000000000001e-05
sg124
g125
sg33
S'201'
p2316
sg127
g1
(g128
g12
(dp2317
g130
I6
sg131
g132
sg133
g134
sg135
g132
sg136
I01
sg34
g174
sg138
g134
sg139
I0
sg140
I0
sg141
I0
sg142
g134
sg35
g175
sg144
I0
stRp2318
sg146
g147
sg148
F1
sg149
Nsg30
S'NoName'
p2319
sbag1
(g2
g3
NtRp2320
(dp2321
g6
g1
(g7
g3
NtRp2322
(dp2323
g10
g1
(g11
g12
(dtRp2324
sg14
g1
(g11
g12
(dtRp2325
sg16
g1
(g11
g12
(dtRp2326
sg18
g1
(g11
g12
(dtRp2327
sg20
g1
(g11
g12
(dtRp2328
sg22
g1
(g11
g12
(dtRp2329
sbsg24
S'Cal'
p2330
sg26
g27
((lp2331
g29
ag30
aS'sequence'
p2332
ag32
ag33
aS'species'
p2333
atRp2334
sg37
(lp2335
sg120
g2210
sg121
S'MSYVTRWLFSTSHKDMGMLYLIYGMVSAMVATGMSVMIRLELSGPGPMFLHGNNQVFNVLVTGHAMAMIFLFVMPILIGSFGNYFLPMMMGAVDMAFARLNNISFWCLPPALVCVIASVLIETGAGTGWTVYPPLSSISAHSGPSVDLAMFAIHLTSISSLLGAINFMVTTLNMRSMGIHMMDMPLFVWAIFFTAMLLLLSLPVLTAGVTLLLMDRNFNTGFYEVAAGGDPILYEHLFWFFGHPEVYIIIMPGFGIISHVISTYTKKPIFGQIGMIYAIGSIGLLGFLVWSHHMYVVGLDIDSRAYFTSATMVIAMPTGIKIFSWLATLYGGELRLAVPMLFALGFLFLFTIGGLTGVMLSNASMDVAFHDTYYVVGHFHYVLSMGALFSLIAGYYYWGPAMFGLKYNKVLAEVHYWLLFVSVNIIFLPMHFLGLNGMPRRMPQYPDAFVGWNVVSSWGSIMSVMSVLIGLYSVLVQLTNG-----ENEREEMQVTPDYLESNN---TRDVRDSDLELMTSRPAQYHTFSELPMLMQQM'
p2336
sg123
F0.00016000000000000001
sg124
g125
sg33
S'118'
p2337
sg127
g1
(g128
g12
(dp2338
g130
I4
sg131
g132
sg133
g134
sg135
g132
sg136
I01
sg34
g137
sg138
g134
sg139
I0
sg140
I0
sg141
I0
sg142
g134
sg35
g143
sg144
I0
stRp2339
sg146
g147
sg148
F1
sg149
Nsg30
S'CalbiB'
p2340
sbasg120
g2197
sg123
F1.0000000000000001e-05
sg124
g125
sg33
S'111'
p2341
sg127
g1
(g128
g12
(dp2342
g130
I6
sg131
g132
sg133
g134
sg135
g132
sg136
I01
sg34
g174
sg138
g134
sg139
I0
sg140
I0
sg141
I0
sg142
g134
sg35
g175
sg144
I0
stRp2343
sg146
g147
sg148
F1
sg149
Nsg30
S'NoName'
p2344
sbag1
(g2
g3
NtRp2345
(dp2346
g6
g1
(g7
g3
NtRp2347
(dp2348
g10
g1
(g11
g12
(dtRp2349
sg14
g1
(g11
g12
(dtRp2350
sg16
g1
(g11
g12
(dtRp2351
sg18
g1
(g11
g12
(dtRp2352
sg20
g1
(g11
g12
(dtRp2353
sg22
g1
(g11
g12
(dtRp2354
sbsg24
S'Cal'
p2355
sg26
g27
((lp2356
g29
ag30
aS'sequence'
p2357
ag32
ag33
aS'species'
p2358
atRp2359
sg37
(lp2360
sg120
g2197
sg121
S'MSYVTRWLFSTSHKDMGMLYLIYGMVSAMVATGMSVMIRLELSGPGPMFLHGNNQVFNVLVTGHAMAMIFLFVMPILIGSFGNYFLPMMMGAVDMAFARLNNISFWCLPPALVCVIASVLIETGAGTGWTVYPPLSSISAHSGPSVDLAMFAIHLTSISSLLGAINFMVTTLNMRSMGIHMMDMPLFVWAIFFTAMLLLLSLPVLTAGVTLLLMDRNFNTGFYEVAAGGDPILYEHLFWFFGHPEVYIIIMPGFGIISHVISTYTKKPIFGQIGMIYAIGSIGLLGFLVWSHHMYVVGLDIDSRAYFTSATMVIAMPTGIKIFSWLATLYGGELRLAVPMLFALGFLFLFTIGGLTGVMLSNASMDVAFHDTYYVVGHFHYVLSMGALFSLIAGYYYWGPAMFGLKYNKVLAEVHYWLLFVSVNIIFLPMHFLGLNGMPRRMPQYPDAFVGWNVVSSWGSIMSVMSVLIGLYSVLVQLTNG-----ENEREEMQVTPDYLESNN---TRDVRDSDLELMTSRPAQYHTFSELPMLMQQM'
p2361
sg123
F0.00013999999999999999
sg124
g125
sg33
S'13'
p2362
sg127
g1
(g128
g12
(dp2363
g130
I4
sg131
g132
sg133
g134
sg135
g132
sg136
I01
sg34
g137
sg138
g134
sg139
I0
sg140
I0
sg141
I0
sg142
g134
sg35
g143
sg144
I0
stRp2364
sg146
g147
sg148
F1
sg149
Nsg30
S'CalbiA'
p2365
sbasg120
g2163
sg123
F0.014959999999999999
sg124
g125
sg33
S'39'
p2366
sg127
g1
(g128
g12
(dp2367
g130
I6
sg131
g132
sg133
g134
sg135
g132
sg136
I01
sg34
g174
sg138
g134
sg139
I0
sg140
I0
sg141
I0
sg142
g134
sg35
g175
sg144
I0
stRp2368
sg146
g147
sg148
F0.98999999999999999
sg149
Nsg30
S'NoName'
p2369
sbasg120
g2091
sg123
F0.05287
sg124
g125
sg33
S'101'
p2370
sg127
g1
(g128
g12
(dp2371
g130
I6
sg131
g132
sg133
g134
sg135
g132
sg136
I01
sg34
g174
sg138
g134
sg139
I0
sg140
I0
sg141
I0
sg142
g134
sg35
g175
sg144
I0
stRp2372
sg146
g147
sg148
F0.98999999999999999
sg149
Nsg30
S'NoName'
p2373
sbasg120
g1716
sg123
F0.037499999999999999
sg124
g125
sg33
S'131'
p2374
sg127
g1
(g128
g12
(dp2375
g130
I6
sg131
g132
sg133
g134
sg135
g132
sg136
I01
sg34
g174
sg138
g134
sg139
I0
sg140
I0
sg141
I0
sg142
g134
sg35
g175
sg144
I0
stRp2376
sg146
g147
sg148
F0.98999999999999999
sg149
Nsg30
S'NoName'
p2377
sbasg120
g999
sg123
F0.10766000000000001
sg124
g125
sg33
S'126'
p2378
sg127
g1
(g128
g12
(dp2379
g130
I6
sg131
g132
sg133
g134
sg135
g132
sg136
I01
sg34
g174
sg138
g134
sg139
I0
sg140
I0
sg141
I0
sg142
g134
sg35
g175
sg144
I0
stRp2380
sg146
g147
sg148
F0.98999999999999999
sg149
Nsg30
S'NoName'
p2381
sbasg120
g965
sg123
F0.093560000000000004
sg124
g125
sg33
S'6'
sg127
g1
(g128
g12
(dp2382
g130
I6
sg131
g132
sg133
g134
sg135
g132
sg136
I01
sg34
g174
sg138
g134
sg139
I0
sg140
I0
sg141
I0
sg142
g134
sg35
g175
sg144
I0
stRp2383
sg146
g147
sg148
F0.97999999999999998
sg149
Nsg30
S'NoName'
p2384
sbasg120
g952
sg123
F0.036760000000000001
sg124
g125
sg33
S'93'
p2385
sg127
g1
(g128
g12
(dp2386
g130
I6
sg131
g132
sg133
g134
sg135
g132
sg136
I01
sg34
g174
sg138
g134
sg139
I0
sg140
I0
sg141
I0
sg142
g134
sg35
g175
sg144
I0
stRp2387
sg146
g147
sg148
F0.97999999999999998
sg149
Nsg30
S'NoName'
p2388
sbag1
(g2
g3
NtRp2389
(dp2390
g6
g1
(g7
g3
NtRp2391
(dp2392
g10
g1
(g11
g12
(dtRp2393
sg14
g1
(g11
g12
(dtRp2394
sg16
g1
(g11
g12
(dtRp2395
sg18
g1
(g11
g12
(dtRp2396
sg20
g1
(g11
g12
(dtRp2397
sg22
g1
(g11
g12
(dtRp2398
sbsg24
g25
sg26
g27
((lp2399
g33
ag32
ag29
ag30
atRp2400
sg37
(lp2401
g1
(g2
g3
NtRp2402
(dp2403
g6
g1
(g7
g3
NtRp2404
(dp2405
g10
g1
(g11
g12
(dtRp2406
sg14
g1
(g11
g12
(dtRp2407
sg16
g1
(g11
g12
(dtRp2408
sg18
g1
(g11
g12
(dtRp2409
sg20
g1
(g11
g12
(dtRp2410
sg22
g1
(g11
g12
(dtRp2411
sbsg24
g25
sg26
g27
((lp2412
g33
ag32
ag29
ag30
atRp2413
sg37
(lp2414
g1
(g2
g3
NtRp2415
(dp2416
g6
g1
(g7
g3
NtRp2417
(dp2418
g10
g1
(g11
g12
(dtRp2419
sg14
g1
(g11
g12
(dtRp2420
sg16
g1
(g11
g12
(dtRp2421
sg18
g1
(g11
g12
(dtRp2422
sg20
g1
(g11
g12
(dtRp2423
sg22
g1
(g11
g12
(dtRp2424
sbsg24
S'Csu'
p2425
sg26
g27
((lp2426
g29
ag30
aS'sequence'
p2427
ag32
ag33
aS'species'
p2428
atRp2429
sg37
(lp2430
sg120
g2402
sg121
S'MRWTTRWLFSTSHKDIGVLYFIYGIISAMVATGMSVIIRMELSGPGSQYLHNNNQVFNVMVTAHAMGMIFLFIMPILIGALGNFFLPVLIGAVDMAFARLNNVSFWMLPPALVCVMGSLLIESGAGTGWTVYPPLSSMAAHSGPSVDLAIFAIHLTTISSLLGAINFIVTTLNMRTMGMELTDSPLYVWAIFFTAILLLLSLPVLTAAVTLLLMDRNFNTGFYEVGAGGDPVLYEHLFWFFGHPEVYIIIIPGFGIISHVLSTYSKKAIFGSIGMIYAMGSIGLLGFLVWSHHMFTVGLDIDSRAYFTSATMVIAIPTGVKIFSWLATIYGGSLRLTVPMLFALGFLFLFTMGGLTGVMISNASMDVAFHDTYYIVGHFHYVLSMGALFSLVAGFYYWSPAMFGLHYNRLLGEVFFWLLFISVNLIFLPMHFLGLNGMPRRMPQYPDAFYGWNLISSWGSVLSIVALGVGLYSVELQLEEG-----ENEASEVQLEPDYVESNL---LRQAHVSELELVLERPMGYHTFNELPILLEQR'
p2431
sg123
F0.00012999999999999999
sg124
g125
sg33
S'65'
p2432
sg127
g1
(g128
g12
(dp2433
g130
I4
sg131
g132
sg133
g134
sg135
g132
sg136
I01
sg34
g137
sg138
g134
sg139
I0
sg140
I0
sg141
I0
sg142
g134
sg35
g143
sg144
I0
stRp2434
sg146
g147
sg148
F1
sg149
Nsg30
S'CsubhB'
p2435
sbag1
(g2
g3
NtRp2436
(dp2437
g6
g1
(g7
g3
NtRp2438
(dp2439
g10
g1
(g11
g12
(dtRp2440
sg14
g1
(g11
g12
(dtRp2441
sg16
g1
(g11
g12
(dtRp2442
sg18
g1
(g11
g12
(dtRp2443
sg20
g1
(g11
g12
(dtRp2444
sg22
g1
(g11
g12
(dtRp2445
sbsg24
S'Csu'
p2446
sg26
g27
((lp2447
g29
ag30
aS'sequence'
p2448
ag32
ag33
aS'species'
p2449
atRp2450
sg37
(lp2451
sg120
g2402
sg121
S'MRWTTRWLFSTSHKDIGVLYFIYGIISAMVATGMSVIIRMELSGPGSQYLHNNNQVFNVMVTAHAMGMIFLFIMPILIGALGNFFLPVLIGAVDMAFARLNNVSFWMLPPALVCVMGSLLIESGAGTGWTVYPPLSSMAAHSGPSVDLAIFAIHLTTISSLLGAINFIVTTLNMRTMGMELTDSPLYVWAIFFTAILLLLSLPVLTAAVTLLLMDRNFNTGFYEVGAGGDPVLYEHLFWFFGHPEVYIIIIPGFGIISHVLSTYSKKAIFGSIGMIYAMGSIGLLGFLVWSHHMFTVGLDIDSRAYFTSATMVIAIPTGVKIFSWLATIYGGSLRLTVPMLFALGFLFLFTMGGLTGVMISNASMDVAFHDTYYIVGHFHYVLSMGALFSLVAGFYYWSPAMFGLHYNRLLGEVFFWLLFISVNLIFLPMHFLGLNGMPRRMPQYPDAFYGWNLISSWGSVLSIVALGVGLYSVELQLEEG-----ENEASEVQLEPDYVESNL---LRQAHVSELELVLERPMGYHTFNELPILLEQR'
p2452
sg123
F0.00013999999999999999
sg124
g125
sg33
S'197'
p2453
sg127
g1
(g128
g12
(dp2454
g130
I4
sg131
g132
sg133
g134
sg135
g132
sg136
I01
sg34
g137
sg138
g134
sg139
I0
sg140
I0
sg141
I0
sg142
g134
sg35
g143
sg144
I0
stRp2455
sg146
g147
sg148
F1
sg149
Nsg30
S'CsubhA'
p2456
sbasg120
g2389
sg123
F0.59348999999999996
sg124
g125
sg33
S'200'
p2457
sg127
g1
(g128
g12
(dp2458
g130
I6
sg131
g132
sg133
g134
sg135
g132
sg136
I01
sg34
g174
sg138
g134
sg139
I0
sg140
I0
sg141
I0
sg142
g134
sg35
g175
sg144
I0
stRp2459
sg146
g147
sg148
F1
sg149
Nsg30
S'NoName'
p2460
sbag1
(g2
g3
NtRp2461
(dp2462
g6
g1
(g7
g3
NtRp2463
(dp2464
g10
g1
(g11
g12
(dtRp2465
sg14
g1
(g11
g12
(dtRp2466
sg16
g1
(g11
g12
(dtRp2467
sg18
g1
(g11
g12
(dtRp2468
sg20
g1
(g11
g12
(dtRp2469
sg22
g1
(g11
g12
(dtRp2470
sbsg24
S'Cal'
p2471
sg26
g27
((lp2472
g29
ag30
aS'sequence'
p2473
ag32
ag33
aS'species'
p2474
atRp2475
sg37
(lp2476
sg120
g2389
sg121
S'MSNTVRWLFSTSHKDMGILYLMYGFMSAMVATGMSVMMRMELSGPGSQYLFNNNQMFNVLVSAHAIGMIFLFVMPILIGAFGNFFLPILSGAMDMAFARLNNISFWMLPPALVSMIMSLLVDQGPGTGWTVYPPLSSMAAHSGASVDFAIFALHLTTISSLLGAINFMVTTLNMRTIGVHLTDLPLFVWAMFFTAILLLLSLPVLTVAVTLLLMDRNFNTGFYEVAAGGDPMLYEHLFWFFGHPEVYMMIMPGFGMMSHILSTYAKKDMFGKMGMIYAMGSIGLLGFLVWSHHMFVVGLDIDSRAYFTSATMVMAMPTGIKMFSWMATMYGGDIYLSVPMLFALGFLFLFTIGGLTGVMISNASIDIAFHDTYYIVGHFHYVLSMGALFSLIGGYYYWSPVMFGLNYNTILAETFFWLLFMSVNLIFLPMHFLGLNGMPRRMPQYPDAFYGWNLIASWGSVMSIVAIAVGFYSLYLQLI-G-----KNSKGEIIVLPDFLESNT---LREIRESDIEFMQNRPYTYHTYVELPMLINKY'
p2477
sg123
F0.40044000000000002
sg124
g125
sg33
S'42'
p2478
sg127
g1
(g128
g12
(dp2479
g130
I4
sg131
g132
sg133
g134
sg135
g132
sg136
I01
sg34
g137
sg138
g134
sg139
I0
sg140
I0
sg141
I0
sg142
g134
sg35
g143
sg144
I0
stRp2480
sg146
g147
sg148
F1
sg149
Nsg30
S'CalaiA'
p2481
sbasg120
g952
sg123
F0.080810000000000007
sg124
g125
sg33
S'46'
p2482
sg127
g1
(g128
g12
(dp2483
g130
I6
sg131
g132
sg133
g134
sg135
g132
sg136
I01
sg34
g174
sg138
g134
sg139
I0
sg140
I0
sg141
I0
sg142
g134
sg35
g175
sg144
I0
stRp2484
sg146
g147
sg148
F0.98999999999999999
sg149
Nsg30
S'NoName'
p2485
sbasg120
g692
sg123
F0.075389999999999999
sg124
g125
sg33
S'91'
p2486
sg127
g1
(g128
g12
(dp2487
g130
I6
sg131
g132
sg133
g134
sg135
g132
sg136
I01
sg34
g174
sg138
g134
sg139
I0
sg140
I0
sg141
I0
sg142
g134
sg35
g175
sg144
I0
stRp2488
sg146
g147
sg148
F0.94999999999999996
sg149
Nsg30
S'NoName'
p2489
sbasg120
g679
sg123
F1.2542500000000001
sg124
g125
sg33
S'24'
p2490
sg127
g1
(g128
g12
(dp2491
g130
I6
sg131
g132
sg133
g134
sg135
g132
sg136
I01
sg34
g174
sg138
g134
sg139
I0
sg140
I0
sg141
I0
sg142
g134
sg35
g175
sg144
I0
stRp2492
sg146
g147
sg148
F0.97999999999999998
sg149
Nsg30
S'NoName'
p2493
sbag1
(g2
g3
NtRp2494
(dp2495
g6
g1
(g7
g3
NtRp2496
(dp2497
g10
g1
(g11
g12
(dtRp2498
sg14
g1
(g11
g12
(dtRp2499
sg16
g1
(g11
g12
(dtRp2500
sg18
g1
(g11
g12
(dtRp2501
sg20
g1
(g11
g12
(dtRp2502
sg22
g1
(g11
g12
(dtRp2503
sbsg24
g25
sg26
g27
((lp2504
g33
ag32
ag29
ag30
atRp2505
sg37
(lp2506
g1
(g2
g3
NtRp2507
(dp2508
g6
g1
(g7
g3
NtRp2509
(dp2510
g10
g1
(g11
g12
(dtRp2511
sg14
g1
(g11
g12
(dtRp2512
sg16
g1
(g11
g12
(dtRp2513
sg18
g1
(g11
g12
(dtRp2514
sg20
g1
(g11
g12
(dtRp2515
sg22
g1
(g11
g12
(dtRp2516
sbsg24
g25
sg26
g27
((lp2517
g33
ag32
ag29
ag30
atRp2518
sg37
(lp2519
g1
(g2
g3
NtRp2520
(dp2521
g6
g1
(g7
g3
NtRp2522
(dp2523
g10
g1
(g11
g12
(dtRp2524
sg14
g1
(g11
g12
(dtRp2525
sg16
g1
(g11
g12
(dtRp2526
sg18
g1
(g11
g12
(dtRp2527
sg20
g1
(g11
g12
(dtRp2528
sg22
g1
(g11
g12
(dtRp2529
sbsg24
S'Ppa'
p2530
sg26
g27
((lp2531
g29
ag30
aS'sequence'
p2532
ag32
ag33
aS'species'
p2533
atRp2534
sg37
(lp2535
sg120
g2507
sg121
S'MNYMNRWLFSTNAKDMAVLYFMFALFCGLLGSMMSLMLRLELSAPGNQMLMGNHQLFNVVATAHAVLMVFFLVMPAAMGFFGNYLLPLMMGASDMSFARLNNISFWLLPPALVSLLASALMENGAGTGWTVYPPLAGVQSHSGPSVDLAMFALHLTSMSSLLGAMNFMTTTLNMRTMGMTMSKLPLFVWAVVFTSILLLLSLPVLSAGVTLLLLDRNFNTSFFEPAGGGDPMLYQHLFWFFGHPEVYILMIPGFGMISHMVSTYSKKPVFGAMGMVYAMGSIGFLGLLVWSHHMYTVGLDVDSRAYFTSATMVMAVPTGMKMFSWLATLYGGSMRYTTPMLYAFAFLFLFTVGGLSGVVLSNASLDMAFHDTYYVIGHFHYVLSLGAVFSLFAGYYYWSPLMTGLYYNNNLANIQFWLLFMGTNVTFFPMHFLGLNGMPRRMPDYPDAFAGWNAMSSFGSLMSMMSVILFAYVIYDQLVNGLTNK-QLSTNSLFKNPDFIESNIIFNDNSMKSSSMDFLLTSPPLPHTFNTPAIQS---'
p2536
sg123
F0.16184999999999999
sg124
g125
sg33
S'119'
p2537
sg127
g1
(g128
g12
(dp2538
g130
I4
sg131
g132
sg133
g134
sg135
g132
sg136
I01
sg34
g137
sg138
g134
sg139
I0
sg140
I0
sg141
I0
sg142
g134
sg35
g143
sg144
I0
stRp2539
sg146
g147
sg148
F1
sg149
Nsg30
S'PpastA'
p2540
sbag1
(g2
g3
NtRp2541
(dp2542
g6
g1
(g7
g3
NtRp2543
(dp2544
g10
g1
(g11
g12
(dtRp2545
sg14
g1
(g11
g12
(dtRp2546
sg16
g1
(g11
g12
(dtRp2547
sg18
g1
(g11
g12
(dtRp2548
sg20
g1
(g11
g12
(dtRp2549
sg22
g1
(g11
g12
(dtRp2550
sbsg24
g25
sg26
g27
((lp2551
g33
ag32
ag29
ag30
atRp2552
sg37
(lp2553
g1
(g2
g3
NtRp2554
(dp2555
g6
g1
(g7
g3
NtRp2556
(dp2557
g10
g1
(g11
g12
(dtRp2558
sg14
g1
(g11
g12
(dtRp2559
sg16
g1
(g11
g12
(dtRp2560
sg18
g1
(g11
g12
(dtRp2561
sg20
g1
(g11
g12
(dtRp2562
sg22
g1
(g11
g12
(dtRp2563
sbsg24
S'Pta'
p2564
sg26
g27
((lp2565
g29
ag30
aS'sequence'
p2566
ag32
ag33
aS'species'
p2567
atRp2568
sg37
(lp2569
sg120
g2541
sg121
S'MSYVNRWLFSTNAKDIAVLYFMFALFCGLLGSLMSFMLRLELSSPGNQMLMGNHQLFNVVATAHAMLMMFFMVMPAAMGFFGNYLVPLMMGASDMSFARLNNMSFWLLPPALVCLVSSALVENGAGTGWTVYPPLSGMQSHSGPSVDLAMFSLHLTSMSSLLGGMNFMTTILNMRTVGMSMSKMPLFVWAIFFTSILLVLTLPVLSAGVTLLLMDRNFNTSFYEPSGGGDPLLYQHLFWFFGHPEVYILIMPGFGMMSHMVSAYSKKPVFGAMGMIYAMGSIGFLGLLVWSHHMYTVGLDVDSRAYFTSATMVIAVPTGIKIFSWLATLYGGSMRYTTPMLYAFAFLFLFTVGGLSGVVLSNASLDMAFHDTYYVMAHFHYVLSLGAVFSLFAGYYYWAPMVTGLNYNNRLANIQFWLLFMGTNVLFFPMHFLGMNGMPRRIPDYPDAFAGFNALSSYGSFMSISSLMLFAYVLYDQLVYGLSNK-NESSNSLLVSPDFVESNIMFNDNKMKSSSMEFLLTTPPLPHTFNTPAVQA---'
p2570
sg123
F0.23080999999999999
sg124
g125
sg33
S'36'
p2571
sg127
g1
(g128
g12
(dp2572
g130
I4
sg131
g132
sg133
g134
sg135
g132
sg136
I01
sg34
g137
sg138
g134
sg139
I0
sg140
I0
sg141
I0
sg142
g134
sg35
g143
sg144
I0
stRp2573
sg146
g147
sg148
F1
sg149
Nsg30
S'PtannA'
p2574
sbag1
(g2
g3
NtRp2575
(dp2576
g6
g1
(g7
g3
NtRp2577
(dp2578
g10
g1
(g11
g12
(dtRp2579
sg14
g1
(g11
g12
(dtRp2580
sg16
g1
(g11
g12
(dtRp2581
sg18
g1
(g11
g12
(dtRp2582
sg20
g1
(g11
g12
(dtRp2583
sg22
g1
(g11
g12
(dtRp2584
sbsg24
g25
sg26
g27
((lp2585
g33
ag32
ag29
ag30
atRp2586
sg37
(lp2587
g1
(g2
g3
NtRp2588
(dp2589
g6
g1
(g7
g3
NtRp2590
(dp2591
g10
g1
(g11
g12
(dtRp2592
sg14
g1
(g11
g12
(dtRp2593
sg16
g1
(g11
g12
(dtRp2594
sg18
g1
(g11
g12
(dtRp2595
sg20
g1
(g11
g12
(dtRp2596
sg22
g1
(g11
g12
(dtRp2597
sbsg24
g25
sg26
g27
((lp2598
g33
ag32
ag29
ag30
atRp2599
sg37
(lp2600
g1
(g2
g3
NtRp2601
(dp2602
g6
g1
(g7
g3
NtRp2603
(dp2604
g10
g1
(g11
g12
(dtRp2605
sg14
g1
(g11
g12
(dtRp2606
sg16
g1
(g11
g12
(dtRp2607
sg18
g1
(g11
g12
(dtRp2608
sg20
g1
(g11
g12
(dtRp2609
sg22
g1
(g11
g12
(dtRp2610
sbsg24
S'Pkl'
p2611
sg26
g27
((lp2612
g29
ag30
aS'sequence'
p2613
ag32
ag33
aS'species'
p2614
atRp2615
sg37
(lp2616
sg120
g2588
sg121
S'GDYVNRWLFSTNAKDMAVLYFMFSLFCGMLGSFMSLVLRLELAAPGNQLLMGNHQLFNVIVTAHAVLMLFFLMMPVTMGFFGNYLVPLMIGASDMSFARLNNMSFWLLPPALVCLVASALMENGPGTGWTVYPPLSAMQSHSGPSVDLAMFSLHLTSISSLLGAMNFMTTMFNMRTLGMTMSKLPLFVWSVLFTAMLLVMTLPVLSAGMTLLLMDRNFNTSFYESAGGGDPVLYQHLFWFFGHPEVYMLMLPGFGMVSHVVSTYSKKPVFGSLGMVYAMGSMGFLGLLVWSHHMYVVGLDVDSRAYFTSATMVMAVPTGMKMFSWLATLYGGSMRFTTPMLYAVAFMFIFTVGGLSGVLLSNASLDMAFHDTYYVMGHFHYVLSLGALFAMFSGYYYWSPMVTGLYFNNVLSKMQFWLFFMGANVTFLPMHFLGMNGMPRRMPDYPDAFAGFNAMCSFGAVLSMVSLLFFGYVMYDQLVNGLVNK-DLSTNSLLKDPDFFESNETFKSNEVKSESMEFLLNYPPMFHTFNTVAMQS---'
p2617
sg123
F0.12625
sg124
g125
sg33
S'38'
p2618
sg127
g1
(g128
g12
(dp2619
g130
I4
sg131
g132
sg133
g134
sg135
g132
sg136
I01
sg34
g137
sg138
g134
sg139
I0
sg140
I0
sg141
I0
sg142
g134
sg35
g143
sg144
I0
stRp2620
sg146
g147
sg148
F1
sg149
Nsg30
S'PkluyA'
p2621
sbag1
(g2
g3
NtRp2622
(dp2623
g6
g1
(g7
g3
NtRp2624
(dp2625
g10
g1
(g11
g12
(dtRp2626
sg14
g1
(g11
g12
(dtRp2627
sg16
g1
(g11
g12
(dtRp2628
sg18
g1
(g11
g12
(dtRp2629
sg20
g1
(g11
g12
(dtRp2630
sg22
g1
(g11
g12
(dtRp2631
sbsg24
S'Bcu'
p2632
sg26
g27
((lp2633
g29
ag30
aS'sequence'
p2634
ag32
ag33
aS'species'
p2635
atRp2636
sg37
(lp2637
sg120
g2588
sg121
S'SQWVNRWLFSTNAKDIAFLYFMFSLFCGVLGSVFSLVMRLELAAPGEQLLLGDHQLYNVLVTAHSVLMVFFLMMPVTMGFFGNYLVPLMIGASDMSFARLNNVAFWLYPPALVMLMASALMEEGPGTGWTVYPPLSGMQSHSGPSMDLAMFALHLTSMSSMLSSMNFLTTMMNMRTLGMTMTKLPLFVWSVMFTAVLLMMTLPVLSAGMTLLLLDRNFNTSFYEPAGGGDPMLYQHLYWFFGHPEVYILILPVFGMMSHVLSNYAKKPMFGKLGMMYAMGSMGFLGLLVWSHHMYVVGLDVDTRAYFTSATMVIAVPTGIKMFSWLATLYGGSMRFTTPMLYALAFLFMFTVGGCSGVLLSNASLDVAFHDTYFVVGHFHYVLSLGVVYGVFAGYYFWSPMMTGLYYNPTMASIQFWMLFMGTNMTFFPMHFLGMNGMPRRIPDYPDAFTGFNALSSLGSVISMGALLLFLYVMYDQLMRGVANK-DLTTNSLLKDPDFFESNDTFNHNEVKSYTVEWLLTYPPMAHTYNTLAVQS---'
p2638
sg123
F0.30854999999999999
sg124
g125
sg33
S'78'
p2639
sg127
g1
(g128
g12
(dp2640
g130
I4
sg131
g132
sg133
g134
sg135
g132
sg136
I01
sg34
g137
sg138
g134
sg139
I0
sg140
I0
sg141
I0
sg142
g134
sg35
g143
sg144
I0
stRp2641
sg146
g147
sg148
F1
sg149
Nsg30
S'BcustA'
p2642
sbasg120
g2575
sg123
F0.19120999999999999
sg124
g125
sg33
S'144'
p2643
sg127
g1
(g128
g12
(dp2644
g130
I6
sg131
g132
sg133
g134
sg135
g132
sg136
I01
sg34
g174
sg138
g134
sg139
I0
sg140
I0
sg141
I0
sg142
g134
sg35
g175
sg144
I0
stRp2645
sg146
g147
sg148
F0.98999999999999999
sg149
Nsg30
S'NoName'
p2646
sbag1
(g2
g3
NtRp2647
(dp2648
g6
g1
(g7
g3
NtRp2649
(dp2650
g10
g1
(g11
g12
(dtRp2651
sg14
g1
(g11
g12
(dtRp2652
sg16
g1
(g11
g12
(dtRp2653
sg18
g1
(g11
g12
(dtRp2654
sg20
g1
(g11
g12
(dtRp2655
sg22
g1
(g11
g12
(dtRp2656
sbsg24
S'Oan'
p2657
sg26
g27
((lp2658
g29
ag30
aS'sequence'
p2659
ag32
ag33
aS'species'
p2660
atRp2661
sg37
(lp2662
sg120
g2575
sg121
S'NYYINRWLFSTSAKDIAVLYIIFALFCGLLGSLMSVILRLELSAPGNQILMGNHQLFNAFATAHAILMIFFMVMPAAIGFFGNYLVPLMMGASDMSFARLNNVSFWLLPPALVSLLSSALIENGAGTGWTVYPPLSGITAHSGPSVDLAIFAIHLTSISSLLGAINFIVTILNMRTLGMTMAKLPLFVWAIMFTAILLLLSLPVLSAGVTLLLMDRNFNTSFYEPAGGGDPILYEHLFWFFGHPEVYILIIPGFGIVSHVISTYAKKPIFGQLGMVYAMGSIGFLGLLVWSHHMYVVGLDVDSRAYFTSATMIIAVPTGIKIFSWIATLYGGSMRFTTPMLYALAFLFLFTMGGLSGVLLSNASLDIAFHDTYYVIAHFHYVLSLGAVFSLFAGYYYWSPMVTGLYYNNNLANIQFWLLFIGTNVTFFPMHFLGLNGMPRRIPDYPDAFAGYNLISSFGSLISLSSVVLFAYVIYDQLVNGIPNK-SLSTNSLLKNPDFFESNNIFTGNEIKANSIEFLLTHPPLFHPFNTLAIQS---'
p2663
sg123
F0.025399999999999999
sg124
g125
sg33
S'88'
p2664
sg127
g1
(g128
g12
(dp2665
g130
I4
sg131
g132
sg133
g134
sg135
g132
sg136
I01
sg34
g137
sg138
g134
sg139
I0
sg140
I0
sg141
I0
sg142
g134
sg35
g143
sg144
I0
stRp2666
sg146
g147
sg148
F1
sg149
Nsg30
S'OanguA'
p2667
sbasg120
g2541
sg123
F0.33273999999999998
sg124
g125
sg33
S'86'
p2668
sg127
g1
(g128
g12
(dp2669
g130
I6
sg131
g132
sg133
g134
sg135
g132
sg136
I01
sg34
g174
sg138
g134
sg139
I0
sg140
I0
sg141
I0
sg142
g134
sg35
g175
sg144
I0
stRp2670
sg146
g147
sg148
F0.98999999999999999
sg149
Nsg30
S'NoName'
p2671
sbasg120
g2507
sg123
F0.054379999999999998
sg124
g125
sg33
S'49'
p2672
sg127
g1
(g128
g12
(dp2673
g130
I6
sg131
g132
sg133
g134
sg135
g132
sg136
I01
sg34
g174
sg138
g134
sg139
I0
sg140
I0
sg141
I0
sg142
g134
sg35
g175
sg144
I0
stRp2674
sg146
g147
sg148
F0.96999999999999997
sg149
Nsg30
S'NoName'
p2675
sbasg120
g2494
sg123
F0.76378000000000001
sg124
g125
sg33
S'216'
p2676
sg127
g1
(g128
g12
(dp2677
g130
I6
sg131
g132
sg133
g134
sg135
g132
sg136
I01
sg34
g174
sg138
g134
sg139
I0
sg140
I0
sg141
I0
sg142
g134
sg35
g175
sg144
I0
stRp2678
sg146
g147
sg148
F0.98999999999999999
sg149
Nsg30
S'NoName'
p2679
sbag1
(g2
g3
NtRp2680
(dp2681
g6
g1
(g7
g3
NtRp2682
(dp2683
g10
g1
(g11
g12
(dtRp2684
sg14
g1
(g11
g12
(dtRp2685
sg16
g1
(g11
g12
(dtRp2686
sg18
g1
(g11
g12
(dtRp2687
sg20
g1
(g11
g12
(dtRp2688
sg22
g1
(g11
g12
(dtRp2689
sbsg24
g25
sg26
g27
((lp2690
g33
ag32
ag29
ag30
atRp2691
sg37
(lp2692
g1
(g2
g3
NtRp2693
(dp2694
g6
g1
(g7
g3
NtRp2695
(dp2696
g10
g1
(g11
g12
(dtRp2697
sg14
g1
(g11
g12
(dtRp2698
sg16
g1
(g11
g12
(dtRp2699
sg18
g1
(g11
g12
(dtRp2700
sg20
g1
(g11
g12
(dtRp2701
sg22
g1
(g11
g12
(dtRp2702
sbsg24
g25
sg26
g27
((lp2703
g33
ag32
ag29
ag30
atRp2704
sg37
(lp2705
g1
(g2
g3
NtRp2706
(dp2707
g6
g1
(g7
g3
NtRp2708
(dp2709
g10
g1
(g11
g12
(dtRp2710
sg14
g1
(g11
g12
(dtRp2711
sg16
g1
(g11
g12
(dtRp2712
sg18
g1
(g11
g12
(dtRp2713
sg20
g1
(g11
g12
(dtRp2714
sg22
g1
(g11
g12
(dtRp2715
sbsg24
g25
sg26
g27
((lp2716
g33
ag32
ag29
ag30
atRp2717
sg37
(lp2718
g1
(g2
g3
NtRp2719
(dp2720
g6
g1
(g7
g3
NtRp2721
(dp2722
g10
g1
(g11
g12
(dtRp2723
sg14
g1
(g11
g12
(dtRp2724
sg16
g1
(g11
g12
(dtRp2725
sg18
g1
(g11
g12
(dtRp2726
sg20
g1
(g11
g12
(dtRp2727
sg22
g1
(g11
g12
(dtRp2728
sbsg24
g25
sg26
g27
((lp2729
g33
ag32
ag29
ag30
atRp2730
sg37
(lp2731
g1
(g2
g3
NtRp2732
(dp2733
g6
g1
(g7
g3
NtRp2734
(dp2735
g10
g1
(g11
g12
(dtRp2736
sg14
g1
(g11
g12
(dtRp2737
sg16
g1
(g11
g12
(dtRp2738
sg18
g1
(g11
g12
(dtRp2739
sg20
g1
(g11
g12
(dtRp2740
sg22
g1
(g11
g12
(dtRp2741
sbsg24
S'Cva'
p2742
sg26
g27
((lp2743
g29
ag30
aS'sequence'
p2744
ag32
ag33
aS'species'
p2745
atRp2746
sg37
(lp2747
sg120
g2719
sg121
S'-MYIQRWLYSTNAKDIAMLYFIFAIFSGVVGSIMSLIIRLELAAPGNQILHGNHQLFNVLVVGHALLMIFFLVMPGLVGGFGNYLLPLLMGASDMSFARLNNISFWLLPPALVCLVASTLIESGAGTGWTIYPPLSGIQAHSSPSVDLGIFAIHLTSISSLLGAINFIATSYNMRTNGMSYSKMPLFVWAIIITAVMLLLSLPVLSAGVTMLLMDRNFNTSFFEVAGGGDPVLYQHLFWFFGHPEVYILIVPGFGIVSHIVSTYSKKPVFGEISMVYAMASIAFLGFLVWSHHMYIVGLDADTRAYFTSSTMVIAVPTGIKIFSWLATLYGGSIRLAVPMLYAIAFLFLFTMGGLTGVVLANASLDVAFHDTYYVVGHFHYVLSMGAIFSLFAGYYYWSPQILGLYYNERLAQIQFWLIFIGANIMFMPMHFLGLQGMPRRMPDYPDAYAGWNYVSSMGSVIAIFSLALFIYIIYDQLMNGLTNKVDNKAIVFNKAPDFVESNTIFANNSIKSSSIEFLLTSPPAVHSFNTPAVQS---'
p2748
sg123
F0.043270000000000003
sg124
g125
sg33
S'4'
sg127
g1
(g128
g12
(dp2749
g130
I4
sg131
g132
sg133
g134
sg135
g132
sg136
I01
sg34
g137
sg138
g134
sg139
I0
sg140
I0
sg141
I0
sg142
g134
sg35
g143
sg144
I0
stRp2750
sg146
g147
sg148
F1
sg149
Nsg30
S'CvartA'
p2751
sbag1
(g2
g3
NtRp2752
(dp2753
g6
g1
(g7
g3
NtRp2754
(dp2755
g10
g1
(g11
g12
(dtRp2756
sg14
g1
(g11
g12
(dtRp2757
sg16
g1
(g11
g12
(dtRp2758
sg18
g1
(g11
g12
(dtRp2759
sg20
g1
(g11
g12
(dtRp2760
sg22
g1
(g11
g12
(dtRp2761
sbsg24
g25
sg26
g27
((lp2762
g33
ag32
ag29
ag30
atRp2763
sg37
(lp2764
g1
(g2
g3
NtRp2765
(dp2766
g6
g1
(g7
g3
NtRp2767
(dp2768
g10
g1
(g11
g12
(dtRp2769
sg14
g1
(g11
g12
(dtRp2770
sg16
g1
(g11
g12
(dtRp2771
sg18
g1
(g11
g12
(dtRp2772
sg20
g1
(g11
g12
(dtRp2773
sg22
g1
(g11
g12
(dtRp2774
sbsg24
S'Csu'
p2775
sg26
g27
((lp2776
g29
ag30
aS'sequence'
p2777
ag32
ag33
aS'species'
p2778
atRp2779
sg37
(lp2780
sg120
g2752
sg121
S'-MYIQRWLYSTNAKDIAILYFIFAIFSGIMGSIMSLIIRLELAAPGNQVLHGNHQLFNVLVVGHALLMIFFLVMPGLVGGFGNYLLPLLIGASDMSFARLNNISFWLLPPALVCLVASTLIESGAGTGWTIYPPLSGIQAHSSPSVDLGIFAIHLTSISSMLGAINFIATSYNMRTNGMTYSKMPLFVWAIMITAVMLLLSLPVLSAGVTMLLMDRNFNTSFFEVAGGGDPVLYQHLFWFFGHPEVYILIVPGFGIVSHIVSTYSKKPVFGEISMVYAMASIAFLGFLVWSHHMYIVGLDADTRAYFTSSTMVIAVPTGIKIFSWLATLYGGSIRLAVPMLYAIAFLFLFTMGGLTGVALANASLDVAFHDSYYY--HFHYVLSMGAVFSLFAGYYYWSPQILGLYYNERLAQIQFWLIFIGANIIFMPMHFLGLQGMPRRIPDYPDAYAGWNYVSSIGSVIAIISLALFIYILYDQLVNGLTNKAENKSVVFNKAPDFVESNTIFANNSIKSASIEFLLTSPPAVHSFNTPAVQS---'
p2781
sg123
F0.0043699999999999998
sg124
g125
sg33
S'182'
p2782
sg127
g1
(g128
g12
(dp2783
g130
I4
sg131
g132
sg133
g134
sg135
g132
sg136
I01
sg34
g137
sg138
g134
sg139
I0
sg140
I0
sg141
I0
sg142
g134
sg35
g143
sg144
I0
stRp2784
sg146
g147
sg148
F1
sg149
Nsg30
S'CsuavB'
p2785
sbag1
(g2
g3
NtRp2786
(dp2787
g6
g1
(g7
g3
NtRp2788
(dp2789
g10
g1
(g11
g12
(dtRp2790
sg14
g1
(g11
g12
(dtRp2791
sg16
g1
(g11
g12
(dtRp2792
sg18
g1
(g11
g12
(dtRp2793
sg20
g1
(g11
g12
(dtRp2794
sg22
g1
(g11
g12
(dtRp2795
sbsg24
S'Csu'
p2796
sg26
g27
((lp2797
g29
ag30
aS'sequence'
p2798
ag32
ag33
aS'species'
p2799
atRp2800
sg37
(lp2801
sg120
g2752
sg121
S'-MYIQRWLYSTNAKDIAVLYFIFAIFSGIVGSIMSLIIRLELAAPGNQVLHGNHQLFNVLVVGHALLMIFFLVMPGLVGGFGNYLLPLLIGASDMSFARLNNISFWLLPPALVCLVASTLIESGAGTGWTIYPPLSGIQAHSSPSVDLGIFAIHLTSISSLLGAINFIATSYNMRTNGMTYSKMPLFVWAMIITAVMLLLSLPVLSAGVTMLLMDRNFNTSFFEVAGGGDPVLYQHLFWFFGHPEVYILIVPGFGIVSHIVSTYSKKPVFGEISMVYAMASIAFLGFLVWSHHMYIVGLDADTRAYFTSSTMVIAVPTGIKIFSWLATLYGGSIRLAVPMLYAIAFLFLFTMGGLTGVALANASLDVAFHDTYYVVGHFHYVLSMGAVFSLFAGYYYWSPQILGLYYNERLAQIQFWLIFIGANIMFMPMHFLGLQGMPRRIPDYPDAYAGWNYVSSIGSVIAIISLALFIYILYDQLVNGLTNKAENKSVVFNKAPDFVESNTMFANNSIKSASIEFLLTSPPAVHSFNTPAVQS---'
p2802
sg123
F0.0025999999999999999
sg124
g125
sg33
S'59'
p2803
sg127
g1
(g128
g12
(dp2804
g130
I4
sg131
g132
sg133
g134
sg135
g132
sg136
I01
sg34
g137
sg138
g134
sg139
I0
sg140
I0
sg141
I0
sg142
g134
sg35
g143
sg144
I0
stRp2805
sg146
g147
sg148
F1
sg149
Nsg30
S'CsuavA'
p2806
sbasg120
g2719
sg123
F0.016740000000000001
sg124
g125
sg33
S'107'
p2807
sg127
g1
(g128
g12
(dp2808
g130
I6
sg131
g132
sg133
g134
sg135
g132
sg136
I01
sg34
g174
sg138
g134
sg139
I0
sg140
I0
sg141
I0
sg142
g134
sg35
g175
sg144
I0
stRp2809
sg146
g147
sg148
F0.98999999999999999
sg149
Nsg30
S'NoName'
p2810
sbasg120
g2706
sg123
F0.01158
sg124
g125
sg33
S'99'
p2811
sg127
g1
(g128
g12
(dp2812
g130
I6
sg131
g132
sg133
g134
sg135
g132
sg136
I01
sg34
g174
sg138
g134
sg139
I0
sg140
I0
sg141
I0
sg142
g134
sg35
g175
sg144
I0
stRp2813
sg146
g147
sg148
F0.97999999999999998
sg149
Nsg30
S'NoName'
p2814
sbag1
(g2
g3
NtRp2815
(dp2816
g6
g1
(g7
g3
NtRp2817
(dp2818
g10
g1
(g11
g12
(dtRp2819
sg14
g1
(g11
g12
(dtRp2820
sg16
g1
(g11
g12
(dtRp2821
sg18
g1
(g11
g12
(dtRp2822
sg20
g1
(g11
g12
(dtRp2823
sg22
g1
(g11
g12
(dtRp2824
sbsg24
S'Cja'
p2825
sg26
g27
((lp2826
g29
ag30
aS'sequence'
p2827
ag32
ag33
aS'species'
p2828
atRp2829
sg37
(lp2830
sg120
g2706
sg121
S'-MYIQRWLYSTNAKDIAVLYFIFAIFSGIVGSVMSLIIRLELAAPGNQILYGNHQLFNVLVVGHALLMIFFLVMPGLVGGFGNYLLPLLIGASDMSFARLNNISFWLLPPALVCLVASTLIESGAGTGWTIYPPLAGIQAHSSPSVDLGIFAVHLTSISSLLGAINFIATSYNMRTNGMTYSKMPLFVWAIIITAVMLLLSLPVLSAGVTMLLMDRNFNTSFFEVAGGGDPILYQHLFWFFGHPEVYILIVPGFGIISHIVSTYSKKPVFGEISMVYAMASIAFLGFLVWSHHMYIVGLDADTRAYFTSSTMVIAVPTGIKIFSWLATLYGGSIRLAVPMLYAIAFLFLFTIGGLTGVALANASLDVAFHDTYYVVGHFHYVLSMGAVFSLFAGYYYWSPQILGLYYNERLAQIQFWLIFIGANVIFMPMHFLGLQGMPRRIPDYPDAYAGWNYVSSVGSVIAISSLALFIYILYDQLVNGLTNKVENKAVIFNKAPDFVESNTIFANNSIKSSSIEFLLTSPPAVHSFNTPAVQS---'
p2831
sg123
F0.033799999999999997
sg124
g125
sg33
S'187'
p2832
sg127
g1
(g128
g12
(dp2833
g130
I4
sg131
g132
sg133
g134
sg135
g132
sg136
I01
sg34
g137
sg138
g134
sg139
I0
sg140
I0
sg141
I0
sg142
g134
sg35
g143
sg144
I0
stRp2834
sg146
g147
sg148
F1
sg149
Nsg30
S'CjadiA'
p2835
sbasg120
g2693
sg123
F0.10375
sg124
g125
sg33
S'83'
p2836
sg127
g1
(g128
g12
(dp2837
g130
I6
sg131
g132
sg133
g134
sg135
g132
sg136
I01
sg34
g174
sg138
g134
sg139
I0
sg140
I0
sg141
I0
sg142
g134
sg35
g175
sg144
I0
stRp2838
sg146
g147
sg148
F0.98999999999999999
sg149
Nsg30
S'NoName'
p2839
sbag1
(g2
g3
NtRp2840
(dp2841
g6
g1
(g7
g3
NtRp2842
(dp2843
g10
g1
(g11
g12
(dtRp2844
sg14
g1
(g11
g12
(dtRp2845
sg16
g1
(g11
g12
(dtRp2846
sg18
g1
(g11
g12
(dtRp2847
sg20
g1
(g11
g12
(dtRp2848
sg22
g1
(g11
g12
(dtRp2849
sbsg24
g25
sg26
g27
((lp2850
g33
ag32
ag29
ag30
atRp2851
sg37
(lp2852
g1
(g2
g3
NtRp2853
(dp2854
g6
g1
(g7
g3
NtRp2855
(dp2856
g10
g1
(g11
g12
(dtRp2857
sg14
g1
(g11
g12
(dtRp2858
sg16
g1
(g11
g12
(dtRp2859
sg18
g1
(g11
g12
(dtRp2860
sg20
g1
(g11
g12
(dtRp2861
sg22
g1
(g11
g12
(dtRp2862
sbsg24
g25
sg26
g27
((lp2863
g33
ag32
ag29
ag30
atRp2864
sg37
(lp2865
g1
(g2
g3
NtRp2866
(dp2867
g6
g1
(g7
g3
NtRp2868
(dp2869
g10
g1
(g11
g12
(dtRp2870
sg14
g1
(g11
g12
(dtRp2871
sg16
g1
(g11
g12
(dtRp2872
sg18
g1
(g11
g12
(dtRp2873
sg20
g1
(g11
g12
(dtRp2874
sg22
g1
(g11
g12
(dtRp2875
sbsg24
S'Wpi'
p2876
sg26
g27
((lp2877
g29
ag30
aS'sequence'
p2878
ag32
ag33
aS'species'
p2879
atRp2880
sg37
(lp2881
sg120
g2853
sg121
S'-MFIQRWLYSTNAKDIAMLYFIFAIFSGVIGSTMSLIIRLELAAPGNQILHGNHQLFNVLVVGHALLMIFFLVMPGLVGGFGNYMLPLLIGASDMSFARLNNISFWLLPPALVCLVASTLIESGAGTGWTIYPPLSGIQAHSSPSVDLGIFAIHLTSISSLLGAINFIATSYNMRTNGMTYSKMPLFVWAIIITAVMLLLSLPVLSAGVTMLLMDRNFNTSFFEVAGGGDPVLYQHLFWFFGHPEVYILIVPGFGIISHIVSTYSKKPVFGSISMVYAMASIAFLGFLVWSHHMYIVGLDADTRAYFTSSTMVIAVPTGIKIFSWLATLYGGSIRLAVPMLYAIAFLFLFTMGGLTGVALANASLDVAFHDTYYVVGHFHYVLSMGAIFSLFAGYYYWSPQILGLYYNERLAQIQFWLIFIGANIIFMPMHFLGLQGMPRRIPDYPDAYAGWNYISSIGSVIALLSLAVFIFIIYDQLVNGLTNKIENKAVVFTKAPDFVESNTIFANNSIKTSSIEFLLNSPPAVHSFNTPAVQS---'
p2882
sg123
F0.051209999999999999
sg124
g125
sg33
S'17'
p2883
sg127
g1
(g128
g12
(dp2884
g130
I4
sg131
g132
sg133
g134
sg135
g132
sg136
I01
sg34
g137
sg138
g134
sg139
I0
sg140
I0
sg141
I0
sg142
g134
sg35
g143
sg144
I0
stRp2885
sg146
g147
sg148
F1
sg149
Nsg30
S'WpijpA'
p2886
sbag1
(g2
g3
NtRp2887
(dp2888
g6
g1
(g7
g3
NtRp2889
(dp2890
g10
g1
(g11
g12
(dtRp2891
sg14
g1
(g11
g12
(dtRp2892
sg16
g1
(g11
g12
(dtRp2893
sg18
g1
(g11
g12
(dtRp2894
sg20
g1
(g11
g12
(dtRp2895
sg22
g1
(g11
g12
(dtRp2896
sbsg24
S'Wmu'
p2897
sg26
g27
((lp2898
g29
ag30
aS'sequence'
p2899
ag32
ag33
aS'species'
p2900
atRp2901
sg37
(lp2902
sg120
g2853
sg121
S'KMFVQRWLYSTNAKDIALLYFIFAIFSGVIGSTMSLIIRLELAAPGNQILHGNNQLFNVLVVGHALLMIFFLVMPGLVGGFGNYMLPLLIGASDMSFARLNNISFWLLPPALVCLVASTLIESGAGTGWTIYPPLAGIQAHSSPSVDLGIFAIHLTSISSLLGAINFIATSYNMRTNGMTYSKMPLFVWAIIITAVMLLLSLPVLSAGVTMLLMDRNFNTSFFEVAGGGDPVLYQHLFWFFGHPEVYILIVPGFGIISHIVSTYSKKPVFGSISMVYAMASIAFLGFLVWSHHMYIVGLDADTRAYFTSSTMVIAVPTGIKIFSWLATLYGGSIRLAVPMLYAIAFLFLFTLGGLTGVALANASLDVAFHDTYYVVGHFHYVLSMGAIFSLFAGYYYWSPQILGLYYNEKLAQIQFWLIFIGANVIFMPMHFLGLQGMPRRIPDYPDAYAGWNYISSIGSVIAIISLALFIYIIYDQLVNGLTNKIENKAVVFNKAPDFVESNAIFANNSIKTASIEFLLNSPPAVHSFNTPAVQS---'
p2903
sg123
F0.079170000000000004
sg124
g125
sg33
S'90'
p2904
sg127
g1
(g128
g12
(dp2905
g130
I4
sg131
g132
sg133
g134
sg135
g132
sg136
I01
sg34
g137
sg138
g134
sg139
I0
sg140
I0
sg141
I0
sg142
g134
sg35
g143
sg144
I0
stRp2906
sg146
g147
sg148
F1
sg149
Nsg30
S'WmucoA'
p2907
sbasg120
g2840
sg123
F0.14757000000000001
sg124
g125
sg33
S'25'
p2908
sg127
g1
(g128
g12
(dp2909
g130
I6
sg131
g132
sg133
g134
sg135
g132
sg136
I01
sg34
g174
sg138
g134
sg139
I0
sg140
I0
sg141
I0
sg142
g134
sg35
g175
sg144
I0
stRp2910
sg146
g147
sg148
F0.98999999999999999
sg149
Nsg30
S'NoName'
p2911
sbag1
(g2
g3
NtRp2912
(dp2913
g6
g1
(g7
g3
NtRp2914
(dp2915
g10
g1
(g11
g12
(dtRp2916
sg14
g1
(g11
g12
(dtRp2917
sg16
g1
(g11
g12
(dtRp2918
sg18
g1
(g11
g12
(dtRp2919
sg20
g1
(g11
g12
(dtRp2920
sg22
g1
(g11
g12
(dtRp2921
sbsg24
g25
sg26
g27
((lp2922
g33
ag32
ag29
ag30
atRp2923
sg37
(lp2924
g1
(g2
g3
NtRp2925
(dp2926
g6
g1
(g7
g3
NtRp2927
(dp2928
g10
g1
(g11
g12
(dtRp2929
sg14
g1
(g11
g12
(dtRp2930
sg16
g1
(g11
g12
(dtRp2931
sg18
g1
(g11
g12
(dtRp2932
sg20
g1
(g11
g12
(dtRp2933
sg22
g1
(g11
g12
(dtRp2934
sbsg24
S'Pca'
p2935
sg26
g27
((lp2936
g29
ag30
aS'sequence'
p2937
ag32
ag33
aS'species'
p2938
atRp2939
sg37
(lp2940
sg120
g2912
sg121
S'-MYIQRWLYSTNAKDMAMLYFMFAMFSGVMGSTMSLIIRLELAAPGNQMLHGNHQLFNVLVVGHALLMIFFLVMPGLVGGFGNYMLPLLIGASDMSFARLNNMSFWLLPPALVCLVASTLIESWAGTGWTIYPPLSGMQAHSSPSVDLGIFAIHLTSMSSLLGAINFMATSYNMRTNGMSYSKMPLFVWAIMITAVMLLLSLPVLTAGVTMLLMDRNFNTSFFEVAGGGDPVLYQHLFWFFGHPEVYILIVPGFGIISHIVSTYSKKPVFGEMSMVYAMASIAFLGFLVWSHHMYIVGLDADTRAYFTSSTMVIAVPTGIKMFSWLATLYGGSIRLAVPMLYAIAFLFLFTMGGLTGVALANASLDVAFHDTYYVVGHFHYVLSMGAIFSLFAGYYYWSPQILGLYFNERLAQMQFWLIFVGANVIFMPMHFLGLQGMPRRMPDYPDAYAGWNYVSSMGSVMAIMSLALFIYIMYDQLINGLTNKMDNKSVVYSKAPDFVESNTMFANNSIKSASIEFLLNSPPAMHSFNTPAVQS---'
p2941
sg123
F0.10655000000000001
sg124
g125
sg33
S'104'
p2942
sg127
g1
(g128
g12
(dp2943
g130
I4
sg131
g132
sg133
g134
sg135
g132
sg136
I01
sg34
g137
sg138
g134
sg139
I0
sg140
I0
sg141
I0
sg142
g134
sg35
g143
sg144
I0
stRp2944
sg146
g147
sg148
F1
sg149
Nsg30
S'PcanaA'
p2945
sbag1
(g2
g3
NtRp2946
(dp2947
g6
g1
(g7
g3
NtRp2948
(dp2949
g10
g1
(g11
g12
(dtRp2950
sg14
g1
(g11
g12
(dtRp2951
sg16
g1
(g11
g12
(dtRp2952
sg18
g1
(g11
g12
(dtRp2953
sg20
g1
(g11
g12
(dtRp2954
sg22
g1
(g11
g12
(dtRp2955
sbsg24
g25
sg26
g27
((lp2956
g33
ag32
ag29
ag30
atRp2957
sg37
(lp2958
g1
(g2
g3
NtRp2959
(dp2960
g6
g1
(g7
g3
NtRp2961
(dp2962
g10
g1
(g11
g12
(dtRp2963
sg14
g1
(g11
g12
(dtRp2964
sg16
g1
(g11
g12
(dtRp2965
sg18
g1
(g11
g12
(dtRp2966
sg20
g1
(g11
g12
(dtRp2967
sg22
g1
(g11
g12
(dtRp2968
sbsg24
S'Cno'
p2969
sg26
g27
((lp2970
g29
ag30
aS'sequence'
p2971
ag32
ag33
aS'species'
p2972
atRp2973
sg37
(lp2974
sg120
g2946
sg121
S'-MYMQRWLYSTNAKDMAMLYFMFAMFSGVMGSTMSLIIRLELAAPGNQMLHGNHQLFNVLVVGHALLMIFFLVMPGLVGGFGNYMLPLLMGASDMSFARLNNMSFWLLPPALVCLVASTLIESGAGTGWTIYPPLSGIQAHSSPSVDLGIFAIHLTSISSLLGAMNFMATSYNMRTNGMTYSKMPLFVWAMMMTAVMLLLSLPVLSAGVTMLLMDRNFNTSFFEVAGGGDPVLYQHLFWFFGHPEVYMLIVPGFGMVSHIVSTYSKKPVFGAISMVYAMASMAFLGFLVWSHHMYIVGLDADTRAYFTSSTMVMAVPTGMKMFSWLATLYGGSMRLAMPMLYAMAFLFLFTLGGLTGVALANASLDVAFHDTYYVVGHFHYVLSMGAMFSLFAGYYYWSPQMLGLYYNEKLAQMQFWLMFMGANVMFMPMHFLGLQGMPRRMPDYPDAYAGWNYISSMGSVMAIMSLMLFLYIIYDQLINGLTNIINNKSVLYTKAPDFVESNTIFVNNSIKTSSMEFLLNSPPAMHSFNTPAVQS---'
p2975
sg123
F0.059069999999999998
sg124
g125
sg33
S'161'
p2976
sg127
g1
(g128
g12
(dp2977
g130
I4
sg131
g132
sg133
g134
sg135
g132
sg136
I01
sg34
g137
sg138
g134
sg139
I0
sg140
I0
sg141
I0
sg142
g134
sg35
g143
sg144
I0
stRp2978
sg146
g147
sg148
F1
sg149
Nsg30
S'CnorvA'
p2979
sbag1
(g2
g3
NtRp2980
(dp2981
g6
g1
(g7
g3
NtRp2982
(dp2983
g10
g1
(g11
g12
(dtRp2984
sg14
g1
(g11
g12
(dtRp2985
sg16
g1
(g11
g12
(dtRp2986
sg18
g1
(g11
g12
(dtRp2987
sg20
g1
(g11
g12
(dtRp2988
sg22
g1
(g11
g12
(dtRp2989
sbsg24
S'Bca'
p2990
sg26
g27
((lp2991
g29
ag30
aS'sequence'
p2992
ag32
ag33
aS'species'
p2993
atRp2994
sg37
(lp2995
sg120
g2946
sg121
S'-MYIQRWLYSTNAKDIAILYFMFAIFSGVMGSIMSLMMRLELAAPGNQMLHGNHQLFNVLVVGHALLMMFFLVMPGLVGGFGNYMLPLLMGASDMSFARLNNMSFWLLPPALVCLVASTLIESGAGTGWTIYPPLSGIQAHSSPSVDLGMFAIHLTSISSLLGAINFMATSYNMRTNGMTYSKMPLFVWAIIMTAVMLLLSLPVLSAGVTMLLMDRNFNTSFFEVAGGGDPVLYQHLFWFFGHPEVYILMVPGFGMMSHIVSTYSKKPVFGAISMVYAMASIAFLGFLVWSHHMYIVGLDADTRAYFTSSTMVIAVPTGIKMFSWLATLYGGSIRLAVPMLYAMAFLFLFTIGGLTGVALANASLDVAFHDTYYVVGHFHYVLSMGAMFSLFAGYYYWSPQMLGLYYNERLAQIQFWLMFIGANVMFMPMHFLGLNGMPRRIPDYPDAYAGWNYVSSVGSVMAIISLALFIYMIYDQLINGLTNKIDNKSVLYTKAPDFVESNTIFANNTIKTASIEFLLNSPPAIHSFNTPAVQS---'
p2996
sg123
F0.031899999999999998
sg124
g125
sg33
S'219'
p2997
sg127
g1
(g128
g12
(dp2998
g130
I4
sg131
g132
sg133
g134
sg135
g132
sg136
I01
sg34
g137
sg138
g134
sg139
I0
sg140
I0
sg141
I0
sg142
g134
sg35
g143
sg144
I0
stRp2999
sg146
g147
sg148
F1
sg149
Nsg30
S'BcaliA'
p3000
sbasg120
g2912
sg123
F0.09486
sg124
g125
sg33
S'148'
p3001
sg127
g1
(g128
g12
(dp3002
g130
I6
sg131
g132
sg133
g134
sg135
g132
sg136
I01
sg34
g174
sg138
g134
sg139
I0
sg140
I0
sg141
I0
sg142
g134
sg35
g175
sg144
I0
stRp3003
sg146
g147
sg148
F0.97999999999999998
sg149
Nsg30
S'NoName'
p3004
sbasg120
g2840
sg123
F0.054690000000000003
sg124
g125
sg33
S'138'
p3005
sg127
g1
(g128
g12
(dp3006
g130
I6
sg131
g132
sg133
g134
sg135
g132
sg136
I01
sg34
g174
sg138
g134
sg139
I0
sg140
I0
sg141
I0
sg142
g134
sg35
g175
sg144
I0
stRp3007
sg146
g147
sg148
F0.96999999999999997
sg149
Nsg30
S'NoName'
p3008
sbasg120
g2693
sg123
F0.051860000000000003
sg124
g125
sg33
S'12'
p3009
sg127
g1
(g128
g12
(dp3010
g130
I6
sg131
g132
sg133
g134
sg135
g132
sg136
I01
sg34
g174
sg138
g134
sg139
I0
sg140
I0
sg141
I0
sg142
g134
sg35
g175
sg144
I0
stRp3011
sg146
g147
sg148
F0.96999999999999997
sg149
Nsg30
S'NoName'
p3012
sbasg120
g2680
sg123
F0.52095999999999998
sg124
g125
sg33
S'75'
p3013
sg127
g1
(g128
g12
(dp3014
g130
I6
sg131
g132
sg133
g134
sg135
g132
sg136
I01
sg34
g174
sg138
g134
sg139
I0
sg140
I0
sg141
I0
sg142
g134
sg35
g175
sg144
I0
stRp3015
sg146
g147
sg148
F0.98999999999999999
sg149
Nsg30
S'NoName'
p3016
sbag1
(g2
g3
NtRp3017
(dp3018
g6
g1
(g7
g3
NtRp3019
(dp3020
g10
g1
(g11
g12
(dtRp3021
sg14
g1
(g11
g12
(dtRp3022
sg16
g1
(g11
g12
(dtRp3023
sg18
g1
(g11
g12
(dtRp3024
sg20
g1
(g11
g12
(dtRp3025
sg22
g1
(g11
g12
(dtRp3026
sbsg24
g25
sg26
g27
((lp3027
g33
ag32
ag29
ag30
atRp3028
sg37
(lp3029
g1
(g2
g3
NtRp3030
(dp3031
g6
g1
(g7
g3
NtRp3032
(dp3033
g10
g1
(g11
g12
(dtRp3034
sg14
g1
(g11
g12
(dtRp3035
sg16
g1
(g11
g12
(dtRp3036
sg18
g1
(g11
g12
(dtRp3037
sg20
g1
(g11
g12
(dtRp3038
sg22
g1
(g11
g12
(dtRp3039
sbsg24
g25
sg26
g27
((lp3040
g33
ag32
ag29
ag30
atRp3041
sg37
(lp3042
g1
(g2
g3
NtRp3043
(dp3044
g6
g1
(g7
g3
NtRp3045
(dp3046
g10
g1
(g11
g12
(dtRp3047
sg14
g1
(g11
g12
(dtRp3048
sg16
g1
(g11
g12
(dtRp3049
sg18
g1
(g11
g12
(dtRp3050
sg20
g1
(g11
g12
(dtRp3051
sg22
g1
(g11
g12
(dtRp3052
sbsg24
g25
sg26
g27
((lp3053
g33
ag32
ag29
ag30
atRp3054
sg37
(lp3055
g1
(g2
g3
NtRp3056
(dp3057
g6
g1
(g7
g3
NtRp3058
(dp3059
g10
g1
(g11
g12
(dtRp3060
sg14
g1
(g11
g12
(dtRp3061
sg16
g1
(g11
g12
(dtRp3062
sg18
g1
(g11
g12
(dtRp3063
sg20
g1
(g11
g12
(dtRp3064
sg22
g1
(g11
g12
(dtRp3065
sbsg24
g25
sg26
g27
((lp3066
g33
ag32
ag29
ag30
atRp3067
sg37
(lp3068
g1
(g2
g3
NtRp3069
(dp3070
g6
g1
(g7
g3
NtRp3071
(dp3072
g10
g1
(g11
g12
(dtRp3073
sg14
g1
(g11
g12
(dtRp3074
sg16
g1
(g11
g12
(dtRp3075
sg18
g1
(g11
g12
(dtRp3076
sg20
g1
(g11
g12
(dtRp3077
sg22
g1
(g11
g12
(dtRp3078
sbsg24
g25
sg26
g27
((lp3079
g33
ag32
ag29
ag30
atRp3080
sg37
(lp3081
g1
(g2
g3
NtRp3082
(dp3083
g6
g1
(g7
g3
NtRp3084
(dp3085
g10
g1
(g11
g12
(dtRp3086
sg14
g1
(g11
g12
(dtRp3087
sg16
g1
(g11
g12
(dtRp3088
sg18
g1
(g11
g12
(dtRp3089
sg20
g1
(g11
g12
(dtRp3090
sg22
g1
(g11
g12
(dtRp3091
sbsg24
g25
sg26
g27
((lp3092
g33
ag32
ag29
ag30
atRp3093
sg37
(lp3094
g1
(g2
g3
NtRp3095
(dp3096
g6
g1
(g7
g3
NtRp3097
(dp3098
g10
g1
(g11
g12
(dtRp3099
sg14
g1
(g11
g12
(dtRp3100
sg16
g1
(g11
g12
(dtRp3101
sg18
g1
(g11
g12
(dtRp3102
sg20
g1
(g11
g12
(dtRp3103
sg22
g1
(g11
g12
(dtRp3104
sbsg24
S'Lkl'
p3105
sg26
g27
((lp3106
g29
ag30
aS'sequence'
p3107
ag32
ag33
aS'species'
p3108
atRp3109
sg37
(lp3110
sg120
g3082
sg121
S'--MVQRWLYSTNAKDIAVLYFIFAIFCGMAGTAMSLIIRLELAAPGVQYLGGNNQLFNVLVVGHAVLMIFFLVMPALIGGFGNYLLPLMIGASDMSFARLNNISFWLLPPALVCLVTSTLVESGAGTGWTVYPPLSSIQAHSGPSVDLAIFALHLTSISSLLGAINFIVTTLNMRTNGMTMHKLPLFVWAIFITAFLLLLSLPVLSAGVTMLLLDRNFNTSFFEVAGGGDPVLYQHLFWFFGHPEVYILIIPGFGIVSHVVSTYSKKPVFGEVSMVYAMASIGLLGFLVWSHHMYIVGLDADTRAYFLSATMIIAIPTGIKIFSWLATIYGGSIRLAVPMLYAIAFLFLFTVGGLTGVALANASLDVAFHDLYYVVGHFHYVLSMGAVFSLFAGYYYWSPQILGLYYNEKLAQIQFWLIFVGANTIFLPMHFLGINGMPRRIPDYPDAFAGWNYVASIGSIIAVVSLFFFIYIVYDQLVNGLENKASNKSVLYAKAPDFVESNDIFTLNTVKSSSIEFLLTSPPAVHTFNTPAVQS---'
p3111
sg123
F0.00044999999999999999
sg124
g125
sg33
S'153'
p3112
sg127
g1
(g128
g12
(dp3113
g130
I4
sg131
g132
sg133
g134
sg135
g132
sg136
I01
sg34
g137
sg138
g134
sg139
I0
sg140
I0
sg141
I0
sg142
g134
sg35
g143
sg144
I0
stRp3114
sg146
g147
sg148
F1
sg149
Nsg30
S'LkluyE'
p3115
sbag1
(g2
g3
NtRp3116
(dp3117
g6
g1
(g7
g3
NtRp3118
(dp3119
g10
g1
(g11
g12
(dtRp3120
sg14
g1
(g11
g12
(dtRp3121
sg16
g1
(g11
g12
(dtRp3122
sg18
g1
(g11
g12
(dtRp3123
sg20
g1
(g11
g12
(dtRp3124
sg22
g1
(g11
g12
(dtRp3125
sbsg24
S'Lkl'
p3126
sg26
g27
((lp3127
g29
ag30
aS'sequence'
p3128
ag32
ag33
aS'species'
p3129
atRp3130
sg37
(lp3131
sg120
g3082
sg121
S'--MVQRWLYSTNAKDIAVLYFIFAIFCGMAGTAMSLIIRLELAAPGVQYLGGNNQLFNVLVVGHAVLMIFFLVMPALIGGFGNYLLPLMIGASDMSFARLNNISFWLLPPALVCLVTSTLVESGAGTGWTVYPPLSSIQAHSGPSVDLAIFALHLTSISSLLGAINFIVTTLNMRTNGMTMHKLPLFVWAIFITAFLLLLSLPVLSAGVTMLLLDRNFNTSFFEVAGGGDPVLYQHLFWFFGHPEVYILIIPGFGIVSHVVSTYSKKPVFGEVSMVYAMASIGLLGFLVWSHHMYIVGLDADTRAYFLSATMIIAIPTGIKIFSWLATIYGGSIRLAVPMLYAIAFLFLFTVGGLTGVALANASLDVAFHDLYYVVGHFHYVLSMGAVFSLFAGYYYWSPQILGLYYNEKLAQIQFWLIFVGANTIFLPMHFLGINGMPRRIPDYPDAFAGWNYVASIGSIIAVVSLFFFIYIVYDQLVNGLENKASNKSVLYAKAPDFVESNDIFTLNTIKSSSIEFLLTSPPAVHTFNTPAVQS---'
p3132
sg123
F0.0077400000000000004
sg124
g125
sg33
S'87'
p3133
sg127
g1
(g128
g12
(dp3134
g130
I4
sg131
g132
sg133
g134
sg135
g132
sg136
I01
sg34
g137
sg138
g134
sg139
I0
sg140
I0
sg141
I0
sg142
g134
sg35
g143
sg144
I0
stRp3135
sg146
g147
sg148
F1
sg149
Nsg30
S'LkluyD'
p3136
sbasg120
g3069
sg123
F0.0017099999999999999
sg124
g125
sg33
S'37'
p3137
sg127
g1
(g128
g12
(dp3138
g130
I6
sg131
g132
sg133
g134
sg135
g132
sg136
I01
sg34
g174
sg138
g134
sg139
I0
sg140
I0
sg141
I0
sg142
g134
sg35
g175
sg144
I0
stRp3139
sg146
g147
sg148
F0.56000000000000005
sg149
Nsg30
S'NoName'
p3140
sbag1
(g2
g3
NtRp3141
(dp3142
g6
g1
(g7
g3
NtRp3143
(dp3144
g10
g1
(g11
g12
(dtRp3145
sg14
g1
(g11
g12
(dtRp3146
sg16
g1
(g11
g12
(dtRp3147
sg18
g1
(g11
g12
(dtRp3148
sg20
g1
(g11
g12
(dtRp3149
sg22
g1
(g11
g12
(dtRp3150
sbsg24
g25
sg26
g27
((lp3151
g33
ag32
ag29
ag30
atRp3152
sg37
(lp3153
g1
(g2
g3
NtRp3154
(dp3155
g6
g1
(g7
g3
NtRp3156
(dp3157
g10
g1
(g11
g12
(dtRp3158
sg14
g1
(g11
g12
(dtRp3159
sg16
g1
(g11
g12
(dtRp3160
sg18
g1
(g11
g12
(dtRp3161
sg20
g1
(g11
g12
(dtRp3162
sg22
g1
(g11
g12
(dtRp3163
sbsg24
g25
sg26
g27
((lp3164
g33
ag32
ag29
ag30
atRp3165
sg37
(lp3166
g1
(g2
g3
NtRp3167
(dp3168
g6
g1
(g7
g3
NtRp3169
(dp3170
g10
g1
(g11
g12
(dtRp3171
sg14
g1
(g11
g12
(dtRp3172
sg16
g1
(g11
g12
(dtRp3173
sg18
g1
(g11
g12
(dtRp3174
sg20
g1
(g11
g12
(dtRp3175
sg22
g1
(g11
g12
(dtRp3176
sbsg24
g25
sg26
g27
((lp3177
g33
ag32
ag29
ag30
atRp3178
sg37
(lp3179
g1
(g2
g3
NtRp3180
(dp3181
g6
g1
(g7
g3
NtRp3182
(dp3183
g10
g1
(g11
g12
(dtRp3184
sg14
g1
(g11
g12
(dtRp3185
sg16
g1
(g11
g12
(dtRp3186
sg18
g1
(g11
g12
(dtRp3187
sg20
g1
(g11
g12
(dtRp3188
sg22
g1
(g11
g12
(dtRp3189
sbsg24
S'Lkl'
p3190
sg26
g27
((lp3191
g29
ag30
aS'sequence'
p3192
ag32
ag33
aS'species'
p3193
atRp3194
sg37
(lp3195
sg120
g3167
sg121
S'--MVQRWLYSTNAKDIAVLYFIFAIFCGMAGTAMSLIIRLELAAPGVQYLGGNNQLFNVLVVGHAVLMIFFLVMPALIGGFGNYLLPLMIGASDMSFARLNNISFWLLPPALVCLVTSTLVESGAGTGWTVYPPLSSIQAHSGPSVDLAIFALHLTSISSLLGAINFIVTTLNMRTNGMTMHKLPLFVWAIFITAFLLLLSLPVLSAGVTMLLLDRNFNTSFFEVAGGGDPVLYQHLFWFFGHPEVYILIIPGFGIVSHVVSTYSKKPVFGEVSMVYAMASIGLLGFLVWSHHMYIVGLDADTRAYFLSATMIIAIPTGIKIFSWLATIYGGSIRLAVPMLYAIAFLFLFTVGGLTGVALANASLDVAFHDLYYVVGHFHYVLSMGAVFSLFAGYYYWSPQILGLYYNEKLAQIQFWLIFVGANTIFLPMHFLGINGMPRRIPDYPDAFAGWNYVASIGSIIAVVSLFFFIYIVYDQLVNGLENKASNKSVLYAKAPDFVESNDIFTLNTIKSSSIEFLLTSPPAVHTFNTPAVQS---'
p3196
sg123
F0.00038999999999999999
sg124
g125
sg33
S'74'
p3197
sg127
g1
(g128
g12
(dp3198
g130
I4
sg131
g132
sg133
g134
sg135
g132
sg136
I01
sg34
g137
sg138
g134
sg139
I0
sg140
I0
sg141
I0
sg142
g134
sg35
g143
sg144
I0
stRp3199
sg146
g147
sg148
F1
sg149
Nsg30
S'LkluyF'
p3200
sbag1
(g2
g3
NtRp3201
(dp3202
g6
g1
(g7
g3
NtRp3203
(dp3204
g10
g1
(g11
g12
(dtRp3205
sg14
g1
(g11
g12
(dtRp3206
sg16
g1
(g11
g12
(dtRp3207
sg18
g1
(g11
g12
(dtRp3208
sg20
g1
(g11
g12
(dtRp3209
sg22
g1
(g11
g12
(dtRp3210
sbsg24
S'Lkl'
p3211
sg26
g27
((lp3212
g29
ag30
aS'sequence'
p3213
ag32
ag33
aS'species'
p3214
atRp3215
sg37
(lp3216
sg120
g3167
sg121
S'--MVQRWLYSTNAKDIAVLYFIFAIFCGMAGTAMSLIIRLELAAPGVQYLGGNNQLFNVLVVGHAVLMIFFLVMPALIGGFGNYLLPLMIGASDMSFARLNNISFWLLPPALVCLVTSTLVESGAGTGWTVYPPLSSIQAHSGPSVDLAIFALHLTSISSLLGAINFIVTTLNMRTNGMTMHKLPLFVWAIFITAFLLLLSLPVLSAGVTMLLLDRNFNTSFFEVAGGGDPVLYQHLFWFFGHPEVYILIIPGFGIVSHVVSTYSKKPVFGEVSMVYAMASIGLLGFLVWSHHMYIVGLDADTRAYFLSATMIIAIPTGIKIFSWLATIYGGSIRLAVPMLYAIAFLFLFTVGGLTGVALANASLDVAFHDLYYVVGHFHYVLSMGAVFSLFAGYYYWSPQILGLYYNEKLAQIQFWLIFVGANTIFLPMHFLGINGMPRRIPDYPDAFAGWNYVASIGSIIAVVSLFFFIYIVYDQLVNGLENKASNKSVLYAKAPDFVESNDIFTLNTIKSSSIEFLLTSPPAVHTFNTPAVQS---'
p3217
sg123
F0.00038000000000000002
sg124
g125
sg33
S'67'
p3218
sg127
g1
(g128
g12
(dp3219
g130
I4
sg131
g132
sg133
g134
sg135
g132
sg136
I01
sg34
g137
sg138
g134
sg139
I0
sg140
I0
sg141
I0
sg142
g134
sg35
g143
sg144
I0
stRp3220
sg146
g147
sg148
F1
sg149
Nsg30
S'LkluyC'
p3221
sbasg120
g3154
sg123
F1.0000000000000001e-05
sg124
g125
sg33
S'63'
p3222
sg127
g1
(g128
g12
(dp3223
g130
I6
sg131
g132
sg133
g134
sg135
g132
sg136
I01
sg34
g174
sg138
g134
sg139
I0
sg140
I0
sg141
I0
sg142
g134
sg35
g175
sg144
I0
stRp3224
sg146
g147
sg148
F1
sg149
Nsg30
S'NoName'
p3225
sbag1
(g2
g3
NtRp3226
(dp3227
g6
g1
(g7
g3
NtRp3228
(dp3229
g10
g1
(g11
g12
(dtRp3230
sg14
g1
(g11
g12
(dtRp3231
sg16
g1
(g11
g12
(dtRp3232
sg18
g1
(g11
g12
(dtRp3233
sg20
g1
(g11
g12
(dtRp3234
sg22
g1
(g11
g12
(dtRp3235
sbsg24
S'Lkl'
p3236
sg26
g27
((lp3237
g29
ag30
aS'sequence'
p3238
ag32
ag33
aS'species'
p3239
atRp3240
sg37
(lp3241
sg120
g3154
sg121
S'--MVQRWLYSTNAKDIAVLYFIFAIFCGMAGTAMSLIIRLELAAPGVQYLGGNNQLFNVLVVGHAVLMIFFLVMPALIGGFGNYLLPLMIGASDMSFARLNNISFWLLPPALVCLVTSTLVESGAGTGWTVYPPLSSIQAHSGPSVDLAIFALHLTSISSLLGAINFIVTTLNMRTNGMTMHKLPLFVWAIFITAFLLLLSLPVLSAGVTMLLLDRNFNTSFFEVAGGGDPVLYQHLFWFFGHPEVYILIIPGFGIVSHVVSTYSKKPVFGEVSMVYAMASIGLLGFLVWSHHMYIVGLDADTRAYFLSATMIIAIPTGIKIFSWLATIYGGSIRLAVPMLYAIAFLFLFTVGGLTGVALANASLDVAFHDLYYVVGHFHYVLSMGAVFSLFAGYYYWSPQILGLYYNEKLAQIQFWLIFVGANTIFLPMHFLGINGMPRRIPDYPDAFAGWNYVASIGSIIAVVSLFFFIYIVYDQLVNGLENKASNKSVLYAKAPDFVESNDIFTLNTIKSSSIEFLLTSPPAVHTFNTPAVQS---'
p3242
sg123
F0.00040999999999999999
sg124
g125
sg33
S'127'
p3243
sg127
g1
(g128
g12
(dp3244
g130
I4
sg131
g132
sg133
g134
sg135
g132
sg136
I01
sg34
g137
sg138
g134
sg139
I0
sg140
I0
sg141
I0
sg142
g134
sg35
g143
sg144
I0
stRp3245
sg146
g147
sg148
F1
sg149
Nsg30
S'LkluyB'
p3246
sbasg120
g3141
sg123
F1.0000000000000001e-05
sg124
g125
sg33
S'151'
p3247
sg127
g1
(g128
g12
(dp3248
g130
I6
sg131
g132
sg133
g134
sg135
g132
sg136
I01
sg34
g174
sg138
g134
sg139
I0
sg140
I0
sg141
I0
sg142
g134
sg35
g175
sg144
I0
stRp3249
sg146
g147
sg148
F1
sg149
Nsg30
S'NoName'
p3250
sbag1
(g2
g3
NtRp3251
(dp3252
g6
g1
(g7
g3
NtRp3253
(dp3254
g10
g1
(g11
g12
(dtRp3255
sg14
g1
(g11
g12
(dtRp3256
sg16
g1
(g11
g12
(dtRp3257
sg18
g1
(g11
g12
(dtRp3258
sg20
g1
(g11
g12
(dtRp3259
sg22
g1
(g11
g12
(dtRp3260
sbsg24
S'Lkl'
p3261
sg26
g27
((lp3262
g29
ag30
aS'sequence'
p3263
ag32
ag33
aS'species'
p3264
atRp3265
sg37
(lp3266
sg120
g3141
sg121
S'--MVQRWLYSTNAKDIAVLYFIFAIFCGMAGTAMSLIIRLELAAPGVQYLGGNNQLFNVLVVGHAVLMIFFLVMPALIGGFGNYLLPLMIGASDMSFARLNNISFWLLPPALVCLVTSTLVESGAGTGWTVYPPLSSIQAHSGPSVDLAIFALHLTSISSLLGAINFIVTTLNMRTNGMTMHKLPLFVWAIFITAFLLLLSLPVLSAGVTMLLLDRNFNTSFFEVAGGGDPVLYQHLFWFFGHPEVYILIIPGFGIVSHVVSTYSKKPVFGEVSMVYAMASIGLLGFLVWSHHMYIVGLDADTRAYFLSATMIIAIPTGIKIFSWLATIYGGSIRLAVPMLYAIAFLFLFTVGGLTGVALANASLDVAFHDLYYVVGHFHYVLSMGAVFSLFAGYYYWSPQILGLYYNEKLAQIQFWLIFVGANTIFLPMHFLGINGMPRRIPDYPDAFAGWNYVASIGSIIAVVSLFFFIYIVYDQLVNGLENKASNKSVLYAKAPDFVESNDIFTLNTIKSSSIEFLLTSPPAVHTFNTPAVQS---'
p3267
sg123
F0.00040999999999999999
sg124
g125
sg33
S'106'
p3268
sg127
g1
(g128
g12
(dp3269
g130
I4
sg131
g132
sg133
g134
sg135
g132
sg136
I01
sg34
g137
sg138
g134
sg139
I0
sg140
I0
sg141
I0
sg142
g134
sg35
g143
sg144
I0
stRp3270
sg146
g147
sg148
F1
sg149
Nsg30
S'LkluyA'
p3271
sbasg120
g3069
sg123
F0.0035300000000000002
sg124
g125
sg33
S'198'
p3272
sg127
g1
(g128
g12
(dp3273
g130
I6
sg131
g132
sg133
g134
sg135
g132
sg136
I01
sg34
g174
sg138
g134
sg139
I0
sg140
I0
sg141
I0
sg142
g134
sg35
g175
sg144
I0
stRp3274
sg146
g147
sg148
F0.91000000000000003
sg149
Nsg30
S'NoName'
p3275
sbasg120
g3056
sg123
F0.054280000000000002
sg124
g125
sg33
S'214'
p3276
sg127
g1
(g128
g12
(dp3277
g130
I6
sg131
g132
sg133
g134
sg135
g132
sg136
I01
sg34
g174
sg138
g134
sg139
I0
sg140
I0
sg141
I0
sg142
g134
sg35
g175
sg144
I0
stRp3278
sg146
g147
sg148
F0.98999999999999999
sg149
Nsg30
S'NoName'
p3279
sbag1
(g2
g3
NtRp3280
(dp3281
g6
g1
(g7
g3
NtRp3282
(dp3283
g10
g1
(g11
g12
(dtRp3284
sg14
g1
(g11
g12
(dtRp3285
sg16
g1
(g11
g12
(dtRp3286
sg18
g1
(g11
g12
(dtRp3287
sg20
g1
(g11
g12
(dtRp3288
sg22
g1
(g11
g12
(dtRp3289
sbsg24
g25
sg26
g27
((lp3290
g33
ag32
ag29
ag30
atRp3291
sg37
(lp3292
g1
(g2
g3
NtRp3293
(dp3294
g6
g1
(g7
g3
NtRp3295
(dp3296
g10
g1
(g11
g12
(dtRp3297
sg14
g1
(g11
g12
(dtRp3298
sg16
g1
(g11
g12
(dtRp3299
sg18
g1
(g11
g12
(dtRp3300
sg20
g1
(g11
g12
(dtRp3301
sg22
g1
(g11
g12
(dtRp3302
sbsg24
S'Lan'
p3303
sg26
g27
((lp3304
g29
ag30
aS'sequence'
p3305
ag32
ag33
aS'species'
p3306
atRp3307
sg37
(lp3308
sg120
g3280
sg121
S'--MVQRWLYSTNAKDIAVLYLIFSVFCGMAGTAMSVIIRLELAAPGNQYLGGNHQLFNVLALGHAVLMIFFLVMPALIGGFGNYLLPLMIGASDMSFARLNNISFWLLPPALICLVTSTLVESGAGTGWTLYPPLSSIQAHSGPSVDLAIFALHLTSISSLLGAINFIVTTLNMRTNGMTMHKLPLFVWAIFITAFLLLLSLPVLSAGVTMVLLDRNFNTSFFEVAGGGDPVLYQHLFWFFGHPEVYILIIPGFGIVSHVVSTYSKKPVFGEVSMVYAMASIGLLGFLVWSHHMYIVGLDADTRAYFTSATMIIAIPTGIKIFSWLALIYGGSIRLALPMLFAIAFLFLFTVGGLTGVVLANASLDVAFHDTYYVVAHFHYVLSMGAVFSLFAGYYYWSPQILGLYYNEKLAQIHFWLIFIGVNIIFLPMHFLGINGMPRRIPDYPDAFTGWNYVASVGSIISTVSLFLFIYIIYDQLVNGLDNKVNHKAVFYNKSPDFVESNEIFALNSIKSSSIEFLLTSPPAVHTFNTPAVLS---'
p3309
sg123
F0.10922999999999999
sg124
g125
sg33
S'76'
p3310
sg127
g1
(g128
g12
(dp3311
g130
I4
sg131
g132
sg133
g134
sg135
g132
sg136
I01
sg34
g137
sg138
g134
sg139
I0
sg140
I0
sg141
I0
sg142
g134
sg35
g143
sg144
I0
stRp3312
sg146
g147
sg148
F1
sg149
Nsg30
S'LanspA'
p3313
sbag1
(g2
g3
NtRp3314
(dp3315
g6
g1
(g7
g3
NtRp3316
(dp3317
g10
g1
(g11
g12
(dtRp3318
sg14
g1
(g11
g12
(dtRp3319
sg16
g1
(g11
g12
(dtRp3320
sg18
g1
(g11
g12
(dtRp3321
sg20
g1
(g11
g12
(dtRp3322
sg22
g1
(g11
g12
(dtRp3323
sbsg24
g25
sg26
g27
((lp3324
g33
ag32
ag29
ag30
atRp3325
sg37
(lp3326
g1
(g2
g3
NtRp3327
(dp3328
g6
g1
(g7
g3
NtRp3329
(dp3330
g10
g1
(g11
g12
(dtRp3331
sg14
g1
(g11
g12
(dtRp3332
sg16
g1
(g11
g12
(dtRp3333
sg18
g1
(g11
g12
(dtRp3334
sg20
g1
(g11
g12
(dtRp3335
sg22
g1
(g11
g12
(dtRp3336
sbsg24
g25
sg26
g27
((lp3337
g33
ag32
ag29
ag30
atRp3338
sg37
(lp3339
g1
(g2
g3
NtRp3340
(dp3341
g6
g1
(g7
g3
NtRp3342
(dp3343
g10
g1
(g11
g12
(dtRp3344
sg14
g1
(g11
g12
(dtRp3345
sg16
g1
(g11
g12
(dtRp3346
sg18
g1
(g11
g12
(dtRp3347
sg20
g1
(g11
g12
(dtRp3348
sg22
g1
(g11
g12
(dtRp3349
sbsg24
S'Lno'
p3350
sg26
g27
((lp3351
g29
ag30
aS'sequence'
p3352
ag32
ag33
aS'species'
p3353
atRp3354
sg37
(lp3355
sg120
g3327
sg121
S'--MVQRWLYSTNAKDIAILYFIFAVFCGMAGTAMSVIIRLELAAPGNQYLGGNHQLFNVLVVGHAVLMIFFLVMPALIGGFGNYLLPLMIGASDMSFARLNNISFWLLPPALVCLVTSTLVESGAGTGWTIYPPLSSIQAHSGPSVDLAIFALHLTSISSLLGAINFIVTTLNMRTNGMTMHKLPLFVWAVFITAFLLLLSLPVLSAGVTMILLDRNFNTSFFEVAGGGDPVLYQHLFWFFGHPEVYILIIPGFGIVSHIVSTYSKKPVFGEISMVYAMASIGLLGFLVWSHHMYIVGLDADLRAYFTSALMIIAIPTGIKIFSWLALIYGGSIRLALPMLFAIAFLFLFTVGGLTGVALANASLDVAFHDTYYVVAHFHYVLSMGAVFSLFAGYYYWSPQILGLYYNEKLAQIQFWLIFVGANTIFLPMHFLGINGMPRRIPDYPDAFAGWNYVASVGSIIATVSLFFFIYIVYDQLVNGLENKATNKSVVYAKSPDFVESNEIFALNTVKSSSIEFLLTSPPAVHTFNTPAVQS---'
p3356
sg123
F0.0075199999999999998
sg124
g125
sg33
S'27'
p3357
sg127
g1
(g128
g12
(dp3358
g130
I4
sg131
g132
sg133
g134
sg135
g132
sg136
I01
sg34
g137
sg138
g134
sg139
I0
sg140
I0
sg141
I0
sg142
g134
sg35
g143
sg144
I0
stRp3359
sg146
g147
sg148
F1
sg149
Nsg30
S'LnothA'
p3360
sbag1
(g2
g3
NtRp3361
(dp3362
g6
g1
(g7
g3
NtRp3363
(dp3364
g10
g1
(g11
g12
(dtRp3365
sg14
g1
(g11
g12
(dtRp3366
sg16
g1
(g11
g12
(dtRp3367
sg18
g1
(g11
g12
(dtRp3368
sg20
g1
(g11
g12
(dtRp3369
sg22
g1
(g11
g12
(dtRp3370
sbsg24
g25
sg26
g27
((lp3371
g33
ag32
ag29
ag30
atRp3372
sg37
(lp3373
g1
(g2
g3
NtRp3374
(dp3375
g6
g1
(g7
g3
NtRp3376
(dp3377
g10
g1
(g11
g12
(dtRp3378
sg14
g1
(g11
g12
(dtRp3379
sg16
g1
(g11
g12
(dtRp3380
sg18
g1
(g11
g12
(dtRp3381
sg20
g1
(g11
g12
(dtRp3382
sg22
g1
(g11
g12
(dtRp3383
sbsg24
S'Lda'
p3384
sg26
g27
((lp3385
g29
ag30
aS'sequence'
p3386
ag32
ag33
aS'species'
p3387
atRp3388
sg37
(lp3389
sg120
g3361
sg121
S'--MVQRWLYSTNAKDIAILYFIFAIFCGMAGTAMSVIIRLELAAPGNQYLGGNHQLFNVLVVGHAVLMIFFLVMPALIGGFGNYLLPLMIGASDMSFARLNNISFWLLPPALVCLVTSTLVESGAGTGWTVYPPLSSIQAHSGPSVDLAIFALHLTSISSLLGAINFIVTTLNMRTNGMTMHKLPLFVWAVFITAFLLLLSLPVLSAGVTMILLDRNFNTSFFEVAGGGDPVLYQHLFWFFGHPEVYILIIPGFGIVSHIVSTYSKKPVFGEISMVYAMASIGLLGFLVWSHHMYIVGLDADTRAYFTSATMIIAIPTGIKIFSWLALIYGGSIRLALPMLFAIAFLFLFTVGGLTGVALANASLDVAFHDTYYVVAHFHYVLSMGAIFSLFAGYYYWSPQILGLYYNEKLAQIQFWLIFVGANTIFLPMHFLGINGMPRRIPDYPDAFAGWNYVASVGSIIAVVSLFFFIYIVYDQLVNGLENRTTNKSVVYAKSPDFVESNEIFALNTVKSSSIEFLLTSPPAVHTFNTPAVQS---'
p3390
sg123
F0.023539999999999998
sg124
g125
sg33
S'66'
p3391
sg127
g1
(g128
g12
(dp3392
g130
I4
sg131
g132
sg133
g134
sg135
g132
sg136
I01
sg34
g137
sg138
g134
sg139
I0
sg140
I0
sg141
I0
sg142
g134
sg35
g143
sg144
I0
stRp3393
sg146
g147
sg148
F1
sg149
Nsg30
S'LdasiA'
p3394
sbag1
(g2
g3
NtRp3395
(dp3396
g6
g1
(g7
g3
NtRp3397
(dp3398
g10
g1
(g11
g12
(dtRp3399
sg14
g1
(g11
g12
(dtRp3400
sg16
g1
(g11
g12
(dtRp3401
sg18
g1
(g11
g12
(dtRp3402
sg20
g1
(g11
g12
(dtRp3403
sg22
g1
(g11
g12
(dtRp3404
sbsg24
g25
sg26
g27
((lp3405
g33
ag32
ag29
ag30
atRp3406
sg37
(lp3407
g1
(g2
g3
NtRp3408
(dp3409
g6
g1
(g7
g3
NtRp3410
(dp3411
g10
g1
(g11
g12
(dtRp3412
sg14
g1
(g11
g12
(dtRp3413
sg16
g1
(g11
g12
(dtRp3414
sg18
g1
(g11
g12
(dtRp3415
sg20
g1
(g11
g12
(dtRp3416
sg22
g1
(g11
g12
(dtRp3417
sbsg24
S'Lme'
p3418
sg26
g27
((lp3419
g29
ag30
aS'sequence'
p3420
ag32
ag33
aS'species'
p3421
atRp3422
sg37
(lp3423
sg120
g3395
sg121
S'--MVQRWLYSTNAKDIAILYFIFAIFCGMAGTAMSVIIRLELAAPGNQYLGGNHQLFNVLVVGHAVLMIFFLVMPALIGGFGNYLLPLMIGASDMSFARLNNISFWLLPPALVCLVTSTLVESGAGTGWTVYPPLSSIQAHSGPSVDLAIFALHLTSISSLLGAINFIVTTLNMRTNGMTMHKLPLFVWAVFITAFLLLLSLPVLSAGVTMILLDRNFNTSFFEVAGGGDPVLYQHLFWFFGHPEVYILIIPGFGIVSHIVSTYSKKPVFGEISMVYAMASIGLLGFLVWSHHMYIVGLDADTRAYFTSATMIIAIPTGIKIFSWLALIYGGSIRLALPMLFAIAFLFLFTVGGLTGVALANASLDVAFHDTYYVVAHFHYVLSMGAVFSLFAGYYYWSPQILGLYYNEKLAQIQFWLIFVGANTIFLPMHFLGINGMPRRIPDYPDAFAGWNYVASVGSIIATVSLFFFIYIVYDQLVNGLDNKATNKSVVYAKSPDFVESNEIFALNTVKSSSIEFLLTSPPAVHTFNTPAVQS---'
p3424
sg123
F0.0050299999999999997
sg124
g125
sg33
S'81'
p3425
sg127
g1
(g128
g12
(dp3426
g130
I4
sg131
g132
sg133
g134
sg135
g132
sg136
I01
sg34
g137
sg138
g134
sg139
I0
sg140
I0
sg141
I0
sg142
g134
sg35
g143
sg144
I0
stRp3427
sg146
g147
sg148
F1
sg149
Nsg30
S'LmeyeA'
p3428
sbag1
(g2
g3
NtRp3429
(dp3430
g6
g1
(g7
g3
NtRp3431
(dp3432
g10
g1
(g11
g12
(dtRp3433
sg14
g1
(g11
g12
(dtRp3434
sg16
g1
(g11
g12
(dtRp3435
sg18
g1
(g11
g12
(dtRp3436
sg20
g1
(g11
g12
(dtRp3437
sg22
g1
(g11
g12
(dtRp3438
sbsg24
S'Lan'
p3439
sg26
g27
((lp3440
g29
ag30
aS'sequence'
p3441
ag32
ag33
aS'species'
p3442
atRp3443
sg37
(lp3444
sg120
g3395
sg121
S'--MVQRWLYSTNAKDIAILYFIFAVFCGMAGTAMSVIIRLELAAPGNQYLGGNHQLFNVLVVGHAVLMIFFLVMPALIGGFGNYLLPLMIGASDMSFARLNNISFWLLPPALVCLVTSTLVESGAGTGWTVYPPLSSIQAHSGPSVDLAIFALHLTSISSLLGAINFIVTTLNMRTNGMTMHKLPLFVWAVFITAFLLLLSLPVLSAGVTMILLDRNFNTSFFEVAGGGDPVLYQHLFWFFGHPEVYILIIPGFGIVSHIVSTYSKKPVFGEISMVYAMASIGLLGFLVWSHHMYIVGLDADLRAYFTSALMIIAIPTGIKIFSWLALIYGGSIRLALPMLFAIAFLFLFTVGGLTGVALANASLDVAFHDTYYVVAHFHYVLSMGAVFSLFAGYYYWSPQILGLYYNEKLAQIQFWLIFVGANTIFLPMHFLGINGMPRRIPDYPDAFAGWNYVASVGSIIATVSLFFFIYIVYDQLINGLENKATNKSVVYAKSPDFVESNEIFALNTVKSSSIEFLLTSPPAVHTFNTPAVQS---'
p3445
sg123
F0.012290000000000001
sg124
g125
sg33
S'105'
p3446
sg127
g1
(g128
g12
(dp3447
g130
I4
sg131
g132
sg133
g134
sg135
g132
sg136
I01
sg34
g137
sg138
g134
sg139
I0
sg140
I0
sg141
I0
sg142
g134
sg35
g143
sg144
I0
stRp3448
sg146
g147
sg148
F1
sg149
Nsg30
S'LanspB'
p3449
sbasg120
g3361
sg123
F0.012070000000000001
sg124
g125
sg33
S'189'
p3450
sg127
g1
(g128
g12
(dp3451
g130
I6
sg131
g132
sg133
g134
sg135
g132
sg136
I01
sg34
g174
sg138
g134
sg139
I0
sg140
I0
sg141
I0
sg142
g134
sg35
g175
sg144
I0
stRp3452
sg146
g147
sg148
F0.98999999999999999
sg149
Nsg30
S'NoName'
p3453
sbasg120
g3327
sg123
F0.0088199999999999997
sg124
g125
sg33
S'68'
p3454
sg127
g1
(g128
g12
(dp3455
g130
I6
sg131
g132
sg133
g134
sg135
g132
sg136
I01
sg34
g174
sg138
g134
sg139
I0
sg140
I0
sg141
I0
sg142
g134
sg35
g175
sg144
I0
stRp3456
sg146
g147
sg148
F0.95999999999999996
sg149
Nsg30
S'NoName'
p3457
sbasg120
g3314
sg123
F0.016570000000000001
sg124
g125
sg33
S'133'
p3458
sg127
g1
(g128
g12
(dp3459
g130
I6
sg131
g132
sg133
g134
sg135
g132
sg136
I01
sg34
g174
sg138
g134
sg139
I0
sg140
I0
sg141
I0
sg142
g134
sg35
g175
sg144
I0
stRp3460
sg146
g147
sg148
F0.94999999999999996
sg149
Nsg30
S'NoName'
p3461
sbag1
(g2
g3
NtRp3462
(dp3463
g6
g1
(g7
g3
NtRp3464
(dp3465
g10
g1
(g11
g12
(dtRp3466
sg14
g1
(g11
g12
(dtRp3467
sg16
g1
(g11
g12
(dtRp3468
sg18
g1
(g11
g12
(dtRp3469
sg20
g1
(g11
g12
(dtRp3470
sg22
g1
(g11
g12
(dtRp3471
sbsg24
S'Kth'
p3472
sg26
g27
((lp3473
g29
ag30
aS'sequence'
p3474
ag32
ag33
aS'species'
p3475
atRp3476
sg37
(lp3477
sg120
g3314
sg121
S'--MVQRWLYSTNAKDIAILYFIFAIFCGMAGTAMSVIIRLELAAPGNQYLGGNHQLFNVLVVGHAVLMIFFLVMPALIGGFGNYLLPLMIGASDMSFARLNNISFWLLPPALVCLVTSTLVESGAGTGWTVYPPLSSIQAHSGPSVDLAIFALHLTSISSLLGAINFIVTTLNMRTNGMTMHKLPLFVWAVFITAFLLLLSLPVLSAGVTMILLDRNFNTSFFEVAGGGDPVLYQHLFWFFGHPEVYILIIPGFGIVSHIVSTYSKKPVFGEISMVYAMASIGLLGFLVWSHHMYIVGLDADLRAYFTSATMIIAIPTGIKIFSWLALIYGGSIRLALPMLFAIAFLFLFTVGGLTGVALANASLDVAFHDTYYVVAHFHYVLSMGAIFSLFAGYYYWSPQILGLYYNEKLAQIQFWLIFVGANTIFLPMHFLGINGMPRRIPDYPDAFAGWNYVASVGSIIATVSLFFFIYIVYDQLVNGLDNKATNKSVLYAKSPDFIESNEIFALNTVKSSSIEFLLTSPPAVHSYNTPAVQS---'
p3478
sg123
F0.021499999999999998
sg124
g125
sg33
S'97'
p3479
sg127
g1
(g128
g12
(dp3480
g130
I4
sg131
g132
sg133
g134
sg135
g132
sg136
I01
sg34
g137
sg138
g134
sg139
I0
sg140
I0
sg141
I0
sg142
g134
sg35
g143
sg144
I0
stRp3481
sg146
g147
sg148
F1
sg149
Nsg30
S'KtherA'
p3482
sbasg120
g3280
sg123
F0.033250000000000002
sg124
g125
sg33
S'70'
p3483
sg127
g1
(g128
g12
(dp3484
g130
I6
sg131
g132
sg133
g134
sg135
g132
sg136
I01
sg34
g174
sg138
g134
sg139
I0
sg140
I0
sg141
I0
sg142
g134
sg35
g175
sg144
I0
stRp3485
sg146
g147
sg148
F0.93999999999999995
sg149
Nsg30
S'NoName'
p3486
sbasg120
g3056
sg123
F0.038859999999999999
sg124
g125
sg33
S'69'
p3487
sg127
g1
(g128
g12
(dp3488
g130
I6
sg131
g132
sg133
g134
sg135
g132
sg136
I01
sg34
g174
sg138
g134
sg139
I0
sg140
I0
sg141
I0
sg142
g134
sg35
g175
sg144
I0
stRp3489
sg146
g147
sg148
F0.92000000000000004
sg149
Nsg30
S'NoName'
p3490
sbasg120
g3043
sg123
F0.050380000000000001
sg124
g125
sg33
S'11'
p3491
sg127
g1
(g128
g12
(dp3492
g130
I6
sg131
g132
sg133
g134
sg135
g132
sg136
I01
sg34
g174
sg138
g134
sg139
I0
sg140
I0
sg141
I0
sg142
g134
sg35
g175
sg144
I0
stRp3493
sg146
g147
sg148
F0.89000000000000001
sg149
Nsg30
S'NoName'
p3494
sbag1
(g2
g3
NtRp3495
(dp3496
g6
g1
(g7
g3
NtRp3497
(dp3498
g10
g1
(g11
g12
(dtRp3499
sg14
g1
(g11
g12
(dtRp3500
sg16
g1
(g11
g12
(dtRp3501
sg18
g1
(g11
g12
(dtRp3502
sg20
g1
(g11
g12
(dtRp3503
sg22
g1
(g11
g12
(dtRp3504
sbsg24
g25
sg26
g27
((lp3505
g33
ag32
ag29
ag30
atRp3506
sg37
(lp3507
g1
(g2
g3
NtRp3508
(dp3509
g6
g1
(g7
g3
NtRp3510
(dp3511
g10
g1
(g11
g12
(dtRp3512
sg14
g1
(g11
g12
(dtRp3513
sg16
g1
(g11
g12
(dtRp3514
sg18
g1
(g11
g12
(dtRp3515
sg20
g1
(g11
g12
(dtRp3516
sg22
g1
(g11
g12
(dtRp3517
sbsg24
S'Kma'
p3518
sg26
g27
((lp3519
g29
ag30
aS'sequence'
p3520
ag32
ag33
aS'species'
p3521
atRp3522
sg37
(lp3523
sg120
g3495
sg121
S'--MIERWLYSTNAKDIAVLYFIFAIFCGMAGTAMSLIIRLELAAPGNQVLAGNHQLFNVLVVGHAVLMIFFLVMPALIGGFGNYLLPLMIGASDMSFARLNNISFWCLPPALVCLVTSTLVESGAGTGWTVYPPLSSIQAHSGPSVDLAIFALHLTSISSLLGAINFIVTTLNMRTNGMTMHRLPLFVWAIFITAFLLLLSLPVLSAGVTMLLLDRNFNTSFFEVAGGGDPVLYQHLFWFFGHPEVYILIIPGFGIISHIVSTYSKKPVFGEVSMVYAMASIGLLGFLVWSHHMYIVGLDADTRAYFTSATMIIAIPTGIKIFSWLATIYGGSIRLAVPMLYAIAFLFLFTIGGLTGVALANASLDVAFHDTYYVVGHFHYVLSMGAIFSLFAGYYYWSPQILGLYYNEKLAQIQFWLIFVGANVIFLPMHFLGVNGMPRRIPDYPDAFAGWNYVASIGSIIAVFSLFLYIYIVYDQLVNGLENKVNNKSVIYAKGPDFVESNQIFAINKVKSSSIEFLLTSPPAVHTFNTPAVQS---'
p3524
sg123
F0.04018
sg124
g125
sg33
S'100'
p3525
sg127
g1
(g128
g12
(dp3526
g130
I4
sg131
g132
sg133
g134
sg135
g132
sg136
I01
sg34
g137
sg138
g134
sg139
I0
sg140
I0
sg141
I0
sg142
g134
sg35
g143
sg144
I0
stRp3527
sg146
g147
sg148
F1
sg149
Nsg30
S'KmarxA'
p3528
sbag1
(g2
g3
NtRp3529
(dp3530
g6
g1
(g7
g3
NtRp3531
(dp3532
g10
g1
(g11
g12
(dtRp3533
sg14
g1
(g11
g12
(dtRp3534
sg16
g1
(g11
g12
(dtRp3535
sg18
g1
(g11
g12
(dtRp3536
sg20
g1
(g11
g12
(dtRp3537
sg22
g1
(g11
g12
(dtRp3538
sbsg24
S'Kla'
p3539
sg26
g27
((lp3540
g29
ag30
aS'sequence'
p3541
ag32
ag33
aS'species'
p3542
atRp3543
sg37
(lp3544
sg120
g3495
sg121
S'--MIERWLYSTNAKDIAVLYFIFAIFCGMAGTAMSLIIRLELAAPGNQVLSGNHQLFNVLVVGHAVLMIFFLVMPALIGGFGNYMLPLLIGASDMSFARLNNISFWCLPPALVCLVTSTLVESGAGTGWTVYPPLSSIQAHSGPSVDLAIFALHLTSISSLLGAINFIVTTLNMRTNGMTMHRLPLFVWSIFITAFLLLLSLPVLSAGVTMLLLDRNFNTSFFEVAGGGDPVLYQHLFWFFGHPEVYILIIPGFGIISHIVSTYSKKPVFGEVSMVYAMASIGLLGFLVWSHHMYIVGLDADTRAYFTSATMIIAIPTGIKIFSWLATIYGGSIRLAVPMLYAIAFLFLFTIGGLTGVALANASLDVAFHDTYYVVGHFHYVLSMGAIFSLFAGYYYWSPQILGLYYNEKLAQIQFWLIFVGANVIFLPMHFLGVNGMPRRIPDYPDAFAGWNYVASIGSIIAVFSLFLFIYILYDQLVNGLENKVNNKSVIYNKGPDFVESNQIFATNKIKSSSIEFLLTSPPAVHTFNTPAVQS---'
p3545
sg123
F0.043529999999999999
sg124
g125
sg33
S'92'
p3546
sg127
g1
(g128
g12
(dp3547
g130
I4
sg131
g132
sg133
g134
sg135
g132
sg136
I01
sg34
g137
sg138
g134
sg139
I0
sg140
I0
sg141
I0
sg142
g134
sg35
g143
sg144
I0
stRp3548
sg146
g147
sg148
F1
sg149
Nsg30
S'KlactA'
p3549
sbasg120
g3043
sg123
F0.13938999999999999
sg124
g125
sg33
S'140'
p3550
sg127
g1
(g128
g12
(dp3551
g130
I6
sg131
g132
sg133
g134
sg135
g132
sg136
I01
sg34
g174
sg138
g134
sg139
I0
sg140
I0
sg141
I0
sg142
g134
sg35
g175
sg144
I0
stRp3552
sg146
g147
sg148
F0.98999999999999999
sg149
Nsg30
S'NoName'
p3553
sbasg120
g3030
sg123
F1.0000000000000001e-05
sg124
g125
sg33
S'183'
p3554
sg127
g1
(g128
g12
(dp3555
g130
I6
sg131
g132
sg133
g134
sg135
g132
sg136
I01
sg34
g174
sg138
g134
sg139
I0
sg140
I0
sg141
I0
sg142
g134
sg35
g175
sg144
I0
stRp3556
sg146
g147
sg148
F1
sg149
Nsg30
S'NoName'
p3557
sbag1
(g2
g3
NtRp3558
(dp3559
g6
g1
(g7
g3
NtRp3560
(dp3561
g10
g1
(g11
g12
(dtRp3562
sg14
g1
(g11
g12
(dtRp3563
sg16
g1
(g11
g12
(dtRp3564
sg18
g1
(g11
g12
(dtRp3565
sg20
g1
(g11
g12
(dtRp3566
sg22
g1
(g11
g12
(dtRp3567
sbsg24
g25
sg26
g27
((lp3568
g33
ag32
ag29
ag30
atRp3569
sg37
(lp3570
g1
(g2
g3
NtRp3571
(dp3572
g6
g1
(g7
g3
NtRp3573
(dp3574
g10
g1
(g11
g12
(dtRp3575
sg14
g1
(g11
g12
(dtRp3576
sg16
g1
(g11
g12
(dtRp3577
sg18
g1
(g11
g12
(dtRp3578
sg20
g1
(g11
g12
(dtRp3579
sg22
g1
(g11
g12
(dtRp3580
sbsg24
S'Huv'
p3581
sg26
g27
((lp3582
g29
ag30
aS'sequence'
p3583
ag32
ag33
aS'species'
p3584
atRp3585
sg37
(lp3586
sg120
g3558
sg121
S'------MILTTNHKDIAVLYFILALFAAFIGLSMSMFMRLELIHSGSVIIN-NHHLFNSMVSAHAIMMVFLAIMPAIIGAFGNYFLPVALGAADMAFPRLNNVSFWFLVPAVILISLSALIESGAGTGWTVYYPLSGIMSHSSVSVDLVIFGLHCLTISSLLGAINFIATAHNFLD---SLFRMSLFGWAIYILAWLLLLSLPVLTVGITLLLFDRNFNLSYYEVSGGGDPILYQHLFWFFGHPEVYIMIVPAFGIVSMVLSAYSSKNVFGSVSMIYAMGSIGMLGFIVWVHHMFVVGLDTDLRAYFTSATMIIAVPLGIKIFSWLALIIGGRLRFGVPVLFALAFLVLFLAGGVTGVMLSNASVDLAFHDTYYVVAHFHYVLSLGAVFGIFTGYYYWSPLVLGLDYNKNLARMHFVLLVIGTNLTFMPMHYLGINGMPRRISDYPDSYNAWNEVATFGALLSSLSMFVFAVVVERQLLDGI------------RQTDQLLLPYLFS-NKIPNGQIEFTLPLPLASHMFNSPVRFMTTL'
p3587
sg123
F3.9441199999999998
sg124
g125
sg33
S'32'
p3588
sg127
g1
(g128
g12
(dp3589
g130
I4
sg131
g132
sg133
g134
sg135
g132
sg136
I01
sg34
g137
sg138
g134
sg139
I0
sg140
I0
sg141
I0
sg142
g134
sg35
g143
sg144
I0
stRp3590
sg146
g147
sg148
F1
sg149
Nsg30
S'HuvarA'
p3591
sbag1
(g2
g3
NtRp3592
(dp3593
g6
g1
(g7
g3
NtRp3594
(dp3595
g10
g1
(g11
g12
(dtRp3596
sg14
g1
(g11
g12
(dtRp3597
sg16
g1
(g11
g12
(dtRp3598
sg18
g1
(g11
g12
(dtRp3599
sg20
g1
(g11
g12
(dtRp3600
sg22
g1
(g11
g12
(dtRp3601
sbsg24
g25
sg26
g27
((lp3602
g33
ag32
ag29
ag30
atRp3603
sg37
(lp3604
g1
(g2
g3
NtRp3605
(dp3606
g6
g1
(g7
g3
NtRp3607
(dp3608
g10
g1
(g11
g12
(dtRp3609
sg14
g1
(g11
g12
(dtRp3610
sg16
g1
(g11
g12
(dtRp3611
sg18
g1
(g11
g12
(dtRp3612
sg20
g1
(g11
g12
(dtRp3613
sg22
g1
(g11
g12
(dtRp3614
sbsg24
g25
sg26
g27
((lp3615
g33
ag32
ag29
ag30
atRp3616
sg37
(lp3617
g1
(g2
g3
NtRp3618
(dp3619
g6
g1
(g7
g3
NtRp3620
(dp3621
g10
g1
(g11
g12
(dtRp3622
sg14
g1
(g11
g12
(dtRp3623
sg16
g1
(g11
g12
(dtRp3624
sg18
g1
(g11
g12
(dtRp3625
sg20
g1
(g11
g12
(dtRp3626
sg22
g1
(g11
g12
(dtRp3627
sbsg24
g25
sg26
g27
((lp3628
g33
ag32
ag29
ag30
atRp3629
sg37
(lp3630
g1
(g2
g3
NtRp3631
(dp3632
g6
g1
(g7
g3
NtRp3633
(dp3634
g10
g1
(g11
g12
(dtRp3635
sg14
g1
(g11
g12
(dtRp3636
sg16
g1
(g11
g12
(dtRp3637
sg18
g1
(g11
g12
(dtRp3638
sg20
g1
(g11
g12
(dtRp3639
sg22
g1
(g11
g12
(dtRp3640
sbsg24
S'Sse'
p3641
sg26
g27
((lp3642
g29
ag30
aS'sequence'
p3643
ag32
ag33
aS'species'
p3644
atRp3645
sg37
(lp3646
sg120
g3618
sg121
S'--MVQRWLYSTNAKDISIMYFMLALFSGMAGSAMSMIIRMELAAPGSQYLHGNSQLFNVLVVGHAVLMIFFLAMPALIGGFGNYMLPLMIGATDMSFPRINSIGFWLLPMGLVCLVTSTLVESGAGTGWTVYPPLSSIQAHSGPSVDLAIFSLHLTSISSLLGAINFIVTTLNMRTNGMSMHKMPLFVWAIFITAFLLLLSLPVLSAGITMLLMDRNFNTSFFEVAGGGDPIFYQHAFWFFGHPEVYILIIPGFGIVSHIVSTYSKKPVFGEISMVYAMASIGLLGFLVWSHHMYIVGLDADLRAYFTSATMIIAIPTGIKIFSWLALIYGGSIRLAVPMMFAIAFLFLFTVGGLTGVVLANASLDVAFHDTYYVVGHFHYVLSMGAIFSLFAGYYYWSPQMLGLDYNEKLAQIQFWLIFIGANVVFLPMHFLGINGMPRRIPDYPDAFAGWNYVSSVGSLIAMVSLLLFVYIMYDQIMNGITNKNNHK--LIYKTPDFMESNMVFKLNVVKSSSIEFLLNSPPAVHAFNTPAVQS---'
p3647
sg123
F0.29805999999999999
sg124
g125
sg33
S'30'
p3648
sg127
g1
(g128
g12
(dp3649
g130
I4
sg131
g132
sg133
g134
sg135
g132
sg136
I01
sg34
g137
sg138
g134
sg139
I0
sg140
I0
sg141
I0
sg142
g134
sg35
g143
sg144
I0
stRp3650
sg146
g147
sg148
F1
sg149
Nsg30
S'SservA'
p3651
sbag1
(g2
g3
NtRp3652
(dp3653
g6
g1
(g7
g3
NtRp3654
(dp3655
g10
g1
(g11
g12
(dtRp3656
sg14
g1
(g11
g12
(dtRp3657
sg16
g1
(g11
g12
(dtRp3658
sg18
g1
(g11
g12
(dtRp3659
sg20
g1
(g11
g12
(dtRp3660
sg22
g1
(g11
g12
(dtRp3661
sbsg24
S'Sca'
p3662
sg26
g27
((lp3663
g29
ag30
aS'sequence'
p3664
ag32
ag33
aS'species'
p3665
atRp3666
sg37
(lp3667
sg120
g3618
sg121
S'--MLQRWLYSTNAKDIAVLYFLLALFSGMAGTAMSLIIRLELAAPGQQYLHGNNQLFNVLVVGHAILMIFFMVMPALIGGFGNYMLPLMIGATDTAFPRINNIGFWLLPMGLVCLVTSTLVESGAGTGWTVYPPLASIQAHSGPSVDLAIFALHMTSISSLLGAINFIVTTLNMRTNGMTMHKLPLFVWAILITAVLLLLTLPVLSAGVTMLLLDRNFNTSFFEVAGGGDPILYEHLFWFFGHPEVYILIIPGFGIISHVVSTYSKKPVFGEISMVYAMASIGLLGLLVWSHHMYIVGLDADLRAYFTSATMIIAIPTGIKIFSWLATIYGGSIRLALPMLFAIAFLFLFTMGGLTGVALANASLDVAFHDLYYVVGHFHYVLSMGAVFSLLAGYYYWSPQILGLYYNEKLSQIQFWLIFVGANMVFLPMHFLGINGMPRRIPDYPDAFAGWNYISSIGAVVSMISLLLFVYILYDQLVNGLTNKINNKAVVFYKTPDFMESNMVFNTNTVKSSSLEFLLTSPPAVHSFNTPAVQS---'
p3668
sg123
F0.30890000000000001
sg124
g125
sg33
S'19'
p3669
sg127
g1
(g128
g12
(dp3670
g130
I4
sg131
g132
sg133
g134
sg135
g132
sg136
I01
sg34
g137
sg138
g134
sg139
I0
sg140
I0
sg141
I0
sg142
g134
sg35
g143
sg144
I0
stRp3671
sg146
g147
sg148
F1
sg149
Nsg30
S'ScastA'
p3672
sbasg120
g3605
sg123
F0.072319999999999995
sg124
g125
sg33
S'143'
p3673
sg127
g1
(g128
g12
(dp3674
g130
I6
sg131
g132
sg133
g134
sg135
g132
sg136
I01
sg34
g174
sg138
g134
sg139
I0
sg140
I0
sg141
I0
sg142
g134
sg35
g175
sg144
I0
stRp3675
sg146
g147
sg148
F0.98999999999999999
sg149
Nsg30
S'NoName'
p3676
sbag1
(g2
g3
NtRp3677
(dp3678
g6
g1
(g7
g3
NtRp3679
(dp3680
g10
g1
(g11
g12
(dtRp3681
sg14
g1
(g11
g12
(dtRp3682
sg16
g1
(g11
g12
(dtRp3683
sg18
g1
(g11
g12
(dtRp3684
sg20
g1
(g11
g12
(dtRp3685
sg22
g1
(g11
g12
(dtRp3686
sbsg24
g25
sg26
g27
((lp3687
g33
ag32
ag29
ag30
atRp3688
sg37
(lp3689
g1
(g2
g3
NtRp3690
(dp3691
g6
g1
(g7
g3
NtRp3692
(dp3693
g10
g1
(g11
g12
(dtRp3694
sg14
g1
(g11
g12
(dtRp3695
sg16
g1
(g11
g12
(dtRp3696
sg18
g1
(g11
g12
(dtRp3697
sg20
g1
(g11
g12
(dtRp3698
sg22
g1
(g11
g12
(dtRp3699
sbsg24
S'Spa'
p3700
sg26
g27
((lp3701
g29
ag30
aS'sequence'
p3702
ag32
ag33
aS'species'
p3703
atRp3704
sg37
(lp3705
sg120
g3677
sg121
S'--MVQRWLYSTNAKDIAVLYFMLAIFSGMAGTAMSLIIRLELAAPGSQYLQGNAQLFNVLVVGHAVLMIFFLVMPALIGGFGNYLLPLMIGATDTAFPRINNIAFWVLPMGLVCLVTSTLVESGAGTGWTVYPPLSSIQAHSGPSVDLAIFALHLTSISSLLGAINFIVTTLNMRTNGMTMHKLPLFVWSIFITAFLLLLSLPVLSAGITMLLLDRNFNTSFFEVAGGGDPILYEHLFWFFGHPEVYILIIPGFGIISHVVSTYSKKPVFGEISMVYAMASIGLLGFLVWSHHMYIVGLDADTRAYFLSATMIIAIPTGIKIFSWLATVYGGSIRLALPMLYAIAFLFLFTMGGLTGVALANASLDVAFHDTYYVVGHFHYVLSMGAIFSLFAGYYYWSPQILGLNYNEKLAQIQFWLIFIGANVIFFPMHFLGINGMPRRIPDYPDAFAGWNYVASIGSFIALISLFLFIYILYDQLVNGLNNKVTNKSVVYSKAPDFVESNMIFNLNTVKSSSIEFLLTSPPAVHSFNTPAVQS---'
p3706
sg123
F0.029780000000000001
sg124
g125
sg33
S'130'
p3707
sg127
g1
(g128
g12
(dp3708
g130
I4
sg131
g132
sg133
g134
sg135
g132
sg136
I01
sg34
g137
sg138
g134
sg139
I0
sg140
I0
sg141
I0
sg142
g134
sg35
g143
sg144
I0
stRp3709
sg146
g147
sg148
F1
sg149
Nsg30
S'SpastA'
p3710
sbag1
(g2
g3
NtRp3711
(dp3712
g6
g1
(g7
g3
NtRp3713
(dp3714
g10
g1
(g11
g12
(dtRp3715
sg14
g1
(g11
g12
(dtRp3716
sg16
g1
(g11
g12
(dtRp3717
sg18
g1
(g11
g12
(dtRp3718
sg20
g1
(g11
g12
(dtRp3719
sg22
g1
(g11
g12
(dtRp3720
sbsg24
g25
sg26
g27
((lp3721
g33
ag32
ag29
ag30
atRp3722
sg37
(lp3723
g1
(g2
g3
NtRp3724
(dp3725
g6
g1
(g7
g3
NtRp3726
(dp3727
g10
g1
(g11
g12
(dtRp3728
sg14
g1
(g11
g12
(dtRp3729
sg16
g1
(g11
g12
(dtRp3730
sg18
g1
(g11
g12
(dtRp3731
sg20
g1
(g11
g12
(dtRp3732
sg22
g1
(g11
g12
(dtRp3733
sbsg24
g25
sg26
g27
((lp3734
g33
ag32
ag29
ag30
atRp3735
sg37
(lp3736
g1
(g2
g3
NtRp3737
(dp3738
g6
g1
(g7
g3
NtRp3739
(dp3740
g10
g1
(g11
g12
(dtRp3741
sg14
g1
(g11
g12
(dtRp3742
sg16
g1
(g11
g12
(dtRp3743
sg18
g1
(g11
g12
(dtRp3744
sg20
g1
(g11
g12
(dtRp3745
sg22
g1
(g11
g12
(dtRp3746
sbsg24
S'Sce'
p3747
sg26
g27
((lp3748
g29
ag30
aS'sequence'
p3749
ag32
ag33
aS'species'
p3750
atRp3751
sg37
(lp3752
sg120
g3724
sg121
S'--MVQRWLYSTNAKDIAVLYFMLAIFSGMAGTAMSLIIRLELAAPGSQYLHGNSQLFNVLVVGHAVLMIFFLVMPALIGGFGNYLLPLMIGATDTAFPRINNIAFWVLPMGLVCLVTSTLVESGAGTGWTVYPPLSSIQAHSGPSVDLAIFALHLTSISSLLGAINFIVTTLNMRTNGMTMHKLPLFVWSIFITAFLLLLSLPVLSAGITMLLLDRNFNTSFFEVAGGGDPILYEHLFWFFGHPEVYILIIPGFGIISHVVSTYSKKPVFGEISMVYAMASIGLLGFLVWSHHMYIVGLDADTRAYFLSALMIIAIPTGIKIFSWLALVYGGSIRLALPMLYAIVFLFLFTMGGLTGVALANASLDVAFHDTYYVVGHFHYVLSMGAIFSLFAGYYYWSPQILGLNYNEKLAQIQFWLIFIGANVIFFPMHFLGINGMPRRIPDYPDAFAGWNYVASIGSFIALLSLFLFIYILYDQLVNGLNNKVNNKSVIYAKAPDFVESNLIFNLNTVKSSSIEFLLTSPPAVHSFNTPAVQS---'
p3753
sg123
F0.0038700000000000002
sg124
g125
sg33
S'82'
p3754
sg127
g1
(g128
g12
(dp3755
g130
I4
sg131
g132
sg133
g134
sg135
g132
sg136
I01
sg34
g137
sg138
g134
sg139
I0
sg140
I0
sg141
I0
sg142
g134
sg35
g143
sg144
I0
stRp3756
sg146
g147
sg148
F1
sg149
Nsg30
S'ScereD'
p3757
sbag1
(g2
g3
NtRp3758
(dp3759
g6
g1
(g7
g3
NtRp3760
(dp3761
g10
g1
(g11
g12
(dtRp3762
sg14
g1
(g11
g12
(dtRp3763
sg16
g1
(g11
g12
(dtRp3764
sg18
g1
(g11
g12
(dtRp3765
sg20
g1
(g11
g12
(dtRp3766
sg22
g1
(g11
g12
(dtRp3767
sbsg24
g25
sg26
g27
((lp3768
g33
ag32
ag29
ag30
atRp3769
sg37
(lp3770
g1
(g2
g3
NtRp3771
(dp3772
g6
g1
(g7
g3
NtRp3773
(dp3774
g10
g1
(g11
g12
(dtRp3775
sg14
g1
(g11
g12
(dtRp3776
sg16
g1
(g11
g12
(dtRp3777
sg18
g1
(g11
g12
(dtRp3778
sg20
g1
(g11
g12
(dtRp3779
sg22
g1
(g11
g12
(dtRp3780
sbsg24
S'Sce'
p3781
sg26
g27
((lp3782
g29
ag30
aS'sequence'
p3783
ag32
ag33
aS'species'
p3784
atRp3785
sg37
(lp3786
sg120
g3758
sg121
S'--MVQRWLYSTNAKDIAVLYFMLAIFSGMAGTAMSLIIRLELAAPGSQYLHGNSQLYNVLVVGHAVLMIFFLVMPALIGGFGNYLLPLMIGATDTAFPRINNIAFWVLPMGLVCLVTSTLVESGAGTGWTVYPPLSSIQAHSGPSVDLAIFALHLTSISSLLGAINFIVTTLNMRTNGMTMHKLPLFVWSIFITAFLLLLSLPVLSAGITMLLLDRNFNTSFFEVAGGGDPILYEHLFWFFGHPEVYILIIPGFGIISHVVSTYSKKPVFGEISMVYAMASIGLLGFLVWSHHMYIVGLDADTRAYFLSALMIIAIPTGIKIFSWLALIYGGSIRLALPMLYAIAFLFLFTMGGLTGVALANASLDVAFHDTYYVVGHFHYVLSMGAIFSLFAGYYYWSPQILGLNYNEKLAQIQFWLIFIGANVIFFPMHFLGINGMPRRIPDYPDAFAGWNYVASIGSFIALLSLFLFIYILYDQLVNGLNNKVNNKSVIYNKAPDFVESNLIFNLNTVKSSSIEFLLTSPPAVHSFNTPAVQS---'
p3787
sg123
F0.0075900000000000004
sg124
g125
sg33
S'180'
p3788
sg127
g1
(g128
g12
(dp3789
g130
I4
sg131
g132
sg133
g134
sg135
g132
sg136
I01
sg34
g137
sg138
g134
sg139
I0
sg140
I0
sg141
I0
sg142
g134
sg35
g143
sg144
I0
stRp3790
sg146
g147
sg148
F1
sg149
Nsg30
S'ScereE'
p3791
sbag1
(g2
g3
NtRp3792
(dp3793
g6
g1
(g7
g3
NtRp3794
(dp3795
g10
g1
(g11
g12
(dtRp3796
sg14
g1
(g11
g12
(dtRp3797
sg16
g1
(g11
g12
(dtRp3798
sg18
g1
(g11
g12
(dtRp3799
sg20
g1
(g11
g12
(dtRp3800
sg22
g1
(g11
g12
(dtRp3801
sbsg24
g25
sg26
g27
((lp3802
g33
ag32
ag29
ag30
atRp3803
sg37
(lp3804
g1
(g2
g3
NtRp3805
(dp3806
g6
g1
(g7
g3
NtRp3807
(dp3808
g10
g1
(g11
g12
(dtRp3809
sg14
g1
(g11
g12
(dtRp3810
sg16
g1
(g11
g12
(dtRp3811
sg18
g1
(g11
g12
(dtRp3812
sg20
g1
(g11
g12
(dtRp3813
sg22
g1
(g11
g12
(dtRp3814
sbsg24
S'Sce'
p3815
sg26
g27
((lp3816
g29
ag30
aS'sequence'
p3817
ag32
ag33
aS'species'
p3818
atRp3819
sg37
(lp3820
sg120
g3792
sg121
S'--MVQRWLYSTNAKDIAVLYFMLAIFSGMAGTAMSLIIRLELAAPGSQYLHGNSQLFNVLVVGHAVLMIFFLVMPALIGGFGNYLLPLMIGATDTAFPRINNIAFWVLPMGLVCLVTSTLVESGAGTGWTVYPPLSSIQAHSGPSVDLAIFALHLTSISSLLGAINFIVTTLNMRTNGMTMHKLPLFVWSIFITAFLLLLSLPVLSAGITMLLLDRNFNTSFFEVSGGGDPILYEHLFWFFGHPEVYILIIPGFGIISHVVSTYSKKPVFGEISMVYAMASIGLLGFLVWSHHMYIVGLDADLRAYFLSALMIIAIPTGIKIFSWLALIHGGSIRLALPMLYAIAFLFLFTMGGLTGVALANASLDVAFHDTYYVVGHFHYVLSMGAIFSLFAGYYYWSPQILGLNYNEKLAQIQFWLIFIGANVIFFPMHFLGINGMPRRIPDYPDAFAGWNYVASIGSFIALLSLFLFIYILYDQLVNGLNNKVNNKSVIYNKAPDFVESNLIFNLNTVKSSSIEFLLTSPPAVHSFNTPAVQS---'
p3821
sg123
F0.0053899999999999998
sg124
g125
sg33
S'45'
p3822
sg127
g1
(g128
g12
(dp3823
g130
I4
sg131
g132
sg133
g134
sg135
g132
sg136
I01
sg34
g137
sg138
g134
sg139
I0
sg140
I0
sg141
I0
sg142
g134
sg35
g143
sg144
I0
stRp3824
sg146
g147
sg148
F1
sg149
Nsg30
S'ScereC'
p3825
sbag1
(g2
g3
NtRp3826
(dp3827
g6
g1
(g7
g3
NtRp3828
(dp3829
g10
g1
(g11
g12
(dtRp3830
sg14
g1
(g11
g12
(dtRp3831
sg16
g1
(g11
g12
(dtRp3832
sg18
g1
(g11
g12
(dtRp3833
sg20
g1
(g11
g12
(dtRp3834
sg22
g1
(g11
g12
(dtRp3835
sbsg24
S'Sce'
p3836
sg26
g27
((lp3837
g29
ag30
aS'sequence'
p3838
ag32
ag33
aS'species'
p3839
atRp3840
sg37
(lp3841
sg120
g3792
sg121
S'--MVQRWLYSTNAKDIAVLYFMLAIFSGMAGTAMSLIIRLELAAPGSQYLHGNSQLFNVLVVGHAVLMIFFLVMPALIGGFGNYLLPLMIGATDTAFPRINNIAFWVLPMGLVCLVTSTLVESGAGTGWTVYPPLSSIQAHSGPSVDLAIFALHLTSISSLLGAINFIVTTLNMRTNGMTMHKLPLFVWSIFITAFLLLLSLPVLSAGITMLLLDRNFNTSFFEVAGGGDPILYEHLFWFFGHPEVYILIIPGFGIISHVVSTYSKKPVFGEISMVYAMASIGLLGFLVWSHHMYIVGLDADLRAYFLSALMIIAIPTGIKIFSWLALVYGGSIRLALPMLYAIAFLFLFTMGGLTGVALANASLDVAFHDTYYVVGHFHYVLSMGAIFSLFAGYYYWSPQILGLNYNEKLAQIQFWLIFIGANVIFFPMHFLGINGMPRRIPDYPDAFAGWNYVASIGSFIALLSLFLFIYILYDQLVNGLNNKVNNKSVIYAKAPDFVESNLIFNLNTVKSSSIEFLLTSPPAVHSFNTPAVQS---'
p3842
sg123
F0.0066400000000000001
sg124
g125
sg33
S'5'
sg127
g1
(g128
g12
(dp3843
g130
I4
sg131
g132
sg133
g134
sg135
g132
sg136
I01
sg34
g137
sg138
g134
sg139
I0
sg140
I0
sg141
I0
sg142
g134
sg35
g143
sg144
I0
stRp3844
sg146
g147
sg148
F1
sg149
Nsg30
S'ScereA'
p3845
sbasg120
g3758
sg123
F0.00596
sg124
g125
sg33
S'134'
p3846
sg127
g1
(g128
g12
(dp3847
g130
I6
sg131
g132
sg133
g134
sg135
g132
sg136
I01
sg34
g174
sg138
g134
sg139
I0
sg140
I0
sg141
I0
sg142
g134
sg35
g175
sg144
I0
stRp3848
sg146
g147
sg148
F0.98999999999999999
sg149
Nsg30
S'NoName'
p3849
sbasg120
g3724
sg123
F0.0050600000000000003
sg124
g125
sg33
S'2'
sg127
g1
(g128
g12
(dp3850
g130
I6
sg131
g132
sg133
g134
sg135
g132
sg136
I01
sg34
g174
sg138
g134
sg139
I0
sg140
I0
sg141
I0
sg142
g134
sg35
g175
sg144
I0
stRp3851
sg146
g147
sg148
F0.66000000000000003
sg149
Nsg30
S'NoName'
p3852
sbasg120
g3711
sg123
F0.017850000000000001
sg124
g125
sg33
S'195'
p3853
sg127
g1
(g128
g12
(dp3854
g130
I6
sg131
g132
sg133
g134
sg135
g132
sg136
I01
sg34
g174
sg138
g134
sg139
I0
sg140
I0
sg141
I0
sg142
g134
sg35
g175
sg144
I0
stRp3855
sg146
g147
sg148
F0.89000000000000001
sg149
Nsg30
S'NoName'
p3856
sbag1
(g2
g3
NtRp3857
(dp3858
g6
g1
(g7
g3
NtRp3859
(dp3860
g10
g1
(g11
g12
(dtRp3861
sg14
g1
(g11
g12
(dtRp3862
sg16
g1
(g11
g12
(dtRp3863
sg18
g1
(g11
g12
(dtRp3864
sg20
g1
(g11
g12
(dtRp3865
sg22
g1
(g11
g12
(dtRp3866
sbsg24
S'Sar'
p3867
sg26
g27
((lp3868
g29
ag30
aS'sequence'
p3869
ag32
ag33
aS'species'
p3870
atRp3871
sg37
(lp3872
sg120
g3711
sg121
S'--MVQRWLYSTNAKDIAVLYFMLAIFSGMAGTAMSLIIRLELAAPGSQYLQGNSQLFNVLVVGHAVLMIFFLVMPALIGGFGNYLLPLMIGATDTAFPRINNIAFWVLPMGLVCLVTSTLVESGAGTGWTVYPPLSSIQAHSGPSVDLAIFALHLTSISSLLGAINFIVTTLNMRTNGMTMHKLPLFVWSIFITAFLLLLSLPVLSAGITMLLLDRNFNTSFFEVAGGGDPILYEHLFWFFGHPEVYILIIPGFGIISHVVSTYSKKPVFGEISMVYAMASIGLLGFLVWSHHMYIVGLDADLRAYFLSALMIIAIPTGIKIFSWLALVYGGSIRLALPMLYAIAFLFLFTMGGLTGVALANASLDVAFHDTYYVVGHFHYVLSMGAIFSLFAGYYYWSPQILGLNYNEKLAQIQFWLIFIGANVIFFPMHFLGINGMPRRIPDYPDAFAGWNYVASIGSFIALLSLFLFIYILYDQLVNGLNNKVTNKSVIYSKTPDFIESNMIFNLNTVKSSSIEFLLTSPPAVHSFNTPAVQS---'
p3873
sg123
F0.047230000000000001
sg124
g125
sg33
S'16'
p3874
sg127
g1
(g128
g12
(dp3875
g130
I4
sg131
g132
sg133
g134
sg135
g132
sg136
I01
sg34
g137
sg138
g134
sg139
I0
sg140
I0
sg141
I0
sg142
g134
sg35
g143
sg144
I0
stRp3876
sg146
g147
sg148
F1
sg149
Nsg30
S'SarboA'
p3877
sbasg120
g3677
sg123
F0.023619999999999999
sg124
g125
sg33
S'177'
p3878
sg127
g1
(g128
g12
(dp3879
g130
I6
sg131
g132
sg133
g134
sg135
g132
sg136
I01
sg34
g174
sg138
g134
sg139
I0
sg140
I0
sg141
I0
sg142
g134
sg35
g175
sg144
I0
stRp3880
sg146
g147
sg148
F0.92000000000000004
sg149
Nsg30
S'NoName'
p3881
sbasg120
g3605
sg123
F0.18547
sg124
g125
sg33
S'89'
p3882
sg127
g1
(g128
g12
(dp3883
g130
I6
sg131
g132
sg133
g134
sg135
g132
sg136
I01
sg34
g174
sg138
g134
sg139
I0
sg140
I0
sg141
I0
sg142
g134
sg35
g175
sg144
I0
stRp3884
sg146
g147
sg148
F0.98999999999999999
sg149
Nsg30
S'NoName'
p3885
sbasg120
g3592
sg123
F0.03594
sg124
g125
sg33
S'71'
p3886
sg127
g1
(g128
g12
(dp3887
g130
I6
sg131
g132
sg133
g134
sg135
g132
sg136
I01
sg34
g174
sg138
g134
sg139
I0
sg140
I0
sg141
I0
sg142
g134
sg35
g175
sg144
I0
stRp3888
sg146
g147
sg148
F0.98999999999999999
sg149
Nsg30
S'NoName'
p3889
sbag1
(g2
g3
NtRp3890
(dp3891
g6
g1
(g7
g3
NtRp3892
(dp3893
g10
g1
(g11
g12
(dtRp3894
sg14
g1
(g11
g12
(dtRp3895
sg16
g1
(g11
g12
(dtRp3896
sg18
g1
(g11
g12
(dtRp3897
sg20
g1
(g11
g12
(dtRp3898
sg22
g1
(g11
g12
(dtRp3899
sbsg24
g25
sg26
g27
((lp3900
g33
ag32
ag29
ag30
atRp3901
sg37
(lp3902
g1
(g2
g3
NtRp3903
(dp3904
g6
g1
(g7
g3
NtRp3905
(dp3906
g10
g1
(g11
g12
(dtRp3907
sg14
g1
(g11
g12
(dtRp3908
sg16
g1
(g11
g12
(dtRp3909
sg18
g1
(g11
g12
(dtRp3910
sg20
g1
(g11
g12
(dtRp3911
sg22
g1
(g11
g12
(dtRp3912
sbsg24
g25
sg26
g27
((lp3913
g33
ag32
ag29
ag30
atRp3914
sg37
(lp3915
g1
(g2
g3
NtRp3916
(dp3917
g6
g1
(g7
g3
NtRp3918
(dp3919
g10
g1
(g11
g12
(dtRp3920
sg14
g1
(g11
g12
(dtRp3921
sg16
g1
(g11
g12
(dtRp3922
sg18
g1
(g11
g12
(dtRp3923
sg20
g1
(g11
g12
(dtRp3924
sg22
g1
(g11
g12
(dtRp3925
sbsg24
S'Nde'
p3926
sg26
g27
((lp3927
g29
ag30
aS'sequence'
p3928
ag32
ag33
aS'species'
p3929
atRp3930
sg37
(lp3931
sg120
g3903
sg121
S'--MVQRWLYSTNAKDIAVLYFMIALFSGMAGTAMSMIIRLELAAPGSQYLAGNNQLFNVLVVGHAVLMIFFLVMPALIGGFGNYMLPLMIGASDMAFPRLNNVGFWLIVPALVCLVTSTLVEAGAGTGWTVYPPLSSIQAHSGPSVDLAIFSLHMTSISSLLGAINFIVTTLNMRTNGMTMHKLPLFVWAIFITAFLLLLSLPVFSAGVTMLLLDRNFNTSFFEVAGGGDPVLYQHLFWFFGHPEVYILIIPGFGIISHIVSTYSKKPVFGEISMVYAMASIGLLGFLVWSHHMYIVGLDADLRAYFTSATMIIAIPTGIKIFSWLATIYGGSIRLAVPMLYAIAFLFLFTIGGMTGVALANASLDVAFHDTYYVVGHFHYVLSMGAVFSTIAGYYYWSPQILGLYYNEKLAQIQFWLIFIGANVLFMPMHFLGINGMPRRIPDYPDAFAGWNYVASIGSFIAMISLVLFIYILYDQFVNGLTNKANNKSVLYTKSPDFVESNEIFNLNTIKTSSIEFLLTSPPAVHSFNTPAVQS---'
p3932
sg123
F0.063509999999999997
sg124
g125
sg33
S'50'
p3933
sg127
g1
(g128
g12
(dp3934
g130
I4
sg131
g132
sg133
g134
sg135
g132
sg136
I01
sg34
g137
sg138
g134
sg139
I0
sg140
I0
sg141
I0
sg142
g134
sg35
g143
sg144
I0
stRp3935
sg146
g147
sg148
F1
sg149
Nsg30
S'NdelpA'
p3936
sbag1
(g2
g3
NtRp3937
(dp3938
g6
g1
(g7
g3
NtRp3939
(dp3940
g10
g1
(g11
g12
(dtRp3941
sg14
g1
(g11
g12
(dtRp3942
sg16
g1
(g11
g12
(dtRp3943
sg18
g1
(g11
g12
(dtRp3944
sg20
g1
(g11
g12
(dtRp3945
sg22
g1
(g11
g12
(dtRp3946
sbsg24
S'Cgl'
p3947
sg26
g27
((lp3948
g29
ag30
aS'sequence'
p3949
ag32
ag33
aS'species'
p3950
atRp3951
sg37
(lp3952
sg120
g3903
sg121
S'--MVQRWLYSTNAKDIAVLYFMIALFSGMAGTAMSMIIRLELAAPGSQYLAGNNQLFNVLVVGHAVLMIFFLVMPALIGGFGNYMLPLMIGASDMAFPRLNNVGFWLIVPALVCLVTSTLVEAGAGTGWTVYPPLSSIQAHSGPSVDLAIFALHLTSISSLLGSINFIVTTLNMRTNGMTMHKLPLFVWAIFITAFLLLLSLPVLSAGVTMLLLDRNFNTSFFEVAGGGDPILYQHLFWFFGHPEVYILIIPGFGIISHIVSTYSKKPVFGEISMVYAMASIGLLGFLVWSHHMYIVGLDADTRAYFTSATMIIAIPTGIKIFSWLATIYGGSIRLAVPMLYAIAFLFLFTIGGMTGVALANASLDVAFHDTYYVVGHFHYVLSMGAVFSTIAGYYYWSPQILGLYYNEKLAQIQFWLIFVGANVLFMPMHFLGINGMPRRIPDYPDAFAGWNYVASVGSFIAMISLVLFIYILYDQFVNGLTNKANNKSVLYTKSPDFVESNEIFNLNTIKTSSIEFLLTSPPAVHSFNTPAVQS---'
p3953
sg123
F0.03882
sg124
g125
sg33
S'56'
p3954
sg127
g1
(g128
g12
(dp3955
g130
I4
sg131
g132
sg133
g134
sg135
g132
sg136
I01
sg34
g137
sg138
g134
sg139
I0
sg140
I0
sg141
I0
sg142
g134
sg35
g143
sg144
I0
stRp3956
sg146
g147
sg148
F1
sg149
Nsg30
S'CglabA'
p3957
sbasg120
g3890
sg123
F0.16661999999999999
sg124
g125
sg33
S'9'
sg127
g1
(g128
g12
(dp3958
g130
I6
sg131
g132
sg133
g134
sg135
g132
sg136
I01
sg34
g174
sg138
g134
sg139
I0
sg140
I0
sg141
I0
sg142
g134
sg35
g175
sg144
I0
stRp3959
sg146
g147
sg148
F0.98999999999999999
sg149
Nsg30
S'NoName'
p3960
sbag1
(g2
g3
NtRp3961
(dp3962
g6
g1
(g7
g3
NtRp3963
(dp3964
g10
g1
(g11
g12
(dtRp3965
sg14
g1
(g11
g12
(dtRp3966
sg16
g1
(g11
g12
(dtRp3967
sg18
g1
(g11
g12
(dtRp3968
sg20
g1
(g11
g12
(dtRp3969
sg22
g1
(g11
g12
(dtRp3970
sbsg24
g25
sg26
g27
((lp3971
g33
ag32
ag29
ag30
atRp3972
sg37
(lp3973
g1
(g2
g3
NtRp3974
(dp3975
g6
g1
(g7
g3
NtRp3976
(dp3977
g10
g1
(g11
g12
(dtRp3978
sg14
g1
(g11
g12
(dtRp3979
sg16
g1
(g11
g12
(dtRp3980
sg18
g1
(g11
g12
(dtRp3981
sg20
g1
(g11
g12
(dtRp3982
sg22
g1
(g11
g12
(dtRp3983
sbsg24
S'Nba'
p3984
sg26
g27
((lp3985
g29
ag30
aS'sequence'
p3986
ag32
ag33
aS'species'
p3987
atRp3988
sg37
(lp3989
sg120
g3961
sg121
S'--MIQRWLFSTNAKDISVLYFMLALFSGMAGTAMSLIIRMELAGPGSQRLQGNAQVFNVLVVGHAVLMIFFMVMPLLIGAFGNYMLPLMIGASDMSFPRLNNIGFWTMPAALVCLVTSTLIESGAGTGWTVYPPLSSIQAHSGPSVDLAIFSLHLSSISSLLGAINFIVTTLNMRTNGMSMHKLPLFVWSIFITAFLLLFSLPVFSAGITMLLLDRNFNTSFFEVAGGGDPILYQHLFWFFGHPEVYILIIPGFGVVSHIVSTYSKKPVFGEVSMVYAMASIGLLGFLVWSHHMYIVGLDADTRAYFTSATMIIAIPTGIKIFSWLALIYGGSIRLAVPMLYAIAFLFLFTIGGLTGVALANASLDIAFHDTYYVVGHFHYVLSMGAVFSVFAAYYYWSPQILGLNYNEKLAQIQFWLIFVGANVLFMPMHFLGINGMPRRIPDYPDAFTGWNYISSMGSMISMISVFIFIYILYDQLVNGLNNKINNKSVLYNKAPDFVESNNIFTFNTIKTSSIEFLLNSPPAVHPYNTPAVQS---'
p3990
sg123
F0.29926999999999998
sg124
g125
sg33
S'62'
p3991
sg127
g1
(g128
g12
(dp3992
g130
I4
sg131
g132
sg133
g134
sg135
g132
sg136
I01
sg34
g137
sg138
g134
sg139
I0
sg140
I0
sg141
I0
sg142
g134
sg35
g143
sg144
I0
stRp3993
sg146
g147
sg148
F1
sg149
Nsg30
S'NbaciA'
p3994
sbag1
(g2
g3
NtRp3995
(dp3996
g6
g1
(g7
g3
NtRp3997
(dp3998
g10
g1
(g11
g12
(dtRp3999
sg14
g1
(g11
g12
(dtRp4000
sg16
g1
(g11
g12
(dtRp4001
sg18
g1
(g11
g12
(dtRp4002
sg20
g1
(g11
g12
(dtRp4003
sg22
g1
(g11
g12
(dtRp4004
sbsg24
S'Cca'
p4005
sg26
g27
((lp4006
g29
ag30
aS'sequence'
p4007
ag32
ag33
aS'species'
p4008
atRp4009
sg37
(lp4010
sg120
g3961
sg121
S'-MMIQRWLFSTNAKDISVLYFILALFSGMVGTAMSVIIRLELAGPGPQHLAGNNQVFNVLVVGHAVAMIFFMVMPALIGAIGNYMLPLMIGASDTAFPRLNNIGFWLLPPALVCLVTSTLVESGAGTGWTVYPPLSSIQAHSGPSVDLAIFALHLTSISSLLGAINFIVTTLNMRTNGMSMHKLPLFVWAIFITAFLLLFSLPVFSAGITMLLMDRNFNTSFFEVAGGGDPILYQHVFWFFGHPEVYILIIPGFGIISHIVSTYSKKPVFGEVSMVYAMASIGLLGFLVWSHHMYIVGLDVDTRAYFTSALMIIAIPTGIKIFSWLATIFGGSIRLAVPMLYAISFLFLFTIGGLTGVALANASLDVAFHDTYYVVGHFHYVLSMGAVFSLLAGYYYWSPQILGLNYNEKLAQIQFWLIFIGANVLFMPMHFLGMNGMPRRIPDYPDAFTGWNYVASVGSIISLISVLLFIYILYDQLYNGLNNKINNKSVLYNKAPDFMESNNIFSMNVIKSSSIEFLLNSPPAVHSFNTPAVQS---'
p4011
sg123
F0.26266
sg124
g125
sg33
S'53'
p4012
sg127
g1
(g128
g12
(dp4013
g130
I4
sg131
g132
sg133
g134
sg135
g132
sg136
I01
sg34
g137
sg138
g134
sg139
I0
sg140
I0
sg141
I0
sg142
g134
sg35
g143
sg144
I0
stRp4014
sg146
g147
sg148
F1
sg149
Nsg30
S'CcastA'
p4015
sbasg120
g3890
sg123
F0.15296999999999999
sg124
g125
sg33
S'21'
p4016
sg127
g1
(g128
g12
(dp4017
g130
I6
sg131
g132
sg133
g134
sg135
g132
sg136
I01
sg34
g174
sg138
g134
sg139
I0
sg140
I0
sg141
I0
sg142
g134
sg35
g175
sg144
I0
stRp4018
sg146
g147
sg148
F0.98999999999999999
sg149
Nsg30
S'NoName'
p4019
sbasg120
g3592
sg123
F0.042560000000000001
sg124
g125
sg33
S'10'
p4020
sg127
g1
(g128
g12
(dp4021
g130
I6
sg131
g132
sg133
g134
sg135
g132
sg136
I01
sg34
g174
sg138
g134
sg139
I0
sg140
I0
sg141
I0
sg142
g134
sg35
g175
sg144
I0
stRp4022
sg146
g147
sg148
F0.84999999999999998
sg149
Nsg30
S'NoName'
p4023
sbasg120
g3558
sg123
F0.094020000000000006
sg124
g125
sg33
S'103'
p4024
sg127
g1
(g128
g12
(dp4025
g130
I6
sg131
g132
sg133
g134
sg135
g132
sg136
I01
sg34
g174
sg138
g134
sg139
I0
sg140
I0
sg141
I0
sg142
g134
sg35
g175
sg144
I0
stRp4026
sg146
g147
sg148
F0.55000000000000004
sg149
Nsg30
S'NoName'
p4027
sbasg120
g3030
sg123
F0.11952
sg124
g125
sg33
S'102'
p4028
sg127
g1
(g128
g12
(dp4029
g130
I6
sg131
g132
sg133
g134
sg135
g132
sg136
I01
sg34
g174
sg138
g134
sg139
I0
sg140
I0
sg141
I0
sg142
g134
sg35
g175
sg144
I0
stRp4030
sg146
g147
sg148
F0.69999999999999996
sg149
Nsg30
S'NoName'
p4031
sbasg120
g3017
sg123
F0.029839999999999998
sg124
g125
sg33
S'149'
p4032
sg127
g1
(g128
g12
(dp4033
g130
I6
sg131
g132
sg133
g134
sg135
g132
sg136
I01
sg34
g174
sg138
g134
sg139
I0
sg140
I0
sg141
I0
sg142
g134
sg35
g175
sg144
I0
stRp4034
sg146
g147
sg148
F0.82999999999999996
sg149
Nsg30
S'NoName'
p4035
sbag1
(g2
g3
NtRp4036
(dp4037
g6
g1
(g7
g3
NtRp4038
(dp4039
g10
g1
(g11
g12
(dtRp4040
sg14
g1
(g11
g12
(dtRp4041
sg16
g1
(g11
g12
(dtRp4042
sg18
g1
(g11
g12
(dtRp4043
sg20
g1
(g11
g12
(dtRp4044
sg22
g1
(g11
g12
(dtRp4045
sbsg24
g25
sg26
g27
((lp4046
g33
ag32
ag29
ag30
atRp4047
sg37
(lp4048
g1
(g2
g3
NtRp4049
(dp4050
g6
g1
(g7
g3
NtRp4051
(dp4052
g10
g1
(g11
g12
(dtRp4053
sg14
g1
(g11
g12
(dtRp4054
sg16
g1
(g11
g12
(dtRp4055
sg18
g1
(g11
g12
(dtRp4056
sg20
g1
(g11
g12
(dtRp4057
sg22
g1
(g11
g12
(dtRp4058
sbsg24
S'Aac'
p4059
sg26
g27
((lp4060
g29
ag30
aS'sequence'
p4061
ag32
ag33
aS'species'
p4062
atRp4063
sg37
(lp4064
sg120
g4036
sg121
S'-MYLQRWLFSTNAKDIAILYFIFSTFCGLAGTAMSFIIRMELSAPGQQYLQGQNQLFNVLVTGHLILMVFFLVMPMLIGGFGNYYLPLMIGASDMSFARLNNISFWLLPPLLVCLLTSTMVEAGLGTGWTVYPPLASIQSHSGASVDLAIFSLHLTTISSLLGLINFIVTALNMRTNGMTMHKMPLFLWSILITAVMLLMSLPVLSAGITMLLMDRNFNTSFFEVQGGGDPILYQHLFWFFGHPEVYIMIVPLFGIMSHIVSTYSKKPVFGEISMIYAMGSIGLLGFLVWSHHMYVVGLDLDTRAYFTSLTMIILIPTSIKVFSWLLTIYGGSVRLLTPMLYAFSFLFLFTIGGLTGVVLANLSLDVLFHDTYYVVLHFHYVLSLGAVFSMFAGYYYWSPLVLGLNYNEKLAQIQFWLIFFGLNIIFFPMHFLGINGMPRRIPDYPDLFLGWNFVASFGSMMTVVSLLLFLYIIYDQLVNGLLNKVNNKSINYMKLPDFTESNNIFLLNPTKSSSIEFMLNSPPLVHSFNTPLIQS---'
p4065
sg123
F0.028920000000000001
sg124
g125
sg33
S'114'
p4066
sg127
g1
(g128
g12
(dp4067
g130
I4
sg131
g132
sg133
g134
sg135
g132
sg136
I01
sg34
g137
sg138
g134
sg139
I0
sg140
I0
sg141
I0
sg142
g134
sg35
g143
sg144
I0
stRp4068
sg146
g147
sg148
F1
sg149
Nsg30
S'AacerA'
p4069
sbag1
(g2
g3
NtRp4070
(dp4071
g6
g1
(g7
g3
NtRp4072
(dp4073
g10
g1
(g11
g12
(dtRp4074
sg14
g1
(g11
g12
(dtRp4075
sg16
g1
(g11
g12
(dtRp4076
sg18
g1
(g11
g12
(dtRp4077
sg20
g1
(g11
g12
(dtRp4078
sg22
g1
(g11
g12
(dtRp4079
sbsg24
g25
sg26
g27
((lp4080
g33
ag32
ag29
ag30
atRp4081
sg37
(lp4082
g1
(g2
g3
NtRp4083
(dp4084
g6
g1
(g7
g3
NtRp4085
(dp4086
g10
g1
(g11
g12
(dtRp4087
sg14
g1
(g11
g12
(dtRp4088
sg16
g1
(g11
g12
(dtRp4089
sg18
g1
(g11
g12
(dtRp4090
sg20
g1
(g11
g12
(dtRp4091
sg22
g1
(g11
g12
(dtRp4092
sbsg24
S'Ago'
p4093
sg26
g27
((lp4094
g29
ag30
aS'sequence'
p4095
ag32
ag33
aS'species'
p4096
atRp4097
sg37
(lp4098
sg120
g4070
sg121
S'-MYLQRWLFSTNAKDIAILYFIFSTFCGLAGTAMSFIIRMELSAPGQQYLQGQNQLFNVLVTGHLILMVFFLVMPMLIGGFGNYYLPLMIGASDMSFARLNNISFWLLPPLLICLLTSTMVESGLGTGWTVYPPLSSIQSHSGASVDLAIFSLHLTTISSLLGLINFIVTALNMRTNGMTLHKMPLFLWSILITAVMLLMSLPVLSAGVTMLLMDRNFNTSFFEVQGGGDPILYQHLFWFFGHPEVYIMIVPLFGMMSHIVSTYSKKPVFGEISMIYLMGSISLLGFLVWSHHMYVVGLDLDTRAYFTSATMIILIPTSIKVFSWLLTIYGGSLRLLTPMLYLLSFLFLFTVGGLTGVVLANLSLDVAFHDTYYVVLHFHYVLSLGAVFSMFAGYYYWSPLVLGLNYNEKLSQIQFWLIFLGLNIIFFPMHFLGINGMPRRIPDYPDLFLGWNLVSSFGSMMTIMSLMLFLYIIYDQLMNGLTNKVNNKSINYMKLPDFIESNNIFLMNTTKSSSIEFMLNSPPLIHSFNTPLIQS---'
p4099
sg123
F0.00088000000000000003
sg124
g125
sg33
S'61'
p4100
sg127
g1
(g128
g12
(dp4101
g130
I4
sg131
g132
sg133
g134
sg135
g132
sg136
I01
sg34
g137
sg138
g134
sg139
I0
sg140
I0
sg141
I0
sg142
g134
sg35
g143
sg144
I0
stRp4102
sg146
g147
sg148
F1
sg149
Nsg30
S'AgossB'
p4103
sbag1
(g2
g3
NtRp4104
(dp4105
g6
g1
(g7
g3
NtRp4106
(dp4107
g10
g1
(g11
g12
(dtRp4108
sg14
g1
(g11
g12
(dtRp4109
sg16
g1
(g11
g12
(dtRp4110
sg18
g1
(g11
g12
(dtRp4111
sg20
g1
(g11
g12
(dtRp4112
sg22
g1
(g11
g12
(dtRp4113
sbsg24
S'Ago'
p4114
sg26
g27
((lp4115
g29
ag30
aS'sequence'
p4116
ag32
ag33
aS'species'
p4117
atRp4118
sg37
(lp4119
sg120
g4070
sg121
S'-MYLQRWLFSTNAKDIAILYFIFSTFCGLAGTAMSFIIRMELSAPGQQYLQGQNQLFNVLVTGHLILMVFFLVMPMLIGGFGNYYLPLMIGASDMSFARLNNISFWLLPPLLICLLTSTMVESGLGTGWTVYPPLSSIQSHSGASVDLAIFSLHLTTISSLLGLINFIVTALNMRTNGMTLHKMPLFLWSILITAVMLLMSLPVLSAGVTMLLMDRNFNTSFFEVQGGGDPILYQHLFWFFGHPEVYIMIVPLFGMMSHIVSTYSKKPVFGEISMIYLMGSISLLGFLVWSHHMYVVGLDLDTRAYFTSATMIILIPTSIKVFSWLLTIYGGSLRLLTPMLYLLSFLFLFTVGGLTGVVLANLSLDVAFHDTYYVVLHFHYVLSLGAVFSMFAGYYYWSPLVLGLNYNEKLSQIQFWLIFLGLNIIFFPMHFLGINGMPRRIPDYPDLFLGWNLVSSFGSMMTIMSLMLFLYIIYDQLMNGLTNKVNNKSINYMKLPDFIESNNIFLMNTTKSSSIEFMLNSPPLIHSFNTPLIQS---'
p4120
sg123
F0.0023999999999999998
sg124
g125
sg33
S'60'
p4121
sg127
g1
(g128
g12
(dp4122
g130
I4
sg131
g132
sg133
g134
sg135
g132
sg136
I01
sg34
g137
sg138
g134
sg139
I0
sg140
I0
sg141
I0
sg142
g134
sg35
g143
sg144
I0
stRp4123
sg146
g147
sg148
F1
sg149
Nsg30
S'AgossA'
p4124
sbasg120
g4036
sg123
F0.075329999999999994
sg124
g125
sg33
S'55'
p4125
sg127
g1
(g128
g12
(dp4126
g130
I6
sg131
g132
sg133
g134
sg135
g132
sg136
I01
sg34
g174
sg138
g134
sg139
I0
sg140
I0
sg141
I0
sg142
g134
sg35
g175
sg144
I0
stRp4127
sg146
g147
sg148
F0.98999999999999999
sg149
Nsg30
S'NoName'
p4128
sbasg120
g3017
sg123
F0.56830999999999998
sg124
g125
sg33
S'173'
p4129
sg127
g1
(g128
g12
(dp4130
g130
I6
sg131
g132
sg133
g134
sg135
g132
sg136
I01
sg34
g174
sg138
g134
sg139
I0
sg140
I0
sg141
I0
sg142
g134
sg35
g175
sg144
I0
stRp4131
sg146
g147
sg148
F0.98999999999999999
sg149
Nsg30
S'NoName'
p4132
sbasg120
g2680
sg123
F0.14305999999999999
sg124
g125
sg33
S'113'
p4133
sg127
g1
(g128
g12
(dp4134
g130
I6
sg131
g132
sg133
g134
sg135
g132
sg136
I01
sg34
g174
sg138
g134
sg139
I0
sg140
I0
sg141
I0
sg142
g134
sg35
g175
sg144
I0
stRp4135
sg146
g147
sg148
F0.96999999999999997
sg149
Nsg30
S'NoName'
p4136
sbasg120
g2494
sg123
F0.26834000000000002
sg124
g125
sg33
S'47'
p4137
sg127
g1
(g128
g12
(dp4138
g130
I6
sg131
g132
sg133
g134
sg135
g132
sg136
I01
sg34
g174
sg138
g134
sg139
I0
sg140
I0
sg141
I0
sg142
g134
sg35
g175
sg144
I0
stRp4139
sg146
g147
sg148
F0.97999999999999998
sg149
Nsg30
S'NoName'
p4140
sbasg120
g679
sg123
F0.062890000000000001
sg124
g125
sg33
S'164'
p4141
sg127
g1
(g128
g12
(dp4142
g130
I6
sg131
g132
sg133
g134
sg135
g132
sg136
I01
sg34
g174
sg138
g134
sg139
I0
sg140
I0
sg141
I0
sg142
g134
sg35
g175
sg144
I0
stRp4143
sg146
g147
sg148
F0.67000000000000004
sg149
Nsg30
S'NoName'
p4144
sbasg120
g266
sg123
F0.52025999999999994
sg124
g125
sg33
S'57'
p4145
sg127
g1
(g128
g12
(dp4146
g130
I6
sg131
g132
sg133
g134
sg135
g132
sg136
I01
sg34
g174
sg138
g134
sg139
I0
sg140
I0
sg141
I0
sg142
g134
sg35
g175
sg144
I0
stRp4147
sg146
g147
sg148
F0.97999999999999998
sg149
Nsg30
S'NoName'
p4148
sbasg120
g52
sg123
F0.11274000000000001
sg124
g125
sg33
S'192'
p4149
sg127
g1
(g128
g12
(dp4150
g130
I6
sg131
g132
sg133
g134
sg135
g132
sg136
I01
sg34
g174
sg138
g134
sg139
I0
sg140
I0
sg141
I0
sg142
g134
sg35
g175
sg144
I0
stRp4151
sg146
g147
sg148
F0.88
sg149
Nsg30
S'NoName'
p4152
sbasg120
g39
sg123
F0.33485999999999999
sg124
g125
sg33
S'98'
p4153
sg127
g1
(g128
g12
(dp4154
g130
I6
sg131
g132
sg133
g134
sg135
g132
sg136
I01
sg34
g174
sg138
g134
sg139
I0
sg140
I0
sg141
I0
sg142
g134
sg35
g175
sg144
I0
stRp4155
sg146
g147
sg148
F0.95999999999999996
sg149
Nsg30
S'NoName'
p4156
sbag1
(g2
g3
NtRp4157
(dp4158
g6
g1
(g7
g3
NtRp4159
(dp4160
g10
g1
(g11
g12
(dtRp4161
sg14
g1
(g11
g12
(dtRp4162
sg16
g1
(g11
g12
(dtRp4163
sg18
g1
(g11
g12
(dtRp4164
sg20
g1
(g11
g12
(dtRp4165
sg22
g1
(g11
g12
(dtRp4166
sbsg24
S'Lst'
p4167
sg26
g27
((lp4168
g29
ag30
aS'sequence'
p4169
ag32
ag33
aS'species'
p4170
atRp4171
sg37
(lp4172
sg120
g39
sg121
S'SPKLVRWLFSTNAKDIAVLYFIFALFSGMIGTTFSVIMRMELAAPGPQYLNGNNHFFNVLVTGHAFLMIFFMVMPALIGGFGNYMLPILIGAPDMAFPRLNNISFWLLPPSLILLVASTFAEGGAGTGWTVYPPLSGIQAHSGASVDLAIFSLHLSGMSSMLGAMNFMATVMNMRSDGMTYHKMPLFAWAVTITAVLLLLSLPVLAGAITMLLTDRNFNTSFYEYAGGGDPMLYQHLFWFFGHPEVYILIIPGFGMISHIMCTYAEKPIFGYIGMVYAMMSMGLLGFIVWSHHMFAVGLDVETRAYFTAATMMIAVPTGMKIFSWLATLYGGKMTFSTPMVFAFGFLFLFTVGGLTGVVLANASLDLAFHDTYYVVAHFHYVLSMGAVFALFAGYYYWSPKILGLNYKEVYGKVHFWLLFIGVNATFFPMHFLGLQGMPRRIPDYPDAYAGWNYVSSIGSMISVVATIVFIITLYDQLVNGLTKN------SDHHYPQFLATKGVYMAAQVSTHSIEWVTTSPPHSHTFTTKPKQS---'
p4173
sg123
F1.13117
sg124
g125
sg33
S'121'
p4174
sg127
g1
(g128
g12
(dp4175
g130
I4
sg131
g132
sg133
g134
sg135
g132
sg136
I01
sg34
g137
sg138
g134
sg139
I0
sg140
I0
sg141
I0
sg142
g134
sg35
g143
sg144
I0
stRp4176
sg146
g147
sg148
F1
sg149
Nsg30
S'LstarA'
p4177
sbasg120
g4
sg123
F0.46844999999999998
sg124
g125
sg33
S'128'
p4178
sg127
g1
(g128
g12
(dp4179
g130
I6
sg131
g132
sg133
g134
sg135
g132
sg136
I01
sg34
g174
sg138
g134
sg139
I0
sg140
I0
sg141
I0
sg142
g134
sg35
g175
sg144
I0
stRp4180
sg146
g147
sg148
F1
sg149
Nsg30
S'NoName'
p4181
sbag1
(g2
g3
NtRp4182
(dp4183
g6
g1
(g7
g3
NtRp4184
(dp4185
g10
g1
(g11
g12
(dtRp4186
sg14
g1
(g11
g12
(dtRp4187
sg16
g1
(g11
g12
(dtRp4188
sg18
g1
(g11
g12
(dtRp4189
sg20
g1
(g11
g12
(dtRp4190
sg22
g1
(g11
g12
(dtRp4191
sbsg24
g25
sg26
g27
((lp4192
g33
ag32
ag29
ag30
atRp4193
sg37
(lp4194
g1
(g2
g3
NtRp4195
(dp4196
g6
g1
(g7
g3
NtRp4197
(dp4198
g10
g1
(g11
g12
(dtRp4199
sg14
g1
(g11
g12
(dtRp4200
sg16
g1
(g11
g12
(dtRp4201
sg18
g1
(g11
g12
(dtRp4202
sg20
g1
(g11
g12
(dtRp4203
sg22
g1
(g11
g12
(dtRp4204
sbsg24
S'Sja'
p4205
sg26
g27
((lp4206
g29
ag30
aS'sequence'
p4207
ag32
ag33
aS'species'
p4208
atRp4209
sg37
(lp4210
sg120
g4182
sg121
S'---MKRWLFSTSAKDMAILYLIFSLMSGLLGSAFSLIMRLELSAPGSQYLMNNNQLYNVAISSHGVLMMFFFILPGLFGAFGNYLVPLLMGTPDVAYPRMNNLSFWLLPPALVLLLISALCEDGPGVGWTMYYPLSGMSSHSGLSVDLLIMSLQLTGISSTLGSINLITTMINMRAPGLTLHKMPLFCWSILTTSILLVLTLPVLSGGLIMLLSDRNWNTSFFAPEAGGDPVLYQHLFWFFGHPEVYILILPAFGVVSHVISTFAHKPIFGKIGMIYAMLSIALLGCMVWSHHLYTVGLDSDTRAYFTAATMVIAMPTGIKMFSWLATLSGGSIEWSVPMLYVLGFLILFTMGGLTGVVLSNSVLDIAFHDTYFVVAHFHYVLSMGALMGLLAAYYFWSPKMFGLNYNETMASIQFWLLFIGVNLVFGPQHFLGLNNYPRRMPDYPDAFAGWNYISSMGSMITMISLILFIYILYDQFTSN-----RVVVNNPWILPNFFDSNPLFLFKADTADSIEWLLTSPAPHHSFHNLPAMS---'
p4211
sg123
F1.0686599999999999
sg124
g125
sg33
S'109'
p4212
sg127
g1
(g128
g12
(dp4213
g130
I4
sg131
g132
sg133
g134
sg135
g132
sg136
I01
sg34
g137
sg138
g134
sg139
I0
sg140
I0
sg141
I0
sg142
g134
sg35
g143
sg144
I0
stRp4214
sg146
g147
sg148
F1
sg149
Nsg30
S'SjapoA'
p4215
sbag1
(g2
g3
NtRp4216
(dp4217
g6
g1
(g7
g3
NtRp4218
(dp4219
g10
g1
(g11
g12
(dtRp4220
sg14
g1
(g11
g12
(dtRp4221
sg16
g1
(g11
g12
(dtRp4222
sg18
g1
(g11
g12
(dtRp4223
sg20
g1
(g11
g12
(dtRp4224
sg22
g1
(g11
g12
(dtRp4225
sbsg24
g25
sg26
g27
((lp4226
g33
ag32
ag29
ag30
atRp4227
sg37
(lp4228
g1
(g2
g3
NtRp4229
(dp4230
g6
g1
(g7
g3
NtRp4231
(dp4232
g10
g1
(g11
g12
(dtRp4233
sg14
g1
(g11
g12
(dtRp4234
sg16
g1
(g11
g12
(dtRp4235
sg18
g1
(g11
g12
(dtRp4236
sg20
g1
(g11
g12
(dtRp4237
sg22
g1
(g11
g12
(dtRp4238
sbsg24
S'Spo'
p4239
sg26
g27
((lp4240
g29
ag30
aS'sequence'
p4241
ag32
ag33
aS'species'
p4242
atRp4243
sg37
(lp4244
sg120
g4216
sg121
S'WTYVNRWMFSTNAKDIAMLYLLFGLVSGMIGSVFSFMIRMELSAPGSQFLSGNGQLYNVAISAHGMLMIFFFIIPALFGAFGNYLVPLMMGAPDVAYPRVNNFTFWLLPPALMLLLISALTEEGPGGGWTVYPPLSSITSHSGPAIDLAILSLQLTGISSTLGSVNLMATMINMRAPGLSLYQMPLFAWAMMITSILLLLTLPVLAGGLFMLFSDRNLNTSFYAPEGGGDPVLYQHLFWFFGHPEVYILIMPAFGVVSHIIPSLAHKPIFGKEGMLWAMLSIALLGLMVWSHHLFTVGLDVDTRAYFSAATMVIAIPTGIKIFSWLATLTGGAMQWSVPMLYAIGFLILFTIGGLTGVMLSNSVLDIAFHDTYFVVAHFHYVLSMGALFGLCGAYY-WSPKMFGLMYNETLASIQFWILFMGVNIVFGPQHFLGLNGMPRRMPDYPEAFVGWNFVSSIGSVISILSLFLFMYVMYDQFTSN-----RVVKTNPYLIPSYFDDNVIFVEKLGVAQSMEWLLHSPVHEHAFNTLPTKSI--'
p4245
sg123
F0.12372
sg124
g125
sg33
S'213'
p4246
sg127
g1
(g128
g12
(dp4247
g130
I4
sg131
g132
sg133
g134
sg135
g132
sg136
I01
sg34
g137
sg138
g134
sg139
I0
sg140
I0
sg141
I0
sg142
g134
sg35
g143
sg144
I0
stRp4248
sg146
g147
sg148
F1
sg149
Nsg30
S'SpombA'
p4249
sbag1
(g2
g3
NtRp4250
(dp4251
g6
g1
(g7
g3
NtRp4252
(dp4253
g10
g1
(g11
g12
(dtRp4254
sg14
g1
(g11
g12
(dtRp4255
sg16
g1
(g11
g12
(dtRp4256
sg18
g1
(g11
g12
(dtRp4257
sg20
g1
(g11
g12
(dtRp4258
sg22
g1
(g11
g12
(dtRp4259
sbsg24
g25
sg26
g27
((lp4260
g33
ag32
ag29
ag30
atRp4261
sg37
(lp4262
g1
(g2
g3
NtRp4263
(dp4264
g6
g1
(g7
g3
NtRp4265
(dp4266
g10
g1
(g11
g12
(dtRp4267
sg14
g1
(g11
g12
(dtRp4268
sg16
g1
(g11
g12
(dtRp4269
sg18
g1
(g11
g12
(dtRp4270
sg20
g1
(g11
g12
(dtRp4271
sg22
g1
(g11
g12
(dtRp4272
sbsg24
S'Soc'
p4273
sg26
g27
((lp4274
g29
ag30
aS'sequence'
p4275
ag32
ag33
aS'species'
p4276
atRp4277
sg37
(lp4278
sg120
g4250
sg121
S'FSYVNRWLFSTNAKDIAILYLFFGLISGMLGAVFSFIIRMELSGPGSQFLAGNNQLYNVAITSHGVLMIFFFIIPALFGAFGNYLVPLMIGAPDVAYPRVNNFTFWLLPPALILMLLSTLSEEGPGTGWTVYPPLSTITSHSGPAVDLALLSLQLTGISSTLGSLNLIVTMLNMRTPGMSLYQMPLFAWSIMITSILLLLTLPVLAGGLFMLFTDRNLNTSFYAPEGGGDPVLYQHLFWFFGHPEVYILIMPAFGVVSHIISTLSNKPIFGREGMICAMASIAILGLMVWSHHLFTVGLDVDTRAYFSAATMIIAIPTGIKIFSWLATLTGGSVQWSVPMLYALGFLILFTIGGLTGVILSNSVLDIAFHDTYFVVAHFHYVLSMGALFGLCGAYYFWSPKMFGLMYNETLASIQFWTLFIGVNVVFGPQHFLGLNGMPRRIPDYPDAFIGWNFVSSVGSAVSIISLFLFLYVIYDQYTSN-----RVVTTNPYLIPSYFDDNVVFVEKLGVADSIEWLLHSPVHEHAFNSLPIKSV--'
p4279
sg123
F0.03637
sg124
g125
sg33
S'186'
p4280
sg127
g1
(g128
g12
(dp4281
g130
I4
sg131
g132
sg133
g134
sg135
g132
sg136
I01
sg34
g137
sg138
g134
sg139
I0
sg140
I0
sg141
I0
sg142
g134
sg35
g143
sg144
I0
stRp4282
sg146
g147
sg148
F1
sg149
Nsg30
S'SoctoA'
p4283
sbag1
(g2
g3
NtRp4284
(dp4285
g6
g1
(g7
g3
NtRp4286
(dp4287
g10
g1
(g11
g12
(dtRp4288
sg14
g1
(g11
g12
(dtRp4289
sg16
g1
(g11
g12
(dtRp4290
sg18
g1
(g11
g12
(dtRp4291
sg20
g1
(g11
g12
(dtRp4292
sg22
g1
(g11
g12
(dtRp4293
sbsg24
S'Scr'
p4294
sg26
g27
((lp4295
g29
ag30
aS'sequence'
p4296
ag32
ag33
aS'species'
p4297
atRp4298
sg37
(lp4299
sg120
g4250
sg121
S'YSYVNRWLFSTNAKDIAILYLFFGLISGMLGAVFSFIIRMELSGPGSQFLAGNNQLYNVAITSHGVLMIFFFIIPALFGAFGNYLVPLMIGAPDVAYPRVNNFTYWLLPPALVLMLLSTLSEEGPGTGWTVYPPLSSITSHSGPSVDLALLSLQLTGISSTLGSLNLIVTMLNMRTPGLSLYQMPLFAWSIMITSILLLLTLPVLAGGLFMLFTDRNLNTSFYAPEGGGDPVLYQHLFWFFGHPEVYILIMPAFGVVSHIIPTLSNKPIFGKEGMICAMASIAILGLMVWSHHLFTVGLDVDTRAYFSAATMIIAIPTGIKIFSWLATLTGGSVQWSVPMLYALGFLILFTIGGLTGVILSNSVLDIAFHDTYFVVAHFHYVLSMGALFGLCGAYYFWSPKMFGLMYNETLASIQFWTLFIGVNVVFGPQHFLGLNGMPRRIPDYPDAFVGWNFVSSIGSAISIISLFLFLYIIYDQYTSN-----RVVSTNPYLVPSYFDDNVVFVEKLGVADSIEWLLHSPVHEHAFNSLPIKSV--'
p4300
sg123
F0.036740000000000002
sg124
g125
sg33
S'73'
p4301
sg127
g1
(g128
g12
(dp4302
g130
I4
sg131
g132
sg133
g134
sg135
g132
sg136
I01
sg34
g137
sg138
g134
sg139
I0
sg140
I0
sg141
I0
sg142
g134
sg35
g143
sg144
I0
stRp4303
sg146
g147
sg148
F1
sg149
Nsg30
S'ScryoA'
p4304
sbasg120
g4216
sg123
F0.18453
sg124
g125
sg33
S'41'
p4305
sg127
g1
(g128
g12
(dp4306
g130
I6
sg131
g132
sg133
g134
sg135
g132
sg136
I01
sg34
g174
sg138
g134
sg139
I0
sg140
I0
sg141
I0
sg142
g134
sg35
g175
sg144
I0
stRp4307
sg146
g147
sg148
F0.98999999999999999
sg149
Nsg30
S'NoName'
p4308
sbasg120
g4182
sg123
F0.73307
sg124
g125
sg33
S'96'
p4309
sg127
g1
(g128
g12
(dp4310
g130
I6
sg131
g132
sg133
g134
sg135
g132
sg136
I01
sg34
g174
sg138
g134
sg139
I0
sg140
I0
sg141
I0
sg142
g134
sg35
g175
sg144
I0
stRp4311
sg146
g147
sg148
F0.98999999999999999
sg149
Nsg30
S'NoName'
p4312
sbasg120
g4
sg123
F1.7741899999999999
sg124
g125
sg33
S'31'
p4313
sg127
g1
(g128
g12
(dp4314
g130
I6
sg131
g132
sg133
g134
sg135
g132
sg136
I01
sg34
g174
sg138
g134
sg139
I0
sg140
I0
sg141
I0
sg142
g134
sg35
g175
sg144
I0
stRp4315
sg146
g147
sg148
F1
sg149
Nsg30
S'NoName'
p4316
sbasg31
S'8'
sg120
Nsg123
F0
sg124
g125
sg33
S'120'
p4317
sg34
S'sphere'
p4318
sg127
g1
(g128
g12
(dp4319
g130
I6
sg131
g132
sg133
g134
sg135
g132
sg136
I01
sg34
g174
sg138
g134
sg139
I0
sg140
I0
sg141
I0
sg142
g134
sg35
g175
sg144
I0
stRp4320
sg146
g147
sg148
F1
sg149
Nsg35
S'#833DB4'
p4321
sg30
g125
sb.