ccopy_reg
_reconstructor
p1
(cete2.phylo.phylotree
PhyloNode
p2
c__builtin__
object
p3
NtRp4
(dp5
S'_faces'
p6
g1
(cete2.treeview.main
_FaceAreas
p7
g3
NtRp8
(dp9
S'branch-top'
p10
g1
(cete2.treeview.main
FaceContainer
p11
c__builtin__
dict
p12
(dtRp13
sS'float'
p14
g1
(g11
g12
(dtRp15
sS'branch-bottom'
p16
g1
(g11
g12
(dtRp17
sS'aligned'
p18
g1
(g11
g12
(dtRp19
sS'branch-right'
p20
g1
(g11
g12
(dtRp21
sS'float-behind'
p22
g1
(g11
g12
(dtRp23
sbsS'_species'
p24
S'Unknown'
p25
sS'features'
p26
c__builtin__
set
p27
((lp28
S'dist'
p29
aS'name'
p30
aS'bsize'
p31
aS'support'
p32
aS'_nid'
p33
aS'shape'
p34
aS'fgcolor'
p35
atRp36
sS'_children'
p37
(lp38
g1
(g2
g3
NtRp39
(dp40
g6
g1
(g7
g3
NtRp41
(dp42
g10
g1
(g11
g12
(dtRp43
sg14
g1
(g11
g12
(dtRp44
sg16
g1
(g11
g12
(dtRp45
sg18
g1
(g11
g12
(dtRp46
sg20
g1
(g11
g12
(dtRp47
sg22
g1
(g11
g12
(dtRp48
sbsg24
g25
sg26
g27
((lp49
g33
ag32
ag29
ag30
atRp50
sg37
(lp51
g1
(g2
g3
NtRp52
(dp53
g6
g1
(g7
g3
NtRp54
(dp55
g10
g1
(g11
g12
(dtRp56
sg14
g1
(g11
g12
(dtRp57
sg16
g1
(g11
g12
(dtRp58
sg18
g1
(g11
g12
(dtRp59
sg20
g1
(g11
g12
(dtRp60
sg22
g1
(g11
g12
(dtRp61
sbsg24
g25
sg26
g27
((lp62
g33
ag32
ag29
ag30
atRp63
sg37
(lp64
g1
(g2
g3
NtRp65
(dp66
g6
g1
(g7
g3
NtRp67
(dp68
g10
g1
(g11
g12
(dtRp69
sg14
g1
(g11
g12
(dtRp70
sg16
g1
(g11
g12
(dtRp71
sg18
g1
(g11
g12
(dtRp72
sg20
g1
(g11
g12
(dtRp73
sg22
g1
(g11
g12
(dtRp74
sbsg24
g25
sg26
g27
((lp75
g33
ag32
ag29
ag30
atRp76
sg37
(lp77
g1
(g2
g3
NtRp78
(dp79
g6
g1
(g7
g3
NtRp80
(dp81
g10
g1
(g11
g12
(dtRp82
sg14
g1
(g11
g12
(dtRp83
sg16
g1
(g11
g12
(dtRp84
sg18
g1
(g11
g12
(dtRp85
sg20
g1
(g11
g12
(dtRp86
sg22
g1
(g11
g12
(dtRp87
sbsg24
g25
sg26
g27
((lp88
g33
ag32
ag29
ag30
atRp89
sg37
(lp90
g1
(g2
g3
NtRp91
(dp92
g6
g1
(g7
g3
NtRp93
(dp94
g10
g1
(g11
g12
(dtRp95
sg14
g1
(g11
g12
(dtRp96
sg16
g1
(g11
g12
(dtRp97
sg18
g1
(g11
g12
(dtRp98
sg20
g1
(g11
g12
(dtRp99
sg22
g1
(g11
g12
(dtRp100
sbsg24
g25
sg26
g27
((lp101
g33
ag32
ag29
ag30
atRp102
sg37
(lp103
g1
(g2
g3
NtRp104
(dp105
g6
g1
(g7
g3
NtRp106
(dp107
g10
g1
(g11
g12
(dtRp108
sg14
g1
(g11
g12
(dtRp109
sg16
g1
(g11
g12
(dtRp110
sg18
g1
(g11
g12
(dtRp111
sg20
g1
(g11
g12
(dtRp112
sg22
g1
(g11
g12
(dtRp113
sbsg24
S'Yli'
p114
sg26
g27
((lp115
g29
ag30
aS'sequence'
p116
ag32
ag33
aS'species'
p117
atRp118
sg37
(lp119
sS'_up'
p120
g91
sS'sequence'
p121
S'RWLSTKDLYSRLELTGLNQNVHAMFVMPLGFGNPMGDMFARLNNSFWLVPLSLEGAGTGWTVYFPLAHSGPAVDLAFHLSSSLLGAINFTNMRGPLFWTALLLLSLPVLAGTGIDRNFNTFEGGDALYHLFWFFGHPEVYIIPGFGSHSAISKFGMYASIGLGFVWSHHMFVGLDDRAYFTSATMIAPTSIKFSWLATYGGRTALAFIFLFTGGTGVLNSADPFHDSYYVVHFHYVLSMGAFSIGWYLWPGLYNLFWFNFPMHFLGGMPRRNYPDAGWNSGSAYQLGPSGTNEPH'
p122
sS'_dist'
p123
F0.00011
sS'_name'
p124
S'NoName'
p125
sg33
S'71'
p126
sS'_img_style'
p127
g1
(cete2.treeview.main
NodeStyle
p128
g12
(dp129
S'size'
p130
I4
sS'hz_line_color'
p131
S'#000000'
p132
sS'faces_bgcolor'
p133
S'#FFFFFF'
p134
sS'vt_line_color'
p135
g132
sS'draw_descendants'
p136
I01
sg34
S'square'
p137
sS'bgcolor'
p138
g134
sS'hz_line_type'
p139
I0
sS'vt_line_width'
p140
I0
sS'vt_line_type'
p141
I0
sS'node_bgcolor'
p142
g134
sg35
S'#000000'
p143
sS'hz_line_width'
p144
I0
stRp145
sS'_speciesFunction'
p146
cete2.phylo.phylotree
_parse_species
p147
sS'_support'
p148
F1
sS'_temp_faces'
p149
Nsg30
S'YlipoB'
p150
sbag1
(g2
g3
NtRp151
(dp152
g6
g1
(g7
g3
NtRp153
(dp154
g10
g1
(g11
g12
(dtRp155
sg14
g1
(g11
g12
(dtRp156
sg16
g1
(g11
g12
(dtRp157
sg18
g1
(g11
g12
(dtRp158
sg20
g1
(g11
g12
(dtRp159
sg22
g1
(g11
g12
(dtRp160
sbsg24
S'Yli'
p161
sg26
g27
((lp162
g29
ag30
aS'sequence'
p163
ag32
ag33
aS'species'
p164
atRp165
sg37
(lp166
sg120
g91
sg121
S'RWLSTKDLYSRLELTGLNQNVHAMFVMPLGFGNPMGDMFARLNNSFWLVPLSLEGAGTGWTVYFPLAHSGPAVDLAFHLSSSLLGAINFTNMRGPLFWTALLLLSLPVLAGTGIDRNFNTFEGGDALYHLFWFFGHPEVYIIPGFGSHSAISKFGMYASIGLGFVWSHHMFVGLDDRAYFTSATMIAPTSIKFSWLATYGGRTALAFIFLFTGGTGVLNSADPFHDSYYVVHFHYVLSMGAFSIGWYLWPGLYNLFWFNFPMHFLGGMPRRNYPDAGWNSGSAYQLGPSGTNEPH'
p167
sg123
F0.00048000000000000001
sg124
g125
sg33
S'73'
p168
sg127
g1
(g128
g12
(dp169
g130
I4
sg131
g132
sg133
g134
sg135
g132
sg136
I01
sg34
g137
sg138
g134
sg139
I0
sg140
I0
sg141
I0
sg142
g134
sg35
g143
sg144
I0
stRp170
sg146
g147
sg148
F1
sg149
Nsg30
S'YlipoA'
p171
sbasg120
g78
sg123
F0.02656
sg124
g125
sg33
S'68'
p172
sg127
g1
(g128
g12
(dp173
g130
I6
sg131
g132
sg133
g134
sg135
g132
sg136
I01
sg34
S'circle'
p174
sg138
g134
sg139
I0
sg140
I0
sg141
I0
sg142
g134
sg35
S'#0030c1'
p175
sg144
I0
stRp176
sg146
g147
sg148
F1
sg149
Nsg30
S'NoName'
p177
sbag1
(g2
g3
NtRp178
(dp179
g6
g1
(g7
g3
NtRp180
(dp181
g10
g1
(g11
g12
(dtRp182
sg14
g1
(g11
g12
(dtRp183
sg16
g1
(g11
g12
(dtRp184
sg18
g1
(g11
g12
(dtRp185
sg20
g1
(g11
g12
(dtRp186
sg22
g1
(g11
g12
(dtRp187
sbsg24
g25
sg26
g27
((lp188
g33
ag32
ag29
ag30
atRp189
sg37
(lp190
g1
(g2
g3
NtRp191
(dp192
g6
g1
(g7
g3
NtRp193
(dp194
g10
g1
(g11
g12
(dtRp195
sg14
g1
(g11
g12
(dtRp196
sg16
g1
(g11
g12
(dtRp197
sg18
g1
(g11
g12
(dtRp198
sg20
g1
(g11
g12
(dtRp199
sg22
g1
(g11
g12
(dtRp200
sbsg24
S'Cga'
p201
sg26
g27
((lp202
g29
ag30
aS'sequence'
p203
ag32
ag33
aS'species'
p204
atRp205
sg37
(lp206
sg120
g178
sg121
S'RWLSTKDLYSRLELTGLNQNVHAMFVMPLGFGNPMGDMFARLNNSFWLVPLSLEGAGTGWTVYFPLAHSGPAVDLAFHLSSSLLGAINFTNMRGPLFWTALLLLSLPVLAGTGIDRNFNTFEGGDALYHLFWFFGHPEVYIIPGFGSHSAISKFGMYASIGLGFVWSHHMFVGLDDRAYFTSATMIAPTSIKFSWLSTYGGRTALAFIFLFTGGTGVLNSADPFHDSYYVVHFHYVLSMGAFSIGWYLWPGLYNLFWFNFPMHFLGGMPRRNYPDAGWNSGSAYQLGPSGTNEPH'
p207
sg123
F0.016299999999999999
sg124
g125
sg33
S'77'
p208
sg127
g1
(g128
g12
(dp209
g130
I4
sg131
g132
sg133
g134
sg135
g132
sg136
I01
sg34
g137
sg138
g134
sg139
I0
sg140
I0
sg141
I0
sg142
g134
sg35
g143
sg144
I0
stRp210
sg146
g147
sg148
F1
sg149
Nsg30
S'CgallA'
p211
sbag1
(g2
g3
NtRp212
(dp213
g6
g1
(g7
g3
NtRp214
(dp215
g10
g1
(g11
g12
(dtRp216
sg14
g1
(g11
g12
(dtRp217
sg16
g1
(g11
g12
(dtRp218
sg18
g1
(g11
g12
(dtRp219
sg20
g1
(g11
g12
(dtRp220
sg22
g1
(g11
g12
(dtRp221
sbsg24
S'Cde'
p222
sg26
g27
((lp223
g29
ag30
aS'sequence'
p224
ag32
ag33
aS'species'
p225
atRp226
sg37
(lp227
sg120
g178
sg121
S'RWLSTKDLYSRLELTGLNQNVHAMFVMPLGFGNPMGDMFARLNNSFWLVPLSLEGAGTGWTVYFPLAHSGPAVDLAFHLSSSLLGAINFTNMRGPLFWTALLLLSLPVLAGTGIDRNFNTFEGGDALYHLFFFNGHPEVYIIPGFGSHSAISKFGMYASIGLGFVWSHHMFVGLDDRAYFTSATMIAPTSIKFSWLATYGGRTALAFIFLFTGGTGVLNSADPFHDSYYVVHFHYVLSMGAFSIGWYLWPGLYNLFWFNFPMHFLGGMPRRNYPDAGWNSGSAYQLGPSGTNEPH'
p228
sg123
F0.018610000000000002
sg124
g125
sg33
S'80'
p229
sg127
g1
(g128
g12
(dp230
g130
I4
sg131
g132
sg133
g134
sg135
g132
sg136
I01
sg34
g137
sg138
g134
sg139
I0
sg140
I0
sg141
I0
sg142
g134
sg35
g143
sg144
I0
stRp231
sg146
g147
sg148
F1
sg149
Nsg30
S'CdefoA'
p232
sbasg120
g78
sg123
F0.00282
sg124
g125
sg33
S'209'
p233
sg127
g1
(g128
g12
(dp234
g130
I6
sg131
g132
sg133
g134
sg135
g132
sg136
I01
sg34
g174
sg138
g134
sg139
I0
sg140
I0
sg141
I0
sg142
g134
sg35
g175
sg144
I0
stRp235
sg146
g147
sg148
F0.96999999999999997
sg149
Nsg30
S'NoName'
p236
sbasg120
g65
sg123
F0.00479
sg124
g125
sg33
S'188'
p237
sg127
g1
(g128
g12
(dp238
g130
I6
sg131
g132
sg133
g134
sg135
g132
sg136
I01
sg34
g174
sg138
g134
sg139
I0
sg140
I0
sg141
I0
sg142
g134
sg35
g175
sg144
I0
stRp239
sg146
g147
sg148
F0.80000000000000004
sg149
Nsg30
S'NoName'
p240
sbag1
(g2
g3
NtRp241
(dp242
g6
g1
(g7
g3
NtRp243
(dp244
g10
g1
(g11
g12
(dtRp245
sg14
g1
(g11
g12
(dtRp246
sg16
g1
(g11
g12
(dtRp247
sg18
g1
(g11
g12
(dtRp248
sg20
g1
(g11
g12
(dtRp249
sg22
g1
(g11
g12
(dtRp250
sbsg24
S'Cal'
p251
sg26
g27
((lp252
g29
ag30
aS'sequence'
p253
ag32
ag33
aS'species'
p254
atRp255
sg37
(lp256
sg120
g65
sg121
S'RWLSTKDLYSRLELTGLNQNVHAMFVMPLGFGNPMGDMFARLNNSFWLVPMSLEGAGTGWTVYFPLAHSGPAVDLAFHLASSLLGAINFTNMRGPLFWTALLLLSLPVLAGTGIDRNFNTFEGGDALYHLFWFFGHPEVYIIPGFGSHSAISKFGMYASIGLGFVWSHHMFVGLDDRAYFTSATMIAPTSIKFSWLATYGGRTALAFIFLFTGGTGVLNSADPFHDSYYVVHFHYVLSMGAFSIGWYLWPGLYNLFWFNFPMHFLGGMPRRNYPDAGWNSGSAYQLGPSGTNEPH'
p257
sg123
F0.035970000000000002
sg124
g125
sg33
S'81'
p258
sg127
g1
(g128
g12
(dp259
g130
I4
sg131
g132
sg133
g134
sg135
g132
sg136
I01
sg34
g137
sg138
g134
sg139
I0
sg140
I0
sg141
I0
sg142
g134
sg35
g143
sg144
I0
stRp260
sg146
g147
sg148
F1
sg149
Nsg30
S'CalimA'
p261
sbasg120
g52
sg123
F1.1444799999999999
sg124
g125
sg33
S'178'
p262
sg127
g1
(g128
g12
(dp263
g130
I6
sg131
g132
sg133
g134
sg135
g132
sg136
I01
sg34
g174
sg138
g134
sg139
I0
sg140
I0
sg141
I0
sg142
g134
sg35
g175
sg144
I0
stRp264
sg146
g147
sg148
F0.97999999999999998
sg149
Nsg30
S'NoName'
p265
sbag1
(g2
g3
NtRp266
(dp267
g6
g1
(g7
g3
NtRp268
(dp269
g10
g1
(g11
g12
(dtRp270
sg14
g1
(g11
g12
(dtRp271
sg16
g1
(g11
g12
(dtRp272
sg18
g1
(g11
g12
(dtRp273
sg20
g1
(g11
g12
(dtRp274
sg22
g1
(g11
g12
(dtRp275
sbsg24
g25
sg26
g27
((lp276
g33
ag32
ag29
ag30
atRp277
sg37
(lp278
g1
(g2
g3
NtRp279
(dp280
g6
g1
(g7
g3
NtRp281
(dp282
g10
g1
(g11
g12
(dtRp283
sg14
g1
(g11
g12
(dtRp284
sg16
g1
(g11
g12
(dtRp285
sg18
g1
(g11
g12
(dtRp286
sg20
g1
(g11
g12
(dtRp287
sg22
g1
(g11
g12
(dtRp288
sbsg24
g25
sg26
g27
((lp289
g33
ag32
ag29
ag30
atRp290
sg37
(lp291
g1
(g2
g3
NtRp292
(dp293
g6
g1
(g7
g3
NtRp294
(dp295
g10
g1
(g11
g12
(dtRp296
sg14
g1
(g11
g12
(dtRp297
sg16
g1
(g11
g12
(dtRp298
sg18
g1
(g11
g12
(dtRp299
sg20
g1
(g11
g12
(dtRp300
sg22
g1
(g11
g12
(dtRp301
sbsg24
g25
sg26
g27
((lp302
g33
ag32
ag29
ag30
atRp303
sg37
(lp304
g1
(g2
g3
NtRp305
(dp306
g6
g1
(g7
g3
NtRp307
(dp308
g10
g1
(g11
g12
(dtRp309
sg14
g1
(g11
g12
(dtRp310
sg16
g1
(g11
g12
(dtRp311
sg18
g1
(g11
g12
(dtRp312
sg20
g1
(g11
g12
(dtRp313
sg22
g1
(g11
g12
(dtRp314
sbsg24
g25
sg26
g27
((lp315
g33
ag32
ag29
ag30
atRp316
sg37
(lp317
g1
(g2
g3
NtRp318
(dp319
g6
g1
(g7
g3
NtRp320
(dp321
g10
g1
(g11
g12
(dtRp322
sg14
g1
(g11
g12
(dtRp323
sg16
g1
(g11
g12
(dtRp324
sg18
g1
(g11
g12
(dtRp325
sg20
g1
(g11
g12
(dtRp326
sg22
g1
(g11
g12
(dtRp327
sbsg24
S'Mst'
p328
sg26
g27
((lp329
g29
ag30
aS'sequence'
p330
ag32
ag33
aS'species'
p331
atRp332
sg37
(lp333
sg120
g305
sg121
S'RWLSTKDLYSRLELPTLNQNVHAMFVMPSGFGNPMGDMLARLNNSFWLVPVSLEGAGTGWTVYPPLSHSGASVDLVFHMSSSLLGAINFTNMRGTLFWTALLLLSLPVLSGTLLDRNFNTFEGGDPLYHLFWFFGHPEVYIIPGFGSHSTYKKFGMYASMGLGFVWSHHMYVGLDDRAYFTSATMMAPTGVKFSWLATYGGRPFLAFMFLFTGGTGVLNASDAFHDTYYVVHFHYVLSLGAFSLGYYFWPGLYNLFMFNFPLHFLGGMPRRPYPDAGWNSGSSYQLGPDESNEPH'
p334
sg123
F0.087190000000000004
sg124
g125
sg33
S'100'
p335
sg127
g1
(g128
g12
(dp336
g130
I4
sg131
g132
sg133
g134
sg135
g132
sg136
I01
sg34
g137
sg138
g134
sg139
I0
sg140
I0
sg141
I0
sg142
g134
sg35
g143
sg144
I0
stRp337
sg146
g147
sg148
F1
sg149
Nsg30
S'MstarA'
p338
sbag1
(g2
g3
NtRp339
(dp340
g6
g1
(g7
g3
NtRp341
(dp342
g10
g1
(g11
g12
(dtRp343
sg14
g1
(g11
g12
(dtRp344
sg16
g1
(g11
g12
(dtRp345
sg18
g1
(g11
g12
(dtRp346
sg20
g1
(g11
g12
(dtRp347
sg22
g1
(g11
g12
(dtRp348
sbsg24
S'Min'
p349
sg26
g27
((lp350
g29
ag30
aS'sequence'
p351
ag32
ag33
aS'species'
p352
atRp353
sg37
(lp354
sg120
g305
sg121
S'RWLSTKDLYSRLELPTLNQNVHAMFVMPAGFGNPMGDMLARLNNSFWLVPVSLEGAGTGWTVYPPLSHSGPSVDLVFHISSSLLGSMNFTNMRGTLFWTSLLLLSLPVLSGTLLDRNFNTFEGGDPLYHLFYKMMLFSMYMMPGFGSHSAYKKFGMYASIGLGFVWSHHMYVGLDDRAYFTSATMIAPTGVKFSWLATYGGRPFLAFMFLFTGGTGVLNASDAFHDTYYVVHFHYVLSLGAFSLGYYFWPGLYNLFTFNFPLHFLGGMPRRPYPDAGWNSGSSYQLGPDESNEPH'
p355
sg123
F0.040719999999999999
sg124
g125
sg33
S'111'
p356
sg127
g1
(g128
g12
(dp357
g130
I4
sg131
g132
sg133
g134
sg135
g132
sg136
I01
sg34
g137
sg138
g134
sg139
I0
sg140
I0
sg141
I0
sg142
g134
sg35
g143
sg144
I0
stRp358
sg146
g147
sg148
F1
sg149
Nsg30
S'MingeA'
p359
sbasg120
g292
sg123
F0.037420000000000002
sg124
g125
sg33
S'79'
p360
sg127
g1
(g128
g12
(dp361
g130
I6
sg131
g132
sg133
g134
sg135
g132
sg136
I01
sg34
g174
sg138
g134
sg139
I0
sg140
I0
sg141
I0
sg142
g134
sg35
g175
sg144
I0
stRp362
sg146
g147
sg148
F0.98999999999999999
sg149
Nsg30
S'NoName'
p363
sbag1
(g2
g3
NtRp364
(dp365
g6
g1
(g7
g3
NtRp366
(dp367
g10
g1
(g11
g12
(dtRp368
sg14
g1
(g11
g12
(dtRp369
sg16
g1
(g11
g12
(dtRp370
sg18
g1
(g11
g12
(dtRp371
sg20
g1
(g11
g12
(dtRp372
sg22
g1
(g11
g12
(dtRp373
sbsg24
g25
sg26
g27
((lp374
g33
ag32
ag29
ag30
atRp375
sg37
(lp376
g1
(g2
g3
NtRp377
(dp378
g6
g1
(g7
g3
NtRp379
(dp380
g10
g1
(g11
g12
(dtRp381
sg14
g1
(g11
g12
(dtRp382
sg16
g1
(g11
g12
(dtRp383
sg18
g1
(g11
g12
(dtRp384
sg20
g1
(g11
g12
(dtRp385
sg22
g1
(g11
g12
(dtRp386
sbsg24
g25
sg26
g27
((lp387
g33
ag32
ag29
ag30
atRp388
sg37
(lp389
g1
(g2
g3
NtRp390
(dp391
g6
g1
(g7
g3
NtRp392
(dp393
g10
g1
(g11
g12
(dtRp394
sg14
g1
(g11
g12
(dtRp395
sg16
g1
(g11
g12
(dtRp396
sg18
g1
(g11
g12
(dtRp397
sg20
g1
(g11
g12
(dtRp398
sg22
g1
(g11
g12
(dtRp399
sbsg24
S'Mte'
p400
sg26
g27
((lp401
g29
ag30
aS'sequence'
p402
ag32
ag33
aS'species'
p403
atRp404
sg37
(lp405
sg120
g377
sg121
S'RWLSTKDLYSRLELPTLNQNVHAMFVMPAGFGNPMGDMLARLNNSFWLVPLSLEGAGTGWTVYPPLSHSGPSVDMVFHISSSLLGAINFTNMRGTLFWTALLLLSLPVLSGTLLDRNFNTFEGGDPLYHLFWFFGHPEVYIIPGFGSHSAYKKFGMYASIGLGFVWSHHMYVGLDDRAYFTSATMIAPTGVKFSWLATYGGRPFLAFIFLFTGGTGVLNASDAFHDTYYVVHFHYVLSLGAFSLGYYFWPGLYNLFYFNFPMHALGGMPRRPYPDAGWNSGSSYQLGPDESNEPH'
p406
sg123
F0.042599999999999999
sg124
g125
sg33
S'141'
p407
sg127
g1
(g128
g12
(dp408
g130
I4
sg131
g132
sg133
g134
sg135
g132
sg136
I01
sg34
g137
sg138
g134
sg139
I0
sg140
I0
sg141
I0
sg142
g134
sg35
g143
sg144
I0
stRp409
sg146
g147
sg148
F1
sg149
Nsg30
S'MtetrA'
p410
sbag1
(g2
g3
NtRp411
(dp412
g6
g1
(g7
g3
NtRp413
(dp414
g10
g1
(g11
g12
(dtRp415
sg14
g1
(g11
g12
(dtRp416
sg16
g1
(g11
g12
(dtRp417
sg18
g1
(g11
g12
(dtRp418
sg20
g1
(g11
g12
(dtRp419
sg22
g1
(g11
g12
(dtRp420
sbsg24
g25
sg26
g27
((lp421
g33
ag32
ag29
ag30
atRp422
sg37
(lp423
g1
(g2
g3
NtRp424
(dp425
g6
g1
(g7
g3
NtRp426
(dp427
g10
g1
(g11
g12
(dtRp428
sg14
g1
(g11
g12
(dtRp429
sg16
g1
(g11
g12
(dtRp430
sg18
g1
(g11
g12
(dtRp431
sg20
g1
(g11
g12
(dtRp432
sg22
g1
(g11
g12
(dtRp433
sbsg24
S'Mma'
p434
sg26
g27
((lp435
g29
ag30
aS'sequence'
p436
ag32
ag33
aS'species'
p437
atRp438
sg37
(lp439
sg120
g411
sg121
S'RWLSTKDLYSRLELPTLNQNVHAMFVMPAGFGNPMGDMLARLNNSFWLVPLSLEGPGTGWTVYPPLSHSGPSVDMVFHISSSLLGAINFTNMRGTLFWTALLLLSLPVLSGTLLDRNFNTFEGGDPLYHLFWFFGHPEVYIIPGFGSHSAYKKFGMYASIGLGFVWSHHMYVGLDDRAYFTSATMIAPTGVKFSWLATYGGRPFLAFIFLFTGGTGVLNASDAFHDSYYVVHFHYVLSLGAFSLGYYFWPGLYNLFFFNFPMHALGGMPRRPYPDAGWNSGSSYQLGPDESNEPH'
p440
sg123
F0.00055000000000000003
sg124
g125
sg33
S'101'
p441
sg127
g1
(g128
g12
(dp442
g130
I4
sg131
g132
sg133
g134
sg135
g132
sg136
I01
sg34
g137
sg138
g134
sg139
I0
sg140
I0
sg141
I0
sg142
g134
sg35
g143
sg144
I0
stRp443
sg146
g147
sg148
F1
sg149
Nsg30
S'MmagnB'
p444
sbag1
(g2
g3
NtRp445
(dp446
g6
g1
(g7
g3
NtRp447
(dp448
g10
g1
(g11
g12
(dtRp449
sg14
g1
(g11
g12
(dtRp450
sg16
g1
(g11
g12
(dtRp451
sg18
g1
(g11
g12
(dtRp452
sg20
g1
(g11
g12
(dtRp453
sg22
g1
(g11
g12
(dtRp454
sbsg24
S'Mma'
p455
sg26
g27
((lp456
g29
ag30
aS'sequence'
p457
ag32
ag33
aS'species'
p458
atRp459
sg37
(lp460
sg120
g411
sg121
S'RWLSTKDLYSRLELPTLNQNVHAMFVMPAGFGNPMGDMLARLNNSFWLVPLSLEGPGTGWTVYPPLSHSGPSVDMVFHISSSLLGAINFTNMRGTLFWTALLLLSLPVLSGTLLDRNFNTFEGGDPLYHLFWFFGHPEVYIIPGFGSHSAYKKFGMYASIGLGFVWSHHMYVGLDDRAYFTSATMIAPTGVKFSWLATYGGRPFLAFIFLFTGGTGVLNASDAFHDSYYVVHFHYVLSLGAFSLGYYFWPGLYNLFFFNFPMHALGGMPRRPYPDAGWNSGSSYQLGPDESNEPH'
p461
sg123
F0.00088000000000000003
sg124
g125
sg33
S'102'
p462
sg127
g1
(g128
g12
(dp463
g130
I4
sg131
g132
sg133
g134
sg135
g132
sg136
I01
sg34
g137
sg138
g134
sg139
I0
sg140
I0
sg141
I0
sg142
g134
sg35
g143
sg144
I0
stRp464
sg146
g147
sg148
F1
sg149
Nsg30
S'MmagnA'
p465
sbasg120
g377
sg123
F0.011140000000000001
sg124
g125
sg33
S'132'
p466
sg127
g1
(g128
g12
(dp467
g130
I6
sg131
g132
sg133
g134
sg135
g132
sg136
I01
sg34
g174
sg138
g134
sg139
I0
sg140
I0
sg141
I0
sg142
g134
sg35
g175
sg144
I0
stRp468
sg146
g147
sg148
F0.98999999999999999
sg149
Nsg30
S'NoName'
p469
sbasg120
g364
sg123
F0.11189
sg124
g125
sg33
S'121'
p470
sg127
g1
(g128
g12
(dp471
g130
I6
sg131
g132
sg133
g134
sg135
g132
sg136
I01
sg34
g174
sg138
g134
sg139
I0
sg140
I0
sg141
I0
sg142
g134
sg35
g175
sg144
I0
stRp472
sg146
g147
sg148
F0.98999999999999999
sg149
Nsg30
S'NoName'
p473
sbag1
(g2
g3
NtRp474
(dp475
g6
g1
(g7
g3
NtRp476
(dp477
g10
g1
(g11
g12
(dtRp478
sg14
g1
(g11
g12
(dtRp479
sg16
g1
(g11
g12
(dtRp480
sg18
g1
(g11
g12
(dtRp481
sg20
g1
(g11
g12
(dtRp482
sg22
g1
(g11
g12
(dtRp483
sbsg24
g25
sg26
g27
((lp484
g33
ag32
ag29
ag30
atRp485
sg37
(lp486
g1
(g2
g3
NtRp487
(dp488
g6
g1
(g7
g3
NtRp489
(dp490
g10
g1
(g11
g12
(dtRp491
sg14
g1
(g11
g12
(dtRp492
sg16
g1
(g11
g12
(dtRp493
sg18
g1
(g11
g12
(dtRp494
sg20
g1
(g11
g12
(dtRp495
sg22
g1
(g11
g12
(dtRp496
sbsg24
S'Scl'
p497
sg26
g27
((lp498
g29
ag30
aS'sequence'
p499
ag32
ag33
aS'species'
p500
atRp501
sg37
(lp502
sg120
g474
sg121
S'RWLSTKDLYSRLELPTLNQNVHAMFVMPAGFGNPMGDMLARLNNSFWLVPLSLEGPGTGWTVYPPLSHSGPSVDMVFHMSSSLLGAINFTNMRGTLFWTALLLLSLPVLAGTLLDRNFNTFEGGDPLYHLFWFFGHPEVYMIPGFGSHSTYKKFGMYASMGLGFVWSHHMYVGLDDRAYFTAATMIAPTGVKFSWLATYGGRPFLTFMFLFTGGTGVLNASDAFHDTYYVVHFHYVLSLGAFSLGYYFWPGLYNLFMFNFPLHFLGGMPRRPYPDAGWNSGSSYQLGPDESNEPH'
p503
sg123
F0.020899999999999998
sg124
g125
sg33
S'106'
p504
sg127
g1
(g128
g12
(dp505
g130
I4
sg131
g132
sg133
g134
sg135
g132
sg136
I01
sg34
g137
sg138
g134
sg139
I0
sg140
I0
sg141
I0
sg142
g134
sg35
g143
sg144
I0
stRp506
sg146
g147
sg148
F1
sg149
Nsg30
S'SclavA'
p507
sbag1
(g2
g3
NtRp508
(dp509
g6
g1
(g7
g3
NtRp510
(dp511
g10
g1
(g11
g12
(dtRp512
sg14
g1
(g11
g12
(dtRp513
sg16
g1
(g11
g12
(dtRp514
sg18
g1
(g11
g12
(dtRp515
sg20
g1
(g11
g12
(dtRp516
sg22
g1
(g11
g12
(dtRp517
sbsg24
S'Msp'
p518
sg26
g27
((lp519
g29
ag30
aS'sequence'
p520
ag32
ag33
aS'species'
p521
atRp522
sg37
(lp523
sg120
g474
sg121
S'RWLSTKDLYSRLELPTLNQNVHAMFVMPAGFGNPMGDMLARLNNSFWLVPLSLEGPGTGWTVYPPLSHSGPSVDMVFHMSSSLLGAMNFTNMRGTLFWTALLLLSLPVLAGTLLDRNFNTFEGGDPLYHLFWFFGHPEVYMIPGFGSHSTYKKFGMYASMGLGFVWSHHMYVGLDDRAYFTAATMIAPTGVKFSWLATYGGRPFLTFMFLFTGGTGVLNASDAFHDTYYVVHFHYVLSLGAFSLGYYFWPGLYNLFMFNFPLHFLGGMPRRPYPDAGWNSGSSYQLGPDESNEPH'
p524
sg123
F0.13538
sg124
g125
sg33
S'109'
p525
sg127
g1
(g128
g12
(dp526
g130
I4
sg131
g132
sg133
g134
sg135
g132
sg136
I01
sg34
g137
sg138
g134
sg139
I0
sg140
I0
sg141
I0
sg142
g134
sg35
g143
sg144
I0
stRp527
sg146
g147
sg148
F1
sg149
Nsg30
S'MspicA'
p528
sbasg120
g364
sg123
F0.10536
sg124
g125
sg33
S'152'
p529
sg127
g1
(g128
g12
(dp530
g130
I6
sg131
g132
sg133
g134
sg135
g132
sg136
I01
sg34
g174
sg138
g134
sg139
I0
sg140
I0
sg141
I0
sg142
g134
sg35
g175
sg144
I0
stRp531
sg146
g147
sg148
F0.98999999999999999
sg149
Nsg30
S'NoName'
p532
sbasg120
g292
sg123
F0.03209
sg124
g125
sg33
S'89'
p533
sg127
g1
(g128
g12
(dp534
g130
I6
sg131
g132
sg133
g134
sg135
g132
sg136
I01
sg34
g174
sg138
g134
sg139
I0
sg140
I0
sg141
I0
sg142
g134
sg35
g175
sg144
I0
stRp535
sg146
g147
sg148
F0.98999999999999999
sg149
Nsg30
S'NoName'
p536
sbasg120
g279
sg123
F0.32869999999999999
sg124
g125
sg33
S'85'
p537
sg127
g1
(g128
g12
(dp538
g130
I6
sg131
g132
sg133
g134
sg135
g132
sg136
I01
sg34
g174
sg138
g134
sg139
I0
sg140
I0
sg141
I0
sg142
g134
sg35
g175
sg144
I0
stRp539
sg146
g147
sg148
F0.98999999999999999
sg149
Nsg30
S'NoName'
p540
sbag1
(g2
g3
NtRp541
(dp542
g6
g1
(g7
g3
NtRp543
(dp544
g10
g1
(g11
g12
(dtRp545
sg14
g1
(g11
g12
(dtRp546
sg16
g1
(g11
g12
(dtRp547
sg18
g1
(g11
g12
(dtRp548
sg20
g1
(g11
g12
(dtRp549
sg22
g1
(g11
g12
(dtRp550
sbsg24
g25
sg26
g27
((lp551
g33
ag32
ag29
ag30
atRp552
sg37
(lp553
g1
(g2
g3
NtRp554
(dp555
g6
g1
(g7
g3
NtRp556
(dp557
g10
g1
(g11
g12
(dtRp558
sg14
g1
(g11
g12
(dtRp559
sg16
g1
(g11
g12
(dtRp560
sg18
g1
(g11
g12
(dtRp561
sg20
g1
(g11
g12
(dtRp562
sg22
g1
(g11
g12
(dtRp563
sbsg24
g25
sg26
g27
((lp564
g33
ag32
ag29
ag30
atRp565
sg37
(lp566
g1
(g2
g3
NtRp567
(dp568
g6
g1
(g7
g3
NtRp569
(dp570
g10
g1
(g11
g12
(dtRp571
sg14
g1
(g11
g12
(dtRp572
sg16
g1
(g11
g12
(dtRp573
sg18
g1
(g11
g12
(dtRp574
sg20
g1
(g11
g12
(dtRp575
sg22
g1
(g11
g12
(dtRp576
sbsg24
S'Cze'
p577
sg26
g27
((lp578
g29
ag30
aS'sequence'
p579
ag32
ag33
aS'species'
p580
atRp581
sg37
(lp582
sg120
g554
sg121
S'SWLSTQNLYSRIELPNLNQNVHAMFVMPTGLANPQGDTFPRMNNAFVLLPMSLDGPGSGWTLYPPLTHSGSSMDMAFHLSSSIFGAINLTNMRGPLFWTALMMLALPVLAGTLLDRNFNTFVGGDPLYHIFWFFGHPEVYIIPVFGSQQVYKKFGMYASIGLGFVWSHHMFVGLDDRAYFSGASLIAPTGSKFSWLATYGGRPLLAFMVLFTGGTGVMNSSDMFHDTYYVVHFHYVLSLGVFGVAYYFWPGLYNLFWFNFPLHFLGGLPRRPYPDAGWNSGSSYQFGPDESNEPH'
p583
sg123
F1.5682799999999999
sg124
g125
sg33
S'2'
sg127
g1
(g128
g12
(dp584
g130
I4
sg131
g132
sg133
g134
sg135
g132
sg136
I01
sg34
g137
sg138
g134
sg139
I0
sg140
I0
sg141
I0
sg142
g134
sg35
g143
sg144
I0
stRp585
sg146
g147
sg148
F1
sg149
Nsg30
S'CzempA'
p586
sbag1
(g2
g3
NtRp587
(dp588
g6
g1
(g7
g3
NtRp589
(dp590
g10
g1
(g11
g12
(dtRp591
sg14
g1
(g11
g12
(dtRp592
sg16
g1
(g11
g12
(dtRp593
sg18
g1
(g11
g12
(dtRp594
sg20
g1
(g11
g12
(dtRp595
sg22
g1
(g11
g12
(dtRp596
sbsg24
g25
sg26
g27
((lp597
g33
ag32
ag29
ag30
atRp598
sg37
(lp599
g1
(g2
g3
NtRp600
(dp601
g6
g1
(g7
g3
NtRp602
(dp603
g10
g1
(g11
g12
(dtRp604
sg14
g1
(g11
g12
(dtRp605
sg16
g1
(g11
g12
(dtRp606
sg18
g1
(g11
g12
(dtRp607
sg20
g1
(g11
g12
(dtRp608
sg22
g1
(g11
g12
(dtRp609
sbsg24
S'Csa'
p610
sg26
g27
((lp611
g29
ag30
aS'sequence'
p612
ag32
ag33
aS'species'
p613
atRp614
sg37
(lp615
sg120
g587
sg121
S'----------RLELPNLNQNVHAMFVMPSGFGNPMGDMLARLNNSFWLVPLSLDGPGTGWTMYPPLSHSGASVDLVFHISSSLLGAMNFTNMRGTLFWTALLLLSLPVLSGTLLDRNFNTFEGGDMLYHMFWFFGHPEVYMMPGFGSQSVYKKFGMYASMGLGFVWSHHMFVGLDDRAYFTAATLMAPTGVKFSWLASYGGRPLLAFMFLFTGGTGVLNASDAFHDTYYVVHFHYVLSLGAFSLGYYFWPGLYNLFWFNFPQHFLGAMPRRPYPDAGWNSGSSYQMGPDFSNEPH'
p616
sg123
F0.65920000000000001
sg124
g125
sg33
S'5'
sg127
g1
(g128
g12
(dp617
g130
I4
sg131
g132
sg133
g134
sg135
g132
sg136
I01
sg34
g137
sg138
g134
sg139
I0
sg140
I0
sg141
I0
sg142
g134
sg35
g143
sg144
I0
stRp618
sg146
g147
sg148
F1
sg149
Nsg30
S'CsantA'
p619
sbag1
(g2
g3
NtRp620
(dp621
g6
g1
(g7
g3
NtRp622
(dp623
g10
g1
(g11
g12
(dtRp624
sg14
g1
(g11
g12
(dtRp625
sg16
g1
(g11
g12
(dtRp626
sg18
g1
(g11
g12
(dtRp627
sg20
g1
(g11
g12
(dtRp628
sg22
g1
(g11
g12
(dtRp629
sbsg24
S'Csa'
p630
sg26
g27
((lp631
g29
ag30
aS'sequence'
p632
ag32
ag33
aS'species'
p633
atRp634
sg37
(lp635
sg120
g587
sg121
S'RWLSTKDLYSRLELPAMSQNVHAMFVMPSGFANPMGDTLPRVNNAAILMPMSLEGPGTGWTVYPPLSHSGVSVDLVFHISSSLAGAMNLTNMRGPLFWTALLLLSLPVLAGTLIDRNFNTFDGGDVLYHLFWFFGHPEVYIIPGFGSESRYNKFGMYASIGLGFVWSHHMYVGLDDRSYFTAATLIAPTGVKFSWMATFGGRPFLTFLALFTGGTGVLNASDAFHDTYYVVHFHYVLSLGAFSMGYYYWPGLYNLFWFNFPQHFLGGQPRRSYPDAGWNSGSSYQLGPDESNEPH'
p636
sg123
F1.3581099999999999
sg124
g125
sg33
S'6'
sg127
g1
(g128
g12
(dp637
g130
I4
sg131
g132
sg133
g134
sg135
g132
sg136
I01
sg34
g137
sg138
g134
sg139
I0
sg140
I0
sg141
I0
sg142
g134
sg35
g143
sg144
I0
stRp638
sg146
g147
sg148
F1
sg149
Nsg30
S'CsalmA'
p639
sbasg120
g554
sg123
F0.19968
sg124
g125
sg33
S'1'
sg127
g1
(g128
g12
(dp640
g130
I6
sg131
g132
sg133
g134
sg135
g132
sg136
I01
sg34
g174
sg138
g134
sg139
I0
sg140
I0
sg141
I0
sg142
g134
sg35
g175
sg144
I0
stRp641
sg146
g147
sg148
F0.97999999999999998
sg149
Nsg30
S'NoName'
p642
sbasg120
g541
sg123
F0.14363999999999999
sg124
g125
sg33
S'110'
p643
sg127
g1
(g128
g12
(dp644
g130
I6
sg131
g132
sg133
g134
sg135
g132
sg136
I01
sg34
g174
sg138
g134
sg139
I0
sg140
I0
sg141
I0
sg142
g134
sg35
g175
sg144
I0
stRp645
sg146
g147
sg148
F0.93000000000000005
sg149
Nsg30
S'NoName'
p646
sbag1
(g2
g3
NtRp647
(dp648
g6
g1
(g7
g3
NtRp649
(dp650
g10
g1
(g11
g12
(dtRp651
sg14
g1
(g11
g12
(dtRp652
sg16
g1
(g11
g12
(dtRp653
sg18
g1
(g11
g12
(dtRp654
sg20
g1
(g11
g12
(dtRp655
sg22
g1
(g11
g12
(dtRp656
sbsg24
S'Bar'
p657
sg26
g27
((lp658
g29
ag30
aS'sequence'
p659
ag32
ag33
aS'species'
p660
atRp661
sg37
(lp662
sg120
g541
sg121
S'RWLSTKDLYSRLELPNLNQNSHAMFVMPTGFGNPMGDMLSRLNNSFWLVPLSLEGPGTGWTVYPPLSHSGPSVDLVFHVSSSLLGAMNFTNMRGTLFWTVLLLLALPVLAGTLLDRNFNTFEGGDPLYHMFWFFGHPEVYIIPGFGSQAVYNKFGMYASIGLGFVWSHHMYVGMDDRAYFTAATLIAPTGVKFSWLASYGGRPLLTFIGLFTGGTGVLNAADAFHDSYYVVHFHYVLSLGAFSLGYYFWPGLYNLFWFNFPQHFLGSMPRRPYPDAGWNSGSSVQLGPDVNNEPH'
p663
sg123
F0.74575000000000002
sg124
g125
sg33
S'9'
sg127
g1
(g128
g12
(dp664
g130
I4
sg131
g132
sg133
g134
sg135
g132
sg136
I01
sg34
g137
sg138
g134
sg139
I0
sg140
I0
sg141
I0
sg142
g134
sg35
g143
sg144
I0
stRp665
sg146
g147
sg148
F1
sg149
Nsg30
S'BarxA'
p666
sbasg120
g279
sg123
F0.25233
sg124
g125
sg33
S'104'
p667
sg127
g1
(g128
g12
(dp668
g130
I6
sg131
g132
sg133
g134
sg135
g132
sg136
I01
sg34
g174
sg138
g134
sg139
I0
sg140
I0
sg141
I0
sg142
g134
sg35
g175
sg144
I0
stRp669
sg146
g147
sg148
F0.97999999999999998
sg149
Nsg30
S'NoName'
p670
sbasg120
g266
sg123
F0.42224
sg124
g125
sg33
S'83'
p671
sg127
g1
(g128
g12
(dp672
g130
I6
sg131
g132
sg133
g134
sg135
g132
sg136
I01
sg34
g174
sg138
g134
sg139
I0
sg140
I0
sg141
I0
sg142
g134
sg35
g175
sg144
I0
stRp673
sg146
g147
sg148
F0.97999999999999998
sg149
Nsg30
S'NoName'
p674
sbag1
(g2
g3
NtRp675
(dp676
g6
g1
(g7
g3
NtRp677
(dp678
g10
g1
(g11
g12
(dtRp679
sg14
g1
(g11
g12
(dtRp680
sg16
g1
(g11
g12
(dtRp681
sg18
g1
(g11
g12
(dtRp682
sg20
g1
(g11
g12
(dtRp683
sg22
g1
(g11
g12
(dtRp684
sbsg24
g25
sg26
g27
((lp685
g33
ag32
ag29
ag30
atRp686
sg37
(lp687
g1
(g2
g3
NtRp688
(dp689
g6
g1
(g7
g3
NtRp690
(dp691
g10
g1
(g11
g12
(dtRp692
sg14
g1
(g11
g12
(dtRp693
sg16
g1
(g11
g12
(dtRp694
sg18
g1
(g11
g12
(dtRp695
sg20
g1
(g11
g12
(dtRp696
sg22
g1
(g11
g12
(dtRp697
sbsg24
g25
sg26
g27
((lp698
g33
ag32
ag29
ag30
atRp699
sg37
(lp700
g1
(g2
g3
NtRp701
(dp702
g6
g1
(g7
g3
NtRp703
(dp704
g10
g1
(g11
g12
(dtRp705
sg14
g1
(g11
g12
(dtRp706
sg16
g1
(g11
g12
(dtRp707
sg18
g1
(g11
g12
(dtRp708
sg20
g1
(g11
g12
(dtRp709
sg22
g1
(g11
g12
(dtRp710
sbsg24
g25
sg26
g27
((lp711
g33
ag32
ag29
ag30
atRp712
sg37
(lp713
g1
(g2
g3
NtRp714
(dp715
g6
g1
(g7
g3
NtRp716
(dp717
g10
g1
(g11
g12
(dtRp718
sg14
g1
(g11
g12
(dtRp719
sg16
g1
(g11
g12
(dtRp720
sg18
g1
(g11
g12
(dtRp721
sg20
g1
(g11
g12
(dtRp722
sg22
g1
(g11
g12
(dtRp723
sbsg24
g25
sg26
g27
((lp724
g33
ag32
ag29
ag30
atRp725
sg37
(lp726
g1
(g2
g3
NtRp727
(dp728
g6
g1
(g7
g3
NtRp729
(dp730
g10
g1
(g11
g12
(dtRp731
sg14
g1
(g11
g12
(dtRp732
sg16
g1
(g11
g12
(dtRp733
sg18
g1
(g11
g12
(dtRp734
sg20
g1
(g11
g12
(dtRp735
sg22
g1
(g11
g12
(dtRp736
sbsg24
S'Mfa'
p737
sg26
g27
((lp738
g29
ag30
aS'sequence'
p739
ag32
ag33
aS'species'
p740
atRp741
sg37
(lp742
sg120
g714
sg121
S'RWLSTKDLYSRLELGNLNQNVHAMFVMPLGFGNPLGDMFARLNNSFWLPPLSLEGAGTGWTVYPPLSHSGPSVDLAFHLTSSLLGAINFTNMRGPLFWTALLLLSLPVLAGTLLDRNFNTFEGGDPLYHLFWFFGHPEVYIIPGFGSHSTYKKFGMYASIGLGFVWSHHMYVGLDDRAYFTSATMIAPTGIKFSWLATYGGRPMLAFLFLFTGGTGVLNASDAFHDTYFVVHFHYVLSMGAFSLAYYYWPGLYNLFWFNFPMHFLGGMPRRPYPDAGWNSGSSYQMGPDESNEPH'
p743
sg123
F0.14163999999999999
sg124
g125
sg33
S'17'
p744
sg127
g1
(g128
g12
(dp745
g130
I4
sg131
g132
sg133
g134
sg135
g132
sg136
I01
sg34
g137
sg138
g134
sg139
I0
sg140
I0
sg141
I0
sg142
g134
sg35
g143
sg144
I0
stRp746
sg146
g147
sg148
F1
sg149
Nsg30
S'MfariB'
p747
sbag1
(g2
g3
NtRp748
(dp749
g6
g1
(g7
g3
NtRp750
(dp751
g10
g1
(g11
g12
(dtRp752
sg14
g1
(g11
g12
(dtRp753
sg16
g1
(g11
g12
(dtRp754
sg18
g1
(g11
g12
(dtRp755
sg20
g1
(g11
g12
(dtRp756
sg22
g1
(g11
g12
(dtRp757
sbsg24
S'Csa'
p758
sg26
g27
((lp759
g29
ag30
aS'sequence'
p760
ag32
ag33
aS'species'
p761
atRp762
sg37
(lp763
sg120
g714
sg121
S'RWLSTKDLYSRLELGNFNQNVHAMFVMPLGFGNPLGDMFARLNNSFWLPPLSLEGAGTGWTVYPPLSHSGPSVDLAFHLTSSLLGAINFTNMRGPLFWTALLLLSLPVLAATLLDRNFNTFEGGDPLYHLFWFFGHPEVYIIPGFGSHSTYKKFGMYASMGLGFVWSHHMYVGLDDRAYFTSATMIAPTGMKFSWLATYGGRPMLAFLFLFTGGTGVLNASDAFHDTYYVVHFHYVLSMGAFSLAYYYWPGLYNWFWFNFPMHFLGGMPRRPYPDAGWNSGSSYQMGPDESNEPH'
p764
sg123
F0.069970000000000004
sg124
g125
sg33
S'19'
p765
sg127
g1
(g128
g12
(dp766
g130
I4
sg131
g132
sg133
g134
sg135
g132
sg136
I01
sg34
g137
sg138
g134
sg139
I0
sg140
I0
sg141
I0
sg142
g134
sg35
g143
sg144
I0
stRp767
sg146
g147
sg148
F1
sg149
Nsg30
S'CsakeA'
p768
sbasg120
g701
sg123
F0.048980000000000003
sg124
g125
sg33
S'13'
p769
sg127
g1
(g128
g12
(dp770
g130
I6
sg131
g132
sg133
g134
sg135
g132
sg136
I01
sg34
g174
sg138
g134
sg139
I0
sg140
I0
sg141
I0
sg142
g134
sg35
g175
sg144
I0
stRp771
sg146
g147
sg148
F0.98999999999999999
sg149
Nsg30
S'NoName'
p772
sbag1
(g2
g3
NtRp773
(dp774
g6
g1
(g7
g3
NtRp775
(dp776
g10
g1
(g11
g12
(dtRp777
sg14
g1
(g11
g12
(dtRp778
sg16
g1
(g11
g12
(dtRp779
sg18
g1
(g11
g12
(dtRp780
sg20
g1
(g11
g12
(dtRp781
sg22
g1
(g11
g12
(dtRp782
sbsg24
g25
sg26
g27
((lp783
g33
ag32
ag29
ag30
atRp784
sg37
(lp785
g1
(g2
g3
NtRp786
(dp787
g6
g1
(g7
g3
NtRp788
(dp789
g10
g1
(g11
g12
(dtRp790
sg14
g1
(g11
g12
(dtRp791
sg16
g1
(g11
g12
(dtRp792
sg18
g1
(g11
g12
(dtRp793
sg20
g1
(g11
g12
(dtRp794
sg22
g1
(g11
g12
(dtRp795
sbsg24
g25
sg26
g27
((lp796
g33
ag32
ag29
ag30
atRp797
sg37
(lp798
g1
(g2
g3
NtRp799
(dp800
g6
g1
(g7
g3
NtRp801
(dp802
g10
g1
(g11
g12
(dtRp803
sg14
g1
(g11
g12
(dtRp804
sg16
g1
(g11
g12
(dtRp805
sg18
g1
(g11
g12
(dtRp806
sg20
g1
(g11
g12
(dtRp807
sg22
g1
(g11
g12
(dtRp808
sbsg24
S'Mfa'
p809
sg26
g27
((lp810
g29
ag30
aS'sequence'
p811
ag32
ag33
aS'species'
p812
atRp813
sg37
(lp814
sg120
g786
sg121
S'RWLSTKDLYSRAELGNFNHNVHAMFVMPLGFGNPMGDMFARLNNSFWLPPLSLEGAGTGWTVYPPLSHSGPSVDLAFHLTSSLLGAMNFTNMRGPLFWTALLLLSLPVLAGTLLDRNFNTFEGGDPLYHLFWFFGHPEVYIIPGFGSHSTYKKFGMYASMGLGFVWSHHMYVGLDDRAYFTSATMMAPTGIKFSWLATYGGRPMLAFLFLFTGGTGVLNASDAFHDTYYMYHFHYVLSMGAFSLGYYYWPGLYNWFWFNFPMHFLGGMPRRPYPDAGWNSGSSKQLGPDESNEPH'
p815
sg123
F0.29086000000000001
sg124
g125
sg33
S'24'
p816
sg127
g1
(g128
g12
(dp817
g130
I4
sg131
g132
sg133
g134
sg135
g132
sg136
I01
sg34
g137
sg138
g134
sg139
I0
sg140
I0
sg141
I0
sg142
g134
sg35
g143
sg144
I0
stRp818
sg146
g147
sg148
F1
sg149
Nsg30
S'MfariA'
p819
sbag1
(g2
g3
NtRp820
(dp821
g6
g1
(g7
g3
NtRp822
(dp823
g10
g1
(g11
g12
(dtRp824
sg14
g1
(g11
g12
(dtRp825
sg16
g1
(g11
g12
(dtRp826
sg18
g1
(g11
g12
(dtRp827
sg20
g1
(g11
g12
(dtRp828
sg22
g1
(g11
g12
(dtRp829
sbsg24
S'Dha'
p830
sg26
g27
((lp831
g29
ag30
aS'sequence'
p832
ag32
ag33
aS'species'
p833
atRp834
sg37
(lp835
sg120
g786
sg121
S'RWLSTKDLYSRMELGNFNQNVHAMFIMPWGFGNPLGDMFARLNNSFWLPPLSLEGAGTGWTLYPPLSHSGPSVDLAFHLTSSLLGAMNFTNMRGPLFWTALLLLSLPVLAATLLDRNFNTFEGGDPLYHLFWFFGHPEVYIMPGFGSHSTYKKFGMYASIGLGFVWSHHMFVGLDDRAYFTSATMIAPTGIKFSWLATYGGRPMLAFLFLFTGGTGVLNASDAFHDTYYVVHFHYVLSMGAFSLAYYYWPGLYNLFWFNFPMHFLGGMPRRPYPDAGWNSGSSKQLGPDESNDPH'
p836
sg123
F0.11043
sg124
g125
sg33
S'26'
p837
sg127
g1
(g128
g12
(dp838
g130
I4
sg131
g132
sg133
g134
sg135
g132
sg136
I01
sg34
g137
sg138
g134
sg139
I0
sg140
I0
sg141
I0
sg142
g134
sg35
g143
sg144
I0
stRp839
sg146
g147
sg148
F1
sg149
Nsg30
S'DhansA'
p840
sbasg120
g773
sg123
F0.046699999999999998
sg124
g125
sg33
S'20'
p841
sg127
g1
(g128
g12
(dp842
g130
I6
sg131
g132
sg133
g134
sg135
g132
sg136
I01
sg34
g174
sg138
g134
sg139
I0
sg140
I0
sg141
I0
sg142
g134
sg35
g175
sg144
I0
stRp843
sg146
g147
sg148
F0.65000000000000002
sg149
Nsg30
S'NoName'
p844
sbag1
(g2
g3
NtRp845
(dp846
g6
g1
(g7
g3
NtRp847
(dp848
g10
g1
(g11
g12
(dtRp849
sg14
g1
(g11
g12
(dtRp850
sg16
g1
(g11
g12
(dtRp851
sg18
g1
(g11
g12
(dtRp852
sg20
g1
(g11
g12
(dtRp853
sg22
g1
(g11
g12
(dtRp854
sbsg24
g25
sg26
g27
((lp855
g33
ag32
ag29
ag30
atRp856
sg37
(lp857
g1
(g2
g3
NtRp858
(dp859
g6
g1
(g7
g3
NtRp860
(dp861
g10
g1
(g11
g12
(dtRp862
sg14
g1
(g11
g12
(dtRp863
sg16
g1
(g11
g12
(dtRp864
sg18
g1
(g11
g12
(dtRp865
sg20
g1
(g11
g12
(dtRp866
sg22
g1
(g11
g12
(dtRp867
sbsg24
S'Clu'
p868
sg26
g27
((lp869
g29
ag30
aS'sequence'
p870
ag32
ag33
aS'species'
p871
atRp872
sg37
(lp873
sg120
g845
sg121
S'RWLSTKDLYSRLELPDLNQNVHAMFVMPLGFGNPMGDMFARLNNSFWLPPLSLEGAGTGWTVYPPLSHSGPSVDLAFHLTSSLLGAINFTNMRGPLFWTALLLLSLPVLAGTLLDRNFNTFEGGDPLYHLFWFFGHPEVYMMPGFGSHSTYKKFGMYASMGLGFVWSHHMYVGLDDRAYFTSATMMAPTGMKFSWLATYGGRPMLAFLFLFTGGTGVLNASDAFHDTYYVVHFHYVLSMGAFSLGYYYWPGLYNWFWFNFPMHFLGGMPRRPYPDAGWNSGSSRQLGPDESNEPH'
p874
sg123
F0.037310000000000003
sg124
g125
sg33
S'29'
p875
sg127
g1
(g128
g12
(dp876
g130
I4
sg131
g132
sg133
g134
sg135
g132
sg136
I01
sg34
g137
sg138
g134
sg139
I0
sg140
I0
sg141
I0
sg142
g134
sg35
g143
sg144
I0
stRp877
sg146
g147
sg148
F1
sg149
Nsg30
S'ClusiA'
p878
sbag1
(g2
g3
NtRp879
(dp880
g6
g1
(g7
g3
NtRp881
(dp882
g10
g1
(g11
g12
(dtRp883
sg14
g1
(g11
g12
(dtRp884
sg16
g1
(g11
g12
(dtRp885
sg18
g1
(g11
g12
(dtRp886
sg20
g1
(g11
g12
(dtRp887
sg22
g1
(g11
g12
(dtRp888
sbsg24
g25
sg26
g27
((lp889
g33
ag32
ag29
ag30
atRp890
sg37
(lp891
g1
(g2
g3
NtRp892
(dp893
g6
g1
(g7
g3
NtRp894
(dp895
g10
g1
(g11
g12
(dtRp896
sg14
g1
(g11
g12
(dtRp897
sg16
g1
(g11
g12
(dtRp898
sg18
g1
(g11
g12
(dtRp899
sg20
g1
(g11
g12
(dtRp900
sg22
g1
(g11
g12
(dtRp901
sbsg24
S'Mgu'
p902
sg26
g27
((lp903
g29
ag30
aS'sequence'
p904
ag32
ag33
aS'species'
p905
atRp906
sg37
(lp907
sg120
g879
sg121
S'---------------------------------------------------------------------------------------------------------------------------------------------------------------------------------------------------------------------------------------HFHYVLSMGAFSLGYYYWPGLYNWFWFNFPMHFLGGMPRRPYPDAGWNSGSSKQLGPDESNEPH'
p908
sg123
F0.0044999999999999997
sg124
g125
sg33
S'32'
p909
sg127
g1
(g128
g12
(dp910
g130
I4
sg131
g132
sg133
g134
sg135
g132
sg136
I01
sg34
g137
sg138
g134
sg139
I0
sg140
I0
sg141
I0
sg142
g134
sg35
g143
sg144
I0
stRp911
sg146
g147
sg148
F1
sg149
Nsg30
S'MguilB'
p912
sbag1
(g2
g3
NtRp913
(dp914
g6
g1
(g7
g3
NtRp915
(dp916
g10
g1
(g11
g12
(dtRp917
sg14
g1
(g11
g12
(dtRp918
sg16
g1
(g11
g12
(dtRp919
sg18
g1
(g11
g12
(dtRp920
sg20
g1
(g11
g12
(dtRp921
sg22
g1
(g11
g12
(dtRp922
sbsg24
S'Mgu'
p923
sg26
g27
((lp924
g29
ag30
aS'sequence'
p925
ag32
ag33
aS'species'
p926
atRp927
sg37
(lp928
sg120
g879
sg121
S'RWLSTKDLYSRMELGNFNQNVHAMFVMPIGFGNPMGDMFARLNNSFWLPPLSLEGAGTGWTVYPPLSHSGPSVDMAFHLTSSLLGAMNFTNMRGPLFWTALLLLSLPVLAGTLLDRNFNTFEGGDPLYHLFWFFGHPEVYMMPGFGSHSTYKKFGMYASIGLGFVWSHHMYVGLDDRAYFTSATMMAPTGMKFSWLSTYGGRPMLAFLFLFTGGTGVLNASDAFHDTYYVVHFHYVLSMGAFSLGYYYWPGLYNWFWFNFPMHFLGGMPRRPYPDAGWNSGSSKQLGPDESNEPH'
p929
sg123
F0.0020100000000000001
sg124
g125
sg33
S'33'
p930
sg127
g1
(g128
g12
(dp931
g130
I4
sg131
g132
sg133
g134
sg135
g132
sg136
I01
sg34
g137
sg138
g134
sg139
I0
sg140
I0
sg141
I0
sg142
g134
sg35
g143
sg144
I0
stRp932
sg146
g147
sg148
F1
sg149
Nsg30
S'MguilA'
p933
sbasg120
g845
sg123
F0.25231999999999999
sg124
g125
sg33
S'27'
p934
sg127
g1
(g128
g12
(dp935
g130
I6
sg131
g132
sg133
g134
sg135
g132
sg136
I01
sg34
g174
sg138
g134
sg139
I0
sg140
I0
sg141
I0
sg142
g134
sg35
g175
sg144
I0
stRp936
sg146
g147
sg148
F0.98999999999999999
sg149
Nsg30
S'NoName'
p937
sbasg120
g773
sg123
F0.090679999999999997
sg124
g125
sg33
S'22'
p938
sg127
g1
(g128
g12
(dp939
g130
I6
sg131
g132
sg133
g134
sg135
g132
sg136
I01
sg34
g174
sg138
g134
sg139
I0
sg140
I0
sg141
I0
sg142
g134
sg35
g175
sg144
I0
stRp940
sg146
g147
sg148
F0.98999999999999999
sg149
Nsg30
S'NoName'
p941
sbasg120
g701
sg123
F0.032190000000000003
sg124
g125
sg33
S'15'
p942
sg127
g1
(g128
g12
(dp943
g130
I6
sg131
g132
sg133
g134
sg135
g132
sg136
I01
sg34
g174
sg138
g134
sg139
I0
sg140
I0
sg141
I0
sg142
g134
sg35
g175
sg144
I0
stRp944
sg146
g147
sg148
F0.64000000000000001
sg149
Nsg30
S'NoName'
p945
sbasg120
g688
sg123
F0.12181
sg124
g125
sg33
S'12'
p946
sg127
g1
(g128
g12
(dp947
g130
I6
sg131
g132
sg133
g134
sg135
g132
sg136
I01
sg34
g174
sg138
g134
sg139
I0
sg140
I0
sg141
I0
sg142
g134
sg35
g175
sg144
I0
stRp948
sg146
g147
sg148
F0.98999999999999999
sg149
Nsg30
S'NoName'
p949
sbag1
(g2
g3
NtRp950
(dp951
g6
g1
(g7
g3
NtRp952
(dp953
g10
g1
(g11
g12
(dtRp954
sg14
g1
(g11
g12
(dtRp955
sg16
g1
(g11
g12
(dtRp956
sg18
g1
(g11
g12
(dtRp957
sg20
g1
(g11
g12
(dtRp958
sg22
g1
(g11
g12
(dtRp959
sbsg24
g25
sg26
g27
((lp960
g33
ag32
ag29
ag30
atRp961
sg37
(lp962
g1
(g2
g3
NtRp963
(dp964
g6
g1
(g7
g3
NtRp965
(dp966
g10
g1
(g11
g12
(dtRp967
sg14
g1
(g11
g12
(dtRp968
sg16
g1
(g11
g12
(dtRp969
sg18
g1
(g11
g12
(dtRp970
sg20
g1
(g11
g12
(dtRp971
sg22
g1
(g11
g12
(dtRp972
sbsg24
g25
sg26
g27
((lp973
g33
ag32
ag29
ag30
atRp974
sg37
(lp975
g1
(g2
g3
NtRp976
(dp977
g6
g1
(g7
g3
NtRp978
(dp979
g10
g1
(g11
g12
(dtRp980
sg14
g1
(g11
g12
(dtRp981
sg16
g1
(g11
g12
(dtRp982
sg18
g1
(g11
g12
(dtRp983
sg20
g1
(g11
g12
(dtRp984
sg22
g1
(g11
g12
(dtRp985
sbsg24
S'Cbl'
p986
sg26
g27
((lp987
g29
ag30
aS'sequence'
p988
ag32
ag33
aS'species'
p989
atRp990
sg37
(lp991
sg120
g963
sg121
S'RWLSTKDLYSRLELANLNQNVHAMFVMPLGMGNPMGDMFARLNNSFWLPPLSLEGPGTGWTLYAPLSHSGPSVDMAFHLTSSLLGAINFTNMRGPLYWTALLLLSLPVLAATLLDRNFNTFEGGDPLYHLFWFFGHPEVYMIPGFGSHSTYKKFGMYASIGLGFVWSHHMYVGLDDRAYFTSATMIAPTGIKFSWMATYGGRPMLAFLFLFTGGTGVLNASDAFHDTYYVVHFHYVLSMGAFSLGYYYWPGLYNLFWFNFPMHFLGGMPRRPYPDAGWNSGSSYQLGPDESNEPH'
p992
sg123
F0.36785000000000001
sg124
g125
sg33
S'40'
p993
sg127
g1
(g128
g12
(dp994
g130
I4
sg131
g132
sg133
g134
sg135
g132
sg136
I01
sg34
g137
sg138
g134
sg139
I0
sg140
I0
sg141
I0
sg142
g134
sg35
g143
sg144
I0
stRp995
sg146
g147
sg148
F1
sg149
Nsg30
S'CblacA'
p996
sbag1
(g2
g3
NtRp997
(dp998
g6
g1
(g7
g3
NtRp999
(dp1000
g10
g1
(g11
g12
(dtRp1001
sg14
g1
(g11
g12
(dtRp1002
sg16
g1
(g11
g12
(dtRp1003
sg18
g1
(g11
g12
(dtRp1004
sg20
g1
(g11
g12
(dtRp1005
sg22
g1
(g11
g12
(dtRp1006
sbsg24
g25
sg26
g27
((lp1007
g33
ag32
ag29
ag30
atRp1008
sg37
(lp1009
g1
(g2
g3
NtRp1010
(dp1011
g6
g1
(g7
g3
NtRp1012
(dp1013
g10
g1
(g11
g12
(dtRp1014
sg14
g1
(g11
g12
(dtRp1015
sg16
g1
(g11
g12
(dtRp1016
sg18
g1
(g11
g12
(dtRp1017
sg20
g1
(g11
g12
(dtRp1018
sg22
g1
(g11
g12
(dtRp1019
sbsg24
g25
sg26
g27
((lp1020
g33
ag32
ag29
ag30
atRp1021
sg37
(lp1022
g1
(g2
g3
NtRp1023
(dp1024
g6
g1
(g7
g3
NtRp1025
(dp1026
g10
g1
(g11
g12
(dtRp1027
sg14
g1
(g11
g12
(dtRp1028
sg16
g1
(g11
g12
(dtRp1029
sg18
g1
(g11
g12
(dtRp1030
sg20
g1
(g11
g12
(dtRp1031
sg22
g1
(g11
g12
(dtRp1032
sbsg24
g25
sg26
g27
((lp1033
g33
ag32
ag29
ag30
atRp1034
sg37
(lp1035
g1
(g2
g3
NtRp1036
(dp1037
g6
g1
(g7
g3
NtRp1038
(dp1039
g10
g1
(g11
g12
(dtRp1040
sg14
g1
(g11
g12
(dtRp1041
sg16
g1
(g11
g12
(dtRp1042
sg18
g1
(g11
g12
(dtRp1043
sg20
g1
(g11
g12
(dtRp1044
sg22
g1
(g11
g12
(dtRp1045
sbsg24
g25
sg26
g27
((lp1046
g33
ag32
ag29
ag30
atRp1047
sg37
(lp1048
g1
(g2
g3
NtRp1049
(dp1050
g6
g1
(g7
g3
NtRp1051
(dp1052
g10
g1
(g11
g12
(dtRp1053
sg14
g1
(g11
g12
(dtRp1054
sg16
g1
(g11
g12
(dtRp1055
sg18
g1
(g11
g12
(dtRp1056
sg20
g1
(g11
g12
(dtRp1057
sg22
g1
(g11
g12
(dtRp1058
sbsg24
S'Lel'
p1059
sg26
g27
((lp1060
g29
ag30
aS'sequence'
p1061
ag32
ag33
aS'species'
p1062
atRp1063
sg37
(lp1064
sg120
g1036
sg121
S'RWLSTKDLYSRLELPGLDQNVHAMFVMPLGFGNPMGDMFARLNNSFWLPPLSLEGAGTGWTVYPPLSHSGPSVDLAFHLTSSLLGAINFTNMRGPLYWTALLLFSLPVLAGTLLDRNFNTFDGGDPLYHLFWFFGHPEVYIIPGFGSHSTYKKFGMYASIGLGFVWSHHMYVGLDDRAYFTSATMIAPTGIKFSWLATYGGRPMLAFLFLFTGGTGVLNASDAFHDTYYTVHFHYVLSMGAFSLGYYYWYGLYNLFWFNFPMHFLGGMPRRPYPDAGWNSGSSYQLGPDESNEPH'
p1065
sg123
F0.18278
sg124
g125
sg33
S'48'
p1066
sg127
g1
(g128
g12
(dp1067
g130
I4
sg131
g132
sg133
g134
sg135
g132
sg136
I01
sg34
g137
sg138
g134
sg139
I0
sg140
I0
sg141
I0
sg142
g134
sg35
g143
sg144
I0
stRp1068
sg146
g147
sg148
F1
sg149
Nsg30
S'LelonA'
p1069
sbag1
(g2
g3
NtRp1070
(dp1071
g6
g1
(g7
g3
NtRp1072
(dp1073
g10
g1
(g11
g12
(dtRp1074
sg14
g1
(g11
g12
(dtRp1075
sg16
g1
(g11
g12
(dtRp1076
sg18
g1
(g11
g12
(dtRp1077
sg20
g1
(g11
g12
(dtRp1078
sg22
g1
(g11
g12
(dtRp1079
sbsg24
S'Cox'
p1080
sg26
g27
((lp1081
g29
ag30
aS'sequence'
p1082
ag32
ag33
aS'species'
p1083
atRp1084
sg37
(lp1085
sg120
g1036
sg121
S'RWLSTKDLYSRLELSGLDQNVHAMFVMPIGFGNPMGDMFARLNNSFWLPPLSLEGPGVGWTVYPPLSHSGPSVDLAFHLTSSLLGAINFTNMRGPLYWTALLLLSLPVLAGTLLDRNFNTFDGGDPLYHLFWFFGHPEVYMIPGFGSHATYKKFGMYASIGLGFVWSHHMYVGLDDRAYFTSATMIAPTGIKFSWLATYGGRPMLAFLFLFTGGTGILNASDAFHDTYYTVHFHYVLSMGAFSLGYYLWYGLYNIFWFNFPMHFLGGMPRRPYPDAGWNSGSSYQLGPDESNEPH'
p1086
sg123
F0.17860000000000001
sg124
g125
sg33
S'50'
p1087
sg127
g1
(g128
g12
(dp1088
g130
I4
sg131
g132
sg133
g134
sg135
g132
sg136
I01
sg34
g137
sg138
g134
sg139
I0
sg140
I0
sg141
I0
sg142
g134
sg35
g143
sg144
I0
stRp1089
sg146
g147
sg148
F1
sg149
Nsg30
S'CoxycA'
p1090
sbasg120
g1023
sg123
F0.041480000000000003
sg124
g125
sg33
S'45'
p1091
sg127
g1
(g128
g12
(dp1092
g130
I6
sg131
g132
sg133
g134
sg135
g132
sg136
I01
sg34
g174
sg138
g134
sg139
I0
sg140
I0
sg141
I0
sg142
g134
sg35
g175
sg144
I0
stRp1093
sg146
g147
sg148
F0.98999999999999999
sg149
Nsg30
S'NoName'
p1094
sbag1
(g2
g3
NtRp1095
(dp1096
g6
g1
(g7
g3
NtRp1097
(dp1098
g10
g1
(g11
g12
(dtRp1099
sg14
g1
(g11
g12
(dtRp1100
sg16
g1
(g11
g12
(dtRp1101
sg18
g1
(g11
g12
(dtRp1102
sg20
g1
(g11
g12
(dtRp1103
sg22
g1
(g11
g12
(dtRp1104
sbsg24
g25
sg26
g27
((lp1105
g33
ag32
ag29
ag30
atRp1106
sg37
(lp1107
g1
(g2
g3
NtRp1108
(dp1109
g6
g1
(g7
g3
NtRp1110
(dp1111
g10
g1
(g11
g12
(dtRp1112
sg14
g1
(g11
g12
(dtRp1113
sg16
g1
(g11
g12
(dtRp1114
sg18
g1
(g11
g12
(dtRp1115
sg20
g1
(g11
g12
(dtRp1116
sg22
g1
(g11
g12
(dtRp1117
sbsg24
g25
sg26
g27
((lp1118
g33
ag32
ag29
ag30
atRp1119
sg37
(lp1120
g1
(g2
g3
NtRp1121
(dp1122
g6
g1
(g7
g3
NtRp1123
(dp1124
g10
g1
(g11
g12
(dtRp1125
sg14
g1
(g11
g12
(dtRp1126
sg16
g1
(g11
g12
(dtRp1127
sg18
g1
(g11
g12
(dtRp1128
sg20
g1
(g11
g12
(dtRp1129
sg22
g1
(g11
g12
(dtRp1130
sbsg24
g25
sg26
g27
((lp1131
g33
ag32
ag29
ag30
atRp1132
sg37
(lp1133
g1
(g2
g3
NtRp1134
(dp1135
g6
g1
(g7
g3
NtRp1136
(dp1137
g10
g1
(g11
g12
(dtRp1138
sg14
g1
(g11
g12
(dtRp1139
sg16
g1
(g11
g12
(dtRp1140
sg18
g1
(g11
g12
(dtRp1141
sg20
g1
(g11
g12
(dtRp1142
sg22
g1
(g11
g12
(dtRp1143
sbsg24
S'Cth'
p1144
sg26
g27
((lp1145
g29
ag30
aS'sequence'
p1146
ag32
ag33
aS'species'
p1147
atRp1148
sg37
(lp1149
sg120
g1121
sg121
S'RWLSTKDLYSRLELPGLNQNVHAMFVMPLGFGNPMGDMFARLNNSFWLPPLSLEGAGTGWTVYPPLSHSGPSVDLAFHLTSSLLGAINFTNMRGPLYWTALLLLSLPVLAGTLLDRNFNTFEGGDPLYHLFWFFGHPEVYIIPGFGSHSTYKKFGMYASIGLGFVWSHHMYVGLDDRAYFTSATMIAPTGIKFSWLATYGGRPMLAFLFLFTGGTGVLNASDAFHDTYYTVHFHYVLSMGAFSLGYYYWYGLYNLFWFNFPMHFLGGMPRRPYPDAGWNSGSSYQLGPDESNEPH'
p1150
sg123
F0.010059999999999999
sg124
g125
sg33
S'57'
p1151
sg127
g1
(g128
g12
(dp1152
g130
I4
sg131
g132
sg133
g134
sg135
g132
sg136
I01
sg34
g137
sg138
g134
sg139
I0
sg140
I0
sg141
I0
sg142
g134
sg35
g143
sg144
I0
stRp1153
sg146
g147
sg148
F1
sg149
Nsg30
S'CtheaA'
p1154
sbag1
(g2
g3
NtRp1155
(dp1156
g6
g1
(g7
g3
NtRp1157
(dp1158
g10
g1
(g11
g12
(dtRp1159
sg14
g1
(g11
g12
(dtRp1160
sg16
g1
(g11
g12
(dtRp1161
sg18
g1
(g11
g12
(dtRp1162
sg20
g1
(g11
g12
(dtRp1163
sg22
g1
(g11
g12
(dtRp1164
sbsg24
g25
sg26
g27
((lp1165
g33
ag32
ag29
ag30
atRp1166
sg37
(lp1167
g1
(g2
g3
NtRp1168
(dp1169
g6
g1
(g7
g3
NtRp1170
(dp1171
g10
g1
(g11
g12
(dtRp1172
sg14
g1
(g11
g12
(dtRp1173
sg16
g1
(g11
g12
(dtRp1174
sg18
g1
(g11
g12
(dtRp1175
sg20
g1
(g11
g12
(dtRp1176
sg22
g1
(g11
g12
(dtRp1177
sbsg24
g25
sg26
g27
((lp1178
g33
ag32
ag29
ag30
atRp1179
sg37
(lp1180
g1
(g2
g3
NtRp1181
(dp1182
g6
g1
(g7
g3
NtRp1183
(dp1184
g10
g1
(g11
g12
(dtRp1185
sg14
g1
(g11
g12
(dtRp1186
sg16
g1
(g11
g12
(dtRp1187
sg18
g1
(g11
g12
(dtRp1188
sg20
g1
(g11
g12
(dtRp1189
sg22
g1
(g11
g12
(dtRp1190
sbsg24
g25
sg26
g27
((lp1191
g33
ag32
ag29
ag30
atRp1192
sg37
(lp1193
g1
(g2
g3
NtRp1194
(dp1195
g6
g1
(g7
g3
NtRp1196
(dp1197
g10
g1
(g11
g12
(dtRp1198
sg14
g1
(g11
g12
(dtRp1199
sg16
g1
(g11
g12
(dtRp1200
sg18
g1
(g11
g12
(dtRp1201
sg20
g1
(g11
g12
(dtRp1202
sg22
g1
(g11
g12
(dtRp1203
sbsg24
S'Cor'
p1204
sg26
g27
((lp1205
g29
ag30
aS'sequence'
p1206
ag32
ag33
aS'species'
p1207
atRp1208
sg37
(lp1209
sg120
g1181
sg121
S'RWLSTKDLYSRLELPGLNQNVHAMFVMPLGFGNPMGDMFARLNNSFWLPPLSLEGAGTGWTVYPPLSHSGPSVDLAFHLTSSLLGAINFTNMRGPLFWTALLLLSLPVLAGTLLDRNFNTFEGGDPLYHLFWFFGHPEVYIIPGFGSHSTYKKFGMYASIGLGFVWSHHMYVGLDDRAYFTSATMIAPTGIKFSWLATYGGRPMLAFLFLFTGGTGVLNASDAFHDTYYTVHFHYVLSMGAFSLGYYYWYGLYNLFWFNFPMHFLGGMPRRPYPDAGWNSGSSYQLGPDESNEPH'
p1210
sg123
F0.00132
sg124
g125
sg33
S'64'
p1211
sg127
g1
(g128
g12
(dp1212
g130
I4
sg131
g132
sg133
g134
sg135
g132
sg136
I01
sg34
g137
sg138
g134
sg139
I0
sg140
I0
sg141
I0
sg142
g134
sg35
g143
sg144
I0
stRp1213
sg146
g147
sg148
F1
sg149
Nsg30
S'CorthC'
p1214
sbag1
(g2
g3
NtRp1215
(dp1216
g6
g1
(g7
g3
NtRp1217
(dp1218
g10
g1
(g11
g12
(dtRp1219
sg14
g1
(g11
g12
(dtRp1220
sg16
g1
(g11
g12
(dtRp1221
sg18
g1
(g11
g12
(dtRp1222
sg20
g1
(g11
g12
(dtRp1223
sg22
g1
(g11
g12
(dtRp1224
sbsg24
S'Cor'
p1225
sg26
g27
((lp1226
g29
ag30
aS'sequence'
p1227
ag32
ag33
aS'species'
p1228
atRp1229
sg37
(lp1230
sg120
g1181
sg121
S'RWLSTKDLYSRLELPGLNQNVHAMFVMPLGFGNPMGDMFARLNNSFWLPPLSLEGAGTGWTVYPPLSHSGPSVDLAFHLTSSLLGAINFTNMRGPLFWTALLLLSLPVLAGTLLDRNFNTFEGGDPLYHLFWFFGHPEVYIIPGFGSHSTYKKFGMYASIGLGFVWSHHMYVGLDDRAYFTSATMIAPTGIKFSWLATYGGRPMLAFLFLFTGGTGVLNASDAFHDTYYTVHFHYVLSMGAFSLGYYYWYGLYNLFWFNFPMHFLGGMPRRPYPDAGWNSGSSYQLGPDESNEPH'
p1231
sg123
F0.00093000000000000005
sg124
g125
sg33
S'66'
p1232
sg127
g1
(g128
g12
(dp1233
g130
I4
sg131
g132
sg133
g134
sg135
g132
sg136
I01
sg34
g137
sg138
g134
sg139
I0
sg140
I0
sg141
I0
sg142
g134
sg35
g143
sg144
I0
stRp1234
sg146
g147
sg148
F1
sg149
Nsg30
S'CorthB'
p1235
sbasg120
g1168
sg123
F0.00052999999999999998
sg124
g125
sg33
S'155'
p1236
sg127
g1
(g128
g12
(dp1237
g130
I6
sg131
g132
sg133
g134
sg135
g132
sg136
I01
sg34
g174
sg138
g134
sg139
I0
sg140
I0
sg141
I0
sg142
g134
sg35
g175
sg144
I0
stRp1238
sg146
g147
sg148
F0.85999999999999999
sg149
Nsg30
S'NoName'
p1239
sbag1
(g2
g3
NtRp1240
(dp1241
g6
g1
(g7
g3
NtRp1242
(dp1243
g10
g1
(g11
g12
(dtRp1244
sg14
g1
(g11
g12
(dtRp1245
sg16
g1
(g11
g12
(dtRp1246
sg18
g1
(g11
g12
(dtRp1247
sg20
g1
(g11
g12
(dtRp1248
sg22
g1
(g11
g12
(dtRp1249
sbsg24
S'Cor'
p1250
sg26
g27
((lp1251
g29
ag30
aS'sequence'
p1252
ag32
ag33
aS'species'
p1253
atRp1254
sg37
(lp1255
sg120
g1168
sg121
S'RWLSTKDLYSRLELPGLNQNVHAMFVMPLGFGNPMGDMFARLNNSFWLPPLSLEGAGTGWTVYPPLSHSGPSVDLAFHLTSSLLGAINFTNMRGPLFWTALLLLSLPVLAGTLLDRNFNTFEGGDPLYHLFWFFGHPEVYIIPGFGSHSTYKKFGMYASIGLGFVWSHHMYVGLDDRAYFTSATMIAPTGIKFSWLATYGGRPMLAFLFLFTGGTGVLNASDAFHDTYYTVHFHYVLSMGAFSLGYYYWYGLYNLFWFNFPMHFLGGMPRRPYPDAGWNSGSSYQLGPDESNEPH'
p1256
sg123
F0.0021099999999999999
sg124
g125
sg33
S'199'
p1257
sg127
g1
(g128
g12
(dp1258
g130
I4
sg131
g132
sg133
g134
sg135
g132
sg136
I01
sg34
g137
sg138
g134
sg139
I0
sg140
I0
sg141
I0
sg142
g134
sg35
g143
sg144
I0
stRp1259
sg146
g147
sg148
F1
sg149
Nsg30
S'CorthA'
p1260
sbasg120
g1155
sg123
F0.0031199999999999999
sg124
g125
sg33
S'59'
p1261
sg127
g1
(g128
g12
(dp1262
g130
I6
sg131
g132
sg133
g134
sg135
g132
sg136
I01
sg34
g174
sg138
g134
sg139
I0
sg140
I0
sg141
I0
sg142
g134
sg35
g175
sg144
I0
stRp1263
sg146
g147
sg148
F0.98999999999999999
sg149
Nsg30
S'NoName'
p1264
sbag1
(g2
g3
NtRp1265
(dp1266
g6
g1
(g7
g3
NtRp1267
(dp1268
g10
g1
(g11
g12
(dtRp1269
sg14
g1
(g11
g12
(dtRp1270
sg16
g1
(g11
g12
(dtRp1271
sg18
g1
(g11
g12
(dtRp1272
sg20
g1
(g11
g12
(dtRp1273
sg22
g1
(g11
g12
(dtRp1274
sbsg24
g25
sg26
g27
((lp1275
g33
ag32
ag29
ag30
atRp1276
sg37
(lp1277
g1
(g2
g3
NtRp1278
(dp1279
g6
g1
(g7
g3
NtRp1280
(dp1281
g10
g1
(g11
g12
(dtRp1282
sg14
g1
(g11
g12
(dtRp1283
sg16
g1
(g11
g12
(dtRp1284
sg18
g1
(g11
g12
(dtRp1285
sg20
g1
(g11
g12
(dtRp1286
sg22
g1
(g11
g12
(dtRp1287
sbsg24
g25
sg26
g27
((lp1288
g33
ag32
ag29
ag30
atRp1289
sg37
(lp1290
g1
(g2
g3
NtRp1291
(dp1292
g6
g1
(g7
g3
NtRp1293
(dp1294
g10
g1
(g11
g12
(dtRp1295
sg14
g1
(g11
g12
(dtRp1296
sg16
g1
(g11
g12
(dtRp1297
sg18
g1
(g11
g12
(dtRp1298
sg20
g1
(g11
g12
(dtRp1299
sg22
g1
(g11
g12
(dtRp1300
sbsg24
S'Cpa'
p1301
sg26
g27
((lp1302
g29
ag30
aS'sequence'
p1303
ag32
ag33
aS'species'
p1304
atRp1305
sg37
(lp1306
sg120
g1278
sg121
S'RWLSTKDLYSRLELPGLNQNVHAMFVMPLGFGNPMGDMFARLNNSFWLPPLSLEGAGTGWTVYPPLSHSGPSVDLAFHLTSSLLGAINFTNMRGPLFWTALLLLSLPVLAGTLLDRNFNTFEGGDPLYHLFWFFGHPEVYIIPGFGSHSTYKKFGMYASIGLGFVWSHHMYVGLDDRAYFTSATMIAPTSIKFSWLATYGGRTALAFIFLFTGGTGVLNSADPFHDSYYVVHFHYVLSMGAFSIGWYLWPGLYNLFWFNFPMHFLGGMPRRNYPDAGWNSGSAYQLGPSGTNEPH'
p1307
sg123
F0.00012999999999999999
sg124
g125
sg33
S'4'
sg127
g1
(g128
g12
(dp1308
g130
I4
sg131
g132
sg133
g134
sg135
g132
sg136
I01
sg34
g137
sg138
g134
sg139
I0
sg140
I0
sg141
I0
sg142
g134
sg35
g143
sg144
I0
stRp1309
sg146
g147
sg148
F1
sg149
Nsg30
S'CparaD'
p1310
sbag1
(g2
g3
NtRp1311
(dp1312
g6
g1
(g7
g3
NtRp1313
(dp1314
g10
g1
(g11
g12
(dtRp1315
sg14
g1
(g11
g12
(dtRp1316
sg16
g1
(g11
g12
(dtRp1317
sg18
g1
(g11
g12
(dtRp1318
sg20
g1
(g11
g12
(dtRp1319
sg22
g1
(g11
g12
(dtRp1320
sbsg24
S'Cpa'
p1321
sg26
g27
((lp1322
g29
ag30
aS'sequence'
p1323
ag32
ag33
aS'species'
p1324
atRp1325
sg37
(lp1326
sg120
g1278
sg121
S'RWLSTKDLYSRLELPGLNQNVHAMFVMPLGFGNPMGDMFARLNNSFWLPPLSLEGAGTGWTVYPPLSHSGPSVDLAFHLTSSLLGAINFTNMRGPLFWTALLLLSLPVLAGTLLDRNFNTFEGGDPLYHLFWFFGHPEVYIIPGFGSHSTYKKFGMYASIGLGFVWSHHMYVGLDDRAYFTSATMIAPTGIKFSWLATYGGRPMLAFLFLFTGGTGVVNASDAFHDTYYVVHFHYVLSMGAFSLGYYYWYGLYNLFWFNFPMHFLGGMPRRPYPDAGWNSGSSYSLGPDESNEPH'
p1327
sg123
F0.00012999999999999999
sg124
g125
sg33
S'14'
p1328
sg127
g1
(g128
g12
(dp1329
g130
I4
sg131
g132
sg133
g134
sg135
g132
sg136
I01
sg34
g137
sg138
g134
sg139
I0
sg140
I0
sg141
I0
sg142
g134
sg35
g143
sg144
I0
stRp1330
sg146
g147
sg148
F1
sg149
Nsg30
S'CparaB'
p1331
sbasg120
g1265
sg123
F0.00051000000000000004
sg124
g125
sg33
S'69'
p1332
sg127
g1
(g128
g12
(dp1333
g130
I6
sg131
g132
sg133
g134
sg135
g132
sg136
I01
sg34
g174
sg138
g134
sg139
I0
sg140
I0
sg141
I0
sg142
g134
sg35
g175
sg144
I0
stRp1334
sg146
g147
sg148
F0.98999999999999999
sg149
Nsg30
S'NoName'
p1335
sbag1
(g2
g3
NtRp1336
(dp1337
g6
g1
(g7
g3
NtRp1338
(dp1339
g10
g1
(g11
g12
(dtRp1340
sg14
g1
(g11
g12
(dtRp1341
sg16
g1
(g11
g12
(dtRp1342
sg18
g1
(g11
g12
(dtRp1343
sg20
g1
(g11
g12
(dtRp1344
sg22
g1
(g11
g12
(dtRp1345
sbsg24
S'Cpa'
p1346
sg26
g27
((lp1347
g29
ag30
aS'sequence'
p1348
ag32
ag33
aS'species'
p1349
atRp1350
sg37
(lp1351
sg120
g1265
sg121
S'RWLSTKDLYSRLELPGLNQNVHAMFVMPLGFGNPMGDMFARLNNSFWLPPLSLEGAGTGWTVYPPLSHSGPSVDLAFHLTSSLLGAINFTNMRGPLFWTALLLLSLPVLAGTLLDRNFNTFEGGDPLYHLFWFFGHPEVYIIPGFGSHSTYKKFGMYASIGLGFVWSHHMYVGLDDRAYFTSATMIAPTGIKFSWLATYGGRPMLAFLFLFTGGTGVVNASDAFHDTYYVVHFHYVLSMGAFSLGYYYWYGLYNLFWFNFPMHFLGGMPRRPYPDAGWNSGSSYSLGPDESNEPH'
p1352
sg123
F0.00012
sg124
g125
sg33
S'25'
p1353
sg127
g1
(g128
g12
(dp1354
g130
I4
sg131
g132
sg133
g134
sg135
g132
sg136
I01
sg34
g137
sg138
g134
sg139
I0
sg140
I0
sg141
I0
sg142
g134
sg35
g143
sg144
I0
stRp1355
sg146
g147
sg148
F1
sg149
Nsg30
S'CparaC'
p1356
sbasg120
g1155
sg123
F1.0000000000000001e-05
sg124
g125
sg33
S'167'
p1357
sg127
g1
(g128
g12
(dp1358
g130
I6
sg131
g132
sg133
g134
sg135
g132
sg136
I01
sg34
g174
sg138
g134
sg139
I0
sg140
I0
sg141
I0
sg142
g134
sg35
g175
sg144
I0
stRp1359
sg146
g147
sg148
F1
sg149
Nsg30
S'NoName'
p1360
sbasg120
g1121
sg123
F0.0032599999999999999
sg124
g125
sg33
S'55'
p1361
sg127
g1
(g128
g12
(dp1362
g130
I6
sg131
g132
sg133
g134
sg135
g132
sg136
I01
sg34
g174
sg138
g134
sg139
I0
sg140
I0
sg141
I0
sg142
g134
sg35
g175
sg144
I0
stRp1363
sg146
g147
sg148
F0.97999999999999998
sg149
Nsg30
S'NoName'
p1364
sbasg120
g1108
sg123
F1.0000000000000001e-05
sg124
g125
sg33
S'54'
p1365
sg127
g1
(g128
g12
(dp1366
g130
I6
sg131
g132
sg133
g134
sg135
g132
sg136
I01
sg34
g174
sg138
g134
sg139
I0
sg140
I0
sg141
I0
sg142
g134
sg35
g175
sg144
I0
stRp1367
sg146
g147
sg148
F1
sg149
Nsg30
S'NoName'
p1368
sbag1
(g2
g3
NtRp1369
(dp1370
g6
g1
(g7
g3
NtRp1371
(dp1372
g10
g1
(g11
g12
(dtRp1373
sg14
g1
(g11
g12
(dtRp1374
sg16
g1
(g11
g12
(dtRp1375
sg18
g1
(g11
g12
(dtRp1376
sg20
g1
(g11
g12
(dtRp1377
sg22
g1
(g11
g12
(dtRp1378
sbsg24
g25
sg26
g27
((lp1379
g33
ag32
ag29
ag30
atRp1380
sg37
(lp1381
g1
(g2
g3
NtRp1382
(dp1383
g6
g1
(g7
g3
NtRp1384
(dp1385
g10
g1
(g11
g12
(dtRp1386
sg14
g1
(g11
g12
(dtRp1387
sg16
g1
(g11
g12
(dtRp1388
sg18
g1
(g11
g12
(dtRp1389
sg20
g1
(g11
g12
(dtRp1390
sg22
g1
(g11
g12
(dtRp1391
sbsg24
g25
sg26
g27
((lp1392
g33
ag32
ag29
ag30
atRp1393
sg37
(lp1394
g1
(g2
g3
NtRp1395
(dp1396
g6
g1
(g7
g3
NtRp1397
(dp1398
g10
g1
(g11
g12
(dtRp1399
sg14
g1
(g11
g12
(dtRp1400
sg16
g1
(g11
g12
(dtRp1401
sg18
g1
(g11
g12
(dtRp1402
sg20
g1
(g11
g12
(dtRp1403
sg22
g1
(g11
g12
(dtRp1404
sbsg24
g25
sg26
g27
((lp1405
g33
ag32
ag29
ag30
atRp1406
sg37
(lp1407
g1
(g2
g3
NtRp1408
(dp1409
g6
g1
(g7
g3
NtRp1410
(dp1411
g10
g1
(g11
g12
(dtRp1412
sg14
g1
(g11
g12
(dtRp1413
sg16
g1
(g11
g12
(dtRp1414
sg18
g1
(g11
g12
(dtRp1415
sg20
g1
(g11
g12
(dtRp1416
sg22
g1
(g11
g12
(dtRp1417
sbsg24
g25
sg26
g27
((lp1418
g33
ag32
ag29
ag30
atRp1419
sg37
(lp1420
g1
(g2
g3
NtRp1421
(dp1422
g6
g1
(g7
g3
NtRp1423
(dp1424
g10
g1
(g11
g12
(dtRp1425
sg14
g1
(g11
g12
(dtRp1426
sg16
g1
(g11
g12
(dtRp1427
sg18
g1
(g11
g12
(dtRp1428
sg20
g1
(g11
g12
(dtRp1429
sg22
g1
(g11
g12
(dtRp1430
sbsg24
g25
sg26
g27
((lp1431
g33
ag32
ag29
ag30
atRp1432
sg37
(lp1433
g1
(g2
g3
NtRp1434
(dp1435
g6
g1
(g7
g3
NtRp1436
(dp1437
g10
g1
(g11
g12
(dtRp1438
sg14
g1
(g11
g12
(dtRp1439
sg16
g1
(g11
g12
(dtRp1440
sg18
g1
(g11
g12
(dtRp1441
sg20
g1
(g11
g12
(dtRp1442
sg22
g1
(g11
g12
(dtRp1443
sbsg24
S'Cme'
p1444
sg26
g27
((lp1445
g29
ag30
aS'sequence'
p1446
ag32
ag33
aS'species'
p1447
atRp1448
sg37
(lp1449
sg120
g1421
sg121
S'RWLSTKDLYSRLELPGLNQNVHAMFVMPLGFGNPMGDMFARLNNSFWLPPLSLEGAGTGWTVYPPLSHSGPSVDLAFHLTSSLLGAINFTNMRGPLYWTALLLLSLPVLAGTLLDRNFNTFEGGDPLYHLFWFFGHPEVYIIPGFGSHSTYKKFGMYASIGLGFVWSHHMYVGLDDRAYFTSATMIAPTGIKFSWLATYGGRPMLAFLFLFTGGTGVLNASDAFHDTYYVVHFHYVLSMGAFSLGYYYWYGLYNLFWFNFPMHFLGGMPRRPYPDAGWNSGSSYQLGPDESNEPH'
p1450
sg123
F0.00012999999999999999
sg124
g125
sg33
S'88'
p1451
sg127
g1
(g128
g12
(dp1452
g130
I4
sg131
g132
sg133
g134
sg135
g132
sg136
I01
sg34
g137
sg138
g134
sg139
I0
sg140
I0
sg141
I0
sg142
g134
sg35
g143
sg144
I0
stRp1453
sg146
g147
sg148
F1
sg149
Nsg30
S'CmetaF'
p1454
sbag1
(g2
g3
NtRp1455
(dp1456
g6
g1
(g7
g3
NtRp1457
(dp1458
g10
g1
(g11
g12
(dtRp1459
sg14
g1
(g11
g12
(dtRp1460
sg16
g1
(g11
g12
(dtRp1461
sg18
g1
(g11
g12
(dtRp1462
sg20
g1
(g11
g12
(dtRp1463
sg22
g1
(g11
g12
(dtRp1464
sbsg24
S'Cme'
p1465
sg26
g27
((lp1466
g29
ag30
aS'sequence'
p1467
ag32
ag33
aS'species'
p1468
atRp1469
sg37
(lp1470
sg120
g1421
sg121
S'RWLSTKDLYSRLELPGLNQNVHAMFVMPLGFGNPMGDMFARLNNSFWLPPLSLEGAGTGWTVYPPLSHSGPSVDLAFHLTSSLLGAINFTNMRGPLYWTALLLLSLPVLAGTLLDRNFNTFEGGDPLYHLFWFFGHPEVYIIPGFGSHSTYKKFGMYASIGLGFVWSHHMYVGLDDRAYFTSATMIAPTGIKFSWLATYGGRPMLAFLFLFTGGTGVLNASDAFHDTYYVVHFHYVLSMGAFSLGYYYWYGLYNLFWFNFPMHFLGGMPRRPYPDAGWNSGSSYQLGPDESNEPH'
p1471
sg123
F0.00012
sg124
g125
sg33
S'90'
p1472
sg127
g1
(g128
g12
(dp1473
g130
I4
sg131
g132
sg133
g134
sg135
g132
sg136
I01
sg34
g137
sg138
g134
sg139
I0
sg140
I0
sg141
I0
sg142
g134
sg35
g143
sg144
I0
stRp1474
sg146
g147
sg148
F1
sg149
Nsg30
S'CmetaE'
p1475
sbasg120
g1408
sg123
F1.0000000000000001e-05
sg124
g125
sg33
S'67'
p1476
sg127
g1
(g128
g12
(dp1477
g130
I6
sg131
g132
sg133
g134
sg135
g132
sg136
I01
sg34
g174
sg138
g134
sg139
I0
sg140
I0
sg141
I0
sg142
g134
sg35
g175
sg144
I0
stRp1478
sg146
g147
sg148
F1
sg149
Nsg30
S'NoName'
p1479
sbag1
(g2
g3
NtRp1480
(dp1481
g6
g1
(g7
g3
NtRp1482
(dp1483
g10
g1
(g11
g12
(dtRp1484
sg14
g1
(g11
g12
(dtRp1485
sg16
g1
(g11
g12
(dtRp1486
sg18
g1
(g11
g12
(dtRp1487
sg20
g1
(g11
g12
(dtRp1488
sg22
g1
(g11
g12
(dtRp1489
sbsg24
S'Cme'
p1490
sg26
g27
((lp1491
g29
ag30
aS'sequence'
p1492
ag32
ag33
aS'species'
p1493
atRp1494
sg37
(lp1495
sg120
g1408
sg121
S'RWLSTKDLYSRLELPGLNQNVHAMFVMPLGFGNPMGDMFARLNNSFWLPPLSLEGAGTGWTVYPPLSHSGPSVDLAFHLTSSLLGAINFTNMRGPLYWTALLLLSLPVLAGTLLDRNFNTFEGGDPLYHLFWFFGHPEVYIIPGFGSHSTYKKFGMYASIGLGFVWSHHMYVGLDDRAYFTSATMIAPTGIKFSWLATYGGRPMLAFLFLFTGGTGVLNASDAFHDTYYVVHFHYVLSMGAFSLGYYYWYGLYNLFWFNFPMHFLGGMPRRPYPDAGWNSGSSYQLGPDESNEPH'
p1496
sg123
F0.00020000000000000001
sg124
g125
sg33
S'92'
p1497
sg127
g1
(g128
g12
(dp1498
g130
I4
sg131
g132
sg133
g134
sg135
g132
sg136
I01
sg34
g137
sg138
g134
sg139
I0
sg140
I0
sg141
I0
sg142
g134
sg35
g143
sg144
I0
stRp1499
sg146
g147
sg148
F1
sg149
Nsg30
S'CmetaD'
p1500
sbasg120
g1395
sg123
F1.0000000000000001e-05
sg124
g125
sg33
S'56'
p1501
sg127
g1
(g128
g12
(dp1502
g130
I6
sg131
g132
sg133
g134
sg135
g132
sg136
I01
sg34
g174
sg138
g134
sg139
I0
sg140
I0
sg141
I0
sg142
g134
sg35
g175
sg144
I0
stRp1503
sg146
g147
sg148
F1
sg149
Nsg30
S'NoName'
p1504
sbag1
(g2
g3
NtRp1505
(dp1506
g6
g1
(g7
g3
NtRp1507
(dp1508
g10
g1
(g11
g12
(dtRp1509
sg14
g1
(g11
g12
(dtRp1510
sg16
g1
(g11
g12
(dtRp1511
sg18
g1
(g11
g12
(dtRp1512
sg20
g1
(g11
g12
(dtRp1513
sg22
g1
(g11
g12
(dtRp1514
sbsg24
S'Cme'
p1515
sg26
g27
((lp1516
g29
ag30
aS'sequence'
p1517
ag32
ag33
aS'species'
p1518
atRp1519
sg37
(lp1520
sg120
g1395
sg121
S'RWLSTKDLYSRLELPGLNQNVHAMFVMPLGFGNPMGDMFARLNNSFWLPPLSLEGAGTGWTVYPPLSHSGPSVDLAFHLTSSLLGAINFTNMRGPLYWTALLLLSLPVLAGTLLDRNFNTFEGGDPLYHLFWFFGHPEVYIIPGFGSHSTYKKFGMYASIGLGFVWSHHMYVGLDDRAYFTSATMIAPTGIKFSWLATYGGRPMLAFLFLFTGGTGVLNASDAFHDTYYVVHFHYVLSMGAFSLGYYYWYGLYNLFWFNFPMHFLGGMPRRPYPDAGWNSGSSYQLGPDESNEPH'
p1521
sg123
F0.00052999999999999998
sg124
g125
sg33
S'94'
p1522
sg127
g1
(g128
g12
(dp1523
g130
I4
sg131
g132
sg133
g134
sg135
g132
sg136
I01
sg34
g137
sg138
g134
sg139
I0
sg140
I0
sg141
I0
sg142
g134
sg35
g143
sg144
I0
stRp1524
sg146
g147
sg148
F1
sg149
Nsg30
S'CmetaC'
p1525
sbasg120
g1382
sg123
F1.0000000000000001e-05
sg124
g125
sg33
S'46'
p1526
sg127
g1
(g128
g12
(dp1527
g130
I6
sg131
g132
sg133
g134
sg135
g132
sg136
I01
sg34
g174
sg138
g134
sg139
I0
sg140
I0
sg141
I0
sg142
g134
sg35
g175
sg144
I0
stRp1528
sg146
g147
sg148
F1
sg149
Nsg30
S'NoName'
p1529
sbag1
(g2
g3
NtRp1530
(dp1531
g6
g1
(g7
g3
NtRp1532
(dp1533
g10
g1
(g11
g12
(dtRp1534
sg14
g1
(g11
g12
(dtRp1535
sg16
g1
(g11
g12
(dtRp1536
sg18
g1
(g11
g12
(dtRp1537
sg20
g1
(g11
g12
(dtRp1538
sg22
g1
(g11
g12
(dtRp1539
sbsg24
S'Cme'
p1540
sg26
g27
((lp1541
g29
ag30
aS'sequence'
p1542
ag32
ag33
aS'species'
p1543
atRp1544
sg37
(lp1545
sg120
g1382
sg121
S'RWLSTKDLYSRLELPGLNQNVHAMFVMPLGFGNPMGDMFARLNNSFWLPPLSLEGAGTGWTVYPPLSHSGPSVDLAFHLTSSLLGAINFTNMRGPLYWTALLLLSLPVLAGTLLDRNFNTFEGGDPLYHLFWFFGHPEVYIIPGFGSHSTYKKFGMYASIGLGFVWSHHMYVGLDDRAYFTSATMIAPTGIKFSWLATYGGRPMLAFLFLFTGGTGVLNASDAFHDTYYVVHFHYVLSMGAFSLGYYYWYGLYNLFWFNFPMHFLGGMPRRPYPDAGWNSGSSYQLGPDESNEPH'
p1546
sg123
F0.00012
sg124
g125
sg33
S'95'
p1547
sg127
g1
(g128
g12
(dp1548
g130
I4
sg131
g132
sg133
g134
sg135
g132
sg136
I01
sg34
g137
sg138
g134
sg139
I0
sg140
I0
sg141
I0
sg142
g134
sg35
g143
sg144
I0
stRp1549
sg146
g147
sg148
F1
sg149
Nsg30
S'CmetaB'
p1550
sbasg120
g1369
sg123
F1.0000000000000001e-05
sg124
g125
sg33
S'34'
p1551
sg127
g1
(g128
g12
(dp1552
g130
I6
sg131
g132
sg133
g134
sg135
g132
sg136
I01
sg34
g174
sg138
g134
sg139
I0
sg140
I0
sg141
I0
sg142
g134
sg35
g175
sg144
I0
stRp1553
sg146
g147
sg148
F1
sg149
Nsg30
S'NoName'
p1554
sbag1
(g2
g3
NtRp1555
(dp1556
g6
g1
(g7
g3
NtRp1557
(dp1558
g10
g1
(g11
g12
(dtRp1559
sg14
g1
(g11
g12
(dtRp1560
sg16
g1
(g11
g12
(dtRp1561
sg18
g1
(g11
g12
(dtRp1562
sg20
g1
(g11
g12
(dtRp1563
sg22
g1
(g11
g12
(dtRp1564
sbsg24
S'Cme'
p1565
sg26
g27
((lp1566
g29
ag30
aS'sequence'
p1567
ag32
ag33
aS'species'
p1568
atRp1569
sg37
(lp1570
sg120
g1369
sg121
S'RWLSTKDLYSRLELPGLNQNVHAMFVMPLGFGNPMGDMFARLNNSFWLPPLSLEGAGTGWTVYPPLSHSGPSVDLAFHLTSSLLGAINFTNMRGPLYWTALLLLSLPVLAGTLLDRNFNTFEGGDPLYHLFWFFGHPEVYIIPGFGSHSTYKKFGMYASIGLGFVWSHHMYVGLDDRAYFTSATMIAPTGIKFSWLATYGGRPMLAFLFLFTGGTGVLNASDAFHDTYYVVHFHYVLSMGAFSLGYYYWYGLYNLFWFNFPMHFLGGMPRRPYPDAGWNSGSSYQLGPDESNEPH'
p1571
sg123
F0.00012999999999999999
sg124
g125
sg33
S'97'
p1572
sg127
g1
(g128
g12
(dp1573
g130
I4
sg131
g132
sg133
g134
sg135
g132
sg136
I01
sg34
g137
sg138
g134
sg139
I0
sg140
I0
sg141
I0
sg142
g134
sg35
g143
sg144
I0
stRp1574
sg146
g147
sg148
F1
sg149
Nsg30
S'CmetaA'
p1575
sbasg120
g1108
sg123
F0.020930000000000001
sg124
g125
sg33
S'221'
p1576
sg127
g1
(g128
g12
(dp1577
g130
I6
sg131
g132
sg133
g134
sg135
g132
sg136
I01
sg34
g174
sg138
g134
sg139
I0
sg140
I0
sg141
I0
sg142
g134
sg35
g175
sg144
I0
stRp1578
sg146
g147
sg148
F0.98999999999999999
sg149
Nsg30
S'NoName'
p1579
sbasg120
g1095
sg123
F0.045289999999999997
sg124
g125
sg33
S'52'
p1580
sg127
g1
(g128
g12
(dp1581
g130
I6
sg131
g132
sg133
g134
sg135
g132
sg136
I01
sg34
g174
sg138
g134
sg139
I0
sg140
I0
sg141
I0
sg142
g134
sg35
g175
sg144
I0
stRp1582
sg146
g147
sg148
F0.98999999999999999
sg149
Nsg30
S'NoName'
p1583
sbag1
(g2
g3
NtRp1584
(dp1585
g6
g1
(g7
g3
NtRp1586
(dp1587
g10
g1
(g11
g12
(dtRp1588
sg14
g1
(g11
g12
(dtRp1589
sg16
g1
(g11
g12
(dtRp1590
sg18
g1
(g11
g12
(dtRp1591
sg20
g1
(g11
g12
(dtRp1592
sg22
g1
(g11
g12
(dtRp1593
sbsg24
S'Cji'
p1594
sg26
g27
((lp1595
g29
ag30
aS'sequence'
p1596
ag32
ag33
aS'species'
p1597
atRp1598
sg37
(lp1599
sg120
g1095
sg121
S'RWLSTKDLYSRLELPGLNQNVHAMFVMPLGFGNPMGDMFARLNNSFWLPPLSLEGAGTGWTVYPPLSHSGPSVDLAFHLTSSLLGAINFTNMRGPMFWTALLLLSLPVLAGTLLDRNFNTFDGGDPLYHLFWFFGHPEVYIIPGFGSHSTYKKFGMYASIGLGFVWSHHMYVGLDDRAYFTSATMIAPTGIKFSWLATYGGRPMLAFLFLFTGGTGVLNASDAFHDTYYTVHFHYVLSMGAFSLGYYYWYGLYNLFWFNFPMHFLGGMPRRPYPDAGWNSGSSYQLGPDESNEPH'
p1600
sg123
F0.013140000000000001
sg124
g125
sg33
S'99'
p1601
sg127
g1
(g128
g12
(dp1602
g130
I4
sg131
g132
sg133
g134
sg135
g132
sg136
I01
sg34
g137
sg138
g134
sg139
I0
sg140
I0
sg141
I0
sg142
g134
sg35
g143
sg144
I0
stRp1603
sg146
g147
sg148
F1
sg149
Nsg30
S'CjiufA'
p1604
sbasg120
g1023
sg123
F0.044909999999999999
sg124
g125
sg33
S'47'
p1605
sg127
g1
(g128
g12
(dp1606
g130
I6
sg131
g132
sg133
g134
sg135
g132
sg136
I01
sg34
g174
sg138
g134
sg139
I0
sg140
I0
sg141
I0
sg142
g134
sg35
g175
sg144
I0
stRp1607
sg146
g147
sg148
F0.98999999999999999
sg149
Nsg30
S'NoName'
p1608
sbasg120
g1010
sg123
F0.082199999999999995
sg124
g125
sg33
S'43'
p1609
sg127
g1
(g128
g12
(dp1610
g130
I6
sg131
g132
sg133
g134
sg135
g132
sg136
I01
sg34
g174
sg138
g134
sg139
I0
sg140
I0
sg141
I0
sg142
g134
sg35
g175
sg144
I0
stRp1611
sg146
g147
sg148
F0.98999999999999999
sg149
Nsg30
S'NoName'
p1612
sbag1
(g2
g3
NtRp1613
(dp1614
g6
g1
(g7
g3
NtRp1615
(dp1616
g10
g1
(g11
g12
(dtRp1617
sg14
g1
(g11
g12
(dtRp1618
sg16
g1
(g11
g12
(dtRp1619
sg18
g1
(g11
g12
(dtRp1620
sg20
g1
(g11
g12
(dtRp1621
sg22
g1
(g11
g12
(dtRp1622
sbsg24
g25
sg26
g27
((lp1623
g33
ag32
ag29
ag30
atRp1624
sg37
(lp1625
g1
(g2
g3
NtRp1626
(dp1627
g6
g1
(g7
g3
NtRp1628
(dp1629
g10
g1
(g11
g12
(dtRp1630
sg14
g1
(g11
g12
(dtRp1631
sg16
g1
(g11
g12
(dtRp1632
sg18
g1
(g11
g12
(dtRp1633
sg20
g1
(g11
g12
(dtRp1634
sg22
g1
(g11
g12
(dtRp1635
sbsg24
g25
sg26
g27
((lp1636
g33
ag32
ag29
ag30
atRp1637
sg37
(lp1638
g1
(g2
g3
NtRp1639
(dp1640
g6
g1
(g7
g3
NtRp1641
(dp1642
g10
g1
(g11
g12
(dtRp1643
sg14
g1
(g11
g12
(dtRp1644
sg16
g1
(g11
g12
(dtRp1645
sg18
g1
(g11
g12
(dtRp1646
sg20
g1
(g11
g12
(dtRp1647
sg22
g1
(g11
g12
(dtRp1648
sbsg24
S'Cco'
p1649
sg26
g27
((lp1650
g29
ag30
aS'sequence'
p1651
ag32
ag33
aS'species'
p1652
atRp1653
sg37
(lp1654
sg120
g1626
sg121
S'RWLSTKDLYSRMELPGLNQNVHAMFVMPLGFGNPMGDMFARLNNSFWLPPLSLEGAGTGWTLYAPLSHSGPSVDLAFHLTSSLLGAINFTNMRGPLFWTALLLLSLPVLAATLLDRNFNTFEGGDPLYHLFFVLMHPEVYIIPGFGSHSTYKKFGMYASMGLGFVWSHHMYVGLDDRAYFTSATMIAPTGIKFSWLATYGGRPMLAFLFLFTGGTGVLNASDAFHDTYYIKHFHYVLSMGAFSLGYYYWYGLYNMFWFNFPMHFLGGMPRRPYPDAGWNSGSSYQLGPDESNEPH'
p1655
sg123
F0.057970000000000001
sg124
g125
sg33
S'185'
p1656
sg127
g1
(g128
g12
(dp1657
g130
I4
sg131
g132
sg133
g134
sg135
g132
sg136
I01
sg34
g137
sg138
g134
sg139
I0
sg140
I0
sg141
I0
sg142
g134
sg35
g143
sg144
I0
stRp1658
sg146
g147
sg148
F1
sg149
Nsg30
S'CcoryA'
p1659
sbag1
(g2
g3
NtRp1660
(dp1661
g6
g1
(g7
g3
NtRp1662
(dp1663
g10
g1
(g11
g12
(dtRp1664
sg14
g1
(g11
g12
(dtRp1665
sg16
g1
(g11
g12
(dtRp1666
sg18
g1
(g11
g12
(dtRp1667
sg20
g1
(g11
g12
(dtRp1668
sg22
g1
(g11
g12
(dtRp1669
sbsg24
S'Cch'
p1670
sg26
g27
((lp1671
g29
ag30
aS'sequence'
p1672
ag32
ag33
aS'species'
p1673
atRp1674
sg37
(lp1675
sg120
g1626
sg121
S'RWLSTKDLYSRMELPSLNQNVHAMFVMPLGFGNPMGDMFARLNNSFWLPPLSLEGAGTGWTLYAPLSHSGPSVDLAFHLTSSLLGAINFTNMRGPLFWTALLLLSLPVLAATLLDRNFNTFEGGDPLYHLFWFYMYKDYYIIPGFGSHSTYKKFGMYASIGLGFVWSHHMFVGLDDRAYFTSATMIAPTGIKFSWLATYGGRPMLAFLFLFTGGTGVLNASDAFHDTYYVVHFHYVLSMGAFSLGYYYWYGLYNLFWFNFPMHFLGGMPRRPYPDAGWNSGSSYQLGPDESNEPH'
p1676
sg123
F0.052440000000000001
sg124
g125
sg33
S'195'
p1677
sg127
g1
(g128
g12
(dp1678
g130
I4
sg131
g132
sg133
g134
sg135
g132
sg136
I01
sg34
g137
sg138
g134
sg139
I0
sg140
I0
sg141
I0
sg142
g134
sg35
g143
sg144
I0
stRp1679
sg146
g147
sg148
F1
sg149
Nsg30
S'CchauA'
p1680
sbasg120
g1613
sg123
F0.16861999999999999
sg124
g125
sg33
S'163'
p1681
sg127
g1
(g128
g12
(dp1682
g130
I6
sg131
g132
sg133
g134
sg135
g132
sg136
I01
sg34
g174
sg138
g134
sg139
I0
sg140
I0
sg141
I0
sg142
g134
sg35
g175
sg144
I0
stRp1683
sg146
g147
sg148
F0.98999999999999999
sg149
Nsg30
S'NoName'
p1684
sbag1
(g2
g3
NtRp1685
(dp1686
g6
g1
(g7
g3
NtRp1687
(dp1688
g10
g1
(g11
g12
(dtRp1689
sg14
g1
(g11
g12
(dtRp1690
sg16
g1
(g11
g12
(dtRp1691
sg18
g1
(g11
g12
(dtRp1692
sg20
g1
(g11
g12
(dtRp1693
sg22
g1
(g11
g12
(dtRp1694
sbsg24
S'Cbo'
p1695
sg26
g27
((lp1696
g29
ag30
aS'sequence'
p1697
ag32
ag33
aS'species'
p1698
atRp1699
sg37
(lp1700
sg120
g1613
sg121
S'RWLSTKDLYSRMELPGLNQNVHAMFVMPLGFGNPMGDMFARLNNSFWLPPLSLEGAGTGWTVYPPLSHSGPSVDLAFHLTSSLLGAINFTNMRGPLFWTALLLLSLPVLAATLLDRNFNTFEGGDPLYHLFWFFGHPEVYIIPGFGSHSTYKKFGMYASIGLGFVWSHHMYVGLDDRAYFTSATMIAPTGIKFSWLATYGGRPMLAFLFLFTGGTGVLNASDAFHDTYYVVHFHYVLSMGAFSLAYYYWYGLYNLFWFNFPMHFLGGMPRRPYPDAGWNSGSSYQLGPDESNEPH'
p1701
sg123
F0.20199
sg124
g125
sg33
S'206'
p1702
sg127
g1
(g128
g12
(dp1703
g130
I4
sg131
g132
sg133
g134
sg135
g132
sg136
I01
sg34
g137
sg138
g134
sg139
I0
sg140
I0
sg141
I0
sg142
g134
sg35
g143
sg144
I0
stRp1704
sg146
g147
sg148
F1
sg149
Nsg30
S'CbohiA'
p1705
sbasg120
g1010
sg123
F0.14915999999999999
sg124
g125
sg33
S'87'
p1706
sg127
g1
(g128
g12
(dp1707
g130
I6
sg131
g132
sg133
g134
sg135
g132
sg136
I01
sg34
g174
sg138
g134
sg139
I0
sg140
I0
sg141
I0
sg142
g134
sg35
g175
sg144
I0
stRp1708
sg146
g147
sg148
F0.98999999999999999
sg149
Nsg30
S'NoName'
p1709
sbasg120
g997
sg123
F0.036799999999999999
sg124
g125
sg33
S'41'
p1710
sg127
g1
(g128
g12
(dp1711
g130
I6
sg131
g132
sg133
g134
sg135
g132
sg136
I01
sg34
g174
sg138
g134
sg139
I0
sg140
I0
sg141
I0
sg142
g134
sg35
g175
sg144
I0
stRp1712
sg146
g147
sg148
F0.98999999999999999
sg149
Nsg30
S'NoName'
p1713
sbag1
(g2
g3
NtRp1714
(dp1715
g6
g1
(g7
g3
NtRp1716
(dp1717
g10
g1
(g11
g12
(dtRp1718
sg14
g1
(g11
g12
(dtRp1719
sg16
g1
(g11
g12
(dtRp1720
sg18
g1
(g11
g12
(dtRp1721
sg20
g1
(g11
g12
(dtRp1722
sg22
g1
(g11
g12
(dtRp1723
sbsg24
g25
sg26
g27
((lp1724
g33
ag32
ag29
ag30
atRp1725
sg37
(lp1726
g1
(g2
g3
NtRp1727
(dp1728
g6
g1
(g7
g3
NtRp1729
(dp1730
g10
g1
(g11
g12
(dtRp1731
sg14
g1
(g11
g12
(dtRp1732
sg16
g1
(g11
g12
(dtRp1733
sg18
g1
(g11
g12
(dtRp1734
sg20
g1
(g11
g12
(dtRp1735
sg22
g1
(g11
g12
(dtRp1736
sbsg24
g25
sg26
g27
((lp1737
g33
ag32
ag29
ag30
atRp1738
sg37
(lp1739
g1
(g2
g3
NtRp1740
(dp1741
g6
g1
(g7
g3
NtRp1742
(dp1743
g10
g1
(g11
g12
(dtRp1744
sg14
g1
(g11
g12
(dtRp1745
sg16
g1
(g11
g12
(dtRp1746
sg18
g1
(g11
g12
(dtRp1747
sg20
g1
(g11
g12
(dtRp1748
sg22
g1
(g11
g12
(dtRp1749
sbsg24
S'Cma'
p1750
sg26
g27
((lp1751
g29
ag30
aS'sequence'
p1752
ag32
ag33
aS'species'
p1753
atRp1754
sg37
(lp1755
sg120
g1727
sg121
S'RWLSTKDLYSRLELPGLSQNVHAMFVMPLGFGNPLGDMFARLNNSFWLPPLSLEGAGTGWTVYPPLSHSGPSVDLAFHLTSSLLGAINFTNMRGPLYWTALLLLSLPVLAGTLLDRNFNTFEGGDPLYHLFWFFGHPEVYMIPGFGSHSTYKKFGMYASMGLGFVWSHHMYVGLDDRAYFTSATMIAPTGIKFSWLATYGGRPMLAFLFLFTGGTGVLNASDAFHDTYYVVHFHYVLSMGAFSLGYYYWSGLYNLYWFNFPMHFLGGMPRRPYPDAGWNSGSSYQLGPDESNEPH'
p1756
sg123
F0.24277000000000001
sg124
g125
sg33
S'115'
p1757
sg127
g1
(g128
g12
(dp1758
g130
I4
sg131
g132
sg133
g134
sg135
g132
sg136
I01
sg34
g137
sg138
g134
sg139
I0
sg140
I0
sg141
I0
sg142
g134
sg35
g143
sg144
I0
stRp1759
sg146
g147
sg148
F1
sg149
Nsg30
S'CmaltA'
p1760
sbag1
(g2
g3
NtRp1761
(dp1762
g6
g1
(g7
g3
NtRp1763
(dp1764
g10
g1
(g11
g12
(dtRp1765
sg14
g1
(g11
g12
(dtRp1766
sg16
g1
(g11
g12
(dtRp1767
sg18
g1
(g11
g12
(dtRp1768
sg20
g1
(g11
g12
(dtRp1769
sg22
g1
(g11
g12
(dtRp1770
sbsg24
g25
sg26
g27
((lp1771
g33
ag32
ag29
ag30
atRp1772
sg37
(lp1773
g1
(g2
g3
NtRp1774
(dp1775
g6
g1
(g7
g3
NtRp1776
(dp1777
g10
g1
(g11
g12
(dtRp1778
sg14
g1
(g11
g12
(dtRp1779
sg16
g1
(g11
g12
(dtRp1780
sg18
g1
(g11
g12
(dtRp1781
sg20
g1
(g11
g12
(dtRp1782
sg22
g1
(g11
g12
(dtRp1783
sbsg24
g25
sg26
g27
((lp1784
g33
ag32
ag29
ag30
atRp1785
sg37
(lp1786
g1
(g2
g3
NtRp1787
(dp1788
g6
g1
(g7
g3
NtRp1789
(dp1790
g10
g1
(g11
g12
(dtRp1791
sg14
g1
(g11
g12
(dtRp1792
sg16
g1
(g11
g12
(dtRp1793
sg18
g1
(g11
g12
(dtRp1794
sg20
g1
(g11
g12
(dtRp1795
sg22
g1
(g11
g12
(dtRp1796
sbsg24
g25
sg26
g27
((lp1797
g33
ag32
ag29
ag30
atRp1798
sg37
(lp1799
g1
(g2
g3
NtRp1800
(dp1801
g6
g1
(g7
g3
NtRp1802
(dp1803
g10
g1
(g11
g12
(dtRp1804
sg14
g1
(g11
g12
(dtRp1805
sg16
g1
(g11
g12
(dtRp1806
sg18
g1
(g11
g12
(dtRp1807
sg20
g1
(g11
g12
(dtRp1808
sg22
g1
(g11
g12
(dtRp1809
sbsg24
g25
sg26
g27
((lp1810
g33
ag32
ag29
ag30
atRp1811
sg37
(lp1812
g1
(g2
g3
NtRp1813
(dp1814
g6
g1
(g7
g3
NtRp1815
(dp1816
g10
g1
(g11
g12
(dtRp1817
sg14
g1
(g11
g12
(dtRp1818
sg16
g1
(g11
g12
(dtRp1819
sg18
g1
(g11
g12
(dtRp1820
sg20
g1
(g11
g12
(dtRp1821
sg22
g1
(g11
g12
(dtRp1822
sbsg24
S'Ctr'
p1823
sg26
g27
((lp1824
g29
ag30
aS'sequence'
p1825
ag32
ag33
aS'species'
p1826
atRp1827
sg37
(lp1828
sg120
g1800
sg121
S'RWLSTKDLYSRLELPGLNQNVHAMFVMPLGFGNPMGDMFARLNNSFWLPPLSLEGAGTGWTVYPPLSHSGPSVDLAFHLTSSLLGAINFTNMRGPLFWTALLLLSLPVLAGTLLDRNFNTFEGGDPLYHLFWFFGHPEVYIIPGFGSHSTYKKFGMYASIGLGFVWSHHMYVGLDDRAYFTSATMIAPTGIKFSWLATYGGRPMLAFLFLFTGGTGVLNASDAFHDSYYVVHFHYVLSMGAFSLGYYYWPGLYNLYWFNFPMHFLGGMPRRPYPDAGWNSGSSYQLGPDEANEPH'
p1829
sg123
F0.00064000000000000005
sg124
g125
sg33
S'123'
p1830
sg127
g1
(g128
g12
(dp1831
g130
I4
sg131
g132
sg133
g134
sg135
g132
sg136
I01
sg34
g137
sg138
g134
sg139
I0
sg140
I0
sg141
I0
sg142
g134
sg35
g143
sg144
I0
stRp1832
sg146
g147
sg148
F1
sg149
Nsg30
S'CtropB'
p1833
sbag1
(g2
g3
NtRp1834
(dp1835
g6
g1
(g7
g3
NtRp1836
(dp1837
g10
g1
(g11
g12
(dtRp1838
sg14
g1
(g11
g12
(dtRp1839
sg16
g1
(g11
g12
(dtRp1840
sg18
g1
(g11
g12
(dtRp1841
sg20
g1
(g11
g12
(dtRp1842
sg22
g1
(g11
g12
(dtRp1843
sbsg24
S'Ctr'
p1844
sg26
g27
((lp1845
g29
ag30
aS'sequence'
p1846
ag32
ag33
aS'species'
p1847
atRp1848
sg37
(lp1849
sg120
g1800
sg121
S'RWLSTKDLYSRLELPGLNQNVHAMFVMPLGFGNPMGDMFARLNNSFWLPPLSLEGAGTGWTVYPPLSHSGPSVDLAFHLTSSLLGAINFTNMRGPLFWTALLLLSLPVLAGTLLDRNFNTFEGGDPLYHLFWFFGHPEVYIIPGFGSHSTYKKFGMYASIGLGFVWSHHMYVGLDDRAYFTSATMIAPTGIKFSWLATYGGRPMLAFLFLFTGGTGVLNASDAFHDSYYVVHFHYVLSMGAFSLGYYYWPGLYNLYWFNFPMHFLGGMPRRPYPDAGWNSGSSYQLGPDEANEPH'
p1850
sg123
F0.00040000000000000002
sg124
g125
sg33
S'125'
p1851
sg127
g1
(g128
g12
(dp1852
g130
I4
sg131
g132
sg133
g134
sg135
g132
sg136
I01
sg34
g137
sg138
g134
sg139
I0
sg140
I0
sg141
I0
sg142
g134
sg35
g143
sg144
I0
stRp1853
sg146
g147
sg148
F1
sg149
Nsg30
S'CtropA'
p1854
sbasg120
g1787
sg123
F0.032030000000000003
sg124
g125
sg33
S'120'
p1855
sg127
g1
(g128
g12
(dp1856
g130
I6
sg131
g132
sg133
g134
sg135
g132
sg136
I01
sg34
g174
sg138
g134
sg139
I0
sg140
I0
sg141
I0
sg142
g134
sg35
g175
sg144
I0
stRp1857
sg146
g147
sg148
F0.98999999999999999
sg149
Nsg30
S'NoName'
p1858
sbag1
(g2
g3
NtRp1859
(dp1860
g6
g1
(g7
g3
NtRp1861
(dp1862
g10
g1
(g11
g12
(dtRp1863
sg14
g1
(g11
g12
(dtRp1864
sg16
g1
(g11
g12
(dtRp1865
sg18
g1
(g11
g12
(dtRp1866
sg20
g1
(g11
g12
(dtRp1867
sg22
g1
(g11
g12
(dtRp1868
sbsg24
S'Cso'
p1869
sg26
g27
((lp1870
g29
ag30
aS'sequence'
p1871
ag32
ag33
aS'species'
p1872
atRp1873
sg37
(lp1874
sg120
g1787
sg121
S'RWLSTKDLYSRLELPGLNQNVHAMFVMPLGFGNPMGDMFARLNNSFWLPPLSLEGAGTGWTVYPPLSHSGPSVDLAFHLTSSLLGAMNFTNMRGPLFWTALLLLSLPVLAGTLLDRNFNTFEGGDPLYHLFWFFGHPEVYIIPGFGSHSTYKKFGMYASIGLGFVWSHHMYVGLDDRAYFTSATMIAPTGIKFSWLATYGGRPMLAFLFLFTGGTGVLNASDAFHDTYYVVHFHYVLSMGAFSLGYYYWPGLYNLYWFNFPMHFLGGMPRRPYPDAGWNSGSSYQLGPDEANEPH'
p1875
sg123
F0.033649999999999999
sg124
g125
sg33
S'127'
p1876
sg127
g1
(g128
g12
(dp1877
g130
I4
sg131
g132
sg133
g134
sg135
g132
sg136
I01
sg34
g137
sg138
g134
sg139
I0
sg140
I0
sg141
I0
sg142
g134
sg35
g143
sg144
I0
stRp1878
sg146
g147
sg148
F1
sg149
Nsg30
S'CsojaA'
p1879
sbasg120
g1774
sg123
F0.019990000000000001
sg124
g125
sg33
S'118'
p1880
sg127
g1
(g128
g12
(dp1881
g130
I6
sg131
g132
sg133
g134
sg135
g132
sg136
I01
sg34
g174
sg138
g134
sg139
I0
sg140
I0
sg141
I0
sg142
g134
sg35
g175
sg144
I0
stRp1882
sg146
g147
sg148
F0.98999999999999999
sg149
Nsg30
S'NoName'
p1883
sbag1
(g2
g3
NtRp1884
(dp1885
g6
g1
(g7
g3
NtRp1886
(dp1887
g10
g1
(g11
g12
(dtRp1888
sg14
g1
(g11
g12
(dtRp1889
sg16
g1
(g11
g12
(dtRp1890
sg18
g1
(g11
g12
(dtRp1891
sg20
g1
(g11
g12
(dtRp1892
sg22
g1
(g11
g12
(dtRp1893
sbsg24
g25
sg26
g27
((lp1894
g33
ag32
ag29
ag30
atRp1895
sg37
(lp1896
g1
(g2
g3
NtRp1897
(dp1898
g6
g1
(g7
g3
NtRp1899
(dp1900
g10
g1
(g11
g12
(dtRp1901
sg14
g1
(g11
g12
(dtRp1902
sg16
g1
(g11
g12
(dtRp1903
sg18
g1
(g11
g12
(dtRp1904
sg20
g1
(g11
g12
(dtRp1905
sg22
g1
(g11
g12
(dtRp1906
sbsg24
S'Cte'
p1907
sg26
g27
((lp1908
g29
ag30
aS'sequence'
p1909
ag32
ag33
aS'species'
p1910
atRp1911
sg37
(lp1912
sg120
g1884
sg121
S'RWLSTKDLYSRLELPGLNQNVHAMFVMPLGFGNPMGDMFARLNNSFWLPPLSLEGAGTGWTVYPPLSHSGPSVDMAFHLTSSLLGAINFTNMRGPLFWTALLLLSLPVLAGTLLDRNFNTFEGGDPLYHLFWFFGHPEVYIIPGFGSHSTYKKFGMYASIGLGFVWSHHMFVGLDDRAYFTSATMMAPTGIKFSWLATYGGRPMLAFLFLFTGGTGVLNASDSMHDTYYVVHFHYVLSMGAFSLGYYYWPGLYNLYWFNFPMHFLGGMPRRPYPDAGWNSGSSLQLGPDESNEPH'
p1913
sg123
F0.084209999999999993
sg124
g125
sg33
S'131'
p1914
sg127
g1
(g128
g12
(dp1915
g130
I4
sg131
g132
sg133
g134
sg135
g132
sg136
I01
sg34
g137
sg138
g134
sg139
I0
sg140
I0
sg141
I0
sg142
g134
sg35
g143
sg144
I0
stRp1916
sg146
g147
sg148
F1
sg149
Nsg30
S'CtetrA'
p1917
sbag1
(g2
g3
NtRp1918
(dp1919
g6
g1
(g7
g3
NtRp1920
(dp1921
g10
g1
(g11
g12
(dtRp1922
sg14
g1
(g11
g12
(dtRp1923
sg16
g1
(g11
g12
(dtRp1924
sg18
g1
(g11
g12
(dtRp1925
sg20
g1
(g11
g12
(dtRp1926
sg22
g1
(g11
g12
(dtRp1927
sbsg24
g25
sg26
g27
((lp1928
g33
ag32
ag29
ag30
atRp1929
sg37
(lp1930
g1
(g2
g3
NtRp1931
(dp1932
g6
g1
(g7
g3
NtRp1933
(dp1934
g10
g1
(g11
g12
(dtRp1935
sg14
g1
(g11
g12
(dtRp1936
sg16
g1
(g11
g12
(dtRp1937
sg18
g1
(g11
g12
(dtRp1938
sg20
g1
(g11
g12
(dtRp1939
sg22
g1
(g11
g12
(dtRp1940
sbsg24
g25
sg26
g27
((lp1941
g33
ag32
ag29
ag30
atRp1942
sg37
(lp1943
g1
(g2
g3
NtRp1944
(dp1945
g6
g1
(g7
g3
NtRp1946
(dp1947
g10
g1
(g11
g12
(dtRp1948
sg14
g1
(g11
g12
(dtRp1949
sg16
g1
(g11
g12
(dtRp1950
sg18
g1
(g11
g12
(dtRp1951
sg20
g1
(g11
g12
(dtRp1952
sg22
g1
(g11
g12
(dtRp1953
sbsg24
S'Cvi'
p1954
sg26
g27
((lp1955
g29
ag30
aS'sequence'
p1956
ag32
ag33
aS'species'
p1957
atRp1958
sg37
(lp1959
sg120
g1931
sg121
S'RWFSTKDLYSRLELPGLNQNVHAMFVMPLGFGNPMGDMFARLNNSFWLPPLSLEGAGTGWTVYPPLSHSGPSVDLAFHLTSSLLGAINFTNMRGPLFWTALLLLSLPVLAGTLLDRNFNTFDGGDPLYHLFWFFGHPEVYMIPGFGSHSTYKKFGMYASIGLGFVWSHHMYVGLDDRAYFTSATMIAPTGIKFSWLSTYGGRPTLAFLFLFTGGTGVLNASDSMHDTYYVVHFHYVLSMGAFSLGYYYWPGLYNLYWFNFPMHFLGGMPRRPYPDSGWNSGSSFQLGPDESNEPH'
p1960
sg123
F0.03977
sg124
g125
sg33
S'136'
p1961
sg127
g1
(g128
g12
(dp1962
g130
I4
sg131
g132
sg133
g134
sg135
g132
sg136
I01
sg34
g137
sg138
g134
sg139
I0
sg140
I0
sg141
I0
sg142
g134
sg35
g143
sg144
I0
stRp1963
sg146
g147
sg148
F1
sg149
Nsg30
S'CviswA'
p1964
sbag1
(g2
g3
NtRp1965
(dp1966
g6
g1
(g7
g3
NtRp1967
(dp1968
g10
g1
(g11
g12
(dtRp1969
sg14
g1
(g11
g12
(dtRp1970
sg16
g1
(g11
g12
(dtRp1971
sg18
g1
(g11
g12
(dtRp1972
sg20
g1
(g11
g12
(dtRp1973
sg22
g1
(g11
g12
(dtRp1974
sbsg24
S'Csa'
p1975
sg26
g27
((lp1976
g29
ag30
aS'sequence'
p1977
ag32
ag33
aS'species'
p1978
atRp1979
sg37
(lp1980
sg120
g1931
sg121
S'RWFSTKDLYSRLELPGLNQNVHAMFVMPLGFGNPMGDMFARLNNSFWLPPLSLEGAGTGWTVYPPLSHSGPSVDLAFHLTSSLLGAINFTNMRGVLFWTALLLLSLPVLAGTLLDRNFNTFDGGDPLYHLFWFFGHPEVYIIPGFGSHSTFKKFGMYASIGLGFVWSHHMYVGLDDRAYFTSATMIAPTGIKFSWIATYGGRPTLAFLFLFTGGTGVLNASDSMHDTYYVVHFHYVLSMGAFSLGYYYWPGLYNLYWFNFPMHFLGGMPRRPYPDSGWNSGSSYQLGPDEGNEPH'
p1981
sg123
F0.065189999999999998
sg124
g125
sg33
S'137'
p1982
sg127
g1
(g128
g12
(dp1983
g130
I4
sg131
g132
sg133
g134
sg135
g132
sg136
I01
sg34
g137
sg138
g134
sg139
I0
sg140
I0
sg141
I0
sg142
g134
sg35
g143
sg144
I0
stRp1984
sg146
g147
sg148
F1
sg149
Nsg30
S'CsaraA'
p1985
sbasg120
g1918
sg123
F0.029960000000000001
sg124
g125
sg33
S'133'
p1986
sg127
g1
(g128
g12
(dp1987
g130
I6
sg131
g132
sg133
g134
sg135
g132
sg136
I01
sg34
g174
sg138
g134
sg139
I0
sg140
I0
sg141
I0
sg142
g134
sg35
g175
sg144
I0
stRp1988
sg146
g147
sg148
F0.98999999999999999
sg149
Nsg30
S'NoName'
p1989
sbag1
(g2
g3
NtRp1990
(dp1991
g6
g1
(g7
g3
NtRp1992
(dp1993
g10
g1
(g11
g12
(dtRp1994
sg14
g1
(g11
g12
(dtRp1995
sg16
g1
(g11
g12
(dtRp1996
sg18
g1
(g11
g12
(dtRp1997
sg20
g1
(g11
g12
(dtRp1998
sg22
g1
(g11
g12
(dtRp1999
sbsg24
S'Cpr'
p2000
sg26
g27
((lp2001
g29
ag30
aS'sequence'
p2002
ag32
ag33
aS'species'
p2003
atRp2004
sg37
(lp2005
sg120
g1918
sg121
S'RWFSTKDEYSRLELPGLNQNVHAMFVMPLGFGNPMGDMFARLNNSFWLPPLSLEGAGTGWTVYPPLSHSGPSVDLAFHLTSSLLGAINFTNMRGPLFWTALLLLSLPVLTGTLLDRNFNTFDGGDPLYHLFWFFGHPEVYMIPGFGSHSTYKKFGMYASMGLGFVWSHHMFVGLDDRAYFTSATMMAPTGIKFSWLATYGGRPMLAFLFLFTGGTGVLNASDSMHDTYYVVHFHYVLSMGAFSLGYYYWPGLYNLYWFNFPMHFLGGMPRRPYPDSGWNSGSSVQLGPDENNEPH'
p2006
sg123
F0.17724999999999999
sg124
g125
sg33
S'139'
p2007
sg127
g1
(g128
g12
(dp2008
g130
I4
sg131
g132
sg133
g134
sg135
g132
sg136
I01
sg34
g137
sg138
g134
sg139
I0
sg140
I0
sg141
I0
sg142
g134
sg35
g143
sg144
I0
stRp2009
sg146
g147
sg148
F1
sg149
Nsg30
S'CpracA'
p2010
sbasg120
g1884
sg123
F0.02281
sg124
g125
sg33
S'129'
p2011
sg127
g1
(g128
g12
(dp2012
g130
I6
sg131
g132
sg133
g134
sg135
g132
sg136
I01
sg34
g174
sg138
g134
sg139
I0
sg140
I0
sg141
I0
sg142
g134
sg35
g175
sg144
I0
stRp2013
sg146
g147
sg148
F0.98999999999999999
sg149
Nsg30
S'NoName'
p2014
sbasg120
g1774
sg123
F0.01154
sg124
g125
sg33
S'122'
p2015
sg127
g1
(g128
g12
(dp2016
g130
I6
sg131
g132
sg133
g134
sg135
g132
sg136
I01
sg34
g174
sg138
g134
sg139
I0
sg140
I0
sg141
I0
sg142
g134
sg35
g175
sg144
I0
stRp2017
sg146
g147
sg148
F0.98999999999999999
sg149
Nsg30
S'NoName'
p2018
sbasg120
g1761
sg123
F0.02138
sg124
g125
sg33
S'116'
p2019
sg127
g1
(g128
g12
(dp2020
g130
I6
sg131
g132
sg133
g134
sg135
g132
sg136
I01
sg34
g174
sg138
g134
sg139
I0
sg140
I0
sg141
I0
sg142
g134
sg35
g175
sg144
I0
stRp2021
sg146
g147
sg148
F0.98999999999999999
sg149
Nsg30
S'NoName'
p2022
sbag1
(g2
g3
NtRp2023
(dp2024
g6
g1
(g7
g3
NtRp2025
(dp2026
g10
g1
(g11
g12
(dtRp2027
sg14
g1
(g11
g12
(dtRp2028
sg16
g1
(g11
g12
(dtRp2029
sg18
g1
(g11
g12
(dtRp2030
sg20
g1
(g11
g12
(dtRp2031
sg22
g1
(g11
g12
(dtRp2032
sbsg24
g25
sg26
g27
((lp2033
g33
ag32
ag29
ag30
atRp2034
sg37
(lp2035
g1
(g2
g3
NtRp2036
(dp2037
g6
g1
(g7
g3
NtRp2038
(dp2039
g10
g1
(g11
g12
(dtRp2040
sg14
g1
(g11
g12
(dtRp2041
sg16
g1
(g11
g12
(dtRp2042
sg18
g1
(g11
g12
(dtRp2043
sg20
g1
(g11
g12
(dtRp2044
sg22
g1
(g11
g12
(dtRp2045
sbsg24
S'Cne'
p2046
sg26
g27
((lp2047
g29
ag30
aS'sequence'
p2048
ag32
ag33
aS'species'
p2049
atRp2050
sg37
(lp2051
sg120
g2023
sg121
S'RWLSTKDLYSRLELPGLNQNVHAMFVMPLGFGNPMGDMFARLNNSFWLPPLSLEGAGTGWTVYPPLSHSGPSVDLAFHLTSSLLGAINFTNMRGPLFWTALLLLSLPVLAGTLLDRNFNTFDGGDPLYHLFWFFGHPEVYIIPGFGSHSTYKKFGMYASIGLGFVWSHHMYVGLDDRAYFTSATMIAPTGIKFSWLATYGGRPMLAFLFLFTGGTGVLNASDAFHDTYYVVHFHYVLSMGAFSLGYYYWPGLYNLYWFNFPMHFLGGMPRRPYPDSGWNSGSSYQLGPDESNEPH'
p2052
sg123
F0.04879
sg124
g125
sg33
S'142'
p2053
sg127
g1
(g128
g12
(dp2054
g130
I4
sg131
g132
sg133
g134
sg135
g132
sg136
I01
sg34
g137
sg138
g134
sg139
I0
sg140
I0
sg141
I0
sg142
g134
sg35
g143
sg144
I0
stRp2055
sg146
g147
sg148
F1
sg149
Nsg30
S'CneerA'
p2056
sbag1
(g2
g3
NtRp2057
(dp2058
g6
g1
(g7
g3
NtRp2059
(dp2060
g10
g1
(g11
g12
(dtRp2061
sg14
g1
(g11
g12
(dtRp2062
sg16
g1
(g11
g12
(dtRp2063
sg18
g1
(g11
g12
(dtRp2064
sg20
g1
(g11
g12
(dtRp2065
sg22
g1
(g11
g12
(dtRp2066
sbsg24
S'Cfr'
p2067
sg26
g27
((lp2068
g29
ag30
aS'sequence'
p2069
ag32
ag33
aS'species'
p2070
atRp2071
sg37
(lp2072
sg120
g2023
sg121
S'RWLSTKDLYSRLELPGLNQNVHAMFVMPLGFGNPMGDMFARLNNSFWLPPLSLEGAGTGWTVYPPLSHSGPSVDLAFHLTSSLLGAMNFTNMRGPLFWTALLLLSLPVLAGTLLDRNFNTFDGGDPLYHLFWFFGHPEVYIIPGFGSHSTYKKFGMYASIGLGFVWSHHMYVGLDDRAYFTSATMIAPTGIKFSWLSTYGGRPMLAFLFLFTGGTGVLNASDAFHDTYYVVHFHYVLSMGAFSLGYYYWPGLYNLYWFNFPMHFLGGMPRRPYPDSGWNSGSSYQLGPDESNEPH'
p2073
sg123
F0.050279999999999998
sg124
g125
sg33
S'144'
p2074
sg127
g1
(g128
g12
(dp2075
g130
I4
sg131
g132
sg133
g134
sg135
g132
sg136
I01
sg34
g137
sg138
g134
sg139
I0
sg140
I0
sg141
I0
sg142
g134
sg35
g143
sg144
I0
stRp2076
sg146
g147
sg148
F1
sg149
Nsg30
S'CfrijA'
p2077
sbasg120
g1761
sg123
F0.11378000000000001
sg124
g125
sg33
S'134'
p2078
sg127
g1
(g128
g12
(dp2079
g130
I6
sg131
g132
sg133
g134
sg135
g132
sg136
I01
sg34
g174
sg138
g134
sg139
I0
sg140
I0
sg141
I0
sg142
g134
sg35
g175
sg144
I0
stRp2080
sg146
g147
sg148
F0.98999999999999999
sg149
Nsg30
S'NoName'
p2081
sbasg120
g1727
sg123
F0.076910000000000006
sg124
g125
sg33
S'113'
p2082
sg127
g1
(g128
g12
(dp2083
g130
I6
sg131
g132
sg133
g134
sg135
g132
sg136
I01
sg34
g174
sg138
g134
sg139
I0
sg140
I0
sg141
I0
sg142
g134
sg35
g175
sg144
I0
stRp2084
sg146
g147
sg148
F0.98999999999999999
sg149
Nsg30
S'NoName'
p2085
sbasg120
g1714
sg123
F0.022950000000000002
sg124
g125
sg33
S'217'
p2086
sg127
g1
(g128
g12
(dp2087
g130
I6
sg131
g132
sg133
g134
sg135
g132
sg136
I01
sg34
g174
sg138
g134
sg139
I0
sg140
I0
sg141
I0
sg142
g134
sg35
g175
sg144
I0
stRp2088
sg146
g147
sg148
F0.65000000000000002
sg149
Nsg30
S'NoName'
p2089
sbag1
(g2
g3
NtRp2090
(dp2091
g6
g1
(g7
g3
NtRp2092
(dp2093
g10
g1
(g11
g12
(dtRp2094
sg14
g1
(g11
g12
(dtRp2095
sg16
g1
(g11
g12
(dtRp2096
sg18
g1
(g11
g12
(dtRp2097
sg20
g1
(g11
g12
(dtRp2098
sg22
g1
(g11
g12
(dtRp2099
sbsg24
g25
sg26
g27
((lp2100
g33
ag32
ag29
ag30
atRp2101
sg37
(lp2102
g1
(g2
g3
NtRp2103
(dp2104
g6
g1
(g7
g3
NtRp2105
(dp2106
g10
g1
(g11
g12
(dtRp2107
sg14
g1
(g11
g12
(dtRp2108
sg16
g1
(g11
g12
(dtRp2109
sg18
g1
(g11
g12
(dtRp2110
sg20
g1
(g11
g12
(dtRp2111
sg22
g1
(g11
g12
(dtRp2112
sbsg24
g25
sg26
g27
((lp2113
g33
ag32
ag29
ag30
atRp2114
sg37
(lp2115
g1
(g2
g3
NtRp2116
(dp2117
g6
g1
(g7
g3
NtRp2118
(dp2119
g10
g1
(g11
g12
(dtRp2120
sg14
g1
(g11
g12
(dtRp2121
sg16
g1
(g11
g12
(dtRp2122
sg18
g1
(g11
g12
(dtRp2123
sg20
g1
(g11
g12
(dtRp2124
sg22
g1
(g11
g12
(dtRp2125
sbsg24
S'Cgi'
p2126
sg26
g27
((lp2127
g29
ag30
aS'sequence'
p2128
ag32
ag33
aS'species'
p2129
atRp2130
sg37
(lp2131
sg120
g2103
sg121
S'RWLSTKDLYSRLELAGLNQNVHAMFVMPLGFGNPMGDMFARLNNSFWLPPLSLEGAGTGWTVYPPLSHSGPSVDMAFHLTSSLLGAINFTNMRGPLFWTALLLLSLPVLAATLLDRNFNTFEGGDPLYHAFWFFGHPEVYIIPGFGSHSTYKKFGMYASIGLGFVWSHHMYVGLDDRAYFTSATMIAPTGIKFSWLATYGGRPMLAFLFLFTGGTGVLNASDAFHDTYYVVHFHYVLSMGAFSLGYYYWPGLYNLYWFNFPMHFLGGMPRRPYPDAGWNSGSSYQLGPDESNEPH'
p2132
sg123
F0.22796
sg124
g125
sg33
S'149'
p2133
sg127
g1
(g128
g12
(dp2134
g130
I4
sg131
g132
sg133
g134
sg135
g132
sg136
I01
sg34
g137
sg138
g134
sg139
I0
sg140
I0
sg141
I0
sg142
g134
sg35
g143
sg144
I0
stRp2135
sg146
g147
sg148
F1
sg149
Nsg30
S'CgigaA'
p2136
sbag1
(g2
g3
NtRp2137
(dp2138
g6
g1
(g7
g3
NtRp2139
(dp2140
g10
g1
(g11
g12
(dtRp2141
sg14
g1
(g11
g12
(dtRp2142
sg16
g1
(g11
g12
(dtRp2143
sg18
g1
(g11
g12
(dtRp2144
sg20
g1
(g11
g12
(dtRp2145
sg22
g1
(g11
g12
(dtRp2146
sbsg24
S'Cbu'
p2147
sg26
g27
((lp2148
g29
ag30
aS'sequence'
p2149
ag32
ag33
aS'species'
p2150
atRp2151
sg37
(lp2152
sg120
g2103
sg121
S'RWLSTKDLYSRLELAGLNQNVHAMFVMPLGFGNPMGDMFARLNNSFWLPPLSLEGAGTGWTVYPPLSHSGPSVDLAFHLTSSLLGAINFTNMRGPLFWTALLLLSLPVLAGTLLDRNFNTFEGGDPLYHLFWFFGHPEVYIIPGFGSHGTYKKFGMYASIGLGFVWSHHMFVGLDDRAYFTSATMIAPTGIKFSWLATYGGRPMLAFLFLFTGGTGVLNASDAFHDTYYVVHFHYVLSMGAFSLAYYYWPGLYNLFWFNFPMHFLGGMPRRPYPDAGWNSGSSYQLGPDESNEPH'
p2153
sg123
F0.26118000000000002
sg124
g125
sg33
S'151'
p2154
sg127
g1
(g128
g12
(dp2155
g130
I4
sg131
g132
sg133
g134
sg135
g132
sg136
I01
sg34
g137
sg138
g134
sg139
I0
sg140
I0
sg141
I0
sg142
g134
sg35
g143
sg144
I0
stRp2156
sg146
g147
sg148
F1
sg149
Nsg30
S'CbuenA'
p2157
sbasg120
g2090
sg123
F0.037260000000000001
sg124
g125
sg33
S'146'
p2158
sg127
g1
(g128
g12
(dp2159
g130
I6
sg131
g132
sg133
g134
sg135
g132
sg136
I01
sg34
g174
sg138
g134
sg139
I0
sg140
I0
sg141
I0
sg142
g134
sg35
g175
sg144
I0
stRp2160
sg146
g147
sg148
F0.98999999999999999
sg149
Nsg30
S'NoName'
p2161
sbag1
(g2
g3
NtRp2162
(dp2163
g6
g1
(g7
g3
NtRp2164
(dp2165
g10
g1
(g11
g12
(dtRp2166
sg14
g1
(g11
g12
(dtRp2167
sg16
g1
(g11
g12
(dtRp2168
sg18
g1
(g11
g12
(dtRp2169
sg20
g1
(g11
g12
(dtRp2170
sg22
g1
(g11
g12
(dtRp2171
sbsg24
g25
sg26
g27
((lp2172
g33
ag32
ag29
ag30
atRp2173
sg37
(lp2174
g1
(g2
g3
NtRp2175
(dp2176
g6
g1
(g7
g3
NtRp2177
(dp2178
g10
g1
(g11
g12
(dtRp2179
sg14
g1
(g11
g12
(dtRp2180
sg16
g1
(g11
g12
(dtRp2181
sg18
g1
(g11
g12
(dtRp2182
sg20
g1
(g11
g12
(dtRp2183
sg22
g1
(g11
g12
(dtRp2184
sbsg24
S'Cdu'
p2185
sg26
g27
((lp2186
g29
ag30
aS'sequence'
p2187
ag32
ag33
aS'species'
p2188
atRp2189
sg37
(lp2190
sg120
g2162
sg121
S'RWLSTKDLYSRLELPGLNQNVHAMFVMPLGFGNPMGDMFARLNNSFWLPPLSLEGAGTGWTVYPPLSHSGPSVDLAFHLTSSLLGAINFTNMRGPLYWTALLLLSLPVLAGTLLDRNFNTFEGGDPLYHLFWFFGHPEVYIIPGFGSHSTYKKFGMYASIGLGFVWSHHMYVGLDDRAYFTSATMIAPTGIKFSWLATYGGRPMLAFLFLFTGGTGVLNASDAFHDTYYVVHFHYVLSMGAFSLGYYYWPGLYNLYWFNFPMHFLGGMPRRPYPDAGWNSGSSYQLGPDESNEPH'
p2191
sg123
F0.025069999999999999
sg124
g125
sg33
S'154'
p2192
sg127
g1
(g128
g12
(dp2193
g130
I4
sg131
g132
sg133
g134
sg135
g132
sg136
I01
sg34
g137
sg138
g134
sg139
I0
sg140
I0
sg141
I0
sg142
g134
sg35
g143
sg144
I0
stRp2194
sg146
g147
sg148
F1
sg149
Nsg30
S'CdublA'
p2195
sbag1
(g2
g3
NtRp2196
(dp2197
g6
g1
(g7
g3
NtRp2198
(dp2199
g10
g1
(g11
g12
(dtRp2200
sg14
g1
(g11
g12
(dtRp2201
sg16
g1
(g11
g12
(dtRp2202
sg18
g1
(g11
g12
(dtRp2203
sg20
g1
(g11
g12
(dtRp2204
sg22
g1
(g11
g12
(dtRp2205
sbsg24
g25
sg26
g27
((lp2206
g33
ag32
ag29
ag30
atRp2207
sg37
(lp2208
g1
(g2
g3
NtRp2209
(dp2210
g6
g1
(g7
g3
NtRp2211
(dp2212
g10
g1
(g11
g12
(dtRp2213
sg14
g1
(g11
g12
(dtRp2214
sg16
g1
(g11
g12
(dtRp2215
sg18
g1
(g11
g12
(dtRp2216
sg20
g1
(g11
g12
(dtRp2217
sg22
g1
(g11
g12
(dtRp2218
sbsg24
g25
sg26
g27
((lp2219
g33
ag32
ag29
ag30
atRp2220
sg37
(lp2221
g1
(g2
g3
NtRp2222
(dp2223
g6
g1
(g7
g3
NtRp2224
(dp2225
g10
g1
(g11
g12
(dtRp2226
sg14
g1
(g11
g12
(dtRp2227
sg16
g1
(g11
g12
(dtRp2228
sg18
g1
(g11
g12
(dtRp2229
sg20
g1
(g11
g12
(dtRp2230
sg22
g1
(g11
g12
(dtRp2231
sbsg24
g25
sg26
g27
((lp2232
g33
ag32
ag29
ag30
atRp2233
sg37
(lp2234
g1
(g2
g3
NtRp2235
(dp2236
g6
g1
(g7
g3
NtRp2237
(dp2238
g10
g1
(g11
g12
(dtRp2239
sg14
g1
(g11
g12
(dtRp2240
sg16
g1
(g11
g12
(dtRp2241
sg18
g1
(g11
g12
(dtRp2242
sg20
g1
(g11
g12
(dtRp2243
sg22
g1
(g11
g12
(dtRp2244
sbsg24
g25
sg26
g27
((lp2245
g33
ag32
ag29
ag30
atRp2246
sg37
(lp2247
g1
(g2
g3
NtRp2248
(dp2249
g6
g1
(g7
g3
NtRp2250
(dp2251
g10
g1
(g11
g12
(dtRp2252
sg14
g1
(g11
g12
(dtRp2253
sg16
g1
(g11
g12
(dtRp2254
sg18
g1
(g11
g12
(dtRp2255
sg20
g1
(g11
g12
(dtRp2256
sg22
g1
(g11
g12
(dtRp2257
sbsg24
S'Cal'
p2258
sg26
g27
((lp2259
g29
ag30
aS'sequence'
p2260
ag32
ag33
aS'species'
p2261
atRp2262
sg37
(lp2263
sg120
g2235
sg121
S'RWLSTKDLYSRLELPGLNQNVHAMFVMPLGFGNPMGDMFARLNNSFWLPPLSLEGAGTGWTVYPPLSHSGPSVDLAFHLTSSLLGAINFTNMRGPLFWTALLLLSLPVLAGTLLDRNFNTFEGGDPLYHLFWFFGHPEVYIIPGFGSHSTYKKFGMYASIGLGFVWSHHMYVGLDDRAYFTSATMIAPTGIKFSWLATYGGRPMLAFLFLFTGGTGVLNASDAFHDTYYVVHFHYVLSMGAFSLGYYYWPGLYNLYWFNFPMHFLGGMPRRPYPDAGWNSGSSYQLGPDESNEPH'
p2264
sg123
F0.00025000000000000001
sg124
g125
sg33
S'164'
p2265
sg127
g1
(g128
g12
(dp2266
g130
I4
sg131
g132
sg133
g134
sg135
g132
sg136
I01
sg34
g137
sg138
g134
sg139
I0
sg140
I0
sg141
I0
sg142
g134
sg35
g143
sg144
I0
stRp2267
sg146
g147
sg148
F1
sg149
Nsg30
S'CalbiE'
p2268
sbag1
(g2
g3
NtRp2269
(dp2270
g6
g1
(g7
g3
NtRp2271
(dp2272
g10
g1
(g11
g12
(dtRp2273
sg14
g1
(g11
g12
(dtRp2274
sg16
g1
(g11
g12
(dtRp2275
sg18
g1
(g11
g12
(dtRp2276
sg20
g1
(g11
g12
(dtRp2277
sg22
g1
(g11
g12
(dtRp2278
sbsg24
S'Cal'
p2279
sg26
g27
((lp2280
g29
ag30
aS'sequence'
p2281
ag32
ag33
aS'species'
p2282
atRp2283
sg37
(lp2284
sg120
g2235
sg121
S'RWLSTKDLYSRLELPGLNQNVHAMFVMPLGFGNPMGDMFARLNNSFWLPPLSLEGAGTGWTVYPPLSHSGPSVDLAFHLTSSLLGAINFTNMRGPLFWTALLLLSLPVLAGTLLDRNFNTFEGGDPLYHLFWFFGHPEVYIIPGFGSHSTYKKFGMYASIGLGFVWSHHMYVGLDDRAYFTSATMIAPTGIKFSWLATYGGRPMLAFLFLFTGGTGVLNASDAFHDTYYVVHFHYVLSMGAFSLGYYYWPGLYNLYWFNFPMHFLGGMPRRPYPDAGWNSGSSYQLGPDESNEPH'
p2285
sg123
F0.00050000000000000001
sg124
g125
sg33
S'166'
p2286
sg127
g1
(g128
g12
(dp2287
g130
I4
sg131
g132
sg133
g134
sg135
g132
sg136
I01
sg34
g137
sg138
g134
sg139
I0
sg140
I0
sg141
I0
sg142
g134
sg35
g143
sg144
I0
stRp2288
sg146
g147
sg148
F1
sg149
Nsg30
S'CalbiD'
p2289
sbasg120
g2222
sg123
F0.00051999999999999995
sg124
g125
sg33
S'161'
p2290
sg127
g1
(g128
g12
(dp2291
g130
I6
sg131
g132
sg133
g134
sg135
g132
sg136
I01
sg34
g174
sg138
g134
sg139
I0
sg140
I0
sg141
I0
sg142
g134
sg35
g175
sg144
I0
stRp2292
sg146
g147
sg148
F0.73999999999999999
sg149
Nsg30
S'NoName'
p2293
sbag1
(g2
g3
NtRp2294
(dp2295
g6
g1
(g7
g3
NtRp2296
(dp2297
g10
g1
(g11
g12
(dtRp2298
sg14
g1
(g11
g12
(dtRp2299
sg16
g1
(g11
g12
(dtRp2300
sg18
g1
(g11
g12
(dtRp2301
sg20
g1
(g11
g12
(dtRp2302
sg22
g1
(g11
g12
(dtRp2303
sbsg24
S'Cal'
p2304
sg26
g27
((lp2305
g29
ag30
aS'sequence'
p2306
ag32
ag33
aS'species'
p2307
atRp2308
sg37
(lp2309
sg120
g2222
sg121
S'RWLSTKDLYSRLELPGLNQNVHAMFVMPLGFGNPMGDMFARLNNSFWLPPLSLEGAGTGWTVYPPLSHSGPSVDLAFHLTSSLLGAINFTNMRGPLFWTALLLLSLPVLAGTLLDRNFNTFEGGDPLYHLFWFFGHPEVYIIPGFGSHSTYKKFGMYASIGLGFVWSHHMYVGLDDRAYFTSATMIAPTGIKFSWLATYGGRPMLAFLFLFTGGTGVLNASDAFHDTYYVVHFHYVLSMGAFSLGYYYWPGLYNLYWFNFPMHFLGGMPRRPYPDAGWNSGSSYQLGPDESNEPH'
p2310
sg123
F0.00012
sg124
g125
sg33
S'168'
p2311
sg127
g1
(g128
g12
(dp2312
g130
I4
sg131
g132
sg133
g134
sg135
g132
sg136
I01
sg34
g137
sg138
g134
sg139
I0
sg140
I0
sg141
I0
sg142
g134
sg35
g143
sg144
I0
stRp2313
sg146
g147
sg148
F1
sg149
Nsg30
S'CalbiC'
p2314
sbasg120
g2209
sg123
F1.0000000000000001e-05
sg124
g125
sg33
S'158'
p2315
sg127
g1
(g128
g12
(dp2316
g130
I6
sg131
g132
sg133
g134
sg135
g132
sg136
I01
sg34
g174
sg138
g134
sg139
I0
sg140
I0
sg141
I0
sg142
g134
sg35
g175
sg144
I0
stRp2317
sg146
g147
sg148
F1
sg149
Nsg30
S'NoName'
p2318
sbag1
(g2
g3
NtRp2319
(dp2320
g6
g1
(g7
g3
NtRp2321
(dp2322
g10
g1
(g11
g12
(dtRp2323
sg14
g1
(g11
g12
(dtRp2324
sg16
g1
(g11
g12
(dtRp2325
sg18
g1
(g11
g12
(dtRp2326
sg20
g1
(g11
g12
(dtRp2327
sg22
g1
(g11
g12
(dtRp2328
sbsg24
S'Cal'
p2329
sg26
g27
((lp2330
g29
ag30
aS'sequence'
p2331
ag32
ag33
aS'species'
p2332
atRp2333
sg37
(lp2334
sg120
g2209
sg121
S'RWLSTKDLYSRLELPGLNQNVHAMFVMPLGFGNPMGDMFARLNNSFWLPPLSLEGAGTGWTVYPPLSHSGPSVDLAFHLTSSLLGAINFTNMRGPLFWTALLLLSLPVLAGTLLDRNFNTFEGGDPLYHLFWFFGHPEVYIIPGFGSHSTYKKFGMYASIGLGFVWSHHMYVGLDDRAYFTSATMIAPTGIKFSWLATYGGRPMLAFLFLFTGGTGVLNASDAFHDTYYVVHFHYVLSMGAFSLGYYYWPGLYNLYWFNFPMHFLGGMPRRPYPDAGWNSGSSYQLGPDESNEPH'
p2335
sg123
F0.00016000000000000001
sg124
g125
sg33
S'169'
p2336
sg127
g1
(g128
g12
(dp2337
g130
I4
sg131
g132
sg133
g134
sg135
g132
sg136
I01
sg34
g137
sg138
g134
sg139
I0
sg140
I0
sg141
I0
sg142
g134
sg35
g143
sg144
I0
stRp2338
sg146
g147
sg148
F1
sg149
Nsg30
S'CalbiB'
p2339
sbasg120
g2196
sg123
F1.0000000000000001e-05
sg124
g125
sg33
S'156'
p2340
sg127
g1
(g128
g12
(dp2341
g130
I6
sg131
g132
sg133
g134
sg135
g132
sg136
I01
sg34
g174
sg138
g134
sg139
I0
sg140
I0
sg141
I0
sg142
g134
sg35
g175
sg144
I0
stRp2342
sg146
g147
sg148
F1
sg149
Nsg30
S'NoName'
p2343
sbag1
(g2
g3
NtRp2344
(dp2345
g6
g1
(g7
g3
NtRp2346
(dp2347
g10
g1
(g11
g12
(dtRp2348
sg14
g1
(g11
g12
(dtRp2349
sg16
g1
(g11
g12
(dtRp2350
sg18
g1
(g11
g12
(dtRp2351
sg20
g1
(g11
g12
(dtRp2352
sg22
g1
(g11
g12
(dtRp2353
sbsg24
S'Cal'
p2354
sg26
g27
((lp2355
g29
ag30
aS'sequence'
p2356
ag32
ag33
aS'species'
p2357
atRp2358
sg37
(lp2359
sg120
g2196
sg121
S'RWLSTKDLYSRLELPGLNQNVHAMFVMPLGFGNPMGDMFARLNNSFWLPPLSLEGAGTGWTVYPPLSHSGPSVDLAFHLTSSLLGAINFTNMRGPLFWTALLLLSLPVLAGTLLDRNFNTFEGGDPLYHLFWFFGHPEVYIIPGFGSHSTYKKFGMYASIGLGFVWSHHMYVGLDDRAYFTSATMIAPTGIKFSWLATYGGRPMLAFLFLFTGGTGVLNASDAFHDTYYVVHFHYVLSMGAFSLGYYYWPGLYNLYWFNFPMHFLGGMPRRPYPDAGWNSGSSYQLGPDESNEPH'
p2360
sg123
F0.00013999999999999999
sg124
g125
sg33
S'171'
p2361
sg127
g1
(g128
g12
(dp2362
g130
I4
sg131
g132
sg133
g134
sg135
g132
sg136
I01
sg34
g137
sg138
g134
sg139
I0
sg140
I0
sg141
I0
sg142
g134
sg35
g143
sg144
I0
stRp2363
sg146
g147
sg148
F1
sg149
Nsg30
S'CalbiA'
p2364
sbasg120
g2162
sg123
F0.014959999999999999
sg124
g125
sg33
S'153'
p2365
sg127
g1
(g128
g12
(dp2366
g130
I6
sg131
g132
sg133
g134
sg135
g132
sg136
I01
sg34
g174
sg138
g134
sg139
I0
sg140
I0
sg141
I0
sg142
g134
sg35
g175
sg144
I0
stRp2367
sg146
g147
sg148
F0.98999999999999999
sg149
Nsg30
S'NoName'
p2368
sbasg120
g2090
sg123
F0.05287
sg124
g125
sg33
S'147'
p2369
sg127
g1
(g128
g12
(dp2370
g130
I6
sg131
g132
sg133
g134
sg135
g132
sg136
I01
sg34
g174
sg138
g134
sg139
I0
sg140
I0
sg141
I0
sg142
g134
sg35
g175
sg144
I0
stRp2371
sg146
g147
sg148
F0.98999999999999999
sg149
Nsg30
S'NoName'
p2372
sbasg120
g1714
sg123
F0.037499999999999999
sg124
g125
sg33
S'140'
p2373
sg127
g1
(g128
g12
(dp2374
g130
I6
sg131
g132
sg133
g134
sg135
g132
sg136
I01
sg34
g174
sg138
g134
sg139
I0
sg140
I0
sg141
I0
sg142
g134
sg35
g175
sg144
I0
stRp2375
sg146
g147
sg148
F0.98999999999999999
sg149
Nsg30
S'NoName'
p2376
sbasg120
g997
sg123
F0.10766000000000001
sg124
g125
sg33
S'174'
p2377
sg127
g1
(g128
g12
(dp2378
g130
I6
sg131
g132
sg133
g134
sg135
g132
sg136
I01
sg34
g174
sg138
g134
sg139
I0
sg140
I0
sg141
I0
sg142
g134
sg35
g175
sg144
I0
stRp2379
sg146
g147
sg148
F0.98999999999999999
sg149
Nsg30
S'NoName'
p2380
sbasg120
g963
sg123
F0.093560000000000004
sg124
g125
sg33
S'37'
p2381
sg127
g1
(g128
g12
(dp2382
g130
I6
sg131
g132
sg133
g134
sg135
g132
sg136
I01
sg34
g174
sg138
g134
sg139
I0
sg140
I0
sg141
I0
sg142
g134
sg35
g175
sg144
I0
stRp2383
sg146
g147
sg148
F0.97999999999999998
sg149
Nsg30
S'NoName'
p2384
sbasg120
g950
sg123
F0.036760000000000001
sg124
g125
sg33
S'35'
p2385
sg127
g1
(g128
g12
(dp2386
g130
I6
sg131
g132
sg133
g134
sg135
g132
sg136
I01
sg34
g174
sg138
g134
sg139
I0
sg140
I0
sg141
I0
sg142
g134
sg35
g175
sg144
I0
stRp2387
sg146
g147
sg148
F0.97999999999999998
sg149
Nsg30
S'NoName'
p2388
sbag1
(g2
g3
NtRp2389
(dp2390
g6
g1
(g7
g3
NtRp2391
(dp2392
g10
g1
(g11
g12
(dtRp2393
sg14
g1
(g11
g12
(dtRp2394
sg16
g1
(g11
g12
(dtRp2395
sg18
g1
(g11
g12
(dtRp2396
sg20
g1
(g11
g12
(dtRp2397
sg22
g1
(g11
g12
(dtRp2398
sbsg24
g25
sg26
g27
((lp2399
g33
ag32
ag29
ag30
atRp2400
sg37
(lp2401
g1
(g2
g3
NtRp2402
(dp2403
g6
g1
(g7
g3
NtRp2404
(dp2405
g10
g1
(g11
g12
(dtRp2406
sg14
g1
(g11
g12
(dtRp2407
sg16
g1
(g11
g12
(dtRp2408
sg18
g1
(g11
g12
(dtRp2409
sg20
g1
(g11
g12
(dtRp2410
sg22
g1
(g11
g12
(dtRp2411
sbsg24
g25
sg26
g27
((lp2412
g33
ag32
ag29
ag30
atRp2413
sg37
(lp2414
g1
(g2
g3
NtRp2415
(dp2416
g6
g1
(g7
g3
NtRp2417
(dp2418
g10
g1
(g11
g12
(dtRp2419
sg14
g1
(g11
g12
(dtRp2420
sg16
g1
(g11
g12
(dtRp2421
sg18
g1
(g11
g12
(dtRp2422
sg20
g1
(g11
g12
(dtRp2423
sg22
g1
(g11
g12
(dtRp2424
sbsg24
S'Csu'
p2425
sg26
g27
((lp2426
g29
ag30
aS'sequence'
p2427
ag32
ag33
aS'species'
p2428
atRp2429
sg37
(lp2430
sg120
g2402
sg121
S'RWLSTKDLYSRMELPGLNQNVHAMFIMPLGLGNPLGDMFARLNNSFWLPPLSLEGAGTGWTVYPPLSHSGPSVDLAFHLTSSLLGAINFTNMRGPLYWTALLLLSLPVLAATLLDRNFNTFEGGDPLYHLFWFFGHPEVYIIPGFGSHSTYKKFGMYASIGLGFVWSHHMFVGLDDRAYFTSATMIAPTGVKFSWLATYGGRPMLAFLFLFTGGTGVINASDAFHDTYYIVHFHYVLSMGAFSLGFYYWPGLYNLFWFNFPMHFLGGMPRRPYPDAGWNSGSAYQLGPDESNEPH'
p2431
sg123
F0.00012999999999999999
sg124
g125
sg33
S'177'
p2432
sg127
g1
(g128
g12
(dp2433
g130
I4
sg131
g132
sg133
g134
sg135
g132
sg136
I01
sg34
g137
sg138
g134
sg139
I0
sg140
I0
sg141
I0
sg142
g134
sg35
g143
sg144
I0
stRp2434
sg146
g147
sg148
F1
sg149
Nsg30
S'CsubhB'
p2435
sbag1
(g2
g3
NtRp2436
(dp2437
g6
g1
(g7
g3
NtRp2438
(dp2439
g10
g1
(g11
g12
(dtRp2440
sg14
g1
(g11
g12
(dtRp2441
sg16
g1
(g11
g12
(dtRp2442
sg18
g1
(g11
g12
(dtRp2443
sg20
g1
(g11
g12
(dtRp2444
sg22
g1
(g11
g12
(dtRp2445
sbsg24
S'Csu'
p2446
sg26
g27
((lp2447
g29
ag30
aS'sequence'
p2448
ag32
ag33
aS'species'
p2449
atRp2450
sg37
(lp2451
sg120
g2402
sg121
S'RWLSTKDLYSRMELPGLNQNVHAMFIMPLGLGNPLGDMFARLNNSFWLPPLSLEGAGTGWTVYPPLSHSGPSVDLAFHLTSSLLGAINFTNMRGPLYWTALLLLSLPVLAATLLDRNFNTFEGGDPLYHLFWFFGHPEVYIIPGFGSHSTYKKFGMYASIGLGFVWSHHMFVGLDDRAYFTSATMIAPTGVKFSWLATYGGRPMLAFLFLFTGGTGVINASDAFHDTYYIVHFHYVLSMGAFSLGFYYWPGLYNLFWFNFPMHFLGGMPRRPYPDAGWNSGSAYQLGPDESNEPH'
p2452
sg123
F0.00013999999999999999
sg124
g125
sg33
S'179'
p2453
sg127
g1
(g128
g12
(dp2454
g130
I4
sg131
g132
sg133
g134
sg135
g132
sg136
I01
sg34
g137
sg138
g134
sg139
I0
sg140
I0
sg141
I0
sg142
g134
sg35
g143
sg144
I0
stRp2455
sg146
g147
sg148
F1
sg149
Nsg30
S'CsubhA'
p2456
sbasg120
g2389
sg123
F0.59348999999999996
sg124
g125
sg33
S'173'
p2457
sg127
g1
(g128
g12
(dp2458
g130
I6
sg131
g132
sg133
g134
sg135
g132
sg136
I01
sg34
g174
sg138
g134
sg139
I0
sg140
I0
sg141
I0
sg142
g134
sg35
g175
sg144
I0
stRp2459
sg146
g147
sg148
F1
sg149
Nsg30
S'NoName'
p2460
sbag1
(g2
g3
NtRp2461
(dp2462
g6
g1
(g7
g3
NtRp2463
(dp2464
g10
g1
(g11
g12
(dtRp2465
sg14
g1
(g11
g12
(dtRp2466
sg16
g1
(g11
g12
(dtRp2467
sg18
g1
(g11
g12
(dtRp2468
sg20
g1
(g11
g12
(dtRp2469
sg22
g1
(g11
g12
(dtRp2470
sbsg24
S'Cal'
p2471
sg26
g27
((lp2472
g29
ag30
aS'sequence'
p2473
ag32
ag33
aS'species'
p2474
atRp2475
sg37
(lp2476
sg120
g2389
sg121
S'RWLSTKDLYSRMELPGLNQNVHAMFVMPLGFGNPLGDMFARLNNSFWLPPLSLDGPGTGWTVYPPLSHSGASVDFAFHLTSSLLGAINFTNMRGPLFWTALLLLSLPVLVATLLDRNFNTFEGGDPLYHLFWFFGHPEVYMIPGFGSHSTYKKFGMYASIGLGFVWSHHMFVGLDDRAYFTSATMMAPTGIKFSWMATYGGYPMLAFLFLFTGGTGVINASDAFHDTYYIVHFHYVLSMGAFSLGYYYWPGLYNLFWFNFPMHFLGGMPRRPYPDAGWNSGSAYQLGPDESNEPH'
p2477
sg123
F0.40044000000000002
sg124
g125
sg33
S'180'
p2478
sg127
g1
(g128
g12
(dp2479
g130
I4
sg131
g132
sg133
g134
sg135
g132
sg136
I01
sg34
g137
sg138
g134
sg139
I0
sg140
I0
sg141
I0
sg142
g134
sg35
g143
sg144
I0
stRp2480
sg146
g147
sg148
F1
sg149
Nsg30
S'CalaiA'
p2481
sbasg120
g950
sg123
F0.080810000000000007
sg124
g125
sg33
S'162'
p2482
sg127
g1
(g128
g12
(dp2483
g130
I6
sg131
g132
sg133
g134
sg135
g132
sg136
I01
sg34
g174
sg138
g134
sg139
I0
sg140
I0
sg141
I0
sg142
g134
sg35
g175
sg144
I0
stRp2484
sg146
g147
sg148
F0.98999999999999999
sg149
Nsg30
S'NoName'
p2485
sbasg120
g688
sg123
F0.075389999999999999
sg124
g125
sg33
S'30'
p2486
sg127
g1
(g128
g12
(dp2487
g130
I6
sg131
g132
sg133
g134
sg135
g132
sg136
I01
sg34
g174
sg138
g134
sg139
I0
sg140
I0
sg141
I0
sg142
g134
sg35
g175
sg144
I0
stRp2488
sg146
g147
sg148
F0.94999999999999996
sg149
Nsg30
S'NoName'
p2489
sbasg120
g675
sg123
F1.2542500000000001
sg124
g125
sg33
S'10'
p2490
sg127
g1
(g128
g12
(dp2491
g130
I6
sg131
g132
sg133
g134
sg135
g132
sg136
I01
sg34
g174
sg138
g134
sg139
I0
sg140
I0
sg141
I0
sg142
g134
sg35
g175
sg144
I0
stRp2492
sg146
g147
sg148
F0.97999999999999998
sg149
Nsg30
S'NoName'
p2493
sbag1
(g2
g3
NtRp2494
(dp2495
g6
g1
(g7
g3
NtRp2496
(dp2497
g10
g1
(g11
g12
(dtRp2498
sg14
g1
(g11
g12
(dtRp2499
sg16
g1
(g11
g12
(dtRp2500
sg18
g1
(g11
g12
(dtRp2501
sg20
g1
(g11
g12
(dtRp2502
sg22
g1
(g11
g12
(dtRp2503
sbsg24
g25
sg26
g27
((lp2504
g33
ag32
ag29
ag30
atRp2505
sg37
(lp2506
g1
(g2
g3
NtRp2507
(dp2508
g6
g1
(g7
g3
NtRp2509
(dp2510
g10
g1
(g11
g12
(dtRp2511
sg14
g1
(g11
g12
(dtRp2512
sg16
g1
(g11
g12
(dtRp2513
sg18
g1
(g11
g12
(dtRp2514
sg20
g1
(g11
g12
(dtRp2515
sg22
g1
(g11
g12
(dtRp2516
sbsg24
g25
sg26
g27
((lp2517
g33
ag32
ag29
ag30
atRp2518
sg37
(lp2519
g1
(g2
g3
NtRp2520
(dp2521
g6
g1
(g7
g3
NtRp2522
(dp2523
g10
g1
(g11
g12
(dtRp2524
sg14
g1
(g11
g12
(dtRp2525
sg16
g1
(g11
g12
(dtRp2526
sg18
g1
(g11
g12
(dtRp2527
sg20
g1
(g11
g12
(dtRp2528
sg22
g1
(g11
g12
(dtRp2529
sbsg24
S'Ppa'
p2530
sg26
g27
((lp2531
g29
ag30
aS'sequence'
p2532
ag32
ag33
aS'species'
p2533
atRp2534
sg37
(lp2535
sg120
g2507
sg121
S'RWLSTKDLYSRLELPGLNQNVHAMFVMPAGFGNPMGDMFARLNNSFWLPPLSLEGAGTGWTVYPPLAHSGPSVDLAFHLTSSLLGAMNFTNMRGPLFWTSLLLLSLPVLAGTLLDRNFNTFEGGDPLYHLFWFFGHPEVYIMPGFGSHSTYKKFGMYASIGLGLVWSHHMYVGLDDRAYFTSATMMAPTGMKFSWLATYGGRPMLAFLFLFTGGSGVLNASDAFHDTYYVIHFHYVLSLGAFSLGYYYWPGLYNLFWFNFPMHFLGGMPRRPYPDAGWNSGSSYQLGPDESNDPH'
p2536
sg123
F0.16184999999999999
sg124
g125
sg33
S'186'
p2537
sg127
g1
(g128
g12
(dp2538
g130
I4
sg131
g132
sg133
g134
sg135
g132
sg136
I01
sg34
g137
sg138
g134
sg139
I0
sg140
I0
sg141
I0
sg142
g134
sg35
g143
sg144
I0
stRp2539
sg146
g147
sg148
F1
sg149
Nsg30
S'PpastA'
p2540
sbag1
(g2
g3
NtRp2541
(dp2542
g6
g1
(g7
g3
NtRp2543
(dp2544
g10
g1
(g11
g12
(dtRp2545
sg14
g1
(g11
g12
(dtRp2546
sg16
g1
(g11
g12
(dtRp2547
sg18
g1
(g11
g12
(dtRp2548
sg20
g1
(g11
g12
(dtRp2549
sg22
g1
(g11
g12
(dtRp2550
sbsg24
g25
sg26
g27
((lp2551
g33
ag32
ag29
ag30
atRp2552
sg37
(lp2553
g1
(g2
g3
NtRp2554
(dp2555
g6
g1
(g7
g3
NtRp2556
(dp2557
g10
g1
(g11
g12
(dtRp2558
sg14
g1
(g11
g12
(dtRp2559
sg16
g1
(g11
g12
(dtRp2560
sg18
g1
(g11
g12
(dtRp2561
sg20
g1
(g11
g12
(dtRp2562
sg22
g1
(g11
g12
(dtRp2563
sbsg24
S'Pta'
p2564
sg26
g27
((lp2565
g29
ag30
aS'sequence'
p2566
ag32
ag33
aS'species'
p2567
atRp2568
sg37
(lp2569
sg120
g2541
sg121
S'RWLSTKDLYSRLELPGLNQNVHAMFVMPAGFGNPMGDMFARLNNSFWLPPLSLEGAGTGWTVYPPLSHSGPSVDLAFHLTSSLLGGMNFTNMRGPLFWTSLLVLTLPVLAGTLLDRNFNTFEGGDPLYHLFWFFGHPEVYIIPGFGSHSAYKKFGMYASIGLGLVWSHHMYVGLDDRAYFTSATMIAPTGIKFSWLATYGGRPMLAFLFLFTGGSGVLNASDAFHDTYYVMHFHYVLSLGAFSLGYYYWPGLYNLFWFNFPMHFLGGMPRRPYPDAGFNSGSSYQLGPDESNEPH'
p2570
sg123
F0.23080999999999999
sg124
g125
sg33
S'189'
p2571
sg127
g1
(g128
g12
(dp2572
g130
I4
sg131
g132
sg133
g134
sg135
g132
sg136
I01
sg34
g137
sg138
g134
sg139
I0
sg140
I0
sg141
I0
sg142
g134
sg35
g143
sg144
I0
stRp2573
sg146
g147
sg148
F1
sg149
Nsg30
S'PtannA'
p2574
sbag1
(g2
g3
NtRp2575
(dp2576
g6
g1
(g7
g3
NtRp2577
(dp2578
g10
g1
(g11
g12
(dtRp2579
sg14
g1
(g11
g12
(dtRp2580
sg16
g1
(g11
g12
(dtRp2581
sg18
g1
(g11
g12
(dtRp2582
sg20
g1
(g11
g12
(dtRp2583
sg22
g1
(g11
g12
(dtRp2584
sbsg24
g25
sg26
g27
((lp2585
g33
ag32
ag29
ag30
atRp2586
sg37
(lp2587
g1
(g2
g3
NtRp2588
(dp2589
g6
g1
(g7
g3
NtRp2590
(dp2591
g10
g1
(g11
g12
(dtRp2592
sg14
g1
(g11
g12
(dtRp2593
sg16
g1
(g11
g12
(dtRp2594
sg18
g1
(g11
g12
(dtRp2595
sg20
g1
(g11
g12
(dtRp2596
sg22
g1
(g11
g12
(dtRp2597
sbsg24
g25
sg26
g27
((lp2598
g33
ag32
ag29
ag30
atRp2599
sg37
(lp2600
g1
(g2
g3
NtRp2601
(dp2602
g6
g1
(g7
g3
NtRp2603
(dp2604
g10
g1
(g11
g12
(dtRp2605
sg14
g1
(g11
g12
(dtRp2606
sg16
g1
(g11
g12
(dtRp2607
sg18
g1
(g11
g12
(dtRp2608
sg20
g1
(g11
g12
(dtRp2609
sg22
g1
(g11
g12
(dtRp2610
sbsg24
S'Pkl'
p2611
sg26
g27
((lp2612
g29
ag30
aS'sequence'
p2613
ag32
ag33
aS'species'
p2614
atRp2615
sg37
(lp2616
sg120
g2588
sg121
S'RWLSTKDLYSRLELPGLNQNVHAMFMMPTGFGNPMGDMFARLNNSFWLPPLSLEGPGTGWTVYPPLSHSGPSVDLAFHLTSSLLGAMNFTNMRGPLFWTALLVMTLPVLAGTLLDRNFNTFEGGDPLYHLFWFFGHPEVYMMPGFGSHSTYKKFGMYASMGLGLVWSHHMYVGLDDRAYFTSATMMAPTGMKFSWLATYGGRPMLAFMFIFTGGSGVLNASDAFHDTYYVMHFHYVLSLGAFAMGYYYWPGLFNLFWFNFPMHFLGGMPRRPYPDAGFNSGASYQLGPDESNEPH'
p2617
sg123
F0.12625
sg124
g125
sg33
S'194'
p2618
sg127
g1
(g128
g12
(dp2619
g130
I4
sg131
g132
sg133
g134
sg135
g132
sg136
I01
sg34
g137
sg138
g134
sg139
I0
sg140
I0
sg141
I0
sg142
g134
sg35
g143
sg144
I0
stRp2620
sg146
g147
sg148
F1
sg149
Nsg30
S'PkluyA'
p2621
sbag1
(g2
g3
NtRp2622
(dp2623
g6
g1
(g7
g3
NtRp2624
(dp2625
g10
g1
(g11
g12
(dtRp2626
sg14
g1
(g11
g12
(dtRp2627
sg16
g1
(g11
g12
(dtRp2628
sg18
g1
(g11
g12
(dtRp2629
sg20
g1
(g11
g12
(dtRp2630
sg22
g1
(g11
g12
(dtRp2631
sbsg24
S'Bcu'
p2632
sg26
g27
((lp2633
g29
ag30
aS'sequence'
p2634
ag32
ag33
aS'species'
p2635
atRp2636
sg37
(lp2637
sg120
g2588
sg121
S'RWLSTKDLYSRLELPGLDQNVHSMFMMPTGFGNPMGDMFARLNNAFWYPPLSLEGPGTGWTVYPPLSHSGPSMDLAFHLTSSMLSSMNFTNMRGPLFWTALLMMTLPVLAGTLLDRNFNTFEGGDPLYHLYWFFGHPEVYIIPVFGSHSNYKKFGMYASMGLGLVWSHHMYVGLDDRAYFTSATMIAPTGIKFSWLATYGGRPMLAFLFMFTGGSGVLNASDAFHDTYFVVHFHYVLSLGVYGVGYYFWPGLYNMFWFNFPMHFLGGMPRRPYPDAGFNSGSAYQLGPDESNEPH'
p2638
sg123
F0.30854999999999999
sg124
g125
sg33
S'196'
p2639
sg127
g1
(g128
g12
(dp2640
g130
I4
sg131
g132
sg133
g134
sg135
g132
sg136
I01
sg34
g137
sg138
g134
sg139
I0
sg140
I0
sg141
I0
sg142
g134
sg35
g143
sg144
I0
stRp2641
sg146
g147
sg148
F1
sg149
Nsg30
S'BcustA'
p2642
sbasg120
g2575
sg123
F0.19120999999999999
sg124
g125
sg33
S'190'
p2643
sg127
g1
(g128
g12
(dp2644
g130
I6
sg131
g132
sg133
g134
sg135
g132
sg136
I01
sg34
g174
sg138
g134
sg139
I0
sg140
I0
sg141
I0
sg142
g134
sg35
g175
sg144
I0
stRp2645
sg146
g147
sg148
F0.98999999999999999
sg149
Nsg30
S'NoName'
p2646
sbag1
(g2
g3
NtRp2647
(dp2648
g6
g1
(g7
g3
NtRp2649
(dp2650
g10
g1
(g11
g12
(dtRp2651
sg14
g1
(g11
g12
(dtRp2652
sg16
g1
(g11
g12
(dtRp2653
sg18
g1
(g11
g12
(dtRp2654
sg20
g1
(g11
g12
(dtRp2655
sg22
g1
(g11
g12
(dtRp2656
sbsg24
S'Oan'
p2657
sg26
g27
((lp2658
g29
ag30
aS'sequence'
p2659
ag32
ag33
aS'species'
p2660
atRp2661
sg37
(lp2662
sg120
g2575
sg121
S'RWLSTKDLYSRLELPGLNQNAHAMFVMPAGFGNPMGDMFARLNNSFWLPPLSLEGAGTGWTVYPPLSHSGPSVDLAFHLTSSLLGAINFTNMRGPLFWTALLLLSLPVLAGTLLDRNFNTFEGGDPLYHLFWFFGHPEVYIIPGFGSHSTYKKFGMYASIGLGLVWSHHMYVGLDDRAYFTSATMIAPTGIKFSWIATYGGRPMLAFLFLFTGGSGVLNASDAFHDTYYVIHFHYVLSLGAFSLGYYYWPGLYNLFWFNFPMHFLGGMPRRPYPDAGYNSGSSYQLGPDESNEPH'
p2663
sg123
F0.025399999999999999
sg124
g125
sg33
S'72'
p2664
sg127
g1
(g128
g12
(dp2665
g130
I4
sg131
g132
sg133
g134
sg135
g132
sg136
I01
sg34
g137
sg138
g134
sg139
I0
sg140
I0
sg141
I0
sg142
g134
sg35
g143
sg144
I0
stRp2666
sg146
g147
sg148
F1
sg149
Nsg30
S'OanguA'
p2667
sbasg120
g2541
sg123
F0.33273999999999998
sg124
g125
sg33
S'187'
p2668
sg127
g1
(g128
g12
(dp2669
g130
I6
sg131
g132
sg133
g134
sg135
g132
sg136
I01
sg34
g174
sg138
g134
sg139
I0
sg140
I0
sg141
I0
sg142
g134
sg35
g175
sg144
I0
stRp2670
sg146
g147
sg148
F0.98999999999999999
sg149
Nsg30
S'NoName'
p2671
sbasg120
g2507
sg123
F0.054379999999999998
sg124
g125
sg33
S'184'
p2672
sg127
g1
(g128
g12
(dp2673
g130
I6
sg131
g132
sg133
g134
sg135
g132
sg136
I01
sg34
g174
sg138
g134
sg139
I0
sg140
I0
sg141
I0
sg142
g134
sg35
g175
sg144
I0
stRp2674
sg146
g147
sg148
F0.96999999999999997
sg149
Nsg30
S'NoName'
p2675
sbasg120
g2494
sg123
F0.76378000000000001
sg124
g125
sg33
S'182'
p2676
sg127
g1
(g128
g12
(dp2677
g130
I6
sg131
g132
sg133
g134
sg135
g132
sg136
I01
sg34
g174
sg138
g134
sg139
I0
sg140
I0
sg141
I0
sg142
g134
sg35
g175
sg144
I0
stRp2678
sg146
g147
sg148
F0.98999999999999999
sg149
Nsg30
S'NoName'
p2679
sbag1
(g2
g3
NtRp2680
(dp2681
g6
g1
(g7
g3
NtRp2682
(dp2683
g10
g1
(g11
g12
(dtRp2684
sg14
g1
(g11
g12
(dtRp2685
sg16
g1
(g11
g12
(dtRp2686
sg18
g1
(g11
g12
(dtRp2687
sg20
g1
(g11
g12
(dtRp2688
sg22
g1
(g11
g12
(dtRp2689
sbsg24
g25
sg26
g27
((lp2690
g33
ag32
ag29
ag30
atRp2691
sg37
(lp2692
g1
(g2
g3
NtRp2693
(dp2694
g6
g1
(g7
g3
NtRp2695
(dp2696
g10
g1
(g11
g12
(dtRp2697
sg14
g1
(g11
g12
(dtRp2698
sg16
g1
(g11
g12
(dtRp2699
sg18
g1
(g11
g12
(dtRp2700
sg20
g1
(g11
g12
(dtRp2701
sg22
g1
(g11
g12
(dtRp2702
sbsg24
g25
sg26
g27
((lp2703
g33
ag32
ag29
ag30
atRp2704
sg37
(lp2705
g1
(g2
g3
NtRp2706
(dp2707
g6
g1
(g7
g3
NtRp2708
(dp2709
g10
g1
(g11
g12
(dtRp2710
sg14
g1
(g11
g12
(dtRp2711
sg16
g1
(g11
g12
(dtRp2712
sg18
g1
(g11
g12
(dtRp2713
sg20
g1
(g11
g12
(dtRp2714
sg22
g1
(g11
g12
(dtRp2715
sbsg24
g25
sg26
g27
((lp2716
g33
ag32
ag29
ag30
atRp2717
sg37
(lp2718
g1
(g2
g3
NtRp2719
(dp2720
g6
g1
(g7
g3
NtRp2721
(dp2722
g10
g1
(g11
g12
(dtRp2723
sg14
g1
(g11
g12
(dtRp2724
sg16
g1
(g11
g12
(dtRp2725
sg18
g1
(g11
g12
(dtRp2726
sg20
g1
(g11
g12
(dtRp2727
sg22
g1
(g11
g12
(dtRp2728
sbsg24
g25
sg26
g27
((lp2729
g33
ag32
ag29
ag30
atRp2730
sg37
(lp2731
g1
(g2
g3
NtRp2732
(dp2733
g6
g1
(g7
g3
NtRp2734
(dp2735
g10
g1
(g11
g12
(dtRp2736
sg14
g1
(g11
g12
(dtRp2737
sg16
g1
(g11
g12
(dtRp2738
sg18
g1
(g11
g12
(dtRp2739
sg20
g1
(g11
g12
(dtRp2740
sg22
g1
(g11
g12
(dtRp2741
sbsg24
S'Cva'
p2742
sg26
g27
((lp2743
g29
ag30
aS'sequence'
p2744
ag32
ag33
aS'species'
p2745
atRp2746
sg37
(lp2747
sg120
g2719
sg121
S'RWLSTKDLYSRLELPGLNQNVHAMFVMPLGFGNPLGDMFARLNNSFWLPPLSLEGAGTGWTIYPPLSHSSPSVDLGFHLTSSLLGAINFTNMRGPLFWTAMLLLSLPVLAGTLLDRNFNTFEGGDPLYHLFWFFGHPEVYIIPGFGSHSTYKKFGMYASIALGFVWSHHMYVGLDDRAYFTSSTMIAPTGIKFSWLATYGGRPMLAFLFLFTGGTGVLNASDAFHDTYYVVHFHYVLSMGAFSLGYYYWPGLYNLFWFNFPMHFLGGMPRRPYPDAGWNSGSSYQLGPDESNEPH'
p2748
sg123
F0.043270000000000003
sg124
g125
sg33
S'207'
p2749
sg127
g1
(g128
g12
(dp2750
g130
I4
sg131
g132
sg133
g134
sg135
g132
sg136
I01
sg34
g137
sg138
g134
sg139
I0
sg140
I0
sg141
I0
sg142
g134
sg35
g143
sg144
I0
stRp2751
sg146
g147
sg148
F1
sg149
Nsg30
S'CvartA'
p2752
sbag1
(g2
g3
NtRp2753
(dp2754
g6
g1
(g7
g3
NtRp2755
(dp2756
g10
g1
(g11
g12
(dtRp2757
sg14
g1
(g11
g12
(dtRp2758
sg16
g1
(g11
g12
(dtRp2759
sg18
g1
(g11
g12
(dtRp2760
sg20
g1
(g11
g12
(dtRp2761
sg22
g1
(g11
g12
(dtRp2762
sbsg24
g25
sg26
g27
((lp2763
g33
ag32
ag29
ag30
atRp2764
sg37
(lp2765
g1
(g2
g3
NtRp2766
(dp2767
g6
g1
(g7
g3
NtRp2768
(dp2769
g10
g1
(g11
g12
(dtRp2770
sg14
g1
(g11
g12
(dtRp2771
sg16
g1
(g11
g12
(dtRp2772
sg18
g1
(g11
g12
(dtRp2773
sg20
g1
(g11
g12
(dtRp2774
sg22
g1
(g11
g12
(dtRp2775
sbsg24
S'Csu'
p2776
sg26
g27
((lp2777
g29
ag30
aS'sequence'
p2778
ag32
ag33
aS'species'
p2779
atRp2780
sg37
(lp2781
sg120
g2753
sg121
S'RWLSTKDLYSRLELPGLNQNVHAMFVMPLGFGNPLGDMFARLNNSFWLPPLSLEGAGTGWTIYPPLSHSSPSVDLGFHLTSSMLGAINFTNMRGPLFWTAMLLLSLPVLAGTLLDRNFNTFEGGDPLYHLFWFFGHPEVYIIPGFGSHSTYKKFGMYASIALGFVWSHHMYVGLDDRAYFTSSTMIAPTGIKFSWLATYGGRPMLAFLFLFTGGTGVLNASDAFHDSYYY-HFHYVLSMGAFSLGYYYWPGLYNLFWFNFPMHFLGGMPRRPYPDAGWNSGSSYQLGPDESNEPH'
p2782
sg123
F0.0043699999999999998
sg124
g125
sg33
S'210'
p2783
sg127
g1
(g128
g12
(dp2784
g130
I4
sg131
g132
sg133
g134
sg135
g132
sg136
I01
sg34
g137
sg138
g134
sg139
I0
sg140
I0
sg141
I0
sg142
g134
sg35
g143
sg144
I0
stRp2785
sg146
g147
sg148
F1
sg149
Nsg30
S'CsuavB'
p2786
sbag1
(g2
g3
NtRp2787
(dp2788
g6
g1
(g7
g3
NtRp2789
(dp2790
g10
g1
(g11
g12
(dtRp2791
sg14
g1
(g11
g12
(dtRp2792
sg16
g1
(g11
g12
(dtRp2793
sg18
g1
(g11
g12
(dtRp2794
sg20
g1
(g11
g12
(dtRp2795
sg22
g1
(g11
g12
(dtRp2796
sbsg24
S'Csu'
p2797
sg26
g27
((lp2798
g29
ag30
aS'sequence'
p2799
ag32
ag33
aS'species'
p2800
atRp2801
sg37
(lp2802
sg120
g2753
sg121
S'RWLSTKDLYSRLELPGLNQNVHAMFVMPLGFGNPLGDMFARLNNSFWLPPLSLEGAGTGWTIYPPLSHSSPSVDLGFHLTSSLLGAINFTNMRGPLFWTAMLLLSLPVLAGTLLDRNFNTFEGGDPLYHLFWFFGHPEVYIIPGFGSHSTYKKFGMYASIALGFVWSHHMYVGLDDRAYFTSSTMIAPTGIKFSWLATYGGRPMLAFLFLFTGGTGVLNASDAFHDTYYVVHFHYVLSMGAFSLGYYYWPGLYNLFWFNFPMHFLGGMPRRPYPDAGWNSGSSYQLGPDESNEPH'
p2803
sg123
F0.0025999999999999999
sg124
g125
sg33
S'212'
p2804
sg127
g1
(g128
g12
(dp2805
g130
I4
sg131
g132
sg133
g134
sg135
g132
sg136
I01
sg34
g137
sg138
g134
sg139
I0
sg140
I0
sg141
I0
sg142
g134
sg35
g143
sg144
I0
stRp2806
sg146
g147
sg148
F1
sg149
Nsg30
S'CsuavA'
p2807
sbasg120
g2719
sg123
F0.016740000000000001
sg124
g125
sg33
S'205'
p2808
sg127
g1
(g128
g12
(dp2809
g130
I6
sg131
g132
sg133
g134
sg135
g132
sg136
I01
sg34
g174
sg138
g134
sg139
I0
sg140
I0
sg141
I0
sg142
g134
sg35
g175
sg144
I0
stRp2810
sg146
g147
sg148
F0.98999999999999999
sg149
Nsg30
S'NoName'
p2811
sbasg120
g2706
sg123
F0.01158
sg124
g125
sg33
S'203'
p2812
sg127
g1
(g128
g12
(dp2813
g130
I6
sg131
g132
sg133
g134
sg135
g132
sg136
I01
sg34
g174
sg138
g134
sg139
I0
sg140
I0
sg141
I0
sg142
g134
sg35
g175
sg144
I0
stRp2814
sg146
g147
sg148
F0.97999999999999998
sg149
Nsg30
S'NoName'
p2815
sbag1
(g2
g3
NtRp2816
(dp2817
g6
g1
(g7
g3
NtRp2818
(dp2819
g10
g1
(g11
g12
(dtRp2820
sg14
g1
(g11
g12
(dtRp2821
sg16
g1
(g11
g12
(dtRp2822
sg18
g1
(g11
g12
(dtRp2823
sg20
g1
(g11
g12
(dtRp2824
sg22
g1
(g11
g12
(dtRp2825
sbsg24
S'Cja'
p2826
sg26
g27
((lp2827
g29
ag30
aS'sequence'
p2828
ag32
ag33
aS'species'
p2829
atRp2830
sg37
(lp2831
sg120
g2706
sg121
S'RWLSTKDLYSRLELPGLNQNVHAMFVMPLGFGNPLGDMFARLNNSFWLPPLSLEGAGTGWTIYPPLAHSSPSVDLGFHLTSSLLGAINFTNMRGPLFWTAMLLLSLPVLAGTLLDRNFNTFEGGDPLYHLFWFFGHPEVYIIPGFGSHSTYKKFGMYASIALGFVWSHHMYVGLDDRAYFTSSTMIAPTGIKFSWLATYGGRPMLAFLFLFTGGTGVLNASDAFHDTYYVVHFHYVLSMGAFSLGYYYWPGLYNLFWFNFPMHFLGGMPRRPYPDAGWNSGSSYQLGPDESNEPH'
p2832
sg123
F0.033799999999999997
sg124
g125
sg33
S'215'
p2833
sg127
g1
(g128
g12
(dp2834
g130
I4
sg131
g132
sg133
g134
sg135
g132
sg136
I01
sg34
g137
sg138
g134
sg139
I0
sg140
I0
sg141
I0
sg142
g134
sg35
g143
sg144
I0
stRp2835
sg146
g147
sg148
F1
sg149
Nsg30
S'CjadiA'
p2836
sbasg120
g2693
sg123
F0.10375
sg124
g125
sg33
S'201'
p2837
sg127
g1
(g128
g12
(dp2838
g130
I6
sg131
g132
sg133
g134
sg135
g132
sg136
I01
sg34
g174
sg138
g134
sg139
I0
sg140
I0
sg141
I0
sg142
g134
sg35
g175
sg144
I0
stRp2839
sg146
g147
sg148
F0.98999999999999999
sg149
Nsg30
S'NoName'
p2840
sbag1
(g2
g3
NtRp2841
(dp2842
g6
g1
(g7
g3
NtRp2843
(dp2844
g10
g1
(g11
g12
(dtRp2845
sg14
g1
(g11
g12
(dtRp2846
sg16
g1
(g11
g12
(dtRp2847
sg18
g1
(g11
g12
(dtRp2848
sg20
g1
(g11
g12
(dtRp2849
sg22
g1
(g11
g12
(dtRp2850
sbsg24
g25
sg26
g27
((lp2851
g33
ag32
ag29
ag30
atRp2852
sg37
(lp2853
g1
(g2
g3
NtRp2854
(dp2855
g6
g1
(g7
g3
NtRp2856
(dp2857
g10
g1
(g11
g12
(dtRp2858
sg14
g1
(g11
g12
(dtRp2859
sg16
g1
(g11
g12
(dtRp2860
sg18
g1
(g11
g12
(dtRp2861
sg20
g1
(g11
g12
(dtRp2862
sg22
g1
(g11
g12
(dtRp2863
sbsg24
g25
sg26
g27
((lp2864
g33
ag32
ag29
ag30
atRp2865
sg37
(lp2866
g1
(g2
g3
NtRp2867
(dp2868
g6
g1
(g7
g3
NtRp2869
(dp2870
g10
g1
(g11
g12
(dtRp2871
sg14
g1
(g11
g12
(dtRp2872
sg16
g1
(g11
g12
(dtRp2873
sg18
g1
(g11
g12
(dtRp2874
sg20
g1
(g11
g12
(dtRp2875
sg22
g1
(g11
g12
(dtRp2876
sbsg24
S'Wpi'
p2877
sg26
g27
((lp2878
g29
ag30
aS'sequence'
p2879
ag32
ag33
aS'species'
p2880
atRp2881
sg37
(lp2882
sg120
g2854
sg121
S'RWLSTKDLYSRLELPGLNQNVHAMFVMPLGFGNPLGDMFARLNNSFWLPPLSLEGAGTGWTIYPPLSHSSPSVDLGFHLTSSLLGAINFTNMRGPLFWTAMLLLSLPVLAGTLLDRNFNTFEGGDPLYHLFWFFGHPEVYIIPGFGSHSTYKKFGMYASIALGFVWSHHMYVGLDDRAYFTSSTMIAPTGIKFSWLATYGGRPMLAFLFLFTGGTGVLNASDAFHDTYYVVHFHYVLSMGAFSLGYYYWPGLYNLFWFNFPMHFLGGMPRRPYPDAGWNSGSSFQLGPDESNEPH'
p2883
sg123
F0.051209999999999999
sg124
g125
sg33
S'220'
p2884
sg127
g1
(g128
g12
(dp2885
g130
I4
sg131
g132
sg133
g134
sg135
g132
sg136
I01
sg34
g137
sg138
g134
sg139
I0
sg140
I0
sg141
I0
sg142
g134
sg35
g143
sg144
I0
stRp2886
sg146
g147
sg148
F1
sg149
Nsg30
S'WpijpA'
p2887
sbag1
(g2
g3
NtRp2888
(dp2889
g6
g1
(g7
g3
NtRp2890
(dp2891
g10
g1
(g11
g12
(dtRp2892
sg14
g1
(g11
g12
(dtRp2893
sg16
g1
(g11
g12
(dtRp2894
sg18
g1
(g11
g12
(dtRp2895
sg20
g1
(g11
g12
(dtRp2896
sg22
g1
(g11
g12
(dtRp2897
sbsg24
S'Wmu'
p2898
sg26
g27
((lp2899
g29
ag30
aS'sequence'
p2900
ag32
ag33
aS'species'
p2901
atRp2902
sg37
(lp2903
sg120
g2854
sg121
S'RWLSTKDLYSRLELPGLNQNVHAMFVMPLGFGNPLGDMFARLNNSFWLPPLSLEGAGTGWTIYPPLAHSSPSVDLGFHLTSSLLGAINFTNMRGPLFWTAMLLLSLPVLAGTLLDRNFNTFEGGDPLYHLFWFFGHPEVYIIPGFGSHSTYKKFGMYASIALGFVWSHHMYVGLDDRAYFTSSTMIAPTGIKFSWLATYGGRPMLAFLFLFTGGTGVLNASDAFHDTYYVVHFHYVLSMGAFSLGYYYWPGLYNLFWFNFPMHFLGGMPRRPYPDAGWNSGSSYQLGPDESNEPH'
p2904
sg123
F0.079170000000000004
sg124
g125
sg33
S'222'
p2905
sg127
g1
(g128
g12
(dp2906
g130
I4
sg131
g132
sg133
g134
sg135
g132
sg136
I01
sg34
g137
sg138
g134
sg139
I0
sg140
I0
sg141
I0
sg142
g134
sg35
g143
sg144
I0
stRp2907
sg146
g147
sg148
F1
sg149
Nsg30
S'WmucoA'
p2908
sbasg120
g2841
sg123
F0.14757000000000001
sg124
g125
sg33
S'216'
p2909
sg127
g1
(g128
g12
(dp2910
g130
I6
sg131
g132
sg133
g134
sg135
g132
sg136
I01
sg34
g174
sg138
g134
sg139
I0
sg140
I0
sg141
I0
sg142
g134
sg35
g175
sg144
I0
stRp2911
sg146
g147
sg148
F0.98999999999999999
sg149
Nsg30
S'NoName'
p2912
sbag1
(g2
g3
NtRp2913
(dp2914
g6
g1
(g7
g3
NtRp2915
(dp2916
g10
g1
(g11
g12
(dtRp2917
sg14
g1
(g11
g12
(dtRp2918
sg16
g1
(g11
g12
(dtRp2919
sg18
g1
(g11
g12
(dtRp2920
sg20
g1
(g11
g12
(dtRp2921
sg22
g1
(g11
g12
(dtRp2922
sbsg24
g25
sg26
g27
((lp2923
g33
ag32
ag29
ag30
atRp2924
sg37
(lp2925
g1
(g2
g3
NtRp2926
(dp2927
g6
g1
(g7
g3
NtRp2928
(dp2929
g10
g1
(g11
g12
(dtRp2930
sg14
g1
(g11
g12
(dtRp2931
sg16
g1
(g11
g12
(dtRp2932
sg18
g1
(g11
g12
(dtRp2933
sg20
g1
(g11
g12
(dtRp2934
sg22
g1
(g11
g12
(dtRp2935
sbsg24
S'Pca'
p2936
sg26
g27
((lp2937
g29
ag30
aS'sequence'
p2938
ag32
ag33
aS'species'
p2939
atRp2940
sg37
(lp2941
sg120
g2913
sg121
S'RWLSTKDLYSRLELPGLNQNVHAMFVMPLGFGNPLGDMFARLNNSFWLPPLSLEWAGTGWTIYPPLSHSSPSVDLGFHLTSSLLGAINFTNMRGPLFWTAMLLLSLPVLAGTLLDRNFNTFEGGDPLYHLFWFFGHPEVYIIPGFGSHSTYKKFGMYASIALGFVWSHHMYVGLDDRAYFTSSTMIAPTGIKFSWLATYGGRPMLAFLFLFTGGTGVLNASDAFHDTYYVVHFHYVLSMGAFSLGYYYWPGLFNLFWFNFPMHFLGGMPRRPYPDAGWNSGSSYQLGPDESNEPH'
p2942
sg123
F0.10655000000000001
sg124
g125
sg33
S'11'
p2943
sg127
g1
(g128
g12
(dp2944
g130
I4
sg131
g132
sg133
g134
sg135
g132
sg136
I01
sg34
g137
sg138
g134
sg139
I0
sg140
I0
sg141
I0
sg142
g134
sg35
g143
sg144
I0
stRp2945
sg146
g147
sg148
F1
sg149
Nsg30
S'PcanaA'
p2946
sbag1
(g2
g3
NtRp2947
(dp2948
g6
g1
(g7
g3
NtRp2949
(dp2950
g10
g1
(g11
g12
(dtRp2951
sg14
g1
(g11
g12
(dtRp2952
sg16
g1
(g11
g12
(dtRp2953
sg18
g1
(g11
g12
(dtRp2954
sg20
g1
(g11
g12
(dtRp2955
sg22
g1
(g11
g12
(dtRp2956
sbsg24
g25
sg26
g27
((lp2957
g33
ag32
ag29
ag30
atRp2958
sg37
(lp2959
g1
(g2
g3
NtRp2960
(dp2961
g6
g1
(g7
g3
NtRp2962
(dp2963
g10
g1
(g11
g12
(dtRp2964
sg14
g1
(g11
g12
(dtRp2965
sg16
g1
(g11
g12
(dtRp2966
sg18
g1
(g11
g12
(dtRp2967
sg20
g1
(g11
g12
(dtRp2968
sg22
g1
(g11
g12
(dtRp2969
sbsg24
S'Cno'
p2970
sg26
g27
((lp2971
g29
ag30
aS'sequence'
p2972
ag32
ag33
aS'species'
p2973
atRp2974
sg37
(lp2975
sg120
g2947
sg121
S'RWLSTKDLYSRLELPGLNQNVHAMFVMPLGFGNPLGDMFARLNNSFWLPPLSLEGAGTGWTIYPPLSHSSPSVDLGFHLTSSLLGAMNFTNMRGPLFWTAMLLLSLPVLAGTLLDRNFNTFEGGDPLYHLFWFFGHPEVYMIPGFGSHSTYKKFGMYASMALGFVWSHHMYVGLDDRAYFTSSTMMAPTGMKFSWLATYGGRPMLAFLFLFTGGTGVLNASDAFHDTYYVVHFHYVLSMGAFSLGYYYWPGLYNLFWFNFPMHFLGGMPRRPYPDAGWNSGSSYQLGPDESNEPH'
p2976
sg123
F0.059069999999999998
sg124
g125
sg33
S'31'
p2977
sg127
g1
(g128
g12
(dp2978
g130
I4
sg131
g132
sg133
g134
sg135
g132
sg136
I01
sg34
g137
sg138
g134
sg139
I0
sg140
I0
sg141
I0
sg142
g134
sg35
g143
sg144
I0
stRp2979
sg146
g147
sg148
F1
sg149
Nsg30
S'CnorvA'
p2980
sbag1
(g2
g3
NtRp2981
(dp2982
g6
g1
(g7
g3
NtRp2983
(dp2984
g10
g1
(g11
g12
(dtRp2985
sg14
g1
(g11
g12
(dtRp2986
sg16
g1
(g11
g12
(dtRp2987
sg18
g1
(g11
g12
(dtRp2988
sg20
g1
(g11
g12
(dtRp2989
sg22
g1
(g11
g12
(dtRp2990
sbsg24
S'Bca'
p2991
sg26
g27
((lp2992
g29
ag30
aS'sequence'
p2993
ag32
ag33
aS'species'
p2994
atRp2995
sg37
(lp2996
sg120
g2947
sg121
S'RWLSTKDLYSRLELPGLNQNVHAMFVMPLGFGNPLGDMFARLNNSFWLPPLSLEGAGTGWTIYPPLSHSSPSVDLGFHLTSSLLGAINFTNMRGPLFWTAMLLLSLPVLAGTLLDRNFNTFEGGDPLYHLFWFFGHPEVYIMPGFGSHSTYKKFGMYASIALGFVWSHHMYVGLDDRAYFTSSTMIAPTGIKFSWLATYGGRPMLAFLFLFTGGTGVLNASDAFHDTYYVVHFHYVLSMGAFSLGYYYWPGLYNLFWFNFPMHFLGGMPRRPYPDAGWNSGSSYQLGPDESNEPH'
p2997
sg123
F0.031899999999999998
sg124
g125
sg33
S'42'
p2998
sg127
g1
(g128
g12
(dp2999
g130
I4
sg131
g132
sg133
g134
sg135
g132
sg136
I01
sg34
g137
sg138
g134
sg139
I0
sg140
I0
sg141
I0
sg142
g134
sg35
g143
sg144
I0
stRp3000
sg146
g147
sg148
F1
sg149
Nsg30
S'BcaliA'
p3001
sbasg120
g2913
sg123
F0.09486
sg124
g125
sg33
S'223'
p3002
sg127
g1
(g128
g12
(dp3003
g130
I6
sg131
g132
sg133
g134
sg135
g132
sg136
I01
sg34
g174
sg138
g134
sg139
I0
sg140
I0
sg141
I0
sg142
g134
sg35
g175
sg144
I0
stRp3004
sg146
g147
sg148
F0.97999999999999998
sg149
Nsg30
S'NoName'
p3005
sbasg120
g2841
sg123
F0.054690000000000003
sg124
g125
sg33
S'218'
p3006
sg127
g1
(g128
g12
(dp3007
g130
I6
sg131
g132
sg133
g134
sg135
g132
sg136
I01
sg34
g174
sg138
g134
sg139
I0
sg140
I0
sg141
I0
sg142
g134
sg35
g175
sg144
I0
stRp3008
sg146
g147
sg148
F0.96999999999999997
sg149
Nsg30
S'NoName'
p3009
sbasg120
g2693
sg123
F0.051860000000000003
sg124
g125
sg33
S'208'
p3010
sg127
g1
(g128
g12
(dp3011
g130
I6
sg131
g132
sg133
g134
sg135
g132
sg136
I01
sg34
g174
sg138
g134
sg139
I0
sg140
I0
sg141
I0
sg142
g134
sg35
g175
sg144
I0
stRp3012
sg146
g147
sg148
F0.96999999999999997
sg149
Nsg30
S'NoName'
p3013
sbasg120
g2680
sg123
F0.52095999999999998
sg124
g125
sg33
S'200'
p3014
sg127
g1
(g128
g12
(dp3015
g130
I6
sg131
g132
sg133
g134
sg135
g132
sg136
I01
sg34
g174
sg138
g134
sg139
I0
sg140
I0
sg141
I0
sg142
g134
sg35
g175
sg144
I0
stRp3016
sg146
g147
sg148
F0.98999999999999999
sg149
Nsg30
S'NoName'
p3017
sbag1
(g2
g3
NtRp3018
(dp3019
g6
g1
(g7
g3
NtRp3020
(dp3021
g10
g1
(g11
g12
(dtRp3022
sg14
g1
(g11
g12
(dtRp3023
sg16
g1
(g11
g12
(dtRp3024
sg18
g1
(g11
g12
(dtRp3025
sg20
g1
(g11
g12
(dtRp3026
sg22
g1
(g11
g12
(dtRp3027
sbsg24
g25
sg26
g27
((lp3028
g33
ag32
ag29
ag30
atRp3029
sg37
(lp3030
g1
(g2
g3
NtRp3031
(dp3032
g6
g1
(g7
g3
NtRp3033
(dp3034
g10
g1
(g11
g12
(dtRp3035
sg14
g1
(g11
g12
(dtRp3036
sg16
g1
(g11
g12
(dtRp3037
sg18
g1
(g11
g12
(dtRp3038
sg20
g1
(g11
g12
(dtRp3039
sg22
g1
(g11
g12
(dtRp3040
sbsg24
g25
sg26
g27
((lp3041
g33
ag32
ag29
ag30
atRp3042
sg37
(lp3043
g1
(g2
g3
NtRp3044
(dp3045
g6
g1
(g7
g3
NtRp3046
(dp3047
g10
g1
(g11
g12
(dtRp3048
sg14
g1
(g11
g12
(dtRp3049
sg16
g1
(g11
g12
(dtRp3050
sg18
g1
(g11
g12
(dtRp3051
sg20
g1
(g11
g12
(dtRp3052
sg22
g1
(g11
g12
(dtRp3053
sbsg24
g25
sg26
g27
((lp3054
g33
ag32
ag29
ag30
atRp3055
sg37
(lp3056
g1
(g2
g3
NtRp3057
(dp3058
g6
g1
(g7
g3
NtRp3059
(dp3060
g10
g1
(g11
g12
(dtRp3061
sg14
g1
(g11
g12
(dtRp3062
sg16
g1
(g11
g12
(dtRp3063
sg18
g1
(g11
g12
(dtRp3064
sg20
g1
(g11
g12
(dtRp3065
sg22
g1
(g11
g12
(dtRp3066
sbsg24
g25
sg26
g27
((lp3067
g33
ag32
ag29
ag30
atRp3068
sg37
(lp3069
g1
(g2
g3
NtRp3070
(dp3071
g6
g1
(g7
g3
NtRp3072
(dp3073
g10
g1
(g11
g12
(dtRp3074
sg14
g1
(g11
g12
(dtRp3075
sg16
g1
(g11
g12
(dtRp3076
sg18
g1
(g11
g12
(dtRp3077
sg20
g1
(g11
g12
(dtRp3078
sg22
g1
(g11
g12
(dtRp3079
sbsg24
g25
sg26
g27
((lp3080
g33
ag32
ag29
ag30
atRp3081
sg37
(lp3082
g1
(g2
g3
NtRp3083
(dp3084
g6
g1
(g7
g3
NtRp3085
(dp3086
g10
g1
(g11
g12
(dtRp3087
sg14
g1
(g11
g12
(dtRp3088
sg16
g1
(g11
g12
(dtRp3089
sg18
g1
(g11
g12
(dtRp3090
sg20
g1
(g11
g12
(dtRp3091
sg22
g1
(g11
g12
(dtRp3092
sbsg24
g25
sg26
g27
((lp3093
g33
ag32
ag29
ag30
atRp3094
sg37
(lp3095
g1
(g2
g3
NtRp3096
(dp3097
g6
g1
(g7
g3
NtRp3098
(dp3099
g10
g1
(g11
g12
(dtRp3100
sg14
g1
(g11
g12
(dtRp3101
sg16
g1
(g11
g12
(dtRp3102
sg18
g1
(g11
g12
(dtRp3103
sg20
g1
(g11
g12
(dtRp3104
sg22
g1
(g11
g12
(dtRp3105
sbsg24
S'Lkl'
p3106
sg26
g27
((lp3107
g29
ag30
aS'sequence'
p3108
ag32
ag33
aS'species'
p3109
atRp3110
sg37
(lp3111
sg120
g3083
sg121
S'RWLSTKDLYSRLELPGLNQNVHAMFVMPLGFGNPMGDMFARLNNSFWLPPLSLEGAGTGWTVYPPLSHSGPSVDLAFHLTSSLLGAINFTNMRGPLFWTALLLLSLPVLAGTLLDRNFNTFEGGDPLYHLFWFFGHPEVYIIPGFGSHSTYKKFGMYASIGLGFVWSHHMYVGLDDRAYFLSATMIAPTGIKFSWLATYGGRPMLAFLFLFTGGTGVLNASDAFHDLYYVVHFHYVLSMGAFSLGYYYWPGLYNLFWFNFPMHFLGGMPRRPYPDAGWNSGSSYQLGPDESNEPH'
p3112
sg123
F0.00044999999999999999
sg124
g125
sg33
S'117'
p3113
sg127
g1
(g128
g12
(dp3114
g130
I4
sg131
g132
sg133
g134
sg135
g132
sg136
I01
sg34
g137
sg138
g134
sg139
I0
sg140
I0
sg141
I0
sg142
g134
sg35
g143
sg144
I0
stRp3115
sg146
g147
sg148
F1
sg149
Nsg30
S'LkluyE'
p3116
sbag1
(g2
g3
NtRp3117
(dp3118
g6
g1
(g7
g3
NtRp3119
(dp3120
g10
g1
(g11
g12
(dtRp3121
sg14
g1
(g11
g12
(dtRp3122
sg16
g1
(g11
g12
(dtRp3123
sg18
g1
(g11
g12
(dtRp3124
sg20
g1
(g11
g12
(dtRp3125
sg22
g1
(g11
g12
(dtRp3126
sbsg24
S'Lkl'
p3127
sg26
g27
((lp3128
g29
ag30
aS'sequence'
p3129
ag32
ag33
aS'species'
p3130
atRp3131
sg37
(lp3132
sg120
g3083
sg121
S'RWLSTKDLYSRLELPGLNQNVHAMFVMPLGFGNPMGDMFARLNNSFWLPPLSLEGAGTGWTVYPPLSHSGPSVDLAFHLTSSLLGAINFTNMRGPLFWTALLLLSLPVLAGTLLDRNFNTFEGGDPLYHLFWFFGHPEVYIIPGFGSHSTYKKFGMYASIGLGFVWSHHMYVGLDDRAYFLSATMIAPTGIKFSWLATYGGRPMLAFLFLFTGGTGVLNASDAFHDLYYVVHFHYVLSMGAFSLGYYYWPGLYNLFWFNFPMHFLGGMPRRPYPDAGWNSGSSYQLGPDESNEPH'
p3133
sg123
F0.0077400000000000004
sg124
g125
sg33
S'128'
p3134
sg127
g1
(g128
g12
(dp3135
g130
I4
sg131
g132
sg133
g134
sg135
g132
sg136
I01
sg34
g137
sg138
g134
sg139
I0
sg140
I0
sg141
I0
sg142
g134
sg35
g143
sg144
I0
stRp3136
sg146
g147
sg148
F1
sg149
Nsg30
S'LkluyD'
p3137
sbasg120
g3070
sg123
F0.0017099999999999999
sg124
g125
sg33
S'96'
p3138
sg127
g1
(g128
g12
(dp3139
g130
I6
sg131
g132
sg133
g134
sg135
g132
sg136
I01
sg34
g174
sg138
g134
sg139
I0
sg140
I0
sg141
I0
sg142
g134
sg35
g175
sg144
I0
stRp3140
sg146
g147
sg148
F0.56000000000000005
sg149
Nsg30
S'NoName'
p3141
sbag1
(g2
g3
NtRp3142
(dp3143
g6
g1
(g7
g3
NtRp3144
(dp3145
g10
g1
(g11
g12
(dtRp3146
sg14
g1
(g11
g12
(dtRp3147
sg16
g1
(g11
g12
(dtRp3148
sg18
g1
(g11
g12
(dtRp3149
sg20
g1
(g11
g12
(dtRp3150
sg22
g1
(g11
g12
(dtRp3151
sbsg24
g25
sg26
g27
((lp3152
g33
ag32
ag29
ag30
atRp3153
sg37
(lp3154
g1
(g2
g3
NtRp3155
(dp3156
g6
g1
(g7
g3
NtRp3157
(dp3158
g10
g1
(g11
g12
(dtRp3159
sg14
g1
(g11
g12
(dtRp3160
sg16
g1
(g11
g12
(dtRp3161
sg18
g1
(g11
g12
(dtRp3162
sg20
g1
(g11
g12
(dtRp3163
sg22
g1
(g11
g12
(dtRp3164
sbsg24
g25
sg26
g27
((lp3165
g33
ag32
ag29
ag30
atRp3166
sg37
(lp3167
g1
(g2
g3
NtRp3168
(dp3169
g6
g1
(g7
g3
NtRp3170
(dp3171
g10
g1
(g11
g12
(dtRp3172
sg14
g1
(g11
g12
(dtRp3173
sg16
g1
(g11
g12
(dtRp3174
sg18
g1
(g11
g12
(dtRp3175
sg20
g1
(g11
g12
(dtRp3176
sg22
g1
(g11
g12
(dtRp3177
sbsg24
g25
sg26
g27
((lp3178
g33
ag32
ag29
ag30
atRp3179
sg37
(lp3180
g1
(g2
g3
NtRp3181
(dp3182
g6
g1
(g7
g3
NtRp3183
(dp3184
g10
g1
(g11
g12
(dtRp3185
sg14
g1
(g11
g12
(dtRp3186
sg16
g1
(g11
g12
(dtRp3187
sg18
g1
(g11
g12
(dtRp3188
sg20
g1
(g11
g12
(dtRp3189
sg22
g1
(g11
g12
(dtRp3190
sbsg24
S'Lkl'
p3191
sg26
g27
((lp3192
g29
ag30
aS'sequence'
p3193
ag32
ag33
aS'species'
p3194
atRp3195
sg37
(lp3196
sg120
g3168
sg121
S'RWLSTKDLYSRLELPGLNQNVHAMFVMPLGFGNPMGDMFARLNNSFWLPPLSLEGAGTGWTVYPPLSHSGPSVDLAFHLTSSLLGAINFTNMRGPLFWTALLLLSLPVLAGTLLDRNFNTFEGGDPLYHLFWFFGHPEVYIIPGFGSHSTYKKFGMYASIGLGFVWSHHMYVGLDDRAYFLSATMIAPTGIKFSWLATYGGRPMLAFLFLFTGGTGVLNASDAFHDLYYVVHFHYVLSMGAFSLGYYYWPGLYNLFWFNFPMHFLGGMPRRPYPDAGWNSGSSYQLGPDESNEPH'
p3197
sg123
F0.00038999999999999999
sg124
g125
sg33
S'170'
p3198
sg127
g1
(g128
g12
(dp3199
g130
I4
sg131
g132
sg133
g134
sg135
g132
sg136
I01
sg34
g137
sg138
g134
sg139
I0
sg140
I0
sg141
I0
sg142
g134
sg35
g143
sg144
I0
stRp3200
sg146
g147
sg148
F1
sg149
Nsg30
S'LkluyF'
p3201
sbag1
(g2
g3
NtRp3202
(dp3203
g6
g1
(g7
g3
NtRp3204
(dp3205
g10
g1
(g11
g12
(dtRp3206
sg14
g1
(g11
g12
(dtRp3207
sg16
g1
(g11
g12
(dtRp3208
sg18
g1
(g11
g12
(dtRp3209
sg20
g1
(g11
g12
(dtRp3210
sg22
g1
(g11
g12
(dtRp3211
sbsg24
S'Lkl'
p3212
sg26
g27
((lp3213
g29
ag30
aS'sequence'
p3214
ag32
ag33
aS'species'
p3215
atRp3216
sg37
(lp3217
sg120
g3168
sg121
S'RWLSTKDLYSRLELPGLNQNVHAMFVMPLGFGNPMGDMFARLNNSFWLPPLSLEGAGTGWTVYPPLSHSGPSVDLAFHLTSSLLGAINFTNMRGPLFWTALLLLSLPVLAGTLLDRNFNTFEGGDPLYHLFWFFGHPEVYIIPGFGSHSTYKKFGMYASIGLGFVWSHHMYVGLDDRAYFLSATMIAPTGIKFSWLATYGGRPMLAFLFLFTGGTGVLNASDAFHDLYYVVHFHYVLSMGAFSLGYYYWPGLYNLFWFNFPMHFLGGMPRRPYPDAGWNSGSSYQLGPDESNEPH'
p3218
sg123
F0.00038000000000000002
sg124
g125
sg33
S'181'
p3219
sg127
g1
(g128
g12
(dp3220
g130
I4
sg131
g132
sg133
g134
sg135
g132
sg136
I01
sg34
g137
sg138
g134
sg139
I0
sg140
I0
sg141
I0
sg142
g134
sg35
g143
sg144
I0
stRp3221
sg146
g147
sg148
F1
sg149
Nsg30
S'LkluyC'
p3222
sbasg120
g3155
sg123
F1.0000000000000001e-05
sg124
g125
sg33
S'148'
p3223
sg127
g1
(g128
g12
(dp3224
g130
I6
sg131
g132
sg133
g134
sg135
g132
sg136
I01
sg34
g174
sg138
g134
sg139
I0
sg140
I0
sg141
I0
sg142
g134
sg35
g175
sg144
I0
stRp3225
sg146
g147
sg148
F1
sg149
Nsg30
S'NoName'
p3226
sbag1
(g2
g3
NtRp3227
(dp3228
g6
g1
(g7
g3
NtRp3229
(dp3230
g10
g1
(g11
g12
(dtRp3231
sg14
g1
(g11
g12
(dtRp3232
sg16
g1
(g11
g12
(dtRp3233
sg18
g1
(g11
g12
(dtRp3234
sg20
g1
(g11
g12
(dtRp3235
sg22
g1
(g11
g12
(dtRp3236
sbsg24
S'Lkl'
p3237
sg26
g27
((lp3238
g29
ag30
aS'sequence'
p3239
ag32
ag33
aS'species'
p3240
atRp3241
sg37
(lp3242
sg120
g3155
sg121
S'RWLSTKDLYSRLELPGLNQNVHAMFVMPLGFGNPMGDMFARLNNSFWLPPLSLEGAGTGWTVYPPLSHSGPSVDLAFHLTSSLLGAINFTNMRGPLFWTALLLLSLPVLAGTLLDRNFNTFEGGDPLYHLFWFFGHPEVYIIPGFGSHSTYKKFGMYASIGLGFVWSHHMYVGLDDRAYFLSATMIAPTGIKFSWLATYGGRPMLAFLFLFTGGTGVLNASDAFHDLYYVVHFHYVLSMGAFSLGYYYWPGLYNLFWFNFPMHFLGGMPRRPYPDAGWNSGSSYQLGPDESNEPH'
p3243
sg123
F0.00040999999999999999
sg124
g125
sg33
S'191'
p3244
sg127
g1
(g128
g12
(dp3245
g130
I4
sg131
g132
sg133
g134
sg135
g132
sg136
I01
sg34
g137
sg138
g134
sg139
I0
sg140
I0
sg141
I0
sg142
g134
sg35
g143
sg144
I0
stRp3246
sg146
g147
sg148
F1
sg149
Nsg30
S'LkluyB'
p3247
sbasg120
g3142
sg123
F1.0000000000000001e-05
sg124
g125
sg33
S'138'
p3248
sg127
g1
(g128
g12
(dp3249
g130
I6
sg131
g132
sg133
g134
sg135
g132
sg136
I01
sg34
g174
sg138
g134
sg139
I0
sg140
I0
sg141
I0
sg142
g134
sg35
g175
sg144
I0
stRp3250
sg146
g147
sg148
F1
sg149
Nsg30
S'NoName'
p3251
sbag1
(g2
g3
NtRp3252
(dp3253
g6
g1
(g7
g3
NtRp3254
(dp3255
g10
g1
(g11
g12
(dtRp3256
sg14
g1
(g11
g12
(dtRp3257
sg16
g1
(g11
g12
(dtRp3258
sg18
g1
(g11
g12
(dtRp3259
sg20
g1
(g11
g12
(dtRp3260
sg22
g1
(g11
g12
(dtRp3261
sbsg24
S'Lkl'
p3262
sg26
g27
((lp3263
g29
ag30
aS'sequence'
p3264
ag32
ag33
aS'species'
p3265
atRp3266
sg37
(lp3267
sg120
g3142
sg121
S'RWLSTKDLYSRLELPGLNQNVHAMFVMPLGFGNPMGDMFARLNNSFWLPPLSLEGAGTGWTVYPPLSHSGPSVDLAFHLTSSLLGAINFTNMRGPLFWTALLLLSLPVLAGTLLDRNFNTFEGGDPLYHLFWFFGHPEVYIIPGFGSHSTYKKFGMYASIGLGFVWSHHMYVGLDDRAYFLSATMIAPTGIKFSWLATYGGRPMLAFLFLFTGGTGVLNASDAFHDLYYVVHFHYVLSMGAFSLGYYYWPGLYNLFWFNFPMHFLGGMPRRPYPDAGWNSGSSYQLGPDESNEPH'
p3268
sg123
F0.00040999999999999999
sg124
g125
sg33
S'202'
p3269
sg127
g1
(g128
g12
(dp3270
g130
I4
sg131
g132
sg133
g134
sg135
g132
sg136
I01
sg34
g137
sg138
g134
sg139
I0
sg140
I0
sg141
I0
sg142
g134
sg35
g143
sg144
I0
stRp3271
sg146
g147
sg148
F1
sg149
Nsg30
S'LkluyA'
p3272
sbasg120
g3070
sg123
F0.0035300000000000002
sg124
g125
sg33
S'107'
p3273
sg127
g1
(g128
g12
(dp3274
g130
I6
sg131
g132
sg133
g134
sg135
g132
sg136
I01
sg34
g174
sg138
g134
sg139
I0
sg140
I0
sg141
I0
sg142
g134
sg35
g175
sg144
I0
stRp3275
sg146
g147
sg148
F0.91000000000000003
sg149
Nsg30
S'NoName'
p3276
sbasg120
g3057
sg123
F0.054280000000000002
sg124
g125
sg33
S'86'
p3277
sg127
g1
(g128
g12
(dp3278
g130
I6
sg131
g132
sg133
g134
sg135
g132
sg136
I01
sg34
g174
sg138
g134
sg139
I0
sg140
I0
sg141
I0
sg142
g134
sg35
g175
sg144
I0
stRp3279
sg146
g147
sg148
F0.98999999999999999
sg149
Nsg30
S'NoName'
p3280
sbag1
(g2
g3
NtRp3281
(dp3282
g6
g1
(g7
g3
NtRp3283
(dp3284
g10
g1
(g11
g12
(dtRp3285
sg14
g1
(g11
g12
(dtRp3286
sg16
g1
(g11
g12
(dtRp3287
sg18
g1
(g11
g12
(dtRp3288
sg20
g1
(g11
g12
(dtRp3289
sg22
g1
(g11
g12
(dtRp3290
sbsg24
g25
sg26
g27
((lp3291
g33
ag32
ag29
ag30
atRp3292
sg37
(lp3293
g1
(g2
g3
NtRp3294
(dp3295
g6
g1
(g7
g3
NtRp3296
(dp3297
g10
g1
(g11
g12
(dtRp3298
sg14
g1
(g11
g12
(dtRp3299
sg16
g1
(g11
g12
(dtRp3300
sg18
g1
(g11
g12
(dtRp3301
sg20
g1
(g11
g12
(dtRp3302
sg22
g1
(g11
g12
(dtRp3303
sbsg24
S'Lan'
p3304
sg26
g27
((lp3305
g29
ag30
aS'sequence'
p3306
ag32
ag33
aS'species'
p3307
atRp3308
sg37
(lp3309
sg120
g3281
sg121
S'RWLSTKDLYSRLELPGLNQNVHAMFVMPLGFGNPMGDMFARLNNSFWLPPLSLEGAGTGWTLYPPLSHSGPSVDLAFHLTSSLLGAINFTNMRGPLFWTALLLLSLPVLAGTVLDRNFNTFEGGDPLYHLFWFFGHPEVYIIPGFGSHSTYKKFGMYASIGLGFVWSHHMYVGLDDRAYFTSATMIAPTGIKFSWLALYGGRPMLAFLFLFTGGTGVLNASDAFHDTYYVVHFHYVLSMGAFSLGYYYWPGLYNLFWFNFPMHFLGGMPRRPYPDAGWNSGSSYQLGPDESNEPH'
p3310
sg123
F0.10922999999999999
sg124
g125
sg33
S'224'
p3311
sg127
g1
(g128
g12
(dp3312
g130
I4
sg131
g132
sg133
g134
sg135
g132
sg136
I01
sg34
g137
sg138
g134
sg139
I0
sg140
I0
sg141
I0
sg142
g134
sg35
g143
sg144
I0
stRp3313
sg146
g147
sg148
F1
sg149
Nsg30
S'LanspA'
p3314
sbag1
(g2
g3
NtRp3315
(dp3316
g6
g1
(g7
g3
NtRp3317
(dp3318
g10
g1
(g11
g12
(dtRp3319
sg14
g1
(g11
g12
(dtRp3320
sg16
g1
(g11
g12
(dtRp3321
sg18
g1
(g11
g12
(dtRp3322
sg20
g1
(g11
g12
(dtRp3323
sg22
g1
(g11
g12
(dtRp3324
sbsg24
g25
sg26
g27
((lp3325
g33
ag32
ag29
ag30
atRp3326
sg37
(lp3327
g1
(g2
g3
NtRp3328
(dp3329
g6
g1
(g7
g3
NtRp3330
(dp3331
g10
g1
(g11
g12
(dtRp3332
sg14
g1
(g11
g12
(dtRp3333
sg16
g1
(g11
g12
(dtRp3334
sg18
g1
(g11
g12
(dtRp3335
sg20
g1
(g11
g12
(dtRp3336
sg22
g1
(g11
g12
(dtRp3337
sbsg24
g25
sg26
g27
((lp3338
g33
ag32
ag29
ag30
atRp3339
sg37
(lp3340
g1
(g2
g3
NtRp3341
(dp3342
g6
g1
(g7
g3
NtRp3343
(dp3344
g10
g1
(g11
g12
(dtRp3345
sg14
g1
(g11
g12
(dtRp3346
sg16
g1
(g11
g12
(dtRp3347
sg18
g1
(g11
g12
(dtRp3348
sg20
g1
(g11
g12
(dtRp3349
sg22
g1
(g11
g12
(dtRp3350
sbsg24
S'Lno'
p3351
sg26
g27
((lp3352
g29
ag30
aS'sequence'
p3353
ag32
ag33
aS'species'
p3354
atRp3355
sg37
(lp3356
sg120
g3328
sg121
S'RWLSTKDLYSRLELPGLNQNVHAMFVMPLGFGNPMGDMFARLNNSFWLPPLSLEGAGTGWTIYPPLSHSGPSVDLAFHLTSSLLGAINFTNMRGPLFWTALLLLSLPVLAGTILDRNFNTFEGGDPLYHLFWFFGHPEVYIIPGFGSHSTYKKFGMYASIGLGFVWSHHMYVGLDDRAYFTSALMIAPTGIKFSWLALYGGRPMLAFLFLFTGGTGVLNASDAFHDTYYVVHFHYVLSMGAFSLGYYYWPGLYNLFWFNFPMHFLGGMPRRPYPDAGWNSGSSYQLGPDESNEPH'
p3357
sg123
F0.0075199999999999998
sg124
g125
sg33
S'28'
p3358
sg127
g1
(g128
g12
(dp3359
g130
I4
sg131
g132
sg133
g134
sg135
g132
sg136
I01
sg34
g137
sg138
g134
sg139
I0
sg140
I0
sg141
I0
sg142
g134
sg35
g143
sg144
I0
stRp3360
sg146
g147
sg148
F1
sg149
Nsg30
S'LnothA'
p3361
sbag1
(g2
g3
NtRp3362
(dp3363
g6
g1
(g7
g3
NtRp3364
(dp3365
g10
g1
(g11
g12
(dtRp3366
sg14
g1
(g11
g12
(dtRp3367
sg16
g1
(g11
g12
(dtRp3368
sg18
g1
(g11
g12
(dtRp3369
sg20
g1
(g11
g12
(dtRp3370
sg22
g1
(g11
g12
(dtRp3371
sbsg24
g25
sg26
g27
((lp3372
g33
ag32
ag29
ag30
atRp3373
sg37
(lp3374
g1
(g2
g3
NtRp3375
(dp3376
g6
g1
(g7
g3
NtRp3377
(dp3378
g10
g1
(g11
g12
(dtRp3379
sg14
g1
(g11
g12
(dtRp3380
sg16
g1
(g11
g12
(dtRp3381
sg18
g1
(g11
g12
(dtRp3382
sg20
g1
(g11
g12
(dtRp3383
sg22
g1
(g11
g12
(dtRp3384
sbsg24
S'Lda'
p3385
sg26
g27
((lp3386
g29
ag30
aS'sequence'
p3387
ag32
ag33
aS'species'
p3388
atRp3389
sg37
(lp3390
sg120
g3362
sg121
S'RWLSTKDLYSRLELPGLNQNVHAMFVMPLGFGNPMGDMFARLNNSFWLPPLSLEGAGTGWTVYPPLSHSGPSVDLAFHLTSSLLGAINFTNMRGPLFWTALLLLSLPVLAGTILDRNFNTFEGGDPLYHLFWFFGHPEVYIIPGFGSHSTYKKFGMYASIGLGFVWSHHMYVGLDDRAYFTSATMIAPTGIKFSWLALYGGRPMLAFLFLFTGGTGVLNASDAFHDTYYVVHFHYVLSMGAFSLGYYYWPGLYNLFWFNFPMHFLGGMPRRPYPDAGWNSGSSYQLGPDESNEPH'
p3391
sg123
F0.023539999999999998
sg124
g125
sg33
S'49'
p3392
sg127
g1
(g128
g12
(dp3393
g130
I4
sg131
g132
sg133
g134
sg135
g132
sg136
I01
sg34
g137
sg138
g134
sg139
I0
sg140
I0
sg141
I0
sg142
g134
sg35
g143
sg144
I0
stRp3394
sg146
g147
sg148
F1
sg149
Nsg30
S'LdasiA'
p3395
sbag1
(g2
g3
NtRp3396
(dp3397
g6
g1
(g7
g3
NtRp3398
(dp3399
g10
g1
(g11
g12
(dtRp3400
sg14
g1
(g11
g12
(dtRp3401
sg16
g1
(g11
g12
(dtRp3402
sg18
g1
(g11
g12
(dtRp3403
sg20
g1
(g11
g12
(dtRp3404
sg22
g1
(g11
g12
(dtRp3405
sbsg24
g25
sg26
g27
((lp3406
g33
ag32
ag29
ag30
atRp3407
sg37
(lp3408
g1
(g2
g3
NtRp3409
(dp3410
g6
g1
(g7
g3
NtRp3411
(dp3412
g10
g1
(g11
g12
(dtRp3413
sg14
g1
(g11
g12
(dtRp3414
sg16
g1
(g11
g12
(dtRp3415
sg18
g1
(g11
g12
(dtRp3416
sg20
g1
(g11
g12
(dtRp3417
sg22
g1
(g11
g12
(dtRp3418
sbsg24
S'Lme'
p3419
sg26
g27
((lp3420
g29
ag30
aS'sequence'
p3421
ag32
ag33
aS'species'
p3422
atRp3423
sg37
(lp3424
sg120
g3396
sg121
S'RWLSTKDLYSRLELPGLNQNVHAMFVMPLGFGNPMGDMFARLNNSFWLPPLSLEGAGTGWTVYPPLSHSGPSVDLAFHLTSSLLGAINFTNMRGPLFWTALLLLSLPVLAGTILDRNFNTFEGGDPLYHLFWFFGHPEVYIIPGFGSHSTYKKFGMYASIGLGFVWSHHMYVGLDDRAYFTSATMIAPTGIKFSWLALYGGRPMLAFLFLFTGGTGVLNASDAFHDTYYVVHFHYVLSMGAFSLGYYYWPGLYNLFWFNFPMHFLGGMPRRPYPDAGWNSGSSYQLGPDESNEPH'
p3425
sg123
F0.0050299999999999997
sg124
g125
sg33
S'70'
p3426
sg127
g1
(g128
g12
(dp3427
g130
I4
sg131
g132
sg133
g134
sg135
g132
sg136
I01
sg34
g137
sg138
g134
sg139
I0
sg140
I0
sg141
I0
sg142
g134
sg35
g143
sg144
I0
stRp3428
sg146
g147
sg148
F1
sg149
Nsg30
S'LmeyeA'
p3429
sbag1
(g2
g3
NtRp3430
(dp3431
g6
g1
(g7
g3
NtRp3432
(dp3433
g10
g1
(g11
g12
(dtRp3434
sg14
g1
(g11
g12
(dtRp3435
sg16
g1
(g11
g12
(dtRp3436
sg18
g1
(g11
g12
(dtRp3437
sg20
g1
(g11
g12
(dtRp3438
sg22
g1
(g11
g12
(dtRp3439
sbsg24
S'Lan'
p3440
sg26
g27
((lp3441
g29
ag30
aS'sequence'
p3442
ag32
ag33
aS'species'
p3443
atRp3444
sg37
(lp3445
sg120
g3396
sg121
S'RWLSTKDLYSRLELPGLNQNVHAMFVMPLGFGNPMGDMFARLNNSFWLPPLSLEGAGTGWTVYPPLSHSGPSVDLAFHLTSSLLGAINFTNMRGPLFWTALLLLSLPVLAGTILDRNFNTFEGGDPLYHLFWFFGHPEVYIIPGFGSHSTYKKFGMYASIGLGFVWSHHMYVGLDDRAYFTSALMIAPTGIKFSWLALYGGRPMLAFLFLFTGGTGVLNASDAFHDTYYVVHFHYVLSMGAFSLGYYYWPGLYNLFWFNFPMHFLGGMPRRPYPDAGWNSGSSYQLGPDESNEPH'
p3446
sg123
F0.012290000000000001
sg124
g125
sg33
S'82'
p3447
sg127
g1
(g128
g12
(dp3448
g130
I4
sg131
g132
sg133
g134
sg135
g132
sg136
I01
sg34
g137
sg138
g134
sg139
I0
sg140
I0
sg141
I0
sg142
g134
sg35
g143
sg144
I0
stRp3449
sg146
g147
sg148
F1
sg149
Nsg30
S'LanspB'
p3450
sbasg120
g3362
sg123
F0.012070000000000001
sg124
g125
sg33
S'38'
p3451
sg127
g1
(g128
g12
(dp3452
g130
I6
sg131
g132
sg133
g134
sg135
g132
sg136
I01
sg34
g174
sg138
g134
sg139
I0
sg140
I0
sg141
I0
sg142
g134
sg35
g175
sg144
I0
stRp3453
sg146
g147
sg148
F0.98999999999999999
sg149
Nsg30
S'NoName'
p3454
sbasg120
g3328
sg123
F0.0088199999999999997
sg124
g125
sg33
S'18'
p3455
sg127
g1
(g128
g12
(dp3456
g130
I6
sg131
g132
sg133
g134
sg135
g132
sg136
I01
sg34
g174
sg138
g134
sg139
I0
sg140
I0
sg141
I0
sg142
g134
sg35
g175
sg144
I0
stRp3457
sg146
g147
sg148
F0.95999999999999996
sg149
Nsg30
S'NoName'
p3458
sbasg120
g3315
sg123
F0.016570000000000001
sg124
g125
sg33
S'7'
sg127
g1
(g128
g12
(dp3459
g130
I6
sg131
g132
sg133
g134
sg135
g132
sg136
I01
sg34
g174
sg138
g134
sg139
I0
sg140
I0
sg141
I0
sg142
g134
sg35
g175
sg144
I0
stRp3460
sg146
g147
sg148
F0.94999999999999996
sg149
Nsg30
S'NoName'
p3461
sbag1
(g2
g3
NtRp3462
(dp3463
g6
g1
(g7
g3
NtRp3464
(dp3465
g10
g1
(g11
g12
(dtRp3466
sg14
g1
(g11
g12
(dtRp3467
sg16
g1
(g11
g12
(dtRp3468
sg18
g1
(g11
g12
(dtRp3469
sg20
g1
(g11
g12
(dtRp3470
sg22
g1
(g11
g12
(dtRp3471
sbsg24
S'Kth'
p3472
sg26
g27
((lp3473
g29
ag30
aS'sequence'
p3474
ag32
ag33
aS'species'
p3475
atRp3476
sg37
(lp3477
sg120
g3315
sg121
S'RWLSTKDLYSRLELPGLNQNVHAMFVMPLGFGNPMGDMFARLNNSFWLPPLSLEGAGTGWTVYPPLSHSGPSVDLAFHLTSSLLGAINFTNMRGPLFWTALLLLSLPVLAGTILDRNFNTFEGGDPLYHLFWFFGHPEVYIIPGFGSHSTYKKFGMYASIGLGFVWSHHMYVGLDDRAYFTSATMIAPTGIKFSWLALYGGRPMLAFLFLFTGGTGVLNASDAFHDTYYVVHFHYVLSMGAFSLGYYYWPGLYNLFWFNFPMHFLGGMPRRPYPDAGWNSGSSYQLGPDESNEPH'
p3478
sg123
F0.021499999999999998
sg124
g125
sg33
S'93'
p3479
sg127
g1
(g128
g12
(dp3480
g130
I4
sg131
g132
sg133
g134
sg135
g132
sg136
I01
sg34
g137
sg138
g134
sg139
I0
sg140
I0
sg141
I0
sg142
g134
sg35
g143
sg144
I0
stRp3481
sg146
g147
sg148
F1
sg149
Nsg30
S'KtherA'
p3482
sbasg120
g3281
sg123
F0.033250000000000002
sg124
g125
sg33
S'213'
p3483
sg127
g1
(g128
g12
(dp3484
g130
I6
sg131
g132
sg133
g134
sg135
g132
sg136
I01
sg34
g174
sg138
g134
sg139
I0
sg140
I0
sg141
I0
sg142
g134
sg35
g175
sg144
I0
stRp3485
sg146
g147
sg148
F0.93999999999999995
sg149
Nsg30
S'NoName'
p3486
sbasg120
g3057
sg123
F0.038859999999999999
sg124
g125
sg33
S'159'
p3487
sg127
g1
(g128
g12
(dp3488
g130
I6
sg131
g132
sg133
g134
sg135
g132
sg136
I01
sg34
g174
sg138
g134
sg139
I0
sg140
I0
sg141
I0
sg142
g134
sg35
g175
sg144
I0
stRp3489
sg146
g147
sg148
F0.92000000000000004
sg149
Nsg30
S'NoName'
p3490
sbasg120
g3044
sg123
F0.050380000000000001
sg124
g125
sg33
S'74'
p3491
sg127
g1
(g128
g12
(dp3492
g130
I6
sg131
g132
sg133
g134
sg135
g132
sg136
I01
sg34
g174
sg138
g134
sg139
I0
sg140
I0
sg141
I0
sg142
g134
sg35
g175
sg144
I0
stRp3493
sg146
g147
sg148
F0.89000000000000001
sg149
Nsg30
S'NoName'
p3494
sbag1
(g2
g3
NtRp3495
(dp3496
g6
g1
(g7
g3
NtRp3497
(dp3498
g10
g1
(g11
g12
(dtRp3499
sg14
g1
(g11
g12
(dtRp3500
sg16
g1
(g11
g12
(dtRp3501
sg18
g1
(g11
g12
(dtRp3502
sg20
g1
(g11
g12
(dtRp3503
sg22
g1
(g11
g12
(dtRp3504
sbsg24
g25
sg26
g27
((lp3505
g33
ag32
ag29
ag30
atRp3506
sg37
(lp3507
g1
(g2
g3
NtRp3508
(dp3509
g6
g1
(g7
g3
NtRp3510
(dp3511
g10
g1
(g11
g12
(dtRp3512
sg14
g1
(g11
g12
(dtRp3513
sg16
g1
(g11
g12
(dtRp3514
sg18
g1
(g11
g12
(dtRp3515
sg20
g1
(g11
g12
(dtRp3516
sg22
g1
(g11
g12
(dtRp3517
sbsg24
S'Kma'
p3518
sg26
g27
((lp3519
g29
ag30
aS'sequence'
p3520
ag32
ag33
aS'species'
p3521
atRp3522
sg37
(lp3523
sg120
g3495
sg121
S'RWLSTKDLYSRLELPGLNQNVHAMFVMPLGFGNPMGDMFARLNNSFWLPPLSLEGAGTGWTVYPPLSHSGPSVDLAFHLTSSLLGAINFTNMRGPLFWTALLLLSLPVLAGTLLDRNFNTFEGGDPLYHLFWFFGHPEVYIIPGFGSHSTYKKFGMYASIGLGFVWSHHMYVGLDDRAYFTSATMIAPTGIKFSWLATYGGRPMLAFLFLFTGGTGVLNASDAFHDTYYVVHFHYVLSMGAFSLGYYYWPGLYNLFWFNFPMHFLGGMPRRPYPDAGWNSGSSYQLGPDESNEPH'
p3524
sg123
F0.04018
sg124
g125
sg33
S'114'
p3525
sg127
g1
(g128
g12
(dp3526
g130
I4
sg131
g132
sg133
g134
sg135
g132
sg136
I01
sg34
g137
sg138
g134
sg139
I0
sg140
I0
sg141
I0
sg142
g134
sg35
g143
sg144
I0
stRp3527
sg146
g147
sg148
F1
sg149
Nsg30
S'KmarxA'
p3528
sbag1
(g2
g3
NtRp3529
(dp3530
g6
g1
(g7
g3
NtRp3531
(dp3532
g10
g1
(g11
g12
(dtRp3533
sg14
g1
(g11
g12
(dtRp3534
sg16
g1
(g11
g12
(dtRp3535
sg18
g1
(g11
g12
(dtRp3536
sg20
g1
(g11
g12
(dtRp3537
sg22
g1
(g11
g12
(dtRp3538
sbsg24
S'Kla'
p3539
sg26
g27
((lp3540
g29
ag30
aS'sequence'
p3541
ag32
ag33
aS'species'
p3542
atRp3543
sg37
(lp3544
sg120
g3495
sg121
S'RWLSTKDLYSRLELPGLNQNVHAMFVMPLGFGNPLGDMFARLNNSFWLPPLSLEGAGTGWTVYPPLSHSGPSVDLAFHLTSSLLGAINFTNMRGPLFWTALLLLSLPVLAGTLLDRNFNTFEGGDPLYHLFWFFGHPEVYIIPGFGSHSTYKKFGMYASIGLGFVWSHHMYVGLDDRAYFTSATMIAPTGIKFSWLATYGGRPMLAFLFLFTGGTGVLNASDAFHDTYYVVHFHYVLSMGAFSLGYYYWPGLYNLFWFNFPMHFLGGMPRRPYPDAGWNSGSSYQLGPDESNEPH'
p3545
sg123
F0.043529999999999999
sg124
g125
sg33
S'124'
p3546
sg127
g1
(g128
g12
(dp3547
g130
I4
sg131
g132
sg133
g134
sg135
g132
sg136
I01
sg34
g137
sg138
g134
sg139
I0
sg140
I0
sg141
I0
sg142
g134
sg35
g143
sg144
I0
stRp3548
sg146
g147
sg148
F1
sg149
Nsg30
S'KlactA'
p3549
sbasg120
g3044
sg123
F0.13938999999999999
sg124
g125
sg33
S'60'
p3550
sg127
g1
(g128
g12
(dp3551
g130
I6
sg131
g132
sg133
g134
sg135
g132
sg136
I01
sg34
g174
sg138
g134
sg139
I0
sg140
I0
sg141
I0
sg142
g134
sg35
g175
sg144
I0
stRp3552
sg146
g147
sg148
F0.98999999999999999
sg149
Nsg30
S'NoName'
p3553
sbasg120
g3031
sg123
F1.0000000000000001e-05
sg124
g125
sg33
S'63'
p3554
sg127
g1
(g128
g12
(dp3555
g130
I6
sg131
g132
sg133
g134
sg135
g132
sg136
I01
sg34
g174
sg138
g134
sg139
I0
sg140
I0
sg141
I0
sg142
g134
sg35
g175
sg144
I0
stRp3556
sg146
g147
sg148
F1
sg149
Nsg30
S'NoName'
p3557
sbag1
(g2
g3
NtRp3558
(dp3559
g6
g1
(g7
g3
NtRp3560
(dp3561
g10
g1
(g11
g12
(dtRp3562
sg14
g1
(g11
g12
(dtRp3563
sg16
g1
(g11
g12
(dtRp3564
sg18
g1
(g11
g12
(dtRp3565
sg20
g1
(g11
g12
(dtRp3566
sg22
g1
(g11
g12
(dtRp3567
sbsg24
g25
sg26
g27
((lp3568
g33
ag32
ag29
ag30
atRp3569
sg37
(lp3570
g1
(g2
g3
NtRp3571
(dp3572
g6
g1
(g7
g3
NtRp3573
(dp3574
g10
g1
(g11
g12
(dtRp3575
sg14
g1
(g11
g12
(dtRp3576
sg16
g1
(g11
g12
(dtRp3577
sg18
g1
(g11
g12
(dtRp3578
sg20
g1
(g11
g12
(dtRp3579
sg22
g1
(g11
g12
(dtRp3580
sbsg24
S'Huv'
p3581
sg26
g27
((lp3582
g29
ag30
aS'sequence'
p3583
ag32
ag33
aS'species'
p3584
atRp3585
sg37
(lp3586
sg120
g3558
sg121
S'-MITTKDLYSRLELSGINHNSHAMFIMPIGFGNPAGDMFPRLNNSFWLVPVSLEGAGTGWTVYYPLSHSSVSVDLVFHCLSSLLGAINFTNFL-SLFWLALLLLSLPVLVGTLLDRNFNLYEGGDPLYHLFWFFGHPEVYIIPAFGSMSAYSKFGMYASIGLGFVWVHHMFVGLDDRAYFTSATMIAPLGIKFSWLALIGGRPVLAFLVLFLGGTGVLNASDAFHDTYYVVHFHYVLSLGAFGIGYYYWPGLYNLFVVNFPMHYLGGMPRRSYPDSAWNTGASVQLGTDLLPEPH'
p3587
sg123
F3.9441199999999998
sg124
g125
sg33
S'145'
p3588
sg127
g1
(g128
g12
(dp3589
g130
I4
sg131
g132
sg133
g134
sg135
g132
sg136
I01
sg34
g137
sg138
g134
sg139
I0
sg140
I0
sg141
I0
sg142
g134
sg35
g143
sg144
I0
stRp3590
sg146
g147
sg148
F1
sg149
Nsg30
S'HuvarA'
p3591
sbag1
(g2
g3
NtRp3592
(dp3593
g6
g1
(g7
g3
NtRp3594
(dp3595
g10
g1
(g11
g12
(dtRp3596
sg14
g1
(g11
g12
(dtRp3597
sg16
g1
(g11
g12
(dtRp3598
sg18
g1
(g11
g12
(dtRp3599
sg20
g1
(g11
g12
(dtRp3600
sg22
g1
(g11
g12
(dtRp3601
sbsg24
g25
sg26
g27
((lp3602
g33
ag32
ag29
ag30
atRp3603
sg37
(lp3604
g1
(g2
g3
NtRp3605
(dp3606
g6
g1
(g7
g3
NtRp3607
(dp3608
g10
g1
(g11
g12
(dtRp3609
sg14
g1
(g11
g12
(dtRp3610
sg16
g1
(g11
g12
(dtRp3611
sg18
g1
(g11
g12
(dtRp3612
sg20
g1
(g11
g12
(dtRp3613
sg22
g1
(g11
g12
(dtRp3614
sbsg24
g25
sg26
g27
((lp3615
g33
ag32
ag29
ag30
atRp3616
sg37
(lp3617
g1
(g2
g3
NtRp3618
(dp3619
g6
g1
(g7
g3
NtRp3620
(dp3621
g10
g1
(g11
g12
(dtRp3622
sg14
g1
(g11
g12
(dtRp3623
sg16
g1
(g11
g12
(dtRp3624
sg18
g1
(g11
g12
(dtRp3625
sg20
g1
(g11
g12
(dtRp3626
sg22
g1
(g11
g12
(dtRp3627
sbsg24
g25
sg26
g27
((lp3628
g33
ag32
ag29
ag30
atRp3629
sg37
(lp3630
g1
(g2
g3
NtRp3631
(dp3632
g6
g1
(g7
g3
NtRp3633
(dp3634
g10
g1
(g11
g12
(dtRp3635
sg14
g1
(g11
g12
(dtRp3636
sg16
g1
(g11
g12
(dtRp3637
sg18
g1
(g11
g12
(dtRp3638
sg20
g1
(g11
g12
(dtRp3639
sg22
g1
(g11
g12
(dtRp3640
sbsg24
S'Sse'
p3641
sg26
g27
((lp3642
g29
ag30
aS'sequence'
p3643
ag32
ag33
aS'species'
p3644
atRp3645
sg37
(lp3646
sg120
g3618
sg121
S'RWLSTKDMYSRMELPGLNQNVHAMFAMPLGFGNPMGDMFPRINSGFWLPMLSLEGAGTGWTVYPPLSHSGPSVDLAFHLTSSLLGAINFTNMRGPLFWTALLLLSLPVLAGTLLDRNFNTFEGGDPFYHAFWFFGHPEVYIIPGFGSHSTYKKFGMYASIGLGFVWSHHMYVGLDDRAYFTSATMIAPTGIKFSWLALYGGRPMMAFLFLFTGGTGVLNASDAFHDTYYVVHFHYVLSMGAFSLGYYYWPGLYNLFWFNFPMHFLGGMPRRPYPDAGWNSGSSYQIGPDESNEPH'
p3647
sg123
F0.29805999999999999
sg124
g125
sg33
S'39'
p3648
sg127
g1
(g128
g12
(dp3649
g130
I4
sg131
g132
sg133
g134
sg135
g132
sg136
I01
sg34
g137
sg138
g134
sg139
I0
sg140
I0
sg141
I0
sg142
g134
sg35
g143
sg144
I0
stRp3650
sg146
g147
sg148
F1
sg149
Nsg30
S'SservA'
p3651
sbag1
(g2
g3
NtRp3652
(dp3653
g6
g1
(g7
g3
NtRp3654
(dp3655
g10
g1
(g11
g12
(dtRp3656
sg14
g1
(g11
g12
(dtRp3657
sg16
g1
(g11
g12
(dtRp3658
sg18
g1
(g11
g12
(dtRp3659
sg20
g1
(g11
g12
(dtRp3660
sg22
g1
(g11
g12
(dtRp3661
sbsg24
S'Sca'
p3662
sg26
g27
((lp3663
g29
ag30
aS'sequence'
p3664
ag32
ag33
aS'species'
p3665
atRp3666
sg37
(lp3667
sg120
g3618
sg121
S'RWLSTKDLYSRLELPGLNQNVHAMFVMPLGFGNPMGDTFPRINNGFWLPMLSLEGAGTGWTVYPPLAHSGPSVDLAFHMTSSLLGAINFTNMRGPLFWTALLLLTLPVLAGTLLDRNFNTFEGGDPLYHLFWFFGHPEVYIIPGFGSHSTYKKFGMYASIGLGLVWSHHMYVGLDDRAYFTSATMIAPTGIKFSWLATYGGRPMLAFLFLFTGGTGVLNASDAFHDLYYVVHFHYVLSMGAFSLGYYYWPGLYNLFWFNFPMHFLGGMPRRPYPDAGWNSGASYQLGPDESNEPH'
p3668
sg123
F0.30890000000000001
sg124
g125
sg33
S'176'
p3669
sg127
g1
(g128
g12
(dp3670
g130
I4
sg131
g132
sg133
g134
sg135
g132
sg136
I01
sg34
g137
sg138
g134
sg139
I0
sg140
I0
sg141
I0
sg142
g134
sg35
g143
sg144
I0
stRp3671
sg146
g147
sg148
F1
sg149
Nsg30
S'ScastA'
p3672
sbasg120
g3605
sg123
F0.072319999999999995
sg124
g125
sg33
S'160'
p3673
sg127
g1
(g128
g12
(dp3674
g130
I6
sg131
g132
sg133
g134
sg135
g132
sg136
I01
sg34
g174
sg138
g134
sg139
I0
sg140
I0
sg141
I0
sg142
g134
sg35
g175
sg144
I0
stRp3675
sg146
g147
sg148
F0.98999999999999999
sg149
Nsg30
S'NoName'
p3676
sbag1
(g2
g3
NtRp3677
(dp3678
g6
g1
(g7
g3
NtRp3679
(dp3680
g10
g1
(g11
g12
(dtRp3681
sg14
g1
(g11
g12
(dtRp3682
sg16
g1
(g11
g12
(dtRp3683
sg18
g1
(g11
g12
(dtRp3684
sg20
g1
(g11
g12
(dtRp3685
sg22
g1
(g11
g12
(dtRp3686
sbsg24
g25
sg26
g27
((lp3687
g33
ag32
ag29
ag30
atRp3688
sg37
(lp3689
g1
(g2
g3
NtRp3690
(dp3691
g6
g1
(g7
g3
NtRp3692
(dp3693
g10
g1
(g11
g12
(dtRp3694
sg14
g1
(g11
g12
(dtRp3695
sg16
g1
(g11
g12
(dtRp3696
sg18
g1
(g11
g12
(dtRp3697
sg20
g1
(g11
g12
(dtRp3698
sg22
g1
(g11
g12
(dtRp3699
sbsg24
S'Spa'
p3700
sg26
g27
((lp3701
g29
ag30
aS'sequence'
p3702
ag32
ag33
aS'species'
p3703
atRp3704
sg37
(lp3705
sg120
g3677
sg121
S'RWLSTKDLYSRLELPGLNQNVHAMFVMPLGFGNPMGDTFPRINNAFWLPMLSLEGAGTGWTVYPPLSHSGPSVDLAFHLTSSLLGAINFTNMRGPLFWTALLLLSLPVLAGTLLDRNFNTFEGGDPLYHLFWFFGHPEVYIIPGFGSHSTYKKFGMYASIGLGFVWSHHMYVGLDDRAYFLSATMIAPTGIKFSWLATYGGRPMLAFLFLFTGGTGVLNASDAFHDTYYVVHFHYVLSMGAFSLGYYYWPGLYNLFWFNFPMHFLGGMPRRPYPDAGWNSGSSYQLGPDESNEPH'
p3706
sg123
F0.029780000000000001
sg124
g125
sg33
S'84'
p3707
sg127
g1
(g128
g12
(dp3708
g130
I4
sg131
g132
sg133
g134
sg135
g132
sg136
I01
sg34
g137
sg138
g134
sg139
I0
sg140
I0
sg141
I0
sg142
g134
sg35
g143
sg144
I0
stRp3709
sg146
g147
sg148
F1
sg149
Nsg30
S'SpastA'
p3710
sbag1
(g2
g3
NtRp3711
(dp3712
g6
g1
(g7
g3
NtRp3713
(dp3714
g10
g1
(g11
g12
(dtRp3715
sg14
g1
(g11
g12
(dtRp3716
sg16
g1
(g11
g12
(dtRp3717
sg18
g1
(g11
g12
(dtRp3718
sg20
g1
(g11
g12
(dtRp3719
sg22
g1
(g11
g12
(dtRp3720
sbsg24
g25
sg26
g27
((lp3721
g33
ag32
ag29
ag30
atRp3722
sg37
(lp3723
g1
(g2
g3
NtRp3724
(dp3725
g6
g1
(g7
g3
NtRp3726
(dp3727
g10
g1
(g11
g12
(dtRp3728
sg14
g1
(g11
g12
(dtRp3729
sg16
g1
(g11
g12
(dtRp3730
sg18
g1
(g11
g12
(dtRp3731
sg20
g1
(g11
g12
(dtRp3732
sg22
g1
(g11
g12
(dtRp3733
sbsg24
g25
sg26
g27
((lp3734
g33
ag32
ag29
ag30
atRp3735
sg37
(lp3736
g1
(g2
g3
NtRp3737
(dp3738
g6
g1
(g7
g3
NtRp3739
(dp3740
g10
g1
(g11
g12
(dtRp3741
sg14
g1
(g11
g12
(dtRp3742
sg16
g1
(g11
g12
(dtRp3743
sg18
g1
(g11
g12
(dtRp3744
sg20
g1
(g11
g12
(dtRp3745
sg22
g1
(g11
g12
(dtRp3746
sbsg24
S'Sce'
p3747
sg26
g27
((lp3748
g29
ag30
aS'sequence'
p3749
ag32
ag33
aS'species'
p3750
atRp3751
sg37
(lp3752
sg120
g3724
sg121
S'RWLSTKDLYSRLELPGLNQNVHAMFVMPLGFGNPMGDTFPRINNAFWLPMLSLEGAGTGWTVYPPLSHSGPSVDLAFHLTSSLLGAINFTNMRGPLFWTALLLLSLPVLAGTLLDRNFNTFEGGDPLYHLFWFFGHPEVYIIPGFGSHSTYKKFGMYASIGLGFVWSHHMYVGLDDRAYFLSALMIAPTGIKFSWLALYGGRPMLAFLFLFTGGTGVLNASDAFHDTYYVVHFHYVLSMGAFSLGYYYWPGLYNLFWFNFPMHFLGGMPRRPYPDAGWNSGSSYQLGPDESNEPH'
p3753
sg123
F0.0038700000000000002
sg124
g125
sg33
S'58'
p3754
sg127
g1
(g128
g12
(dp3755
g130
I4
sg131
g132
sg133
g134
sg135
g132
sg136
I01
sg34
g137
sg138
g134
sg139
I0
sg140
I0
sg141
I0
sg142
g134
sg35
g143
sg144
I0
stRp3756
sg146
g147
sg148
F1
sg149
Nsg30
S'ScereD'
p3757
sbag1
(g2
g3
NtRp3758
(dp3759
g6
g1
(g7
g3
NtRp3760
(dp3761
g10
g1
(g11
g12
(dtRp3762
sg14
g1
(g11
g12
(dtRp3763
sg16
g1
(g11
g12
(dtRp3764
sg18
g1
(g11
g12
(dtRp3765
sg20
g1
(g11
g12
(dtRp3766
sg22
g1
(g11
g12
(dtRp3767
sbsg24
g25
sg26
g27
((lp3768
g33
ag32
ag29
ag30
atRp3769
sg37
(lp3770
g1
(g2
g3
NtRp3771
(dp3772
g6
g1
(g7
g3
NtRp3773
(dp3774
g10
g1
(g11
g12
(dtRp3775
sg14
g1
(g11
g12
(dtRp3776
sg16
g1
(g11
g12
(dtRp3777
sg18
g1
(g11
g12
(dtRp3778
sg20
g1
(g11
g12
(dtRp3779
sg22
g1
(g11
g12
(dtRp3780
sbsg24
S'Sce'
p3781
sg26
g27
((lp3782
g29
ag30
aS'sequence'
p3783
ag32
ag33
aS'species'
p3784
atRp3785
sg37
(lp3786
sg120
g3758
sg121
S'RWLSTKDLYSRLELPGLNQNVHAMFVMPLGFGNPMGDTFPRINNAFWLPMLSLEGAGTGWTVYPPLSHSGPSVDLAFHLTSSLLGAINFTNMRGPLFWTALLLLSLPVLAGTLLDRNFNTFEGGDPLYHLFWFFGHPEVYIIPGFGSHSTYKKFGMYASIGLGFVWSHHMYVGLDDRAYFLSALMIAPTGIKFSWLALYGGRPMLAFLFLFTGGTGVLNASDAFHDTYYVVHFHYVLSMGAFSLGYYYWPGLYNLFWFNFPMHFLGGMPRRPYPDAGWNSGSSYQLGPDESNEPH'
p3787
sg123
F0.0075900000000000004
sg124
g125
sg33
S'193'
p3788
sg127
g1
(g128
g12
(dp3789
g130
I4
sg131
g132
sg133
g134
sg135
g132
sg136
I01
sg34
g137
sg138
g134
sg139
I0
sg140
I0
sg141
I0
sg142
g134
sg35
g143
sg144
I0
stRp3790
sg146
g147
sg148
F1
sg149
Nsg30
S'ScereE'
p3791
sbag1
(g2
g3
NtRp3792
(dp3793
g6
g1
(g7
g3
NtRp3794
(dp3795
g10
g1
(g11
g12
(dtRp3796
sg14
g1
(g11
g12
(dtRp3797
sg16
g1
(g11
g12
(dtRp3798
sg18
g1
(g11
g12
(dtRp3799
sg20
g1
(g11
g12
(dtRp3800
sg22
g1
(g11
g12
(dtRp3801
sbsg24
g25
sg26
g27
((lp3802
g33
ag32
ag29
ag30
atRp3803
sg37
(lp3804
g1
(g2
g3
NtRp3805
(dp3806
g6
g1
(g7
g3
NtRp3807
(dp3808
g10
g1
(g11
g12
(dtRp3809
sg14
g1
(g11
g12
(dtRp3810
sg16
g1
(g11
g12
(dtRp3811
sg18
g1
(g11
g12
(dtRp3812
sg20
g1
(g11
g12
(dtRp3813
sg22
g1
(g11
g12
(dtRp3814
sbsg24
S'Sce'
p3815
sg26
g27
((lp3816
g29
ag30
aS'sequence'
p3817
ag32
ag33
aS'species'
p3818
atRp3819
sg37
(lp3820
sg120
g3792
sg121
S'RWLSTKDLYSRLELPGLNQNVHAMFVMPLGFGNPMGDTFPRINNAFWLPMLSLEGAGTGWTVYPPLSHSGPSVDLAFHLTSSLLGAINFTNMRGPLFWTALLLLSLPVLAGTLLDRNFNTFEGGDPLYHLFWFFGHPEVYIIPGFGSHSTYKKFGMYASIGLGFVWSHHMYVGLDDRAYFLSALMIAPTGIKFSWLALHGGRPMLAFLFLFTGGTGVLNASDAFHDTYYVVHFHYVLSMGAFSLGYYYWPGLYNLFWFNFPMHFLGGMPRRPYPDAGWNSGSSYQLGPDESNEPH'
p3821
sg123
F0.0053899999999999998
sg124
g125
sg33
S'119'
p3822
sg127
g1
(g128
g12
(dp3823
g130
I4
sg131
g132
sg133
g134
sg135
g132
sg136
I01
sg34
g137
sg138
g134
sg139
I0
sg140
I0
sg141
I0
sg142
g134
sg35
g143
sg144
I0
stRp3824
sg146
g147
sg148
F1
sg149
Nsg30
S'ScereC'
p3825
sbag1
(g2
g3
NtRp3826
(dp3827
g6
g1
(g7
g3
NtRp3828
(dp3829
g10
g1
(g11
g12
(dtRp3830
sg14
g1
(g11
g12
(dtRp3831
sg16
g1
(g11
g12
(dtRp3832
sg18
g1
(g11
g12
(dtRp3833
sg20
g1
(g11
g12
(dtRp3834
sg22
g1
(g11
g12
(dtRp3835
sbsg24
S'Sce'
p3836
sg26
g27
((lp3837
g29
ag30
aS'sequence'
p3838
ag32
ag33
aS'species'
p3839
atRp3840
sg37
(lp3841
sg120
g3792
sg121
S'RWLSTKDLYSRLELPGLNQNVHAMFVMPLGFGNPMGDTFPRINNAFWLPMLSLEGAGTGWTVYPPLSHSGPSVDLAFHLTSSLLGAINFTNMRGPLFWTALLLLSLPVLAGTLLDRNFNTFEGGDPLYHLFWFFGHPEVYIIPGFGSHSTYKKFGMYASIGLGFVWSHHMYVGLDDRAYFLSALMIAPTGIKFSWLALYGGRPMLAFLFLFTGGTGVLNASDAFHDTYYVVHFHYVLSMGAFSLGYYYWPGLYNLFWFNFPMHFLGGMPRRPYPDAGWNSGSSYQLGPDESNEPH'
p3842
sg123
F0.0066400000000000001
sg124
g125
sg33
S'172'
p3843
sg127
g1
(g128
g12
(dp3844
g130
I4
sg131
g132
sg133
g134
sg135
g132
sg136
I01
sg34
g137
sg138
g134
sg139
I0
sg140
I0
sg141
I0
sg142
g134
sg35
g143
sg144
I0
stRp3845
sg146
g147
sg148
F1
sg149
Nsg30
S'ScereA'
p3846
sbasg120
g3758
sg123
F0.00596
sg124
g125
sg33
S'126'
p3847
sg127
g1
(g128
g12
(dp3848
g130
I6
sg131
g132
sg133
g134
sg135
g132
sg136
I01
sg34
g174
sg138
g134
sg139
I0
sg140
I0
sg141
I0
sg142
g134
sg35
g175
sg144
I0
stRp3849
sg146
g147
sg148
F0.98999999999999999
sg149
Nsg30
S'NoName'
p3850
sbasg120
g3724
sg123
F0.0050600000000000003
sg124
g125
sg33
S'219'
p3851
sg127
g1
(g128
g12
(dp3852
g130
I6
sg131
g132
sg133
g134
sg135
g132
sg136
I01
sg34
g174
sg138
g134
sg139
I0
sg140
I0
sg141
I0
sg142
g134
sg35
g175
sg144
I0
stRp3853
sg146
g147
sg148
F0.66000000000000003
sg149
Nsg30
S'NoName'
p3854
sbasg120
g3711
sg123
F0.017850000000000001
sg124
g125
sg33
S'150'
p3855
sg127
g1
(g128
g12
(dp3856
g130
I6
sg131
g132
sg133
g134
sg135
g132
sg136
I01
sg34
g174
sg138
g134
sg139
I0
sg140
I0
sg141
I0
sg142
g134
sg35
g175
sg144
I0
stRp3857
sg146
g147
sg148
F0.89000000000000001
sg149
Nsg30
S'NoName'
p3858
sbag1
(g2
g3
NtRp3859
(dp3860
g6
g1
(g7
g3
NtRp3861
(dp3862
g10
g1
(g11
g12
(dtRp3863
sg14
g1
(g11
g12
(dtRp3864
sg16
g1
(g11
g12
(dtRp3865
sg18
g1
(g11
g12
(dtRp3866
sg20
g1
(g11
g12
(dtRp3867
sg22
g1
(g11
g12
(dtRp3868
sbsg24
S'Sar'
p3869
sg26
g27
((lp3870
g29
ag30
aS'sequence'
p3871
ag32
ag33
aS'species'
p3872
atRp3873
sg37
(lp3874
sg120
g3711
sg121
S'RWLSTKDLYSRLELPGLNQNVHAMFVMPLGFGNPMGDTFPRINNAFWLPMLSLEGAGTGWTVYPPLSHSGPSVDLAFHLTSSLLGAINFTNMRGPLFWTALLLLSLPVLAGTLLDRNFNTFEGGDPLYHLFWFFGHPEVYIIPGFGSHSTYKKFGMYASIGLGFVWSHHMYVGLDDRAYFLSALMIAPTGIKFSWLALYGGRPMLAFLFLFTGGTGVLNASDAFHDTYYVVHFHYVLSMGAFSLGYYYWPGLYNLFWFNFPMHFLGGMPRRPYPDAGWNSGSSYQLGPDESNEPH'
p3875
sg123
F0.047230000000000001
sg124
g125
sg33
S'0'
sg127
g1
(g128
g12
(dp3876
g130
I4
sg131
g132
sg133
g134
sg135
g132
sg136
I01
sg34
g137
sg138
g134
sg139
I0
sg140
I0
sg141
I0
sg142
g134
sg35
g143
sg144
I0
stRp3877
sg146
g147
sg148
F1
sg149
Nsg30
S'SarboA'
p3878
sbasg120
g3677
sg123
F0.023619999999999999
sg124
g125
sg33
S'16'
p3879
sg127
g1
(g128
g12
(dp3880
g130
I6
sg131
g132
sg133
g134
sg135
g132
sg136
I01
sg34
g174
sg138
g134
sg139
I0
sg140
I0
sg141
I0
sg142
g134
sg35
g175
sg144
I0
stRp3881
sg146
g147
sg148
F0.92000000000000004
sg149
Nsg30
S'NoName'
p3882
sbasg120
g3605
sg123
F0.18547
sg124
g125
sg33
S'214'
p3883
sg127
g1
(g128
g12
(dp3884
g130
I6
sg131
g132
sg133
g134
sg135
g132
sg136
I01
sg34
g174
sg138
g134
sg139
I0
sg140
I0
sg141
I0
sg142
g134
sg35
g175
sg144
I0
stRp3885
sg146
g147
sg148
F0.98999999999999999
sg149
Nsg30
S'NoName'
p3886
sbasg120
g3592
sg123
F0.03594
sg124
g125
sg33
S'108'
p3887
sg127
g1
(g128
g12
(dp3888
g130
I6
sg131
g132
sg133
g134
sg135
g132
sg136
I01
sg34
g174
sg138
g134
sg139
I0
sg140
I0
sg141
I0
sg142
g134
sg35
g175
sg144
I0
stRp3889
sg146
g147
sg148
F0.98999999999999999
sg149
Nsg30
S'NoName'
p3890
sbag1
(g2
g3
NtRp3891
(dp3892
g6
g1
(g7
g3
NtRp3893
(dp3894
g10
g1
(g11
g12
(dtRp3895
sg14
g1
(g11
g12
(dtRp3896
sg16
g1
(g11
g12
(dtRp3897
sg18
g1
(g11
g12
(dtRp3898
sg20
g1
(g11
g12
(dtRp3899
sg22
g1
(g11
g12
(dtRp3900
sbsg24
g25
sg26
g27
((lp3901
g33
ag32
ag29
ag30
atRp3902
sg37
(lp3903
g1
(g2
g3
NtRp3904
(dp3905
g6
g1
(g7
g3
NtRp3906
(dp3907
g10
g1
(g11
g12
(dtRp3908
sg14
g1
(g11
g12
(dtRp3909
sg16
g1
(g11
g12
(dtRp3910
sg18
g1
(g11
g12
(dtRp3911
sg20
g1
(g11
g12
(dtRp3912
sg22
g1
(g11
g12
(dtRp3913
sbsg24
g25
sg26
g27
((lp3914
g33
ag32
ag29
ag30
atRp3915
sg37
(lp3916
g1
(g2
g3
NtRp3917
(dp3918
g6
g1
(g7
g3
NtRp3919
(dp3920
g10
g1
(g11
g12
(dtRp3921
sg14
g1
(g11
g12
(dtRp3922
sg16
g1
(g11
g12
(dtRp3923
sg18
g1
(g11
g12
(dtRp3924
sg20
g1
(g11
g12
(dtRp3925
sg22
g1
(g11
g12
(dtRp3926
sbsg24
S'Nde'
p3927
sg26
g27
((lp3928
g29
ag30
aS'sequence'
p3929
ag32
ag33
aS'species'
p3930
atRp3931
sg37
(lp3932
sg120
g3904
sg121
S'RWLSTKDLYSRLELPGLNQNVHAMFVMPLGFGNPMGDMFPRLNNGFWIVPLSLEGAGTGWTVYPPLSHSGPSVDLAFHMTSSLLGAINFTNMRGPLFWTALLLLSLPVFAGTLLDRNFNTFEGGDPLYHLFWFFGHPEVYIIPGFGSHSTYKKFGMYASIGLGFVWSHHMYVGLDDRAYFTSATMIAPTGIKFSWLATYGGRPMLAFLFLFTGGTGVLNASDAFHDTYYVVHFHYVLSMGAFSTGYYYWPGLYNLFWFNFPMHFLGGMPRRPYPDAGWNSGSSYQFGPDESNEPH'
p3933
sg123
F0.063509999999999997
sg124
g125
sg33
S'157'
p3934
sg127
g1
(g128
g12
(dp3935
g130
I4
sg131
g132
sg133
g134
sg135
g132
sg136
I01
sg34
g137
sg138
g134
sg139
I0
sg140
I0
sg141
I0
sg142
g134
sg35
g143
sg144
I0
stRp3936
sg146
g147
sg148
F1
sg149
Nsg30
S'NdelpA'
p3937
sbag1
(g2
g3
NtRp3938
(dp3939
g6
g1
(g7
g3
NtRp3940
(dp3941
g10
g1
(g11
g12
(dtRp3942
sg14
g1
(g11
g12
(dtRp3943
sg16
g1
(g11
g12
(dtRp3944
sg18
g1
(g11
g12
(dtRp3945
sg20
g1
(g11
g12
(dtRp3946
sg22
g1
(g11
g12
(dtRp3947
sbsg24
S'Cgl'
p3948
sg26
g27
((lp3949
g29
ag30
aS'sequence'
p3950
ag32
ag33
aS'species'
p3951
atRp3952
sg37
(lp3953
sg120
g3904
sg121
S'RWLSTKDLYSRLELPGLNQNVHAMFVMPLGFGNPMGDMFPRLNNGFWIVPLSLEGAGTGWTVYPPLSHSGPSVDLAFHLTSSLLGSINFTNMRGPLFWTALLLLSLPVLAGTLLDRNFNTFEGGDPLYHLFWFFGHPEVYIIPGFGSHSTYKKFGMYASIGLGFVWSHHMYVGLDDRAYFTSATMIAPTGIKFSWLATYGGRPMLAFLFLFTGGTGVLNASDAFHDTYYVVHFHYVLSMGAFSTGYYYWPGLYNLFWFNFPMHFLGGMPRRPYPDAGWNSGSSYQFGPDESNEPH'
p3954
sg123
F0.03882
sg124
g125
sg33
S'211'
p3955
sg127
g1
(g128
g12
(dp3956
g130
I4
sg131
g132
sg133
g134
sg135
g132
sg136
I01
sg34
g137
sg138
g134
sg139
I0
sg140
I0
sg141
I0
sg142
g134
sg35
g143
sg144
I0
stRp3957
sg146
g147
sg148
F1
sg149
Nsg30
S'CglabA'
p3958
sbasg120
g3891
sg123
F0.16661999999999999
sg124
g125
sg33
S'51'
p3959
sg127
g1
(g128
g12
(dp3960
g130
I6
sg131
g132
sg133
g134
sg135
g132
sg136
I01
sg34
g174
sg138
g134
sg139
I0
sg140
I0
sg141
I0
sg142
g134
sg35
g175
sg144
I0
stRp3961
sg146
g147
sg148
F0.98999999999999999
sg149
Nsg30
S'NoName'
p3962
sbag1
(g2
g3
NtRp3963
(dp3964
g6
g1
(g7
g3
NtRp3965
(dp3966
g10
g1
(g11
g12
(dtRp3967
sg14
g1
(g11
g12
(dtRp3968
sg16
g1
(g11
g12
(dtRp3969
sg18
g1
(g11
g12
(dtRp3970
sg20
g1
(g11
g12
(dtRp3971
sg22
g1
(g11
g12
(dtRp3972
sbsg24
g25
sg26
g27
((lp3973
g33
ag32
ag29
ag30
atRp3974
sg37
(lp3975
g1
(g2
g3
NtRp3976
(dp3977
g6
g1
(g7
g3
NtRp3978
(dp3979
g10
g1
(g11
g12
(dtRp3980
sg14
g1
(g11
g12
(dtRp3981
sg16
g1
(g11
g12
(dtRp3982
sg18
g1
(g11
g12
(dtRp3983
sg20
g1
(g11
g12
(dtRp3984
sg22
g1
(g11
g12
(dtRp3985
sbsg24
S'Nba'
p3986
sg26
g27
((lp3987
g29
ag30
aS'sequence'
p3988
ag32
ag33
aS'species'
p3989
atRp3990
sg37
(lp3991
sg120
g3963
sg121
S'RWLSTKDLYSRMELPGLNQNVHAMFVMPLGFGNPMGDMFPRLNNGFWMPALSLEGAGTGWTVYPPLSHSGPSVDLAFHLSSSLLGAINFTNMRGPLFWTALLLFSLPVFAGTLLDRNFNTFEGGDPLYHLFWFFGHPEVYIIPGFGSHSTYKKFGMYASIGLGFVWSHHMYVGLDDRAYFTSATMIAPTGIKFSWLALYGGRPMLAFLFLFTGGTGVLNASDAFHDTYYVVHFHYVLSMGAFSVAYYYWPGLYNLFWFNFPMHFLGGMPRRPYPDAGWNSGSSYQLGPDESNEPH'
p3992
sg123
F0.29926999999999998
sg124
g125
sg33
S'91'
p3993
sg127
g1
(g128
g12
(dp3994
g130
I4
sg131
g132
sg133
g134
sg135
g132
sg136
I01
sg34
g137
sg138
g134
sg139
I0
sg140
I0
sg141
I0
sg142
g134
sg35
g143
sg144
I0
stRp3995
sg146
g147
sg148
F1
sg149
Nsg30
S'NbaciA'
p3996
sbag1
(g2
g3
NtRp3997
(dp3998
g6
g1
(g7
g3
NtRp3999
(dp4000
g10
g1
(g11
g12
(dtRp4001
sg14
g1
(g11
g12
(dtRp4002
sg16
g1
(g11
g12
(dtRp4003
sg18
g1
(g11
g12
(dtRp4004
sg20
g1
(g11
g12
(dtRp4005
sg22
g1
(g11
g12
(dtRp4006
sbsg24
S'Cca'
p4007
sg26
g27
((lp4008
g29
ag30
aS'sequence'
p4009
ag32
ag33
aS'species'
p4010
atRp4011
sg37
(lp4012
sg120
g3963
sg121
S'RWLSTKDLYSRLELPGLNQNVHAMFVMPLGIGNPMGDTFPRLNNGFWLPPLSLEGAGTGWTVYPPLSHSGPSVDLAFHLTSSLLGAINFTNMRGPLFWTALLLFSLPVFAGTLLDRNFNTFEGGDPLYHVFWFFGHPEVYIIPGFGSHSTYKKFGMYASIGLGFVWSHHMYVGLDDRAYFTSALMIAPTGIKFSWLATFGGRPMLAFLFLFTGGTGVLNASDAFHDTYYVVHFHYVLSMGAFSLGYYYWPGLYNLFWFNFPMHFLGGMPRRPYPDAGWNSGSSYQLGPDESNEPH'
p4013
sg123
F0.26266
sg124
g125
sg33
S'143'
p4014
sg127
g1
(g128
g12
(dp4015
g130
I4
sg131
g132
sg133
g134
sg135
g132
sg136
I01
sg34
g137
sg138
g134
sg139
I0
sg140
I0
sg141
I0
sg142
g134
sg35
g143
sg144
I0
stRp4016
sg146
g147
sg148
F1
sg149
Nsg30
S'CcastA'
p4017
sbasg120
g3891
sg123
F0.15296999999999999
sg124
g125
sg33
S'105'
p4018
sg127
g1
(g128
g12
(dp4019
g130
I6
sg131
g132
sg133
g134
sg135
g132
sg136
I01
sg34
g174
sg138
g134
sg139
I0
sg140
I0
sg141
I0
sg142
g134
sg35
g175
sg144
I0
stRp4020
sg146
g147
sg148
F0.98999999999999999
sg149
Nsg30
S'NoName'
p4021
sbasg120
g3592
sg123
F0.042560000000000001
sg124
g125
sg33
S'65'
p4022
sg127
g1
(g128
g12
(dp4023
g130
I6
sg131
g132
sg133
g134
sg135
g132
sg136
I01
sg34
g174
sg138
g134
sg139
I0
sg140
I0
sg141
I0
sg142
g134
sg35
g175
sg144
I0
stRp4024
sg146
g147
sg148
F0.84999999999999998
sg149
Nsg30
S'NoName'
p4025
sbasg120
g3558
sg123
F0.094020000000000006
sg124
g125
sg33
S'135'
p4026
sg127
g1
(g128
g12
(dp4027
g130
I6
sg131
g132
sg133
g134
sg135
g132
sg136
I01
sg34
g174
sg138
g134
sg139
I0
sg140
I0
sg141
I0
sg142
g134
sg35
g175
sg144
I0
stRp4028
sg146
g147
sg148
F0.55000000000000004
sg149
Nsg30
S'NoName'
p4029
sbasg120
g3031
sg123
F0.11952
sg124
g125
sg33
S'103'
p4030
sg127
g1
(g128
g12
(dp4031
g130
I6
sg131
g132
sg133
g134
sg135
g132
sg136
I01
sg34
g174
sg138
g134
sg139
I0
sg140
I0
sg141
I0
sg142
g134
sg35
g175
sg144
I0
stRp4032
sg146
g147
sg148
F0.69999999999999996
sg149
Nsg30
S'NoName'
p4033
sbasg120
g3018
sg123
F0.029839999999999998
sg124
g125
sg33
S'53'
p4034
sg127
g1
(g128
g12
(dp4035
g130
I6
sg131
g132
sg133
g134
sg135
g132
sg136
I01
sg34
g174
sg138
g134
sg139
I0
sg140
I0
sg141
I0
sg142
g134
sg35
g175
sg144
I0
stRp4036
sg146
g147
sg148
F0.82999999999999996
sg149
Nsg30
S'NoName'
p4037
sbag1
(g2
g3
NtRp4038
(dp4039
g6
g1
(g7
g3
NtRp4040
(dp4041
g10
g1
(g11
g12
(dtRp4042
sg14
g1
(g11
g12
(dtRp4043
sg16
g1
(g11
g12
(dtRp4044
sg18
g1
(g11
g12
(dtRp4045
sg20
g1
(g11
g12
(dtRp4046
sg22
g1
(g11
g12
(dtRp4047
sbsg24
g25
sg26
g27
((lp4048
g33
ag32
ag29
ag30
atRp4049
sg37
(lp4050
g1
(g2
g3
NtRp4051
(dp4052
g6
g1
(g7
g3
NtRp4053
(dp4054
g10
g1
(g11
g12
(dtRp4055
sg14
g1
(g11
g12
(dtRp4056
sg16
g1
(g11
g12
(dtRp4057
sg18
g1
(g11
g12
(dtRp4058
sg20
g1
(g11
g12
(dtRp4059
sg22
g1
(g11
g12
(dtRp4060
sbsg24
S'Aac'
p4061
sg26
g27
((lp4062
g29
ag30
aS'sequence'
p4063
ag32
ag33
aS'species'
p4064
atRp4065
sg37
(lp4066
sg120
g4038
sg121
S'RWLSTKDLYSRMELPGLQQNVHLMFVMPLGFGNPMGDMFARLNNSFWLPPLSMEGLGTGWTVYPPLAHSGASVDLAFHLTSSLLGLINFTNMRGPLFWTAMLLMSLPVLAGTLLDRNFNTFEGGDPLYHLFWFFGHPEVYIIPLFGSHSTYKKFGMYASIGLGFVWSHHMYVGLDDRAYFTSLTMILPTSIKFSWLLTYGGRPMLAFLFLFTGGTGVLNLSDLFHDTYYVVHFHYVLSLGAFSMGYYYWPGLYNLFWFNFPMHFLGGMPRRPYPDLGWNSGSSYQLGPDESNEPH'
p4067
sg123
F0.028920000000000001
sg124
g125
sg33
S'23'
p4068
sg127
g1
(g128
g12
(dp4069
g130
I4
sg131
g132
sg133
g134
sg135
g132
sg136
I01
sg34
g137
sg138
g134
sg139
I0
sg140
I0
sg141
I0
sg142
g134
sg35
g143
sg144
I0
stRp4070
sg146
g147
sg148
F1
sg149
Nsg30
S'AacerA'
p4071
sbag1
(g2
g3
NtRp4072
(dp4073
g6
g1
(g7
g3
NtRp4074
(dp4075
g10
g1
(g11
g12
(dtRp4076
sg14
g1
(g11
g12
(dtRp4077
sg16
g1
(g11
g12
(dtRp4078
sg18
g1
(g11
g12
(dtRp4079
sg20
g1
(g11
g12
(dtRp4080
sg22
g1
(g11
g12
(dtRp4081
sbsg24
g25
sg26
g27
((lp4082
g33
ag32
ag29
ag30
atRp4083
sg37
(lp4084
g1
(g2
g3
NtRp4085
(dp4086
g6
g1
(g7
g3
NtRp4087
(dp4088
g10
g1
(g11
g12
(dtRp4089
sg14
g1
(g11
g12
(dtRp4090
sg16
g1
(g11
g12
(dtRp4091
sg18
g1
(g11
g12
(dtRp4092
sg20
g1
(g11
g12
(dtRp4093
sg22
g1
(g11
g12
(dtRp4094
sbsg24
S'Ago'
p4095
sg26
g27
((lp4096
g29
ag30
aS'sequence'
p4097
ag32
ag33
aS'species'
p4098
atRp4099
sg37
(lp4100
sg120
g4072
sg121
S'RWLSTKDLYSRMELPGLQQNVHLMFVMPLGFGNPMGDMFARLNNSFWLPPLSMEGLGTGWTVYPPLSHSGASVDLAFHLTSSLLGLINFTNMRGPLFWTAMLLMSLPVLAGTLLDRNFNTFEGGDPLYHLFWFFGHPEVYIIPLFGSHSTYKKFGMYLSISLGFVWSHHMYVGLDDRAYFTSATMILPTSIKFSWLLTYGGRPMLLFLFLFTGGTGVLNLSDAFHDTYYVVHFHYVLSLGAFSMGYYYWPGLYNLFWFNFPMHFLGGMPRRPYPDLGWNSGSSYQLGPDESNEPH'
p4101
sg123
F0.00088000000000000003
sg124
g125
sg33
S'130'
p4102
sg127
g1
(g128
g12
(dp4103
g130
I4
sg131
g132
sg133
g134
sg135
g132
sg136
I01
sg34
g137
sg138
g134
sg139
I0
sg140
I0
sg141
I0
sg142
g134
sg35
g143
sg144
I0
stRp4104
sg146
g147
sg148
F1
sg149
Nsg30
S'AgossB'
p4105
sbag1
(g2
g3
NtRp4106
(dp4107
g6
g1
(g7
g3
NtRp4108
(dp4109
g10
g1
(g11
g12
(dtRp4110
sg14
g1
(g11
g12
(dtRp4111
sg16
g1
(g11
g12
(dtRp4112
sg18
g1
(g11
g12
(dtRp4113
sg20
g1
(g11
g12
(dtRp4114
sg22
g1
(g11
g12
(dtRp4115
sbsg24
S'Ago'
p4116
sg26
g27
((lp4117
g29
ag30
aS'sequence'
p4118
ag32
ag33
aS'species'
p4119
atRp4120
sg37
(lp4121
sg120
g4072
sg121
S'RWLSTKDLYSRMELPGLQQNVHLMFVMPLGFGNPMGDMFARLNNSFWLPPLSMEGLGTGWTVYPPLSHSGASVDLAFHLTSSLLGLINFTNMRGPLFWTAMLLMSLPVLAGTLLDRNFNTFEGGDPLYHLFWFFGHPEVYIIPLFGSHSTYKKFGMYLSISLGFVWSHHMYVGLDDRAYFTSATMILPTSIKFSWLLTYGGRPMLLFLFLFTGGTGVLNLSDAFHDTYYVVHFHYVLSLGAFSMGYYYWPGLYNLFWFNFPMHFLGGMPRRPYPDLGWNSGSSYQLGPDESNEPH'
p4122
sg123
F0.0023999999999999998
sg124
g125
sg33
S'183'
p4123
sg127
g1
(g128
g12
(dp4124
g130
I4
sg131
g132
sg133
g134
sg135
g132
sg136
I01
sg34
g137
sg138
g134
sg139
I0
sg140
I0
sg141
I0
sg142
g134
sg35
g143
sg144
I0
stRp4125
sg146
g147
sg148
F1
sg149
Nsg30
S'AgossA'
p4126
sbasg120
g4038
sg123
F0.075329999999999994
sg124
g125
sg33
S'197'
p4127
sg127
g1
(g128
g12
(dp4128
g130
I6
sg131
g132
sg133
g134
sg135
g132
sg136
I01
sg34
g174
sg138
g134
sg139
I0
sg140
I0
sg141
I0
sg142
g134
sg35
g175
sg144
I0
stRp4129
sg146
g147
sg148
F0.98999999999999999
sg149
Nsg30
S'NoName'
p4130
sbasg120
g3018
sg123
F0.56830999999999998
sg124
g125
sg33
S'36'
p4131
sg127
g1
(g128
g12
(dp4132
g130
I6
sg131
g132
sg133
g134
sg135
g132
sg136
I01
sg34
g174
sg138
g134
sg139
I0
sg140
I0
sg141
I0
sg142
g134
sg35
g175
sg144
I0
stRp4133
sg146
g147
sg148
F0.98999999999999999
sg149
Nsg30
S'NoName'
p4134
sbasg120
g2680
sg123
F0.14305999999999999
sg124
g125
sg33
S'21'
p4135
sg127
g1
(g128
g12
(dp4136
g130
I6
sg131
g132
sg133
g134
sg135
g132
sg136
I01
sg34
g174
sg138
g134
sg139
I0
sg140
I0
sg141
I0
sg142
g134
sg35
g175
sg144
I0
stRp4137
sg146
g147
sg148
F0.96999999999999997
sg149
Nsg30
S'NoName'
p4138
sbasg120
g2494
sg123
F0.26834000000000002
sg124
g125
sg33
S'192'
p4139
sg127
g1
(g128
g12
(dp4140
g130
I6
sg131
g132
sg133
g134
sg135
g132
sg136
I01
sg34
g174
sg138
g134
sg139
I0
sg140
I0
sg141
I0
sg142
g134
sg35
g175
sg144
I0
stRp4141
sg146
g147
sg148
F0.97999999999999998
sg149
Nsg30
S'NoName'
p4142
sbasg120
g675
sg123
F0.062890000000000001
sg124
g125
sg33
S'175'
p4143
sg127
g1
(g128
g12
(dp4144
g130
I6
sg131
g132
sg133
g134
sg135
g132
sg136
I01
sg34
g174
sg138
g134
sg139
I0
sg140
I0
sg141
I0
sg142
g134
sg35
g175
sg144
I0
stRp4145
sg146
g147
sg148
F0.67000000000000004
sg149
Nsg30
S'NoName'
p4146
sbasg120
g266
sg123
F0.52025999999999994
sg124
g125
sg33
S'3'
sg127
g1
(g128
g12
(dp4147
g130
I6
sg131
g132
sg133
g134
sg135
g132
sg136
I01
sg34
g174
sg138
g134
sg139
I0
sg140
I0
sg141
I0
sg142
g134
sg35
g175
sg144
I0
stRp4148
sg146
g147
sg148
F0.97999999999999998
sg149
Nsg30
S'NoName'
p4149
sbasg120
g52
sg123
F0.11274000000000001
sg124
g125
sg33
S'75'
p4150
sg127
g1
(g128
g12
(dp4151
g130
I6
sg131
g132
sg133
g134
sg135
g132
sg136
I01
sg34
g174
sg138
g134
sg139
I0
sg140
I0
sg141
I0
sg142
g134
sg35
g175
sg144
I0
stRp4152
sg146
g147
sg148
F0.88
sg149
Nsg30
S'NoName'
p4153
sbasg120
g39
sg123
F0.33485999999999999
sg124
g125
sg33
S'62'
p4154
sg127
g1
(g128
g12
(dp4155
g130
I6
sg131
g132
sg133
g134
sg135
g132
sg136
I01
sg34
g174
sg138
g134
sg139
I0
sg140
I0
sg141
I0
sg142
g134
sg35
g175
sg144
I0
stRp4156
sg146
g147
sg148
F0.95999999999999996
sg149
Nsg30
S'NoName'
p4157
sbag1
(g2
g3
NtRp4158
(dp4159
g6
g1
(g7
g3
NtRp4160
(dp4161
g10
g1
(g11
g12
(dtRp4162
sg14
g1
(g11
g12
(dtRp4163
sg16
g1
(g11
g12
(dtRp4164
sg18
g1
(g11
g12
(dtRp4165
sg20
g1
(g11
g12
(dtRp4166
sg22
g1
(g11
g12
(dtRp4167
sbsg24
S'Lst'
p4168
sg26
g27
((lp4169
g29
ag30
aS'sequence'
p4170
ag32
ag33
aS'species'
p4171
atRp4172
sg37
(lp4173
sg120
g39
sg121
S'RWLSTKDLYSRMELPGLNHNVHAMFVMPLGFGNPLGDMFPRLNNSFWLPPLSFEGAGTGWTVYPPLSHSGASVDLAFHLSSSMLGAMNFTNMRGPLFWTALLLLSLPVLGATLLDRNFNTFEGGDPLYHLFWFFGHPEVYIIPGFGSHCTYEKFGMYASMGLGFVWSHHMFVGLDERAYFTAATMIAPTGMKFSWLATYGGTPMVAFLFLFTGGTGVLNASDAFHDTYYVVHFHYVLSMGAFALGYYYWPGLYKYFWFNFPMHFLGGMPRRPYPDAGWNSGSAIQLGPQATKEPH'
p4174
sg123
F1.13117
sg124
g125
sg33
S'112'
p4175
sg127
g1
(g128
g12
(dp4176
g130
I4
sg131
g132
sg133
g134
sg135
g132
sg136
I01
sg34
g137
sg138
g134
sg139
I0
sg140
I0
sg141
I0
sg142
g134
sg35
g143
sg144
I0
stRp4177
sg146
g147
sg148
F1
sg149
Nsg30
S'LstarA'
p4178
sbasg120
g4
sg123
F0.46844999999999998
sg124
g125
sg33
S'61'
p4179
sg127
g1
(g128
g12
(dp4180
g130
I6
sg131
g132
sg133
g134
sg135
g132
sg136
I01
sg34
g174
sg138
g134
sg139
I0
sg140
I0
sg141
I0
sg142
g134
sg35
g175
sg144
I0
stRp4181
sg146
g147
sg148
F1
sg149
Nsg30
S'NoName'
p4182
sbag1
(g2
g3
NtRp4183
(dp4184
g6
g1
(g7
g3
NtRp4185
(dp4186
g10
g1
(g11
g12
(dtRp4187
sg14
g1
(g11
g12
(dtRp4188
sg16
g1
(g11
g12
(dtRp4189
sg18
g1
(g11
g12
(dtRp4190
sg20
g1
(g11
g12
(dtRp4191
sg22
g1
(g11
g12
(dtRp4192
sbsg24
g25
sg26
g27
((lp4193
g33
ag32
ag29
ag30
atRp4194
sg37
(lp4195
g1
(g2
g3
NtRp4196
(dp4197
g6
g1
(g7
g3
NtRp4198
(dp4199
g10
g1
(g11
g12
(dtRp4200
sg14
g1
(g11
g12
(dtRp4201
sg16
g1
(g11
g12
(dtRp4202
sg18
g1
(g11
g12
(dtRp4203
sg20
g1
(g11
g12
(dtRp4204
sg22
g1
(g11
g12
(dtRp4205
sbsg24
S'Sja'
p4206
sg26
g27
((lp4207
g29
ag30
aS'sequence'
p4208
ag32
ag33
aS'species'
p4209
atRp4210
sg37
(lp4211
sg120
g4183
sg121
S'RWLSTKDLYSRLELPGLNQNVHGMFILPLGFGNPLGDVYPRMNNSFWLPPLSLEGPGVGWTMYYPLSHSGLSVDLLMQLTSSTLGSINLTNMRGPLFWTSLLVLTLPVLGGILLDRNWNTFAGGDPLYHLFWFFGHPEVYIIPAFGSHSTFHKFGMYASIALGCVWSHHLYVGLDDRAYFTAATMIAPTGIKFSWLATSGGEPMLVFLILFTGGTGVLNSVDAFHDTYFVVHFHYVLSMGAMGLAYYFWPGLYNMFWFNFPQHFLGNYPRRPYPDAGWNSGSSYQFNPNDSNEPH'
p4212
sg123
F1.0686599999999999
sg124
g125
sg33
S'8'
sg127
g1
(g128
g12
(dp4213
g130
I4
sg131
g132
sg133
g134
sg135
g132
sg136
I01
sg34
g137
sg138
g134
sg139
I0
sg140
I0
sg141
I0
sg142
g134
sg35
g143
sg144
I0
stRp4214
sg146
g147
sg148
F1
sg149
Nsg30
S'SjapoA'
p4215
sbag1
(g2
g3
NtRp4216
(dp4217
g6
g1
(g7
g3
NtRp4218
(dp4219
g10
g1
(g11
g12
(dtRp4220
sg14
g1
(g11
g12
(dtRp4221
sg16
g1
(g11
g12
(dtRp4222
sg18
g1
(g11
g12
(dtRp4223
sg20
g1
(g11
g12
(dtRp4224
sg22
g1
(g11
g12
(dtRp4225
sbsg24
g25
sg26
g27
((lp4226
g33
ag32
ag29
ag30
atRp4227
sg37
(lp4228
g1
(g2
g3
NtRp4229
(dp4230
g6
g1
(g7
g3
NtRp4231
(dp4232
g10
g1
(g11
g12
(dtRp4233
sg14
g1
(g11
g12
(dtRp4234
sg16
g1
(g11
g12
(dtRp4235
sg18
g1
(g11
g12
(dtRp4236
sg20
g1
(g11
g12
(dtRp4237
sg22
g1
(g11
g12
(dtRp4238
sbsg24
S'Spo'
p4239
sg26
g27
((lp4240
g29
ag30
aS'sequence'
p4241
ag32
ag33
aS'species'
p4242
atRp4243
sg37
(lp4244
sg120
g4216
sg121
S'RWMSTKDLYSRMELPGLNQNVHGMFIIPLGFGNPMGDVYPRVNNTFWLPPLSLEGPGGGWTVYPPLSHSGPAIDLALQLTSSTLGSVNLTNMRGPLFWTSLLLLTLPVLGGFLFDRNLNTFAGGDPLYHLFWFFGHPEVYIIPAFGSHPSLHKFGMWASIALGLVWSHHLFVGLDDRAYFSAATMIAPTGIKFSWLATTGGQPMLAFLILFTGGTGVLNSVDAFHDTYFVVHFHYVLSMGAFGLAYY-WPGLYNLFWFNFPQHFLGGMPRRPYPEAGWNSGSSYQFNPSDDNEPH'
p4245
sg123
F0.12372
sg124
g125
sg33
S'98'
p4246
sg127
g1
(g128
g12
(dp4247
g130
I4
sg131
g132
sg133
g134
sg135
g132
sg136
I01
sg34
g137
sg138
g134
sg139
I0
sg140
I0
sg141
I0
sg142
g134
sg35
g143
sg144
I0
stRp4248
sg146
g147
sg148
F1
sg149
Nsg30
S'SpombA'
p4249
sbag1
(g2
g3
NtRp4250
(dp4251
g6
g1
(g7
g3
NtRp4252
(dp4253
g10
g1
(g11
g12
(dtRp4254
sg14
g1
(g11
g12
(dtRp4255
sg16
g1
(g11
g12
(dtRp4256
sg18
g1
(g11
g12
(dtRp4257
sg20
g1
(g11
g12
(dtRp4258
sg22
g1
(g11
g12
(dtRp4259
sbsg24
g25
sg26
g27
((lp4260
g33
ag32
ag29
ag30
atRp4261
sg37
(lp4262
g1
(g2
g3
NtRp4263
(dp4264
g6
g1
(g7
g3
NtRp4265
(dp4266
g10
g1
(g11
g12
(dtRp4267
sg14
g1
(g11
g12
(dtRp4268
sg16
g1
(g11
g12
(dtRp4269
sg18
g1
(g11
g12
(dtRp4270
sg20
g1
(g11
g12
(dtRp4271
sg22
g1
(g11
g12
(dtRp4272
sbsg24
S'Soc'
p4273
sg26
g27
((lp4274
g29
ag30
aS'sequence'
p4275
ag32
ag33
aS'species'
p4276
atRp4277
sg37
(lp4278
sg120
g4250
sg121
S'RWLSTKDLYSRMELPGLNQNVHGMFIIPLGFGNPMGDVYPRVNNTFWLPPLSLEGPGTGWTVYPPLSHSGPAVDLALQLTSSTLGSLNLTNMRGPLFWTSLLLLTLPVLGGFLFDRNLNTFAGGDPLYHLFWFFGHPEVYIIPAFGSHSTLNKFGMCASIALGLVWSHHLFVGLDDRAYFSAATMIAPTGIKFSWLATTGGQPMLAFLILFTGGTGVLNSVDAFHDTYFVVHFHYVLSMGAFGLAYYFWPGLYNLFWFNFPQHFLGGMPRRPYPDAGWNSGSSYQYNPSDDNEPH'
p4279
sg123
F0.03637
sg124
g125
sg33
S'204'
p4280
sg127
g1
(g128
g12
(dp4281
g130
I4
sg131
g132
sg133
g134
sg135
g132
sg136
I01
sg34
g137
sg138
g134
sg139
I0
sg140
I0
sg141
I0
sg142
g134
sg35
g143
sg144
I0
stRp4282
sg146
g147
sg148
F1
sg149
Nsg30
S'SoctoA'
p4283
sbag1
(g2
g3
NtRp4284
(dp4285
g6
g1
(g7
g3
NtRp4286
(dp4287
g10
g1
(g11
g12
(dtRp4288
sg14
g1
(g11
g12
(dtRp4289
sg16
g1
(g11
g12
(dtRp4290
sg18
g1
(g11
g12
(dtRp4291
sg20
g1
(g11
g12
(dtRp4292
sg22
g1
(g11
g12
(dtRp4293
sbsg24
S'Scr'
p4294
sg26
g27
((lp4295
g29
ag30
aS'sequence'
p4296
ag32
ag33
aS'species'
p4297
atRp4298
sg37
(lp4299
sg120
g4250
sg121
S'RWLSTKDLYSRMELPGLNQNVHGMFIIPLGFGNPMGDVYPRVNNTYWLPPLSLEGPGTGWTVYPPLSHSGPSVDLALQLTSSTLGSLNLTNMRGPLFWTSLLLLTLPVLGGFLFDRNLNTFAGGDPLYHLFWFFGHPEVYIIPAFGSHPTLNKFGMCASIALGLVWSHHLFVGLDDRAYFSAATMIAPTGIKFSWLATTGGQPMLAFLILFTGGTGVLNSVDAFHDTYFVVHFHYVLSMGAFGLAYYFWPGLYNLFWFNFPQHFLGGMPRRPYPDAGWNSGSSYQYNPSDDNEPH'
p4300
sg123
F0.036740000000000002
sg124
g125
sg33
S'78'
p4301
sg127
g1
(g128
g12
(dp4302
g130
I4
sg131
g132
sg133
g134
sg135
g132
sg136
I01
sg34
g137
sg138
g134
sg139
I0
sg140
I0
sg141
I0
sg142
g134
sg35
g143
sg144
I0
stRp4303
sg146
g147
sg148
F1
sg149
Nsg30
S'ScryoA'
p4304
sbasg120
g4216
sg123
F0.18453
sg124
g125
sg33
S'44'
p4305
sg127
g1
(g128
g12
(dp4306
g130
I6
sg131
g132
sg133
g134
sg135
g132
sg136
I01
sg34
g174
sg138
g134
sg139
I0
sg140
I0
sg141
I0
sg142
g134
sg35
g175
sg144
I0
stRp4307
sg146
g147
sg148
F0.98999999999999999
sg149
Nsg30
S'NoName'
p4308
sbasg120
g4183
sg123
F0.73307
sg124
g125
sg33
S'165'
p4309
sg127
g1
(g128
g12
(dp4310
g130
I6
sg131
g132
sg133
g134
sg135
g132
sg136
I01
sg34
g174
sg138
g134
sg139
I0
sg140
I0
sg141
I0
sg142
g134
sg35
g175
sg144
I0
stRp4311
sg146
g147
sg148
F0.98999999999999999
sg149
Nsg30
S'NoName'
p4312
sbasg120
g4
sg123
F1.7741899999999999
sg124
g125
sg33
S'76'
p4313
sg127
g1
(g128
g12
(dp4314
g130
I6
sg131
g132
sg133
g134
sg135
g132
sg136
I01
sg34
g174
sg138
g134
sg139
I0
sg140
I0
sg141
I0
sg142
g134
sg35
g175
sg144
I0
stRp4315
sg146
g147
sg148
F1
sg149
Nsg30
S'NoName'
p4316
sbasg31
S'8'
sg120
Nsg123
F0
sg124
g125
sg33
S'198'
p4317
sg34
S'sphere'
p4318
sg127
g1
(g128
g12
(dp4319
g130
I6
sg131
g132
sg133
g134
sg135
g132
sg136
I01
sg34
g174
sg138
g134
sg139
I0
sg140
I0
sg141
I0
sg142
g134
sg35
g175
sg144
I0
stRp4320
sg146
g147
sg148
F1
sg149
Nsg35
S'#833DB4'
p4321
sg30
g125
sb.